(i__main__
Data_mobile
p1
(dp2
S'vel_y'
p3
F-0.46501586008504259
sS'vel_x'
p4
F-0.56272573236823631
sS'pos_x'
p5
F-136.7324790147054
sS'pos_y'
p6
F13.104823961832423
sS'isAlive'
p7
I01
sS'cumulativeEnergy'
p8
F48.787447898059369
sS'geno'
p9
(lp10
F1.9329011773140197
aF1.9605828285260845
aF1.0924055357641598
aF5.2864746111065823
aF0.46890783554631166
asS'accel_x'
p11
F-1.9631594785637414
sS'accel_y'
p12
F-0.38210582529626419
sS'visionAngle'
p13
I130
sS'maxAccel'
p14
I2
sS'maxVel'
p15
F0.72999999999999998
sS'age'
p16
I99
sS'tailSize'
p17
I0
sS'sexualgeno'
p18
NsS'tailBrigh'
p19
I0
sS'maxSteering'
p20
I20
sS'energy'
p21
F1
sS'lastScale'
p22
F15.5
sb.(i__main__
Data_mobile
p1
(dp2
S'vel_y'
p3
F0.66185368071819606
sS'vel_x'
p4
F-0.30797679347602824
sS'pos_x'
p5
F-49.97925903718501
sS'pos_y'
p6
F17.535497418263922
sS'isAlive'
p7
I01
sS'cumulativeEnergy'
p8
F47.993634173308045
sS'geno'
p9
(lp10
F2.2475551481134537
aF2.2657678702288759
aF0.88505546706925253
aF5.2864746111065823
aF0.46890783554631166
asS'accel_x'
p11
F-0.91547073872297557
sS'accel_y'
p12
F1.778176967161033
sS'visionAngle'
p13
I130
sS'maxAccel'
p14
I2
sS'maxVel'
p15
F0.72999999999999998
sS'age'
p16
I99
sS'tailSize'
p17
I0
sS'sexualgeno'
p18
NsS'tailBrigh'
p19
I0
sS'maxSteering'
p20
I20
sS'energy'
p21
F0.86304652686231653
sS'lastScale'
p22
F14.130465268623166
sb.(i__main__
Data_mobile
p1
(dp2
S'vel_y'
p3
F0.28820569136563673
sS'vel_x'
p4
F-0.67069924665564917
sS'pos_x'
p5
F-50.545258001006211
sS'pos_y'
p6
F38.946632057832879
sS'isAlive'
p7
I01
sS'cumulativeEnergy'
p8
F47.538802609369569
sS'geno'
p9
(lp10
F2.430297704773503
aF1.8175200600450365
aF0.8096145512886942
aF5.2864746111065823
aF0.6711725481928883
asS'accel_x'
p11
F-1.6739926963744252
sS'accel_y'
p12
F1.0944169463623452
sS'visionAngle'
p13
I130
sS'maxAccel'
p14
I2
sS'maxVel'
p15
F0.72999999999999998
sS'age'
p16
I99
sS'tailSize'
p17
I0
sS'sexualgeno'
p18
NsS'tailBrigh'
p19
I0
sS'maxSteering'
p20
I20
sS'energy'
p21
F1
sS'lastScale'
p22
F15.5
sb.(i__main__
Data_mobile
p1
(dp2
S'vel_y'
p3
F-0.32974264647016976
sS'vel_x'
p4
F-0.65128318502695015
sS'pos_x'
p5
F-113.94448377145244
sS'pos_y'
p6
F-28.470961609160256
sS'isAlive'
p7
I01
sS'cumulativeEnergy'
p8
F44.871362182517061
sS'geno'
p9
(lp10
F-2.5061982405641823
aF3.2972964582111981
aF-1.6234218943676995
aF4.0665041259100807
aF-2.690267454376861
asS'accel_x'
p11
F-1.175487843474778
sS'accel_y'
p12
F-1.6180940423359258
sS'visionAngle'
p13
I130
sS'maxAccel'
p14
I2
sS'maxVel'
p15
F0.72999999999999998
sS'age'
p16
I99
sS'tailSize'
p17
I0
sS'sexualgeno'
p18
NsS'tailBrigh'
p19
I0
sS'maxSteering'
p20
I20
sS'energy'
p21
F1
sS'lastScale'
p22
F15.5
sb.(i__main__
Data_mobile
p1
(dp2
S'vel_y'
p3
F-0.24824930584289162
sS'vel_x'
p4
F-0.68649274005521899
sS'pos_x'
p5
F-115.03873691171522
sS'pos_y'
p6
F-26.5612772224069
sS'isAlive'
p7
I01
sS'cumulativeEnergy'
p8
F38.138061106809211
sS'geno'
p9
(lp10
F-2.5061982405641823
aF3.2972964582111981
aF-1.6234218943676995
aF5.2864746111065823
aF0.46890783554631166
asS'accel_x'
p11
F-1.9602530418129678
sS'accel_y'
p12
F0.39674678582567807
sS'visionAngle'
p13
I130
sS'maxAccel'
p14
I2
sS'maxVel'
p15
F0.72999999999999998
sS'age'
p16
I50
sS'tailSize'
p17
I0
sS'sexualgeno'
p18
NsS'tailBrigh'
p19
I0
sS'maxSteering'
p20
I20
sS'energy'
p21
F1
sS'lastScale'
p22
F15.5
sb.(i__main__
Data_mobile
p1
(dp2
S'vel_y'
p3
F0.44493564267307539
sS'vel_x'
p4
F0.57873333572475105
sS'pos_x'
p5
F-93.999291474540627
sS'pos_y'
p6
F-54.315791562191777
sS'isAlive'
p7
I01
sS'cumulativeEnergy'
p8
F36.601292809745075
sS'geno'
p9
(lp10
F2.0604155614380599
aF1.8175200600450365
aF0.8096145512886942
aF5.2864746111065823
aF1.134818846908499
asS'accel_x'
p11
F1.6183510564893988
sS'accel_y'
p12
F1.1751339744725477
sS'visionAngle'
p13
I130
sS'maxAccel'
p14
I2
sS'maxVel'
p15
F0.72999999999999998
sS'age'
p16
I99
sS'tailSize'
p17
I0
sS'sexualgeno'
p18
NsS'tailBrigh'
p19
I0
sS'maxSteering'
p20
I20
sS'energy'
p21
F0.72969325318924805
sS'lastScale'
p22
F12.79693253189248
sb.(i__main__
Data_mobile
p1
(dp2
S'vel_y'
p3
F-0.5448205999568122
sS'vel_x'
p4
F-0.48587088188396227
sS'pos_x'
p5
F-145.64447828379679
sS'pos_y'
p6
F-60.043673752188724
sS'isAlive'
p7
I01
sS'cumulativeEnergy'
p8
F36.005561306937707
sS'geno'
p9
(lp10
F2.2475551481134537
aF2.2657678702288759
aF0.88505546706925253
aF4.0665041259100807
aF-2.690267454376861
asS'accel_x'
p11
F-1.2960924394063322
sS'accel_y'
p12
F-1.5232020182870503
sS'visionAngle'
p13
I130
sS'maxAccel'
p14
I2
sS'maxVel'
p15
F0.72999999999999998
sS'age'
p16
I50
sS'tailSize'
p17
I0
sS'sexualgeno'
p18
NsS'tailBrigh'
p19
I0
sS'maxSteering'
p20
I20
sS'energy'
p21
F0.718401979617733
sS'lastScale'
p22
F12.68401979617733
sb.(i__main__
Data_mobile
p1
(dp2
S'vel_y'
p3
F0.5960460018388507
sS'vel_x'
p4
F0.42146074988297644
sS'pos_x'
p5
F-184.86010398663777
sS'pos_y'
p6
F-17.234622611447968
sS'isAlive'
p7
I01
sS'cumulativeEnergy'
p8
F33.970341194943536
sS'geno'
p9
(lp10
F2.2475551481134537
aF2.2657678702288759
aF1.0744662366177675
aF5.2864746111065823
aF0.46890783554631166
asS'accel_x'
p11
F0.42853828541862693
sS'accel_y'
p12
F0.19034047432742793
sS'visionAngle'
p13
I130
sS'maxAccel'
p14
I2
sS'maxVel'
p15
F0.72999999999999998
sS'age'
p16
I100
sS'tailSize'
p17
I0
sS'sexualgeno'
p18
NsS'tailBrigh'
p19
I0
sS'maxSteering'
p20
I20
sS'energy'
p21
F0.41933263221155676
sS'lastScale'
p22
F9.693326322115567
sb.(i__main__
Data_mobile
p1
(dp2
S'vel_y'
p3
F-0.063258745265010741
sS'vel_x'
p4
F-0.72725396605827908
sS'pos_x'
p5
F-78.867331421585106
sS'pos_y'
p6
F-25.995769257169471
sS'isAlive'
p7
I01
sS'cumulativeEnergy'
p8
F32.213826995062448
sS'geno'
p9
(lp10
F1.9329011773140197
aF2.2657678702288759
aF0.88505546706925253
aF5.2864746111065823
aF0.4921401327749072
asS'accel_x'
p11
F-1.7591838680962633
sS'accel_y'
p12
F-0.95145789093888411
sS'visionAngle'
p13
I130
sS'maxAccel'
p14
I2
sS'maxVel'
p15
F0.72999999999999998
sS'age'
p16
I50
sS'tailSize'
p17
I0
sS'sexualgeno'
p18
NsS'tailBrigh'
p19
I0
sS'maxSteering'
p20
I20
sS'energy'
p21
F1
sS'lastScale'
p22
F15.5
sb.(i__main__
Data_mobile
p1
(dp2
S'vel_y'
p3
F0.65746391680753813
sS'vel_x'
p4
F-0.31723996926000753
sS'pos_x'
p5
F-47.149199599859998
sS'pos_y'
p6
F21.105180996910825
sS'isAlive'
p7
I01
sS'cumulativeEnergy'
p8
F30.381245061703304
sS'geno'
p9
(lp10
F-2.5061982405641823
aF3.2972964582111981
aF-1.6234218943676995
aF5.2864746111065823
aF0.46890783554631166
asS'accel_x'
p11
F-0.67972595022420224
sS'accel_y'
p12
F1.88094992825216
sS'visionAngle'
p13
I130
sS'maxAccel'
p14
I2
sS'maxVel'
p15
F0.72999999999999998
sS'age'
p16
I50
sS'tailSize'
p17
I0
sS'sexualgeno'
p18
NsS'tailBrigh'
p19
I0
sS'maxSteering'
p20
I20
sS'energy'
p21
F0.6982567602244002
sS'lastScale'
p22
F12.482567602244
sb.(i__main__
Data_mobile
p1
(dp2
S'vel_y'
p3
F0.54640685760138596
sS'vel_x'
p4
F0.48408630012238379
sS'pos_x'
p5
F-173.93382944979072
sS'pos_y'
p6
F-9.8176234795837267
sS'isAlive'
p7
I01
sS'cumulativeEnergy'
p8
F23.370341194943535
sS'geno'
p9
(lp10
F2.0604155614380599
aF1.8175200600450365
aF0.8096145512886942
aF5.2864746111065823
aF0.46890783554631166
asS'accel_x'
p11
F0.28963715506637433
sS'accel_y'
p12
F0.36876127324026842
sS'visionAngle'
p13
I130
sS'maxAccel'
p14
I2
sS'maxVel'
p15
F0.72999999999999998
sS'age'
p16
I100
sS'tailSize'
p17
I0
sS'sexualgeno'
p18
NsS'tailBrigh'
p19
I0
sS'maxSteering'
p20
I20
sS'energy'
p21
F0.16933263221155662
sS'lastScale'
p22
F7.1933263221155661
sb.(i__main__
Data_mobile
p1
(dp2
S'vel_y'
p3
F-0.12121357336819094
sS'vel_x'
p4
F-0.71986614702409379
sS'pos_x'
p5
F-115.03159279579299
sS'pos_y'
p6
F-26.306526378900056
sS'isAlive'
p7
I01
sS'cumulativeEnergy'
p8
F16.636918387247512
sS'geno'
p9
(lp10
F2.2475551481134537
aF1.9605828285260845
aF1.0572355576516106
aF5.2864746111065823
aF0.46890783554631166
asS'accel_x'
p11
F-1.5626911327333457
sS'accel_y'
p12
F-1.2481972695357781
sS'visionAngle'
p13
I130
sS'maxAccel'
p14
I2
sS'maxVel'
p15
F0.72999999999999998
sS'age'
p16
I50
sS'tailSize'
p17
I0
sS'sexualgeno'
p18
NsS'tailBrigh'
p19
I0
sS'maxSteering'
p20
I20
sS'energy'
p21
F1
sS'lastScale'
p22
F15.5
sb.(i__main__
Data_mobile
p1
(dp2
S'vel_y'
p3
F-0.47433262674180937
sS'vel_x'
p4
F-0.55489508847007751
sS'pos_x'
p5
F-145.67429579414974
sS'pos_y'
p6
F-64.396467147494789
sS'isAlive'
p7
I01
sS'cumulativeEnergy'
p8
F15.231245061703291
sS'geno'
p9
(lp10
F2.2475551481134537
aF2.2657678702288759
aF0.88505546706925253
aF4.0665041259100807
aF-2.690267454376861
asS'accel_x'
p11
F-1.1481000652385196
sS'accel_y'
p12
F-1.6376404489995073
sS'visionAngle'
p13
I130
sS'maxAccel'
p14
I2
sS'maxVel'
p15
F0.72999999999999998
sS'age'
p16
I50
sS'tailSize'
p17
I0
sS'sexualgeno'
p18
NsS'tailBrigh'
p19
I0
sS'maxSteering'
p20
I20
sS'energy'
p21
F0.098256760224399664
sS'lastScale'
p22
F6.4825676022439964
sb.(i__main__
Data_mobile
p1
(dp2
S'vel_y'
p3
F-0.35396124554828839
sS'vel_x'
p4
F-0.63542832814872885
sS'pos_x'
p5
F-132.76804450943615
sS'pos_y'
p6
F5.8718718244512491
sS'isAlive'
p7
I01
sS'cumulativeEnergy'
p8
F0.5
sS'geno'
p9
(lp10
F-2.5061982405641823
aF3.2972964582111981
aF-1.6234218943676995
aF4.0665041259100807
aF0.46890783554631166
asS'accel_x'
p11
F0
sS'accel_y'
p12
F0
sS'visionAngle'
p13
I130
sS'maxAccel'
p14
I2
sS'maxVel'
p15
F0.72999999999999998
sS'age'
p16
I0
sS'tailSize'
p17
I0
sS'sexualgeno'
p18
NsS'tailBrigh'
p19
I0
sS'maxSteering'
p20
I20
sS'energy'
p21
F0.5
sS'lastScale'
p22
F5.5
sb.(i__main__
Data_mobile
p1
(dp2
S'vel_y'
p3
F-0.4391240987954832
sS'vel_x'
p4
F-0.57967593531956751
sS'pos_x'
p5
F-132.89460614628806
sS'pos_y'
p6
F6.1027784671418139
sS'isAlive'
p7
I01
sS'cumulativeEnergy'
p8
F0.5
sS'geno'
p9
(lp10
F-2.5061982405641823
aF3.2972964582111981
aF-1.6234218943676995
aF4.0665041259100807
aF0.46890783554631166
asS'accel_x'
p11
F0
sS'accel_y'
p12
F0
sS'visionAngle'
p13
I130
sS'maxAccel'
p14
I2
sS'maxVel'
p15
F0.72999999999999998
sS'age'
p16
I0
sS'tailSize'
p17
I0
sS'sexualgeno'
p18
NsS'tailBrigh'
p19
I0
sS'maxSteering'
p20
I20
sS'energy'
p21
F0.5
sS'lastScale'
p22
F5.5
sb.(i__main__
Data_mobile
p1
(dp2
S'vel_y'
p3
F-0.37235154639081192
sS'vel_x'
p4
F-0.61563419357157767
sS'pos_x'
p5
F-123.60260979034356
sS'pos_y'
p6
F-10.902593417651413
sS'isAlive'
p7
I01
sS'cumulativeEnergy'
p8
F0.5
sS'geno'
p9
(lp10
F-2.5061982405641823
aF3.2972964582111981
aF-1.6234218943676995
aF5.2864746111065823
aF0.46890783554631166
asS'accel_x'
p11
F0
sS'accel_y'
p12
F0
sS'visionAngle'
p13
I130
sS'maxAccel'
p14
I2
sS'maxVel'
p15
F0.72999999999999998
sS'age'
p16
I0
sS'tailSize'
p17
I0
sS'sexualgeno'
p18
NsS'tailBrigh'
p19
I0
sS'maxSteering'
p20
I20
sS'energy'
p21
F0.5
sS'lastScale'
p22
F5.5
sb.(i__main__
Data_mobile
p1
(dp2
S'vel_y'
p3
F-0.45995297657291867
sS'vel_x'
p4
F-0.56604018062417838
sS'pos_x'
p5
F-114.36675601669415
sS'pos_y'
p6
F-27.700542792878061
sS'isAlive'
p7
I01
sS'cumulativeEnergy'
p8
F0.5
sS'geno'
p9
(lp10
F1.9329011773140197
aF1.9605828285260845
aF1.0924055357641598
aF5.2864746111065823
aF-2.690267454376861
asS'accel_x'
p11
F0
sS'accel_y'
p12
F0
sS'visionAngle'
p13
I130
sS'maxAccel'
p14
I2
sS'maxVel'
p15
F0.72999999999999998
sS'age'
p16
I0
sS'tailSize'
p17
I0
sS'sexualgeno'
p18
NsS'tailBrigh'
p19
I0
sS'maxSteering'
p20
I20
sS'energy'
p21
F0.5
sS'lastScale'
p22
F5.5
sb.(i__main__
Data_mobile
p1
(dp2
S'vel_y'
p3
F-0.25168547058153484
sS'vel_x'
p4
F-0.6845307961146132
sS'pos_x'
p5
F-120.42195257547264
sS'pos_y'
p6
F-16.718292263820533
sS'isAlive'
p7
I01
sS'cumulativeEnergy'
p8
F0.5
sS'geno'
p9
(lp10
F1.9329011773140197
aF1.9605828285260845
aF1.0924055357641598
aF5.2864746111065823
aF0.46890783554631166
asS'accel_x'
p11
F0
sS'accel_y'
p12
F0
sS'visionAngle'
p13
I130
sS'maxAccel'
p14
I2
sS'maxVel'
p15
F0.72999999999999998
sS'age'
p16
I0
sS'tailSize'
p17
I0
sS'sexualgeno'
p18
NsS'tailBrigh'
p19
I0
sS'maxSteering'
p20
I20
sS'energy'
p21
F0.5
sS'lastScale'
p22
F5.5
sb.(i__main__
Data_mobile
p1
(dp2
S'vel_y'
p3
F-0.32511270777265533
sS'vel_x'
p4
F-0.58278070156815143
sS'pos_x'
p5
F-58.887888567998289
sS'pos_y'
p6
F36.445232713563854
sS'isAlive'
p7
I01
sS'cumulativeEnergy'
p8
F0.5
sS'geno'
p9
(lp10
F1.9329011773140197
aF1.9605828285260845
aF1.0924055357641598
aF5.2864746111065823
aF0.6711725481928883
asS'accel_x'
p11
F0
sS'accel_y'
p12
F0
sS'visionAngle'
p13
I130
sS'maxAccel'
p14
I2
sS'maxVel'
p15
F0.72999999999999998
sS'age'
p16
I0
sS'tailSize'
p17
I0
sS'sexualgeno'
p18
NsS'tailBrigh'
p19
I0
sS'maxSteering'
p20
I20
sS'energy'
p21
F0.5
sS'lastScale'
p22
F5.5
sb.(i__main__
Data_mobile
p1
(dp2
S'vel_y'
p3
F-0.26935844827659233
sS'vel_x'
p4
F-0.59077301581179986
sS'pos_x'
p5
F-53.33772880201056
sS'pos_y'
p6
F38.109356024280657
sS'isAlive'
p7
I01
sS'cumulativeEnergy'
p8
F0.5
sS'geno'
p9
(lp10
F2.430297704773503
aF1.8175200600450365
aF0.8096145512886942
aF5.2864746111065823
aF0.46890783554631166
asS'accel_x'
p11
F0
sS'accel_y'
p12
F0
sS'visionAngle'
p13
I130
sS'maxAccel'
p14
I2
sS'maxVel'
p15
F0.72999999999999998
sS'age'
p16
I0
sS'tailSize'
p17
I0
sS'sexualgeno'
p18
NsS'tailBrigh'
p19
I0
sS'maxSteering'
p20
I20
sS'energy'
p21
F0.5
sS'lastScale'
p22
F5.5
sb.(i__main__
Data_mobile
p1
(dp2
S'vel_y'
p3
F-0.43563570699209814
sS'vel_x'
p4
F-0.58195963276215834
sS'pos_x'
p5
F-121.68044371652738
sS'pos_y'
p6
F-14.357012206022169
sS'isAlive'
p7
I01
sS'cumulativeEnergy'
p8
F0.5
sS'geno'
p9
(lp10
F1.9329011773140197
aF1.9605828285260845
aF1.0924055357641598
aF4.8046147533909034
aF-2.690267454376861
asS'accel_x'
p11
F0
sS'accel_y'
p12
F0
sS'visionAngle'
p13
I130
sS'maxAccel'
p14
I2
sS'maxVel'
p15
F0.72999999999999998
sS'age'
p16
I0
sS'tailSize'
p17
I0
sS'sexualgeno'
p18
NsS'tailBrigh'
p19
I0
sS'maxSteering'
p20
I20
sS'energy'
p21
F0.5
sS'lastScale'
p22
F5.5
sb.(i__main__
Data_mobile
p1
(dp2
S'vel_y'
p3
I0
sS'vel_x'
p4
I0
sS'pos_x'
p5
I-9579
sS'pos_y'
p6
I9779
sS'isAlive'
p7
I00
sS'cumulativeEnergy'
p8
F0.5
sS'geno'
p9
(lp10
F2.0604155614380599
aF1.8175200600450365
aF0.8096145512886942
aF5.2864746111065823
aF0.6711725481928883
asS'accel_x'
p11
F0
sS'accel_y'
p12
F0
sS'visionAngle'
p13
I130
sS'maxAccel'
p14
I2
sS'maxVel'
p15
F0.72999999999999998
sS'age'
p16
I0
sS'tailSize'
p17
I0
sS'sexualgeno'
p18
NsS'tailBrigh'
p19
I0
sS'maxSteering'
p20
I20
sS'energy'
p21
F0.5
sS'lastScale'
p22
F5.5
sb.(i__main__
Data_mobile
p1
(dp2
S'vel_y'
p3
I0
sS'vel_x'
p4
I0
sS'pos_x'
p5
I-9579
sS'pos_y'
p6
I9779
sS'isAlive'
p7
I00
sS'cumulativeEnergy'
p8
F0.5
sS'geno'
p9
(lp10
F-4.2715627310727111
aF4.4332416200582472
aF-1.6810077200950522
aF1.9612156872764084
aF4.599339502495873
asS'accel_x'
p11
F0
sS'accel_y'
p12
F0
sS'visionAngle'
p13
I130
sS'maxAccel'
p14
I2
sS'maxVel'
p15
F0.72999999999999998
sS'age'
p16
I0
sS'tailSize'
p17
I0
sS'sexualgeno'
p18
NsS'tailBrigh'
p19
I0
sS'maxSteering'
p20
I20
sS'energy'
p21
F0.5
sS'lastScale'
p22
F5.5
sb.(i__main__
Data_mobile
p1
(dp2
S'vel_y'
p3
I0
sS'vel_x'
p4
I0
sS'pos_x'
p5
I-9579
sS'pos_y'
p6
I9779
sS'isAlive'
p7
I00
sS'cumulativeEnergy'
p8
F0.5
sS'geno'
p9
(lp10
F1.9329011773140197
aF1.8175200600450365
aF0.8096145512886942
aF5.2864746111065823
aF0.46890783554631166
asS'accel_x'
p11
F0
sS'accel_y'
p12
F0
sS'visionAngle'
p13
I130
sS'maxAccel'
p14
I2
sS'maxVel'
p15
F0.72999999999999998
sS'age'
p16
I0
sS'tailSize'
p17
I0
sS'sexualgeno'
p18
NsS'tailBrigh'
p19
I0
sS'maxSteering'
p20
I20
sS'energy'
p21
F0.5
sS'lastScale'
p22
F5.5
sb.(i__main__
Data_mobile
p1
(dp2
S'vel_y'
p3
I0
sS'vel_x'
p4
I0
sS'pos_x'
p5
I-9579
sS'pos_y'
p6
I9779
sS'isAlive'
p7
I00
sS'cumulativeEnergy'
p8
F0.5
sS'geno'
p9
(lp10
F1.9329011773140197
aF1.9605828285260845
aF0.61678117799767662
aF5.2864746111065823
aF0.46890783554631166
asS'accel_x'
p11
F0
sS'accel_y'
p12
F0
sS'visionAngle'
p13
I130
sS'maxAccel'
p14
I2
sS'maxVel'
p15
F0.72999999999999998
sS'age'
p16
I0
sS'tailSize'
p17
I0
sS'sexualgeno'
p18
NsS'tailBrigh'
p19
I0
sS'maxSteering'
p20
I20
sS'energy'
p21
F0.5
sS'lastScale'
p22
F5.5
sb.(i__main__
Data_mobile
p1
(dp2
S'vel_y'
p3
I0
sS'vel_x'
p4
I0
sS'pos_x'
p5
I-9579
sS'pos_y'
p6
I9779
sS'isAlive'
p7
I00
sS'cumulativeEnergy'
p8
F0.5
sS'geno'
p9
(lp10
F1.5707746543532326
aF1.3763839964552376
aF0.8096145512886942
aF5.6598969424722041
aF0.6711725481928883
asS'accel_x'
p11
F0
sS'accel_y'
p12
F0
sS'visionAngle'
p13
I130
sS'maxAccel'
p14
I2
sS'maxVel'
p15
F0.72999999999999998
sS'age'
p16
I0
sS'tailSize'
p17
I0
sS'sexualgeno'
p18
NsS'tailBrigh'
p19
I0
sS'maxSteering'
p20
I20
sS'energy'
p21
F0.5
sS'lastScale'
p22
F5.5
sb.(i__main__
Data_mobile
p1
(dp2
S'vel_y'
p3
I0
sS'vel_x'
p4
I0
sS'pos_x'
p5
I-9579
sS'pos_y'
p6
I9779
sS'isAlive'
p7
I00
sS'cumulativeEnergy'
p8
F0.5
sS'geno'
p9
(lp10
F2.0604155614380599
aF1.8175200600450365
aF0.8096145512886942
aF5.2864746111065823
aF0.46890783554631166
asS'accel_x'
p11
F0
sS'accel_y'
p12
F0
sS'visionAngle'
p13
I130
sS'maxAccel'
p14
I2
sS'maxVel'
p15
F0.72999999999999998
sS'age'
p16
I0
sS'tailSize'
p17
I0
sS'sexualgeno'
p18
NsS'tailBrigh'
p19
I0
sS'maxSteering'
p20
I20
sS'energy'
p21
F0.5
sS'lastScale'
p22
F5.5
sb.(i__main__
Data_mobile
p1
(dp2
S'vel_y'
p3
I0
sS'vel_x'
p4
I0
sS'pos_x'
p5
I-9579
sS'pos_y'
p6
I9779
sS'isAlive'
p7
I00
sS'cumulativeEnergy'
p8
F0.5
sS'geno'
p9
(lp10
F1.9329011773140197
aF1.8175200600450365
aF0.8096145512886942
aF5.2864746111065823
aF0.6711725481928883
asS'accel_x'
p11
F0
sS'accel_y'
p12
F0
sS'visionAngle'
p13
I130
sS'maxAccel'
p14
I2
sS'maxVel'
p15
F0.72999999999999998
sS'age'
p16
I0
sS'tailSize'
p17
I0
sS'sexualgeno'
p18
NsS'tailBrigh'
p19
I0
sS'maxSteering'
p20
I20
sS'energy'
p21
F0.5
sS'lastScale'
p22
F5.5
sb.(i__main__
Data_mobile
p1
(dp2
S'vel_y'
p3
I0
sS'vel_x'
p4
I0
sS'pos_x'
p5
I-9579
sS'pos_y'
p6
I9779
sS'isAlive'
p7
I00
sS'cumulativeEnergy'
p8
F0.5
sS'geno'
p9
(lp10
F2.2475551481134537
aF1.8175200600450365
aF0.8096145512886942
aF5.2864746111065823
aF1.134818846908499
asS'accel_x'
p11
F0
sS'accel_y'
p12
F0
sS'visionAngle'
p13
I130
sS'maxAccel'
p14
I2
sS'maxVel'
p15
F0.72999999999999998
sS'age'
p16
I0
sS'tailSize'
p17
I0
sS'sexualgeno'
p18
NsS'tailBrigh'
p19
I0
sS'maxSteering'
p20
I20
sS'energy'
p21
F0.5
sS'lastScale'
p22
F5.5
sb.(i__main__
Data_mobile
p1
(dp2
S'vel_y'
p3
I0
sS'vel_x'
p4
I0
sS'pos_x'
p5
I-9579
sS'pos_y'
p6
I9779
sS'isAlive'
p7
I00
sS'cumulativeEnergy'
p8
F0.5
sS'geno'
p9
(lp10
F1.9329011773140197
aF1.9605828285260845
aF0.8096145512886942
aF5.2864746111065823
aF0.6711725481928883
asS'accel_x'
p11
F0
sS'accel_y'
p12
F0
sS'visionAngle'
p13
I130
sS'maxAccel'
p14
I2
sS'maxVel'
p15
F0.72999999999999998
sS'age'
p16
I0
sS'tailSize'
p17
I0
sS'sexualgeno'
p18
NsS'tailBrigh'
p19
I0
sS'maxSteering'
p20
I20
sS'energy'
p21
F0.5
sS'lastScale'
p22
F5.5
sb.(i__main__
Data_mobile
p1
(dp2
S'vel_y'
p3
I0
sS'vel_x'
p4
I0
sS'pos_x'
p5
I-9579
sS'pos_y'
p6
I9779
sS'isAlive'
p7
I00
sS'cumulativeEnergy'
p8
F0.5
sS'geno'
p9
(lp10
F1.9329011773140197
aF2.2159986398586344
aF0.433119713386653
aF5.2864746111065823
aF0.46890783554631166
asS'accel_x'
p11
F0
sS'accel_y'
p12
F0
sS'visionAngle'
p13
I130
sS'maxAccel'
p14
I2
sS'maxVel'
p15
F0.72999999999999998
sS'age'
p16
I0
sS'tailSize'
p17
I0
sS'sexualgeno'
p18
NsS'tailBrigh'
p19
I0
sS'maxSteering'
p20
I20
sS'energy'
p21
F0.5
sS'lastScale'
p22
F5.5
sb.(i__main__
Data_mobile
p1
(dp2
S'vel_y'
p3
I0
sS'vel_x'
p4
I0
sS'pos_x'
p5
I-9579
sS'pos_y'
p6
I9779
sS'isAlive'
p7
I00
sS'cumulativeEnergy'
p8
F0.5
sS'geno'
p9
(lp10
F1.9329011773140197
aF1.8175200600450365
aF0.8096145512886942
aF5.2864746111065823
aF1.2189915941822962
asS'accel_x'
p11
F0
sS'accel_y'
p12
F0
sS'visionAngle'
p13
I130
sS'maxAccel'
p14
I2
sS'maxVel'
p15
F0.72999999999999998
sS'age'
p16
I0
sS'tailSize'
p17
I0
sS'sexualgeno'
p18
NsS'tailBrigh'
p19
I0
sS'maxSteering'
p20
I20
sS'energy'
p21
F0.5
sS'lastScale'
p22
F5.5
sb.(i__main__
Data_mobile
p1
(dp2
S'vel_y'
p3
I0
sS'vel_x'
p4
I0
sS'pos_x'
p5
I-9579
sS'pos_y'
p6
I9779
sS'isAlive'
p7
I00
sS'cumulativeEnergy'
p8
F0.5
sS'geno'
p9
(lp10
F2.2725810397839368
aF1.8175200600450365
aF0.32568516912140955
aF5.2864746111065823
aF1.134818846908499
asS'accel_x'
p11
F0
sS'accel_y'
p12
F0
sS'visionAngle'
p13
I130
sS'maxAccel'
p14
I2
sS'maxVel'
p15
F0.72999999999999998
sS'age'
p16
I0
sS'tailSize'
p17
I0
sS'sexualgeno'
p18
NsS'tailBrigh'
p19
I0
sS'maxSteering'
p20
I20
sS'energy'
p21
F0.5
sS'lastScale'
p22
F5.5
sb.(i__main__
Data_mobile
p1
(dp2
S'vel_y'
p3
I0
sS'vel_x'
p4
I0
sS'pos_x'
p5
I-9579
sS'pos_y'
p6
I9779
sS'isAlive'
p7
I00
sS'cumulativeEnergy'
p8
F0.5
sS'geno'
p9
(lp10
F1.9329011773140197
aF1.9605828285260845
aF0.34967392210764359
aF5.2864746111065823
aF0.46890783554631166
asS'accel_x'
p11
F0
sS'accel_y'
p12
F0
sS'visionAngle'
p13
I130
sS'maxAccel'
p14
I2
sS'maxVel'
p15
F0.72999999999999998
sS'age'
p16
I0
sS'tailSize'
p17
I0
sS'sexualgeno'
p18
NsS'tailBrigh'
p19
I0
sS'maxSteering'
p20
I20
sS'energy'
p21
F0.5
sS'lastScale'
p22
F5.5
sb.(i__main__
Data_mobile
p1
(dp2
S'vel_y'
p3
I0
sS'vel_x'
p4
I0
sS'pos_x'
p5
I-9579
sS'pos_y'
p6
I9779
sS'isAlive'
p7
I00
sS'cumulativeEnergy'
p8
F0.5
sS'geno'
p9
(lp10
F1.9329011773140197
aF1.8175200600450365
aF0.8096145512886942
aF5.3225209985061488
aF1.0706130412264043
asS'accel_x'
p11
F0
sS'accel_y'
p12
F0
sS'visionAngle'
p13
I130
sS'maxAccel'
p14
I2
sS'maxVel'
p15
F0.72999999999999998
sS'age'
p16
I0
sS'tailSize'
p17
I0
sS'sexualgeno'
p18
NsS'tailBrigh'
p19
I0
sS'maxSteering'
p20
I20
sS'energy'
p21
F0.5
sS'lastScale'
p22
F5.5
sb.(i__main__
Data_mobile
p1
(dp2
S'vel_y'
p3
I0
sS'vel_x'
p4
I0
sS'pos_x'
p5
I-9579
sS'pos_y'
p6
I9779
sS'isAlive'
p7
I00
sS'cumulativeEnergy'
p8
F0.5
sS'geno'
p9
(lp10
F1.9329011773140197
aF1.8175200600450365
aF0.8096145512886942
aF5.2864746111065823
aF0.46890783554631166
asS'accel_x'
p11
F0
sS'accel_y'
p12
F0
sS'visionAngle'
p13
I130
sS'maxAccel'
p14
I2
sS'maxVel'
p15
F0.72999999999999998
sS'age'
p16
I0
sS'tailSize'
p17
I0
sS'sexualgeno'
p18
NsS'tailBrigh'
p19
I0
sS'maxSteering'
p20
I20
sS'energy'
p21
F0.5
sS'lastScale'
p22
F5.5
sb.(i__main__
Data_mobile
p1
(dp2
S'vel_y'
p3
I0
sS'vel_x'
p4
I0
sS'pos_x'
p5
I-9579
sS'pos_y'
p6
I9779
sS'isAlive'
p7
I00
sS'cumulativeEnergy'
p8
F0.5
sS'geno'
p9
(lp10
F1.9329011773140197
aF1.8175200600450365
aF0.8096145512886942
aF5.2864746111065823
aF1.134818846908499
asS'accel_x'
p11
F0
sS'accel_y'
p12
F0
sS'visionAngle'
p13
I130
sS'maxAccel'
p14
I2
sS'maxVel'
p15
F0.72999999999999998
sS'age'
p16
I0
sS'tailSize'
p17
I0
sS'sexualgeno'
p18
NsS'tailBrigh'
p19
I0
sS'maxSteering'
p20
I20
sS'energy'
p21
F0.5
sS'lastScale'
p22
F5.5
sb.(i__main__
Data_mobile
p1
(dp2
S'vel_y'
p3
I0
sS'vel_x'
p4
I0
sS'pos_x'
p5
I-9579
sS'pos_y'
p6
I9779
sS'isAlive'
p7
I00
sS'cumulativeEnergy'
p8
F0.5
sS'geno'
p9
(lp10
F1.9329011773140197
aF1.8175200600450365
aF0.8096145512886942
aF5.2864746111065823
aF0.46890783554631166
asS'accel_x'
p11
F0
sS'accel_y'
p12
F0
sS'visionAngle'
p13
I130
sS'maxAccel'
p14
I2
sS'maxVel'
p15
F0.72999999999999998
sS'age'
p16
I0
sS'tailSize'
p17
I0
sS'sexualgeno'
p18
NsS'tailBrigh'
p19
I0
sS'maxSteering'
p20
I20
sS'energy'
p21
F0.5
sS'lastScale'
p22
F5.5
sb.(i__main__
Data_mobile
p1
(dp2
S'vel_y'
p3
I0
sS'vel_x'
p4
I0
sS'pos_x'
p5
I-9579
sS'pos_y'
p6
I9779
sS'isAlive'
p7
I00
sS'cumulativeEnergy'
p8
F0.5
sS'geno'
p9
(lp10
F1.9329011773140197
aF1.8175200600450365
aF0.8096145512886942
aF5.2864746111065823
aF1.134818846908499
asS'accel_x'
p11
F0
sS'accel_y'
p12
F0
sS'visionAngle'
p13
I130
sS'maxAccel'
p14
I2
sS'maxVel'
p15
F0.72999999999999998
sS'age'
p16
I0
sS'tailSize'
p17
I0
sS'sexualgeno'
p18
NsS'tailBrigh'
p19
I0
sS'maxSteering'
p20
I20
sS'energy'
p21
F0.5
sS'lastScale'
p22
F5.5
sb.(i__main__
Data_mobile
p1
(dp2
S'vel_y'
p3
I0
sS'vel_x'
p4
I0
sS'pos_x'
p5
I-9579
sS'pos_y'
p6
I9779
sS'isAlive'
p7
I00
sS'cumulativeEnergy'
p8
F0.5
sS'geno'
p9
(lp10
F1.9329011773140197
aF1.8175200600450365
aF0.8096145512886942
aF5.3225209985061488
aF1.6077127951572545
asS'accel_x'
p11
F0
sS'accel_y'
p12
F0
sS'visionAngle'
p13
I130
sS'maxAccel'
p14
I2
sS'maxVel'
p15
F0.72999999999999998
sS'age'
p16
I0
sS'tailSize'
p17
I0
sS'sexualgeno'
p18
NsS'tailBrigh'
p19
I0
sS'maxSteering'
p20
I20
sS'energy'
p21
F0.5
sS'lastScale'
p22
F5.5
sb.(i__main__
Data_mobile
p1
(dp2
S'vel_y'
p3
I0
sS'vel_x'
p4
I0
sS'pos_x'
p5
I-9579
sS'pos_y'
p6
I9779
sS'isAlive'
p7
I00
sS'cumulativeEnergy'
p8
F0.5
sS'geno'
p9
(lp10
F1.9329011773140197
aF1.8175200600450365
aF0.8096145512886942
aF5.3225209985061488
aF1.134818846908499
asS'accel_x'
p11
F0
sS'accel_y'
p12
F0
sS'visionAngle'
p13
I130
sS'maxAccel'
p14
I2
sS'maxVel'
p15
F0.72999999999999998
sS'age'
p16
I0
sS'tailSize'
p17
I0
sS'sexualgeno'
p18
NsS'tailBrigh'
p19
I0
sS'maxSteering'
p20
I20
sS'energy'
p21
F0.5
sS'lastScale'
p22
F5.5
sb.(i__main__
Data_mobile
p1
(dp2
S'vel_y'
p3
I0
sS'vel_x'
p4
I0
sS'pos_x'
p5
I-9579
sS'pos_y'
p6
I9779
sS'isAlive'
p7
I00
sS'cumulativeEnergy'
p8
F0.5
sS'geno'
p9
(lp10
F1.9607011407496706
aF1.8175200600450365
aF0.8096145512886942
aF5.3225209985061488
aF0.69994850703088807
asS'accel_x'
p11
F0
sS'accel_y'
p12
F0
sS'visionAngle'
p13
I130
sS'maxAccel'
p14
I2
sS'maxVel'
p15
F0.72999999999999998
sS'age'
p16
I0
sS'tailSize'
p17
I0
sS'sexualgeno'
p18
NsS'tailBrigh'
p19
I0
sS'maxSteering'
p20
I20
sS'energy'
p21
F0.5
sS'lastScale'
p22
F5.5
sb.(i__main__
Data_mobile
p1
(dp2
S'vel_y'
p3
I0
sS'vel_x'
p4
I0
sS'pos_x'
p5
I-9579
sS'pos_y'
p6
I9779
sS'isAlive'
p7
I00
sS'cumulativeEnergy'
p8
F0.5
sS'geno'
p9
(lp10
F1.9329011773140197
aF1.8175200600450365
aF0.8096145512886942
aF5.2864746111065823
aF0.46890783554631166
asS'accel_x'
p11
F0
sS'accel_y'
p12
F0
sS'visionAngle'
p13
I130
sS'maxAccel'
p14
I2
sS'maxVel'
p15
F0.72999999999999998
sS'age'
p16
I0
sS'tailSize'
p17
I0
sS'sexualgeno'
p18
NsS'tailBrigh'
p19
I0
sS'maxSteering'
p20
I20
sS'energy'
p21
F0.5
sS'lastScale'
p22
F5.5
sb.(i__main__
Data_mobile
p1
(dp2
S'vel_y'
p3
I0
sS'vel_x'
p4
I0
sS'pos_x'
p5
I-9579
sS'pos_y'
p6
I9779
sS'isAlive'
p7
I00
sS'cumulativeEnergy'
p8
F0.5
sS'geno'
p9
(lp10
F1.9329011773140197
aF2.230754936679944
aF0.8096145512886942
aF5.2864746111065823
aF0.6711725481928883
asS'accel_x'
p11
F0
sS'accel_y'
p12
F0
sS'visionAngle'
p13
I130
sS'maxAccel'
p14
I2
sS'maxVel'
p15
F0.72999999999999998
sS'age'
p16
I0
sS'tailSize'
p17
I0
sS'sexualgeno'
p18
NsS'tailBrigh'
p19
I0
sS'maxSteering'
p20
I20
sS'energy'
p21
F0.5
sS'lastScale'
p22
F5.5
sb.(i__main__
Data_mobile
p1
(dp2
S'vel_y'
p3
I0
sS'vel_x'
p4
I0
sS'pos_x'
p5
I-9579
sS'pos_y'
p6
I9779
sS'isAlive'
p7
I00
sS'cumulativeEnergy'
p8
F0.5
sS'geno'
p9
(lp10
F1.9329011773140197
aF1.8175200600450365
aF0.8096145512886942
aF5.3225209985061488
aF0.6711725481928883
asS'accel_x'
p11
F0
sS'accel_y'
p12
F0
sS'visionAngle'
p13
I130
sS'maxAccel'
p14
I2
sS'maxVel'
p15
F0.72999999999999998
sS'age'
p16
I0
sS'tailSize'
p17
I0
sS'sexualgeno'
p18
NsS'tailBrigh'
p19
I0
sS'maxSteering'
p20
I20
sS'energy'
p21
F0.5
sS'lastScale'
p22
F5.5
sb.(i__main__
Data_mobile
p1
(dp2
S'vel_y'
p3
I0
sS'vel_x'
p4
I0
sS'pos_x'
p5
I-9579
sS'pos_y'
p6
I9779
sS'isAlive'
p7
I00
sS'cumulativeEnergy'
p8
F0.5
sS'geno'
p9
(lp10
F1.9329011773140197
aF1.8175200600450365
aF0.8096145512886942
aF5.3225209985061488
aF0.6711725481928883
asS'accel_x'
p11
F0
sS'accel_y'
p12
F0
sS'visionAngle'
p13
I130
sS'maxAccel'
p14
I2
sS'maxVel'
p15
F0.72999999999999998
sS'age'
p16
I0
sS'tailSize'
p17
I0
sS'sexualgeno'
p18
NsS'tailBrigh'
p19
I0
sS'maxSteering'
p20
I20
sS'energy'
p21
F0.5
sS'lastScale'
p22
F5.5
sb.(i__main__
Data_mobile
p1
(dp2
S'vel_y'
p3
I0
sS'vel_x'
p4
I0
sS'pos_x'
p5
I-9579
sS'pos_y'
p6
I9779
sS'isAlive'
p7
I00
sS'cumulativeEnergy'
p8
F0.5
sS'geno'
p9
(lp10
F2.154998431615283
aF1.8175200600450365
aF0.8096145512886942
aF5.544374872544906
aF1.134818846908499
asS'accel_x'
p11
F0
sS'accel_y'
p12
F0
sS'visionAngle'
p13
I130
sS'maxAccel'
p14
I2
sS'maxVel'
p15
F0.72999999999999998
sS'age'
p16
I0
sS'tailSize'
p17
I0
sS'sexualgeno'
p18
NsS'tailBrigh'
p19
I0
sS'maxSteering'
p20
I20
sS'energy'
p21
F0.5
sS'lastScale'
p22
F5.5
sb.(i__main__
Data_mobile
p1
(dp2
S'vel_y'
p3
I0
sS'vel_x'
p4
I0
sS'pos_x'
p5
I-9579
sS'pos_y'
p6
I9779
sS'isAlive'
p7
I00
sS'cumulativeEnergy'
p8
F0.5
sS'geno'
p9
(lp10
F1.9329011773140197
aF1.8175200600450365
aF0.8096145512886942
aF4.8295352043884003
aF0.6711725481928883
asS'accel_x'
p11
F0
sS'accel_y'
p12
F0
sS'visionAngle'
p13
I130
sS'maxAccel'
p14
I2
sS'maxVel'
p15
F0.72999999999999998
sS'age'
p16
I0
sS'tailSize'
p17
I0
sS'sexualgeno'
p18
NsS'tailBrigh'
p19
I0
sS'maxSteering'
p20
I20
sS'energy'
p21
F0.5
sS'lastScale'
p22
F5.5
sb.(i__main__
Data_mobile
p1
(dp2
S'vel_y'
p3
I0
sS'vel_x'
p4
I0
sS'pos_x'
p5
I-9579
sS'pos_y'
p6
I9779
sS'isAlive'
p7
I00
sS'cumulativeEnergy'
p8
F0.5
sS'geno'
p9
(lp10
F1.9329011773140197
aF1.8175200600450365
aF0.8096145512886942
aF5.3225209985061488
aF0.6711725481928883
asS'accel_x'
p11
F0
sS'accel_y'
p12
F0
sS'visionAngle'
p13
I130
sS'maxAccel'
p14
I2
sS'maxVel'
p15
F0.72999999999999998
sS'age'
p16
I0
sS'tailSize'
p17
I0
sS'sexualgeno'
p18
NsS'tailBrigh'
p19
I0
sS'maxSteering'
p20
I20
sS'energy'
p21
F0.5
sS'lastScale'
p22
F5.5
sb.(i__main__
Data_mobile
p1
(dp2
S'vel_y'
p3
I0
sS'vel_x'
p4
I0
sS'pos_x'
p5
I-9579
sS'pos_y'
p6
I9779
sS'isAlive'
p7
I00
sS'cumulativeEnergy'
p8
F0.5
sS'geno'
p9
(lp10
F1.9329011773140197
aF1.8175200600450365
aF0.8096145512886942
aF5.2864746111065823
aF0.6711725481928883
asS'accel_x'
p11
F0
sS'accel_y'
p12
F0
sS'visionAngle'
p13
I130
sS'maxAccel'
p14
I2
sS'maxVel'
p15
F0.72999999999999998
sS'age'
p16
I0
sS'tailSize'
p17
I0
sS'sexualgeno'
p18
NsS'tailBrigh'
p19
I0
sS'maxSteering'
p20
I20
sS'energy'
p21
F0.5
sS'lastScale'
p22
F5.5
sb.(i__main__
Data_mobile
p1
(dp2
S'vel_y'
p3
I0
sS'vel_x'
p4
I0
sS'pos_x'
p5
I-9579
sS'pos_y'
p6
I9779
sS'isAlive'
p7
I00
sS'cumulativeEnergy'
p8
F0.5
sS'geno'
p9
(lp10
F1.8777036894842054
aF2.1455760907798993
aF0.0596608419315382
aF5.544374872544906
aF0.90825248523066016
asS'accel_x'
p11
F0
sS'accel_y'
p12
F0
sS'visionAngle'
p13
I130
sS'maxAccel'
p14
I2
sS'maxVel'
p15
F0.72999999999999998
sS'age'
p16
I0
sS'tailSize'
p17
I0
sS'sexualgeno'
p18
NsS'tailBrigh'
p19
I0
sS'maxSteering'
p20
I20
sS'energy'
p21
F0.5
sS'lastScale'
p22
F5.5
sb.(i__main__
Data_mobile
p1
(dp2
S'vel_y'
p3
I0
sS'vel_x'
p4
I0
sS'pos_x'
p5
I-9579
sS'pos_y'
p6
I9779
sS'isAlive'
p7
I00
sS'cumulativeEnergy'
p8
F0.5
sS'geno'
p9
(lp10
F1.9329011773140197
aF1.8175200600450365
aF0.8096145512886942
aF5.544374872544906
aF1.134818846908499
asS'accel_x'
p11
F0
sS'accel_y'
p12
F0
sS'visionAngle'
p13
I130
sS'maxAccel'
p14
I2
sS'maxVel'
p15
F0.72999999999999998
sS'age'
p16
I0
sS'tailSize'
p17
I0
sS'sexualgeno'
p18
NsS'tailBrigh'
p19
I0
sS'maxSteering'
p20
I20
sS'energy'
p21
F0.5
sS'lastScale'
p22
F5.5
sb.(i__main__
Data_mobile
p1
(dp2
S'vel_y'
p3
I0
sS'vel_x'
p4
I0
sS'pos_x'
p5
I-9579
sS'pos_y'
p6
I9779
sS'isAlive'
p7
I00
sS'cumulativeEnergy'
p8
F0.5
sS'geno'
p9
(lp10
F1.9329011773140197
aF1.8175200600450365
aF0.8096145512886942
aF5.544374872544906
aF0.6711725481928883
asS'accel_x'
p11
F0
sS'accel_y'
p12
F0
sS'visionAngle'
p13
I130
sS'maxAccel'
p14
I2
sS'maxVel'
p15
F0.72999999999999998
sS'age'
p16
I0
sS'tailSize'
p17
I0
sS'sexualgeno'
p18
NsS'tailBrigh'
p19
I0
sS'maxSteering'
p20
I20
sS'energy'
p21
F0.5
sS'lastScale'
p22
F5.5
sb.(i__main__
Data_mobile
p1
(dp2
S'vel_y'
p3
I0
sS'vel_x'
p4
I0
sS'pos_x'
p5
I-9579
sS'pos_y'
p6
I9779
sS'isAlive'
p7
I00
sS'cumulativeEnergy'
p8
F0.5
sS'geno'
p9
(lp10
F1.9329011773140197
aF1.8175200600450365
aF0.8096145512886942
aF5.2864746111065823
aF0.6711725481928883
asS'accel_x'
p11
F0
sS'accel_y'
p12
F0
sS'visionAngle'
p13
I130
sS'maxAccel'
p14
I2
sS'maxVel'
p15
F0.72999999999999998
sS'age'
p16
I0
sS'tailSize'
p17
I0
sS'sexualgeno'
p18
NsS'tailBrigh'
p19
I0
sS'maxSteering'
p20
I20
sS'energy'
p21
F0.5
sS'lastScale'
p22
F5.5
sb.(i__main__
Data_mobile
p1
(dp2
S'vel_y'
p3
I0
sS'vel_x'
p4
I0
sS'pos_x'
p5
I-9579
sS'pos_y'
p6
I9779
sS'isAlive'
p7
I00
sS'cumulativeEnergy'
p8
F0.5
sS'geno'
p9
(lp10
F1.9329011773140197
aF1.8175200600450365
aF0.8096145512886942
aF5.544374872544906
aF1.134818846908499
asS'accel_x'
p11
F0
sS'accel_y'
p12
F0
sS'visionAngle'
p13
I130
sS'maxAccel'
p14
I2
sS'maxVel'
p15
F0.72999999999999998
sS'age'
p16
I0
sS'tailSize'
p17
I0
sS'sexualgeno'
p18
NsS'tailBrigh'
p19
I0
sS'maxSteering'
p20
I20
sS'energy'
p21
F0.5
sS'lastScale'
p22
F5.5
sb.(i__main__
Data_mobile
p1
(dp2
S'vel_y'
p3
I0
sS'vel_x'
p4
I0
sS'pos_x'
p5
I-9579
sS'pos_y'
p6
I9779
sS'isAlive'
p7
I00
sS'cumulativeEnergy'
p8
F0.5
sS'geno'
p9
(lp10
F1.9329011773140197
aF1.8175200600450365
aF0.0596608419315382
aF5.2864746111065823
aF0.75529159181137295
asS'accel_x'
p11
F0
sS'accel_y'
p12
F0
sS'visionAngle'
p13
I130
sS'maxAccel'
p14
I2
sS'maxVel'
p15
F0.72999999999999998
sS'age'
p16
I0
sS'tailSize'
p17
I0
sS'sexualgeno'
p18
NsS'tailBrigh'
p19
I0
sS'maxSteering'
p20
I20
sS'energy'
p21
F0.5
sS'lastScale'
p22
F5.5
sb.(i__main__
Data_mobile
p1
(dp2
S'vel_y'
p3
I0
sS'vel_x'
p4
I0
sS'pos_x'
p5
I-9579
sS'pos_y'
p6
I9779
sS'isAlive'
p7
I00
sS'cumulativeEnergy'
p8
F0.5
sS'geno'
p9
(lp10
F1.9329011773140197
aF1.8175200600450365
aF0.0596608419315382
aF5.544374872544906
aF0.6711725481928883
asS'accel_x'
p11
F0
sS'accel_y'
p12
F0
sS'visionAngle'
p13
I130
sS'maxAccel'
p14
I2
sS'maxVel'
p15
F0.72999999999999998
sS'age'
p16
I0
sS'tailSize'
p17
I0
sS'sexualgeno'
p18
NsS'tailBrigh'
p19
I0
sS'maxSteering'
p20
I20
sS'energy'
p21
F0.5
sS'lastScale'
p22
F5.5
sb.(i__main__
Data_mobile
p1
(dp2
S'vel_y'
p3
I0
sS'vel_x'
p4
I0
sS'pos_x'
p5
I-9579
sS'pos_y'
p6
I9779
sS'isAlive'
p7
I00
sS'cumulativeEnergy'
p8
F0.5
sS'geno'
p9
(lp10
F1.6504419410447189
aF2.1455760907798993
aF0.0596608419315382
aF5.2864746111065823
aF0.75529159181137295
asS'accel_x'
p11
F0
sS'accel_y'
p12
F0
sS'visionAngle'
p13
I130
sS'maxAccel'
p14
I2
sS'maxVel'
p15
F0.72999999999999998
sS'age'
p16
I0
sS'tailSize'
p17
I0
sS'sexualgeno'
p18
NsS'tailBrigh'
p19
I0
sS'maxSteering'
p20
I20
sS'energy'
p21
F0.5
sS'lastScale'
p22
F5.5
sb.(i__main__
Data_mobile
p1
(dp2
S'vel_y'
p3
I0
sS'vel_x'
p4
I0
sS'pos_x'
p5
I-9579
sS'pos_y'
p6
I9779
sS'isAlive'
p7
I00
sS'cumulativeEnergy'
p8
F0.5
sS'geno'
p9
(lp10
F1.9329011773140197
aF1.8175200600450365
aF0.8096145512886942
aF5.2864746111065823
aF0.75529159181137295
asS'accel_x'
p11
F0
sS'accel_y'
p12
F0
sS'visionAngle'
p13
I130
sS'maxAccel'
p14
I2
sS'maxVel'
p15
F0.72999999999999998
sS'age'
p16
I0
sS'tailSize'
p17
I0
sS'sexualgeno'
p18
NsS'tailBrigh'
p19
I0
sS'maxSteering'
p20
I20
sS'energy'
p21
F0.5
sS'lastScale'
p22
F5.5
sb.(i__main__
Data_mobile
p1
(dp2
S'vel_y'
p3
I0
sS'vel_x'
p4
I0
sS'pos_x'
p5
I-9579
sS'pos_y'
p6
I9779
sS'isAlive'
p7
I00
sS'cumulativeEnergy'
p8
F0.5
sS'geno'
p9
(lp10
F1.9329011773140197
aF1.8175200600450365
aF0.0596608419315382
aF5.2864746111065823
aF0.75529159181137295
asS'accel_x'
p11
F0
sS'accel_y'
p12
F0
sS'visionAngle'
p13
I130
sS'maxAccel'
p14
I2
sS'maxVel'
p15
F0.72999999999999998
sS'age'
p16
I0
sS'tailSize'
p17
I0
sS'sexualgeno'
p18
NsS'tailBrigh'
p19
I0
sS'maxSteering'
p20
I20
sS'energy'
p21
F0.5
sS'lastScale'
p22
F5.5
sb.(i__main__
Data_mobile
p1
(dp2
S'vel_y'
p3
I0
sS'vel_x'
p4
I0
sS'pos_x'
p5
I-9579
sS'pos_y'
p6
I9779
sS'isAlive'
p7
I00
sS'cumulativeEnergy'
p8
F0.5
sS'geno'
p9
(lp10
F1.9329011773140197
aF2.1455760907798993
aF0.8096145512886942
aF4.9628037536300571
aF0.46955613617173531
asS'accel_x'
p11
F0
sS'accel_y'
p12
F0
sS'visionAngle'
p13
I130
sS'maxAccel'
p14
I2
sS'maxVel'
p15
F0.72999999999999998
sS'age'
p16
I0
sS'tailSize'
p17
I0
sS'sexualgeno'
p18
NsS'tailBrigh'
p19
I0
sS'maxSteering'
p20
I20
sS'energy'
p21
F0.5
sS'lastScale'
p22
F5.5
sb.(i__main__
Data_mobile
p1
(dp2
S'vel_y'
p3
I0
sS'vel_x'
p4
I0
sS'pos_x'
p5
I-9579
sS'pos_y'
p6
I9779
sS'isAlive'
p7
I00
sS'cumulativeEnergy'
p8
F0.5
sS'geno'
p9
(lp10
F1.8777036894842054
aF2.1455760907798993
aF0.0596608419315382
aF5.544374872544906
aF0.6711725481928883
asS'accel_x'
p11
F0
sS'accel_y'
p12
F0
sS'visionAngle'
p13
I130
sS'maxAccel'
p14
I2
sS'maxVel'
p15
F0.72999999999999998
sS'age'
p16
I0
sS'tailSize'
p17
I0
sS'sexualgeno'
p18
NsS'tailBrigh'
p19
I0
sS'maxSteering'
p20
I20
sS'energy'
p21
F0.5
sS'lastScale'
p22
F5.5
sb.(i__main__
Data_mobile
p1
(dp2
S'vel_y'
p3
I0
sS'vel_x'
p4
I0
sS'pos_x'
p5
I-9579
sS'pos_y'
p6
I9779
sS'isAlive'
p7
I00
sS'cumulativeEnergy'
p8
F0.5
sS'geno'
p9
(lp10
F1.9329011773140197
aF1.8175200600450365
aF0.8096145512886942
aF5.2864746111065823
aF0.75529159181137295
asS'accel_x'
p11
F0
sS'accel_y'
p12
F0
sS'visionAngle'
p13
I130
sS'maxAccel'
p14
I2
sS'maxVel'
p15
F0.72999999999999998
sS'age'
p16
I0
sS'tailSize'
p17
I0
sS'sexualgeno'
p18
NsS'tailBrigh'
p19
I0
sS'maxSteering'
p20
I20
sS'energy'
p21
F0.5
sS'lastScale'
p22
F5.5
sb.(i__main__
Data_mobile
p1
(dp2
S'vel_y'
p3
I0
sS'vel_x'
p4
I0
sS'pos_x'
p5
I-9579
sS'pos_y'
p6
I9779
sS'isAlive'
p7
I00
sS'cumulativeEnergy'
p8
F0.5
sS'geno'
p9
(lp10
F1.8777036894842054
aF2.1455760907798993
aF0.0596608419315382
aF5.544374872544906
aF0.6711725481928883
asS'accel_x'
p11
F0
sS'accel_y'
p12
F0
sS'visionAngle'
p13
I130
sS'maxAccel'
p14
I2
sS'maxVel'
p15
F0.72999999999999998
sS'age'
p16
I0
sS'tailSize'
p17
I0
sS'sexualgeno'
p18
NsS'tailBrigh'
p19
I0
sS'maxSteering'
p20
I20
sS'energy'
p21
F0.5
sS'lastScale'
p22
F5.5
sb.(i__main__
Data_mobile
p1
(dp2
S'vel_y'
p3
I0
sS'vel_x'
p4
I0
sS'pos_x'
p5
I-9579
sS'pos_y'
p6
I9779
sS'isAlive'
p7
I00
sS'cumulativeEnergy'
p8
F0.5
sS'geno'
p9
(lp10
F1.9329011773140197
aF1.8175200600450365
aF0.0596608419315382
aF5.2864746111065823
aF1.134818846908499
asS'accel_x'
p11
F0
sS'accel_y'
p12
F0
sS'visionAngle'
p13
I130
sS'maxAccel'
p14
I2
sS'maxVel'
p15
F0.72999999999999998
sS'age'
p16
I0
sS'tailSize'
p17
I0
sS'sexualgeno'
p18
NsS'tailBrigh'
p19
I0
sS'maxSteering'
p20
I20
sS'energy'
p21
F0.5
sS'lastScale'
p22
F5.5
sb.(i__main__
Data_mobile
p1
(dp2
S'vel_y'
p3
I0
sS'vel_x'
p4
I0
sS'pos_x'
p5
I-9579
sS'pos_y'
p6
I9779
sS'isAlive'
p7
I00
sS'cumulativeEnergy'
p8
F0.5
sS'geno'
p9
(lp10
F1.8777036894842054
aF2.1455760907798993
aF0.0596608419315382
aF5.544374872544906
aF0.6711725481928883
asS'accel_x'
p11
F0
sS'accel_y'
p12
F0
sS'visionAngle'
p13
I130
sS'maxAccel'
p14
I2
sS'maxVel'
p15
F0.72999999999999998
sS'age'
p16
I0
sS'tailSize'
p17
I0
sS'sexualgeno'
p18
NsS'tailBrigh'
p19
I0
sS'maxSteering'
p20
I20
sS'energy'
p21
F0.5
sS'lastScale'
p22
F5.5
sb.(i__main__
Data_mobile
p1
(dp2
S'vel_y'
p3
I0
sS'vel_x'
p4
I0
sS'pos_x'
p5
I-9579
sS'pos_y'
p6
I9779
sS'isAlive'
p7
I00
sS'cumulativeEnergy'
p8
F0.5
sS'geno'
p9
(lp10
F1.9329011773140197
aF1.8175200600450365
aF0.8096145512886942
aF5.544374872544906
aF0.75529159181137295
asS'accel_x'
p11
F0
sS'accel_y'
p12
F0
sS'visionAngle'
p13
I130
sS'maxAccel'
p14
I2
sS'maxVel'
p15
F0.72999999999999998
sS'age'
p16
I0
sS'tailSize'
p17
I0
sS'sexualgeno'
p18
NsS'tailBrigh'
p19
I0
sS'maxSteering'
p20
I20
sS'energy'
p21
F0.5
sS'lastScale'
p22
F5.5
sb.(i__main__
Data_mobile
p1
(dp2
S'vel_y'
p3
I0
sS'vel_x'
p4
I0
sS'pos_x'
p5
I-9579
sS'pos_y'
p6
I9779
sS'isAlive'
p7
I00
sS'cumulativeEnergy'
p8
F0.5
sS'geno'
p9
(lp10
F1.9174936950267019
aF1.8175200600450365
aF-0.23022559063798731
aF5.2624051466090709
aF0.6711725481928883
asS'accel_x'
p11
F0
sS'accel_y'
p12
F0
sS'visionAngle'
p13
I130
sS'maxAccel'
p14
I2
sS'maxVel'
p15
F0.72999999999999998
sS'age'
p16
I0
sS'tailSize'
p17
I0
sS'sexualgeno'
p18
NsS'tailBrigh'
p19
I0
sS'maxSteering'
p20
I20
sS'energy'
p21
F0.5
sS'lastScale'
p22
F5.5
sb.(i__main__
Data_mobile
p1
(dp2
S'vel_y'
p3
I0
sS'vel_x'
p4
I0
sS'pos_x'
p5
I-9579
sS'pos_y'
p6
I9779
sS'isAlive'
p7
I00
sS'cumulativeEnergy'
p8
F0.5
sS'geno'
p9
(lp10
F1.9329011773140197
aF1.8175200600450365
aF0.8096145512886942
aF5.2341853365692321
aF0.6711725481928883
asS'accel_x'
p11
F0
sS'accel_y'
p12
F0
sS'visionAngle'
p13
I130
sS'maxAccel'
p14
I2
sS'maxVel'
p15
F0.72999999999999998
sS'age'
p16
I0
sS'tailSize'
p17
I0
sS'sexualgeno'
p18
NsS'tailBrigh'
p19
I0
sS'maxSteering'
p20
I20
sS'energy'
p21
F0.5
sS'lastScale'
p22
F5.5
sb.(i__main__
Data_mobile
p1
(dp2
S'vel_y'
p3
I0
sS'vel_x'
p4
I0
sS'pos_x'
p5
I-9579
sS'pos_y'
p6
I9779
sS'isAlive'
p7
I00
sS'cumulativeEnergy'
p8
F0.5
sS'geno'
p9
(lp10
F1.9174936950267019
aF1.8175200600450365
aF0.8096145512886942
aF5.544374872544906
aF-0.012586227010741413
asS'accel_x'
p11
F0
sS'accel_y'
p12
F0
sS'visionAngle'
p13
I130
sS'maxAccel'
p14
I2
sS'maxVel'
p15
F0.72999999999999998
sS'age'
p16
I0
sS'tailSize'
p17
I0
sS'sexualgeno'
p18
NsS'tailBrigh'
p19
I0
sS'maxSteering'
p20
I20
sS'energy'
p21
F0.5
sS'lastScale'
p22
F5.5
sb.(i__main__
Data_mobile
p1
(dp2
S'vel_y'
p3
I0
sS'vel_x'
p4
I0
sS'pos_x'
p5
I-9579
sS'pos_y'
p6
I9779
sS'isAlive'
p7
I00
sS'cumulativeEnergy'
p8
F0.5
sS'geno'
p9
(lp10
F1.9174936950267019
aF1.8175200600450365
aF-0.23022559063798731
aF5.544374872544906
aF0.6711725481928883
asS'accel_x'
p11
F0
sS'accel_y'
p12
F0
sS'visionAngle'
p13
I130
sS'maxAccel'
p14
I2
sS'maxVel'
p15
F0.72999999999999998
sS'age'
p16
I0
sS'tailSize'
p17
I0
sS'sexualgeno'
p18
NsS'tailBrigh'
p19
I0
sS'maxSteering'
p20
I20
sS'energy'
p21
F0.5
sS'lastScale'
p22
F5.5
sb.(i__main__
Data_mobile
p1
(dp2
S'vel_y'
p3
I0
sS'vel_x'
p4
I0
sS'pos_x'
p5
I-9579
sS'pos_y'
p6
I9779
sS'isAlive'
p7
I00
sS'cumulativeEnergy'
p8
F0.5
sS'geno'
p9
(lp10
F1.7400696419918615
aF1.8175200600450365
aF-0.23022559063798731
aF5.544374872544906
aF0.6711725481928883
asS'accel_x'
p11
F0
sS'accel_y'
p12
F0
sS'visionAngle'
p13
I130
sS'maxAccel'
p14
I2
sS'maxVel'
p15
F0.72999999999999998
sS'age'
p16
I0
sS'tailSize'
p17
I0
sS'sexualgeno'
p18
NsS'tailBrigh'
p19
I0
sS'maxSteering'
p20
I20
sS'energy'
p21
F0.5
sS'lastScale'
p22
F5.5
sb.(i__main__
Data_mobile
p1
(dp2
S'vel_y'
p3
I0
sS'vel_x'
p4
I0
sS'pos_x'
p5
I-9579
sS'pos_y'
p6
I9779
sS'isAlive'
p7
I00
sS'cumulativeEnergy'
p8
F0.5
sS'geno'
p9
(lp10
F1.9329011773140197
aF2.1455760907798993
aF0.0596608419315382
aF5.544374872544906
aF0.37039060440624028
asS'accel_x'
p11
F0
sS'accel_y'
p12
F0
sS'visionAngle'
p13
I130
sS'maxAccel'
p14
I2
sS'maxVel'
p15
F0.72999999999999998
sS'age'
p16
I0
sS'tailSize'
p17
I0
sS'sexualgeno'
p18
NsS'tailBrigh'
p19
I0
sS'maxSteering'
p20
I20
sS'energy'
p21
F0.5
sS'lastScale'
p22
F5.5
sb.(i__main__
Data_mobile
p1
(dp2
S'vel_y'
p3
I0
sS'vel_x'
p4
I0
sS'pos_x'
p5
I-9579
sS'pos_y'
p6
I9779
sS'isAlive'
p7
I00
sS'cumulativeEnergy'
p8
F0.5
sS'geno'
p9
(lp10
F1.9329011773140197
aF1.8175200600450365
aF0.8096145512886942
aF5.2341853365692321
aF0.46955613617173531
asS'accel_x'
p11
F0
sS'accel_y'
p12
F0
sS'visionAngle'
p13
I130
sS'maxAccel'
p14
I2
sS'maxVel'
p15
F0.72999999999999998
sS'age'
p16
I0
sS'tailSize'
p17
I0
sS'sexualgeno'
p18
NsS'tailBrigh'
p19
I0
sS'maxSteering'
p20
I20
sS'energy'
p21
F0.5
sS'lastScale'
p22
F5.5
sb.(i__main__
Data_mobile
p1
(dp2
S'vel_y'
p3
I0
sS'vel_x'
p4
I0
sS'pos_x'
p5
I-9579
sS'pos_y'
p6
I9779
sS'isAlive'
p7
I00
sS'cumulativeEnergy'
p8
F0.5
sS'geno'
p9
(lp10
F1.9329011773140197
aF1.8175200600450365
aF0.8096145512886942
aF5.2864746111065823
aF0.75529159181137295
asS'accel_x'
p11
F0
sS'accel_y'
p12
F0
sS'visionAngle'
p13
I130
sS'maxAccel'
p14
I2
sS'maxVel'
p15
F0.72999999999999998
sS'age'
p16
I0
sS'tailSize'
p17
I0
sS'sexualgeno'
p18
NsS'tailBrigh'
p19
I0
sS'maxSteering'
p20
I20
sS'energy'
p21
F0.5
sS'lastScale'
p22
F5.5
sb.(i__main__
Data_mobile
p1
(dp2
S'vel_y'
p3
I0
sS'vel_x'
p4
I0
sS'pos_x'
p5
I-9579
sS'pos_y'
p6
I9779
sS'isAlive'
p7
I00
sS'cumulativeEnergy'
p8
F0.5
sS'geno'
p9
(lp10
F1.9174936950267019
aF1.8175200600450365
aF-0.25455286373276231
aF5.2864746111065823
aF0.75529159181137295
asS'accel_x'
p11
F0
sS'accel_y'
p12
F0
sS'visionAngle'
p13
I130
sS'maxAccel'
p14
I2
sS'maxVel'
p15
F0.72999999999999998
sS'age'
p16
I0
sS'tailSize'
p17
I0
sS'sexualgeno'
p18
NsS'tailBrigh'
p19
I0
sS'maxSteering'
p20
I20
sS'energy'
p21
F0.5
sS'lastScale'
p22
F5.5
sb.(i__main__
Data_mobile
p1
(dp2
S'vel_y'
p3
I0
sS'vel_x'
p4
I0
sS'pos_x'
p5
I-9579
sS'pos_y'
p6
I9779
sS'isAlive'
p7
I00
sS'cumulativeEnergy'
p8
F0.5
sS'geno'
p9
(lp10
F1.9329011773140197
aF1.8175200600450365
aF0.8096145512886942
aF5.2341853365692321
aF0.46955613617173531
asS'accel_x'
p11
F0
sS'accel_y'
p12
F0
sS'visionAngle'
p13
I130
sS'maxAccel'
p14
I2
sS'maxVel'
p15
F0.72999999999999998
sS'age'
p16
I0
sS'tailSize'
p17
I0
sS'sexualgeno'
p18
NsS'tailBrigh'
p19
I0
sS'maxSteering'
p20
I20
sS'energy'
p21
F0.5
sS'lastScale'
p22
F5.5
sb.(i__main__
Data_mobile
p1
(dp2
S'vel_y'
p3
I0
sS'vel_x'
p4
I0
sS'pos_x'
p5
I-9579
sS'pos_y'
p6
I9779
sS'isAlive'
p7
I00
sS'cumulativeEnergy'
p8
F0.5
sS'geno'
p9
(lp10
F1.9174936950267019
aF1.8175200600450365
aF0.8096145512886942
aF5.544374872544906
aF0.6711725481928883
asS'accel_x'
p11
F0
sS'accel_y'
p12
F0
sS'visionAngle'
p13
I130
sS'maxAccel'
p14
I2
sS'maxVel'
p15
F0.72999999999999998
sS'age'
p16
I0
sS'tailSize'
p17
I0
sS'sexualgeno'
p18
NsS'tailBrigh'
p19
I0
sS'maxSteering'
p20
I20
sS'energy'
p21
F0.5
sS'lastScale'
p22
F5.5
sb.(i__main__
Data_mobile
p1
(dp2
S'vel_y'
p3
I0
sS'vel_x'
p4
I0
sS'pos_x'
p5
I-9579
sS'pos_y'
p6
I9779
sS'isAlive'
p7
I00
sS'cumulativeEnergy'
p8
F0.5
sS'geno'
p9
(lp10
F1.9329011773140197
aF2.1455760907798993
aF0.0596608419315382
aF5.544374872544906
aF0.6711725481928883
asS'accel_x'
p11
F0
sS'accel_y'
p12
F0
sS'visionAngle'
p13
I130
sS'maxAccel'
p14
I2
sS'maxVel'
p15
F0.72999999999999998
sS'age'
p16
I0
sS'tailSize'
p17
I0
sS'sexualgeno'
p18
NsS'tailBrigh'
p19
I0
sS'maxSteering'
p20
I20
sS'energy'
p21
F0.5
sS'lastScale'
p22
F5.5
sb.(i__main__
Data_mobile
p1
(dp2
S'vel_y'
p3
I0
sS'vel_x'
p4
I0
sS'pos_x'
p5
I-9579
sS'pos_y'
p6
I9779
sS'isAlive'
p7
I00
sS'cumulativeEnergy'
p8
F0.5
sS'geno'
p9
(lp10
F1.7400696419918615
aF2.2682643257038269
aF0.8096145512886942
aF5.544374872544906
aF0.6711725481928883
asS'accel_x'
p11
F0
sS'accel_y'
p12
F0
sS'visionAngle'
p13
I130
sS'maxAccel'
p14
I2
sS'maxVel'
p15
F0.72999999999999998
sS'age'
p16
I0
sS'tailSize'
p17
I0
sS'sexualgeno'
p18
NsS'tailBrigh'
p19
I0
sS'maxSteering'
p20
I20
sS'energy'
p21
F0.5
sS'lastScale'
p22
F5.5
sb.(i__main__
Data_mobile
p1
(dp2
S'vel_y'
p3
I0
sS'vel_x'
p4
I0
sS'pos_x'
p5
I-9579
sS'pos_y'
p6
I9779
sS'isAlive'
p7
I00
sS'cumulativeEnergy'
p8
F0.5
sS'geno'
p9
(lp10
F1.9329011773140197
aF2.1455760907798993
aF0.0596608419315382
aF5.4417920265347801
aF0.75529159181137295
asS'accel_x'
p11
F0
sS'accel_y'
p12
F0
sS'visionAngle'
p13
I130
sS'maxAccel'
p14
I2
sS'maxVel'
p15
F0.72999999999999998
sS'age'
p16
I0
sS'tailSize'
p17
I0
sS'sexualgeno'
p18
NsS'tailBrigh'
p19
I0
sS'maxSteering'
p20
I20
sS'energy'
p21
F0.5
sS'lastScale'
p22
F5.5
sb.(i__main__
Data_mobile
p1
(dp2
S'vel_y'
p3
I0
sS'vel_x'
p4
I0
sS'pos_x'
p5
I-9579
sS'pos_y'
p6
I9779
sS'isAlive'
p7
I00
sS'cumulativeEnergy'
p8
F0.5
sS'geno'
p9
(lp10
F1.9329011773140197
aF1.8175200600450365
aF0.8096145512886942
aF5.2341853365692321
aF0.46955613617173531
asS'accel_x'
p11
F0
sS'accel_y'
p12
F0
sS'visionAngle'
p13
I130
sS'maxAccel'
p14
I2
sS'maxVel'
p15
F0.72999999999999998
sS'age'
p16
I0
sS'tailSize'
p17
I0
sS'sexualgeno'
p18
NsS'tailBrigh'
p19
I0
sS'maxSteering'
p20
I20
sS'energy'
p21
F0.5
sS'lastScale'
p22
F5.5
sb.(i__main__
Data_mobile
p1
(dp2
S'vel_y'
p3
I0
sS'vel_x'
p4
I0
sS'pos_x'
p5
I-9579
sS'pos_y'
p6
I9779
sS'isAlive'
p7
I00
sS'cumulativeEnergy'
p8
F0.5
sS'geno'
p9
(lp10
F1.9329011773140197
aF1.8175200600450365
aF0.8096145512886942
aF5.2864746111065823
aF0.75529159181137295
asS'accel_x'
p11
F0
sS'accel_y'
p12
F0
sS'visionAngle'
p13
I130
sS'maxAccel'
p14
I2
sS'maxVel'
p15
F0.72999999999999998
sS'age'
p16
I0
sS'tailSize'
p17
I0
sS'sexualgeno'
p18
NsS'tailBrigh'
p19
I0
sS'maxSteering'
p20
I20
sS'energy'
p21
F0.5
sS'lastScale'
p22
F5.5
sb.(i__main__
Data_mobile
p1
(dp2
S'vel_y'
p3
I0
sS'vel_x'
p4
I0
sS'pos_x'
p5
I-9579
sS'pos_y'
p6
I9779
sS'isAlive'
p7
I00
sS'cumulativeEnergy'
p8
F0.5
sS'geno'
p9
(lp10
F1.9329011773140197
aF2.1455760907798993
aF0.0596608419315382
aF5.544374872544906
aF0.6711725481928883
asS'accel_x'
p11
F0
sS'accel_y'
p12
F0
sS'visionAngle'
p13
I130
sS'maxAccel'
p14
I2
sS'maxVel'
p15
F0.72999999999999998
sS'age'
p16
I0
sS'tailSize'
p17
I0
sS'sexualgeno'
p18
NsS'tailBrigh'
p19
I0
sS'maxSteering'
p20
I20
sS'energy'
p21
F0.5
sS'lastScale'
p22
F5.5
sb.(i__main__
Data_mobile
p1
(dp2
S'vel_y'
p3
I0
sS'vel_x'
p4
I0
sS'pos_x'
p5
I-9579
sS'pos_y'
p6
I9779
sS'isAlive'
p7
I00
sS'cumulativeEnergy'
p8
F0.5
sS'geno'
p9
(lp10
F1.7400696419918615
aF1.8175200600450365
aF-0.23022559063798731
aF5.544374872544906
aF0.6711725481928883
asS'accel_x'
p11
F0
sS'accel_y'
p12
F0
sS'visionAngle'
p13
I130
sS'maxAccel'
p14
I2
sS'maxVel'
p15
F0.72999999999999998
sS'age'
p16
I0
sS'tailSize'
p17
I0
sS'sexualgeno'
p18
NsS'tailBrigh'
p19
I0
sS'maxSteering'
p20
I20
sS'energy'
p21
F0.5
sS'lastScale'
p22
F5.5
sb.(i__main__
Data_mobile
p1
(dp2
S'vel_y'
p3
I0
sS'vel_x'
p4
I0
sS'pos_x'
p5
I-9579
sS'pos_y'
p6
I9779
sS'isAlive'
p7
I00
sS'cumulativeEnergy'
p8
F0.5
sS'geno'
p9
(lp10
F1.9329011773140197
aF2.1455760907798993
aF0.0596608419315382
aF5.2864746111065823
aF0.75529159181137295
asS'accel_x'
p11
F0
sS'accel_y'
p12
F0
sS'visionAngle'
p13
I130
sS'maxAccel'
p14
I2
sS'maxVel'
p15
F0.72999999999999998
sS'age'
p16
I0
sS'tailSize'
p17
I0
sS'sexualgeno'
p18
NsS'tailBrigh'
p19
I0
sS'maxSteering'
p20
I20
sS'energy'
p21
F0.5
sS'lastScale'
p22
F5.5
sb.(i__main__
Data_mobile
p1
(dp2
S'vel_y'
p3
I0
sS'vel_x'
p4
I0
sS'pos_x'
p5
I-9579
sS'pos_y'
p6
I9779
sS'isAlive'
p7
I00
sS'cumulativeEnergy'
p8
F0.5
sS'geno'
p9
(lp10
F1.9329011773140197
aF1.8175200600450365
aF-0.23022559063798731
aF5.2341853365692321
aF0.46955613617173531
asS'accel_x'
p11
F0
sS'accel_y'
p12
F0
sS'visionAngle'
p13
I130
sS'maxAccel'
p14
I2
sS'maxVel'
p15
F0.72999999999999998
sS'age'
p16
I0
sS'tailSize'
p17
I0
sS'sexualgeno'
p18
NsS'tailBrigh'
p19
I0
sS'maxSteering'
p20
I20
sS'energy'
p21
F0.5
sS'lastScale'
p22
F5.5
sb.(i__main__
Data_mobile
p1
(dp2
S'vel_y'
p3
I0
sS'vel_x'
p4
I0
sS'pos_x'
p5
I-9579
sS'pos_y'
p6
I9779
sS'isAlive'
p7
I00
sS'cumulativeEnergy'
p8
F0.5
sS'geno'
p9
(lp10
F-0.42481726866919889
aF-3.6635631654652414
aF2.1927261718858491
aF-3.7621690971654873
aF3.9192937563178063
asS'accel_x'
p11
F0
sS'accel_y'
p12
F0
sS'visionAngle'
p13
I130
sS'maxAccel'
p14
I2
sS'maxVel'
p15
F0.72999999999999998
sS'age'
p16
I0
sS'tailSize'
p17
I0
sS'sexualgeno'
p18
NsS'tailBrigh'
p19
I0
sS'maxSteering'
p20
I20
sS'energy'
p21
F0.5
sS'lastScale'
p22
F5.5
sb.(i__main__
Data_mobile
p1
(dp2
S'vel_y'
p3
I0
sS'vel_x'
p4
I0
sS'pos_x'
p5
I-9579
sS'pos_y'
p6
I9779
sS'isAlive'
p7
I00
sS'cumulativeEnergy'
p8
F0.5
sS'geno'
p9
(lp10
F1.7400696419918615
aF1.8175200600450365
aF-0.23022559063798731
aF4.9565603544788512
aF0.46955613617173531
asS'accel_x'
p11
F0
sS'accel_y'
p12
F0
sS'visionAngle'
p13
I130
sS'maxAccel'
p14
I2
sS'maxVel'
p15
F0.72999999999999998
sS'age'
p16
I0
sS'tailSize'
p17
I0
sS'sexualgeno'
p18
NsS'tailBrigh'
p19
I0
sS'maxSteering'
p20
I20
sS'energy'
p21
F0.5
sS'lastScale'
p22
F5.5
sb.(i__main__
Data_mobile
p1
(dp2
S'vel_y'
p3
I0
sS'vel_x'
p4
I0
sS'pos_x'
p5
I-9579
sS'pos_y'
p6
I9779
sS'isAlive'
p7
I00
sS'cumulativeEnergy'
p8
F0.5
sS'geno'
p9
(lp10
F1.7400696419918615
aF1.8175200600450365
aF-0.23022559063798731
aF5.2341853365692321
aF0.20879840183899312
asS'accel_x'
p11
F0
sS'accel_y'
p12
F0
sS'visionAngle'
p13
I130
sS'maxAccel'
p14
I2
sS'maxVel'
p15
F0.72999999999999998
sS'age'
p16
I0
sS'tailSize'
p17
I0
sS'sexualgeno'
p18
NsS'tailBrigh'
p19
I0
sS'maxSteering'
p20
I20
sS'energy'
p21
F0.5
sS'lastScale'
p22
F5.5
sb.(i__main__
Data_mobile
p1
(dp2
S'vel_y'
p3
I0
sS'vel_x'
p4
I0
sS'pos_x'
p5
I-9579
sS'pos_y'
p6
I9779
sS'isAlive'
p7
I00
sS'cumulativeEnergy'
p8
F0.5
sS'geno'
p9
(lp10
F3.6529853112971917
aF-2.8905600887647331
aF0.21011285829448667
aF4.2008277442981239
aF-4.2792496897963206
asS'accel_x'
p11
F0
sS'accel_y'
p12
F0
sS'visionAngle'
p13
I130
sS'maxAccel'
p14
I2
sS'maxVel'
p15
F0.72999999999999998
sS'age'
p16
I0
sS'tailSize'
p17
I0
sS'sexualgeno'
p18
NsS'tailBrigh'
p19
I0
sS'maxSteering'
p20
I20
sS'energy'
p21
F0.5
sS'lastScale'
p22
F5.5
sb.(i__main__
Data_mobile
p1
(dp2
S'vel_y'
p3
I0
sS'vel_x'
p4
I0
sS'pos_x'
p5
I-9579
sS'pos_y'
p6
I9779
sS'isAlive'
p7
I00
sS'cumulativeEnergy'
p8
F0.5
sS'geno'
p9
(lp10
F1.7400696419918615
aF1.8175200600450365
aF-0.23022559063798731
aF5.2341853365692321
aF0.20879840183899312
asS'accel_x'
p11
F0
sS'accel_y'
p12
F0
sS'visionAngle'
p13
I130
sS'maxAccel'
p14
I2
sS'maxVel'
p15
F0.72999999999999998
sS'age'
p16
I0
sS'tailSize'
p17
I0
sS'sexualgeno'
p18
NsS'tailBrigh'
p19
I0
sS'maxSteering'
p20
I20
sS'energy'
p21
F0.5
sS'lastScale'
p22
F5.5
sb.(i__main__
Data_mobile
p1
(dp2
S'vel_y'
p3
I0
sS'vel_x'
p4
I0
sS'pos_x'
p5
I-9579
sS'pos_y'
p6
I9779
sS'isAlive'
p7
I00
sS'cumulativeEnergy'
p8
F0.5
sS'geno'
p9
(lp10
F1.9329011773140197
aF1.8175200600450365
aF0.8096145512886942
aF5.544374872544906
aF0.6711725481928883
asS'accel_x'
p11
F0
sS'accel_y'
p12
F0
sS'visionAngle'
p13
I130
sS'maxAccel'
p14
I2
sS'maxVel'
p15
F0.72999999999999998
sS'age'
p16
I0
sS'tailSize'
p17
I0
sS'sexualgeno'
p18
NsS'tailBrigh'
p19
I0
sS'maxSteering'
p20
I20
sS'energy'
p21
F0.5
sS'lastScale'
p22
F5.5
sb.(i__main__
Data_mobile
p1
(dp2
S'vel_y'
p3
I0
sS'vel_x'
p4
I0
sS'pos_x'
p5
I-9579
sS'pos_y'
p6
I9779
sS'isAlive'
p7
I00
sS'cumulativeEnergy'
p8
F0.5
sS'geno'
p9
(lp10
F1.7400696419918615
aF1.9841518518727252
aF-0.30181876876778169
aF5.7324411131172601
aF0.46955613617173531
asS'accel_x'
p11
F0
sS'accel_y'
p12
F0
sS'visionAngle'
p13
I130
sS'maxAccel'
p14
I2
sS'maxVel'
p15
F0.72999999999999998
sS'age'
p16
I0
sS'tailSize'
p17
I0
sS'sexualgeno'
p18
NsS'tailBrigh'
p19
I0
sS'maxSteering'
p20
I20
sS'energy'
p21
F0.5
sS'lastScale'
p22
F5.5
sb.(i__main__
Data_mobile
p1
(dp2
S'vel_y'
p3
I0
sS'vel_x'
p4
I0
sS'pos_x'
p5
I-9579
sS'pos_y'
p6
I9779
sS'isAlive'
p7
I00
sS'cumulativeEnergy'
p8
F0.5
sS'geno'
p9
(lp10
F1.7400696419918615
aF1.9841518518727252
aF-0.30181876876778169
aF5.7324411131172601
aF0.46955613617173531
asS'accel_x'
p11
F0
sS'accel_y'
p12
F0
sS'visionAngle'
p13
I130
sS'maxAccel'
p14
I2
sS'maxVel'
p15
F0.72999999999999998
sS'age'
p16
I0
sS'tailSize'
p17
I0
sS'sexualgeno'
p18
NsS'tailBrigh'
p19
I0
sS'maxSteering'
p20
I20
sS'energy'
p21
F0.5
sS'lastScale'
p22
F5.5
sb.(i__main__
Data_mobile
p1
(dp2
S'vel_y'
p3
I0
sS'vel_x'
p4
I0
sS'pos_x'
p5
I-9579
sS'pos_y'
p6
I9779
sS'isAlive'
p7
I00
sS'cumulativeEnergy'
p8
F0.5
sS'geno'
p9
(lp10
F1.7400696419918615
aF1.8175200600450365
aF-0.23022559063798731
aF5.2341853365692321
aF0.46955613617173531
asS'accel_x'
p11
F0
sS'accel_y'
p12
F0
sS'visionAngle'
p13
I130
sS'maxAccel'
p14
I2
sS'maxVel'
p15
F0.72999999999999998
sS'age'
p16
I0
sS'tailSize'
p17
I0
sS'sexualgeno'
p18
NsS'tailBrigh'
p19
I0
sS'maxSteering'
p20
I20
sS'energy'
p21
F0.5
sS'lastScale'
p22
F5.5
sb.(i__main__
Data_mobile
p1
(dp2
S'vel_y'
p3
I0
sS'vel_x'
p4
I0
sS'pos_x'
p5
I-9579
sS'pos_y'
p6
I9779
sS'isAlive'
p7
I00
sS'cumulativeEnergy'
p8
F0.5
sS'geno'
p9
(lp10
F2.2346491357466003
aF1.8175200600450365
aF0.0596608419315382
aF5.2341853365692321
aF0.46955613617173531
asS'accel_x'
p11
F0
sS'accel_y'
p12
F0
sS'visionAngle'
p13
I130
sS'maxAccel'
p14
I2
sS'maxVel'
p15
F0.72999999999999998
sS'age'
p16
I0
sS'tailSize'
p17
I0
sS'sexualgeno'
p18
NsS'tailBrigh'
p19
I0
sS'maxSteering'
p20
I20
sS'energy'
p21
F0.5
sS'lastScale'
p22
F5.5
sb.(i__main__
Data_mobile
p1
(dp2
S'vel_y'
p3
I0
sS'vel_x'
p4
I0
sS'pos_x'
p5
I-9579
sS'pos_y'
p6
I9779
sS'isAlive'
p7
I00
sS'cumulativeEnergy'
p8
F0.5
sS'geno'
p9
(lp10
F2.2346491357466003
aF1.8175200600450365
aF0.0596608419315382
aF5.2864746111065823
aF0.26167704318828389
asS'accel_x'
p11
F0
sS'accel_y'
p12
F0
sS'visionAngle'
p13
I130
sS'maxAccel'
p14
I2
sS'maxVel'
p15
F0.72999999999999998
sS'age'
p16
I0
sS'tailSize'
p17
I0
sS'sexualgeno'
p18
NsS'tailBrigh'
p19
I0
sS'maxSteering'
p20
I20
sS'energy'
p21
F0.5
sS'lastScale'
p22
F5.5
sb.(i__main__
Data_mobile
p1
(dp2
S'vel_y'
p3
I0
sS'vel_x'
p4
I0
sS'pos_x'
p5
I-9579
sS'pos_y'
p6
I9779
sS'isAlive'
p7
I00
sS'cumulativeEnergy'
p8
F0.5
sS'geno'
p9
(lp10
F2.0804309696537255
aF2.3018435221354343
aF-0.23022559063798731
aF5.2341853365692321
aF0.46955613617173531
asS'accel_x'
p11
F0
sS'accel_y'
p12
F0
sS'visionAngle'
p13
I130
sS'maxAccel'
p14
I2
sS'maxVel'
p15
F0.72999999999999998
sS'age'
p16
I0
sS'tailSize'
p17
I0
sS'sexualgeno'
p18
NsS'tailBrigh'
p19
I0
sS'maxSteering'
p20
I20
sS'energy'
p21
F0.5
sS'lastScale'
p22
F5.5
sb.(i__main__
Data_mobile
p1
(dp2
S'vel_y'
p3
I0
sS'vel_x'
p4
I0
sS'pos_x'
p5
I-9579
sS'pos_y'
p6
I9779
sS'isAlive'
p7
I00
sS'cumulativeEnergy'
p8
F0.5
sS'geno'
p9
(lp10
F1.7400696419918615
aF1.9841518518727252
aF-0.30181876876778169
aF5.7324411131172601
aF0.46955613617173531
asS'accel_x'
p11
F0
sS'accel_y'
p12
F0
sS'visionAngle'
p13
I130
sS'maxAccel'
p14
I2
sS'maxVel'
p15
F0.72999999999999998
sS'age'
p16
I0
sS'tailSize'
p17
I0
sS'sexualgeno'
p18
NsS'tailBrigh'
p19
I0
sS'maxSteering'
p20
I20
sS'energy'
p21
F0.5
sS'lastScale'
p22
F5.5
sb.(i__main__
Data_mobile
p1
(dp2
S'vel_y'
p3
I0
sS'vel_x'
p4
I0
sS'pos_x'
p5
I-9579
sS'pos_y'
p6
I9779
sS'isAlive'
p7
I00
sS'cumulativeEnergy'
p8
F0.5
sS'geno'
p9
(lp10
F2.1585693131741452
aF1.8175200600450365
aF0.0596608419315382
aF5.2864746111065823
aF0.26167704318828389
asS'accel_x'
p11
F0
sS'accel_y'
p12
F0
sS'visionAngle'
p13
I130
sS'maxAccel'
p14
I2
sS'maxVel'
p15
F0.72999999999999998
sS'age'
p16
I0
sS'tailSize'
p17
I0
sS'sexualgeno'
p18
NsS'tailBrigh'
p19
I0
sS'maxSteering'
p20
I20
sS'energy'
p21
F0.5
sS'lastScale'
p22
F5.5
sb.(i__main__
Data_mobile
p1
(dp2
S'vel_y'
p3
I0
sS'vel_x'
p4
I0
sS'pos_x'
p5
I-9579
sS'pos_y'
p6
I9779
sS'isAlive'
p7
I00
sS'cumulativeEnergy'
p8
F0.5
sS'geno'
p9
(lp10
F2.2346491357466003
aF1.8175200600450365
aF0.0596608419315382
aF5.2341853365692321
aF0.46955613617173531
asS'accel_x'
p11
F0
sS'accel_y'
p12
F0
sS'visionAngle'
p13
I130
sS'maxAccel'
p14
I2
sS'maxVel'
p15
F0.72999999999999998
sS'age'
p16
I0
sS'tailSize'
p17
I0
sS'sexualgeno'
p18
NsS'tailBrigh'
p19
I0
sS'maxSteering'
p20
I20
sS'energy'
p21
F0.5
sS'lastScale'
p22
F5.5
sb.