(i__main__
Data_mobile
p1
(dp2
S'vel_y'
p3
F-0.15060844216838473
sS'vel_x'
p4
F-0.71429482508808106
sS'pos_x'
p5
F59.361214202152446
sS'pos_y'
p6
F22.887382907637413
sS'isAlive'
p7
I01
sS'geno'
p8
(lp9
F-0.59918089818479825
aF1.6792428090093283
aF1.0326275428935199
aF4.0471897791765219
aF1.1869921445983265
asS'accel_x'
p10
F-1.9746392795245973
sS'accel_y'
p11
F0.31748970968927404
sS'visionAngle'
p12
I130
sS'maxAccel'
p13
I2
sS'maxVel'
p14
F0.72999999999999998
sS'age'
p15
I250
sS'lastScale'
p16
F15.300000405049802
sS'maxSteering'
p17
I20
sS'energy'
p18
F0.98000004050498013
sb.(i__main__
Data_mobile
p1
(dp2
S'vel_y'
p3
F-0.47440299626834981
sS'vel_x'
p4
F-0.55483492782233179
sS'pos_x'
p5
F72.567500624281394
sS'pos_y'
p6
F33.425574141877057
sS'isAlive'
p7
I01
sS'geno'
p8
(lp9
F-0.59918089818479825
aF1.9753393459420772
aF1.0326275428935199
aF4.0471897791765219
aF1.1869921445983265
asS'accel_x'
p10
F-0.50294052676441736
sS'accel_y'
p11
F1.9357300500167709
sS'visionAngle'
p12
I130
sS'maxAccel'
p13
I2
sS'maxVel'
p14
F0.72999999999999998
sS'age'
p15
I250
sS'lastScale'
p16
F15.300000405049802
sS'maxSteering'
p17
I20
sS'energy'
p18
F0.98000004050498013
sb.(i__main__
Data_mobile
p1
(dp2
S'vel_y'
p3
F-0.079517214748889953
sS'vel_x'
p4
F-0.72565626336343247
sS'pos_x'
p5
F35.322854592401363
sS'pos_y'
p6
F39.090711535339715
sS'isAlive'
p7
I01
sS'geno'
p8
(lp9
F-0.59918089818479825
aF1.6792428090093283
aF0.96616965521487619
aF4.0471897791765219
aF0.11012703800692636
asS'accel_x'
p10
F1.4777570125118211
sS'accel_y'
p11
F-1.3476773397116006
sS'visionAngle'
p12
I130
sS'maxAccel'
p13
I2
sS'maxVel'
p14
F0.72999999999999998
sS'age'
p15
I200
sS'lastScale'
p16
F15.30002611903191
sS'maxSteering'
p17
I20
sS'energy'
p18
F0.98000261190319093
sb.(i__main__
Data_mobile
p1
(dp2
S'vel_y'
p3
F-0.14866791556541537
sS'vel_x'
p4
F-0.52739254257536083
sS'pos_x'
p5
F36.893977664324119
sS'pos_y'
p6
F50.466935886445413
sS'isAlive'
p7
I01
sS'geno'
p8
(lp9
F-1.8379802340199882
aF1.4355810211947317
aF1.7579883573854276
aF4.1946300192512087
aF0.11012703800692636
asS'accel_x'
p10
F0.79846950154291818
sS'accel_y'
p11
F-1.0070579560429473
sS'visionAngle'
p12
I130
sS'maxAccel'
p13
I2
sS'maxVel'
p14
F0.72999999999999998
sS'age'
p15
I200
sS'lastScale'
p16
F15.30002611903191
sS'maxSteering'
p17
I20
sS'energy'
p18
F0.98000261190319093
sb.(i__main__
Data_mobile
p1
(dp2
S'vel_y'
p3
F-0.044587342722434344
sS'vel_x'
p4
F-0.72863706251394611
sS'pos_x'
p5
F-184.75358288136806
sS'pos_y'
p6
F-101.02606404831577
sS'isAlive'
p7
I01
sS'geno'
p8
(lp9
F-0.59918089818479825
aF2.3784144488384982
aF1.1751450960891641
aF4.5902529241843553
aF0.11012703800692636
asS'accel_x'
p10
F-1.7499622367419745
sS'accel_y'
p11
F0.96831408642910155
sS'visionAngle'
p12
I130
sS'maxAccel'
p13
I2
sS'maxVel'
p14
F0.72999999999999998
sS'age'
p15
I150
sS'lastScale'
p16
F15.301657194409474
sS'maxSteering'
p17
I20
sS'energy'
p18
F0.98016571944094744
sb.(i__main__
Data_mobile
p1
(dp2
S'vel_y'
p3
F0.40285499096758448
sS'vel_x'
p4
F0.60877570274486759
sS'pos_x'
p5
F34.442400162089626
sS'pos_y'
p6
F-47.32153906655077
sS'isAlive'
p7
I01
sS'geno'
p8
(lp9
F-1.5104030421512982
aF1.6792428090093283
aF0.84169786401646696
aF4.0471897791765219
aF1.1869921445983265
asS'accel_x'
p10
F-1.058819053933227
sS'accel_y'
p11
F-1.6967328048422785
sS'visionAngle'
p12
I130
sS'maxAccel'
p13
I2
sS'maxVel'
p14
F0.72999999999999998
sS'age'
p15
I150
sS'lastScale'
p16
F15.26869694613201
sS'maxSteering'
p17
I20
sS'energy'
p18
F0.97686969461320095
sb.(i__main__
Data_mobile
p1
(dp2
S'vel_y'
p3
F-0.72765912374898334
sS'vel_x'
p4
F-0.058414036197320912
sS'pos_x'
p5
F-162.34683664409184
sS'pos_y'
p6
F-97.104987523773815
sS'isAlive'
p7
I01
sS'geno'
p8
(lp9
F-0.42905803185603419
aF2.3784144488384982
aF1.1751450960891641
aF4.8733373187519522
aF-0.033362832445752666
asS'accel_x'
p10
F-1.7071573979525207
sS'accel_y'
p11
F-1.041927837528098
sS'visionAngle'
p12
I130
sS'maxAccel'
p13
I2
sS'maxVel'
p14
F0.72999999999999998
sS'age'
p15
I400
sS'lastScale'
p16
F14.100000000013758
sS'maxSteering'
p17
I20
sS'energy'
p18
F0.86000000000137578
sb.(i__main__
Data_mobile
p1
(dp2
S'vel_y'
p3
F0.063939078299957958
sS'vel_x'
p4
F0.7271944679837381
sS'pos_x'
p5
F-2.4777993901704614
sS'pos_y'
p6
F-4.3594545043727964
sS'isAlive'
p7
I01
sS'geno'
p8
(lp9
F-1.8379802340199882
aF1.4355810211947317
aF1.7579883573854276
aF4.1946300192512087
aF-0.033362832445752666
asS'accel_x'
p10
F1.9351124518078504
sS'accel_y'
p11
F0.50531158591329606
sS'visionAngle'
p12
I130
sS'maxAccel'
p13
I2
sS'maxVel'
p14
F0.72999999999999998
sS'age'
p15
I150
sS'lastScale'
p16
F13.696410165094971
sS'maxSteering'
p17
I20
sS'energy'
p18
F0.81964101650949717
sb.(i__main__
Data_mobile
p1
(dp2
S'vel_y'
p3
F-0.59667089542752261
sS'vel_x'
p4
F-0.42057560860054444
sS'pos_x'
p5
F-175.73990080633723
sS'pos_y'
p6
F-88.683813561118029
sS'isAlive'
p7
I01
sS'geno'
p8
(lp9
F-0.59918089818479825
aF2.3784144488384982
aF1.1751450960891641
aF4.8733373187519522
aF-0.033362832445752666
asS'accel_x'
p10
F-1.1053232007650649
sS'accel_y'
p11
F-1.6668115135942851
sS'visionAngle'
p12
I130
sS'maxAccel'
p13
I2
sS'maxVel'
p14
F0.72999999999999998
sS'age'
p15
I250
sS'lastScale'
p16
F13.300088952217299
sS'maxSteering'
p17
I20
sS'energy'
p18
F0.78000889522172989
sb.(i__main__
Data_mobile
p1
(dp2
S'vel_y'
p3
F-0.43398385738775441
sS'vel_x'
p4
F-0.58699064006749313
sS'pos_x'
p5
F-120.03344574673285
sS'pos_y'
p6
F-98.489182745643305
sS'isAlive'
p7
I01
sS'geno'
p8
(lp9
F-1.7188599528927422
aF1.4355810211947317
aF1.7579883573854276
aF4.1946300192512087
aF0.11012703800692636
asS'accel_x'
p10
F1.2099749971032185
sS'accel_y'
p11
F-1.5924699389266557
sS'visionAngle'
p12
I130
sS'maxAccel'
p13
I2
sS'maxVel'
p14
F0.72999999999999998
sS'age'
p15
I150
sS'lastScale'
p16
F12.430942879252196
sS'maxSteering'
p17
I20
sS'energy'
p18
F0.69309428792521943
sb.(i__main__
Data_mobile
p1
(dp2
S'vel_y'
p3
F-0.33829338382040991
sS'vel_x'
p4
F0.64688297741039424
sS'pos_x'
p5
F-123.87792790449278
sS'pos_y'
p6
F-98.012471336335963
sS'isAlive'
p7
I01
sS'geno'
p8
(lp9
F-0.59918089818479825
aF1.4474154703074749
aF1.7579883573854276
aF4.1946300192512087
aF0.11012703800692636
asS'accel_x'
p10
F1.6915924704836403
sS'accel_y'
p11
F-1.0670121432313009
sS'visionAngle'
p12
I130
sS'maxAccel'
p13
I2
sS'maxVel'
p14
F0.72999999999999998
sS'age'
p15
I200
sS'lastScale'
p16
F11.901045978094473
sS'maxSteering'
p17
I20
sS'energy'
p18
F0.6401045978094474
sb.(i__main__
Data_mobile
p1
(dp2
S'vel_y'
p3
F0.25592734693061581
sS'vel_x'
p4
F0.68366745797431094
sS'pos_x'
p5
F-1.5581987649273517
sS'pos_y'
p6
F1.9411717810779119
sS'isAlive'
p7
I01
sS'geno'
p8
(lp9
F-1.5610809850543772
aF1.8507508061384659
aF1.0326275428935199
aF4.0471897791765219
aF1.204865815711218
asS'accel_x'
p10
F1.701185791914126
sS'accel_y'
p11
F1.0516496096084043
sS'visionAngle'
p12
I130
sS'maxAccel'
p13
I2
sS'maxVel'
p14
F0.72999999999999998
sS'age'
p15
I300
sS'lastScale'
p16
F11.500000310328273
sS'maxSteering'
p17
I20
sS'energy'
p18
F0.60000003103282729
sb.(i__main__
Data_mobile
p1
(dp2
S'vel_y'
p3
F0.70199291740582048
sS'vel_x'
p4
F0.20026468463527197
sS'pos_x'
p5
F148.81134935945337
sS'pos_y'
p6
F-27.180099446218552
sS'isAlive'
p7
I01
sS'geno'
p8
(lp9
F-0.59918089818479825
aF1.6792428090093283
aF0.84169786401646696
aF3.6907407061059954
aF1.1869921445983265
asS'accel_x'
p10
F-0.071054492195522012
sS'accel_y'
p11
F1.9987374162552811
sS'visionAngle'
p12
I130
sS'maxAccel'
p13
I2
sS'maxVel'
p14
F0.72999999999999998
sS'age'
p15
I150
sS'lastScale'
p16
F11.531040886855958
sS'maxSteering'
p17
I20
sS'energy'
p18
F0.60310408868559573
sb.(i__main__
Data_mobile
p1
(dp2
S'vel_y'
p3
F-0.62319233674324181
sS'vel_x'
p4
F-0.3801727389286319
sS'pos_x'
p5
F-4.069428736964201
sS'pos_y'
p6
F-47.056755797718218
sS'isAlive'
p7
I01
sS'geno'
p8
(lp9
F-1.8379802340199882
aF1.4355810211947317
aF1.7579883573854276
aF4.2471053647080916
aF1.1869921445983265
asS'accel_x'
p10
F-1.9803606687282664
sS'accel_y'
p11
F-0.27959188427801951
sS'visionAngle'
p12
I130
sS'maxAccel'
p13
I2
sS'maxVel'
p14
F0.72999999999999998
sS'age'
p15
I100
sS'lastScale'
p16
F15.352082128537274
sS'maxSteering'
p17
I20
sS'energy'
p18
F0.98520821285372739
sb.(i__main__
Data_mobile
p1
(dp2
S'vel_y'
p3
F-0.59566186471292404
sS'vel_x'
p4
F-0.42200348686559702
sS'pos_x'
p5
F-121.10287495645925
sS'pos_y'
p6
F-101.53347811943527
sS'isAlive'
p7
I01
sS'geno'
p8
(lp9
F-0.59918089818479825
aF1.4474154703074749
aF1.7579883573854276
aF4.0185918315122962
aF0.11012703800692636
asS'accel_x'
p10
F1.6034536382106357
sS'accel_y'
p11
F1.1953812906805412
sS'visionAngle'
p12
I130
sS'maxAccel'
p13
I2
sS'maxVel'
p14
F0.72999999999999998
sS'age'
p15
I100
sS'lastScale'
p16
F15.352082128537274
sS'maxSteering'
p17
I20
sS'energy'
p18
F0.98520821285372739
sb.(i__main__
Data_mobile
p1
(dp2
S'vel_y'
p3
F-0.53313166202611439
sS'vel_x'
p4
F-0.49866885900893482
sS'pos_x'
p5
F11.292629182748941
sS'pos_y'
p6
F-55.279223509568887
sS'isAlive'
p7
I01
sS'geno'
p8
(lp9
F-0.42905803185603419
aF2.3784144488384982
aF1.1751450960891641
aF4.8733373187519522
aF-0.033362832445752666
asS'accel_x'
p10
F-1.4406198558828769
sS'accel_y'
p11
F-1.3873047361109958
sS'visionAngle'
p12
I130
sS'maxAccel'
p13
I2
sS'maxVel'
p14
F0.72999999999999998
sS'age'
p15
I100
sS'lastScale'
p16
F15.352082128537274
sS'maxSteering'
p17
I20
sS'energy'
p18
F0.98520821285372739
sb.(i__main__
Data_mobile
p1
(dp2
S'vel_y'
p3
F-0.59834185097901249
sS'vel_x'
p4
F-0.41819496573608966
sS'pos_x'
p5
F12.713905413464346
sS'pos_y'
p6
F-51.334509443036936
sS'isAlive'
p7
I01
sS'geno'
p8
(lp9
F0.052833796813055112
aF1.9360919308236906
aF1.4560639752233993
aF4.4116340891698238
aF0.74019228899972211
asS'accel_x'
p10
F-1.0696992202097793
sS'accel_y'
p11
F-1.6898945464976771
sS'visionAngle'
p12
I130
sS'maxAccel'
p13
I2
sS'maxVel'
p14
F0.72999999999999998
sS'age'
p15
I100
sS'lastScale'
p16
F15.062456826947534
sS'maxSteering'
p17
I20
sS'energy'
p18
F0.95624568269475341
sb.(i__main__
Data_mobile
p1
(dp2
S'vel_y'
p3
F-0.50202085895142301
sS'vel_x'
p4
F-0.52997646851315527
sS'pos_x'
p5
F13.253198939379226
sS'pos_y'
p6
F-50.232474842706416
sS'isAlive'
p7
I01
sS'geno'
p8
(lp9
F-1.5104030421512982
aF1.6792428090093283
aF1.7579883573854276
aF4.1946300192512087
aF0.11012703800692636
asS'accel_x'
p10
F-1.4218467285222365
sS'accel_y'
p11
F-1.4065389722971113
sS'visionAngle'
p12
I130
sS'maxAccel'
p13
I2
sS'maxVel'
p14
F0.72999999999999998
sS'age'
p15
I100
sS'lastScale'
p16
F14.69332632211556
sS'maxSteering'
p17
I20
sS'energy'
p18
F0.91933263221155603
sb.(i__main__
Data_mobile
p1
(dp2
S'vel_y'
p3
F-0.17325641306318831
sS'vel_x'
p4
F-0.70914188660131894
sS'pos_x'
p5
F19.115069995823323
sS'pos_y'
p6
F-45.601896768907203
sS'isAlive'
p7
I01
sS'geno'
p8
(lp9
F-0.10013649234368704
aF1.8507508061384659
aF1.0326275428935199
aF4.0471897791765219
aF1.204865815711218
asS'accel_x'
p10
F-1.5434750486400632
sS'accel_y'
p11
F-1.271882374367046
sS'visionAngle'
p12
I130
sS'maxAccel'
p13
I2
sS'maxVel'
p14
F0.72999999999999998
sS'age'
p15
I100
sS'lastScale'
p16
F14.507411719020674
sS'maxSteering'
p17
I20
sS'energy'
p18
F0.90074117190206726
sb.(i__main__
Data_mobile
p1
(dp2
S'vel_y'
p3
F-0.28981270357198097
sS'vel_x'
p4
F-0.67000641552771645
sS'pos_x'
p5
F18.580340492002332
sS'pos_y'
p6
F-47.161918301022965
sS'isAlive'
p7
I01
sS'geno'
p8
(lp9
F-0.59918089818479825
aF1.3819005256676102
aF0.64169344990887645
aF4.0471897791765219
aF0.74019228899972211
asS'accel_x'
p10
F-1.4634548162729988
sS'accel_y'
p11
F-1.3631947772520856
sS'visionAngle'
p12
I130
sS'maxAccel'
p13
I2
sS'maxVel'
p14
F0.72999999999999998
sS'age'
p15
I100
sS'lastScale'
p16
F14.507411719020674
sS'maxSteering'
p17
I20
sS'energy'
p18
F0.90074117190206726
sb.(i__main__
Data_mobile
p1
(dp2
S'vel_y'
p3
F0.69200228158251065
sS'vel_x'
p4
F-0.23244965537638423
sS'pos_x'
p5
F78.357122292268798
sS'pos_y'
p6
F-28.175178146022905
sS'isAlive'
p7
I01
sS'geno'
p8
(lp9
F-0.59918089818479825
aF1.6792428090093283
aF0.84169786401646696
aF4.0471897791765219
aF1.1869921445983265
asS'accel_x'
p10
F-1.9999904388906735
sS'accel_y'
p11
F0.0061842013139323951
sS'visionAngle'
p12
I130
sS'maxAccel'
p13
I2
sS'maxVel'
p14
F0.72999999999999998
sS'age'
p15
I100
sS'lastScale'
p16
F14.373487355897254
sS'maxSteering'
p17
I20
sS'energy'
p18
F0.88734873558972538
sb.(i__main__
Data_mobile
p1
(dp2
S'vel_y'
p3
F0.10180481681314781
sS'vel_x'
p4
F-0.72286636335746135
sS'pos_x'
p5
F-183.36648916618412
sS'pos_y'
p6
F-99.807865988518429
sS'isAlive'
p7
I01
sS'geno'
p8
(lp9
F-0.42905803185603419
aF2.3784144488384982
aF1.1751450960891641
aF4.8902730407270978
aF1.6523553541136913
asS'accel_x'
p10
F-1.9445461486083402
sS'accel_y'
p11
F0.46769677776575591
sS'visionAngle'
p12
I130
sS'maxAccel'
p13
I2
sS'maxVel'
p14
F0.72999999999999998
sS'age'
p15
I100
sS'lastScale'
p16
F13.606619878916117
sS'maxSteering'
p17
I20
sS'energy'
p18
F0.81066198789161159
sb.(i__main__
Data_mobile
p1
(dp2
S'vel_y'
p3
F-0.65404234857665655
sS'vel_x'
p4
F0.32423541797331673
sS'pos_x'
p5
F65.634955453428915
sS'pos_y'
p6
F-22.882536190813649
sS'isAlive'
p7
I01
sS'geno'
p8
(lp9
F-0.59918089818479825
aF1.6792428090093283
aF1.0326275428935199
aF4.1922718389484519
aF1.1869921445983265
asS'accel_x'
p10
F0.83597236909622175
sS'accel_y'
p11
F-1.8169067664873868
sS'visionAngle'
p12
I130
sS'maxAccel'
p13
I2
sS'maxVel'
p14
F0.72999999999999998
sS'age'
p15
I150
sS'lastScale'
p16
F9.3316851093399933
sS'maxSteering'
p17
I20
sS'energy'
p18
F0.38316851093399934
sb.(i__main__
Data_mobile
p1
(dp2
S'vel_y'
p3
F-0.50021226989836387
sS'vel_x'
p4
F-0.53168382055797625
sS'pos_x'
p5
F-171.11569915005703
sS'pos_y'
p6
F-84.949884332745157
sS'isAlive'
p7
I01
sS'geno'
p8
(lp9
F-0.10013649234368704
aF2.3784144488384982
aF0.8653874118006869
aF4.8733373187519522
aF-0.033362832445752666
asS'accel_x'
p10
F-1.2831039932106201
sS'accel_y'
p11
F-1.5341590995092265
sS'visionAngle'
p12
I130
sS'maxAccel'
p13
I2
sS'maxVel'
p14
F0.72999999999999998
sS'age'
p15
I150
sS'lastScale'
p16
F9.1512035770413771
sS'maxSteering'
p17
I20
sS'energy'
p18
F0.3651203577041377
sb.(i__main__
Data_mobile
p1
(dp2
S'vel_y'
p3
F-0.65238241720469825
sS'vel_x'
p4
F0.32756248521794301
sS'pos_x'
p5
F64.555525333366148
sS'pos_y'
p6
F-20.454166737800346
sS'isAlive'
p7
I01
sS'geno'
p8
(lp9
F-0.59918089818479825
aF1.9617067966283854
aF1.5318902666518697
aF4.0471897791765219
aF1.1869921445983265
asS'accel_x'
p10
F0.45179216233432984
sS'accel_y'
p11
F-1.948302810667087
sS'visionAngle'
p12
I130
sS'maxAccel'
p13
I2
sS'maxVel'
p14
F0.72999999999999998
sS'age'
p15
I150
sS'lastScale'
p16
F9.1512035770413771
sS'maxSteering'
p17
I20
sS'energy'
p18
F0.3651203577041377
sb.(i__main__
Data_mobile
p1
(dp2
S'vel_y'
p3
F0.1921306771981966
sS'vel_x'
p4
F0.70426259511588596
sS'pos_x'
p5
F150.01330222701685
sS'pos_y'
p6
F-28.033208036240076
sS'isAlive'
p7
I01
sS'geno'
p8
(lp9
F-0.59918089818479825
aF1.6792428090093283
aF1.0326275428935199
aF4.4316703607951782
aF1.6523553541136913
asS'accel_x'
p10
F1.1317280789648914
sS'accel_y'
p11
F-1.648997136226269
sS'visionAngle'
p12
I130
sS'maxAccel'
p13
I2
sS'maxVel'
p14
F0.72999999999999998
sS'age'
p15
I200
sS'lastScale'
p16
F7.919106473660686
sS'maxSteering'
p17
I20
sS'energy'
p18
F0.24191064736606857
sb.(i__main__
Data_mobile
p1
(dp2
S'vel_y'
p3
F0.59607480475524777
sS'vel_x'
p4
F0.42142001273787805
sS'pos_x'
p5
F-73.766623546519455
sS'pos_y'
p6
F-0.47741872463357166
sS'isAlive'
p7
I01
sS'geno'
p8
(lp9
F-1.5104030421512982
aF1.6792428090093283
aF0.84169786401646696
aF4.0471897791765219
aF1.1869921445983265
asS'accel_x'
p10
F0.90693121498722518
sS'accel_y'
p11
F0.76578464506669863
sS'visionAngle'
p12
I130
sS'maxAccel'
p13
I2
sS'maxVel'
p14
F0.72999999999999998
sS'age'
p15
I300
sS'lastScale'
p16
F7.3000406127256765
sS'maxSteering'
p17
I20
sS'energy'
p18
F0.18000406127256763
sb.(i__main__
Data_mobile
p1
(dp2
S'vel_y'
p3
F-0.71471048810759807
sS'vel_x'
p4
F-0.14862341063573689
sS'pos_x'
p5
F-121.10369924263884
sS'pos_y'
p6
F-105.86855006496991
sS'isAlive'
p7
I01
sS'geno'
p8
(lp9
F-0.42905803185603419
aF2.3784144488384982
aF1.0228052984011962
aF4.0471897791765219
aF1.204865815711218
asS'accel_x'
p10
F0.58606804139051549
sS'accel_y'
p11
F-1.9122040296110363
sS'visionAngle'
p12
I130
sS'maxAccel'
p13
I2
sS'maxVel'
p14
F0.72999999999999998
sS'age'
p15
I50
sS'lastScale'
p16
F15.398593637295674
sS'maxSteering'
p17
I20
sS'energy'
p18
F0.98985936372956751
sb.(i__main__
Data_mobile
p1
(dp2
S'vel_y'
p3
F-0.55950470535954533
sS'vel_x'
p4
F-0.4688864304717385
sS'pos_x'
p5
F72.71603905026609
sS'pos_y'
p6
F33.357404193045191
sS'isAlive'
p7
I01
sS'geno'
p8
(lp9
F-0.59918089818479825
aF1.4355810211947317
aF1.7579883573854276
aF4.1946300192512087
aF0.26098714639515497
asS'accel_x'
p10
F-1.0087607834494949
sS'accel_y'
p11
F1.7269631385105941
sS'visionAngle'
p12
I130
sS'maxAccel'
p13
I2
sS'maxVel'
p14
F0.72999999999999998
sS'age'
p15
I50
sS'lastScale'
p16
F15.398593637295674
sS'maxSteering'
p17
I20
sS'energy'
p18
F0.98985936372956751
sb.(i__main__
Data_mobile
p1
(dp2
S'vel_y'
p3
F-0.37497068441601134
sS'vel_x'
p4
F-0.62633616040317208
sS'pos_x'
p5
F36.872427110487699
sS'pos_y'
p6
F52.002061383112704
sS'isAlive'
p7
I01
sS'geno'
p8
(lp9
F-0.59918089818479825
aF1.4474154703074749
aF1.7579883573854276
aF4.1946300192512087
aF0.11012703800692636
asS'accel_x'
p10
F0.99399254410712556
sS'accel_y'
p11
F-1.7355053506859159
sS'visionAngle'
p12
I130
sS'maxAccel'
p13
I2
sS'maxVel'
p14
F0.72999999999999998
sS'age'
p15
I50
sS'lastScale'
p16
F15.398593637295674
sS'maxSteering'
p17
I20
sS'energy'
p18
F0.98985936372956751
sb.(i__main__
Data_mobile
p1
(dp2
S'vel_y'
p3
F-0.72883133644008524
sS'vel_x'
p4
F0.041290229146364599
sS'pos_x'
p5
F36.012344361368967
sS'pos_y'
p6
F39.145497275655849
sS'isAlive'
p7
I01
sS'geno'
p8
(lp9
F-0.18283248850082123
aF1.9360919308236906
aF1.4560639752233993
aF4.1946300192512087
aF0.11012703800692636
asS'accel_x'
p10
F-0.95883166107371143
sS'accel_y'
p11
F-1.7551757307240285
sS'visionAngle'
p12
I130
sS'maxAccel'
p13
I2
sS'maxVel'
p14
F0.72999999999999998
sS'age'
p15
I50
sS'lastScale'
p16
F15.398593637295674
sS'maxSteering'
p17
I20
sS'energy'
p18
F0.98985936372956751
sb.(i__main__
Data_mobile
p1
(dp2
S'vel_y'
p3
F-0.15433953258718197
sS'vel_x'
p4
F-0.71349793880625201
sS'pos_x'
p5
F47.126853943243731
sS'pos_y'
p6
F23.229700768908788
sS'isAlive'
p7
I01
sS'geno'
p8
(lp9
F-1.8379802340199882
aF1.4355810211947317
aF1.7579883573854276
aF4.4116340891698238
aF0.74019228899972211
asS'accel_x'
p10
F-1.0138290099581337
sS'accel_y'
p11
F1.7239926735828406
sS'visionAngle'
p12
I130
sS'maxAccel'
p13
I2
sS'maxVel'
p14
F0.72999999999999998
sS'age'
p15
I50
sS'lastScale'
p16
F15.398593637295674
sS'maxSteering'
p17
I20
sS'energy'
p18
F0.98985936372956751
sb.(i__main__
Data_mobile
p1
(dp2
S'vel_y'
p3
F0.17462883474814561
sS'vel_x'
p4
F-0.70880517074475757
sS'pos_x'
p5
F47.480432817426582
sS'pos_y'
p6
F24.413410830243468
sS'isAlive'
p7
I01
sS'geno'
p8
(lp9
F-1.0313760438250674
aF1.6792428090093283
aF1.0326275428935199
aF4.4316703607951782
aF1.6523553541136913
asS'accel_x'
p10
F-1.9109666825507543
sS'accel_y'
p11
F0.59009011022128233
sS'visionAngle'
p12
I130
sS'maxAccel'
p13
I2
sS'maxVel'
p14
F0.72999999999999998
sS'age'
p15
I50
sS'lastScale'
p16
F15.398593637295674
sS'maxSteering'
p17
I20
sS'energy'
p18
F0.98985936372956751
sb.(i__main__
Data_mobile
p1
(dp2
S'vel_y'
p3
F-0.53146409104000314
sS'vel_x'
p4
F-0.50044572126757481
sS'pos_x'
p5
F-185.96451553531682
sS'pos_y'
p6
F-96.485173996837943
sS'isAlive'
p7
I01
sS'geno'
p8
(lp9
F-0.10013649234368704
aF2.3784144488384982
aF0.8653874118006869
aF4.8733373187519522
aF-0.033362832445752666
asS'accel_x'
p10
F-1.7057819617253309
sS'accel_y'
p11
F-1.0441780973820902
sS'visionAngle'
p12
I130
sS'maxAccel'
p13
I2
sS'maxVel'
p14
F0.72999999999999998
sS'age'
p15
I50
sS'lastScale'
p16
F15.398593637295674
sS'maxSteering'
p17
I20
sS'energy'
p18
F0.98985936372956751
sb.(i__main__
Data_mobile
p1
(dp2
S'vel_y'
p3
F-0.55097304327332386
sS'vel_x'
p4
F-0.47888276810314651
sS'pos_x'
p5
F-186.88802963849909
sS'pos_y'
p6
F-96.700105473690058
sS'isAlive'
p7
I01
sS'geno'
p8
(lp9
F-0.42905803185603419
aF2.3784144488384982
aF1.1751450960891641
aF4.8733373187519522
aF0.22310156723591523
asS'accel_x'
p10
F1.2688701826702311
sS'accel_y'
p11
F-1.5459522824234952
sS'visionAngle'
p12
I130
sS'maxAccel'
p13
I2
sS'maxVel'
p14
F0.72999999999999998
sS'age'
p15
I50
sS'lastScale'
p16
F15.398593637295674
sS'maxSteering'
p17
I20
sS'energy'
p18
F0.98985936372956751
sb.(i__main__
Data_mobile
p1
(dp2
S'vel_y'
p3
F0.69753101621061064
sS'vel_x'
p4
F-0.21529161949363684
sS'pos_x'
p5
F-42.490783939136769
sS'pos_y'
p6
F-40.594809587504209
sS'isAlive'
p7
I01
sS'geno'
p8
(lp9
F-1.5610809850543772
aF1.8507508061384659
aF1.0326275428935199
aF4.8733373187519522
aF-0.033362832445752666
asS'accel_x'
p10
F-1.9018350721850461
sS'accel_y'
p11
F-0.61888880924355039
sS'visionAngle'
p12
I130
sS'maxAccel'
p13
I2
sS'maxVel'
p14
F0.72999999999999998
sS'age'
p15
I50
sS'lastScale'
p16
F14.893063201926424
sS'maxSteering'
p17
I20
sS'energy'
p18
F0.93930632019264249
sb.(i__main__
Data_mobile
p1
(dp2
S'vel_y'
p3
F-0.32672514320293727
sS'vel_x'
p4
F0.65280217585346645
sS'pos_x'
p5
F59.022797416644153
sS'pos_y'
p6
F-28.990912337679131
sS'isAlive'
p7
I01
sS'geno'
p8
(lp9
F-0.80468763702997659
aF1.6792428090093283
aF1.0326275428935199
aF4.0471897791765219
aF1.1869921445983265
asS'accel_x'
p10
F1.504796424007812
sS'accel_y'
p11
F-1.317417064673637
sS'visionAngle'
p12
I130
sS'maxAccel'
p13
I2
sS'maxVel'
p14
F0.72999999999999998
sS'age'
p15
I50
sS'lastScale'
p16
F14.691415745034313
sS'maxSteering'
p17
I20
sS'energy'
p18
F0.91914157450343126
sb.(i__main__
Data_mobile
p1
(dp2
S'vel_y'
p3
F0.60892647969462343
sS'vel_x'
p4
F-0.40262705116113762
sS'pos_x'
p5
F47.510974899040463
sS'pos_y'
p6
F20.087730464274902
sS'isAlive'
p7
I01
sS'geno'
p8
(lp9
F-1.8379802340199882
aF1.9753393459420772
aF1.0326275428935199
aF4.0471897791765219
aF1.1869921445983265
asS'accel_x'
p10
F0.34431379268727214
sS'accel_y'
p11
F1.9701390844722881
sS'visionAngle'
p12
I130
sS'maxAccel'
p13
I2
sS'maxVel'
p14
F0.72999999999999998
sS'age'
p15
I50
sS'lastScale'
p16
F14.590688719221344
sS'maxSteering'
p17
I20
sS'energy'
p18
F0.90906887192213437
sb.(i__main__
Data_mobile
p1
(dp2
S'vel_y'
p3
F-0.16969693482472958
sS'vel_x'
p4
F-0.71000207768082724
sS'pos_x'
p5
F-184.98497628839311
sS'pos_y'
p6
F-94.548736524639892
sS'isAlive'
p7
I01
sS'geno'
p8
(lp9
F-0.59918089818479825
aF1.6792428090093283
aF1.0326275428935199
aF4.1922718389484519
aF1.484312096692874
asS'accel_x'
p10
F-1.998777169755239
sS'accel_y'
p11
F-0.06992728841615431
sS'visionAngle'
p12
I130
sS'maxAccel'
p13
I2
sS'maxVel'
p14
F0.72999999999999998
sS'age'
p15
I50
sS'lastScale'
p16
F14.389403332422825
sS'maxSteering'
p17
I20
sS'energy'
p18
F0.8889403332422825
sb.(i__main__
Data_mobile
p1
(dp2
S'vel_y'
p3
F0.1051566011274625
sS'vel_x'
p4
F0.72238638500411934
sS'pos_x'
p5
F-3.4698841107327345
sS'pos_y'
p6
F-8.0112693309232093
sS'isAlive'
p7
I01
sS'geno'
p8
(lp9
F-1.8379802340199882
aF1.4355810211947317
aF1.7579883573854276
aF4.1946300192512087
aF-0.033362832445752666
asS'accel_x'
p10
F1.7136111663895068
sS'accel_y'
p11
F1.0312791913081512
sS'visionAngle'
p12
I130
sS'maxAccel'
p13
I2
sS'maxVel'
p14
F0.72999999999999998
sS'age'
p15
I50
sS'lastScale'
p16
F14.188314199552094
sS'maxSteering'
p17
I20
sS'energy'
p18
F0.86883141995520952
sb.(i__main__
Data_mobile
p1
(dp2
S'vel_y'
p3
F0.25375593124444334
sS'vel_x'
p4
F0.68447638918976983
sS'pos_x'
p5
F-1.6896792249627883
sS'pos_y'
p6
F-1.4863991721185885
sS'isAlive'
p7
I01
sS'geno'
p8
(lp9
F-0.59918089818479825
aF1.9753393459420772
aF1.0326275428935199
aF4.0471897791765219
aF1.1869921445983265
asS'accel_x'
p10
F1.6960636496099228
sS'accel_y'
p11
F1.0598906058984898
sS'visionAngle'
p12
I130
sS'maxAccel'
p13
I2
sS'maxVel'
p14
F0.72999999999999998
sS'age'
p15
I50
sS'lastScale'
p16
F14.188314199552094
sS'maxSteering'
p17
I20
sS'energy'
p18
F0.86883141995520952
sb.(i__main__
Data_mobile
p1
(dp2
S'vel_y'
p3
F-0.40002932894317317
sS'vel_x'
p4
F0.61063617317128727
sS'pos_x'
p5
F-124.01676954159208
sS'pos_y'
p6
F-97.003850252973777
sS'isAlive'
p7
I01
sS'geno'
p8
(lp9
F-0.59918089818479825
aF2.3784144488384982
aF1.1751450960891641
aF4.8733373187519522
aF0.11012703800692636
asS'accel_x'
p10
F1.516918759853747
sS'accel_y'
p11
F-1.3034406300264583
sS'visionAngle'
p12
I130
sS'maxAccel'
p13
I2
sS'maxVel'
p14
F0.72999999999999998
sS'age'
p15
I50
sS'lastScale'
p16
F13.385387208276622
sS'maxSteering'
p17
I20
sS'energy'
p18
F0.78853872082766219
sb.(i__main__
Data_mobile
p1
(dp2
S'vel_y'
p3
F-0.7187882330185793
sS'vel_x'
p4
F0.12744989632804138
sS'pos_x'
p5
F66.137732608489813
sS'pos_y'
p6
F-21.095301303085556
sS'isAlive'
p7
I01
sS'geno'
p8
(lp9
F-0.59918089818479825
aF1.6792428090093283
aF1.0326275428935199
aF4.4316703607951782
aF1.1735233639632758
asS'accel_x'
p10
F0.86483216646856897
sS'accel_y'
p11
F-1.8033483645267439
sS'visionAngle'
p12
I130
sS'maxAccel'
p13
I2
sS'maxVel'
p14
F0.72999999999999998
sS'age'
p15
I50
sS'lastScale'
p16
F12.884333057226975
sS'maxSteering'
p17
I20
sS'energy'
p18
F0.7384333057226975
sb.(i__main__
Data_mobile
p1
(dp2
S'vel_y'
p3
F-0.63054027775992894
sS'vel_x'
p4
F0.36785725237166617
sS'pos_x'
p5
F68.022564771299841
sS'pos_y'
p6
F-22.941400279329816
sS'isAlive'
p7
I01
sS'geno'
p8
(lp9
F-0.59918089818479825
aF1.9617067966283854
aF1.5318902666518697
aF3.7073162395465431
aF1.6523553541136913
asS'accel_x'
p10
F-0.95581377862504235
sS'accel_y'
p11
F-1.1065425243299964
sS'visionAngle'
p12
I130
sS'maxAccel'
p13
I2
sS'maxVel'
p14
F0.72999999999999998
sS'age'
p15
I50
sS'lastScale'
p16
F12.884333057226975
sS'maxSteering'
p17
I20
sS'energy'
p18
F0.7384333057226975
sb.(i__main__
Data_mobile
p1
(dp2
S'vel_y'
p3
F0.087190484479582706
sS'vel_x'
p4
F0.72477432309389622
sS'pos_x'
p5
F0.56372080477630626
sS'pos_y'
p6
F-0.59737163479202438
sS'isAlive'
p7
I01
sS'geno'
p8
(lp9
F-1.7656368775032194
aF2.0335841237322509
aF1.0326275428935199
aF4.0471897791765219
aF1.1869921445983265
asS'accel_x'
p10
F1.441151078013637
sS'accel_y'
p11
F1.3867528872658363
sS'visionAngle'
p12
I130
sS'maxAccel'
p13
I2
sS'maxVel'
p14
F0.72999999999999998
sS'age'
p15
I50
sS'lastScale'
p16
F12.482567602243996
sS'maxSteering'
p17
I20
sS'energy'
p18
F0.69825676022439975
sb.(i__main__
Data_mobile
p1
(dp2
S'vel_y'
p3
F0.5938327993057273
sS'vel_x'
p4
F-0.42457344060683266
sS'pos_x'
p5
F75.65325600858327
sS'pos_y'
p6
F-27.627261515691817
sS'isAlive'
p7
I01
sS'geno'
p8
(lp9
F-1.5104030421512982
aF2.0718711274592083
aF0.93602071721145708
aF4.725693940297341
aF1.6523553541136913
asS'accel_x'
p10
F-1.3830191613394325
sS'accel_y'
p11
F-1.444734577480574
sS'visionAngle'
p12
I130
sS'maxAccel'
p13
I2
sS'maxVel'
p14
F0.72999999999999998
sS'age'
p15
I50
sS'lastScale'
p16
F12.482567602243996
sS'maxSteering'
p17
I20
sS'energy'
p18
F0.69825676022439975
sb.(i__main__
Data_mobile
p1
(dp2
S'vel_y'
p3
F-0.54064706290921949
sS'vel_x'
p4
F-0.49051070667991997
sS'pos_x'
p5
F-115.81343983533027
sS'pos_y'
p6
F-95.289424203527346
sS'isAlive'
p7
I01
sS'geno'
p8
(lp9
F-0.59918089818479825
aF1.6792428090093283
aF0.96616965521487619
aF4.0471897791765219
aF-0.033362832445752666
asS'accel_x'
p10
F-0.88963745717549902
sS'accel_y'
p11
F-1.7912412441629164
sS'visionAngle'
p12
I130
sS'maxAccel'
p13
I2
sS'maxVel'
p14
F0.72999999999999998
sS'age'
p15
I50
sS'lastScale'
p16
F12.482567602243996
sS'maxSteering'
p17
I20
sS'energy'
p18
F0.69825676022439964
sb.(i__main__
Data_mobile
p1
(dp2
S'vel_y'
p3
F0.38327640508788846
sS'vel_x'
p4
F-0.62128833668668271
sS'pos_x'
p5
F73.101070290342662
sS'pos_y'
p6
F-29.214755334816751
sS'isAlive'
p7
I01
sS'geno'
p8
(lp9
F-0.59918089818479825
aF1.6792428090093283
aF1.0326275428935199
aF4.0471897791765219
aF1.1869921445983265
asS'accel_x'
p10
F0.50866475430529334
sS'accel_y'
p11
F-1.9342337417508606
sS'visionAngle'
p12
I130
sS'maxAccel'
p13
I2
sS'maxVel'
p14
F0.72999999999999998
sS'age'
p15
I50
sS'lastScale'
p16
F11.482567602243998
sS'maxSteering'
p17
I20
sS'energy'
p18
F0.59825676022439978
sb.(i__main__
Data_mobile
p1
(dp2
S'vel_y'
p3
F-0.30646024380020243
sS'vel_x'
p4
F0.66255725712569213
sS'pos_x'
p5
F-9.6420876704892482
sS'pos_y'
p6
F-7.1230689802245077
sS'isAlive'
p7
I01
sS'geno'
p8
(lp9
F-0.59918089818479825
aF1.4355810211947317
aF1.7579883573854276
aF4.1946300192512087
aF0.11012703800692636
asS'accel_x'
p10
F1.8279645165529974
sS'accel_y'
p11
F0.80803906967221806
sS'visionAngle'
p12
I130
sS'maxAccel'
p13
I2
sS'maxVel'
p14
F0.72999999999999998
sS'age'
p15
I50
sS'lastScale'
p16
F11.482567602243996
sS'maxSteering'
p17
I20
sS'energy'
p18
F0.59825676022439955
sb.(i__main__
Data_mobile
p1
(dp2
S'vel_y'
p3
F-0.39125797672131651
sS'vel_x'
p4
F0.61629310855464048
sS'pos_x'
p5
F-129.23741006891112
sS'pos_y'
p6
F-90.867025588266358
sS'isAlive'
p7
I01
sS'geno'
p8
(lp9
F-0.59918089818479825
aF2.3784144488384982
aF1.1751450960891641
aF4.5902529241843553
aF0.11012703800692636
asS'accel_x'
p10
F1.6746190000332406
sS'accel_y'
p11
F-1.0934583689961264
sS'visionAngle'
p12
I130
sS'maxAccel'
p13
I2
sS'maxVel'
p14
F0.72999999999999998
sS'age'
p15
I50
sS'lastScale'
p16
F11.482567602243996
sS'maxSteering'
p17
I20
sS'energy'
p18
F0.59825676022439955
sb.(i__main__
Data_mobile
p1
(dp2
S'vel_y'
p3
F-0.6781799728252742
sS'vel_x'
p4
F-0.22230566772301907
sS'pos_x'
p5
F-176.38896463214033
sS'pos_y'
p6
F-98.163373324739027
sS'isAlive'
p7
I01
sS'geno'
p8
(lp9
F-0.42905803185603419
aF2.3784144488384982
aF1.1751450960891641
aF4.0471897791765219
aF1.204865815711218
asS'accel_x'
p10
F0
sS'accel_y'
p11
F0
sS'visionAngle'
p12
I130
sS'maxAccel'
p13
I2
sS'maxVel'
p14
F0.72999999999999998
sS'age'
p15
I0
sS'lastScale'
p16
F5.5
sS'maxSteering'
p17
I20
sS'energy'
p18
F0.5
sb.(i__main__
Data_mobile
p1
(dp2
S'vel_y'
p3
F-0.28981270357198097
sS'vel_x'
p4
F-0.67000641552771645
sS'pos_x'
p5
F18.580340492002332
sS'pos_y'
p6
F-47.161918301022965
sS'isAlive'
p7
I01
sS'geno'
p8
(lp9
F-0.59918089818479825
aF1.3819005256676102
aF0.64169344990887645
aF4.0471897791765219
aF0.74019228899972211
asS'accel_x'
p10
F0
sS'accel_y'
p11
F0
sS'visionAngle'
p12
I130
sS'maxAccel'
p13
I2
sS'maxVel'
p14
F0.72999999999999998
sS'age'
p15
I0
sS'lastScale'
p16
F5.5
sS'maxSteering'
p17
I20
sS'energy'
p18
F0.5
sb.(i__main__
Data_mobile
p1
(dp2
S'vel_y'
p3
F0.25647746846462688
sS'vel_x'
p4
F0.64065590729525668
sS'pos_x'
p5
F148.85046534616521
sS'pos_y'
p6
F-27.207862751395965
sS'isAlive'
p7
I01
sS'geno'
p8
(lp9
F-0.59918089818479825
aF1.6792428090093283
aF1.0920237229775986
aF4.4316703607951782
aF1.6523553541136913
asS'accel_x'
p10
F0
sS'accel_y'
p11
F0
sS'visionAngle'
p12
I130
sS'maxAccel'
p13
I2
sS'maxVel'
p14
F0.72999999999999998
sS'age'
p15
I0
sS'lastScale'
p16
F5.5
sS'maxSteering'
p17
I20
sS'energy'
p18
F0.5
sb.(i__main__
Data_mobile
p1
(dp2
S'vel_y'
p3
F0.033584071601881378
sS'vel_x'
p4
F0.67445447048418417
sS'pos_x'
p5
F-93.791606771018962
sS'pos_y'
p6
F-48.800669389133922
sS'isAlive'
p7
I01
sS'geno'
p8
(lp9
F-0.59918089818479825
aF2.3784144488384982
aF0.99805903137468266
aF4.8733373187519522
aF-0.033362832445752666
asS'accel_x'
p10
F0
sS'accel_y'
p11
F0
sS'visionAngle'
p12
I130
sS'maxAccel'
p13
I2
sS'maxVel'
p14
F0.72999999999999998
sS'age'
p15
I0
sS'lastScale'
p16
F5.5
sS'maxSteering'
p17
I20
sS'energy'
p18
F0.5
sb.(i__main__
Data_mobile
p1
(dp2
S'vel_y'
p3
F-0.38005354809193903
sS'vel_x'
p4
F-0.044216002738141635
sS'pos_x'
p5
F-94.764325661752721
sS'pos_y'
p6
F-49.274078728701461
sS'isAlive'
p7
I01
sS'geno'
p8
(lp9
F-1.8379802340199882
aF1.4355810211947317
aF1.7579883573854276
aF4.1946300192512087
aF-0.033362832445752666
asS'accel_x'
p10
F0
sS'accel_y'
p11
F0
sS'visionAngle'
p12
I130
sS'maxAccel'
p13
I2
sS'maxVel'
p14
F0.72999999999999998
sS'age'
p15
I0
sS'lastScale'
p16
F5.5
sS'maxSteering'
p17
I20
sS'energy'
p18
F0.5
sb.(i__main__
Data_mobile
p1
(dp2
S'vel_y'
p3
F-0.53785866338340227
sS'vel_x'
p4
F-0.44602873990059211
sS'pos_x'
p5
F-182.79348589131936
sS'pos_y'
p6
F-98.972090125194441
sS'isAlive'
p7
I01
sS'geno'
p8
(lp9
F-0.59918089818479825
aF2.3784144488384982
aF1.1751450960891641
aF4.8733373187519522
aF1.6932792925898039
asS'accel_x'
p10
F0
sS'accel_y'
p11
F0
sS'visionAngle'
p12
I130
sS'maxAccel'
p13
I2
sS'maxVel'
p14
F0.72999999999999998
sS'age'
p15
I0
sS'lastScale'
p16
F5.5
sS'maxSteering'
p17
I20
sS'energy'
p18
F0.5
sb.(i__main__
Data_mobile
p1
(dp2
S'vel_y'
p3
F-0.093432396583735589
sS'vel_x'
p4
F-0.63837036219365073
sS'pos_x'
p5
F-175.99753806756539
sS'pos_y'
p6
F-89.059600251827959
sS'isAlive'
p7
I01
sS'geno'
p8
(lp9
F-0.42905803185603419
aF2.3784144488384982
aF1.1751450960891641
aF4.8902730407270978
aF0.035026225067823491
asS'accel_x'
p10
F0
sS'accel_y'
p11
F0
sS'visionAngle'
p12
I130
sS'maxAccel'
p13
I2
sS'maxVel'
p14
F0.72999999999999998
sS'age'
p15
I0
sS'lastScale'
p16
F5.5
sS'maxSteering'
p17
I20
sS'energy'
p18
F0.5
sb.(i__main__
Data_mobile
p1
(dp2
S'vel_y'
p3
F-0.065540407335811124
sS'vel_x'
p4
F-0.7210152001448773
sS'pos_x'
p5
F-138.95252734213699
sS'pos_y'
p6
F-99.230767459273807
sS'isAlive'
p7
I01
sS'geno'
p8
(lp9
F-1.7188599528927422
aF1.4355810211947317
aF1.1751450960891641
aF4.9463791810885596
aF0.11012703800692636
asS'accel_x'
p10
F0
sS'accel_y'
p11
F0
sS'visionAngle'
p12
I130
sS'maxAccel'
p13
I2
sS'maxVel'
p14
F0.72999999999999998
sS'age'
p15
I0
sS'lastScale'
p16
F5.5
sS'maxSteering'
p17
I20
sS'energy'
p18
F0.5
sb.(i__main__
Data_mobile
p1
(dp2
S'vel_y'
p3
F-0.33393938750676794
sS'vel_x'
p4
F0.64911081559712125
sS'pos_x'
p5
F-13.271542795983315
sS'pos_y'
p6
F-56.272750938885494
sS'isAlive'
p7
I01
sS'geno'
p8
(lp9
F-0.80468763702997659
aF1.6792428090093283
aF1.3838684921151501
aF4.0471897791765219
aF-0.1264323341783169
asS'accel_x'
p10
F0
sS'accel_y'
p11
F0
sS'visionAngle'
p12
I130
sS'maxAccel'
p13
I2
sS'maxVel'
p14
F0.72999999999999998
sS'age'
p15
I0
sS'lastScale'
p16
F5.5
sS'maxSteering'
p17
I20
sS'energy'
p18
F0.5
sb.(i__main__
Data_mobile
p1
(dp2
S'vel_y'
p3
F-0.38124932575571691
sS'vel_x'
p4
F-0.62182122369538784
sS'pos_x'
p5
F60.398825781077349
sS'pos_y'
p6
F39.758415363794469
sS'isAlive'
p7
I01
sS'geno'
p8
(lp9
F-0.59918089818479825
aF1.9753393459420772
aF1.0326275428935199
aF3.6376897997734381
aF1.1869921445983265
asS'accel_x'
p10
F0
sS'accel_y'
p11
F0
sS'visionAngle'
p12
I130
sS'maxAccel'
p13
I2
sS'maxVel'
p14
F0.72999999999999998
sS'age'
p15
I0
sS'lastScale'
p16
F5.5
sS'maxSteering'
p17
I20
sS'energy'
p18
F0.5
sb.(i__main__
Data_mobile
p1
(dp2
S'vel_y'
p3
F-0.47855661323797599
sS'vel_x'
p4
F-0.55086255192156186
sS'pos_x'
p5
F56.648433935646906
sS'pos_y'
p6
F10.380277494252134
sS'isAlive'
p7
I01
sS'geno'
p8
(lp9
F-0.42905803185603419
aF2.3784144488384982
aF1.1751450960891641
aF4.8733373187519522
aF1.1869921445983265
asS'accel_x'
p10
F0
sS'accel_y'
p11
F0
sS'visionAngle'
p12
I130
sS'maxAccel'
p13
I2
sS'maxVel'
p14
F0.72999999999999998
sS'age'
p15
I0
sS'lastScale'
p16
F5.5
sS'maxSteering'
p17
I20
sS'energy'
p18
F0.5
sb.(i__main__
Data_mobile
p1
(dp2
S'vel_y'
p3
F-0.50233723652885853
sS'vel_x'
p4
F-0.52811958463382658
sS'pos_x'
p5
F49.748816584477169
sS'pos_y'
p6
F0.39202053655446534
sS'isAlive'
p7
I01
sS'geno'
p8
(lp9
F-0.59918089818479825
aF1.9753393459420772
aF1.0326275428935199
aF4.0471897791765219
aF-0.033362832445752666
asS'accel_x'
p10
F0
sS'accel_y'
p11
F0
sS'visionAngle'
p12
I130
sS'maxAccel'
p13
I2
sS'maxVel'
p14
F0.72999999999999998
sS'age'
p15
I0
sS'lastScale'
p16
F5.5
sS'maxSteering'
p17
I20
sS'energy'
p18
F0.5
sb.(i__main__
Data_mobile
p1
(dp2
S'vel_y'
p3
F0.64019694628090418
sS'vel_x'
p4
F-0.25294858982757445
sS'pos_x'
p5
F-16.750146482602773
sS'pos_y'
p6
F-14.234956116229164
sS'isAlive'
p7
I01
sS'geno'
p8
(lp9
F-0.59918089818479825
aF1.6792428090093283
aF0.96616965521487619
aF4.0471897791765219
aF-0.033362832445752666
asS'accel_x'
p10
F0
sS'accel_y'
p11
F0
sS'visionAngle'
p12
I130
sS'maxAccel'
p13
I2
sS'maxVel'
p14
F0.72999999999999998
sS'age'
p15
I0
sS'lastScale'
p16
F5.5
sS'maxSteering'
p17
I20
sS'energy'
p18
F0.5
sb.(i__main__
Data_mobile
p1
(dp2
S'vel_y'
p3
F-0.68872787202890307
sS'vel_x'
p4
F-0.20103049503941373
sS'pos_x'
p5
F-155.7287518238513
sS'pos_y'
p6
F-101.04281308245933
sS'isAlive'
p7
I01
sS'geno'
p8
(lp9
F-0.42905803185603419
aF2.3784144488384982
aF1.0228052984011962
aF4.8733373187519522
aF0.22310156723591523
asS'accel_x'
p10
F0
sS'accel_y'
p11
F0
sS'visionAngle'
p12
I130
sS'maxAccel'
p13
I2
sS'maxVel'
p14
F0.72999999999999998
sS'age'
p15
I0
sS'lastScale'
p16
F5.5
sS'maxSteering'
p17
I20
sS'energy'
p18
F0.5
sb.(i__main__
Data_mobile
p1
(dp2
S'vel_y'
p3
F-0.15928174694297628
sS'vel_x'
p4
F-0.69115138991426406
sS'pos_x'
p5
F42.463816663612818
sS'pos_y'
p6
F38.004527732698897
sS'isAlive'
p7
I01
sS'geno'
p8
(lp9
F-0.59918089818479825
aF1.9753393459420772
aF1.0326275428935199
aF4.0471897791765219
aF0.11012703800692636
asS'accel_x'
p10
F0
sS'accel_y'
p11
F0
sS'visionAngle'
p12
I130
sS'maxAccel'
p13
I2
sS'maxVel'
p14
F0.72999999999999998
sS'age'
p15
I0
sS'lastScale'
p16
F5.5
sS'maxSteering'
p17
I20
sS'energy'
p18
F0.5
sb.(i__main__
Data_mobile
p1
(dp2
S'vel_y'
p3
F-0.55130789003441583
sS'vel_x'
p4
F0.10692280057308948
sS'pos_x'
p5
F-154.29162812631623
sS'pos_y'
p6
F-92.587853564292416
sS'isAlive'
p7
I01
sS'geno'
p8
(lp9
F-1.8379802340199882
aF1.4355810211947317
aF1.7579883573854276
aF4.8733373187519522
aF-0.033362832445752666
asS'accel_x'
p10
F0
sS'accel_y'
p11
F0
sS'visionAngle'
p12
I130
sS'maxAccel'
p13
I2
sS'maxVel'
p14
F0.72999999999999998
sS'age'
p15
I0
sS'lastScale'
p16
F5.5
sS'maxSteering'
p17
I20
sS'energy'
p18
F0.5
sb.(i__main__
Data_mobile
p1
(dp2
S'vel_y'
p3
F-0.43398385738775441
sS'vel_x'
p4
F-0.58699064006749313
sS'pos_x'
p5
F-120.03344574673285
sS'pos_y'
p6
F-98.489182745643305
sS'isAlive'
p7
I01
sS'geno'
p8
(lp9
F-1.7188599528927422
aF1.8440644616752651
aF1.7579883573854276
aF3.9366553608030981
aF0.11012703800692636
asS'accel_x'
p10
F0
sS'accel_y'
p11
F0
sS'visionAngle'
p12
I130
sS'maxAccel'
p13
I2
sS'maxVel'
p14
F0.72999999999999998
sS'age'
p15
I0
sS'lastScale'
p16
F5.5
sS'maxSteering'
p17
I20
sS'energy'
p18
F0.5
sb.(i__main__
Data_mobile
p1
(dp2
S'vel_y'
p3
F-0.068873821047205186
sS'vel_x'
p4
F-0.71866569106727152
sS'pos_x'
p5
F0.63212812931262974
sS'pos_y'
p6
F3.5654659805921618
sS'isAlive'
p7
I01
sS'geno'
p8
(lp9
F-1.2815751797382786
aF1.8507508061384659
aF1.0326275428935199
aF4.8733373187519522
aF0.11012703800692636
asS'accel_x'
p10
F0
sS'accel_y'
p11
F0
sS'visionAngle'
p12
I130
sS'maxAccel'
p13
I2
sS'maxVel'
p14
F0.72999999999999998
sS'age'
p15
I0
sS'lastScale'
p16
F5.5
sS'maxSteering'
p17
I20
sS'energy'
p18
F0.5
sb.(i__main__
Data_mobile
p1
(dp2
S'vel_y'
p3
F-0.41212677573635825
sS'vel_x'
p4
F-0.59961741799641399
sS'pos_x'
p5
F72.165650337674293
sS'pos_y'
p6
F33.634705710667888
sS'isAlive'
p7
I01
sS'geno'
p8
(lp9
F-0.59918089818479825
aF1.4474154703074749
aF1.7579883573854276
aF4.1946300192512087
aF0.11012703800692636
asS'accel_x'
p10
F0
sS'accel_y'
p11
F0
sS'visionAngle'
p12
I130
sS'maxAccel'
p13
I2
sS'maxVel'
p14
F0.72999999999999998
sS'age'
p15
I0
sS'lastScale'
p16
F5.5
sS'maxSteering'
p17
I20
sS'energy'
p18
F0.5
sb.(i__main__
Data_mobile
p1
(dp2
S'vel_y'
p3
F-0.1536516780170076
sS'vel_x'
p4
F-0.69358686857197049
sS'pos_x'
p5
F39.822897013437824
sS'pos_y'
p6
F38.406227688459801
sS'isAlive'
p7
I01
sS'geno'
p8
(lp9
F-0.59918089818479825
aF1.6792428090093283
aF0.96616965521487619
aF4.0471897791765219
aF1.1869921445983265
asS'accel_x'
p10
F0
sS'accel_y'
p11
F0
sS'visionAngle'
p12
I130
sS'maxAccel'
p13
I2
sS'maxVel'
p14
F0.72999999999999998
sS'age'
p15
I0
sS'lastScale'
p16
F5.5
sS'maxSteering'
p17
I20
sS'energy'
p18
F0.5
sb.(i__main__
Data_mobile
p1
(dp2
S'vel_y'
p3
F-0.24824246815312537
sS'vel_x'
p4
F0.39105961738404732
sS'pos_x'
p5
F-156.17619753559299
sS'pos_y'
p6
F-93.644666986174471
sS'isAlive'
p7
I01
sS'geno'
p8
(lp9
F-0.42905803185603419
aF2.3784144488384982
aF1.1751450960891641
aF4.1946300192512087
aF-0.033362832445752666
asS'accel_x'
p10
F0
sS'accel_y'
p11
F0
sS'visionAngle'
p12
I130
sS'maxAccel'
p13
I2
sS'maxVel'
p14
F0.72999999999999998
sS'age'
p15
I0
sS'lastScale'
p16
F5.5
sS'maxSteering'
p17
I20
sS'energy'
p18
F0.5
sb.(i__main__
Data_mobile
p1
(dp2
S'vel_y'
p3
F-0.43398385738775436
sS'vel_x'
p4
F-0.58699064006749313
sS'pos_x'
p5
F-120.03344574673287
sS'pos_y'
p6
F-98.489182745643305
sS'isAlive'
p7
I01
sS'geno'
p8
(lp9
F-1.7188599528927422
aF1.4355810211947317
aF1.7579883573854276
aF4.1946300192512087
aF0.11012703800692636
asS'accel_x'
p10
F0
sS'accel_y'
p11
F0
sS'visionAngle'
p12
I130
sS'maxAccel'
p13
I2
sS'maxVel'
p14
F0.72999999999999998
sS'age'
p15
I0
sS'lastScale'
p16
F5.5
sS'maxSteering'
p17
I20
sS'energy'
p18
F0.5
sb.(i__main__
Data_mobile
p1
(dp2
S'vel_y'
p3
F-0.33721829513619345
sS'vel_x'
p4
F0.64743307517168791
sS'pos_x'
p5
F-94.752531320227874
sS'pos_y'
p6
F-87.021370698706065
sS'isAlive'
p7
I01
sS'geno'
p8
(lp9
F-0.59918089818479825
aF1.4474154703074749
aF1.7579883573854276
aF4.1946300192512087
aF1.1869921445983265
asS'accel_x'
p10
F0
sS'accel_y'
p11
F0
sS'visionAngle'
p12
I130
sS'maxAccel'
p13
I2
sS'maxVel'
p14
F0.72999999999999998
sS'age'
p15
I0
sS'lastScale'
p16
F5.5
sS'maxSteering'
p17
I20
sS'energy'
p18
F0.5
sb.(i__main__
Data_mobile
p1
(dp2
S'vel_y'
p3
F-0.28981270357198097
sS'vel_x'
p4
F-0.67000641552771645
sS'pos_x'
p5
F18.580340492002332
sS'pos_y'
p6
F-47.161918301022965
sS'isAlive'
p7
I01
sS'geno'
p8
(lp9
F-0.59918089818479825
aF1.3819005256676102
aF0.64169344990887645
aF4.0471897791765219
aF0.71747668375283102
asS'accel_x'
p10
F0
sS'accel_y'
p11
F0
sS'visionAngle'
p12
I130
sS'maxAccel'
p13
I2
sS'maxVel'
p14
F0.72999999999999998
sS'age'
p15
I0
sS'lastScale'
p16
F5.5
sS'maxSteering'
p17
I20
sS'energy'
p18
F0.5
sb.(i__main__
Data_mobile
p1
(dp2
S'vel_y'
p3
F0.59556556096300395
sS'vel_x'
p4
F0.30546793570032893
sS'pos_x'
p5
F149.84348394784166
sS'pos_y'
p6
F-27.912676327704183
sS'isAlive'
p7
I01
sS'geno'
p8
(lp9
F-0.59918089818479825
aF1.6792428090093283
aF1.0326275428935199
aF3.6907407061059954
aF1.1869921445983265
asS'accel_x'
p10
F0
sS'accel_y'
p11
F0
sS'visionAngle'
p12
I130
sS'maxAccel'
p13
I2
sS'maxVel'
p14
F0.72999999999999998
sS'age'
p15
I0
sS'lastScale'
p16
F5.5
sS'maxSteering'
p17
I20
sS'energy'
p18
F0.5
sb.(i__main__
Data_mobile
p1
(dp2
S'vel_y'
p3
F-0.14288567318566231
sS'vel_x'
p4
F-0.69288017636271149
sS'pos_x'
p5
F-161.94892622204907
sS'pos_y'
p6
F-100.13217368197519
sS'isAlive'
p7
I01
sS'geno'
p8
(lp9
F-0.21929064542081889
aF2.3784144488384982
aF1.7579883573854276
aF4.1946300192512087
aF0.11012703800692636
asS'accel_x'
p10
F0
sS'accel_y'
p11
F0
sS'visionAngle'
p12
I130
sS'maxAccel'
p13
I2
sS'maxVel'
p14
F0.72999999999999998
sS'age'
p15
I0
sS'lastScale'
p16
F5.5
sS'maxSteering'
p17
I20
sS'energy'
p18
F0.5
sb.(i__main__
Data_mobile
p1
(dp2
S'vel_y'
p3
F0.12496544723840669
sS'vel_x'
p4
F0.71922433009215225
sS'pos_x'
p5
F-5.6604537099949566
sS'pos_y'
p6
F-5.964782463333699
sS'isAlive'
p7
I01
sS'geno'
p8
(lp9
F-0.42905803185603419
aF2.3784144488384982
aF1.1751450960891641
aF4.8733373187519522
aF0.11012703800692636
asS'accel_x'
p10
F1.9348672298038418
sS'accel_y'
p11
F0.50624974373445986
sS'visionAngle'
p12
I130
sS'maxAccel'
p13
I2
sS'maxVel'
p14
F0.72999999999999998
sS'age'
p15
I50
sS'lastScale'
p16
F5.5
sS'maxSteering'
p17
I20
sS'energy'
p18
I0
sb.(i__main__
Data_mobile
p1
(dp2
S'vel_y'
p3
I0
sS'vel_x'
p4
I0
sS'pos_x'
p5
I-9579
sS'pos_y'
p6
I9779
sS'isAlive'
p7
I00
sS'geno'
p8
(lp9
F-1.5104030421512982
aF1.6792428090093283
aF0.84169786401646696
aF4.0471897791765219
aF0.11012703800692636
asS'accel_x'
p10
F0
sS'accel_y'
p11
F0
sS'visionAngle'
p12
I130
sS'maxAccel'
p13
I2
sS'maxVel'
p14
F0.72999999999999998
sS'age'
p15
I0
sS'lastScale'
p16
F5.5
sS'maxSteering'
p17
I20
sS'energy'
p18
F0.5
sb.(i__main__
Data_mobile
p1
(dp2
S'vel_y'
p3
I0
sS'vel_x'
p4
I0
sS'pos_x'
p5
I-9579
sS'pos_y'
p6
I9779
sS'isAlive'
p7
I00
sS'geno'
p8
(lp9
F-0.42905803185603419
aF1.6792428090093283
aF0.96616965521487619
aF4.0471897791765219
aF1.1869921445983265
asS'accel_x'
p10
F0
sS'accel_y'
p11
F0
sS'visionAngle'
p12
I130
sS'maxAccel'
p13
I2
sS'maxVel'
p14
F0.72999999999999998
sS'age'
p15
I0
sS'lastScale'
p16
F5.5
sS'maxSteering'
p17
I20
sS'energy'
p18
F0.5
sb.(i__main__
Data_mobile
p1
(dp2
S'vel_y'
p3
I0
sS'vel_x'
p4
I0
sS'pos_x'
p5
I-9579
sS'pos_y'
p6
I9779
sS'isAlive'
p7
I00
sS'geno'
p8
(lp9
F-0.59918089818479825
aF1.6792428090093283
aF1.0326275428935199
aF4.4316703607951782
aF-0.033362832445752666
asS'accel_x'
p10
F0
sS'accel_y'
p11
F0
sS'visionAngle'
p12
I130
sS'maxAccel'
p13
I2
sS'maxVel'
p14
F0.72999999999999998
sS'age'
p15
I0
sS'lastScale'
p16
F5.5
sS'maxSteering'
p17
I20
sS'energy'
p18
F0.5
sb.(i__main__
Data_mobile
p1
(dp2
S'vel_y'
p3
I0
sS'vel_x'
p4
I0
sS'pos_x'
p5
I-9579
sS'pos_y'
p6
I9779
sS'isAlive'
p7
I00
sS'geno'
p8
(lp9
F-1.7188599528927422
aF2.3784144488384982
aF0.87247811312935708
aF4.9677827584172443
aF1.1869921445983265
asS'accel_x'
p10
F0
sS'accel_y'
p11
F0
sS'visionAngle'
p12
I130
sS'maxAccel'
p13
I2
sS'maxVel'
p14
F0.72999999999999998
sS'age'
p15
I0
sS'lastScale'
p16
F5.5
sS'maxSteering'
p17
I20
sS'energy'
p18
F0.5
sb.(i__main__
Data_mobile
p1
(dp2
S'vel_y'
p3
I0
sS'vel_x'
p4
I0
sS'pos_x'
p5
I-9579
sS'pos_y'
p6
I9779
sS'isAlive'
p7
I00
sS'geno'
p8
(lp9
F-0.59918089818479825
aF1.4474154703074749
aF1.7899286679126825
aF4.2766472878645381
aF0.74019228899972211
asS'accel_x'
p10
F0
sS'accel_y'
p11
F0
sS'visionAngle'
p12
I130
sS'maxAccel'
p13
I2
sS'maxVel'
p14
F0.72999999999999998
sS'age'
p15
I0
sS'lastScale'
p16
F5.5
sS'maxSteering'
p17
I20
sS'energy'
p18
F0.5
sb.(i__main__
Data_mobile
p1
(dp2
S'vel_y'
p3
I0
sS'vel_x'
p4
I0
sS'pos_x'
p5
I-9579
sS'pos_y'
p6
I9779
sS'isAlive'
p7
I00
sS'geno'
p8
(lp9
F-0.18283248850082123
aF1.9360919308236906
aF1.4560639752233993
aF4.4116340891698238
aF0.74019228899972211
asS'accel_x'
p10
F0
sS'accel_y'
p11
F0
sS'visionAngle'
p12
I130
sS'maxAccel'
p13
I2
sS'maxVel'
p14
F0.72999999999999998
sS'age'
p15
I0
sS'lastScale'
p16
F5.5
sS'maxSteering'
p17
I20
sS'energy'
p18
F0.5
sb.(i__main__
Data_mobile
p1
(dp2
S'vel_y'
p3
I0
sS'vel_x'
p4
I0
sS'pos_x'
p5
I-9579
sS'pos_y'
p6
I9779
sS'isAlive'
p7
I00
sS'geno'
p8
(lp9
F-1.8379802340199882
aF1.0384212636831784
aF1.4560639752233993
aF4.2766472878645381
aF0.74019228899972211
asS'accel_x'
p10
F0
sS'accel_y'
p11
F0
sS'visionAngle'
p12
I130
sS'maxAccel'
p13
I2
sS'maxVel'
p14
F0.72999999999999998
sS'age'
p15
I0
sS'lastScale'
p16
F5.5
sS'maxSteering'
p17
I20
sS'energy'
p18
F0.5
sb.(i__main__
Data_mobile
p1
(dp2
S'vel_y'
p3
I0
sS'vel_x'
p4
I0
sS'pos_x'
p5
I-9579
sS'pos_y'
p6
I9779
sS'isAlive'
p7
I00
sS'geno'
p8
(lp9
F-0.78953847574253844
aF1.9753393459420772
aF1.0326275428935199
aF4.2012071718946205
aF0.11012703800692636
asS'accel_x'
p10
F0
sS'accel_y'
p11
F0
sS'visionAngle'
p12
I130
sS'maxAccel'
p13
I2
sS'maxVel'
p14
F0.72999999999999998
sS'age'
p15
I0
sS'lastScale'
p16
F5.5
sS'maxSteering'
p17
I20
sS'energy'
p18
F0.5
sb.(i__main__
Data_mobile
p1
(dp2
S'vel_y'
p3
I0
sS'vel_x'
p4
I0
sS'pos_x'
p5
I-9579
sS'pos_y'
p6
I9779
sS'isAlive'
p7
I00
sS'geno'
p8
(lp9
F-1.5104030421512982
aF1.6792428090093283
aF0.84169786401646696
aF4.0471897791765219
aF1.4343655577730963
asS'accel_x'
p10
F0
sS'accel_y'
p11
F0
sS'visionAngle'
p12
I130
sS'maxAccel'
p13
I2
sS'maxVel'
p14
F0.72999999999999998
sS'age'
p15
I0
sS'lastScale'
p16
F5.5
sS'maxSteering'
p17
I20
sS'energy'
p18
F0.5
sb.(i__main__
Data_mobile
p1
(dp2
S'vel_y'
p3
I0
sS'vel_x'
p4
I0
sS'pos_x'
p5
I-9579
sS'pos_y'
p6
I9779
sS'isAlive'
p7
I00
sS'geno'
p8
(lp9
F-0.59918089818479825
aF1.6792428090093283
aF0.84169786401646696
aF4.0471897791765219
aF1.1869921445983265
asS'accel_x'
p10
F0
sS'accel_y'
p11
F0
sS'visionAngle'
p12
I130
sS'maxAccel'
p13
I2
sS'maxVel'
p14
F0.72999999999999998
sS'age'
p15
I0
sS'lastScale'
p16
F5.5
sS'maxSteering'
p17
I20
sS'energy'
p18
F0.5
sb.(i__main__
Data_mobile
p1
(dp2
S'vel_y'
p3
I0
sS'vel_x'
p4
I0
sS'pos_x'
p5
I-9579
sS'pos_y'
p6
I9779
sS'isAlive'
p7
I00
sS'geno'
p8
(lp9
F0.03706735032864128
aF2.3784144488384982
aF1.1751450960891641
aF4.8733373187519522
aF-0.033362832445752666
asS'accel_x'
p10
F0
sS'accel_y'
p11
F0
sS'visionAngle'
p12
I130
sS'maxAccel'
p13
I2
sS'maxVel'
p14
F0.72999999999999998
sS'age'
p15
I0
sS'lastScale'
p16
F5.5
sS'maxSteering'
p17
I20
sS'energy'
p18
F0.5
sb.(i__main__
Data_mobile
p1
(dp2
S'vel_y'
p3
I0
sS'vel_x'
p4
I0
sS'pos_x'
p5
I-9579
sS'pos_y'
p6
I9779
sS'isAlive'
p7
I00
sS'geno'
p8
(lp9
F-0.10013649234368704
aF1.4355810211947317
aF1.7579883573854276
aF4.1946300192512087
aF0.11012703800692636
asS'accel_x'
p10
F0
sS'accel_y'
p11
F0
sS'visionAngle'
p12
I130
sS'maxAccel'
p13
I2
sS'maxVel'
p14
F0.72999999999999998
sS'age'
p15
I0
sS'lastScale'
p16
F5.5
sS'maxSteering'
p17
I20
sS'energy'
p18
F0.5
sb.(i__main__
Data_mobile
p1
(dp2
S'vel_y'
p3
I0
sS'vel_x'
p4
I0
sS'pos_x'
p5
I-9579
sS'pos_y'
p6
I9779
sS'isAlive'
p7
I00
sS'geno'
p8
(lp9
F-0.10013649234368704
aF2.3784144488384982
aF0.83205864149765019
aF4.0471897791765219
aF0.25023044246433501
asS'accel_x'
p10
F0
sS'accel_y'
p11
F0
sS'visionAngle'
p12
I130
sS'maxAccel'
p13
I2
sS'maxVel'
p14
F0.72999999999999998
sS'age'
p15
I0
sS'lastScale'
p16
F5.5
sS'maxSteering'
p17
I20
sS'energy'
p18
F0.5
sb.(i__main__
Data_mobile
p1
(dp2
S'vel_y'
p3
I0
sS'vel_x'
p4
I0
sS'pos_x'
p5
I-9579
sS'pos_y'
p6
I9779
sS'isAlive'
p7
I00
sS'geno'
p8
(lp9
F-1.0212454814464933
aF1.6792428090093283
aF1.0326275428935199
aF4.4555877687073302
aF1.1869921445983265
asS'accel_x'
p10
F0
sS'accel_y'
p11
F0
sS'visionAngle'
p12
I130
sS'maxAccel'
p13
I2
sS'maxVel'
p14
F0.72999999999999998
sS'age'
p15
I0
sS'lastScale'
p16
F5.5
sS'maxSteering'
p17
I20
sS'energy'
p18
F0.5
sb.(i__main__
Data_mobile
p1
(dp2
S'vel_y'
p3
I0
sS'vel_x'
p4
I0
sS'pos_x'
p5
I-9579
sS'pos_y'
p6
I9779
sS'isAlive'
p7
I00
sS'geno'
p8
(lp9
F-1.9199993217736937
aF2.0839211796599337
aF1.1751450960891641
aF4.8733373187519522
aF1.1869921445983265
asS'accel_x'
p10
F0
sS'accel_y'
p11
F0
sS'visionAngle'
p12
I130
sS'maxAccel'
p13
I2
sS'maxVel'
p14
F0.72999999999999998
sS'age'
p15
I0
sS'lastScale'
p16
F5.5
sS'maxSteering'
p17
I20
sS'energy'
p18
F0.5
sb.(i__main__
Data_mobile
p1
(dp2
S'vel_y'
p3
I0
sS'vel_x'
p4
I0
sS'pos_x'
p5
I-9579
sS'pos_y'
p6
I9779
sS'isAlive'
p7
I00
sS'geno'
p8
(lp9
F-0.59918089818479825
aF1.6792428090093283
aF0.85250484691196937
aF4.8733373187519522
aF1.1869921445983265
asS'accel_x'
p10
F0
sS'accel_y'
p11
F0
sS'visionAngle'
p12
I130
sS'maxAccel'
p13
I2
sS'maxVel'
p14
F0.72999999999999998
sS'age'
p15
I0
sS'lastScale'
p16
F5.5
sS'maxSteering'
p17
I20
sS'energy'
p18
F0.5
sb.(i__main__
Data_mobile
p1
(dp2
S'vel_y'
p3
I0
sS'vel_x'
p4
I0
sS'pos_x'
p5
I-9579
sS'pos_y'
p6
I9779
sS'isAlive'
p7
I00
sS'geno'
p8
(lp9
F-1.8379802340199882
aF1.4355810211947317
aF0.84169786401646696
aF4.0471897791765219
aF1.1869921445983265
asS'accel_x'
p10
F0
sS'accel_y'
p11
F0
sS'visionAngle'
p12
I130
sS'maxAccel'
p13
I2
sS'maxVel'
p14
F0.72999999999999998
sS'age'
p15
I0
sS'lastScale'
p16
F5.5
sS'maxSteering'
p17
I20
sS'energy'
p18
F0.5
sb.(i__main__
Data_mobile
p1
(dp2
S'vel_y'
p3
I0
sS'vel_x'
p4
I0
sS'pos_x'
p5
I-9579
sS'pos_y'
p6
I9779
sS'isAlive'
p7
I00
sS'geno'
p8
(lp9
F-0.10013649234368704
aF2.3784144488384982
aF1.1751450960891641
aF4.8733373187519522
aF1.1869921445983265
asS'accel_x'
p10
F0
sS'accel_y'
p11
F0
sS'visionAngle'
p12
I130
sS'maxAccel'
p13
I2
sS'maxVel'
p14
F0.72999999999999998
sS'age'
p15
I0
sS'lastScale'
p16
F5.5
sS'maxSteering'
p17
I20
sS'energy'
p18
F0.5
sb.(i__main__
Data_mobile
p1
(dp2
S'vel_y'
p3
I0
sS'vel_x'
p4
I0
sS'pos_x'
p5
I-9579
sS'pos_y'
p6
I9779
sS'isAlive'
p7
I00
sS'geno'
p8
(lp9
F-0.10013649234368704
aF2.3784144488384982
aF1.1751450960891641
aF4.8733373187519522
aF1.1869921445983265
asS'accel_x'
p10
F0
sS'accel_y'
p11
F0
sS'visionAngle'
p12
I130
sS'maxAccel'
p13
I2
sS'maxVel'
p14
F0.72999999999999998
sS'age'
p15
I0
sS'lastScale'
p16
F5.5
sS'maxSteering'
p17
I20
sS'energy'
p18
F0.5
sb.(i__main__
Data_mobile
p1
(dp2
S'vel_y'
p3
I0
sS'vel_x'
p4
I0
sS'pos_x'
p5
I-9579
sS'pos_y'
p6
I9779
sS'isAlive'
p7
I00
sS'geno'
p8
(lp9
F-0.59918089818479825
aF1.6792428090093283
aF0.96616965521487619
aF4.0471897791765219
aF0.11012703800692636
asS'accel_x'
p10
F0
sS'accel_y'
p11
F0
sS'visionAngle'
p12
I130
sS'maxAccel'
p13
I2
sS'maxVel'
p14
F0.72999999999999998
sS'age'
p15
I0
sS'lastScale'
p16
F5.5
sS'maxSteering'
p17
I20
sS'energy'
p18
F0.5
sb.(i__main__
Data_mobile
p1
(dp2
S'vel_y'
p3
I0
sS'vel_x'
p4
I0
sS'pos_x'
p5
I-9579
sS'pos_y'
p6
I9779
sS'isAlive'
p7
I00
sS'geno'
p8
(lp9
F-0.59918089818479825
aF1.6792428090093283
aF1.1751450960891641
aF4.8733373187519522
aF-0.033362832445752666
asS'accel_x'
p10
F0
sS'accel_y'
p11
F0
sS'visionAngle'
p12
I130
sS'maxAccel'
p13
I2
sS'maxVel'
p14
F0.72999999999999998
sS'age'
p15
I0
sS'lastScale'
p16
F5.5
sS'maxSteering'
p17
I20
sS'energy'
p18
F0.5
sb.(i__main__
Data_mobile
p1
(dp2
S'vel_y'
p3
I0
sS'vel_x'
p4
I0
sS'pos_x'
p5
I-9579
sS'pos_y'
p6
I9779
sS'isAlive'
p7
I00
sS'geno'
p8
(lp9
F-1.6358893293182488
aF1.2547553277829908
aF1.7579883573854276
aF4.2766472878645381
aF-0.033362832445752666
asS'accel_x'
p10
F0
sS'accel_y'
p11
F0
sS'visionAngle'
p12
I130
sS'maxAccel'
p13
I2
sS'maxVel'
p14
F0.72999999999999998
sS'age'
p15
I0
sS'lastScale'
p16
F5.5
sS'maxSteering'
p17
I20
sS'energy'
p18
F0.5
sb.(i__main__
Data_mobile
p1
(dp2
S'vel_y'
p3
I0
sS'vel_x'
p4
I0
sS'pos_x'
p5
I-9579
sS'pos_y'
p6
I9779
sS'isAlive'
p7
I00
sS'geno'
p8
(lp9
F-0.59918089818479825
aF1.6792428090093283
aF0.96616965521487619
aF4.0471897791765219
aF0.11012703800692636
asS'accel_x'
p10
F0
sS'accel_y'
p11
F0
sS'visionAngle'
p12
I130
sS'maxAccel'
p13
I2
sS'maxVel'
p14
F0.72999999999999998
sS'age'
p15
I0
sS'lastScale'
p16
F5.5
sS'maxSteering'
p17
I20
sS'energy'
p18
F0.5
sb.(i__main__
Data_mobile
p1
(dp2
S'vel_y'
p3
I0
sS'vel_x'
p4
I0
sS'pos_x'
p5
I-9579
sS'pos_y'
p6
I9779
sS'isAlive'
p7
I00
sS'geno'
p8
(lp9
F-0.59918089818479825
aF1.4474154703074749
aF1.4560639752233993
aF4.2766472878645381
aF0.11012703800692636
asS'accel_x'
p10
F0
sS'accel_y'
p11
F0
sS'visionAngle'
p12
I130
sS'maxAccel'
p13
I2
sS'maxVel'
p14
F0.72999999999999998
sS'age'
p15
I0
sS'lastScale'
p16
F5.5
sS'maxSteering'
p17
I20
sS'energy'
p18
F0.5
sb.(i__main__
Data_mobile
p1
(dp2
S'vel_y'
p3
I0
sS'vel_x'
p4
I0
sS'pos_x'
p5
I-9579
sS'pos_y'
p6
I9779
sS'isAlive'
p7
I00
sS'geno'
p8
(lp9
F-0.80917370201224303
aF1.6792428090093283
aF0.96616965521487619
aF4.0471897791765219
aF0.11012703800692636
asS'accel_x'
p10
F0
sS'accel_y'
p11
F0
sS'visionAngle'
p12
I130
sS'maxAccel'
p13
I2
sS'maxVel'
p14
F0.72999999999999998
sS'age'
p15
I0
sS'lastScale'
p16
F5.5
sS'maxSteering'
p17
I20
sS'energy'
p18
F0.5
sb.(i__main__
Data_mobile
p1
(dp2
S'vel_y'
p3
I0
sS'vel_x'
p4
I0
sS'pos_x'
p5
I-9579
sS'pos_y'
p6
I9779
sS'isAlive'
p7
I00
sS'geno'
p8
(lp9
F-0.10013649234368704
aF2.3784144488384982
aF1.1751450960891641
aF4.8733373187519522
aF1.1869921445983265
asS'accel_x'
p10
F0
sS'accel_y'
p11
F0
sS'visionAngle'
p12
I130
sS'maxAccel'
p13
I2
sS'maxVel'
p14
F0.72999999999999998
sS'age'
p15
I0
sS'lastScale'
p16
F5.5
sS'maxSteering'
p17
I20
sS'energy'
p18
F0.5
sb.(i__main__
Data_mobile
p1
(dp2
S'vel_y'
p3
I0
sS'vel_x'
p4
I0
sS'pos_x'
p5
I-9579
sS'pos_y'
p6
I9779
sS'isAlive'
p7
I00
sS'geno'
p8
(lp9
F-0.51075710457668033
aF1.6792428090093283
aF1.0326275428935199
aF4.0471897791765219
aF1.1869921445983265
asS'accel_x'
p10
F0
sS'accel_y'
p11
F0
sS'visionAngle'
p12
I130
sS'maxAccel'
p13
I2
sS'maxVel'
p14
F0.72999999999999998
sS'age'
p15
I0
sS'lastScale'
p16
F5.5
sS'maxSteering'
p17
I20
sS'energy'
p18
F0.5
sb.(i__main__
Data_mobile
p1
(dp2
S'vel_y'
p3
I0
sS'vel_x'
p4
I0
sS'pos_x'
p5
I-9579
sS'pos_y'
p6
I9779
sS'isAlive'
p7
I00
sS'geno'
p8
(lp9
F-1.8379802340199882
aF1.4355810211947317
aF1.7579883573854276
aF4.1946300192512087
aF0.11012703800692636
asS'accel_x'
p10
F0
sS'accel_y'
p11
F0
sS'visionAngle'
p12
I130
sS'maxAccel'
p13
I2
sS'maxVel'
p14
F0.72999999999999998
sS'age'
p15
I0
sS'lastScale'
p16
F5.5
sS'maxSteering'
p17
I20
sS'energy'
p18
F0.5
sb.(i__main__
Data_mobile
p1
(dp2
S'vel_y'
p3
I0
sS'vel_x'
p4
I0
sS'pos_x'
p5
I-9579
sS'pos_y'
p6
I9779
sS'isAlive'
p7
I00
sS'geno'
p8
(lp9
F-0.59918089818479825
aF1.6792428090093283
aF0.84169786401646696
aF4.0471897791765219
aF1.1869921445983265
asS'accel_x'
p10
F0
sS'accel_y'
p11
F0
sS'visionAngle'
p12
I130
sS'maxAccel'
p13
I2
sS'maxVel'
p14
F0.72999999999999998
sS'age'
p15
I0
sS'lastScale'
p16
F5.5
sS'maxSteering'
p17
I20
sS'energy'
p18
F0.5
sb.(i__main__
Data_mobile
p1
(dp2
S'vel_y'
p3
I0
sS'vel_x'
p4
I0
sS'pos_x'
p5
I-9579
sS'pos_y'
p6
I9779
sS'isAlive'
p7
I00
sS'geno'
p8
(lp9
F-0.42905803185603419
aF1.6792428090093283
aF0.96616965521487619
aF4.0471897791765219
aF0.11012703800692636
asS'accel_x'
p10
F0
sS'accel_y'
p11
F0
sS'visionAngle'
p12
I130
sS'maxAccel'
p13
I2
sS'maxVel'
p14
F0.72999999999999998
sS'age'
p15
I0
sS'lastScale'
p16
F5.5
sS'maxSteering'
p17
I20
sS'energy'
p18
F0.5
sb.(i__main__
Data_mobile
p1
(dp2
S'vel_y'
p3
I0
sS'vel_x'
p4
I0
sS'pos_x'
p5
I-9579
sS'pos_y'
p6
I9779
sS'isAlive'
p7
I00
sS'geno'
p8
(lp9
F-0.59918089818479825
aF2.3784144488384982
aF1.1751450960891641
aF4.8733373187519522
aF-0.033362832445752666
asS'accel_x'
p10
F0
sS'accel_y'
p11
F0
sS'visionAngle'
p12
I130
sS'maxAccel'
p13
I2
sS'maxVel'
p14
F0.72999999999999998
sS'age'
p15
I0
sS'lastScale'
p16
F5.5
sS'maxSteering'
p17
I20
sS'energy'
p18
F0.5
sb.(i__main__
Data_mobile
p1
(dp2
S'vel_y'
p3
I0
sS'vel_x'
p4
I0
sS'pos_x'
p5
I-9579
sS'pos_y'
p6
I9779
sS'isAlive'
p7
I00
sS'geno'
p8
(lp9
F-1.6358893293182488
aF1.4474154703074749
aF1.7579883573854276
aF4.2766472878645381
aF-0.033362832445752666
asS'accel_x'
p10
F0
sS'accel_y'
p11
F0
sS'visionAngle'
p12
I130
sS'maxAccel'
p13
I2
sS'maxVel'
p14
F0.72999999999999998
sS'age'
p15
I0
sS'lastScale'
p16
F5.5
sS'maxSteering'
p17
I20
sS'energy'
p18
F0.5
sb.(i__main__
Data_mobile
p1
(dp2
S'vel_y'
p3
I0
sS'vel_x'
p4
I0
sS'pos_x'
p5
I-9579
sS'pos_y'
p6
I9779
sS'isAlive'
p7
I00
sS'geno'
p8
(lp9
F-0.59918089818479825
aF1.6792428090093283
aF0.96616965521487619
aF4.0471897791765219
aF0.11012703800692636
asS'accel_x'
p10
F0
sS'accel_y'
p11
F0
sS'visionAngle'
p12
I130
sS'maxAccel'
p13
I2
sS'maxVel'
p14
F0.72999999999999998
sS'age'
p15
I0
sS'lastScale'
p16
F5.5
sS'maxSteering'
p17
I20
sS'energy'
p18
F0.5
sb.(i__main__
Data_mobile
p1
(dp2
S'vel_y'
p3
I0
sS'vel_x'
p4
I0
sS'pos_x'
p5
I-9579
sS'pos_y'
p6
I9779
sS'isAlive'
p7
I00
sS'geno'
p8
(lp9
F-0.59918089818479825
aF1.6792428090093283
aF0.64169344990887645
aF4.0471897791765219
aF0.74019228899972211
asS'accel_x'
p10
F0
sS'accel_y'
p11
F0
sS'visionAngle'
p12
I130
sS'maxAccel'
p13
I2
sS'maxVel'
p14
F0.72999999999999998
sS'age'
p15
I0
sS'lastScale'
p16
F5.5
sS'maxSteering'
p17
I20
sS'energy'
p18
F0.5
sb.(i__main__
Data_mobile
p1
(dp2
S'vel_y'
p3
I0
sS'vel_x'
p4
I0
sS'pos_x'
p5
I-9579
sS'pos_y'
p6
I9779
sS'isAlive'
p7
I00
sS'geno'
p8
(lp9
F-0.59918089818479825
aF1.6792428090093283
aF0.84169786401646696
aF4.0471897791765219
aF-0.033362832445752666
asS'accel_x'
p10
F0
sS'accel_y'
p11
F0
sS'visionAngle'
p12
I130
sS'maxAccel'
p13
I2
sS'maxVel'
p14
F0.72999999999999998
sS'age'
p15
I0
sS'lastScale'
p16
F5.5
sS'maxSteering'
p17
I20
sS'energy'
p18
F0.5
sb.(i__main__
Data_mobile
p1
(dp2
S'vel_y'
p3
I0
sS'vel_x'
p4
I0
sS'pos_x'
p5
I-9579
sS'pos_y'
p6
I9779
sS'isAlive'
p7
I00
sS'geno'
p8
(lp9
F-0.84193744130741044
aF2.3784144488384982
aF0.84169786401646696
aF4.0471897791765219
aF-0.033362832445752666
asS'accel_x'
p10
F0
sS'accel_y'
p11
F0
sS'visionAngle'
p12
I130
sS'maxAccel'
p13
I2
sS'maxVel'
p14
F0.72999999999999998
sS'age'
p15
I0
sS'lastScale'
p16
F5.5
sS'maxSteering'
p17
I20
sS'energy'
p18
F0.5
sb.(i__main__
Data_mobile
p1
(dp2
S'vel_y'
p3
I0
sS'vel_x'
p4
I0
sS'pos_x'
p5
I-9579
sS'pos_y'
p6
I9779
sS'isAlive'
p7
I00
sS'geno'
p8
(lp9
F-0.23626770713053125
aF1.4355810211947317
aF1.7579883573854276
aF4.1946300192512087
aF0.11012703800692636
asS'accel_x'
p10
F0
sS'accel_y'
p11
F0
sS'visionAngle'
p12
I130
sS'maxAccel'
p13
I2
sS'maxVel'
p14
F0.72999999999999998
sS'age'
p15
I0
sS'lastScale'
p16
F5.5
sS'maxSteering'
p17
I20
sS'energy'
p18
F0.5
sb.(i__main__
Data_mobile
p1
(dp2
S'vel_y'
p3
I0
sS'vel_x'
p4
I0
sS'pos_x'
p5
I-9579
sS'pos_y'
p6
I9779
sS'isAlive'
p7
I00
sS'geno'
p8
(lp9
F-1.8526077508815821
aF1.4474154703074749
aF1.4560639752233993
aF4.2766472878645381
aF0.11012703800692636
asS'accel_x'
p10
F0
sS'accel_y'
p11
F0
sS'visionAngle'
p12
I130
sS'maxAccel'
p13
I2
sS'maxVel'
p14
F0.72999999999999998
sS'age'
p15
I0
sS'lastScale'
p16
F5.5
sS'maxSteering'
p17
I20
sS'energy'
p18
F0.5
sb.(i__main__
Data_mobile
p1
(dp2
S'vel_y'
p3
I0
sS'vel_x'
p4
I0
sS'pos_x'
p5
I-9579
sS'pos_y'
p6
I9779
sS'isAlive'
p7
I00
sS'geno'
p8
(lp9
F-0.42905803185603419
aF2.3784144488384982
aF1.1751450960891641
aF4.8733373187519522
aF1.1869921445983265
asS'accel_x'
p10
F0
sS'accel_y'
p11
F0
sS'visionAngle'
p12
I130
sS'maxAccel'
p13
I2
sS'maxVel'
p14
F0.72999999999999998
sS'age'
p15
I0
sS'lastScale'
p16
F5.5
sS'maxSteering'
p17
I20
sS'energy'
p18
F0.5
sb.(i__main__
Data_mobile
p1
(dp2
S'vel_y'
p3
I0
sS'vel_x'
p4
I0
sS'pos_x'
p5
I-9579
sS'pos_y'
p6
I9779
sS'isAlive'
p7
I00
sS'geno'
p8
(lp9
F-1.5104030421512982
aF1.6792428090093283
aF0.84169786401646696
aF4.1946300192512087
aF0.11012703800692636
asS'accel_x'
p10
F0
sS'accel_y'
p11
F0
sS'visionAngle'
p12
I130
sS'maxAccel'
p13
I2
sS'maxVel'
p14
F0.72999999999999998
sS'age'
p15
I0
sS'lastScale'
p16
F5.5
sS'maxSteering'
p17
I20
sS'energy'
p18
F0.5
sb.(i__main__
Data_mobile
p1
(dp2
S'vel_y'
p3
I0
sS'vel_x'
p4
I0
sS'pos_x'
p5
I-9579
sS'pos_y'
p6
I9779
sS'isAlive'
p7
I00
sS'geno'
p8
(lp9
F-1.8379802340199882
aF1.4355810211947317
aF1.7579883573854276
aF4.0471897791765219
aF1.1869921445983265
asS'accel_x'
p10
F0
sS'accel_y'
p11
F0
sS'visionAngle'
p12
I130
sS'maxAccel'
p13
I2
sS'maxVel'
p14
F0.72999999999999998
sS'age'
p15
I0
sS'lastScale'
p16
F5.5
sS'maxSteering'
p17
I20
sS'energy'
p18
F0.5
sb.(i__main__
Data_mobile
p1
(dp2
S'vel_y'
p3
I0
sS'vel_x'
p4
I0
sS'pos_x'
p5
I-9579
sS'pos_y'
p6
I9779
sS'isAlive'
p7
I00
sS'geno'
p8
(lp9
F-1.8526009532952212
aF2.0516056671206133
aF1.2836145267545296
aF4.0471897791765219
aF0.74019228899972211
asS'accel_x'
p10
F0
sS'accel_y'
p11
F0
sS'visionAngle'
p12
I130
sS'maxAccel'
p13
I2
sS'maxVel'
p14
F0.72999999999999998
sS'age'
p15
I0
sS'lastScale'
p16
F5.5
sS'maxSteering'
p17
I20
sS'energy'
p18
F0.5
sb.(i__main__
Data_mobile
p1
(dp2
S'vel_y'
p3
I0
sS'vel_x'
p4
I0
sS'pos_x'
p5
I-9579
sS'pos_y'
p6
I9779
sS'isAlive'
p7
I00
sS'geno'
p8
(lp9
F-1.5104030421512982
aF1.6792428090093283
aF0.84169786401646696
aF3.5503630958732191
aF1.1869921445983265
asS'accel_x'
p10
F0
sS'accel_y'
p11
F0
sS'visionAngle'
p12
I130
sS'maxAccel'
p13
I2
sS'maxVel'
p14
F0.72999999999999998
sS'age'
p15
I0
sS'lastScale'
p16
F5.5
sS'maxSteering'
p17
I20
sS'energy'
p18
F0.5
sb.(i__main__
Data_mobile
p1
(dp2
S'vel_y'
p3
I0
sS'vel_x'
p4
I0
sS'pos_x'
p5
I-9579
sS'pos_y'
p6
I9779
sS'isAlive'
p7
I00
sS'geno'
p8
(lp9
F-1.8379802340199882
aF1.4355810211947317
aF1.7579883573854276
aF4.1946300192512087
aF0.11012703800692636
asS'accel_x'
p10
F0
sS'accel_y'
p11
F0
sS'visionAngle'
p12
I130
sS'maxAccel'
p13
I2
sS'maxVel'
p14
F0.72999999999999998
sS'age'
p15
I0
sS'lastScale'
p16
F5.5
sS'maxSteering'
p17
I20
sS'energy'
p18
F0.5
sb.(i__main__
Data_mobile
p1
(dp2
S'vel_y'
p3
I0
sS'vel_x'
p4
I0
sS'pos_x'
p5
I-9579
sS'pos_y'
p6
I9779
sS'isAlive'
p7
I00
sS'geno'
p8
(lp9
F-0.59918089818479825
aF1.6792428090093283
aF0.84169786401646696
aF4.0471897791765219
aF1.1869921445983265
asS'accel_x'
p10
F0
sS'accel_y'
p11
F0
sS'visionAngle'
p12
I130
sS'maxAccel'
p13
I2
sS'maxVel'
p14
F0.72999999999999998
sS'age'
p15
I0
sS'lastScale'
p16
F5.5
sS'maxSteering'
p17
I20
sS'energy'
p18
F0.5
sb.(i__main__
Data_mobile
p1
(dp2
S'vel_y'
p3
I0
sS'vel_x'
p4
I0
sS'pos_x'
p5
I-9579
sS'pos_y'
p6
I9779
sS'isAlive'
p7
I00
sS'geno'
p8
(lp9
F-0.59918089818479825
aF2.3504132104738189
aF1.0326275428935199
aF3.8945342809630223
aF1.1869921445983265
asS'accel_x'
p10
F0
sS'accel_y'
p11
F0
sS'visionAngle'
p12
I130
sS'maxAccel'
p13
I2
sS'maxVel'
p14
F0.72999999999999998
sS'age'
p15
I0
sS'lastScale'
p16
F5.5
sS'maxSteering'
p17
I20
sS'energy'
p18
F0.5
sb.(i__main__
Data_mobile
p1
(dp2
S'vel_y'
p3
I0
sS'vel_x'
p4
I0
sS'pos_x'
p5
I-9579
sS'pos_y'
p6
I9779
sS'isAlive'
p7
I00
sS'geno'
p8
(lp9
F-0.59918089818479825
aF1.4474154703074749
aF1.4560639752233993
aF4.2766472878645381
aF0.74019228899972211
asS'accel_x'
p10
F0
sS'accel_y'
p11
F0
sS'visionAngle'
p12
I130
sS'maxAccel'
p13
I2
sS'maxVel'
p14
F0.72999999999999998
sS'age'
p15
I0
sS'lastScale'
p16
F5.5
sS'maxSteering'
p17
I20
sS'energy'
p18
F0.5
sb.(i__main__
Data_mobile
p1
(dp2
S'vel_y'
p3
I0
sS'vel_x'
p4
I0
sS'pos_x'
p5
I-9579
sS'pos_y'
p6
I9779
sS'isAlive'
p7
I00
sS'geno'
p8
(lp9
F-0.59918089818479825
aF1.6792428090093283
aF1.0326275428935199
aF4.0471897791765219
aF1.5146804711358184
asS'accel_x'
p10
F0
sS'accel_y'
p11
F0
sS'visionAngle'
p12
I130
sS'maxAccel'
p13
I2
sS'maxVel'
p14
F0.72999999999999998
sS'age'
p15
I0
sS'lastScale'
p16
F5.5
sS'maxSteering'
p17
I20
sS'energy'
p18
F0.5
sb.(i__main__
Data_mobile
p1
(dp2
S'vel_y'
p3
I0
sS'vel_x'
p4
I0
sS'pos_x'
p5
I-9579
sS'pos_y'
p6
I9779
sS'isAlive'
p7
I00
sS'geno'
p8
(lp9
F-0.42905803185603419
aF2.3784144488384982
aF1.1751450960891641
aF4.8733373187519522
aF-0.033362832445752666
asS'accel_x'
p10
F0
sS'accel_y'
p11
F0
sS'visionAngle'
p12
I130
sS'maxAccel'
p13
I2
sS'maxVel'
p14
F0.72999999999999998
sS'age'
p15
I0
sS'lastScale'
p16
F5.5
sS'maxSteering'
p17
I20
sS'energy'
p18
F0.5
sb.(i__main__
Data_mobile
p1
(dp2
S'vel_y'
p3
I0
sS'vel_x'
p4
I0
sS'pos_x'
p5
I-9579
sS'pos_y'
p6
I9779
sS'isAlive'
p7
I00
sS'geno'
p8
(lp9
F-0.59918089818479825
aF1.6792428090093283
aF1.0326275428935199
aF4.0471897791765219
aF1.1869921445983265
asS'accel_x'
p10
F0
sS'accel_y'
p11
F0
sS'visionAngle'
p12
I130
sS'maxAccel'
p13
I2
sS'maxVel'
p14
F0.72999999999999998
sS'age'
p15
I0
sS'lastScale'
p16
F5.5
sS'maxSteering'
p17
I20
sS'energy'
p18
F0.5
sb.(i__main__
Data_mobile
p1
(dp2
S'vel_y'
p3
I0
sS'vel_x'
p4
I0
sS'pos_x'
p5
I-9579
sS'pos_y'
p6
I9779
sS'isAlive'
p7
I00
sS'geno'
p8
(lp9
F-0.59918089818479825
aF1.6792428090093283
aF1.0326275428935199
aF4.0471897791765219
aF0.11012703800692636
asS'accel_x'
p10
F0
sS'accel_y'
p11
F0
sS'visionAngle'
p12
I130
sS'maxAccel'
p13
I2
sS'maxVel'
p14
F0.72999999999999998
sS'age'
p15
I0
sS'lastScale'
p16
F5.5
sS'maxSteering'
p17
I20
sS'energy'
p18
F0.5
sb.(i__main__
Data_mobile
p1
(dp2
S'vel_y'
p3
I0
sS'vel_x'
p4
I0
sS'pos_x'
p5
I-9579
sS'pos_y'
p6
I9779
sS'isAlive'
p7
I00
sS'geno'
p8
(lp9
F-0.51075710457668033
aF2.3504132104738189
aF1.0326275428935199
aF3.8945342809630223
aF1.1869921445983265
asS'accel_x'
p10
F0
sS'accel_y'
p11
F0
sS'visionAngle'
p12
I130
sS'maxAccel'
p13
I2
sS'maxVel'
p14
F0.72999999999999998
sS'age'
p15
I0
sS'lastScale'
p16
F5.5
sS'maxSteering'
p17
I20
sS'energy'
p18
F0.5
sb.(i__main__
Data_mobile
p1
(dp2
S'vel_y'
p3
I0
sS'vel_x'
p4
I0
sS'pos_x'
p5
I-9579
sS'pos_y'
p6
I9779
sS'isAlive'
p7
I00
sS'geno'
p8
(lp9
F-0.59918089818479825
aF1.6792428090093283
aF1.0326275428935199
aF4.0471897791765219
aF1.1869921445983265
asS'accel_x'
p10
F0
sS'accel_y'
p11
F0
sS'visionAngle'
p12
I130
sS'maxAccel'
p13
I2
sS'maxVel'
p14
F0.72999999999999998
sS'age'
p15
I0
sS'lastScale'
p16
F5.5
sS'maxSteering'
p17
I20
sS'energy'
p18
F0.5
sb.(i__main__
Data_mobile
p1
(dp2
S'vel_y'
p3
I0
sS'vel_x'
p4
I0
sS'pos_x'
p5
I-9579
sS'pos_y'
p6
I9779
sS'isAlive'
p7
I00
sS'geno'
p8
(lp9
F-0.79115949795845575
aF1.6792428090093283
aF1.0326275428935199
aF4.0471897791765219
aF1.1869921445983265
asS'accel_x'
p10
F0
sS'accel_y'
p11
F0
sS'visionAngle'
p12
I130
sS'maxAccel'
p13
I2
sS'maxVel'
p14
F0.72999999999999998
sS'age'
p15
I0
sS'lastScale'
p16
F5.5
sS'maxSteering'
p17
I20
sS'energy'
p18
F0.5
sb.(i__main__
Data_mobile
p1
(dp2
S'vel_y'
p3
I0
sS'vel_x'
p4
I0
sS'pos_x'
p5
I-9579
sS'pos_y'
p6
I9779
sS'isAlive'
p7
I00
sS'geno'
p8
(lp9
F-0.79115949795845575
aF1.9753393459420772
aF1.0326275428935199
aF4.0471897791765219
aF1.1869921445983265
asS'accel_x'
p10
F0
sS'accel_y'
p11
F0
sS'visionAngle'
p12
I130
sS'maxAccel'
p13
I2
sS'maxVel'
p14
F0.72999999999999998
sS'age'
p15
I0
sS'lastScale'
p16
F5.5
sS'maxSteering'
p17
I20
sS'energy'
p18
F0.5
sb.(i__main__
Data_mobile
p1
(dp2
S'vel_y'
p3
I0
sS'vel_x'
p4
I0
sS'pos_x'
p5
I-9579
sS'pos_y'
p6
I9779
sS'isAlive'
p7
I00
sS'geno'
p8
(lp9
F-1.8526009532952212
aF1.8507508061384659
aF1.0326275428935199
aF4.0471897791765219
aF0.74019228899972211
asS'accel_x'
p10
F0
sS'accel_y'
p11
F0
sS'visionAngle'
p12
I130
sS'maxAccel'
p13
I2
sS'maxVel'
p14
F0.72999999999999998
sS'age'
p15
I0
sS'lastScale'
p16
F5.5
sS'maxSteering'
p17
I20
sS'energy'
p18
F0.5
sb.(i__main__
Data_mobile
p1
(dp2
S'vel_y'
p3
I0
sS'vel_x'
p4
I0
sS'pos_x'
p5
I-9579
sS'pos_y'
p6
I9779
sS'isAlive'
p7
I00
sS'geno'
p8
(lp9
F-1.6358893293182488
aF1.4474154703074749
aF1.7579883573854276
aF4.0763721983640142
aF-0.033362832445752666
asS'accel_x'
p10
F0
sS'accel_y'
p11
F0
sS'visionAngle'
p12
I130
sS'maxAccel'
p13
I2
sS'maxVel'
p14
F0.72999999999999998
sS'age'
p15
I0
sS'lastScale'
p16
F5.5
sS'maxSteering'
p17
I20
sS'energy'
p18
F0.5
sb.(i__main__
Data_mobile
p1
(dp2
S'vel_y'
p3
I0
sS'vel_x'
p4
I0
sS'pos_x'
p5
I-9579
sS'pos_y'
p6
I9779
sS'isAlive'
p7
I00
sS'geno'
p8
(lp9
F-0.42905803185603419
aF2.3784144488384982
aF1.1751450960891641
aF4.8733373187519522
aF0.11012703800692636
asS'accel_x'
p10
F0
sS'accel_y'
p11
F0
sS'visionAngle'
p12
I130
sS'maxAccel'
p13
I2
sS'maxVel'
p14
F0.72999999999999998
sS'age'
p15
I0
sS'lastScale'
p16
F5.5
sS'maxSteering'
p17
I20
sS'energy'
p18
F0.5
sb.(i__main__
Data_mobile
p1
(dp2
S'vel_y'
p3
I0
sS'vel_x'
p4
I0
sS'pos_x'
p5
I-9579
sS'pos_y'
p6
I9779
sS'isAlive'
p7
I00
sS'geno'
p8
(lp9
F-0.42905803185603419
aF2.3784144488384982
aF1.1417971493387071
aF3.5560894740063476
aF0.45371093054539213
asS'accel_x'
p10
F0
sS'accel_y'
p11
F0
sS'visionAngle'
p12
I130
sS'maxAccel'
p13
I2
sS'maxVel'
p14
F0.72999999999999998
sS'age'
p15
I0
sS'lastScale'
p16
F5.5
sS'maxSteering'
p17
I20
sS'energy'
p18
F0.5
sb.(i__main__
Data_mobile
p1
(dp2
S'vel_y'
p3
I0
sS'vel_x'
p4
I0
sS'pos_x'
p5
I-9579
sS'pos_y'
p6
I9779
sS'isAlive'
p7
I00
sS'geno'
p8
(lp9
F-0.42905803185603419
aF2.3784144488384982
aF1.1417971493387071
aF3.5560894740063476
aF0.45371093054539213
asS'accel_x'
p10
F0
sS'accel_y'
p11
F0
sS'visionAngle'
p12
I130
sS'maxAccel'
p13
I2
sS'maxVel'
p14
F0.72999999999999998
sS'age'
p15
I0
sS'lastScale'
p16
F5.5
sS'maxSteering'
p17
I20
sS'energy'
p18
F0.5
sb.(i__main__
Data_mobile
p1
(dp2
S'vel_y'
p3
I0
sS'vel_x'
p4
I0
sS'pos_x'
p5
I-9579
sS'pos_y'
p6
I9779
sS'isAlive'
p7
I00
sS'geno'
p8
(lp9
F-0.42905803185603419
aF2.3784144488384982
aF1.1417971493387071
aF4.2766472878645381
aF0.11012703800692636
asS'accel_x'
p10
F0
sS'accel_y'
p11
F0
sS'visionAngle'
p12
I130
sS'maxAccel'
p13
I2
sS'maxVel'
p14
F0.72999999999999998
sS'age'
p15
I0
sS'lastScale'
p16
F5.5
sS'maxSteering'
p17
I20
sS'energy'
p18
F0.5
sb.(i__main__
Data_mobile
p1
(dp2
S'vel_y'
p3
I0
sS'vel_x'
p4
I0
sS'pos_x'
p5
I-9579
sS'pos_y'
p6
I9779
sS'isAlive'
p7
I00
sS'geno'
p8
(lp9
F-1.6358893293182488
aF1.4474154703074749
aF1.7579883573854276
aF3.5560894740063476
aF0.45371093054539213
asS'accel_x'
p10
F0
sS'accel_y'
p11
F0
sS'visionAngle'
p12
I130
sS'maxAccel'
p13
I2
sS'maxVel'
p14
F0.72999999999999998
sS'age'
p15
I0
sS'lastScale'
p16
F5.5
sS'maxSteering'
p17
I20
sS'energy'
p18
F0.5
sb.(i__main__
Data_mobile
p1
(dp2
S'vel_y'
p3
I0
sS'vel_x'
p4
I0
sS'pos_x'
p5
I-9579
sS'pos_y'
p6
I9779
sS'isAlive'
p7
I00
sS'geno'
p8
(lp9
F-0.42905803185603419
aF2.3784144488384982
aF1.1417971493387071
aF3.5560894740063476
aF0.45371093054539213
asS'accel_x'
p10
F0
sS'accel_y'
p11
F0
sS'visionAngle'
p12
I130
sS'maxAccel'
p13
I2
sS'maxVel'
p14
F0.72999999999999998
sS'age'
p15
I0
sS'lastScale'
p16
F5.5
sS'maxSteering'
p17
I20
sS'energy'
p18
F0.5
sb.(i__main__
Data_mobile
p1
(dp2
S'vel_y'
p3
I0
sS'vel_x'
p4
I0
sS'pos_x'
p5
I-9579
sS'pos_y'
p6
I9779
sS'isAlive'
p7
I00
sS'geno'
p8
(lp9
F-0.42905803185603419
aF2.3784144488384982
aF1.1751450960891641
aF4.8733373187519522
aF0.11012703800692636
asS'accel_x'
p10
F0
sS'accel_y'
p11
F0
sS'visionAngle'
p12
I130
sS'maxAccel'
p13
I2
sS'maxVel'
p14
F0.72999999999999998
sS'age'
p15
I0
sS'lastScale'
p16
F5.5
sS'maxSteering'
p17
I20
sS'energy'
p18
F0.5
sb.(i__main__
Data_mobile
p1
(dp2
S'vel_y'
p3
I0
sS'vel_x'
p4
I0
sS'pos_x'
p5
I-9579
sS'pos_y'
p6
I9779
sS'isAlive'
p7
I00
sS'geno'
p8
(lp9
F-1.8379802340199882
aF1.4474154703074749
aF1.3939609692783854
aF4.2766472878645381
aF0.74019228899972211
asS'accel_x'
p10
F0
sS'accel_y'
p11
F0
sS'visionAngle'
p12
I130
sS'maxAccel'
p13
I2
sS'maxVel'
p14
F0.72999999999999998
sS'age'
p15
I0
sS'lastScale'
p16
F5.5
sS'maxSteering'
p17
I20
sS'energy'
p18
F0.5
sb.(i__main__
Data_mobile
p1
(dp2
S'vel_y'
p3
I0
sS'vel_x'
p4
I0
sS'pos_x'
p5
I-9579
sS'pos_y'
p6
I9779
sS'isAlive'
p7
I00
sS'geno'
p8
(lp9
F-1.6358893293182488
aF2.3784144488384982
aF1.1751450960891641
aF4.8733373187519522
aF0.11012703800692636
asS'accel_x'
p10
F0
sS'accel_y'
p11
F0
sS'visionAngle'
p12
I130
sS'maxAccel'
p13
I2
sS'maxVel'
p14
F0.72999999999999998
sS'age'
p15
I0
sS'lastScale'
p16
F5.5
sS'maxSteering'
p17
I20
sS'energy'
p18
F0.5
sb.(i__main__
Data_mobile
p1
(dp2
S'vel_y'
p3
I0
sS'vel_x'
p4
I0
sS'pos_x'
p5
I-9579
sS'pos_y'
p6
I9779
sS'isAlive'
p7
I00
sS'geno'
p8
(lp9
F-1.6358893293182488
aF1.4474154703074749
aF1.7579883573854276
aF4.2766472878645381
aF0.11012703800692636
asS'accel_x'
p10
F0
sS'accel_y'
p11
F0
sS'visionAngle'
p12
I130
sS'maxAccel'
p13
I2
sS'maxVel'
p14
F0.72999999999999998
sS'age'
p15
I0
sS'lastScale'
p16
F5.5
sS'maxSteering'
p17
I20
sS'energy'
p18
F0.5
sb.(i__main__
Data_mobile
p1
(dp2
S'vel_y'
p3
I0
sS'vel_x'
p4
I0
sS'pos_x'
p5
I-9579
sS'pos_y'
p6
I9779
sS'isAlive'
p7
I00
sS'geno'
p8
(lp9
F-0.42905803185603419
aF2.3784144488384982
aF1.1417971493387071
aF3.5560894740063476
aF0.45371093054539213
asS'accel_x'
p10
F0
sS'accel_y'
p11
F0
sS'visionAngle'
p12
I130
sS'maxAccel'
p13
I2
sS'maxVel'
p14
F0.72999999999999998
sS'age'
p15
I0
sS'lastScale'
p16
F5.5
sS'maxSteering'
p17
I20
sS'energy'
p18
F0.5
sb.(i__main__
Data_mobile
p1
(dp2
S'vel_y'
p3
I0
sS'vel_x'
p4
I0
sS'pos_x'
p5
I-9579
sS'pos_y'
p6
I9779
sS'isAlive'
p7
I00
sS'geno'
p8
(lp9
F-0.51075710457668033
aF2.3504132104738189
aF1.0326275428935199
aF4.0471897791765219
aF0.11012703800692636
asS'accel_x'
p10
F0
sS'accel_y'
p11
F0
sS'visionAngle'
p12
I130
sS'maxAccel'
p13
I2
sS'maxVel'
p14
F0.72999999999999998
sS'age'
p15
I0
sS'lastScale'
p16
F5.5
sS'maxSteering'
p17
I20
sS'energy'
p18
F0.5
sb.(i__main__
Data_mobile
p1
(dp2
S'vel_y'
p3
I0
sS'vel_x'
p4
I0
sS'pos_x'
p5
I-9579
sS'pos_y'
p6
I9779
sS'isAlive'
p7
I00
sS'geno'
p8
(lp9
F-1.6358893293182488
aF1.4474154703074749
aF1.7579883573854276
aF4.2766472878645381
aF-0.033362832445752666
asS'accel_x'
p10
F0
sS'accel_y'
p11
F0
sS'visionAngle'
p12
I130
sS'maxAccel'
p13
I2
sS'maxVel'
p14
F0.72999999999999998
sS'age'
p15
I0
sS'lastScale'
p16
F5.5
sS'maxSteering'
p17
I20
sS'energy'
p18
F0.5
sb.(i__main__
Data_mobile
p1
(dp2
S'vel_y'
p3
I0
sS'vel_x'
p4
I0
sS'pos_x'
p5
I-9579
sS'pos_y'
p6
I9779
sS'isAlive'
p7
I00
sS'geno'
p8
(lp9
F-0.42905803185603419
aF1.4474154703074749
aF1.7579883573854276
aF3.7980028582490841
aF0.11012703800692636
asS'accel_x'
p10
F0
sS'accel_y'
p11
F0
sS'visionAngle'
p12
I130
sS'maxAccel'
p13
I2
sS'maxVel'
p14
F0.72999999999999998
sS'age'
p15
I0
sS'lastScale'
p16
F5.5
sS'maxSteering'
p17
I20
sS'energy'
p18
F0.5
sb.(i__main__
Data_mobile
p1
(dp2
S'vel_y'
p3
I0
sS'vel_x'
p4
I0
sS'pos_x'
p5
I-9579
sS'pos_y'
p6
I9779
sS'isAlive'
p7
I00
sS'geno'
p8
(lp9
F-1.8379802340199882
aF1.4474154703074749
aF1.7579883573854276
aF4.1946300192512087
aF0.11012703800692636
asS'accel_x'
p10
F0
sS'accel_y'
p11
F0
sS'visionAngle'
p12
I130
sS'maxAccel'
p13
I2
sS'maxVel'
p14
F0.72999999999999998
sS'age'
p15
I0
sS'lastScale'
p16
F5.5
sS'maxSteering'
p17
I20
sS'energy'
p18
F0.5
sb.(i__main__
Data_mobile
p1
(dp2
S'vel_y'
p3
I0
sS'vel_x'
p4
I0
sS'pos_x'
p5
I-9579
sS'pos_y'
p6
I9779
sS'isAlive'
p7
I00
sS'geno'
p8
(lp9
F-0.42905803185603419
aF2.6581953571939017
aF1.1417971493387071
aF3.5560894740063476
aF0.11012703800692636
asS'accel_x'
p10
F0
sS'accel_y'
p11
F0
sS'visionAngle'
p12
I130
sS'maxAccel'
p13
I2
sS'maxVel'
p14
F0.72999999999999998
sS'age'
p15
I0
sS'lastScale'
p16
F5.5
sS'maxSteering'
p17
I20
sS'energy'
p18
F0.5
sb.(i__main__
Data_mobile
p1
(dp2
S'vel_y'
p3
I0
sS'vel_x'
p4
I0
sS'pos_x'
p5
I-9579
sS'pos_y'
p6
I9779
sS'isAlive'
p7
I00
sS'geno'
p8
(lp9
F-1.6358893293182488
aF1.4474154703074749
aF1.7579883573854276
aF4.2766472878645381
aF-0.033362832445752666
asS'accel_x'
p10
F0
sS'accel_y'
p11
F0
sS'visionAngle'
p12
I130
sS'maxAccel'
p13
I2
sS'maxVel'
p14
F0.72999999999999998
sS'age'
p15
I0
sS'lastScale'
p16
F5.5
sS'maxSteering'
p17
I20
sS'energy'
p18
F0.5
sb.(i__main__
Data_mobile
p1
(dp2
S'vel_y'
p3
I0
sS'vel_x'
p4
I0
sS'pos_x'
p5
I-9579
sS'pos_y'
p6
I9779
sS'isAlive'
p7
I00
sS'geno'
p8
(lp9
F-1.5610809850543772
aF1.8507508061384659
aF1.0326275428935199
aF4.0471897791765219
aF0.70877291869949255
asS'accel_x'
p10
F0
sS'accel_y'
p11
F0
sS'visionAngle'
p12
I130
sS'maxAccel'
p13
I2
sS'maxVel'
p14
F0.72999999999999998
sS'age'
p15
I0
sS'lastScale'
p16
F5.5
sS'maxSteering'
p17
I20
sS'energy'
p18
F0.5
sb.(i__main__
Data_mobile
p1
(dp2
S'vel_y'
p3
I0
sS'vel_x'
p4
I0
sS'pos_x'
p5
I-9579
sS'pos_y'
p6
I9779
sS'isAlive'
p7
I00
sS'geno'
p8
(lp9
F-0.42905803185603419
aF2.3784144488384982
aF1.1417971493387071
aF3.5560894740063476
aF0.31036786371942671
asS'accel_x'
p10
F0
sS'accel_y'
p11
F0
sS'visionAngle'
p12
I130
sS'maxAccel'
p13
I2
sS'maxVel'
p14
F0.72999999999999998
sS'age'
p15
I0
sS'lastScale'
p16
F5.5
sS'maxSteering'
p17
I20
sS'energy'
p18
F0.5
sb.(i__main__
Data_mobile
p1
(dp2
S'vel_y'
p3
I0
sS'vel_x'
p4
I0
sS'pos_x'
p5
I-9579
sS'pos_y'
p6
I9779
sS'isAlive'
p7
I00
sS'geno'
p8
(lp9
F-0.42905803185603419
aF2.3784144488384982
aF1.1417971493387071
aF3.5560894740063476
aF0.31036786371942671
asS'accel_x'
p10
F0
sS'accel_y'
p11
F0
sS'visionAngle'
p12
I130
sS'maxAccel'
p13
I2
sS'maxVel'
p14
F0.72999999999999998
sS'age'
p15
I0
sS'lastScale'
p16
F5.5
sS'maxSteering'
p17
I20
sS'energy'
p18
F0.5
sb.(i__main__
Data_mobile
p1
(dp2
S'vel_y'
p3
I0
sS'vel_x'
p4
I0
sS'pos_x'
p5
I-9579
sS'pos_y'
p6
I9779
sS'isAlive'
p7
I00
sS'geno'
p8
(lp9
F-1.8379802340199882
aF1.8507508061384659
aF1.0326275428935199
aF4.5125252649265502
aF0.74019228899972211
asS'accel_x'
p10
F0
sS'accel_y'
p11
F0
sS'visionAngle'
p12
I130
sS'maxAccel'
p13
I2
sS'maxVel'
p14
F0.72999999999999998
sS'age'
p15
I0
sS'lastScale'
p16
F5.5
sS'maxSteering'
p17
I20
sS'energy'
p18
F0.5
sb.(i__main__
Data_mobile
p1
(dp2
S'vel_y'
p3
I0
sS'vel_x'
p4
I0
sS'pos_x'
p5
I-9579
sS'pos_y'
p6
I9779
sS'isAlive'
p7
I00
sS'geno'
p8
(lp9
F-1.4689434291094119
aF1.8507508061384659
aF1.0326275428935199
aF4.0471897791765219
aF1.0508822792879784
asS'accel_x'
p10
F0
sS'accel_y'
p11
F0
sS'visionAngle'
p12
I130
sS'maxAccel'
p13
I2
sS'maxVel'
p14
F0.72999999999999998
sS'age'
p15
I0
sS'lastScale'
p16
F5.5
sS'maxSteering'
p17
I20
sS'energy'
p18
F0.5
sb.(i__main__
Data_mobile
p1
(dp2
S'vel_y'
p3
I0
sS'vel_x'
p4
I0
sS'pos_x'
p5
I-9579
sS'pos_y'
p6
I9779
sS'isAlive'
p7
I00
sS'geno'
p8
(lp9
F-1.5610809850543772
aF1.8507508061384659
aF1.0326275428935199
aF4.0812915525997973
aF0.70877291869949255
asS'accel_x'
p10
F0
sS'accel_y'
p11
F0
sS'visionAngle'
p12
I130
sS'maxAccel'
p13
I2
sS'maxVel'
p14
F0.72999999999999998
sS'age'
p15
I0
sS'lastScale'
p16
F5.5
sS'maxSteering'
p17
I20
sS'energy'
p18
F0.5
sb.(i__main__
Data_mobile
p1
(dp2
S'vel_y'
p3
I0
sS'vel_x'
p4
I0
sS'pos_x'
p5
I-9579
sS'pos_y'
p6
I9779
sS'isAlive'
p7
I00
sS'geno'
p8
(lp9
F-1.5104030421512982
aF1.4474154703074749
aF1.4560639752233993
aF4.2766472878645381
aF0.74019228899972211
asS'accel_x'
p10
F0
sS'accel_y'
p11
F0
sS'visionAngle'
p12
I130
sS'maxAccel'
p13
I2
sS'maxVel'
p14
F0.72999999999999998
sS'age'
p15
I0
sS'lastScale'
p16
F5.5
sS'maxSteering'
p17
I20
sS'energy'
p18
F0.5
sb.(i__main__
Data_mobile
p1
(dp2
S'vel_y'
p3
I0
sS'vel_x'
p4
I0
sS'pos_x'
p5
I-9579
sS'pos_y'
p6
I9779
sS'isAlive'
p7
I00
sS'geno'
p8
(lp9
F-0.42905803185603419
aF2.3784144488384982
aF1.2358684331982828
aF4.8733373187519522
aF-0.52825087990017106
asS'accel_x'
p10
F0
sS'accel_y'
p11
F0
sS'visionAngle'
p12
I130
sS'maxAccel'
p13
I2
sS'maxVel'
p14
F0.72999999999999998
sS'age'
p15
I0
sS'lastScale'
p16
F5.5
sS'maxSteering'
p17
I20
sS'energy'
p18
F0.5
sb.(i__main__
Data_mobile
p1
(dp2
S'vel_y'
p3
I0
sS'vel_x'
p4
I0
sS'pos_x'
p5
I-9579
sS'pos_y'
p6
I9779
sS'isAlive'
p7
I00
sS'geno'
p8
(lp9
F-0.51075710457668033
aF2.3504132104738189
aF1.4150872207344869
aF4.0471897791765219
aF0.11012703800692636
asS'accel_x'
p10
F0
sS'accel_y'
p11
F0
sS'visionAngle'
p12
I130
sS'maxAccel'
p13
I2
sS'maxVel'
p14
F0.72999999999999998
sS'age'
p15
I0
sS'lastScale'
p16
F5.5
sS'maxSteering'
p17
I20
sS'energy'
p18
F0.5
sb.(i__main__
Data_mobile
p1
(dp2
S'vel_y'
p3
I0
sS'vel_x'
p4
I0
sS'pos_x'
p5
I-9579
sS'pos_y'
p6
I9779
sS'isAlive'
p7
I00
sS'geno'
p8
(lp9
F-1.5104030421512982
aF1.4474154703074749
aF1.8461090608756789
aF4.2766472878645381
aF-0.033362832445752666
asS'accel_x'
p10
F0
sS'accel_y'
p11
F0
sS'visionAngle'
p12
I130
sS'maxAccel'
p13
I2
sS'maxVel'
p14
F0.72999999999999998
sS'age'
p15
I0
sS'lastScale'
p16
F5.5
sS'maxSteering'
p17
I20
sS'energy'
p18
F0.5
sb.(i__main__
Data_mobile
p1
(dp2
S'vel_y'
p3
I0
sS'vel_x'
p4
I0
sS'pos_x'
p5
I-9579
sS'pos_y'
p6
I9779
sS'isAlive'
p7
I00
sS'geno'
p8
(lp9
F-1.5104030421512982
aF1.4474154703074749
aF1.4560639752233993
aF4.2766472878645381
aF0.74019228899972211
asS'accel_x'
p10
F0
sS'accel_y'
p11
F0
sS'visionAngle'
p12
I130
sS'maxAccel'
p13
I2
sS'maxVel'
p14
F0.72999999999999998
sS'age'
p15
I0
sS'lastScale'
p16
F5.5
sS'maxSteering'
p17
I20
sS'energy'
p18
F0.5
sb.(i__main__
Data_mobile
p1
(dp2
S'vel_y'
p3
I0
sS'vel_x'
p4
I0
sS'pos_x'
p5
I-9579
sS'pos_y'
p6
I9779
sS'isAlive'
p7
I00
sS'geno'
p8
(lp9
F-1.6358893293182488
aF1.4474154703074749
aF1.7579883573854276
aF4.2766472878645381
aF0.74019228899972211
asS'accel_x'
p10
F0
sS'accel_y'
p11
F0
sS'visionAngle'
p12
I130
sS'maxAccel'
p13
I2
sS'maxVel'
p14
F0.72999999999999998
sS'age'
p15
I0
sS'lastScale'
p16
F5.5
sS'maxSteering'
p17
I20
sS'energy'
p18
F0.5
sb.(i__main__
Data_mobile
p1
(dp2
S'vel_y'
p3
I0
sS'vel_x'
p4
I0
sS'pos_x'
p5
I-9579
sS'pos_y'
p6
I9779
sS'isAlive'
p7
I00
sS'geno'
p8
(lp9
F-1.6358893293182488
aF1.4474154703074749
aF1.7579883573854276
aF4.2766472878645381
aF0.11012703800692636
asS'accel_x'
p10
F0
sS'accel_y'
p11
F0
sS'visionAngle'
p12
I130
sS'maxAccel'
p13
I2
sS'maxVel'
p14
F0.72999999999999998
sS'age'
p15
I0
sS'lastScale'
p16
F5.5
sS'maxSteering'
p17
I20
sS'energy'
p18
F0.5
sb.(i__main__
Data_mobile
p1
(dp2
S'vel_y'
p3
I0
sS'vel_x'
p4
I0
sS'pos_x'
p5
I-9579
sS'pos_y'
p6
I9779
sS'isAlive'
p7
I00
sS'geno'
p8
(lp9
F-1.5104030421512982
aF1.4474154703074749
aF1.4560639752233993
aF4.1946300192512087
aF0.11012703800692636
asS'accel_x'
p10
F0
sS'accel_y'
p11
F0
sS'visionAngle'
p12
I130
sS'maxAccel'
p13
I2
sS'maxVel'
p14
F0.72999999999999998
sS'age'
p15
I0
sS'lastScale'
p16
F5.5
sS'maxSteering'
p17
I20
sS'energy'
p18
F0.5
sb.(i__main__
Data_mobile
p1
(dp2
S'vel_y'
p3
I0
sS'vel_x'
p4
I0
sS'pos_x'
p5
I-9579
sS'pos_y'
p6
I9779
sS'isAlive'
p7
I00
sS'geno'
p8
(lp9
F-0.42905803185603419
aF2.3784144488384982
aF1.1751450960891641
aF4.8733373187519522
aF-0.033362832445752666
asS'accel_x'
p10
F0
sS'accel_y'
p11
F0
sS'visionAngle'
p12
I130
sS'maxAccel'
p13
I2
sS'maxVel'
p14
F0.72999999999999998
sS'age'
p15
I0
sS'lastScale'
p16
F5.5
sS'maxSteering'
p17
I20
sS'energy'
p18
F0.5
sb.(i__main__
Data_mobile
p1
(dp2
S'vel_y'
p3
I0
sS'vel_x'
p4
I0
sS'pos_x'
p5
I-9579
sS'pos_y'
p6
I9779
sS'isAlive'
p7
I00
sS'geno'
p8
(lp9
F-0.42905803185603419
aF2.3784144488384982
aF1.1751450960891641
aF4.8733373187519522
aF-0.033362832445752666
asS'accel_x'
p10
F0
sS'accel_y'
p11
F0
sS'visionAngle'
p12
I130
sS'maxAccel'
p13
I2
sS'maxVel'
p14
F0.72999999999999998
sS'age'
p15
I0
sS'lastScale'
p16
F5.5
sS'maxSteering'
p17
I20
sS'energy'
p18
F0.5
sb.(i__main__
Data_mobile
p1
(dp2
S'vel_y'
p3
I0
sS'vel_x'
p4
I0
sS'pos_x'
p5
I-9579
sS'pos_y'
p6
I9779
sS'isAlive'
p7
I00
sS'geno'
p8
(lp9
F-0.42905803185603419
aF2.3784144488384982
aF1.1417971493387071
aF3.5560894740063476
aF0.11012703800692636
asS'accel_x'
p10
F0
sS'accel_y'
p11
F0
sS'visionAngle'
p12
I130
sS'maxAccel'
p13
I2
sS'maxVel'
p14
F0.72999999999999998
sS'age'
p15
I0
sS'lastScale'
p16
F5.5
sS'maxSteering'
p17
I20
sS'energy'
p18
F0.5
sb.(i__main__
Data_mobile
p1
(dp2
S'vel_y'
p3
I0
sS'vel_x'
p4
I0
sS'pos_x'
p5
I-9579
sS'pos_y'
p6
I9779
sS'isAlive'
p7
I00
sS'geno'
p8
(lp9
F-0.42905803185603419
aF2.3784144488384982
aF1.1751450960891641
aF4.8733373187519522
aF-0.033362832445752666
asS'accel_x'
p10
F0
sS'accel_y'
p11
F0
sS'visionAngle'
p12
I130
sS'maxAccel'
p13
I2
sS'maxVel'
p14
F0.72999999999999998
sS'age'
p15
I0
sS'lastScale'
p16
F5.5
sS'maxSteering'
p17
I20
sS'energy'
p18
F0.5
sb.(i__main__
Data_mobile
p1
(dp2
S'vel_y'
p3
I0
sS'vel_x'
p4
I0
sS'pos_x'
p5
I-9579
sS'pos_y'
p6
I9779
sS'isAlive'
p7
I00
sS'geno'
p8
(lp9
F-0.42905803185603419
aF2.3784144488384982
aF1.1417971493387071
aF3.5560894740063476
aF0.11012703800692636
asS'accel_x'
p10
F0
sS'accel_y'
p11
F0
sS'visionAngle'
p12
I130
sS'maxAccel'
p13
I2
sS'maxVel'
p14
F0.72999999999999998
sS'age'
p15
I0
sS'lastScale'
p16
F5.5
sS'maxSteering'
p17
I20
sS'energy'
p18
F0.5
sb.(i__main__
Data_mobile
p1
(dp2
S'vel_y'
p3
I0
sS'vel_x'
p4
I0
sS'pos_x'
p5
I-9579
sS'pos_y'
p6
I9779
sS'isAlive'
p7
I00
sS'geno'
p8
(lp9
F-0.46731162258128844
aF2.3784144488384982
aF1.1417971493387071
aF3.5560894740063476
aF0.11012703800692636
asS'accel_x'
p10
F0
sS'accel_y'
p11
F0
sS'visionAngle'
p12
I130
sS'maxAccel'
p13
I2
sS'maxVel'
p14
F0.72999999999999998
sS'age'
p15
I0
sS'lastScale'
p16
F5.5
sS'maxSteering'
p17
I20
sS'energy'
p18
F0.5
sb.(i__main__
Data_mobile
p1
(dp2
S'vel_y'
p3
I0
sS'vel_x'
p4
I0
sS'pos_x'
p5
I-9579
sS'pos_y'
p6
I9779
sS'isAlive'
p7
I00
sS'geno'
p8
(lp9
F-1.8379802340199882
aF1.8507508061384659
aF1.0326275428935199
aF4.0471897791765219
aF0.74019228899972211
asS'accel_x'
p10
F0
sS'accel_y'
p11
F0
sS'visionAngle'
p12
I130
sS'maxAccel'
p13
I2
sS'maxVel'
p14
F0.72999999999999998
sS'age'
p15
I0
sS'lastScale'
p16
F5.5
sS'maxSteering'
p17
I20
sS'energy'
p18
F0.5
sb.(i__main__
Data_mobile
p1
(dp2
S'vel_y'
p3
I0
sS'vel_x'
p4
I0
sS'pos_x'
p5
I-9579
sS'pos_y'
p6
I9779
sS'isAlive'
p7
I00
sS'geno'
p8
(lp9
F-1.5104030421512982
aF1.4474154703074749
aF1.4560639752233993
aF4.2766472878645381
aF0.74019228899972211
asS'accel_x'
p10
F0
sS'accel_y'
p11
F0
sS'visionAngle'
p12
I130
sS'maxAccel'
p13
I2
sS'maxVel'
p14
F0.72999999999999998
sS'age'
p15
I0
sS'lastScale'
p16
F5.5
sS'maxSteering'
p17
I20
sS'energy'
p18
F0.5
sb.(i__main__
Data_mobile
p1
(dp2
S'vel_y'
p3
I0
sS'vel_x'
p4
I0
sS'pos_x'
p5
I-9579
sS'pos_y'
p6
I9779
sS'isAlive'
p7
I00
sS'geno'
p8
(lp9
F-0.73554953309416327
aF2.7020768504634303
aF1.0326275428935199
aF4.8733373187519522
aF-0.033362832445752666
asS'accel_x'
p10
F0
sS'accel_y'
p11
F0
sS'visionAngle'
p12
I130
sS'maxAccel'
p13
I2
sS'maxVel'
p14
F0.72999999999999998
sS'age'
p15
I0
sS'lastScale'
p16
F5.5
sS'maxSteering'
p17
I20
sS'energy'
p18
F0.5
sb.(i__main__
Data_mobile
p1
(dp2
S'vel_y'
p3
I0
sS'vel_x'
p4
I0
sS'pos_x'
p5
I-9579
sS'pos_y'
p6
I9779
sS'isAlive'
p7
I00
sS'geno'
p8
(lp9
F-0.73554953309416327
aF2.3784144488384982
aF1.2249846402308928
aF4.0471897791765219
aF0.11012703800692636
asS'accel_x'
p10
F0
sS'accel_y'
p11
F0
sS'visionAngle'
p12
I130
sS'maxAccel'
p13
I2
sS'maxVel'
p14
F0.72999999999999998
sS'age'
p15
I0
sS'lastScale'
p16
F5.5
sS'maxSteering'
p17
I20
sS'energy'
p18
F0.5
sb.(i__main__
Data_mobile
p1
(dp2
S'vel_y'
p3
I0
sS'vel_x'
p4
I0
sS'pos_x'
p5
I-9579
sS'pos_y'
p6
I9779
sS'isAlive'
p7
I00
sS'geno'
p8
(lp9
F-1.8379802340199882
aF1.9849987485462761
aF1.0326275428935199
aF3.9225147735952035
aF0.74019228899972211
asS'accel_x'
p10
F0
sS'accel_y'
p11
F0
sS'visionAngle'
p12
I130
sS'maxAccel'
p13
I2
sS'maxVel'
p14
F0.72999999999999998
sS'age'
p15
I0
sS'lastScale'
p16
F5.5
sS'maxSteering'
p17
I20
sS'energy'
p18
F0.5
sb.(i__main__
Data_mobile
p1
(dp2
S'vel_y'
p3
I0
sS'vel_x'
p4
I0
sS'pos_x'
p5
I-9579
sS'pos_y'
p6
I9779
sS'isAlive'
p7
I00
sS'geno'
p8
(lp9
F-0.73554953309416327
aF2.3784144488384982
aF1.0326275428935199
aF4.2766472878645381
aF0.78841095996431587
asS'accel_x'
p10
F0
sS'accel_y'
p11
F0
sS'visionAngle'
p12
I130
sS'maxAccel'
p13
I2
sS'maxVel'
p14
F0.72999999999999998
sS'age'
p15
I0
sS'lastScale'
p16
F5.5
sS'maxSteering'
p17
I20
sS'energy'
p18
F0.5
sb.(i__main__
Data_mobile
p1
(dp2
S'vel_y'
p3
I0
sS'vel_x'
p4
I0
sS'pos_x'
p5
I-9579
sS'pos_y'
p6
I9779
sS'isAlive'
p7
I00
sS'geno'
p8
(lp9
F-0.51075710457668033
aF2.3504132104738189
aF1.0326275428935199
aF4.0471897791765219
aF0.11012703800692636
asS'accel_x'
p10
F0
sS'accel_y'
p11
F0
sS'visionAngle'
p12
I130
sS'maxAccel'
p13
I2
sS'maxVel'
p14
F0.72999999999999998
sS'age'
p15
I0
sS'lastScale'
p16
F5.5
sS'maxSteering'
p17
I20
sS'energy'
p18
F0.5
sb.(i__main__
Data_mobile
p1
(dp2
S'vel_y'
p3
I0
sS'vel_x'
p4
I0
sS'pos_x'
p5
I-9579
sS'pos_y'
p6
I9779
sS'isAlive'
p7
I00
sS'geno'
p8
(lp9
F-0.42905803185603419
aF2.3784144488384982
aF1.1751450960891641
aF4.8733373187519522
aF-0.033362832445752666
asS'accel_x'
p10
F0
sS'accel_y'
p11
F0
sS'visionAngle'
p12
I130
sS'maxAccel'
p13
I2
sS'maxVel'
p14
F0.72999999999999998
sS'age'
p15
I0
sS'lastScale'
p16
F5.5
sS'maxSteering'
p17
I20
sS'energy'
p18
F0.5
sb.(i__main__
Data_mobile
p1
(dp2
S'vel_y'
p3
I0
sS'vel_x'
p4
I0
sS'pos_x'
p5
I-9579
sS'pos_y'
p6
I9779
sS'isAlive'
p7
I00
sS'geno'
p8
(lp9
F-0.42905803185603419
aF2.3784144488384982
aF1.1417971493387071
aF3.5560894740063476
aF0.31036786371942671
asS'accel_x'
p10
F0
sS'accel_y'
p11
F0
sS'visionAngle'
p12
I130
sS'maxAccel'
p13
I2
sS'maxVel'
p14
F0.72999999999999998
sS'age'
p15
I0
sS'lastScale'
p16
F5.5
sS'maxSteering'
p17
I20
sS'energy'
p18
F0.5
sb.(i__main__
Data_mobile
p1
(dp2
S'vel_y'
p3
I0
sS'vel_x'
p4
I0
sS'pos_x'
p5
I-9579
sS'pos_y'
p6
I9779
sS'isAlive'
p7
I00
sS'geno'
p8
(lp9
F-0.42905803185603419
aF2.3784144488384982
aF1.1417971493387071
aF3.5560894740063476
aF0.11012703800692636
asS'accel_x'
p10
F0
sS'accel_y'
p11
F0
sS'visionAngle'
p12
I130
sS'maxAccel'
p13
I2
sS'maxVel'
p14
F0.72999999999999998
sS'age'
p15
I0
sS'lastScale'
p16
F5.5
sS'maxSteering'
p17
I20
sS'energy'
p18
F0.5
sb.(i__main__
Data_mobile
p1
(dp2
S'vel_y'
p3
I0
sS'vel_x'
p4
I0
sS'pos_x'
p5
I-9579
sS'pos_y'
p6
I9779
sS'isAlive'
p7
I00
sS'geno'
p8
(lp9
F-1.8379802340199882
aF2.3784144488384982
aF1.37177385791261
aF4.1874805472592804
aF1.1187246134336921
asS'accel_x'
p10
F0
sS'accel_y'
p11
F0
sS'visionAngle'
p12
I130
sS'maxAccel'
p13
I2
sS'maxVel'
p14
F0.72999999999999998
sS'age'
p15
I0
sS'lastScale'
p16
F5.5
sS'maxSteering'
p17
I20
sS'energy'
p18
F0.5
sb.(i__main__
Data_mobile
p1
(dp2
S'vel_y'
p3
I0
sS'vel_x'
p4
I0
sS'pos_x'
p5
I-9579
sS'pos_y'
p6
I9779
sS'isAlive'
p7
I00
sS'geno'
p8
(lp9
F-0.81026445015298931
aF1.6792428090093283
aF1.0326275428935199
aF4.0471897791765219
aF0.27783430623488181
asS'accel_x'
p10
F0
sS'accel_y'
p11
F0
sS'visionAngle'
p12
I130
sS'maxAccel'
p13
I2
sS'maxVel'
p14
F0.72999999999999998
sS'age'
p15
I0
sS'lastScale'
p16
F5.5
sS'maxSteering'
p17
I20
sS'energy'
p18
F0.5
sb.(i__main__
Data_mobile
p1
(dp2
S'vel_y'
p3
I0
sS'vel_x'
p4
I0
sS'pos_x'
p5
I-9579
sS'pos_y'
p6
I9779
sS'isAlive'
p7
I00
sS'geno'
p8
(lp9
F-0.73554953309416327
aF2.686423494295342
aF1.5716645958687629
aF4.3835321915131571
aF0.74019228899972211
asS'accel_x'
p10
F0
sS'accel_y'
p11
F0
sS'visionAngle'
p12
I130
sS'maxAccel'
p13
I2
sS'maxVel'
p14
F0.72999999999999998
sS'age'
p15
I0
sS'lastScale'
p16
F5.5
sS'maxSteering'
p17
I20
sS'energy'
p18
F0.5
sb.(i__main__
Data_mobile
p1
(dp2
S'vel_y'
p3
I0
sS'vel_x'
p4
I0
sS'pos_x'
p5
I-9579
sS'pos_y'
p6
I9779
sS'isAlive'
p7
I00
sS'geno'
p8
(lp9
F-0.73554953309416327
aF2.3784144488384982
aF1.0326275428935199
aF4.0471897791765219
aF0.11012703800692636
asS'accel_x'
p10
F0
sS'accel_y'
p11
F0
sS'visionAngle'
p12
I130
sS'maxAccel'
p13
I2
sS'maxVel'
p14
F0.72999999999999998
sS'age'
p15
I0
sS'lastScale'
p16
F5.5
sS'maxSteering'
p17
I20
sS'energy'
p18
F0.5
sb.(i__main__
Data_mobile
p1
(dp2
S'vel_y'
p3
I0
sS'vel_x'
p4
I0
sS'pos_x'
p5
I-9579
sS'pos_y'
p6
I9779
sS'isAlive'
p7
I00
sS'geno'
p8
(lp9
F-0.73554953309416327
aF1.6792428090093283
aF1.0326275428935199
aF4.2766472878645381
aF1.1869921445983265
asS'accel_x'
p10
F0
sS'accel_y'
p11
F0
sS'visionAngle'
p12
I130
sS'maxAccel'
p13
I2
sS'maxVel'
p14
F0.72999999999999998
sS'age'
p15
I0
sS'lastScale'
p16
F5.5
sS'maxSteering'
p17
I20
sS'energy'
p18
F0.5
sb.(i__main__
Data_mobile
p1
(dp2
S'vel_y'
p3
I0
sS'vel_x'
p4
I0
sS'pos_x'
p5
I-9579
sS'pos_y'
p6
I9779
sS'isAlive'
p7
I00
sS'geno'
p8
(lp9
F-0.73554953309416327
aF2.6987938963099096
aF1.0326275428935199
aF4.2766472878645381
aF1.1869921445983265
asS'accel_x'
p10
F0
sS'accel_y'
p11
F0
sS'visionAngle'
p12
I130
sS'maxAccel'
p13
I2
sS'maxVel'
p14
F0.72999999999999998
sS'age'
p15
I0
sS'lastScale'
p16
F5.5
sS'maxSteering'
p17
I20
sS'energy'
p18
F0.5
sb.(i__main__
Data_mobile
p1
(dp2
S'vel_y'
p3
I0
sS'vel_x'
p4
I0
sS'pos_x'
p5
I-9579
sS'pos_y'
p6
I9779
sS'isAlive'
p7
I00
sS'geno'
p8
(lp9
F-0.73554953309416327
aF1.6792428090093283
aF0.68804360529077058
aF4.0471897791765219
aF0.11012703800692636
asS'accel_x'
p10
F0
sS'accel_y'
p11
F0
sS'visionAngle'
p12
I130
sS'maxAccel'
p13
I2
sS'maxVel'
p14
F0.72999999999999998
sS'age'
p15
I0
sS'lastScale'
p16
F5.5
sS'maxSteering'
p17
I20
sS'energy'
p18
F0.5
sb.(i__main__
Data_mobile
p1
(dp2
S'vel_y'
p3
I0
sS'vel_x'
p4
I0
sS'pos_x'
p5
I-9579
sS'pos_y'
p6
I9779
sS'isAlive'
p7
I00
sS'geno'
p8
(lp9
F-1.6358893293182488
aF1.613199329587387
aF1.0326275428935199
aF4.0471897791765219
aF1.1869921445983265
asS'accel_x'
p10
F0
sS'accel_y'
p11
F0
sS'visionAngle'
p12
I130
sS'maxAccel'
p13
I2
sS'maxVel'
p14
F0.72999999999999998
sS'age'
p15
I0
sS'lastScale'
p16
F5.5
sS'maxSteering'
p17
I20
sS'energy'
p18
F0.5
sb.(i__main__
Data_mobile
p1
(dp2
S'vel_y'
p3
I0
sS'vel_x'
p4
I0
sS'pos_x'
p5
I-9579
sS'pos_y'
p6
I9779
sS'isAlive'
p7
I00
sS'geno'
p8
(lp9
F-1.6358893293182488
aF1.4474154703074749
aF1.0326275428935199
aF4.0471897791765219
aF0.11012703800692636
asS'accel_x'
p10
F0
sS'accel_y'
p11
F0
sS'visionAngle'
p12
I130
sS'maxAccel'
p13
I2
sS'maxVel'
p14
F0.72999999999999998
sS'age'
p15
I0
sS'lastScale'
p16
F5.5
sS'maxSteering'
p17
I20
sS'energy'
p18
F0.5
sb.(i__main__
Data_mobile
p1
(dp2
S'vel_y'
p3
I0
sS'vel_x'
p4
I0
sS'pos_x'
p5
I-9579
sS'pos_y'
p6
I9779
sS'isAlive'
p7
I00
sS'geno'
p8
(lp9
F-0.73554953309416327
aF2.3784144488384982
aF1.0326275428935199
aF4.2766472878645381
aF0.27783430623488181
asS'accel_x'
p10
F0
sS'accel_y'
p11
F0
sS'visionAngle'
p12
I130
sS'maxAccel'
p13
I2
sS'maxVel'
p14
F0.72999999999999998
sS'age'
p15
I0
sS'lastScale'
p16
F5.5
sS'maxSteering'
p17
I20
sS'energy'
p18
F0.5
sb.(i__main__
Data_mobile
p1
(dp2
S'vel_y'
p3
I0
sS'vel_x'
p4
I0
sS'pos_x'
p5
I-9579
sS'pos_y'
p6
I9779
sS'isAlive'
p7
I00
sS'geno'
p8
(lp9
F-0.73554953309416327
aF1.8507508061384659
aF1.0326275428935199
aF4.0471897791765219
aF1.1869921445983265
asS'accel_x'
p10
F0
sS'accel_y'
p11
F0
sS'visionAngle'
p12
I130
sS'maxAccel'
p13
I2
sS'maxVel'
p14
F0.72999999999999998
sS'age'
p15
I0
sS'lastScale'
p16
F5.5
sS'maxSteering'
p17
I20
sS'energy'
p18
F0.5
sb.(i__main__
Data_mobile
p1
(dp2
S'vel_y'
p3
I0
sS'vel_x'
p4
I0
sS'pos_x'
p5
I-9579
sS'pos_y'
p6
I9779
sS'isAlive'
p7
I00
sS'geno'
p8
(lp9
F-0.42905803185603419
aF2.3784144488384982
aF1.1417971493387071
aF3.5560894740063476
aF0.31036786371942671
asS'accel_x'
p10
F0
sS'accel_y'
p11
F0
sS'visionAngle'
p12
I130
sS'maxAccel'
p13
I2
sS'maxVel'
p14
F0.72999999999999998
sS'age'
p15
I0
sS'lastScale'
p16
F5.5
sS'maxSteering'
p17
I20
sS'energy'
p18
F0.5
sb.(i__main__
Data_mobile
p1
(dp2
S'vel_y'
p3
I0
sS'vel_x'
p4
I0
sS'pos_x'
p5
I-9579
sS'pos_y'
p6
I9779
sS'isAlive'
p7
I00
sS'geno'
p8
(lp9
F-0.73554953309416327
aF2.3784144488384982
aF1.0326275428935199
aF4.2766472878645381
aF1.1869921445983265
asS'accel_x'
p10
F0
sS'accel_y'
p11
F0
sS'visionAngle'
p12
I130
sS'maxAccel'
p13
I2
sS'maxVel'
p14
F0.72999999999999998
sS'age'
p15
I0
sS'lastScale'
p16
F5.5
sS'maxSteering'
p17
I20
sS'energy'
p18
F0.5
sb.(i__main__
Data_mobile
p1
(dp2
S'vel_y'
p3
I0
sS'vel_x'
p4
I0
sS'pos_x'
p5
I-9579
sS'pos_y'
p6
I9779
sS'isAlive'
p7
I00
sS'geno'
p8
(lp9
F-0.73554953309416327
aF2.3784144488384982
aF1.0326275428935199
aF4.2766472878645381
aF0.5860454576772296
asS'accel_x'
p10
F0
sS'accel_y'
p11
F0
sS'visionAngle'
p12
I130
sS'maxAccel'
p13
I2
sS'maxVel'
p14
F0.72999999999999998
sS'age'
p15
I0
sS'lastScale'
p16
F5.5
sS'maxSteering'
p17
I20
sS'energy'
p18
F0.5
sb.(i__main__
Data_mobile
p1
(dp2
S'vel_y'
p3
I0
sS'vel_x'
p4
I0
sS'pos_x'
p5
I-9579
sS'pos_y'
p6
I9779
sS'isAlive'
p7
I00
sS'geno'
p8
(lp9
F-0.42905803185603419
aF2.3784144488384982
aF1.1417971493387071
aF3.5560894740063476
aF0.31036786371942671
asS'accel_x'
p10
F0
sS'accel_y'
p11
F0
sS'visionAngle'
p12
I130
sS'maxAccel'
p13
I2
sS'maxVel'
p14
F0.72999999999999998
sS'age'
p15
I0
sS'lastScale'
p16
F5.5
sS'maxSteering'
p17
I20
sS'energy'
p18
F0.5
sb.(i__main__
Data_mobile
p1
(dp2
S'vel_y'
p3
I0
sS'vel_x'
p4
I0
sS'pos_x'
p5
I-9579
sS'pos_y'
p6
I9779
sS'isAlive'
p7
I00
sS'geno'
p8
(lp9
F-1.8379802340199882
aF1.6792428090093283
aF1.0326275428935199
aF4.0471897791765219
aF0.27783430623488181
asS'accel_x'
p10
F0
sS'accel_y'
p11
F0
sS'visionAngle'
p12
I130
sS'maxAccel'
p13
I2
sS'maxVel'
p14
F0.72999999999999998
sS'age'
p15
I0
sS'lastScale'
p16
F5.5
sS'maxSteering'
p17
I20
sS'energy'
p18
F0.5
sb.(i__main__
Data_mobile
p1
(dp2
S'vel_y'
p3
I0
sS'vel_x'
p4
I0
sS'pos_x'
p5
I-9579
sS'pos_y'
p6
I9779
sS'isAlive'
p7
I00
sS'geno'
p8
(lp9
F-0.73554953309416327
aF2.3784144488384982
aF0.82521619743302976
aF4.2766472878645381
aF1.1869921445983265
asS'accel_x'
p10
F0
sS'accel_y'
p11
F0
sS'visionAngle'
p12
I130
sS'maxAccel'
p13
I2
sS'maxVel'
p14
F0.72999999999999998
sS'age'
p15
I0
sS'lastScale'
p16
F5.5
sS'maxSteering'
p17
I20
sS'energy'
p18
F0.5
sb.(i__main__
Data_mobile
p1
(dp2
S'vel_y'
p3
I0
sS'vel_x'
p4
I0
sS'pos_x'
p5
I-9579
sS'pos_y'
p6
I9779
sS'isAlive'
p7
I00
sS'geno'
p8
(lp9
F-0.42905803185603419
aF2.3784144488384982
aF1.1751450960891641
aF4.4953541625570486
aF0.11012703800692636
asS'accel_x'
p10
F0
sS'accel_y'
p11
F0
sS'visionAngle'
p12
I130
sS'maxAccel'
p13
I2
sS'maxVel'
p14
F0.72999999999999998
sS'age'
p15
I0
sS'lastScale'
p16
F5.5
sS'maxSteering'
p17
I20
sS'energy'
p18
F0.5
sb.(i__main__
Data_mobile
p1
(dp2
S'vel_y'
p3
I0
sS'vel_x'
p4
I0
sS'pos_x'
p5
I-9579
sS'pos_y'
p6
I9779
sS'isAlive'
p7
I00
sS'geno'
p8
(lp9
F-0.81026445015298931
aF2.3784144488384982
aF1.37177385791261
aF4.096690612966138
aF0.74019228899972211
asS'accel_x'
p10
F0
sS'accel_y'
p11
F0
sS'visionAngle'
p12
I130
sS'maxAccel'
p13
I2
sS'maxVel'
p14
F0.72999999999999998
sS'age'
p15
I0
sS'lastScale'
p16
F5.5
sS'maxSteering'
p17
I20
sS'energy'
p18
F0.5
sb.(i__main__
Data_mobile
p1
(dp2
S'vel_y'
p3
I0
sS'vel_x'
p4
I0
sS'pos_x'
p5
I-9579
sS'pos_y'
p6
I9779
sS'isAlive'
p7
I00
sS'geno'
p8
(lp9
F-0.73554953309416327
aF1.5182137104435238
aF1.0326275428935199
aF4.0471897791765219
aF0.5860454576772296
asS'accel_x'
p10
F0
sS'accel_y'
p11
F0
sS'visionAngle'
p12
I130
sS'maxAccel'
p13
I2
sS'maxVel'
p14
F0.72999999999999998
sS'age'
p15
I0
sS'lastScale'
p16
F5.5
sS'maxSteering'
p17
I20
sS'energy'
p18
F0.5
sb.(i__main__
Data_mobile
p1
(dp2
S'vel_y'
p3
I0
sS'vel_x'
p4
I0
sS'pos_x'
p5
I-9579
sS'pos_y'
p6
I9779
sS'isAlive'
p7
I00
sS'geno'
p8
(lp9
F-0.73554953309416327
aF1.8507508061384659
aF1.0326275428935199
aF4.0471897791765219
aF1.1869921445983265
asS'accel_x'
p10
F0
sS'accel_y'
p11
F0
sS'visionAngle'
p12
I130
sS'maxAccel'
p13
I2
sS'maxVel'
p14
F0.72999999999999998
sS'age'
p15
I0
sS'lastScale'
p16
F5.5
sS'maxSteering'
p17
I20
sS'energy'
p18
F0.5
sb.(i__main__
Data_mobile
p1
(dp2
S'vel_y'
p3
I0
sS'vel_x'
p4
I0
sS'pos_x'
p5
I-9579
sS'pos_y'
p6
I9779
sS'isAlive'
p7
I00
sS'geno'
p8
(lp9
F-0.73554953309416327
aF2.3784144488384982
aF1.0326275428935199
aF4.1354021762593787
aF1.1869921445983265
asS'accel_x'
p10
F0
sS'accel_y'
p11
F0
sS'visionAngle'
p12
I130
sS'maxAccel'
p13
I2
sS'maxVel'
p14
F0.72999999999999998
sS'age'
p15
I0
sS'lastScale'
p16
F5.5
sS'maxSteering'
p17
I20
sS'energy'
p18
F0.5
sb.(i__main__
Data_mobile
p1
(dp2
S'vel_y'
p3
I0
sS'vel_x'
p4
I0
sS'pos_x'
p5
I-9579
sS'pos_y'
p6
I9779
sS'isAlive'
p7
I00
sS'geno'
p8
(lp9
F-0.73554953309416327
aF2.3784144488384982
aF1.0326275428935199
aF4.2766472878645381
aF1.1869921445983265
asS'accel_x'
p10
F0
sS'accel_y'
p11
F0
sS'visionAngle'
p12
I130
sS'maxAccel'
p13
I2
sS'maxVel'
p14
F0.72999999999999998
sS'age'
p15
I0
sS'lastScale'
p16
F5.5
sS'maxSteering'
p17
I20
sS'energy'
p18
F0.5
sb.