(i__main__
Data_mobile
p1
(dp2
S'vel_y'
p3
F0.41829478502566952
sS'vel_x'
p4
F0.59827207257261206
sS'pos_x'
p5
F-34.131127318641617
sS'pos_y'
p6
F-78.820998969290585
sS'isAlive'
p7
I01
sS'cumulativeEnergy'
p8
F48.938104088685598
sS'geno'
p9
(i__main__
Node
p10
(dp11
S'depth'
p12
I1
sS'vector'
p13
S'+'
sS'right'
p14
(i__main__
Node
p15
(dp16
g12
I2
sg13
S'+'
sg14
(i__main__
Node
p17
(dp18
g12
I3
sg13
S'indiv.alignment()'
p19
sg14
NsS'parent'
p20
g15
sS'left'
p21
Nsbsg20
g10
sg21
(i__main__
Node
p22
(dp23
g12
I3
sg13
S'indiv.target()'
p24
sg14
Nsg20
g15
sg21
Nsbsbsg20
Nsg21
(i__main__
Node
p25
(dp26
g12
I2
sg13
S'-'
sg14
(i__main__
Node
p27
(dp28
g12
I3
sg13
g19
sg14
Nsg20
g25
sg21
Nsbsg20
g10
sg21
(i__main__
Node
p29
(dp30
g12
I3
sg13
g24
sg14
Nsg20
g25
sg21
NsbsbsbsS'accel_x'
p31
F1.2632152128941527
sS'accel_y'
p32
F0.97329498350930521
sS'visionAngle'
p33
I130
sS'maxAccel'
p34
I2
sS'maxVel'
p35
F0.72999999999999998
sS'age'
p36
I100
sS'tailSize'
p37
I0
sS'sexualgeno'
p38
NsS'tailBrigh'
p39
I0
sS'maxSteering'
p40
I20
sS'energy'
p41
F1
sS'lastScale'
p42
F15.5
sb.(i__main__
Data_mobile
p1
(dp2
S'vel_y'
p3
F-0.49267524756126152
sS'vel_x'
p4
F0.53867532005879915
sS'pos_x'
p5
F-140.58049181625015
sS'pos_y'
p6
F-37.770608999869417
sS'isAlive'
p7
I01
sS'cumulativeEnergy'
p8
F36.388046860086632
sS'geno'
p9
(i__main__
Node
p10
(dp11
S'depth'
p12
I1
sS'vector'
p13
S'+'
sS'right'
p14
(i__main__
Node
p15
(dp16
g12
I2
sg13
S'+'
sg14
(i__main__
Node
p17
(dp18
g12
I3
sg13
S'indiv.alignment()'
p19
sg14
NsS'parent'
p20
g15
sS'left'
p21
Nsbsg20
g10
sg21
(i__main__
Node
p22
(dp23
g12
I3
sg13
S'indiv.target()'
p24
sg14
Nsg20
g15
sg21
Nsbsbsg20
Nsg21
(i__main__
Node
p25
(dp26
g12
I2
sg13
S'-'
sg14
(i__main__
Node
p27
(dp28
g12
I3
sg13
g19
sg14
Nsg20
g25
sg21
Nsbsg20
g10
sg21
(i__main__
Node
p29
(dp30
g12
I3
sg13
g24
sg14
Nsg20
g25
sg21
NsbsbsbsS'accel_x'
p31
F-0.66746764886960364
sS'accel_y'
p32
F1.6851152511963789
sS'visionAngle'
p33
I130
sS'maxAccel'
p34
I2
sS'maxVel'
p35
F0.72999999999999998
sS'age'
p36
I50
sS'tailSize'
p37
I0
sS'sexualgeno'
p38
NsS'tailBrigh'
p39
I0
sS'maxSteering'
p40
I20
sS'energy'
p41
F1
sS'lastScale'
p42
F15.5
sb.(i__main__
Data_mobile
p1
(dp2
S'vel_y'
p3
F-0.40444112774931029
sS'vel_x'
p4
F0.60772310650893135
sS'pos_x'
p5
F-140.40335503148631
sS'pos_y'
p6
F-37.608076412097006
sS'isAlive'
p7
I01
sS'cumulativeEnergy'
p8
F34.138580268533268
sS'geno'
p9
(i__main__
Node
p10
(dp11
S'depth'
p12
I1
sS'vector'
p13
S'+'
sS'right'
p14
(i__main__
Node
p15
(dp16
g12
I2
sg13
S'-'
sg14
(i__main__
Node
p17
(dp18
g12
I3
sg13
S'indiv.alignment()'
p19
sg14
NsS'parent'
p20
g15
sS'left'
p21
Nsbsg20
g10
sg21
(i__main__
Node
p22
(dp23
g12
I3
sg13
S'indiv.target()'
p24
sg14
Nsg20
g15
sg21
Nsbsbsg20
Nsg21
(i__main__
Node
p25
(dp26
g12
I2
sg13
S'+'
sg14
(i__main__
Node
p27
(dp28
g12
I3
sg13
g19
sg14
Nsg20
g25
sg21
Nsbsg20
g10
sg21
(i__main__
Node
p29
(dp30
g12
I3
sg13
g24
sg14
Nsg20
g25
sg21
NsbsbsbsS'accel_x'
p31
F-1.0217412183972669
sS'accel_y'
p32
F1.3600500756515572
sS'visionAngle'
p33
I130
sS'maxAccel'
p34
I2
sS'maxVel'
p35
F0.72999999999999998
sS'age'
p36
I100
sS'tailSize'
p37
I0
sS'sexualgeno'
p38
NsS'tailBrigh'
p39
I0
sS'maxSteering'
p40
I20
sS'energy'
p41
F1
sS'lastScale'
p42
F15.5
sb.(i__main__
Data_mobile
p1
(dp2
S'vel_y'
p3
F-0.72678927820872197
sS'vel_x'
p4
F-0.068391118435400106
sS'pos_x'
p5
F-178.81484638248094
sS'pos_y'
p6
F9.4642351726490119
sS'isAlive'
p7
I01
sS'cumulativeEnergy'
p8
F33.276334453466511
sS'geno'
p9
(i__main__
Node
p10
(dp11
S'depth'
p12
I1
sS'vector'
p13
S'+'
sS'right'
p14
(i__main__
Node
p15
(dp16
g12
I2
sg13
S'-'
sg14
(i__main__
Node
p17
(dp18
g12
I3
sg13
S'indiv.alignment()'
p19
sg14
NsS'parent'
p20
g15
sS'left'
p21
Nsbsg20
g10
sg21
(i__main__
Node
p22
(dp23
g12
I3
sg13
S'indiv.target()'
p24
sg14
Nsg20
g15
sg21
Nsbsbsg20
Nsg21
(i__main__
Node
p25
(dp26
g12
I2
sg13
S'-'
sg14
(i__main__
Node
p27
(dp28
g12
I3
sg13
g19
sg14
Nsg20
g25
sg21
Nsbsg20
g10
sg21
(i__main__
Node
p29
(dp30
g12
I3
sg13
g24
sg14
Nsg20
g25
sg21
NsbsbsbsS'accel_x'
p31
F0
sS'accel_y'
p32
F0
sS'visionAngle'
p33
I130
sS'maxAccel'
p34
I2
sS'maxVel'
p35
F0.72999999999999998
sS'age'
p36
I100
sS'tailSize'
p37
I0
sS'sexualgeno'
p38
NsS'tailBrigh'
p39
I0
sS'maxSteering'
p40
I20
sS'energy'
p41
F0.37047535177325014
sS'lastScale'
p42
F9.2047535177325024
sb.(i__main__
Data_mobile
p1
(dp2
S'vel_y'
p3
F0.51618795026618181
sS'vel_x'
p4
F0.51618795026617759
sS'pos_x'
p5
F-139.85876095273355
sS'pos_y'
p6
F-33.5142446644182
sS'isAlive'
p7
I01
sS'cumulativeEnergy'
p8
F23.836569738469496
sS'geno'
p9
(i__main__
Node
p10
(dp11
S'depth'
p12
I1
sS'vector'
p13
S'+'
sS'right'
p14
(i__main__
Node
p15
(dp16
g12
I2
sg13
S'-'
sg14
(i__main__
Node
p17
(dp18
g12
I3
sg13
S'indiv.alignment()'
p19
sg14
NsS'parent'
p20
g15
sS'left'
p21
Nsbsg20
g10
sg21
(i__main__
Node
p22
(dp23
g12
I3
sg13
S'indiv.target()'
p24
sg14
Nsg20
g15
sg21
Nsbsbsg20
Nsg21
(i__main__
Node
p25
(dp26
g12
I2
sg13
S'-'
sg14
(i__main__
Node
p27
(dp28
g12
I3
sg13
S'indiv.currentVelocity()'
p29
sg14
Nsg20
g25
sg21
Nsbsg20
g10
sg21
(i__main__
Node
p30
(dp31
g12
I3
sg13
S'indiv.currentEnergy()'
p32
sg14
Nsg20
g25
sg21
NsbsbsbsS'accel_x'
p33
F0.33691613841941903
sS'accel_y'
p34
F0.33691613841941481
sS'visionAngle'
p35
I130
sS'maxAccel'
p36
I2
sS'maxVel'
p37
F0.72999999999999998
sS'age'
p38
I150
sS'tailSize'
p39
I0
sS'sexualgeno'
p40
NsS'tailBrigh'
p41
I0
sS'maxSteering'
p42
I20
sS'energy'
p43
F0.85310408868559662
sS'lastScale'
p44
F14.031040886855967
sb.(i__main__
Data_mobile
p1
(dp2
S'vel_y'
p3
F0.30421352710099436
sS'vel_x'
p4
F-0.66359183985999448
sS'pos_x'
p5
F-201.07420825123256
sS'pos_y'
p6
F61.466334045652587
sS'isAlive'
p7
I01
sS'cumulativeEnergy'
p8
F23.481245061703305
sS'geno'
p9
(i__main__
Node
p10
(dp11
S'depth'
p12
I1
sS'vector'
p13
S'+'
sS'right'
p14
(i__main__
Node
p15
(dp16
g12
I2
sg13
S'-'
sg14
(i__main__
Node
p17
(dp18
g12
I3
sg13
S'indiv.alignment()'
p19
sg14
NsS'parent'
p20
g15
sS'left'
p21
Nsbsg20
g10
sg21
(i__main__
Node
p22
(dp23
g12
I3
sg13
S'indiv.target()'
p24
sg14
Nsg20
g15
sg21
Nsbsbsg20
Nsg21
(i__main__
Node
p25
(dp26
g12
I2
sg13
S'+'
sg14
(i__main__
Node
p27
(dp28
g12
I3
sg13
g19
sg14
Nsg20
g25
sg21
Nsbsg20
g10
sg21
(i__main__
Node
p29
(dp30
g12
I3
sg13
g24
sg14
Nsg20
g25
sg21
NsbsbsbsS'accel_x'
p31
F0
sS'accel_y'
p32
F0
sS'visionAngle'
p33
I130
sS'maxAccel'
p34
I2
sS'maxVel'
p35
F0.72999999999999998
sS'age'
p36
I50
sS'tailSize'
p37
I0
sS'sexualgeno'
p38
NsS'tailBrigh'
p39
I0
sS'maxSteering'
p40
I20
sS'energy'
p41
F0.24825676022439977
sS'lastScale'
p42
F7.9825676022439982
sb.(i__main__
Data_mobile
p1
(dp2
S'vel_y'
p3
F-0.34759597286332916
sS'vel_x'
p4
F-0.64193227029741673
sS'pos_x'
p5
F-191.70143283738525
sS'pos_y'
p6
F37.377901222056273
sS'isAlive'
p7
I01
sS'cumulativeEnergy'
p8
F16.881245061703282
sS'geno'
p9
(i__main__
Node
p10
(dp11
S'depth'
p12
I1
sS'vector'
p13
S'+'
sS'right'
p14
(i__main__
Node
p15
(dp16
g12
I2
sg13
S'-'
sg14
(i__main__
Node
p17
(dp18
g12
I3
sg13
S'indiv.alignment()'
p19
sg14
NsS'parent'
p20
g15
sS'left'
p21
Nsbsg20
g10
sg21
(i__main__
Node
p22
(dp23
g12
I3
sg13
S'indiv.target()'
p24
sg14
Nsg20
g15
sg21
Nsbsbsg20
Nsg21
(i__main__
Node
p25
(dp26
g12
I2
sg13
S'+'
sg14
(i__main__
Node
p27
(dp28
g12
I3
sg13
g19
sg14
Nsg20
g25
sg21
Nsbsg20
g10
sg21
(i__main__
Node
p29
(dp30
g12
I3
sg13
g24
sg14
Nsg20
g25
sg21
NsbsbsbsS'accel_x'
p31
F0
sS'accel_y'
p32
F0
sS'visionAngle'
p33
I130
sS'maxAccel'
p34
I2
sS'maxVel'
p35
F0.72999999999999998
sS'age'
p36
I50
sS'tailSize'
p37
I0
sS'sexualgeno'
p38
NsS'tailBrigh'
p39
I0
sS'maxSteering'
p40
I20
sS'energy'
p41
F0.14825676022439971
sS'lastScale'
p42
F6.9825676022439973
sb.(i__main__
Data_mobile
p1
(dp2
S'vel_y'
p3
F0.07323526704169625
sS'vel_x'
p4
F0.72631714537200032
sS'pos_x'
p5
F-120.24022279288955
sS'pos_y'
p6
F68.254593107097506
sS'isAlive'
p7
I01
sS'cumulativeEnergy'
p8
F15.781245061703292
sS'geno'
p9
(i__main__
Node
p10
(dp11
S'depth'
p12
I1
sS'vector'
p13
S'+'
sS'right'
p14
(i__main__
Node
p15
(dp16
g12
I2
sg13
S'-'
sg14
(i__main__
Node
p17
(dp18
g12
I3
sg13
S'indiv.alignment()'
p19
sg14
NsS'parent'
p20
g15
sS'left'
p21
Nsbsg20
g10
sg21
(i__main__
Node
p22
(dp23
g12
I3
sg13
S'indiv.target()'
p24
sg14
Nsg20
g15
sg21
Nsbsbsg20
Nsg21
(i__main__
Node
p25
(dp26
g12
I2
sg13
S'+'
sg14
(i__main__
Node
p27
(dp28
g12
I3
sg13
g19
sg14
Nsg20
g25
sg21
Nsbsg20
g10
sg21
(i__main__
Node
p29
(dp30
g12
I3
sg13
g24
sg14
Nsg20
g25
sg21
NsbsbsbsS'accel_x'
p31
F0
sS'accel_y'
p32
F0
sS'visionAngle'
p33
I130
sS'maxAccel'
p34
I2
sS'maxVel'
p35
F0.72999999999999998
sS'age'
p36
I50
sS'tailSize'
p37
I0
sS'sexualgeno'
p38
NsS'tailBrigh'
p39
I0
sS'maxSteering'
p40
I20
sS'energy'
p41
F0.098256760224399664
sS'lastScale'
p42
F6.4825676022439964
sb.(i__main__
Data_mobile
p1
(dp2
S'vel_y'
p3
F0.43083250705847864
sS'vel_x'
p4
F-0.43086744212854367
sS'pos_x'
p5
F-159.24122670144419
sS'pos_y'
p6
F17.381714432525055
sS'isAlive'
p7
I01
sS'cumulativeEnergy'
p8
F12.231245061703294
sS'geno'
p9
(i__main__
Node
p10
(dp11
S'depth'
p12
I1
sS'vector'
p13
S'+'
sS'right'
p14
(i__main__
Node
p15
(dp16
g12
I2
sg13
S'+'
sg14
(i__main__
Node
p17
(dp18
g12
I3
sg13
S'indiv.alignment()'
p19
sg14
NsS'parent'
p20
g15
sS'left'
p21
Nsbsg20
g10
sg21
(i__main__
Node
p22
(dp23
g12
I3
sg13
S'indiv.target()'
p24
sg14
Nsg20
g15
sg21
Nsbsbsg20
Nsg21
(i__main__
Node
p25
(dp26
g12
I2
sg13
S'-'
sg14
(i__main__
Node
p27
(dp28
g12
I3
sg13
g19
sg14
Nsg20
g25
sg21
Nsbsg20
g10
sg21
(i__main__
Node
p29
(dp30
g12
I3
sg13
g24
sg14
Nsg20
g25
sg21
NsbsbsbsS'accel_x'
p31
F0
sS'accel_y'
p32
F0
sS'visionAngle'
p33
I130
sS'maxAccel'
p34
I2
sS'maxVel'
p35
F0.72999999999999998
sS'age'
p36
I50
sS'tailSize'
p37
I0
sS'sexualgeno'
p38
NsS'tailBrigh'
p39
I0
sS'maxSteering'
p40
I20
sS'energy'
p41
I0
sS'lastScale'
p42
F5.5
sb.(i__main__
Data_mobile
p1
(dp2
S'vel_y'
p3
F0.0083973964948320171
sS'vel_x'
p4
F0.0083973964948321055
sS'pos_x'
p5
F-114.00598253510792
sS'pos_y'
p6
F41.071171546042699
sS'isAlive'
p7
I01
sS'cumulativeEnergy'
p8
F12.231245061703294
sS'geno'
p9
(i__main__
Node
p10
(dp11
S'depth'
p12
I1
sS'vector'
p13
S'+'
sS'right'
p14
(i__main__
Node
p15
(dp16
g12
I2
sg13
S'+'
sg14
(i__main__
Node
p17
(dp18
g12
I3
sg13
S'indiv.alignment()'
p19
sg14
NsS'parent'
p20
g15
sS'left'
p21
Nsbsg20
g10
sg21
(i__main__
Node
p22
(dp23
g12
I3
sg13
S'indiv.target()'
p24
sg14
Nsg20
g15
sg21
Nsbsbsg20
Nsg21
(i__main__
Node
p25
(dp26
g12
I2
sg13
S'-'
sg14
(i__main__
Node
p27
(dp28
g12
I3
sg13
S'indiv.currentVelocity()'
p29
sg14
Nsg20
g25
sg21
Nsbsg20
g10
sg21
(i__main__
Node
p30
(dp31
g12
I3
sg13
S'indiv.currentEnergy()'
p32
sg14
Nsg20
g25
sg21
NsbsbsbsS'accel_x'
p33
F-0.0083973964948321055
sS'accel_y'
p34
F-0.0083973964948320171
sS'visionAngle'
p35
I130
sS'maxAccel'
p36
I2
sS'maxVel'
p37
F0.72999999999999998
sS'age'
p38
I50
sS'tailSize'
p39
I0
sS'sexualgeno'
p40
NsS'tailBrigh'
p41
I0
sS'maxSteering'
p42
I20
sS'energy'
p43
I0
sS'lastScale'
p44
F5.5
sb.(i__main__
Data_mobile
p1
(dp2
S'vel_y'
p3
F0.47612352796968876
sS'vel_x'
p4
F0.54978225617958976
sS'pos_x'
p5
F-48.587854278866445
sS'pos_y'
p6
F-72.625954647137789
sS'isAlive'
p7
I01
sS'cumulativeEnergy'
p8
F0.5
sS'geno'
p9
(i__main__
Node
p10
(dp11
S'depth'
p12
I1
sS'vector'
p13
S'+'
sS'right'
p14
(i__main__
Node
p15
(dp16
g12
I2
sg13
S'-'
sg14
(i__main__
Node
p17
(dp18
g12
I3
sg13
S'indiv.alignment()'
p19
sg14
NsS'parent'
p20
g15
sS'left'
p21
Nsbsg20
g10
sg21
(i__main__
Node
p22
(dp23
g12
I3
sg13
S'indiv.target()'
p24
sg14
Nsg20
g15
sg21
Nsbsbsg20
Nsg21
(i__main__
Node
p25
(dp26
g12
I2
sg13
S'+'
sg14
(i__main__
Node
p27
(dp28
g12
I3
sg13
g19
sg14
Nsg20
g25
sg21
Nsbsg20
g10
sg21
(i__main__
Node
p29
(dp30
g12
I3
sg13
g24
sg14
Nsg20
g25
sg21
NsbsbsbsS'accel_x'
p31
F0
sS'accel_y'
p32
F0
sS'visionAngle'
p33
I130
sS'maxAccel'
p34
I2
sS'maxVel'
p35
F0.72999999999999998
sS'age'
p36
I0
sS'tailSize'
p37
I0
sS'sexualgeno'
p38
NsS'tailBrigh'
p39
I0
sS'maxSteering'
p40
I20
sS'energy'
p41
F0.5
sS'lastScale'
p42
F5.5
sb.(i__main__
Data_mobile
p1
(dp2
S'vel_y'
p3
F-0.63297875747670185
sS'vel_x'
p4
F0.128373241546061
sS'pos_x'
p5
F-160.50583918858206
sS'pos_y'
p6
F-12.972990280620149
sS'isAlive'
p7
I01
sS'cumulativeEnergy'
p8
F0.5
sS'geno'
p9
(i__main__
Node
p10
(dp11
S'depth'
p12
I1
sS'vector'
p13
S'+'
sS'right'
p14
(i__main__
Node
p15
(dp16
g12
I2
sg13
S'-'
sg14
(i__main__
Node
p17
(dp18
g12
I3
sg13
S'indiv.alignment()'
p19
sg14
NsS'parent'
p20
g15
sS'left'
p21
Nsbsg20
g10
sg21
(i__main__
Node
p22
(dp23
g12
I3
sg13
S'indiv.target()'
p24
sg14
Nsg20
g15
sg21
Nsbsbsg20
Nsg21
(i__main__
Node
p25
(dp26
g12
I2
sg13
S'-'
sg14
(i__main__
Node
p27
(dp28
g12
I3
sg13
g19
sg14
Nsg20
g25
sg21
Nsbsg20
g10
sg21
(i__main__
Node
p29
(dp30
g12
I3
sg13
g24
sg14
Nsg20
g25
sg21
NsbsbsbsS'accel_x'
p31
F0
sS'accel_y'
p32
F0
sS'visionAngle'
p33
I130
sS'maxAccel'
p34
I2
sS'maxVel'
p35
F0.72999999999999998
sS'age'
p36
I0
sS'tailSize'
p37
I0
sS'sexualgeno'
p38
NsS'tailBrigh'
p39
I0
sS'maxSteering'
p40
I20
sS'energy'
p41
F0.5
sS'lastScale'
p42
F5.5
sb.(i__main__
Data_mobile
p1
(dp2
S'vel_y'
p3
F-0.68870787085405571
sS'vel_x'
p4
F0.011483331539554685
sS'pos_x'
p5
F-147.71545829607194
sS'pos_y'
p6
F-28.647278715771684
sS'isAlive'
p7
I01
sS'cumulativeEnergy'
p8
F0.5
sS'geno'
p9
(i__main__
Node
p10
(dp11
S'depth'
p12
I1
sS'vector'
p13
S'+'
sS'right'
p14
(i__main__
Node
p15
(dp16
g12
I2
sg13
S'+'
sg14
(i__main__
Node
p17
(dp18
g12
I3
sg13
S'indiv.alignment()'
p19
sg14
NsS'parent'
p20
g15
sS'left'
p21
Nsbsg20
g10
sg21
(i__main__
Node
p22
(dp23
g12
I3
sg13
S'indiv.target()'
p24
sg14
Nsg20
g15
sg21
Nsbsbsg20
Nsg21
(i__main__
Node
p25
(dp26
g12
I2
sg13
S'-'
sg14
(i__main__
Node
p27
(dp28
g12
I3
sg13
g19
sg14
Nsg20
g25
sg21
Nsbsg20
g10
sg21
(i__main__
Node
p29
(dp30
g12
I3
sg13
g24
sg14
Nsg20
g25
sg21
NsbsbsbsS'accel_x'
p31
F0
sS'accel_y'
p32
F0
sS'visionAngle'
p33
I130
sS'maxAccel'
p34
I2
sS'maxVel'
p35
F0.72999999999999998
sS'age'
p36
I0
sS'tailSize'
p37
I0
sS'sexualgeno'
p38
NsS'tailBrigh'
p39
I0
sS'maxSteering'
p40
I20
sS'energy'
p41
F0.5
sS'lastScale'
p42
F5.5
sb.(i__main__
Data_mobile
p1
(dp2
S'vel_y'
p3
F-0.47837848531258309
sS'vel_x'
p4
F0.54986327987274575
sS'pos_x'
p5
F-140.44560881612568
sS'pos_y'
p6
F-37.646846546542946
sS'isAlive'
p7
I01
sS'cumulativeEnergy'
p8
F0.5
sS'geno'
p9
(i__main__
Node
p10
(dp11
S'depth'
p12
I1
sS'vector'
p13
S'+'
sS'right'
p14
(i__main__
Node
p15
(dp16
g13
S'-'
sg12
I2
sg14
(i__main__
Node
p17
(dp18
g13
S'indiv.separation()'
p19
sg12
I3
sg14
NsS'parent'
p20
g15
sS'left'
p21
Nsbsg20
g10
sg21
(i__main__
Node
p22
(dp23
g13
S'indiv.randV()'
p24
sg12
I3
sg14
Nsg20
g15
sg21
Nsbsbsg20
Nsg21
(i__main__
Node
p25
(dp26
g12
I2
sg13
S'-'
sg14
(i__main__
Node
p27
(dp28
g12
I3
sg13
S'indiv.alignment()'
p29
sg14
Nsg20
g25
sg21
Nsbsg20
g10
sg21
(i__main__
Node
p30
(dp31
g12
I3
sg13
S'indiv.target()'
p32
sg14
Nsg20
g25
sg21
NsbsbsbsS'accel_x'
p33
F0
sS'accel_y'
p34
F0
sS'visionAngle'
p35
I130
sS'maxAccel'
p36
I2
sS'maxVel'
p37
F0.72999999999999998
sS'age'
p38
I0
sS'tailSize'
p39
I0
sS'sexualgeno'
p40
NsS'tailBrigh'
p41
I0
sS'maxSteering'
p42
I20
sS'energy'
p43
F0.5
sS'lastScale'
p44
F5.5
sb.(i__main__
Data_mobile
p1
(dp2
S'vel_y'
p3
F-0.42513443152339553
sS'vel_x'
p4
F0.59152952036577111
sS'pos_x'
p5
F-140.48815295693282
sS'pos_y'
p6
F-37.685883098488702
sS'isAlive'
p7
I01
sS'cumulativeEnergy'
p8
F0.5
sS'geno'
p9
(i__main__
Node
p10
(dp11
S'depth'
p12
I1
sS'vector'
p13
S'+'
sS'right'
p14
(i__main__
Node
p15
(dp16
g12
I2
sg13
S'-'
sg14
(i__main__
Node
p17
(dp18
g12
I3
sg13
S'indiv.alignment()'
p19
sg14
NsS'parent'
p20
g15
sS'left'
p21
Nsbsg20
g10
sg21
(i__main__
Node
p22
(dp23
g12
I3
sg13
S'indiv.target()'
p24
sg14
Nsg20
g15
sg21
Nsbsbsg20
Nsg21
(i__main__
Node
p25
(dp26
g12
I2
sg13
S'+'
sg14
(i__main__
Node
p27
(dp28
g12
I3
sg13
g19
sg14
Nsg20
g25
sg21
Nsbsg20
g10
sg21
(i__main__
Node
p29
(dp30
g12
I3
sg13
g24
sg14
Nsg20
g25
sg21
NsbsbsbsS'accel_x'
p31
F0
sS'accel_y'
p32
F0
sS'visionAngle'
p33
I130
sS'maxAccel'
p34
I2
sS'maxVel'
p35
F0.72999999999999998
sS'age'
p36
I0
sS'tailSize'
p37
I0
sS'sexualgeno'
p38
NsS'tailBrigh'
p39
I0
sS'maxSteering'
p40
I20
sS'energy'
p41
F0.5
sS'lastScale'
p42
F5.5
sb.(i__main__
Data_mobile
p1
(dp2
S'vel_y'
p3
F0.47124462633581882
sS'vel_x'
p4
F0.55387325024900935
sS'pos_x'
p5
F-77.976697064174701
sS'pos_y'
p6
F-60.032150798404579
sS'isAlive'
p7
I01
sS'cumulativeEnergy'
p8
F0.5
sS'geno'
p9
(i__main__
Node
p10
(dp11
S'depth'
p12
I1
sS'vector'
p13
S'+'
sS'right'
p14
(i__main__
Node
p15
(dp16
g12
I2
sg13
S'-'
sg14
(i__main__
Node
p17
(dp18
g12
I3
sg13
S'indiv.currentVelocity()'
p19
sg14
NsS'parent'
p20
g15
sS'left'
p21
Nsbsg20
g10
sg21
(i__main__
Node
p22
(dp23
g12
I3
sg13
S'indiv.currentEnergy()'
p24
sg14
Nsg20
g15
sg21
Nsbsbsg20
Nsg21
(i__main__
Node
p25
(dp26
g12
I2
sg13
S'-'
sg14
(i__main__
Node
p27
(dp28
g12
I3
sg13
S'indiv.alignment()'
p29
sg14
Nsg20
g25
sg21
Nsbsg20
g10
sg21
(i__main__
Node
p30
(dp31
g12
I3
sg13
S'indiv.target()'
p32
sg14
Nsg20
g25
sg21
NsbsbsbsS'accel_x'
p33
F0
sS'accel_y'
p34
F0
sS'visionAngle'
p35
I130
sS'maxAccel'
p36
I2
sS'maxVel'
p37
F0.72999999999999998
sS'age'
p38
I0
sS'tailSize'
p39
I0
sS'sexualgeno'
p40
NsS'tailBrigh'
p41
I0
sS'maxSteering'
p42
I20
sS'energy'
p43
F0.5
sS'lastScale'
p44
F5.5
sb.(i__main__
Data_mobile
p1
(dp2
S'vel_y'
p3
I0
sS'vel_x'
p4
I0
sS'pos_x'
p5
I-9579
sS'pos_y'
p6
I9779
sS'isAlive'
p7
I00
sS'cumulativeEnergy'
p8
F0.5
sS'geno'
p9
(i__main__
Node
p10
(dp11
S'depth'
p12
I1
sS'vector'
p13
S'+'
sS'right'
p14
(i__main__
Node
p15
(dp16
g12
I2
sg13
S'-'
sg14
(i__main__
Node
p17
(dp18
g12
I3
sg13
S'indiv.alignment()'
p19
sg14
NsS'parent'
p20
g15
sS'left'
p21
Nsbsg20
g10
sg21
(i__main__
Node
p22
(dp23
g12
I3
sg13
S'indiv.target()'
p24
sg14
Nsg20
g15
sg21
Nsbsbsg20
Nsg21
(i__main__
Node
p25
(dp26
g12
I2
sg13
S'-'
sg14
(i__main__
Node
p27
(dp28
g12
I3
sg13
g19
sg14
Nsg20
g25
sg21
Nsbsg20
g10
sg21
(i__main__
Node
p29
(dp30
g12
I3
sg13
g24
sg14
Nsg20
g25
sg21
NsbsbsbsS'accel_x'
p31
F0
sS'accel_y'
p32
F0
sS'visionAngle'
p33
I130
sS'maxAccel'
p34
I2
sS'maxVel'
p35
F0.72999999999999998
sS'age'
p36
I0
sS'tailSize'
p37
I0
sS'sexualgeno'
p38
NsS'tailBrigh'
p39
I0
sS'maxSteering'
p40
I20
sS'energy'
p41
F0.5
sS'lastScale'
p42
F5.5
sb.(i__main__
Data_mobile
p1
(dp2
S'vel_y'
p3
I0
sS'vel_x'
p4
I0
sS'pos_x'
p5
I-9579
sS'pos_y'
p6
I9779
sS'isAlive'
p7
I00
sS'cumulativeEnergy'
p8
F0.5
sS'geno'
p9
(i__main__
Node
p10
(dp11
S'depth'
p12
I1
sS'vector'
p13
S'+'
sS'right'
p14
(i__main__
Node
p15
(dp16
g12
I2
sg13
S'+'
sg14
(i__main__
Node
p17
(dp18
g12
I3
sg13
S'indiv.alignment()'
p19
sg14
NsS'parent'
p20
g15
sS'left'
p21
Nsbsg20
g10
sg21
(i__main__
Node
p22
(dp23
g12
I3
sg13
S'indiv.target()'
p24
sg14
Nsg20
g15
sg21
Nsbsbsg20
Nsg21
(i__main__
Node
p25
(dp26
g12
I2
sg13
S'+'
sg14
(i__main__
Node
p27
(dp28
g12
I3
sg13
g19
sg14
Nsg20
g25
sg21
Nsbsg20
g10
sg21
(i__main__
Node
p29
(dp30
g12
I3
sg13
g24
sg14
Nsg20
g25
sg21
NsbsbsbsS'accel_x'
p31
F0
sS'accel_y'
p32
F0
sS'visionAngle'
p33
I130
sS'maxAccel'
p34
I2
sS'maxVel'
p35
F0.72999999999999998
sS'age'
p36
I0
sS'tailSize'
p37
I0
sS'sexualgeno'
p38
NsS'tailBrigh'
p39
I0
sS'maxSteering'
p40
I20
sS'energy'
p41
F0.5
sS'lastScale'
p42
F5.5
sb.(i__main__
Data_mobile
p1
(dp2
S'vel_y'
p3
I0
sS'vel_x'
p4
I0
sS'pos_x'
p5
I-9579
sS'pos_y'
p6
I9779
sS'isAlive'
p7
I00
sS'cumulativeEnergy'
p8
F0.5
sS'geno'
p9
(i__main__
Node
p10
(dp11
S'depth'
p12
I1
sS'vector'
p13
S'+'
sS'right'
p14
(i__main__
Node
p15
(dp16
g12
I2
sg13
S'-'
sg14
(i__main__
Node
p17
(dp18
g12
I3
sg13
S'indiv.alignment()'
p19
sg14
NsS'parent'
p20
g15
sS'left'
p21
Nsbsg20
g10
sg21
(i__main__
Node
p22
(dp23
g12
I3
sg13
S'indiv.target()'
p24
sg14
Nsg20
g15
sg21
Nsbsbsg20
Nsg21
(i__main__
Node
p25
(dp26
g12
I2
sg13
S'-'
sg14
(i__main__
Node
p27
(dp28
g12
I3
sg13
S'indiv.currentVelocity()'
p29
sg14
Nsg20
g25
sg21
Nsbsg20
g10
sg21
(i__main__
Node
p30
(dp31
g12
I3
sg13
S'indiv.currentEnergy()'
p32
sg14
Nsg20
g25
sg21
NsbsbsbsS'accel_x'
p33
F0
sS'accel_y'
p34
F0
sS'visionAngle'
p35
I130
sS'maxAccel'
p36
I2
sS'maxVel'
p37
F0.72999999999999998
sS'age'
p38
I0
sS'tailSize'
p39
I0
sS'sexualgeno'
p40
NsS'tailBrigh'
p41
I0
sS'maxSteering'
p42
I20
sS'energy'
p43
F0.5
sS'lastScale'
p44
F5.5
sb.(i__main__
Data_mobile
p1
(dp2
S'vel_y'
p3
I0
sS'vel_x'
p4
I0
sS'pos_x'
p5
I-9579
sS'pos_y'
p6
I9779
sS'isAlive'
p7
I00
sS'cumulativeEnergy'
p8
F0.5
sS'geno'
p9
(i__main__
Node
p10
(dp11
S'depth'
p12
I1
sS'vector'
p13
S'+'
sS'right'
p14
(i__main__
Node
p15
(dp16
g12
I2
sg13
S'-'
sg14
(i__main__
Node
p17
(dp18
g12
I3
sg13
S'indiv.alignment()'
p19
sg14
NsS'parent'
p20
g15
sS'left'
p21
Nsbsg20
g10
sg21
(i__main__
Node
p22
(dp23
g12
I3
sg13
S'indiv.target()'
p24
sg14
Nsg20
g15
sg21
Nsbsbsg20
Nsg21
(i__main__
Node
p25
(dp26
g12
I2
sg13
S'-'
sg14
(i__main__
Node
p27
(dp28
g12
I3
sg13
g19
sg14
Nsg20
g25
sg21
Nsbsg20
g10
sg21
(i__main__
Node
p29
(dp30
g12
I3
sg13
g24
sg14
Nsg20
g25
sg21
NsbsbsbsS'accel_x'
p31
F0
sS'accel_y'
p32
F0
sS'visionAngle'
p33
I130
sS'maxAccel'
p34
I2
sS'maxVel'
p35
F0.72999999999999998
sS'age'
p36
I0
sS'tailSize'
p37
I0
sS'sexualgeno'
p38
NsS'tailBrigh'
p39
I0
sS'maxSteering'
p40
I20
sS'energy'
p41
F0.5
sS'lastScale'
p42
F5.5
sb.(i__main__
Data_mobile
p1
(dp2
S'vel_y'
p3
I0
sS'vel_x'
p4
I0
sS'pos_x'
p5
I-9579
sS'pos_y'
p6
I9779
sS'isAlive'
p7
I00
sS'cumulativeEnergy'
p8
F0.5
sS'geno'
p9
(i__main__
Node
p10
(dp11
S'depth'
p12
I1
sS'vector'
p13
S'+'
sS'right'
p14
(i__main__
Node
p15
(dp16
g12
I2
sg13
S'+'
sg14
(i__main__
Node
p17
(dp18
g12
I3
sg13
S'indiv.alignment()'
p19
sg14
NsS'parent'
p20
g15
sS'left'
p21
Nsbsg20
g10
sg21
(i__main__
Node
p22
(dp23
g12
I3
sg13
S'indiv.target()'
p24
sg14
Nsg20
g15
sg21
Nsbsbsg20
Nsg21
(i__main__
Node
p25
(dp26
g12
I2
sg13
S'-'
sg14
(i__main__
Node
p27
(dp28
g12
I3
sg13
g19
sg14
Nsg20
g25
sg21
Nsbsg20
g10
sg21
(i__main__
Node
p29
(dp30
g12
I3
sg13
g24
sg14
Nsg20
g25
sg21
NsbsbsbsS'accel_x'
p31
F0
sS'accel_y'
p32
F0
sS'visionAngle'
p33
I130
sS'maxAccel'
p34
I2
sS'maxVel'
p35
F0.72999999999999998
sS'age'
p36
I0
sS'tailSize'
p37
I0
sS'sexualgeno'
p38
NsS'tailBrigh'
p39
I0
sS'maxSteering'
p40
I20
sS'energy'
p41
F0.5
sS'lastScale'
p42
F5.5
sb.(i__main__
Data_mobile
p1
(dp2
S'vel_y'
p3
I0
sS'vel_x'
p4
I0
sS'pos_x'
p5
I-9579
sS'pos_y'
p6
I9779
sS'isAlive'
p7
I00
sS'cumulativeEnergy'
p8
F0.5
sS'geno'
p9
(i__main__
Node
p10
(dp11
S'depth'
p12
I1
sS'vector'
p13
S'+'
sS'right'
p14
(i__main__
Node
p15
(dp16
g12
I2
sg13
S'-'
sg14
(i__main__
Node
p17
(dp18
g12
I3
sg13
S'indiv.alignment()'
p19
sg14
NsS'parent'
p20
g15
sS'left'
p21
Nsbsg20
g10
sg21
(i__main__
Node
p22
(dp23
g12
I3
sg13
S'indiv.target()'
p24
sg14
Nsg20
g15
sg21
Nsbsbsg20
Nsg21
(i__main__
Node
p25
(dp26
g12
I2
sg13
S'+'
sg14
(i__main__
Node
p27
(dp28
g12
I3
sg13
g19
sg14
Nsg20
g25
sg21
Nsbsg20
g10
sg21
(i__main__
Node
p29
(dp30
g12
I3
sg13
g24
sg14
Nsg20
g25
sg21
NsbsbsbsS'accel_x'
p31
F0
sS'accel_y'
p32
F0
sS'visionAngle'
p33
I130
sS'maxAccel'
p34
I2
sS'maxVel'
p35
F0.72999999999999998
sS'age'
p36
I0
sS'tailSize'
p37
I0
sS'sexualgeno'
p38
NsS'tailBrigh'
p39
I0
sS'maxSteering'
p40
I20
sS'energy'
p41
F0.5
sS'lastScale'
p42
F5.5
sb.(i__main__
Data_mobile
p1
(dp2
S'vel_y'
p3
I0
sS'vel_x'
p4
I0
sS'pos_x'
p5
I-9579
sS'pos_y'
p6
I9779
sS'isAlive'
p7
I00
sS'cumulativeEnergy'
p8
F0.5
sS'geno'
p9
(i__main__
Node
p10
(dp11
S'depth'
p12
I1
sS'vector'
p13
S'+'
sS'right'
p14
(i__main__
Node
p15
(dp16
g12
I2
sg13
S'-'
sg14
(i__main__
Node
p17
(dp18
g12
I3
sg13
S'indiv.alignment()'
p19
sg14
NsS'parent'
p20
g15
sS'left'
p21
Nsbsg20
g10
sg21
(i__main__
Node
p22
(dp23
g12
I3
sg13
S'indiv.target()'
p24
sg14
Nsg20
g15
sg21
Nsbsbsg20
Nsg21
(i__main__
Node
p25
(dp26
g12
I2
sg13
S'-'
sg14
(i__main__
Node
p27
(dp28
g12
I3
sg13
g19
sg14
Nsg20
g25
sg21
Nsbsg20
g10
sg21
(i__main__
Node
p29
(dp30
g12
I3
sg13
g24
sg14
Nsg20
g25
sg21
NsbsbsbsS'accel_x'
p31
F0
sS'accel_y'
p32
F0
sS'visionAngle'
p33
I130
sS'maxAccel'
p34
I2
sS'maxVel'
p35
F0.72999999999999998
sS'age'
p36
I0
sS'tailSize'
p37
I0
sS'sexualgeno'
p38
NsS'tailBrigh'
p39
I0
sS'maxSteering'
p40
I20
sS'energy'
p41
F0.5
sS'lastScale'
p42
F5.5
sb.(i__main__
Data_mobile
p1
(dp2
S'vel_y'
p3
I0
sS'vel_x'
p4
I0
sS'pos_x'
p5
I-9579
sS'pos_y'
p6
I9779
sS'isAlive'
p7
I00
sS'cumulativeEnergy'
p8
F0.5
sS'geno'
p9
(i__main__
Node
p10
(dp11
S'depth'
p12
I1
sS'vector'
p13
S'+'
sS'right'
p14
(i__main__
Node
p15
(dp16
g12
I2
sg13
S'+'
sg14
(i__main__
Node
p17
(dp18
g12
I3
sg13
S'indiv.alignment()'
p19
sg14
NsS'parent'
p20
g15
sS'left'
p21
Nsbsg20
g10
sg21
(i__main__
Node
p22
(dp23
g12
I3
sg13
S'indiv.target()'
p24
sg14
Nsg20
g15
sg21
Nsbsbsg20
Nsg21
(i__main__
Node
p25
(dp26
g13
S'-'
sg12
I2
sg14
(i__main__
Node
p27
(dp28
g13
S'indiv.currentVelocity()'
p29
sg12
I3
sg14
Nsg20
g25
sg21
Nsbsg20
g10
sg21
(i__main__
Node
p30
(dp31
g13
S'indiv.currentEnergy()'
p32
sg12
I3
sg14
Nsg20
g25
sg21
NsbsbsbsS'accel_x'
p33
F0
sS'accel_y'
p34
F0
sS'visionAngle'
p35
I130
sS'maxAccel'
p36
I2
sS'maxVel'
p37
F0.72999999999999998
sS'age'
p38
I0
sS'tailSize'
p39
I0
sS'sexualgeno'
p40
NsS'tailBrigh'
p41
I0
sS'maxSteering'
p42
I20
sS'energy'
p43
F0.5
sS'lastScale'
p44
F5.5
sb.(i__main__
Data_mobile
p1
(dp2
S'vel_y'
p3
I0
sS'vel_x'
p4
I0
sS'pos_x'
p5
I-9579
sS'pos_y'
p6
I9779
sS'isAlive'
p7
I00
sS'cumulativeEnergy'
p8
F0.5
sS'geno'
p9
(i__main__
Node
p10
(dp11
S'depth'
p12
I1
sS'vector'
p13
S'+'
sS'right'
p14
(i__main__
Node
p15
(dp16
g12
I2
sg13
S'-'
sg14
(i__main__
Node
p17
(dp18
g12
I3
sg13
S'indiv.alignment()'
p19
sg14
NsS'parent'
p20
g15
sS'left'
p21
Nsbsg20
g10
sg21
(i__main__
Node
p22
(dp23
g12
I3
sg13
S'indiv.target()'
p24
sg14
Nsg20
g15
sg21
Nsbsbsg20
Nsg21
(i__main__
Node
p25
(dp26
g12
I2
sg13
S'+'
sg14
(i__main__
Node
p27
(dp28
g12
I3
sg13
g19
sg14
Nsg20
g25
sg21
Nsbsg20
g10
sg21
(i__main__
Node
p29
(dp30
g12
I3
sg13
g24
sg14
Nsg20
g25
sg21
NsbsbsbsS'accel_x'
p31
F0
sS'accel_y'
p32
F0
sS'visionAngle'
p33
I130
sS'maxAccel'
p34
I2
sS'maxVel'
p35
F0.72999999999999998
sS'age'
p36
I0
sS'tailSize'
p37
I0
sS'sexualgeno'
p38
NsS'tailBrigh'
p39
I0
sS'maxSteering'
p40
I20
sS'energy'
p41
F0.5
sS'lastScale'
p42
F5.5
sb.(i__main__
Data_mobile
p1
(dp2
S'vel_y'
p3
I0
sS'vel_x'
p4
I0
sS'pos_x'
p5
I-9579
sS'pos_y'
p6
I9779
sS'isAlive'
p7
I00
sS'cumulativeEnergy'
p8
F0.5
sS'geno'
p9
(i__main__
Node
p10
(dp11
S'depth'
p12
I1
sS'vector'
p13
S'+'
sS'right'
p14
(i__main__
Node
p15
(dp16
g12
I2
sg13
S'-'
sg14
(i__main__
Node
p17
(dp18
g12
I3
sg13
S'indiv.alignment()'
p19
sg14
NsS'parent'
p20
g15
sS'left'
p21
Nsbsg20
g10
sg21
(i__main__
Node
p22
(dp23
g12
I3
sg13
S'indiv.target()'
p24
sg14
Nsg20
g15
sg21
Nsbsbsg20
Nsg21
(i__main__
Node
p25
(dp26
g12
I2
sg13
S'+'
sg14
(i__main__
Node
p27
(dp28
g12
I3
sg13
g19
sg14
Nsg20
g25
sg21
Nsbsg20
g10
sg21
(i__main__
Node
p29
(dp30
g12
I3
sg13
g24
sg14
Nsg20
g25
sg21
NsbsbsbsS'accel_x'
p31
F0
sS'accel_y'
p32
F0
sS'visionAngle'
p33
I130
sS'maxAccel'
p34
I2
sS'maxVel'
p35
F0.72999999999999998
sS'age'
p36
I0
sS'tailSize'
p37
I0
sS'sexualgeno'
p38
NsS'tailBrigh'
p39
I0
sS'maxSteering'
p40
I20
sS'energy'
p41
F0.5
sS'lastScale'
p42
F5.5
sb.(i__main__
Data_mobile
p1
(dp2
S'vel_y'
p3
I0
sS'vel_x'
p4
I0
sS'pos_x'
p5
I-9579
sS'pos_y'
p6
I9779
sS'isAlive'
p7
I00
sS'cumulativeEnergy'
p8
F0.5
sS'geno'
p9
(i__main__
Node
p10
(dp11
S'depth'
p12
I1
sS'vector'
p13
S'+'
sS'right'
p14
(i__main__
Node
p15
(dp16
g12
I2
sg13
S'+'
sg14
(i__main__
Node
p17
(dp18
g12
I3
sg13
S'indiv.alignment()'
p19
sg14
NsS'parent'
p20
g15
sS'left'
p21
Nsbsg20
g10
sg21
(i__main__
Node
p22
(dp23
g12
I3
sg13
S'indiv.target()'
p24
sg14
Nsg20
g15
sg21
Nsbsbsg20
Nsg21
(i__main__
Node
p25
(dp26
g12
I2
sg13
S'+'
sg14
(i__main__
Node
p27
(dp28
g12
I3
sg13
g19
sg14
Nsg20
g25
sg21
Nsbsg20
g10
sg21
(i__main__
Node
p29
(dp30
g12
I3
sg13
g24
sg14
Nsg20
g25
sg21
NsbsbsbsS'accel_x'
p31
F0
sS'accel_y'
p32
F0
sS'visionAngle'
p33
I130
sS'maxAccel'
p34
I2
sS'maxVel'
p35
F0.72999999999999998
sS'age'
p36
I0
sS'tailSize'
p37
I0
sS'sexualgeno'
p38
NsS'tailBrigh'
p39
I0
sS'maxSteering'
p40
I20
sS'energy'
p41
F0.5
sS'lastScale'
p42
F5.5
sb.(i__main__
Data_mobile
p1
(dp2
S'vel_y'
p3
I0
sS'vel_x'
p4
I0
sS'pos_x'
p5
I-9579
sS'pos_y'
p6
I9779
sS'isAlive'
p7
I00
sS'cumulativeEnergy'
p8
F0.5
sS'geno'
p9
(i__main__
Node
p10
(dp11
S'depth'
p12
I1
sS'vector'
p13
S'+'
sS'right'
p14
(i__main__
Node
p15
(dp16
g12
I2
sg13
S'+'
sg14
(i__main__
Node
p17
(dp18
g12
I3
sg13
S'indiv.alignment()'
p19
sg14
NsS'parent'
p20
g15
sS'left'
p21
Nsbsg20
g10
sg21
(i__main__
Node
p22
(dp23
g12
I3
sg13
S'indiv.target()'
p24
sg14
Nsg20
g15
sg21
Nsbsbsg20
Nsg21
(i__main__
Node
p25
(dp26
g12
I2
sg13
S'+'
sg14
(i__main__
Node
p27
(dp28
g12
I3
sg13
g19
sg14
Nsg20
g25
sg21
Nsbsg20
g10
sg21
(i__main__
Node
p29
(dp30
g12
I3
sg13
g24
sg14
Nsg20
g25
sg21
NsbsbsbsS'accel_x'
p31
F0
sS'accel_y'
p32
F0
sS'visionAngle'
p33
I130
sS'maxAccel'
p34
I2
sS'maxVel'
p35
F0.72999999999999998
sS'age'
p36
I0
sS'tailSize'
p37
I0
sS'sexualgeno'
p38
NsS'tailBrigh'
p39
I0
sS'maxSteering'
p40
I20
sS'energy'
p41
F0.5
sS'lastScale'
p42
F5.5
sb.(i__main__
Data_mobile
p1
(dp2
S'vel_y'
p3
I0
sS'vel_x'
p4
I0
sS'pos_x'
p5
I-9579
sS'pos_y'
p6
I9779
sS'isAlive'
p7
I00
sS'cumulativeEnergy'
p8
F0.5
sS'geno'
p9
(i__main__
Node
p10
(dp11
S'depth'
p12
I1
sS'vector'
p13
S'+'
sS'right'
p14
(i__main__
Node
p15
(dp16
g12
I2
sg13
S'+'
sg14
(i__main__
Node
p17
(dp18
g12
I3
sg13
S'indiv.alignment()'
p19
sg14
NsS'parent'
p20
g15
sS'left'
p21
Nsbsg20
g10
sg21
(i__main__
Node
p22
(dp23
g12
I3
sg13
S'indiv.target()'
p24
sg14
Nsg20
g15
sg21
Nsbsbsg20
Nsg21
(i__main__
Node
p25
(dp26
g12
I2
sg13
S'+'
sg14
(i__main__
Node
p27
(dp28
g12
I3
sg13
g19
sg14
Nsg20
g25
sg21
Nsbsg20
g10
sg21
(i__main__
Node
p29
(dp30
g12
I3
sg13
g24
sg14
Nsg20
g25
sg21
NsbsbsbsS'accel_x'
p31
F0
sS'accel_y'
p32
F0
sS'visionAngle'
p33
I130
sS'maxAccel'
p34
I2
sS'maxVel'
p35
F0.72999999999999998
sS'age'
p36
I0
sS'tailSize'
p37
I0
sS'sexualgeno'
p38
NsS'tailBrigh'
p39
I0
sS'maxSteering'
p40
I20
sS'energy'
p41
F0.5
sS'lastScale'
p42
F5.5
sb.(i__main__
Data_mobile
p1
(dp2
S'vel_y'
p3
I0
sS'vel_x'
p4
I0
sS'pos_x'
p5
I-9579
sS'pos_y'
p6
I9779
sS'isAlive'
p7
I00
sS'cumulativeEnergy'
p8
F0.5
sS'geno'
p9
(i__main__
Node
p10
(dp11
S'depth'
p12
I1
sS'vector'
p13
S'+'
sS'right'
p14
(i__main__
Node
p15
(dp16
g12
I2
sg13
S'+'
sg14
(i__main__
Node
p17
(dp18
g12
I3
sg13
S'indiv.alignment()'
p19
sg14
NsS'parent'
p20
g15
sS'left'
p21
Nsbsg20
g10
sg21
(i__main__
Node
p22
(dp23
g12
I3
sg13
S'indiv.target()'
p24
sg14
Nsg20
g15
sg21
Nsbsbsg20
Nsg21
(i__main__
Node
p25
(dp26
g12
I2
sg13
S'+'
sg14
(i__main__
Node
p27
(dp28
g12
I3
sg13
g19
sg14
Nsg20
g25
sg21
Nsbsg20
g10
sg21
(i__main__
Node
p29
(dp30
g12
I3
sg13
g24
sg14
Nsg20
g25
sg21
NsbsbsbsS'accel_x'
p31
F0
sS'accel_y'
p32
F0
sS'visionAngle'
p33
I130
sS'maxAccel'
p34
I2
sS'maxVel'
p35
F0.72999999999999998
sS'age'
p36
I0
sS'tailSize'
p37
I0
sS'sexualgeno'
p38
NsS'tailBrigh'
p39
I0
sS'maxSteering'
p40
I20
sS'energy'
p41
F0.5
sS'lastScale'
p42
F5.5
sb.(i__main__
Data_mobile
p1
(dp2
S'vel_y'
p3
I0
sS'vel_x'
p4
I0
sS'pos_x'
p5
I-9579
sS'pos_y'
p6
I9779
sS'isAlive'
p7
I00
sS'cumulativeEnergy'
p8
F0.5
sS'geno'
p9
(i__main__
Node
p10
(dp11
S'depth'
p12
I1
sS'vector'
p13
S'+'
sS'right'
p14
(i__main__
Node
p15
(dp16
g12
I2
sg13
S'+'
sg14
(i__main__
Node
p17
(dp18
g12
I3
sg13
S'indiv.alignment()'
p19
sg14
NsS'parent'
p20
g15
sS'left'
p21
Nsbsg20
g10
sg21
(i__main__
Node
p22
(dp23
g12
I3
sg13
S'indiv.target()'
p24
sg14
Nsg20
g15
sg21
Nsbsbsg20
Nsg21
(i__main__
Node
p25
(dp26
g12
I2
sg13
S'-'
sg14
(i__main__
Node
p27
(dp28
g12
I3
sg13
g19
sg14
Nsg20
g25
sg21
Nsbsg20
g10
sg21
(i__main__
Node
p29
(dp30
g12
I3
sg13
g24
sg14
Nsg20
g25
sg21
NsbsbsbsS'accel_x'
p31
F0
sS'accel_y'
p32
F0
sS'visionAngle'
p33
I130
sS'maxAccel'
p34
I2
sS'maxVel'
p35
F0.72999999999999998
sS'age'
p36
I0
sS'tailSize'
p37
I0
sS'sexualgeno'
p38
NsS'tailBrigh'
p39
I0
sS'maxSteering'
p40
I20
sS'energy'
p41
F0.5
sS'lastScale'
p42
F5.5
sb.(i__main__
Data_mobile
p1
(dp2
S'vel_y'
p3
I0
sS'vel_x'
p4
I0
sS'pos_x'
p5
I-9579
sS'pos_y'
p6
I9779
sS'isAlive'
p7
I00
sS'cumulativeEnergy'
p8
F0.5
sS'geno'
p9
(i__main__
Node
p10
(dp11
S'depth'
p12
I1
sS'vector'
p13
S'+'
sS'right'
p14
(i__main__
Node
p15
(dp16
g12
I2
sg13
S'+'
sg14
(i__main__
Node
p17
(dp18
g12
I3
sg13
S'indiv.alignment()'
p19
sg14
NsS'parent'
p20
g15
sS'left'
p21
Nsbsg20
g10
sg21
(i__main__
Node
p22
(dp23
g12
I3
sg13
S'indiv.target()'
p24
sg14
Nsg20
g15
sg21
Nsbsbsg20
Nsg21
(i__main__
Node
p25
(dp26
g12
I2
sg13
S'-'
sg14
(i__main__
Node
p27
(dp28
g12
I3
sg13
g19
sg14
Nsg20
g25
sg21
Nsbsg20
g10
sg21
(i__main__
Node
p29
(dp30
g12
I3
sg13
g24
sg14
Nsg20
g25
sg21
NsbsbsbsS'accel_x'
p31
F0
sS'accel_y'
p32
F0
sS'visionAngle'
p33
I130
sS'maxAccel'
p34
I2
sS'maxVel'
p35
F0.72999999999999998
sS'age'
p36
I0
sS'tailSize'
p37
I0
sS'sexualgeno'
p38
NsS'tailBrigh'
p39
I0
sS'maxSteering'
p40
I20
sS'energy'
p41
F0.5
sS'lastScale'
p42
F5.5
sb.(i__main__
Data_mobile
p1
(dp2
S'vel_y'
p3
I0
sS'vel_x'
p4
I0
sS'pos_x'
p5
I-9579
sS'pos_y'
p6
I9779
sS'isAlive'
p7
I00
sS'cumulativeEnergy'
p8
F0.5
sS'geno'
p9
(i__main__
Node
p10
(dp11
S'depth'
p12
I1
sS'vector'
p13
S'+'
sS'right'
p14
(i__main__
Node
p15
(dp16
g12
I2
sg13
S'+'
sg14
(i__main__
Node
p17
(dp18
g12
I3
sg13
S'indiv.alignment()'
p19
sg14
NsS'parent'
p20
g15
sS'left'
p21
Nsbsg20
g10
sg21
(i__main__
Node
p22
(dp23
g12
I3
sg13
S'indiv.target()'
p24
sg14
Nsg20
g15
sg21
Nsbsbsg20
Nsg21
(i__main__
Node
p25
(dp26
g12
I2
sg13
S'+'
sg14
(i__main__
Node
p27
(dp28
g12
I3
sg13
g19
sg14
Nsg20
g25
sg21
Nsbsg20
g10
sg21
(i__main__
Node
p29
(dp30
g12
I3
sg13
g24
sg14
Nsg20
g25
sg21
NsbsbsbsS'accel_x'
p31
F0
sS'accel_y'
p32
F0
sS'visionAngle'
p33
I130
sS'maxAccel'
p34
I2
sS'maxVel'
p35
F0.72999999999999998
sS'age'
p36
I0
sS'tailSize'
p37
I0
sS'sexualgeno'
p38
NsS'tailBrigh'
p39
I0
sS'maxSteering'
p40
I20
sS'energy'
p41
F0.5
sS'lastScale'
p42
F5.5
sb.(i__main__
Data_mobile
p1
(dp2
S'vel_y'
p3
I0
sS'vel_x'
p4
I0
sS'pos_x'
p5
I-9579
sS'pos_y'
p6
I9779
sS'isAlive'
p7
I00
sS'cumulativeEnergy'
p8
F0.5
sS'geno'
p9
(i__main__
Node
p10
(dp11
S'depth'
p12
I1
sS'vector'
p13
S'+'
sS'right'
p14
(i__main__
Node
p15
(dp16
g12
I2
sg13
S'+'
sg14
(i__main__
Node
p17
(dp18
g12
I3
sg13
S'indiv.alignment()'
p19
sg14
NsS'parent'
p20
g15
sS'left'
p21
Nsbsg20
g10
sg21
(i__main__
Node
p22
(dp23
g12
I3
sg13
S'indiv.target()'
p24
sg14
Nsg20
g15
sg21
Nsbsbsg20
Nsg21
(i__main__
Node
p25
(dp26
g12
I2
sg13
S'+'
sg14
(i__main__
Node
p27
(dp28
g12
I3
sg13
g19
sg14
Nsg20
g25
sg21
Nsbsg20
g10
sg21
(i__main__
Node
p29
(dp30
g12
I3
sg13
g24
sg14
Nsg20
g25
sg21
NsbsbsbsS'accel_x'
p31
F0
sS'accel_y'
p32
F0
sS'visionAngle'
p33
I130
sS'maxAccel'
p34
I2
sS'maxVel'
p35
F0.72999999999999998
sS'age'
p36
I0
sS'tailSize'
p37
I0
sS'sexualgeno'
p38
NsS'tailBrigh'
p39
I0
sS'maxSteering'
p40
I20
sS'energy'
p41
F0.5
sS'lastScale'
p42
F5.5
sb.(i__main__
Data_mobile
p1
(dp2
S'vel_y'
p3
I0
sS'vel_x'
p4
I0
sS'pos_x'
p5
I-9579
sS'pos_y'
p6
I9779
sS'isAlive'
p7
I00
sS'cumulativeEnergy'
p8
F0.5
sS'geno'
p9
(i__main__
Node
p10
(dp11
S'depth'
p12
I1
sS'vector'
p13
S'+'
sS'right'
p14
(i__main__
Node
p15
(dp16
g12
I2
sg13
S'+'
sg14
(i__main__
Node
p17
(dp18
g12
I3
sg13
S'indiv.alignment()'
p19
sg14
NsS'parent'
p20
g15
sS'left'
p21
Nsbsg20
g10
sg21
(i__main__
Node
p22
(dp23
g12
I3
sg13
S'indiv.target()'
p24
sg14
Nsg20
g15
sg21
Nsbsbsg20
Nsg21
(i__main__
Node
p25
(dp26
g13
S'*'
sg12
I2
sg14
(i__main__
Node
p27
(dp28
g13
S'*'
sg12
I3
sg14
(i__main__
Node
p29
(dp30
g13
S'indiv.separation()'
p31
sg12
I4
sg14
Nsg20
g27
sg21
Nsbsg20
g25
sg21
(i__main__
Node
p32
(dp33
g13
S'indiv.currentEnergy()'
p34
sg12
I4
sg14
Nsg20
g27
sg21
Nsbsbsg20
g10
sg21
(i__main__
Node
p35
(dp36
g13
S'/'
sg12
I3
sg14
(i__main__
Node
p37
(dp38
g13
S'indiv.cohesion()'
p39
sg12
I4
sg14
Nsg20
g35
sg21
Nsbsg20
g25
sg21
(i__main__
Node
p40
(dp41
g13
g31
sg12
I4
sg14
Nsg20
g35
sg21
NsbsbsbsbsS'accel_x'
p42
F0
sS'accel_y'
p43
F0
sS'visionAngle'
p44
I130
sS'maxAccel'
p45
I2
sS'maxVel'
p46
F0.72999999999999998
sS'age'
p47
I0
sS'tailSize'
p48
I0
sS'sexualgeno'
p49
NsS'tailBrigh'
p50
I0
sS'maxSteering'
p51
I20
sS'energy'
p52
F0.5
sS'lastScale'
p53
F5.5
sb.(i__main__
Data_mobile
p1
(dp2
S'vel_y'
p3
I0
sS'vel_x'
p4
I0
sS'pos_x'
p5
I-9579
sS'pos_y'
p6
I9779
sS'isAlive'
p7
I00
sS'cumulativeEnergy'
p8
F0.5
sS'geno'
p9
(i__main__
Node
p10
(dp11
S'depth'
p12
I1
sS'vector'
p13
S'+'
sS'right'
p14
(i__main__
Node
p15
(dp16
g12
I2
sg13
S'-'
sg14
(i__main__
Node
p17
(dp18
g12
I3
sg13
S'indiv.alignment()'
p19
sg14
NsS'parent'
p20
g15
sS'left'
p21
Nsbsg20
g10
sg21
(i__main__
Node
p22
(dp23
g12
I3
sg13
S'indiv.target()'
p24
sg14
Nsg20
g15
sg21
Nsbsbsg20
Nsg21
(i__main__
Node
p25
(dp26
g12
I2
sg13
S'+'
sg14
(i__main__
Node
p27
(dp28
g12
I3
sg13
g19
sg14
Nsg20
g25
sg21
Nsbsg20
g10
sg21
(i__main__
Node
p29
(dp30
g12
I3
sg13
g24
sg14
Nsg20
g25
sg21
NsbsbsbsS'accel_x'
p31
F0
sS'accel_y'
p32
F0
sS'visionAngle'
p33
I130
sS'maxAccel'
p34
I2
sS'maxVel'
p35
F0.72999999999999998
sS'age'
p36
I0
sS'tailSize'
p37
I0
sS'sexualgeno'
p38
NsS'tailBrigh'
p39
I0
sS'maxSteering'
p40
I20
sS'energy'
p41
F0.5
sS'lastScale'
p42
F5.5
sb.(i__main__
Data_mobile
p1
(dp2
S'vel_y'
p3
I0
sS'vel_x'
p4
I0
sS'pos_x'
p5
I-9579
sS'pos_y'
p6
I9779
sS'isAlive'
p7
I00
sS'cumulativeEnergy'
p8
F0.5
sS'geno'
p9
(i__main__
Node
p10
(dp11
S'depth'
p12
I1
sS'vector'
p13
S'+'
sS'right'
p14
(i__main__
Node
p15
(dp16
g12
I2
sg13
S'-'
sg14
(i__main__
Node
p17
(dp18
g12
I3
sg13
S'indiv.alignment()'
p19
sg14
NsS'parent'
p20
g15
sS'left'
p21
Nsbsg20
g10
sg21
(i__main__
Node
p22
(dp23
g12
I3
sg13
S'indiv.target()'
p24
sg14
Nsg20
g15
sg21
Nsbsbsg20
Nsg21
(i__main__
Node
p25
(dp26
g12
I2
sg13
S'+'
sg14
(i__main__
Node
p27
(dp28
g12
I3
sg13
g19
sg14
Nsg20
g25
sg21
Nsbsg20
g10
sg21
(i__main__
Node
p29
(dp30
g12
I3
sg13
g24
sg14
Nsg20
g25
sg21
NsbsbsbsS'accel_x'
p31
F0
sS'accel_y'
p32
F0
sS'visionAngle'
p33
I130
sS'maxAccel'
p34
I2
sS'maxVel'
p35
F0.72999999999999998
sS'age'
p36
I0
sS'tailSize'
p37
I0
sS'sexualgeno'
p38
NsS'tailBrigh'
p39
I0
sS'maxSteering'
p40
I20
sS'energy'
p41
F0.5
sS'lastScale'
p42
F5.5
sb.(i__main__
Data_mobile
p1
(dp2
S'vel_y'
p3
I0
sS'vel_x'
p4
I0
sS'pos_x'
p5
I-9579
sS'pos_y'
p6
I9779
sS'isAlive'
p7
I00
sS'cumulativeEnergy'
p8
F0.5
sS'geno'
p9
(i__main__
Node
p10
(dp11
S'depth'
p12
I1
sS'vector'
p13
S'+'
sS'right'
p14
(i__main__
Node
p15
(dp16
g12
I2
sg13
S'+'
sg14
(i__main__
Node
p17
(dp18
g12
I3
sg13
S'indiv.alignment()'
p19
sg14
NsS'parent'
p20
g15
sS'left'
p21
Nsbsg20
g10
sg21
(i__main__
Node
p22
(dp23
g12
I3
sg13
S'indiv.target()'
p24
sg14
Nsg20
g15
sg21
Nsbsbsg20
Nsg21
(i__main__
Node
p25
(dp26
g13
g24
sg12
I2
sg14
Nsg20
g10
sg21
NsbsbsS'accel_x'
p27
F0
sS'accel_y'
p28
F0
sS'visionAngle'
p29
I130
sS'maxAccel'
p30
I2
sS'maxVel'
p31
F0.72999999999999998
sS'age'
p32
I0
sS'tailSize'
p33
I0
sS'sexualgeno'
p34
NsS'tailBrigh'
p35
I0
sS'maxSteering'
p36
I20
sS'energy'
p37
F0.5
sS'lastScale'
p38
F5.5
sb.(i__main__
Data_mobile
p1
(dp2
S'vel_y'
p3
I0
sS'vel_x'
p4
I0
sS'pos_x'
p5
I-9579
sS'pos_y'
p6
I9779
sS'isAlive'
p7
I00
sS'cumulativeEnergy'
p8
F0.5
sS'geno'
p9
(i__main__
Node
p10
(dp11
S'depth'
p12
I1
sS'vector'
p13
S'+'
sS'right'
p14
(i__main__
Node
p15
(dp16
g12
I2
sg13
S'+'
sg14
(i__main__
Node
p17
(dp18
g12
I3
sg13
S'indiv.alignment()'
p19
sg14
NsS'parent'
p20
g15
sS'left'
p21
Nsbsg20
g10
sg21
(i__main__
Node
p22
(dp23
g12
I3
sg13
S'indiv.target()'
p24
sg14
Nsg20
g15
sg21
Nsbsbsg20
Nsg21
(i__main__
Node
p25
(dp26
g12
I2
sg13
S'+'
sg14
(i__main__
Node
p27
(dp28
g12
I3
sg13
g19
sg14
Nsg20
g25
sg21
Nsbsg20
g10
sg21
(i__main__
Node
p29
(dp30
g12
I3
sg13
g24
sg14
Nsg20
g25
sg21
NsbsbsbsS'accel_x'
p31
F0
sS'accel_y'
p32
F0
sS'visionAngle'
p33
I130
sS'maxAccel'
p34
I2
sS'maxVel'
p35
F0.72999999999999998
sS'age'
p36
I0
sS'tailSize'
p37
I0
sS'sexualgeno'
p38
NsS'tailBrigh'
p39
I0
sS'maxSteering'
p40
I20
sS'energy'
p41
F0.5
sS'lastScale'
p42
F5.5
sb.(i__main__
Data_mobile
p1
(dp2
S'vel_y'
p3
I0
sS'vel_x'
p4
I0
sS'pos_x'
p5
I-9579
sS'pos_y'
p6
I9779
sS'isAlive'
p7
I00
sS'cumulativeEnergy'
p8
F0.5
sS'geno'
p9
(i__main__
Node
p10
(dp11
S'depth'
p12
I1
sS'vector'
p13
S'+'
sS'right'
p14
(i__main__
Node
p15
(dp16
g12
I2
sg13
S'+'
sg14
(i__main__
Node
p17
(dp18
g12
I3
sg13
S'indiv.alignment()'
p19
sg14
NsS'parent'
p20
g15
sS'left'
p21
Nsbsg20
g10
sg21
(i__main__
Node
p22
(dp23
g12
I3
sg13
S'indiv.target()'
p24
sg14
Nsg20
g15
sg21
Nsbsbsg20
Nsg21
(i__main__
Node
p25
(dp26
g12
I2
sg13
S'-'
sg14
(i__main__
Node
p27
(dp28
g12
I3
sg13
g19
sg14
Nsg20
g25
sg21
Nsbsg20
g10
sg21
(i__main__
Node
p29
(dp30
g12
I3
sg13
g24
sg14
Nsg20
g25
sg21
NsbsbsbsS'accel_x'
p31
F0
sS'accel_y'
p32
F0
sS'visionAngle'
p33
I130
sS'maxAccel'
p34
I2
sS'maxVel'
p35
F0.72999999999999998
sS'age'
p36
I0
sS'tailSize'
p37
I0
sS'sexualgeno'
p38
NsS'tailBrigh'
p39
I0
sS'maxSteering'
p40
I20
sS'energy'
p41
F0.5
sS'lastScale'
p42
F5.5
sb.(i__main__
Data_mobile
p1
(dp2
S'vel_y'
p3
I0
sS'vel_x'
p4
I0
sS'pos_x'
p5
I-9579
sS'pos_y'
p6
I9779
sS'isAlive'
p7
I00
sS'cumulativeEnergy'
p8
F0.5
sS'geno'
p9
(i__main__
Node
p10
(dp11
S'depth'
p12
I1
sS'vector'
p13
S'+'
sS'right'
p14
(i__main__
Node
p15
(dp16
g12
I2
sg13
S'-'
sg14
(i__main__
Node
p17
(dp18
g12
I3
sg13
S'indiv.alignment()'
p19
sg14
NsS'parent'
p20
g15
sS'left'
p21
Nsbsg20
g10
sg21
(i__main__
Node
p22
(dp23
g12
I3
sg13
S'indiv.target()'
p24
sg14
Nsg20
g15
sg21
Nsbsbsg20
Nsg21
(i__main__
Node
p25
(dp26
g12
I2
sg13
S'+'
sg14
(i__main__
Node
p27
(dp28
g12
I3
sg13
g19
sg14
Nsg20
g25
sg21
Nsbsg20
g10
sg21
(i__main__
Node
p29
(dp30
g12
I3
sg13
g24
sg14
Nsg20
g25
sg21
NsbsbsbsS'accel_x'
p31
F0
sS'accel_y'
p32
F0
sS'visionAngle'
p33
I130
sS'maxAccel'
p34
I2
sS'maxVel'
p35
F0.72999999999999998
sS'age'
p36
I0
sS'tailSize'
p37
I0
sS'sexualgeno'
p38
NsS'tailBrigh'
p39
I0
sS'maxSteering'
p40
I20
sS'energy'
p41
F0.5
sS'lastScale'
p42
F5.5
sb.(i__main__
Data_mobile
p1
(dp2
S'vel_y'
p3
I0
sS'vel_x'
p4
I0
sS'pos_x'
p5
I-9579
sS'pos_y'
p6
I9779
sS'isAlive'
p7
I00
sS'cumulativeEnergy'
p8
F0.5
sS'geno'
p9
(i__main__
Node
p10
(dp11
S'depth'
p12
I1
sS'vector'
p13
S'+'
sS'right'
p14
(i__main__
Node
p15
(dp16
g12
I2
sg13
S'+'
sg14
(i__main__
Node
p17
(dp18
g12
I3
sg13
S'indiv.alignment()'
p19
sg14
NsS'parent'
p20
g15
sS'left'
p21
Nsbsg20
g10
sg21
(i__main__
Node
p22
(dp23
g12
I3
sg13
S'indiv.target()'
p24
sg14
Nsg20
g15
sg21
Nsbsbsg20
Nsg21
(i__main__
Node
p25
(dp26
g12
I2
sg13
S'+'
sg14
(i__main__
Node
p27
(dp28
g12
I3
sg13
g19
sg14
Nsg20
g25
sg21
Nsbsg20
g10
sg21
(i__main__
Node
p29
(dp30
g12
I3
sg13
g24
sg14
Nsg20
g25
sg21
NsbsbsbsS'accel_x'
p31
F0
sS'accel_y'
p32
F0
sS'visionAngle'
p33
I130
sS'maxAccel'
p34
I2
sS'maxVel'
p35
F0.72999999999999998
sS'age'
p36
I0
sS'tailSize'
p37
I0
sS'sexualgeno'
p38
NsS'tailBrigh'
p39
I0
sS'maxSteering'
p40
I20
sS'energy'
p41
F0.5
sS'lastScale'
p42
F5.5
sb.(i__main__
Data_mobile
p1
(dp2
S'vel_y'
p3
I0
sS'vel_x'
p4
I0
sS'pos_x'
p5
I-9579
sS'pos_y'
p6
I9779
sS'isAlive'
p7
I00
sS'cumulativeEnergy'
p8
F0.5
sS'geno'
p9
(i__main__
Node
p10
(dp11
S'depth'
p12
I1
sS'vector'
p13
S'+'
sS'right'
p14
(i__main__
Node
p15
(dp16
g12
I2
sg13
S'+'
sg14
(i__main__
Node
p17
(dp18
g12
I3
sg13
S'indiv.alignment()'
p19
sg14
NsS'parent'
p20
g15
sS'left'
p21
Nsbsg20
g10
sg21
(i__main__
Node
p22
(dp23
g12
I3
sg13
S'indiv.target()'
p24
sg14
Nsg20
g15
sg21
Nsbsbsg20
Nsg21
(i__main__
Node
p25
(dp26
g12
I2
sg13
S'-'
sg14
(i__main__
Node
p27
(dp28
g12
I3
sg13
g19
sg14
Nsg20
g25
sg21
Nsbsg20
g10
sg21
(i__main__
Node
p29
(dp30
g12
I3
sg13
g24
sg14
Nsg20
g25
sg21
NsbsbsbsS'accel_x'
p31
F0
sS'accel_y'
p32
F0
sS'visionAngle'
p33
I130
sS'maxAccel'
p34
I2
sS'maxVel'
p35
F0.72999999999999998
sS'age'
p36
I0
sS'tailSize'
p37
I0
sS'sexualgeno'
p38
NsS'tailBrigh'
p39
I0
sS'maxSteering'
p40
I20
sS'energy'
p41
F0.5
sS'lastScale'
p42
F5.5
sb.(i__main__
Data_mobile
p1
(dp2
S'vel_y'
p3
I0
sS'vel_x'
p4
I0
sS'pos_x'
p5
I-9579
sS'pos_y'
p6
I9779
sS'isAlive'
p7
I00
sS'cumulativeEnergy'
p8
F0.5
sS'geno'
p9
(i__main__
Node
p10
(dp11
S'depth'
p12
I1
sS'vector'
p13
S'+'
sS'right'
p14
(i__main__
Node
p15
(dp16
g12
I2
sg13
S'+'
sg14
(i__main__
Node
p17
(dp18
g12
I3
sg13
S'indiv.alignment()'
p19
sg14
NsS'parent'
p20
g15
sS'left'
p21
Nsbsg20
g10
sg21
(i__main__
Node
p22
(dp23
g12
I3
sg13
S'indiv.target()'
p24
sg14
Nsg20
g15
sg21
Nsbsbsg20
Nsg21
(i__main__
Node
p25
(dp26
g12
I2
sg13
S'+'
sg14
(i__main__
Node
p27
(dp28
g12
I3
sg13
g19
sg14
Nsg20
g25
sg21
Nsbsg20
g10
sg21
(i__main__
Node
p29
(dp30
g12
I3
sg13
g24
sg14
Nsg20
g25
sg21
NsbsbsbsS'accel_x'
p31
F0
sS'accel_y'
p32
F0
sS'visionAngle'
p33
I130
sS'maxAccel'
p34
I2
sS'maxVel'
p35
F0.72999999999999998
sS'age'
p36
I0
sS'tailSize'
p37
I0
sS'sexualgeno'
p38
NsS'tailBrigh'
p39
I0
sS'maxSteering'
p40
I20
sS'energy'
p41
F0.5
sS'lastScale'
p42
F5.5
sb.(i__main__
Data_mobile
p1
(dp2
S'vel_y'
p3
I0
sS'vel_x'
p4
I0
sS'pos_x'
p5
I-9579
sS'pos_y'
p6
I9779
sS'isAlive'
p7
I00
sS'cumulativeEnergy'
p8
F0.5
sS'geno'
p9
(i__main__
Node
p10
(dp11
S'depth'
p12
I1
sS'vector'
p13
S'+'
sS'right'
p14
(i__main__
Node
p15
(dp16
g12
I2
sg13
S'-'
sg14
(i__main__
Node
p17
(dp18
g12
I3
sg13
S'indiv.alignment()'
p19
sg14
NsS'parent'
p20
g15
sS'left'
p21
Nsbsg20
g10
sg21
(i__main__
Node
p22
(dp23
g12
I3
sg13
S'indiv.target()'
p24
sg14
Nsg20
g15
sg21
Nsbsbsg20
Nsg21
(i__main__
Node
p25
(dp26
g12
I2
sg13
S'-'
sg14
(i__main__
Node
p27
(dp28
g12
I3
sg13
g19
sg14
Nsg20
g25
sg21
Nsbsg20
g10
sg21
(i__main__
Node
p29
(dp30
g12
I3
sg13
g24
sg14
Nsg20
g25
sg21
NsbsbsbsS'accel_x'
p31
F0
sS'accel_y'
p32
F0
sS'visionAngle'
p33
I130
sS'maxAccel'
p34
I2
sS'maxVel'
p35
F0.72999999999999998
sS'age'
p36
I0
sS'tailSize'
p37
I0
sS'sexualgeno'
p38
NsS'tailBrigh'
p39
I0
sS'maxSteering'
p40
I20
sS'energy'
p41
F0.5
sS'lastScale'
p42
F5.5
sb.(i__main__
Data_mobile
p1
(dp2
S'vel_y'
p3
I0
sS'vel_x'
p4
I0
sS'pos_x'
p5
I-9579
sS'pos_y'
p6
I9779
sS'isAlive'
p7
I00
sS'cumulativeEnergy'
p8
F0.5
sS'geno'
p9
(i__main__
Node
p10
(dp11
S'depth'
p12
I1
sS'vector'
p13
S'+'
sS'right'
p14
(i__main__
Node
p15
(dp16
g12
I2
sg13
S'-'
sg14
(i__main__
Node
p17
(dp18
g12
I3
sg13
S'indiv.alignment()'
p19
sg14
NsS'parent'
p20
g15
sS'left'
p21
Nsbsg20
g10
sg21
(i__main__
Node
p22
(dp23
g12
I3
sg13
S'indiv.target()'
p24
sg14
Nsg20
g15
sg21
Nsbsbsg20
Nsg21
(i__main__
Node
p25
(dp26
g12
I2
sg13
S'-'
sg14
(i__main__
Node
p27
(dp28
g12
I3
sg13
g19
sg14
Nsg20
g25
sg21
Nsbsg20
g10
sg21
(i__main__
Node
p29
(dp30
g12
I3
sg13
g24
sg14
Nsg20
g25
sg21
NsbsbsbsS'accel_x'
p31
F0
sS'accel_y'
p32
F0
sS'visionAngle'
p33
I130
sS'maxAccel'
p34
I2
sS'maxVel'
p35
F0.72999999999999998
sS'age'
p36
I0
sS'tailSize'
p37
I0
sS'sexualgeno'
p38
NsS'tailBrigh'
p39
I0
sS'maxSteering'
p40
I20
sS'energy'
p41
F0.5
sS'lastScale'
p42
F5.5
sb.(i__main__
Data_mobile
p1
(dp2
S'vel_y'
p3
I0
sS'vel_x'
p4
I0
sS'pos_x'
p5
I-9579
sS'pos_y'
p6
I9779
sS'isAlive'
p7
I00
sS'cumulativeEnergy'
p8
F0.5
sS'geno'
p9
(i__main__
Node
p10
(dp11
S'depth'
p12
I1
sS'vector'
p13
S'+'
sS'right'
p14
(i__main__
Node
p15
(dp16
g12
I2
sg13
S'-'
sg14
(i__main__
Node
p17
(dp18
g12
I3
sg13
S'indiv.alignment()'
p19
sg14
NsS'parent'
p20
g15
sS'left'
p21
Nsbsg20
g10
sg21
(i__main__
Node
p22
(dp23
g12
I3
sg13
S'indiv.target()'
p24
sg14
Nsg20
g15
sg21
Nsbsbsg20
Nsg21
(i__main__
Node
p25
(dp26
g12
I2
sg13
S'-'
sg14
(i__main__
Node
p27
(dp28
g12
I3
sg13
g19
sg14
Nsg20
g25
sg21
Nsbsg20
g10
sg21
(i__main__
Node
p29
(dp30
g12
I3
sg13
g24
sg14
Nsg20
g25
sg21
NsbsbsbsS'accel_x'
p31
F0
sS'accel_y'
p32
F0
sS'visionAngle'
p33
I130
sS'maxAccel'
p34
I2
sS'maxVel'
p35
F0.72999999999999998
sS'age'
p36
I0
sS'tailSize'
p37
I0
sS'sexualgeno'
p38
NsS'tailBrigh'
p39
I0
sS'maxSteering'
p40
I20
sS'energy'
p41
F0.5
sS'lastScale'
p42
F5.5
sb.(i__main__
Data_mobile
p1
(dp2
S'vel_y'
p3
I0
sS'vel_x'
p4
I0
sS'pos_x'
p5
I-9579
sS'pos_y'
p6
I9779
sS'isAlive'
p7
I00
sS'cumulativeEnergy'
p8
F0.5
sS'geno'
p9
(i__main__
Node
p10
(dp11
S'depth'
p12
I1
sS'vector'
p13
S'+'
sS'right'
p14
(i__main__
Node
p15
(dp16
g12
I2
sg13
S'-'
sg14
(i__main__
Node
p17
(dp18
g12
I3
sg13
S'indiv.alignment()'
p19
sg14
NsS'parent'
p20
g15
sS'left'
p21
Nsbsg20
g10
sg21
(i__main__
Node
p22
(dp23
g12
I3
sg13
S'indiv.target()'
p24
sg14
Nsg20
g15
sg21
Nsbsbsg20
Nsg21
(i__main__
Node
p25
(dp26
g12
I2
sg13
S'-'
sg14
(i__main__
Node
p27
(dp28
g12
I3
sg13
g19
sg14
Nsg20
g25
sg21
Nsbsg20
g10
sg21
(i__main__
Node
p29
(dp30
g12
I3
sg13
g24
sg14
Nsg20
g25
sg21
NsbsbsbsS'accel_x'
p31
F0
sS'accel_y'
p32
F0
sS'visionAngle'
p33
I130
sS'maxAccel'
p34
I2
sS'maxVel'
p35
F0.72999999999999998
sS'age'
p36
I0
sS'tailSize'
p37
I0
sS'sexualgeno'
p38
NsS'tailBrigh'
p39
I0
sS'maxSteering'
p40
I20
sS'energy'
p41
F0.5
sS'lastScale'
p42
F5.5
sb.(i__main__
Data_mobile
p1
(dp2
S'vel_y'
p3
I0
sS'vel_x'
p4
I0
sS'pos_x'
p5
I-9579
sS'pos_y'
p6
I9779
sS'isAlive'
p7
I00
sS'cumulativeEnergy'
p8
F0.5
sS'geno'
p9
(i__main__
Node
p10
(dp11
S'depth'
p12
I1
sS'vector'
p13
S'+'
sS'right'
p14
(i__main__
Node
p15
(dp16
g12
I2
sg13
S'-'
sg14
(i__main__
Node
p17
(dp18
g12
I3
sg13
S'indiv.alignment()'
p19
sg14
NsS'parent'
p20
g15
sS'left'
p21
Nsbsg20
g10
sg21
(i__main__
Node
p22
(dp23
g12
I3
sg13
S'indiv.target()'
p24
sg14
Nsg20
g15
sg21
Nsbsbsg20
Nsg21
(i__main__
Node
p25
(dp26
g12
I2
sg13
S'-'
sg14
(i__main__
Node
p27
(dp28
g12
I3
sg13
g19
sg14
Nsg20
g25
sg21
Nsbsg20
g10
sg21
(i__main__
Node
p29
(dp30
g12
I3
sg13
g24
sg14
Nsg20
g25
sg21
NsbsbsbsS'accel_x'
p31
F0
sS'accel_y'
p32
F0
sS'visionAngle'
p33
I130
sS'maxAccel'
p34
I2
sS'maxVel'
p35
F0.72999999999999998
sS'age'
p36
I0
sS'tailSize'
p37
I0
sS'sexualgeno'
p38
NsS'tailBrigh'
p39
I0
sS'maxSteering'
p40
I20
sS'energy'
p41
F0.5
sS'lastScale'
p42
F5.5
sb.(i__main__
Data_mobile
p1
(dp2
S'vel_y'
p3
I0
sS'vel_x'
p4
I0
sS'pos_x'
p5
I-9579
sS'pos_y'
p6
I9779
sS'isAlive'
p7
I00
sS'cumulativeEnergy'
p8
F0.5
sS'geno'
p9
(i__main__
Node
p10
(dp11
S'vector'
p12
S'*'
sS'depth'
p13
I1
sS'right'
p14
(i__main__
Node
p15
(dp16
g12
S'/'
sg13
I2
sg14
(i__main__
Node
p17
(dp18
g12
S'indiv.separation()'
p19
sg13
I3
sg14
NsS'parent'
p20
g15
sS'left'
p21
Nsbsg20
g10
sg21
(i__main__
Node
p22
(dp23
g12
S'indiv.target()'
p24
sg13
I3
sg14
Nsg20
g15
sg21
Nsbsbsg20
Nsg21
(i__main__
Node
p25
(dp26
g12
S'-'
sg13
I2
sg14
(i__main__
Node
p27
(dp28
g12
S'indiv.currentEnergy()'
p29
sg13
I3
sg14
Nsg20
g25
sg21
Nsbsg20
g10
sg21
(i__main__
Node
p30
(dp31
g12
S'indiv.alignment()'
p32
sg13
I3
sg14
Nsg20
g25
sg21
NsbsbsbsS'accel_x'
p33
F0
sS'accel_y'
p34
F0
sS'visionAngle'
p35
I130
sS'maxAccel'
p36
I2
sS'maxVel'
p37
F0.72999999999999998
sS'age'
p38
I0
sS'tailSize'
p39
I0
sS'sexualgeno'
p40
NsS'tailBrigh'
p41
I0
sS'maxSteering'
p42
I20
sS'energy'
p43
F0.5
sS'lastScale'
p44
F5.5
sb.(i__main__
Data_mobile
p1
(dp2
S'vel_y'
p3
I0
sS'vel_x'
p4
I0
sS'pos_x'
p5
I-9579
sS'pos_y'
p6
I9779
sS'isAlive'
p7
I00
sS'cumulativeEnergy'
p8
F0.5
sS'geno'
p9
(i__main__
Node
p10
(dp11
S'vector'
p12
S'-'
sS'depth'
p13
I1
sS'right'
p14
(i__main__
Node
p15
(dp16
g12
S'/'
sg13
I2
sg14
(i__main__
Node
p17
(dp18
g12
S'indiv.cohesion()'
p19
sg13
I3
sg14
NsS'parent'
p20
g15
sS'left'
p21
Nsbsg20
g10
sg21
(i__main__
Node
p22
(dp23
g12
S'indiv.separation()'
p24
sg13
I3
sg14
Nsg20
g15
sg21
Nsbsbsg20
Nsg21
(i__main__
Node
p25
(dp26
g12
S'-'
sg13
I2
sg14
(i__main__
Node
p27
(dp28
g12
S'indiv.currentEnergy()'
p29
sg13
I3
sg14
Nsg20
g25
sg21
Nsbsg20
g10
sg21
(i__main__
Node
p30
(dp31
g12
S'indiv.alignment()'
p32
sg13
I3
sg14
Nsg20
g25
sg21
NsbsbsbsS'accel_x'
p33
F0
sS'accel_y'
p34
F0
sS'visionAngle'
p35
I130
sS'maxAccel'
p36
I2
sS'maxVel'
p37
F0.72999999999999998
sS'age'
p38
I0
sS'tailSize'
p39
I0
sS'sexualgeno'
p40
NsS'tailBrigh'
p41
I0
sS'maxSteering'
p42
I20
sS'energy'
p43
F0.5
sS'lastScale'
p44
F5.5
sb.(i__main__
Data_mobile
p1
(dp2
S'vel_y'
p3
I0
sS'vel_x'
p4
I0
sS'pos_x'
p5
I-9579
sS'pos_y'
p6
I9779
sS'isAlive'
p7
I00
sS'cumulativeEnergy'
p8
F0.5
sS'geno'
p9
(i__main__
Node
p10
(dp11
S'depth'
p12
I1
sS'vector'
p13
S'+'
sS'right'
p14
(i__main__
Node
p15
(dp16
g12
I2
sg13
S'-'
sg14
(i__main__
Node
p17
(dp18
g12
I3
sg13
S'indiv.alignment()'
p19
sg14
NsS'parent'
p20
g15
sS'left'
p21
Nsbsg20
g10
sg21
(i__main__
Node
p22
(dp23
g12
I3
sg13
S'indiv.target()'
p24
sg14
Nsg20
g15
sg21
Nsbsbsg20
Nsg21
(i__main__
Node
p25
(dp26
g12
I2
sg13
S'+'
sg14
(i__main__
Node
p27
(dp28
g12
I3
sg13
g19
sg14
Nsg20
g25
sg21
Nsbsg20
g10
sg21
(i__main__
Node
p29
(dp30
g12
I3
sg13
g24
sg14
Nsg20
g25
sg21
NsbsbsbsS'accel_x'
p31
F0
sS'accel_y'
p32
F0
sS'visionAngle'
p33
I130
sS'maxAccel'
p34
I2
sS'maxVel'
p35
F0.72999999999999998
sS'age'
p36
I0
sS'tailSize'
p37
I0
sS'sexualgeno'
p38
NsS'tailBrigh'
p39
I0
sS'maxSteering'
p40
I20
sS'energy'
p41
F0.5
sS'lastScale'
p42
F5.5
sb.(i__main__
Data_mobile
p1
(dp2
S'vel_y'
p3
I0
sS'vel_x'
p4
I0
sS'pos_x'
p5
I-9579
sS'pos_y'
p6
I9779
sS'isAlive'
p7
I00
sS'cumulativeEnergy'
p8
F0.5
sS'geno'
p9
(i__main__
Node
p10
(dp11
S'depth'
p12
I1
sS'vector'
p13
S'+'
sS'right'
p14
(i__main__
Node
p15
(dp16
g12
I2
sg13
S'-'
sg14
(i__main__
Node
p17
(dp18
g12
I3
sg13
S'indiv.alignment()'
p19
sg14
NsS'parent'
p20
g15
sS'left'
p21
Nsbsg20
g10
sg21
(i__main__
Node
p22
(dp23
g12
I3
sg13
S'indiv.target()'
p24
sg14
Nsg20
g15
sg21
Nsbsbsg20
Nsg21
(i__main__
Node
p25
(dp26
g12
I2
sg13
S'+'
sg14
(i__main__
Node
p27
(dp28
g12
I3
sg13
g19
sg14
Nsg20
g25
sg21
Nsbsg20
g10
sg21
(i__main__
Node
p29
(dp30
g12
I3
sg13
g24
sg14
Nsg20
g25
sg21
NsbsbsbsS'accel_x'
p31
F0
sS'accel_y'
p32
F0
sS'visionAngle'
p33
I130
sS'maxAccel'
p34
I2
sS'maxVel'
p35
F0.72999999999999998
sS'age'
p36
I0
sS'tailSize'
p37
I0
sS'sexualgeno'
p38
NsS'tailBrigh'
p39
I0
sS'maxSteering'
p40
I20
sS'energy'
p41
F0.5
sS'lastScale'
p42
F5.5
sb.(i__main__
Data_mobile
p1
(dp2
S'vel_y'
p3
I0
sS'vel_x'
p4
I0
sS'pos_x'
p5
I-9579
sS'pos_y'
p6
I9779
sS'isAlive'
p7
I00
sS'cumulativeEnergy'
p8
F0.5
sS'geno'
p9
(i__main__
Node
p10
(dp11
S'depth'
p12
I1
sS'vector'
p13
S'+'
sS'right'
p14
(i__main__
Node
p15
(dp16
g12
I2
sg13
S'-'
sg14
(i__main__
Node
p17
(dp18
g12
I3
sg13
S'indiv.alignment()'
p19
sg14
NsS'parent'
p20
g15
sS'left'
p21
Nsbsg20
g10
sg21
(i__main__
Node
p22
(dp23
g12
I3
sg13
S'indiv.target()'
p24
sg14
Nsg20
g15
sg21
Nsbsbsg20
Nsg21
(i__main__
Node
p25
(dp26
g13
S'indiv.randV()'
p27
sg12
I2
sg14
Nsg20
g10
sg21
NsbsbsS'accel_x'
p28
F0
sS'accel_y'
p29
F0
sS'visionAngle'
p30
I130
sS'maxAccel'
p31
I2
sS'maxVel'
p32
F0.72999999999999998
sS'age'
p33
I0
sS'tailSize'
p34
I0
sS'sexualgeno'
p35
NsS'tailBrigh'
p36
I0
sS'maxSteering'
p37
I20
sS'energy'
p38
F0.5
sS'lastScale'
p39
F5.5
sb.(i__main__
Data_mobile
p1
(dp2
S'vel_y'
p3
I0
sS'vel_x'
p4
I0
sS'pos_x'
p5
I-9579
sS'pos_y'
p6
I9779
sS'isAlive'
p7
I00
sS'cumulativeEnergy'
p8
F0.5
sS'geno'
p9
(i__main__
Node
p10
(dp11
S'depth'
p12
I1
sS'vector'
p13
S'+'
sS'right'
p14
(i__main__
Node
p15
(dp16
g12
I2
sg13
S'-'
sg14
(i__main__
Node
p17
(dp18
g12
I3
sg13
S'indiv.alignment()'
p19
sg14
NsS'parent'
p20
g15
sS'left'
p21
Nsbsg20
g10
sg21
(i__main__
Node
p22
(dp23
g12
I3
sg13
S'indiv.target()'
p24
sg14
Nsg20
g15
sg21
Nsbsbsg20
Nsg21
(i__main__
Node
p25
(dp26
g12
I2
sg13
S'-'
sg14
(i__main__
Node
p27
(dp28
g12
I3
sg13
g19
sg14
Nsg20
g25
sg21
Nsbsg20
g10
sg21
(i__main__
Node
p29
(dp30
g12
I3
sg13
g24
sg14
Nsg20
g25
sg21
NsbsbsbsS'accel_x'
p31
F0
sS'accel_y'
p32
F0
sS'visionAngle'
p33
I130
sS'maxAccel'
p34
I2
sS'maxVel'
p35
F0.72999999999999998
sS'age'
p36
I0
sS'tailSize'
p37
I0
sS'sexualgeno'
p38
NsS'tailBrigh'
p39
I0
sS'maxSteering'
p40
I20
sS'energy'
p41
F0.5
sS'lastScale'
p42
F5.5
sb.(i__main__
Data_mobile
p1
(dp2
S'vel_y'
p3
I0
sS'vel_x'
p4
I0
sS'pos_x'
p5
I-9579
sS'pos_y'
p6
I9779
sS'isAlive'
p7
I00
sS'cumulativeEnergy'
p8
F0.5
sS'geno'
p9
(i__main__
Node
p10
(dp11
S'depth'
p12
I1
sS'vector'
p13
S'+'
sS'right'
p14
(i__main__
Node
p15
(dp16
g13
S'/'
sg12
I2
sg14
(i__main__
Node
p17
(dp18
g13
S'indiv.currentVelocity()'
p19
sg12
I3
sg14
NsS'parent'
p20
g15
sS'left'
p21
Nsbsg20
g10
sg21
(i__main__
Node
p22
(dp23
g13
S'indiv.cohesion()'
p24
sg12
I3
sg14
Nsg20
g15
sg21
Nsbsbsg20
Nsg21
(i__main__
Node
p25
(dp26
g12
I2
sg13
S'-'
sg14
(i__main__
Node
p27
(dp28
g12
I3
sg13
S'indiv.alignment()'
p29
sg14
Nsg20
g25
sg21
Nsbsg20
g10
sg21
(i__main__
Node
p30
(dp31
g12
I3
sg13
S'indiv.target()'
p32
sg14
Nsg20
g25
sg21
NsbsbsbsS'accel_x'
p33
F0
sS'accel_y'
p34
F0
sS'visionAngle'
p35
I130
sS'maxAccel'
p36
I2
sS'maxVel'
p37
F0.72999999999999998
sS'age'
p38
I0
sS'tailSize'
p39
I0
sS'sexualgeno'
p40
NsS'tailBrigh'
p41
I0
sS'maxSteering'
p42
I20
sS'energy'
p43
F0.5
sS'lastScale'
p44
F5.5
sb.(i__main__
Data_mobile
p1
(dp2
S'vel_y'
p3
I0
sS'vel_x'
p4
I0
sS'pos_x'
p5
I-9579
sS'pos_y'
p6
I9779
sS'isAlive'
p7
I00
sS'cumulativeEnergy'
p8
F0.5
sS'geno'
p9
(i__main__
Node
p10
(dp11
S'depth'
p12
I1
sS'vector'
p13
S'+'
sS'right'
p14
(i__main__
Node
p15
(dp16
g12
I2
sg13
S'-'
sg14
(i__main__
Node
p17
(dp18
g12
I3
sg13
S'indiv.alignment()'
p19
sg14
NsS'parent'
p20
g15
sS'left'
p21
Nsbsg20
g10
sg21
(i__main__
Node
p22
(dp23
g12
I3
sg13
S'indiv.target()'
p24
sg14
Nsg20
g15
sg21
Nsbsbsg20
Nsg21
(i__main__
Node
p25
(dp26
g12
I2
sg13
S'+'
sg14
(i__main__
Node
p27
(dp28
g12
I3
sg13
g19
sg14
Nsg20
g25
sg21
Nsbsg20
g10
sg21
(i__main__
Node
p29
(dp30
g12
I3
sg13
g24
sg14
Nsg20
g25
sg21
NsbsbsbsS'accel_x'
p31
F0
sS'accel_y'
p32
F0
sS'visionAngle'
p33
I130
sS'maxAccel'
p34
I2
sS'maxVel'
p35
F0.72999999999999998
sS'age'
p36
I0
sS'tailSize'
p37
I0
sS'sexualgeno'
p38
NsS'tailBrigh'
p39
I0
sS'maxSteering'
p40
I20
sS'energy'
p41
F0.5
sS'lastScale'
p42
F5.5
sb.(i__main__
Data_mobile
p1
(dp2
S'vel_y'
p3
I0
sS'vel_x'
p4
I0
sS'pos_x'
p5
I-9579
sS'pos_y'
p6
I9779
sS'isAlive'
p7
I00
sS'cumulativeEnergy'
p8
F0.5
sS'geno'
p9
(i__main__
Node
p10
(dp11
S'depth'
p12
I1
sS'vector'
p13
S'+'
sS'right'
p14
(i__main__
Node
p15
(dp16
g12
I2
sg13
S'+'
sg14
(i__main__
Node
p17
(dp18
g12
I3
sg13
S'indiv.alignment()'
p19
sg14
NsS'parent'
p20
g15
sS'left'
p21
Nsbsg20
g10
sg21
(i__main__
Node
p22
(dp23
g12
I3
sg13
S'indiv.target()'
p24
sg14
Nsg20
g15
sg21
Nsbsbsg20
Nsg21
(i__main__
Node
p25
(dp26
g12
I2
sg13
S'-'
sg14
(i__main__
Node
p27
(dp28
g12
I3
sg13
g19
sg14
Nsg20
g25
sg21
Nsbsg20
g10
sg21
(i__main__
Node
p29
(dp30
g12
I3
sg13
g24
sg14
Nsg20
g25
sg21
NsbsbsbsS'accel_x'
p31
F0
sS'accel_y'
p32
F0
sS'visionAngle'
p33
I130
sS'maxAccel'
p34
I2
sS'maxVel'
p35
F0.72999999999999998
sS'age'
p36
I0
sS'tailSize'
p37
I0
sS'sexualgeno'
p38
NsS'tailBrigh'
p39
I0
sS'maxSteering'
p40
I20
sS'energy'
p41
F0.5
sS'lastScale'
p42
F5.5
sb.(i__main__
Data_mobile
p1
(dp2
S'vel_y'
p3
I0
sS'vel_x'
p4
I0
sS'pos_x'
p5
I-9579
sS'pos_y'
p6
I9779
sS'isAlive'
p7
I00
sS'cumulativeEnergy'
p8
F0.5
sS'geno'
p9
(i__main__
Node
p10
(dp11
S'depth'
p12
I1
sS'vector'
p13
S'+'
sS'right'
p14
(i__main__
Node
p15
(dp16
g12
I2
sg13
S'-'
sg14
(i__main__
Node
p17
(dp18
g12
I3
sg13
S'indiv.alignment()'
p19
sg14
NsS'parent'
p20
g15
sS'left'
p21
Nsbsg20
g10
sg21
(i__main__
Node
p22
(dp23
g12
I3
sg13
S'indiv.target()'
p24
sg14
Nsg20
g15
sg21
Nsbsbsg20
Nsg21
(i__main__
Node
p25
(dp26
g12
I2
sg13
S'-'
sg14
(i__main__
Node
p27
(dp28
g12
I3
sg13
g19
sg14
Nsg20
g25
sg21
Nsbsg20
g10
sg21
(i__main__
Node
p29
(dp30
g12
I3
sg13
g24
sg14
Nsg20
g25
sg21
NsbsbsbsS'accel_x'
p31
F0
sS'accel_y'
p32
F0
sS'visionAngle'
p33
I130
sS'maxAccel'
p34
I2
sS'maxVel'
p35
F0.72999999999999998
sS'age'
p36
I0
sS'tailSize'
p37
I0
sS'sexualgeno'
p38
NsS'tailBrigh'
p39
I0
sS'maxSteering'
p40
I20
sS'energy'
p41
F0.5
sS'lastScale'
p42
F5.5
sb.(i__main__
Data_mobile
p1
(dp2
S'vel_y'
p3
I0
sS'vel_x'
p4
I0
sS'pos_x'
p5
I-9579
sS'pos_y'
p6
I9779
sS'isAlive'
p7
I00
sS'cumulativeEnergy'
p8
F0.5
sS'geno'
p9
(i__main__
Node
p10
(dp11
S'depth'
p12
I1
sS'vector'
p13
S'+'
sS'right'
p14
(i__main__
Node
p15
(dp16
g12
I2
sg13
S'-'
sg14
(i__main__
Node
p17
(dp18
g12
I3
sg13
S'indiv.alignment()'
p19
sg14
NsS'parent'
p20
g15
sS'left'
p21
Nsbsg20
g10
sg21
(i__main__
Node
p22
(dp23
g12
I3
sg13
S'indiv.target()'
p24
sg14
Nsg20
g15
sg21
Nsbsbsg20
Nsg21
(i__main__
Node
p25
(dp26
g12
I2
sg13
S'-'
sg14
(i__main__
Node
p27
(dp28
g12
I3
sg13
g19
sg14
Nsg20
g25
sg21
Nsbsg20
g10
sg21
(i__main__
Node
p29
(dp30
g12
I3
sg13
g24
sg14
Nsg20
g25
sg21
NsbsbsbsS'accel_x'
p31
F0
sS'accel_y'
p32
F0
sS'visionAngle'
p33
I130
sS'maxAccel'
p34
I2
sS'maxVel'
p35
F0.72999999999999998
sS'age'
p36
I0
sS'tailSize'
p37
I0
sS'sexualgeno'
p38
NsS'tailBrigh'
p39
I0
sS'maxSteering'
p40
I20
sS'energy'
p41
F0.5
sS'lastScale'
p42
F5.5
sb.(i__main__
Data_mobile
p1
(dp2
S'vel_y'
p3
I0
sS'vel_x'
p4
I0
sS'pos_x'
p5
I-9579
sS'pos_y'
p6
I9779
sS'isAlive'
p7
I00
sS'cumulativeEnergy'
p8
F0.5
sS'geno'
p9
(i__main__
Node
p10
(dp11
S'depth'
p12
I1
sS'vector'
p13
S'+'
sS'right'
p14
(i__main__
Node
p15
(dp16
g12
I2
sg13
S'+'
sg14
(i__main__
Node
p17
(dp18
g12
I3
sg13
S'indiv.alignment()'
p19
sg14
NsS'parent'
p20
g15
sS'left'
p21
Nsbsg20
g10
sg21
(i__main__
Node
p22
(dp23
g12
I3
sg13
S'indiv.target()'
p24
sg14
Nsg20
g15
sg21
Nsbsbsg20
Nsg21
(i__main__
Node
p25
(dp26
g12
I2
sg13
S'+'
sg14
(i__main__
Node
p27
(dp28
g12
I3
sg13
g19
sg14
Nsg20
g25
sg21
Nsbsg20
g10
sg21
(i__main__
Node
p29
(dp30
g12
I3
sg13
g24
sg14
Nsg20
g25
sg21
NsbsbsbsS'accel_x'
p31
F0
sS'accel_y'
p32
F0
sS'visionAngle'
p33
I130
sS'maxAccel'
p34
I2
sS'maxVel'
p35
F0.72999999999999998
sS'age'
p36
I0
sS'tailSize'
p37
I0
sS'sexualgeno'
p38
NsS'tailBrigh'
p39
I0
sS'maxSteering'
p40
I20
sS'energy'
p41
F0.5
sS'lastScale'
p42
F5.5
sb.(i__main__
Data_mobile
p1
(dp2
S'vel_y'
p3
I0
sS'vel_x'
p4
I0
sS'pos_x'
p5
I-9579
sS'pos_y'
p6
I9779
sS'isAlive'
p7
I00
sS'cumulativeEnergy'
p8
F0.5
sS'geno'
p9
(i__main__
Node
p10
(dp11
S'depth'
p12
I1
sS'vector'
p13
S'+'
sS'right'
p14
(i__main__
Node
p15
(dp16
g12
I2
sg13
S'-'
sg14
(i__main__
Node
p17
(dp18
g12
I3
sg13
S'indiv.alignment()'
p19
sg14
NsS'parent'
p20
g15
sS'left'
p21
Nsbsg20
g10
sg21
(i__main__
Node
p22
(dp23
g12
I3
sg13
S'indiv.target()'
p24
sg14
Nsg20
g15
sg21
Nsbsbsg20
Nsg21
(i__main__
Node
p25
(dp26
g12
I2
sg13
S'-'
sg14
(i__main__
Node
p27
(dp28
g12
I3
sg13
g19
sg14
Nsg20
g25
sg21
Nsbsg20
g10
sg21
(i__main__
Node
p29
(dp30
g12
I3
sg13
g24
sg14
Nsg20
g25
sg21
NsbsbsbsS'accel_x'
p31
F0
sS'accel_y'
p32
F0
sS'visionAngle'
p33
I130
sS'maxAccel'
p34
I2
sS'maxVel'
p35
F0.72999999999999998
sS'age'
p36
I0
sS'tailSize'
p37
I0
sS'sexualgeno'
p38
NsS'tailBrigh'
p39
I0
sS'maxSteering'
p40
I20
sS'energy'
p41
F0.5
sS'lastScale'
p42
F5.5
sb.(i__main__
Data_mobile
p1
(dp2
S'vel_y'
p3
I0
sS'vel_x'
p4
I0
sS'pos_x'
p5
I-9579
sS'pos_y'
p6
I9779
sS'isAlive'
p7
I00
sS'cumulativeEnergy'
p8
F0.5
sS'geno'
p9
(i__main__
Node
p10
(dp11
S'depth'
p12
I1
sS'vector'
p13
S'+'
sS'right'
p14
(i__main__
Node
p15
(dp16
g12
I2
sg13
S'-'
sg14
(i__main__
Node
p17
(dp18
g12
I3
sg13
S'indiv.alignment()'
p19
sg14
NsS'parent'
p20
g15
sS'left'
p21
Nsbsg20
g10
sg21
(i__main__
Node
p22
(dp23
g12
I3
sg13
S'indiv.target()'
p24
sg14
Nsg20
g15
sg21
Nsbsbsg20
Nsg21
(i__main__
Node
p25
(dp26
g12
I2
sg13
S'+'
sg14
(i__main__
Node
p27
(dp28
g12
I3
sg13
g19
sg14
Nsg20
g25
sg21
Nsbsg20
g10
sg21
(i__main__
Node
p29
(dp30
g12
I3
sg13
g24
sg14
Nsg20
g25
sg21
NsbsbsbsS'accel_x'
p31
F0
sS'accel_y'
p32
F0
sS'visionAngle'
p33
I130
sS'maxAccel'
p34
I2
sS'maxVel'
p35
F0.72999999999999998
sS'age'
p36
I0
sS'tailSize'
p37
I0
sS'sexualgeno'
p38
NsS'tailBrigh'
p39
I0
sS'maxSteering'
p40
I20
sS'energy'
p41
F0.5
sS'lastScale'
p42
F5.5
sb.(i__main__
Data_mobile
p1
(dp2
S'vel_y'
p3
I0
sS'vel_x'
p4
I0
sS'pos_x'
p5
I-9579
sS'pos_y'
p6
I9779
sS'isAlive'
p7
I00
sS'cumulativeEnergy'
p8
F0.5
sS'geno'
p9
(i__main__
Node
p10
(dp11
S'depth'
p12
I1
sS'vector'
p13
S'+'
sS'right'
p14
(i__main__
Node
p15
(dp16
g12
I2
sg13
S'/'
sg14
(i__main__
Node
p17
(dp18
g12
I3
sg13
S'indiv.alignment()'
p19
sg14
NsS'parent'
p20
g15
sS'left'
p21
Nsbsg20
g10
sg21
(i__main__
Node
p22
(dp23
g12
I3
sg13
S'-'
sg14
(i__main__
Node
p24
(dp25
g12
I4
sg13
S'indiv.currentVelocity()'
p26
sg14
Nsg20
g22
sg21
Nsbsg20
g15
sg21
(i__main__
Node
p27
(dp28
g12
I4
sg13
S'indiv.randV()'
p29
sg14
Nsg20
g22
sg21
Nsbsbsbsg20
Nsg21
(i__main__
Node
p30
(dp31
g12
I2
sg13
S'-'
sg14
(i__main__
Node
p32
(dp33
g12
I3
sg13
g19
sg14
Nsg20
g30
sg21
Nsbsg20
g10
sg21
(i__main__
Node
p34
(dp35
g12
I3
sg13
S'indiv.target()'
p36
sg14
Nsg20
g30
sg21
NsbsbsbsS'accel_x'
p37
F0
sS'accel_y'
p38
F0
sS'visionAngle'
p39
I130
sS'maxAccel'
p40
I2
sS'maxVel'
p41
F0.72999999999999998
sS'age'
p42
I0
sS'tailSize'
p43
I0
sS'sexualgeno'
p44
NsS'tailBrigh'
p45
I0
sS'maxSteering'
p46
I20
sS'energy'
p47
F0.5
sS'lastScale'
p48
F5.5
sb.(i__main__
Data_mobile
p1
(dp2
S'vel_y'
p3
I0
sS'vel_x'
p4
I0
sS'pos_x'
p5
I-9579
sS'pos_y'
p6
I9779
sS'isAlive'
p7
I00
sS'cumulativeEnergy'
p8
F0.5
sS'geno'
p9
(i__main__
Node
p10
(dp11
S'depth'
p12
I1
sS'vector'
p13
S'+'
sS'right'
p14
(i__main__
Node
p15
(dp16
g12
I2
sg13
S'+'
sg14
(i__main__
Node
p17
(dp18
g12
I3
sg13
S'indiv.alignment()'
p19
sg14
NsS'parent'
p20
g15
sS'left'
p21
Nsbsg20
g10
sg21
(i__main__
Node
p22
(dp23
g12
I3
sg13
S'indiv.target()'
p24
sg14
Nsg20
g15
sg21
Nsbsbsg20
Nsg21
(i__main__
Node
p25
(dp26
g12
I2
sg13
S'-'
sg14
(i__main__
Node
p27
(dp28
g12
I3
sg13
g19
sg14
Nsg20
g25
sg21
Nsbsg20
g10
sg21
(i__main__
Node
p29
(dp30
g12
I3
sg13
g24
sg14
Nsg20
g25
sg21
NsbsbsbsS'accel_x'
p31
F0
sS'accel_y'
p32
F0
sS'visionAngle'
p33
I130
sS'maxAccel'
p34
I2
sS'maxVel'
p35
F0.72999999999999998
sS'age'
p36
I0
sS'tailSize'
p37
I0
sS'sexualgeno'
p38
NsS'tailBrigh'
p39
I0
sS'maxSteering'
p40
I20
sS'energy'
p41
F0.5
sS'lastScale'
p42
F5.5
sb.(i__main__
Data_mobile
p1
(dp2
S'vel_y'
p3
I0
sS'vel_x'
p4
I0
sS'pos_x'
p5
I-9579
sS'pos_y'
p6
I9779
sS'isAlive'
p7
I00
sS'cumulativeEnergy'
p8
F0.5
sS'geno'
p9
(i__main__
Node
p10
(dp11
S'depth'
p12
I1
sS'vector'
p13
S'+'
sS'right'
p14
(i__main__
Node
p15
(dp16
g12
I2
sg13
S'+'
sg14
(i__main__
Node
p17
(dp18
g12
I3
sg13
S'indiv.alignment()'
p19
sg14
NsS'parent'
p20
g15
sS'left'
p21
Nsbsg20
g10
sg21
(i__main__
Node
p22
(dp23
g12
I3
sg13
S'indiv.target()'
p24
sg14
Nsg20
g15
sg21
Nsbsbsg20
Nsg21
(i__main__
Node
p25
(dp26
g12
I2
sg13
S'+'
sg14
(i__main__
Node
p27
(dp28
g12
I3
sg13
g19
sg14
Nsg20
g25
sg21
Nsbsg20
g10
sg21
(i__main__
Node
p29
(dp30
g12
I3
sg13
g24
sg14
Nsg20
g25
sg21
NsbsbsbsS'accel_x'
p31
F0
sS'accel_y'
p32
F0
sS'visionAngle'
p33
I130
sS'maxAccel'
p34
I2
sS'maxVel'
p35
F0.72999999999999998
sS'age'
p36
I0
sS'tailSize'
p37
I0
sS'sexualgeno'
p38
NsS'tailBrigh'
p39
I0
sS'maxSteering'
p40
I20
sS'energy'
p41
F0.5
sS'lastScale'
p42
F5.5
sb.(i__main__
Data_mobile
p1
(dp2
S'vel_y'
p3
I0
sS'vel_x'
p4
I0
sS'pos_x'
p5
I-9579
sS'pos_y'
p6
I9779
sS'isAlive'
p7
I00
sS'cumulativeEnergy'
p8
F0.5
sS'geno'
p9
(i__main__
Node
p10
(dp11
S'depth'
p12
I1
sS'vector'
p13
S'+'
sS'right'
p14
(i__main__
Node
p15
(dp16
g12
I2
sg13
S'-'
sg14
(i__main__
Node
p17
(dp18
g12
I3
sg13
S'indiv.alignment()'
p19
sg14
NsS'parent'
p20
g15
sS'left'
p21
Nsbsg20
g10
sg21
(i__main__
Node
p22
(dp23
g12
I3
sg13
S'indiv.target()'
p24
sg14
Nsg20
g15
sg21
Nsbsbsg20
Nsg21
(i__main__
Node
p25
(dp26
g12
I2
sg13
S'-'
sg14
(i__main__
Node
p27
(dp28
g12
I3
sg13
g19
sg14
Nsg20
g25
sg21
Nsbsg20
g10
sg21
(i__main__
Node
p29
(dp30
g12
I3
sg13
g24
sg14
Nsg20
g25
sg21
NsbsbsbsS'accel_x'
p31
F0
sS'accel_y'
p32
F0
sS'visionAngle'
p33
I130
sS'maxAccel'
p34
I2
sS'maxVel'
p35
F0.72999999999999998
sS'age'
p36
I0
sS'tailSize'
p37
I0
sS'sexualgeno'
p38
NsS'tailBrigh'
p39
I0
sS'maxSteering'
p40
I20
sS'energy'
p41
F0.5
sS'lastScale'
p42
F5.5
sb.(i__main__
Data_mobile
p1
(dp2
S'vel_y'
p3
I0
sS'vel_x'
p4
I0
sS'pos_x'
p5
I-9579
sS'pos_y'
p6
I9779
sS'isAlive'
p7
I00
sS'cumulativeEnergy'
p8
F0.5
sS'geno'
p9
(i__main__
Node
p10
(dp11
S'depth'
p12
I1
sS'vector'
p13
S'+'
sS'right'
p14
(i__main__
Node
p15
(dp16
g12
I2
sg13
S'-'
sg14
(i__main__
Node
p17
(dp18
g12
I3
sg13
S'indiv.alignment()'
p19
sg14
NsS'parent'
p20
g15
sS'left'
p21
Nsbsg20
g10
sg21
(i__main__
Node
p22
(dp23
g12
I3
sg13
S'indiv.target()'
p24
sg14
Nsg20
g15
sg21
Nsbsbsg20
Nsg21
(i__main__
Node
p25
(dp26
g12
I2
sg13
S'+'
sg14
(i__main__
Node
p27
(dp28
g12
I3
sg13
g19
sg14
Nsg20
g25
sg21
Nsbsg20
g10
sg21
(i__main__
Node
p29
(dp30
g12
I3
sg13
g24
sg14
Nsg20
g25
sg21
NsbsbsbsS'accel_x'
p31
F0
sS'accel_y'
p32
F0
sS'visionAngle'
p33
I130
sS'maxAccel'
p34
I2
sS'maxVel'
p35
F0.72999999999999998
sS'age'
p36
I0
sS'tailSize'
p37
I0
sS'sexualgeno'
p38
NsS'tailBrigh'
p39
I0
sS'maxSteering'
p40
I20
sS'energy'
p41
F0.5
sS'lastScale'
p42
F5.5
sb.(i__main__
Data_mobile
p1
(dp2
S'vel_y'
p3
I0
sS'vel_x'
p4
I0
sS'pos_x'
p5
I-9579
sS'pos_y'
p6
I9779
sS'isAlive'
p7
I00
sS'cumulativeEnergy'
p8
F0.5
sS'geno'
p9
(i__main__
Node
p10
(dp11
S'depth'
p12
I1
sS'vector'
p13
S'+'
sS'right'
p14
(i__main__
Node
p15
(dp16
g12
I2
sg13
S'+'
sg14
(i__main__
Node
p17
(dp18
g12
I3
sg13
S'indiv.alignment()'
p19
sg14
NsS'parent'
p20
g15
sS'left'
p21
Nsbsg20
g10
sg21
(i__main__
Node
p22
(dp23
g12
I3
sg13
S'indiv.target()'
p24
sg14
Nsg20
g15
sg21
Nsbsbsg20
Nsg21
(i__main__
Node
p25
(dp26
g12
I2
sg13
S'/'
sg14
(i__main__
Node
p27
(dp28
g12
I3
sg13
g19
sg14
Nsg20
g25
sg21
Nsbsg20
g10
sg21
(i__main__
Node
p29
(dp30
g12
I3
sg13
S'-'
sg14
(i__main__
Node
p31
(dp32
g12
I4
sg13
S'indiv.currentVelocity()'
p33
sg14
Nsg20
g29
sg21
Nsbsg20
g25
sg21
(i__main__
Node
p34
(dp35
g12
I4
sg13
S'indiv.randV()'
p36
sg14
Nsg20
g29
sg21
NsbsbsbsbsS'accel_x'
p37
F0
sS'accel_y'
p38
F0
sS'visionAngle'
p39
I130
sS'maxAccel'
p40
I2
sS'maxVel'
p41
F0.72999999999999998
sS'age'
p42
I0
sS'tailSize'
p43
I0
sS'sexualgeno'
p44
NsS'tailBrigh'
p45
I0
sS'maxSteering'
p46
I20
sS'energy'
p47
F0.5
sS'lastScale'
p48
F5.5
sb.(i__main__
Data_mobile
p1
(dp2
S'vel_y'
p3
I0
sS'vel_x'
p4
I0
sS'pos_x'
p5
I-9579
sS'pos_y'
p6
I9779
sS'isAlive'
p7
I00
sS'cumulativeEnergy'
p8
F0.5
sS'geno'
p9
(i__main__
Node
p10
(dp11
S'depth'
p12
I1
sS'vector'
p13
S'+'
sS'right'
p14
(i__main__
Node
p15
(dp16
g12
I2
sg13
S'-'
sg14
(i__main__
Node
p17
(dp18
g12
I3
sg13
S'indiv.alignment()'
p19
sg14
NsS'parent'
p20
g15
sS'left'
p21
Nsbsg20
g10
sg21
(i__main__
Node
p22
(dp23
g12
I3
sg13
S'indiv.target()'
p24
sg14
Nsg20
g15
sg21
Nsbsbsg20
Nsg21
(i__main__
Node
p25
(dp26
g12
I2
sg13
S'-'
sg14
(i__main__
Node
p27
(dp28
g12
I3
sg13
g19
sg14
Nsg20
g25
sg21
Nsbsg20
g10
sg21
(i__main__
Node
p29
(dp30
g12
I3
sg13
g24
sg14
Nsg20
g25
sg21
NsbsbsbsS'accel_x'
p31
F0
sS'accel_y'
p32
F0
sS'visionAngle'
p33
I130
sS'maxAccel'
p34
I2
sS'maxVel'
p35
F0.72999999999999998
sS'age'
p36
I0
sS'tailSize'
p37
I0
sS'sexualgeno'
p38
NsS'tailBrigh'
p39
I0
sS'maxSteering'
p40
I20
sS'energy'
p41
F0.5
sS'lastScale'
p42
F5.5
sb.(i__main__
Data_mobile
p1
(dp2
S'vel_y'
p3
I0
sS'vel_x'
p4
I0
sS'pos_x'
p5
I-9579
sS'pos_y'
p6
I9779
sS'isAlive'
p7
I00
sS'cumulativeEnergy'
p8
F0.5
sS'geno'
p9
(i__main__
Node
p10
(dp11
S'depth'
p12
I1
sS'vector'
p13
S'+'
sS'right'
p14
(i__main__
Node
p15
(dp16
g12
I2
sg13
S'+'
sg14
(i__main__
Node
p17
(dp18
g12
I3
sg13
S'indiv.alignment()'
p19
sg14
NsS'parent'
p20
g15
sS'left'
p21
Nsbsg20
g10
sg21
(i__main__
Node
p22
(dp23
g12
I3
sg13
S'indiv.target()'
p24
sg14
Nsg20
g15
sg21
Nsbsbsg20
Nsg21
(i__main__
Node
p25
(dp26
g12
I2
sg13
S'+'
sg14
(i__main__
Node
p27
(dp28
g12
I3
sg13
g19
sg14
Nsg20
g25
sg21
Nsbsg20
g10
sg21
(i__main__
Node
p29
(dp30
g12
I3
sg13
g24
sg14
Nsg20
g25
sg21
NsbsbsbsS'accel_x'
p31
F0
sS'accel_y'
p32
F0
sS'visionAngle'
p33
I130
sS'maxAccel'
p34
I2
sS'maxVel'
p35
F0.72999999999999998
sS'age'
p36
I0
sS'tailSize'
p37
I0
sS'sexualgeno'
p38
NsS'tailBrigh'
p39
I0
sS'maxSteering'
p40
I20
sS'energy'
p41
F0.5
sS'lastScale'
p42
F5.5
sb.(i__main__
Data_mobile
p1
(dp2
S'vel_y'
p3
I0
sS'vel_x'
p4
I0
sS'pos_x'
p5
I-9579
sS'pos_y'
p6
I9779
sS'isAlive'
p7
I00
sS'cumulativeEnergy'
p8
F0.5
sS'geno'
p9
(i__main__
Node
p10
(dp11
S'depth'
p12
I1
sS'vector'
p13
S'+'
sS'right'
p14
(i__main__
Node
p15
(dp16
g12
I2
sg13
S'+'
sg14
(i__main__
Node
p17
(dp18
g12
I3
sg13
S'indiv.alignment()'
p19
sg14
NsS'parent'
p20
g15
sS'left'
p21
Nsbsg20
g10
sg21
(i__main__
Node
p22
(dp23
g12
I3
sg13
S'indiv.target()'
p24
sg14
Nsg20
g15
sg21
Nsbsbsg20
Nsg21
(i__main__
Node
p25
(dp26
g12
I2
sg13
S'-'
sg14
(i__main__
Node
p27
(dp28
g12
I3
sg13
g19
sg14
Nsg20
g25
sg21
Nsbsg20
g10
sg21
(i__main__
Node
p29
(dp30
g12
I3
sg13
g24
sg14
Nsg20
g25
sg21
NsbsbsbsS'accel_x'
p31
F0
sS'accel_y'
p32
F0
sS'visionAngle'
p33
I130
sS'maxAccel'
p34
I2
sS'maxVel'
p35
F0.72999999999999998
sS'age'
p36
I0
sS'tailSize'
p37
I0
sS'sexualgeno'
p38
NsS'tailBrigh'
p39
I0
sS'maxSteering'
p40
I20
sS'energy'
p41
F0.5
sS'lastScale'
p42
F5.5
sb.(i__main__
Data_mobile
p1
(dp2
S'vel_y'
p3
I0
sS'vel_x'
p4
I0
sS'pos_x'
p5
I-9579
sS'pos_y'
p6
I9779
sS'isAlive'
p7
I00
sS'cumulativeEnergy'
p8
F0.5
sS'geno'
p9
(i__main__
Node
p10
(dp11
S'depth'
p12
I1
sS'vector'
p13
S'+'
sS'right'
p14
(i__main__
Node
p15
(dp16
g12
I2
sg13
S'+'
sg14
(i__main__
Node
p17
(dp18
g12
I3
sg13
S'indiv.alignment()'
p19
sg14
NsS'parent'
p20
g15
sS'left'
p21
Nsbsg20
g10
sg21
(i__main__
Node
p22
(dp23
g12
I3
sg13
S'indiv.target()'
p24
sg14
Nsg20
g15
sg21
Nsbsbsg20
Nsg21
(i__main__
Node
p25
(dp26
g12
I2
sg13
S'+'
sg14
(i__main__
Node
p27
(dp28
g12
I3
sg13
g19
sg14
Nsg20
g25
sg21
Nsbsg20
g10
sg21
(i__main__
Node
p29
(dp30
g12
I3
sg13
g24
sg14
Nsg20
g25
sg21
NsbsbsbsS'accel_x'
p31
F0
sS'accel_y'
p32
F0
sS'visionAngle'
p33
I130
sS'maxAccel'
p34
I2
sS'maxVel'
p35
F0.72999999999999998
sS'age'
p36
I0
sS'tailSize'
p37
I0
sS'sexualgeno'
p38
NsS'tailBrigh'
p39
I0
sS'maxSteering'
p40
I20
sS'energy'
p41
F0.5
sS'lastScale'
p42
F5.5
sb.(i__main__
Data_mobile
p1
(dp2
S'vel_y'
p3
I0
sS'vel_x'
p4
I0
sS'pos_x'
p5
I-9579
sS'pos_y'
p6
I9779
sS'isAlive'
p7
I00
sS'cumulativeEnergy'
p8
F0.5
sS'geno'
p9
(i__main__
Node
p10
(dp11
S'depth'
p12
I1
sS'vector'
p13
S'+'
sS'right'
p14
(i__main__
Node
p15
(dp16
g12
I2
sg13
S'+'
sg14
(i__main__
Node
p17
(dp18
g12
I3
sg13
S'indiv.alignment()'
p19
sg14
NsS'parent'
p20
g15
sS'left'
p21
Nsbsg20
g10
sg21
(i__main__
Node
p22
(dp23
g12
I3
sg13
S'indiv.target()'
p24
sg14
Nsg20
g15
sg21
Nsbsbsg20
Nsg21
(i__main__
Node
p25
(dp26
g12
I2
sg13
S'-'
sg14
(i__main__
Node
p27
(dp28
g12
I3
sg13
g19
sg14
Nsg20
g25
sg21
Nsbsg20
g10
sg21
(i__main__
Node
p29
(dp30
g12
I3
sg13
g24
sg14
Nsg20
g25
sg21
NsbsbsbsS'accel_x'
p31
F0
sS'accel_y'
p32
F0
sS'visionAngle'
p33
I130
sS'maxAccel'
p34
I2
sS'maxVel'
p35
F0.72999999999999998
sS'age'
p36
I0
sS'tailSize'
p37
I0
sS'sexualgeno'
p38
NsS'tailBrigh'
p39
I0
sS'maxSteering'
p40
I20
sS'energy'
p41
F0.5
sS'lastScale'
p42
F5.5
sb.(i__main__
Data_mobile
p1
(dp2
S'vel_y'
p3
I0
sS'vel_x'
p4
I0
sS'pos_x'
p5
I-9579
sS'pos_y'
p6
I9779
sS'isAlive'
p7
I00
sS'cumulativeEnergy'
p8
F0.5
sS'geno'
p9
(i__main__
Node
p10
(dp11
S'depth'
p12
I1
sS'vector'
p13
S'+'
sS'right'
p14
(i__main__
Node
p15
(dp16
g12
I2
sg13
S'+'
sg14
(i__main__
Node
p17
(dp18
g12
I3
sg13
S'indiv.alignment()'
p19
sg14
NsS'parent'
p20
g15
sS'left'
p21
Nsbsg20
g10
sg21
(i__main__
Node
p22
(dp23
g12
I3
sg13
S'indiv.target()'
p24
sg14
Nsg20
g15
sg21
Nsbsbsg20
Nsg21
(i__main__
Node
p25
(dp26
g12
I2
sg13
S'-'
sg14
(i__main__
Node
p27
(dp28
g12
I3
sg13
g19
sg14
Nsg20
g25
sg21
Nsbsg20
g10
sg21
(i__main__
Node
p29
(dp30
g12
I3
sg13
g24
sg14
Nsg20
g25
sg21
NsbsbsbsS'accel_x'
p31
F0
sS'accel_y'
p32
F0
sS'visionAngle'
p33
I130
sS'maxAccel'
p34
I2
sS'maxVel'
p35
F0.72999999999999998
sS'age'
p36
I0
sS'tailSize'
p37
I0
sS'sexualgeno'
p38
NsS'tailBrigh'
p39
I0
sS'maxSteering'
p40
I20
sS'energy'
p41
F0.5
sS'lastScale'
p42
F5.5
sb.(i__main__
Data_mobile
p1
(dp2
S'vel_y'
p3
I0
sS'vel_x'
p4
I0
sS'pos_x'
p5
I-9579
sS'pos_y'
p6
I9779
sS'isAlive'
p7
I00
sS'cumulativeEnergy'
p8
F0.5
sS'geno'
p9
(i__main__
Node
p10
(dp11
S'depth'
p12
I1
sS'vector'
p13
S'+'
sS'right'
p14
(i__main__
Node
p15
(dp16
g12
I2
sg13
S'+'
sg14
(i__main__
Node
p17
(dp18
g12
I3
sg13
S'indiv.alignment()'
p19
sg14
NsS'parent'
p20
g15
sS'left'
p21
Nsbsg20
g10
sg21
(i__main__
Node
p22
(dp23
g12
I3
sg13
S'indiv.target()'
p24
sg14
Nsg20
g15
sg21
Nsbsbsg20
Nsg21
(i__main__
Node
p25
(dp26
g13
S'/'
sg12
I2
sg14
(i__main__
Node
p27
(dp28
g13
S'indiv.separation()'
p29
sg12
I3
sg14
Nsg20
g25
sg21
Nsbsg20
g10
sg21
(i__main__
Node
p30
(dp31
g13
S'indiv.currentVelocity()'
p32
sg12
I3
sg14
Nsg20
g25
sg21
NsbsbsbsS'accel_x'
p33
F0
sS'accel_y'
p34
F0
sS'visionAngle'
p35
I130
sS'maxAccel'
p36
I2
sS'maxVel'
p37
F0.72999999999999998
sS'age'
p38
I0
sS'tailSize'
p39
I0
sS'sexualgeno'
p40
NsS'tailBrigh'
p41
I0
sS'maxSteering'
p42
I20
sS'energy'
p43
F0.5
sS'lastScale'
p44
F5.5
sb.(i__main__
Data_mobile
p1
(dp2
S'vel_y'
p3
I0
sS'vel_x'
p4
I0
sS'pos_x'
p5
I-9579
sS'pos_y'
p6
I9779
sS'isAlive'
p7
I00
sS'cumulativeEnergy'
p8
F0.5
sS'geno'
p9
(i__main__
Node
p10
(dp11
S'depth'
p12
I1
sS'vector'
p13
S'+'
sS'right'
p14
(i__main__
Node
p15
(dp16
g12
I2
sg13
S'-'
sg14
(i__main__
Node
p17
(dp18
g12
I3
sg13
S'indiv.alignment()'
p19
sg14
NsS'parent'
p20
g15
sS'left'
p21
Nsbsg20
g10
sg21
(i__main__
Node
p22
(dp23
g12
I3
sg13
S'indiv.target()'
p24
sg14
Nsg20
g15
sg21
Nsbsbsg20
Nsg21
(i__main__
Node
p25
(dp26
g12
I2
sg13
S'+'
sg14
(i__main__
Node
p27
(dp28
g12
I3
sg13
g19
sg14
Nsg20
g25
sg21
Nsbsg20
g10
sg21
(i__main__
Node
p29
(dp30
g12
I3
sg13
g24
sg14
Nsg20
g25
sg21
NsbsbsbsS'accel_x'
p31
F0
sS'accel_y'
p32
F0
sS'visionAngle'
p33
I130
sS'maxAccel'
p34
I2
sS'maxVel'
p35
F0.72999999999999998
sS'age'
p36
I0
sS'tailSize'
p37
I0
sS'sexualgeno'
p38
NsS'tailBrigh'
p39
I0
sS'maxSteering'
p40
I20
sS'energy'
p41
F0.5
sS'lastScale'
p42
F5.5
sb.(i__main__
Data_mobile
p1
(dp2
S'vel_y'
p3
I0
sS'vel_x'
p4
I0
sS'pos_x'
p5
I-9579
sS'pos_y'
p6
I9779
sS'isAlive'
p7
I00
sS'cumulativeEnergy'
p8
F0.5
sS'geno'
p9
(i__main__
Node
p10
(dp11
S'depth'
p12
I1
sS'vector'
p13
S'+'
sS'right'
p14
(i__main__
Node
p15
(dp16
g12
I2
sg13
S'-'
sg14
(i__main__
Node
p17
(dp18
g12
I3
sg13
S'indiv.alignment()'
p19
sg14
NsS'parent'
p20
g15
sS'left'
p21
Nsbsg20
g10
sg21
(i__main__
Node
p22
(dp23
g12
I3
sg13
S'indiv.target()'
p24
sg14
Nsg20
g15
sg21
Nsbsbsg20
Nsg21
(i__main__
Node
p25
(dp26
g12
I2
sg13
S'+'
sg14
(i__main__
Node
p27
(dp28
g12
I3
sg13
g19
sg14
Nsg20
g25
sg21
Nsbsg20
g10
sg21
(i__main__
Node
p29
(dp30
g12
I3
sg13
g24
sg14
Nsg20
g25
sg21
NsbsbsbsS'accel_x'
p31
F0
sS'accel_y'
p32
F0
sS'visionAngle'
p33
I130
sS'maxAccel'
p34
I2
sS'maxVel'
p35
F0.72999999999999998
sS'age'
p36
I0
sS'tailSize'
p37
I0
sS'sexualgeno'
p38
NsS'tailBrigh'
p39
I0
sS'maxSteering'
p40
I20
sS'energy'
p41
F0.5
sS'lastScale'
p42
F5.5
sb.(i__main__
Data_mobile
p1
(dp2
S'vel_y'
p3
I0
sS'vel_x'
p4
I0
sS'pos_x'
p5
I-9579
sS'pos_y'
p6
I9779
sS'isAlive'
p7
I00
sS'cumulativeEnergy'
p8
F0.5
sS'geno'
p9
(i__main__
Node
p10
(dp11
S'depth'
p12
I1
sS'vector'
p13
S'+'
sS'right'
p14
(i__main__
Node
p15
(dp16
g12
I2
sg13
S'-'
sg14
(i__main__
Node
p17
(dp18
g12
I3
sg13
S'indiv.alignment()'
p19
sg14
NsS'parent'
p20
g15
sS'left'
p21
Nsbsg20
g10
sg21
(i__main__
Node
p22
(dp23
g12
I3
sg13
S'indiv.target()'
p24
sg14
Nsg20
g15
sg21
Nsbsbsg20
Nsg21
(i__main__
Node
p25
(dp26
g12
I2
sg13
S'/'
sg14
(i__main__
Node
p27
(dp28
g12
I3
sg13
g19
sg14
Nsg20
g25
sg21
Nsbsg20
g10
sg21
(i__main__
Node
p29
(dp30
g12
I3
sg13
S'-'
sg14
(i__main__
Node
p31
(dp32
g12
I4
sg13
S'indiv.currentVelocity()'
p33
sg14
Nsg20
g29
sg21
Nsbsg20
g25
sg21
(i__main__
Node
p34
(dp35
g12
I4
sg13
S'indiv.randV()'
p36
sg14
Nsg20
g29
sg21
NsbsbsbsbsS'accel_x'
p37
F0
sS'accel_y'
p38
F0
sS'visionAngle'
p39
I130
sS'maxAccel'
p40
I2
sS'maxVel'
p41
F0.72999999999999998
sS'age'
p42
I0
sS'tailSize'
p43
I0
sS'sexualgeno'
p44
NsS'tailBrigh'
p45
I0
sS'maxSteering'
p46
I20
sS'energy'
p47
F0.5
sS'lastScale'
p48
F5.5
sb.(i__main__
Data_mobile
p1
(dp2
S'vel_y'
p3
I0
sS'vel_x'
p4
I0
sS'pos_x'
p5
I-9579
sS'pos_y'
p6
I9779
sS'isAlive'
p7
I00
sS'cumulativeEnergy'
p8
F0.5
sS'geno'
p9
(i__main__
Node
p10
(dp11
S'depth'
p12
I1
sS'vector'
p13
S'+'
sS'right'
p14
(i__main__
Node
p15
(dp16
g12
I2
sg13
S'-'
sg14
(i__main__
Node
p17
(dp18
g12
I3
sg13
S'indiv.alignment()'
p19
sg14
NsS'parent'
p20
g15
sS'left'
p21
Nsbsg20
g10
sg21
(i__main__
Node
p22
(dp23
g12
I3
sg13
S'indiv.target()'
p24
sg14
Nsg20
g15
sg21
Nsbsbsg20
Nsg21
(i__main__
Node
p25
(dp26
g12
I2
sg13
S'-'
sg14
(i__main__
Node
p27
(dp28
g12
I3
sg13
g19
sg14
Nsg20
g25
sg21
Nsbsg20
g10
sg21
(i__main__
Node
p29
(dp30
g12
I3
sg13
g24
sg14
Nsg20
g25
sg21
NsbsbsbsS'accel_x'
p31
F0
sS'accel_y'
p32
F0
sS'visionAngle'
p33
I130
sS'maxAccel'
p34
I2
sS'maxVel'
p35
F0.72999999999999998
sS'age'
p36
I0
sS'tailSize'
p37
I0
sS'sexualgeno'
p38
NsS'tailBrigh'
p39
I0
sS'maxSteering'
p40
I20
sS'energy'
p41
F0.5
sS'lastScale'
p42
F5.5
sb.(i__main__
Data_mobile
p1
(dp2
S'vel_y'
p3
I0
sS'vel_x'
p4
I0
sS'pos_x'
p5
I-9579
sS'pos_y'
p6
I9779
sS'isAlive'
p7
I00
sS'cumulativeEnergy'
p8
F0.5
sS'geno'
p9
(i__main__
Node
p10
(dp11
S'depth'
p12
I1
sS'vector'
p13
S'+'
sS'right'
p14
(i__main__
Node
p15
(dp16
g12
I2
sg13
S'+'
sg14
(i__main__
Node
p17
(dp18
g12
I3
sg13
S'indiv.alignment()'
p19
sg14
NsS'parent'
p20
g15
sS'left'
p21
Nsbsg20
g10
sg21
(i__main__
Node
p22
(dp23
g12
I3
sg13
S'indiv.target()'
p24
sg14
Nsg20
g15
sg21
Nsbsbsg20
Nsg21
(i__main__
Node
p25
(dp26
g12
I2
sg13
S'+'
sg14
(i__main__
Node
p27
(dp28
g12
I3
sg13
g19
sg14
Nsg20
g25
sg21
Nsbsg20
g10
sg21
(i__main__
Node
p29
(dp30
g12
I3
sg13
g24
sg14
Nsg20
g25
sg21
NsbsbsbsS'accel_x'
p31
F0
sS'accel_y'
p32
F0
sS'visionAngle'
p33
I130
sS'maxAccel'
p34
I2
sS'maxVel'
p35
F0.72999999999999998
sS'age'
p36
I0
sS'tailSize'
p37
I0
sS'sexualgeno'
p38
NsS'tailBrigh'
p39
I0
sS'maxSteering'
p40
I20
sS'energy'
p41
F0.5
sS'lastScale'
p42
F5.5
sb.(i__main__
Data_mobile
p1
(dp2
S'vel_y'
p3
I0
sS'vel_x'
p4
I0
sS'pos_x'
p5
I-9579
sS'pos_y'
p6
I9779
sS'isAlive'
p7
I00
sS'cumulativeEnergy'
p8
F0.5
sS'geno'
p9
(i__main__
Node
p10
(dp11
S'depth'
p12
I1
sS'vector'
p13
S'+'
sS'right'
p14
(i__main__
Node
p15
(dp16
g12
I2
sg13
S'-'
sg14
(i__main__
Node
p17
(dp18
g12
I3
sg13
S'indiv.alignment()'
p19
sg14
NsS'parent'
p20
g15
sS'left'
p21
Nsbsg20
g10
sg21
(i__main__
Node
p22
(dp23
g12
I3
sg13
S'indiv.target()'
p24
sg14
Nsg20
g15
sg21
Nsbsbsg20
Nsg21
(i__main__
Node
p25
(dp26
g13
S'*'
sg12
I2
sg14
(i__main__
Node
p27
(dp28
g13
g24
sg12
I3
sg14
Nsg20
g25
sg21
Nsbsg20
g10
sg21
(i__main__
Node
p29
(dp30
g13
S'indiv.currentVelocity()'
p31
sg12
I3
sg14
Nsg20
g25
sg21
NsbsbsbsS'accel_x'
p32
F0
sS'accel_y'
p33
F0
sS'visionAngle'
p34
I130
sS'maxAccel'
p35
I2
sS'maxVel'
p36
F0.72999999999999998
sS'age'
p37
I0
sS'tailSize'
p38
I0
sS'sexualgeno'
p39
NsS'tailBrigh'
p40
I0
sS'maxSteering'
p41
I20
sS'energy'
p42
F0.5
sS'lastScale'
p43
F5.5
sb.(i__main__
Data_mobile
p1
(dp2
S'vel_y'
p3
I0
sS'vel_x'
p4
I0
sS'pos_x'
p5
I-9579
sS'pos_y'
p6
I9779
sS'isAlive'
p7
I00
sS'cumulativeEnergy'
p8
F0.5
sS'geno'
p9
(i__main__
Node
p10
(dp11
S'depth'
p12
I1
sS'vector'
p13
S'+'
sS'right'
p14
(i__main__
Node
p15
(dp16
g12
I2
sg13
S'-'
sg14
(i__main__
Node
p17
(dp18
g12
I3
sg13
S'indiv.alignment()'
p19
sg14
NsS'parent'
p20
g15
sS'left'
p21
Nsbsg20
g10
sg21
(i__main__
Node
p22
(dp23
g12
I3
sg13
S'indiv.target()'
p24
sg14
Nsg20
g15
sg21
Nsbsbsg20
Nsg21
(i__main__
Node
p25
(dp26
g12
I2
sg13
S'+'
sg14
(i__main__
Node
p27
(dp28
g12
I3
sg13
g19
sg14
Nsg20
g25
sg21
Nsbsg20
g10
sg21
(i__main__
Node
p29
(dp30
g12
I3
sg13
g24
sg14
Nsg20
g25
sg21
NsbsbsbsS'accel_x'
p31
F0
sS'accel_y'
p32
F0
sS'visionAngle'
p33
I130
sS'maxAccel'
p34
I2
sS'maxVel'
p35
F0.72999999999999998
sS'age'
p36
I0
sS'tailSize'
p37
I0
sS'sexualgeno'
p38
NsS'tailBrigh'
p39
I0
sS'maxSteering'
p40
I20
sS'energy'
p41
F0.5
sS'lastScale'
p42
F5.5
sb.(i__main__
Data_mobile
p1
(dp2
S'vel_y'
p3
I0
sS'vel_x'
p4
I0
sS'pos_x'
p5
I-9579
sS'pos_y'
p6
I9779
sS'isAlive'
p7
I00
sS'cumulativeEnergy'
p8
F0.5
sS'geno'
p9
(i__main__
Node
p10
(dp11
S'depth'
p12
I1
sS'vector'
p13
S'+'
sS'right'
p14
(i__main__
Node
p15
(dp16
g12
I2
sg13
S'/'
sg14
(i__main__
Node
p17
(dp18
g13
S'indiv.separation()'
p19
sg12
I3
sg14
NsS'parent'
p20
g15
sS'left'
p21
Nsbsg20
g10
sg21
(i__main__
Node
p22
(dp23
g12
I3
sg13
S'-'
sg14
(i__main__
Node
p24
(dp25
g12
I4
sg13
S'indiv.currentVelocity()'
p26
sg14
Nsg20
g22
sg21
Nsbsg20
g15
sg21
(i__main__
Node
p27
(dp28
g12
I4
sg13
S'indiv.randV()'
p29
sg14
Nsg20
g22
sg21
Nsbsbsbsg20
Nsg21
(i__main__
Node
p30
(dp31
g12
I2
sg13
S'-'
sg14
(i__main__
Node
p32
(dp33
g12
I3
sg13
S'indiv.alignment()'
p34
sg14
Nsg20
g30
sg21
Nsbsg20
g10
sg21
(i__main__
Node
p35
(dp36
g12
I3
sg13
S'indiv.target()'
p37
sg14
Nsg20
g30
sg21
NsbsbsbsS'accel_x'
p38
F0
sS'accel_y'
p39
F0
sS'visionAngle'
p40
I130
sS'maxAccel'
p41
I2
sS'maxVel'
p42
F0.72999999999999998
sS'age'
p43
I0
sS'tailSize'
p44
I0
sS'sexualgeno'
p45
NsS'tailBrigh'
p46
I0
sS'maxSteering'
p47
I20
sS'energy'
p48
F0.5
sS'lastScale'
p49
F5.5
sb.(i__main__
Data_mobile
p1
(dp2
S'vel_y'
p3
I0
sS'vel_x'
p4
I0
sS'pos_x'
p5
I-9579
sS'pos_y'
p6
I9779
sS'isAlive'
p7
I00
sS'cumulativeEnergy'
p8
F0.5
sS'geno'
p9
(i__main__
Node
p10
(dp11
S'depth'
p12
I1
sS'vector'
p13
S'+'
sS'right'
p14
(i__main__
Node
p15
(dp16
g12
I2
sg13
S'/'
sg14
(i__main__
Node
p17
(dp18
g13
S'indiv.alignment()'
p19
sg12
I3
sg14
NsS'parent'
p20
g15
sS'left'
p21
Nsbsg20
g10
sg21
(i__main__
Node
p22
(dp23
g12
I3
sg13
S'-'
sg14
(i__main__
Node
p24
(dp25
g12
I4
sg13
S'indiv.currentVelocity()'
p26
sg14
Nsg20
g22
sg21
Nsbsg20
g15
sg21
(i__main__
Node
p27
(dp28
g12
I4
sg13
S'indiv.randV()'
p29
sg14
Nsg20
g22
sg21
Nsbsbsbsg20
Nsg21
(i__main__
Node
p30
(dp31
g12
I2
sg13
S'-'
sg14
(i__main__
Node
p32
(dp33
g12
I3
sg13
g19
sg14
Nsg20
g30
sg21
Nsbsg20
g10
sg21
(i__main__
Node
p34
(dp35
g12
I3
sg13
S'indiv.target()'
p36
sg14
Nsg20
g30
sg21
NsbsbsbsS'accel_x'
p37
F0
sS'accel_y'
p38
F0
sS'visionAngle'
p39
I130
sS'maxAccel'
p40
I2
sS'maxVel'
p41
F0.72999999999999998
sS'age'
p42
I0
sS'tailSize'
p43
I0
sS'sexualgeno'
p44
NsS'tailBrigh'
p45
I0
sS'maxSteering'
p46
I20
sS'energy'
p47
F0.5
sS'lastScale'
p48
F5.5
sb.(i__main__
Data_mobile
p1
(dp2
S'vel_y'
p3
I0
sS'vel_x'
p4
I0
sS'pos_x'
p5
I-9579
sS'pos_y'
p6
I9779
sS'isAlive'
p7
I00
sS'cumulativeEnergy'
p8
F0.5
sS'geno'
p9
(i__main__
Node
p10
(dp11
S'depth'
p12
I1
sS'vector'
p13
S'+'
sS'right'
p14
(i__main__
Node
p15
(dp16
g12
I2
sg13
S'-'
sg14
(i__main__
Node
p17
(dp18
g12
I3
sg13
S'indiv.currentVelocity()'
p19
sg14
NsS'parent'
p20
g15
sS'left'
p21
Nsbsg20
g10
sg21
(i__main__
Node
p22
(dp23
g12
I3
sg13
S'indiv.randV()'
p24
sg14
Nsg20
g15
sg21
Nsbsbsg20
Nsg21
(i__main__
Node
p25
(dp26
g12
I2
sg13
S'+'
sg14
(i__main__
Node
p27
(dp28
g12
I3
sg13
S'indiv.alignment()'
p29
sg14
Nsg20
g25
sg21
Nsbsg20
g10
sg21
(i__main__
Node
p30
(dp31
g12
I3
sg13
S'indiv.target()'
p32
sg14
Nsg20
g25
sg21
NsbsbsbsS'accel_x'
p33
F0
sS'accel_y'
p34
F0
sS'visionAngle'
p35
I130
sS'maxAccel'
p36
I2
sS'maxVel'
p37
F0.72999999999999998
sS'age'
p38
I0
sS'tailSize'
p39
I0
sS'sexualgeno'
p40
NsS'tailBrigh'
p41
I0
sS'maxSteering'
p42
I20
sS'energy'
p43
F0.5
sS'lastScale'
p44
F5.5
sb.(i__main__
Data_mobile
p1
(dp2
S'vel_y'
p3
I0
sS'vel_x'
p4
I0
sS'pos_x'
p5
I-9579
sS'pos_y'
p6
I9779
sS'isAlive'
p7
I00
sS'cumulativeEnergy'
p8
F0.5
sS'geno'
p9
(i__main__
Node
p10
(dp11
S'depth'
p12
I1
sS'vector'
p13
S'+'
sS'right'
p14
(i__main__
Node
p15
(dp16
g13
S'/'
sg12
I2
sg14
(i__main__
Node
p17
(dp18
g13
S'+'
sg12
I3
sg14
(i__main__
Node
p19
(dp20
g13
S'indiv.cohesion()'
p21
sg12
I4
sg14
NsS'parent'
p22
g17
sS'left'
p23
Nsbsg22
g15
sg23
(i__main__
Node
p24
(dp25
g13
S'indiv.target()'
p26
sg12
I4
sg14
Nsg22
g17
sg23
Nsbsbsg22
g10
sg23
(i__main__
Node
p27
(dp28
g13
S'-'
sg12
I3
sg14
(i__main__
Node
p29
(dp30
g13
S'indiv.currentVelocity()'
p31
sg12
I4
sg14
Nsg22
g27
sg23
Nsbsg22
g15
sg23
(i__main__
Node
p32
(dp33
g13
S'indiv.randV()'
p34
sg12
I4
sg14
Nsg22
g27
sg23
Nsbsbsbsg22
Nsg23
(i__main__
Node
p35
(dp36
g12
I2
sg13
S'+'
sg14
(i__main__
Node
p37
(dp38
g12
I3
sg13
S'indiv.alignment()'
p39
sg14
Nsg22
g35
sg23
Nsbsg22
g10
sg23
(i__main__
Node
p40
(dp41
g12
I3
sg13
g26
sg14
Nsg22
g35
sg23
NsbsbsbsS'accel_x'
p42
F0
sS'accel_y'
p43
F0
sS'visionAngle'
p44
I130
sS'maxAccel'
p45
I2
sS'maxVel'
p46
F0.72999999999999998
sS'age'
p47
I0
sS'tailSize'
p48
I0
sS'sexualgeno'
p49
NsS'tailBrigh'
p50
I0
sS'maxSteering'
p51
I20
sS'energy'
p52
F0.5
sS'lastScale'
p53
F5.5
sb.(i__main__
Data_mobile
p1
(dp2
S'vel_y'
p3
I0
sS'vel_x'
p4
I0
sS'pos_x'
p5
I-9579
sS'pos_y'
p6
I9779
sS'isAlive'
p7
I00
sS'cumulativeEnergy'
p8
F0.5
sS'geno'
p9
(i__main__
Node
p10
(dp11
S'depth'
p12
I1
sS'vector'
p13
S'+'
sS'right'
p14
(i__main__
Node
p15
(dp16
g12
I2
sg13
S'+'
sg14
(i__main__
Node
p17
(dp18
g12
I3
sg13
S'indiv.alignment()'
p19
sg14
NsS'parent'
p20
g15
sS'left'
p21
Nsbsg20
g10
sg21
(i__main__
Node
p22
(dp23
g12
I3
sg13
S'indiv.target()'
p24
sg14
Nsg20
g15
sg21
Nsbsbsg20
Nsg21
(i__main__
Node
p25
(dp26
g12
I2
sg13
S'+'
sg14
(i__main__
Node
p27
(dp28
g12
I3
sg13
g19
sg14
Nsg20
g25
sg21
Nsbsg20
g10
sg21
(i__main__
Node
p29
(dp30
g12
I3
sg13
g24
sg14
Nsg20
g25
sg21
NsbsbsbsS'accel_x'
p31
F0
sS'accel_y'
p32
F0
sS'visionAngle'
p33
I130
sS'maxAccel'
p34
I2
sS'maxVel'
p35
F0.72999999999999998
sS'age'
p36
I0
sS'tailSize'
p37
I0
sS'sexualgeno'
p38
NsS'tailBrigh'
p39
I0
sS'maxSteering'
p40
I20
sS'energy'
p41
F0.5
sS'lastScale'
p42
F5.5
sb.(i__main__
Data_mobile
p1
(dp2
S'vel_y'
p3
I0
sS'vel_x'
p4
I0
sS'pos_x'
p5
I-9579
sS'pos_y'
p6
I9779
sS'isAlive'
p7
I00
sS'cumulativeEnergy'
p8
F0.5
sS'geno'
p9
(i__main__
Node
p10
(dp11
S'depth'
p12
I1
sS'vector'
p13
S'+'
sS'right'
p14
(i__main__
Node
p15
(dp16
g12
I2
sg13
S'+'
sg14
(i__main__
Node
p17
(dp18
g12
I3
sg13
S'indiv.alignment()'
p19
sg14
NsS'parent'
p20
g15
sS'left'
p21
Nsbsg20
g10
sg21
(i__main__
Node
p22
(dp23
g12
I3
sg13
S'indiv.target()'
p24
sg14
Nsg20
g15
sg21
Nsbsbsg20
Nsg21
(i__main__
Node
p25
(dp26
g12
I2
sg13
S'+'
sg14
(i__main__
Node
p27
(dp28
g12
I3
sg13
g19
sg14
Nsg20
g25
sg21
Nsbsg20
g10
sg21
(i__main__
Node
p29
(dp30
g12
I3
sg13
g24
sg14
Nsg20
g25
sg21
NsbsbsbsS'accel_x'
p31
F0
sS'accel_y'
p32
F0
sS'visionAngle'
p33
I130
sS'maxAccel'
p34
I2
sS'maxVel'
p35
F0.72999999999999998
sS'age'
p36
I0
sS'tailSize'
p37
I0
sS'sexualgeno'
p38
NsS'tailBrigh'
p39
I0
sS'maxSteering'
p40
I20
sS'energy'
p41
F0.5
sS'lastScale'
p42
F5.5
sb.(i__main__
Data_mobile
p1
(dp2
S'vel_y'
p3
I0
sS'vel_x'
p4
I0
sS'pos_x'
p5
I-9579
sS'pos_y'
p6
I9779
sS'isAlive'
p7
I00
sS'cumulativeEnergy'
p8
F0.5
sS'geno'
p9
(i__main__
Node
p10
(dp11
S'depth'
p12
I1
sS'vector'
p13
S'+'
sS'right'
p14
(i__main__
Node
p15
(dp16
g12
I2
sg13
S'/'
sg14
(i__main__
Node
p17
(dp18
g12
I3
sg13
S'+'
sg14
(i__main__
Node
p19
(dp20
g12
I4
sg13
S'indiv.cohesion()'
p21
sg14
NsS'parent'
p22
g17
sS'left'
p23
Nsbsg22
g15
sg23
(i__main__
Node
p24
(dp25
g12
I4
sg13
S'indiv.target()'
p26
sg14
Nsg22
g17
sg23
Nsbsbsg22
g10
sg23
(i__main__
Node
p27
(dp28
g12
I3
sg13
g21
sg14
Nsg22
g15
sg23
Nsbsbsg22
Nsg23
(i__main__
Node
p29
(dp30
g12
I2
sg13
S'+'
sg14
(i__main__
Node
p31
(dp32
g12
I3
sg13
S'indiv.alignment()'
p33
sg14
Nsg22
g29
sg23
Nsbsg22
g10
sg23
(i__main__
Node
p34
(dp35
g12
I3
sg13
g26
sg14
Nsg22
g29
sg23
NsbsbsbsS'accel_x'
p36
F0
sS'accel_y'
p37
F0
sS'visionAngle'
p38
I130
sS'maxAccel'
p39
I2
sS'maxVel'
p40
F0.72999999999999998
sS'age'
p41
I0
sS'tailSize'
p42
I0
sS'sexualgeno'
p43
NsS'tailBrigh'
p44
I0
sS'maxSteering'
p45
I20
sS'energy'
p46
F0.5
sS'lastScale'
p47
F5.5
sb.(i__main__
Data_mobile
p1
(dp2
S'vel_y'
p3
I0
sS'vel_x'
p4
I0
sS'pos_x'
p5
I-9579
sS'pos_y'
p6
I9779
sS'isAlive'
p7
I00
sS'cumulativeEnergy'
p8
F0.5
sS'geno'
p9
(i__main__
Node
p10
(dp11
S'depth'
p12
I1
sS'vector'
p13
S'+'
sS'right'
p14
(i__main__
Node
p15
(dp16
g12
I2
sg13
S'/'
sg14
(i__main__
Node
p17
(dp18
g12
I3
sg13
S'+'
sg14
(i__main__
Node
p19
(dp20
g12
I4
sg13
S'indiv.alignment()'
p21
sg14
NsS'parent'
p22
g17
sS'left'
p23
Nsbsg22
g15
sg23
(i__main__
Node
p24
(dp25
g12
I4
sg13
S'indiv.target()'
p26
sg14
Nsg22
g17
sg23
Nsbsbsg22
g10
sg23
(i__main__
Node
p27
(dp28
g12
I3
sg13
S'-'
sg14
(i__main__
Node
p29
(dp30
g12
I4
sg13
S'indiv.currentVelocity()'
p31
sg14
Nsg22
g27
sg23
Nsbsg22
g15
sg23
(i__main__
Node
p32
(dp33
g12
I4
sg13
S'indiv.randV()'
p34
sg14
Nsg22
g27
sg23
Nsbsbsbsg22
Nsg23
(i__main__
Node
p35
(dp36
g12
I2
sg13
S'+'
sg14
(i__main__
Node
p37
(dp38
g12
I3
sg13
g21
sg14
Nsg22
g35
sg23
Nsbsg22
g10
sg23
(i__main__
Node
p39
(dp40
g12
I3
sg13
g26
sg14
Nsg22
g35
sg23
NsbsbsbsS'accel_x'
p41
F0
sS'accel_y'
p42
F0
sS'visionAngle'
p43
I130
sS'maxAccel'
p44
I2
sS'maxVel'
p45
F0.72999999999999998
sS'age'
p46
I0
sS'tailSize'
p47
I0
sS'sexualgeno'
p48
NsS'tailBrigh'
p49
I0
sS'maxSteering'
p50
I20
sS'energy'
p51
F0.5
sS'lastScale'
p52
F5.5
sb.(i__main__
Data_mobile
p1
(dp2
S'vel_y'
p3
I0
sS'vel_x'
p4
I0
sS'pos_x'
p5
I-9579
sS'pos_y'
p6
I9779
sS'isAlive'
p7
I00
sS'cumulativeEnergy'
p8
F0.5
sS'geno'
p9
(i__main__
Node
p10
(dp11
S'depth'
p12
I1
sS'vector'
p13
S'+'
sS'right'
p14
(i__main__
Node
p15
(dp16
g12
I2
sg13
S'/'
sg14
(i__main__
Node
p17
(dp18
g12
I3
sg13
S'indiv.alignment()'
p19
sg14
NsS'parent'
p20
g15
sS'left'
p21
Nsbsg20
g10
sg21
(i__main__
Node
p22
(dp23
g12
I3
sg13
S'/'
sg14
(i__main__
Node
p24
(dp25
g12
I4
sg13
S'+'
sg14
(i__main__
Node
p26
(dp27
g12
I5
sg13
S'indiv.cohesion()'
p28
sg14
Nsg20
g24
sg21
Nsbsg20
g22
sg21
(i__main__
Node
p29
(dp30
g12
I5
sg13
S'indiv.target()'
p31
sg14
Nsg20
g24
sg21
Nsbsbsg20
g15
sg21
(i__main__
Node
p32
(dp33
g12
I4
sg13
g28
sg14
Nsg20
g22
sg21
Nsbsbsbsg20
Nsg21
(i__main__
Node
p34
(dp35
g12
I2
sg13
S'-'
sg14
(i__main__
Node
p36
(dp37
g12
I3
sg13
g19
sg14
Nsg20
g34
sg21
Nsbsg20
g10
sg21
(i__main__
Node
p38
(dp39
g12
I3
sg13
g31
sg14
Nsg20
g34
sg21
NsbsbsbsS'accel_x'
p40
F0
sS'accel_y'
p41
F0
sS'visionAngle'
p42
I130
sS'maxAccel'
p43
I2
sS'maxVel'
p44
F0.72999999999999998
sS'age'
p45
I0
sS'tailSize'
p46
I0
sS'sexualgeno'
p47
NsS'tailBrigh'
p48
I0
sS'maxSteering'
p49
I20
sS'energy'
p50
F0.5
sS'lastScale'
p51
F5.5
sb.(i__main__
Data_mobile
p1
(dp2
S'vel_y'
p3
I0
sS'vel_x'
p4
I0
sS'pos_x'
p5
I-9579
sS'pos_y'
p6
I9779
sS'isAlive'
p7
I00
sS'cumulativeEnergy'
p8
F0.5
sS'geno'
p9
(i__main__
Node
p10
(dp11
S'depth'
p12
I1
sS'vector'
p13
S'+'
sS'right'
p14
(i__main__
Node
p15
(dp16
g12
I2
sg13
S'+'
sg14
(i__main__
Node
p17
(dp18
g12
I3
sg13
S'indiv.alignment()'
p19
sg14
NsS'parent'
p20
g15
sS'left'
p21
Nsbsg20
g10
sg21
(i__main__
Node
p22
(dp23
g12
I3
sg13
S'indiv.target()'
p24
sg14
Nsg20
g15
sg21
Nsbsbsg20
Nsg21
(i__main__
Node
p25
(dp26
g12
I2
sg13
S'+'
sg14
(i__main__
Node
p27
(dp28
g12
I3
sg13
g19
sg14
Nsg20
g25
sg21
Nsbsg20
g10
sg21
(i__main__
Node
p29
(dp30
g12
I3
sg13
g24
sg14
Nsg20
g25
sg21
NsbsbsbsS'accel_x'
p31
F0
sS'accel_y'
p32
F0
sS'visionAngle'
p33
I130
sS'maxAccel'
p34
I2
sS'maxVel'
p35
F0.72999999999999998
sS'age'
p36
I0
sS'tailSize'
p37
I0
sS'sexualgeno'
p38
NsS'tailBrigh'
p39
I0
sS'maxSteering'
p40
I20
sS'energy'
p41
F0.5
sS'lastScale'
p42
F5.5
sb.