(i__main__
Data_mobile
p1
(dp2
S'vel_y'
p3
F0.56887676562610634
sS'vel_x'
p4
F0.04279086121685962
sS'pos_x'
p5
F-135.35150347094509
sS'pos_y'
p6
F48.690317261992305
sS'isAlive'
p7
I01
sS'cumulativeEnergy'
p8
F49
sS'geno'
p9
(i__main__
Node
p10
(dp11
S'depth'
p12
I1
sS'vector'
p13
S'+'
sS'right'
p14
(i__main__
Node
p15
(dp16
g12
I2
sg13
S'-'
sg14
(i__main__
Node
p17
(dp18
g12
I3
sg13
S'indiv.currentVelocity()'
p19
sg14
NsS'parent'
p20
g15
sS'left'
p21
Nsbsg20
g10
sg21
(i__main__
Node
p22
(dp23
g12
I3
sg13
S'indiv.separation()'
p24
sg14
Nsg20
g15
sg21
Nsbsbsg20
Nsg21
(i__main__
Node
p25
(dp26
g12
I2
sg13
S'+'
sg14
(i__main__
Node
p27
(dp28
g12
I3
sg13
S'indiv.target()'
p29
sg14
Nsg20
g25
sg21
Nsbsg20
g10
sg21
(i__main__
Node
p30
(dp31
g12
I3
sg13
g29
sg14
Nsg20
g25
sg21
NsbsbsbsS'accel_x'
p32
F-0.47475803747624901
sS'accel_y'
p33
F-1.9428342198581177
sS'visionAngle'
p34
I130
sS'maxAccel'
p35
I2
sS'maxVel'
p36
F0.72999999999999998
sS'age'
p37
I100
sS'tailSize'
p38
I0
sS'sexualgeno'
p39
NsS'tailBrigh'
p40
I0
sS'maxSteering'
p41
I20
sS'energy'
p42
F1
sS'lastScale'
p43
F15.5
sb.(i__main__
Data_mobile
p1
(dp2
S'vel_y'
p3
F-0.088667369833345208
sS'vel_x'
p4
F-0.72459512662371439
sS'pos_x'
p5
F-115.8130720004965
sS'pos_y'
p6
F-5.8106698890852035
sS'isAlive'
p7
I01
sS'cumulativeEnergy'
p8
F48.880000000071092
sS'geno'
p9
(i__main__
Node
p10
(dp11
S'depth'
p12
I1
sS'vector'
p13
S'+'
sS'right'
p14
(i__main__
Node
p15
(dp16
g12
I2
sg13
S'*'
sg14
(i__main__
Node
p17
(dp18
g12
I3
sg13
S'indiv.randV()'
p19
sg14
NsS'parent'
p20
g15
sS'left'
p21
Nsbsg20
g10
sg21
(i__main__
Node
p22
(dp23
g12
I3
sg13
S'indiv.target()'
p24
sg14
Nsg20
g15
sg21
Nsbsbsg20
Nsg21
(i__main__
Node
p25
(dp26
g12
I2
sg13
S'+'
sg14
(i__main__
Node
p27
(dp28
g12
I3
sg13
g24
sg14
Nsg20
g25
sg21
Nsbsg20
g10
sg21
(i__main__
Node
p29
(dp30
g12
I3
sg13
g24
sg14
Nsg20
g25
sg21
NsbsbsbsS'accel_x'
p31
F-1.7941943733507049
sS'accel_y'
p32
F0.88366653814471829
sS'visionAngle'
p33
I130
sS'maxAccel'
p34
I2
sS'maxVel'
p35
F0.72999999999999998
sS'age'
p36
I350
sS'tailSize'
p37
I0
sS'sexualgeno'
p38
NsS'tailBrigh'
p39
I0
sS'maxSteering'
p40
I20
sS'energy'
p41
F0.97000000004432207
sS'lastScale'
p42
F15.200000000443222
sb.(i__main__
Data_mobile
p1
(dp2
S'vel_y'
p3
F0.71611334339114063
sS'vel_x'
p4
F0.1417098423440033
sS'pos_x'
p5
F100.58319246601201
sS'pos_y'
p6
F-83.725249144803641
sS'isAlive'
p7
I01
sS'cumulativeEnergy'
p8
F48.70787676382831
sS'geno'
p9
(i__main__
Node
p10
(dp11
S'depth'
p12
I1
sS'vector'
p13
S'+'
sS'right'
p14
(i__main__
Node
p15
(dp16
g12
I2
sg13
S'+'
sg14
(i__main__
Node
p17
(dp18
g12
I3
sg13
S'indiv.target()'
p19
sg14
NsS'parent'
p20
g15
sS'left'
p21
Nsbsg20
g10
sg21
(i__main__
Node
p22
(dp23
g12
I3
sg13
g19
sg14
Nsg20
g15
sg21
Nsbsbsg20
Nsg21
(i__main__
Node
p24
(dp25
g12
I2
sg13
S'+'
sg14
(i__main__
Node
p26
(dp27
g12
I3
sg13
g19
sg14
Nsg20
g24
sg21
Nsbsg20
g10
sg21
(i__main__
Node
p28
(dp29
g12
I3
sg13
g19
sg14
Nsg20
g24
sg21
NsbsbsbsS'accel_x'
p30
F0
sS'accel_y'
p31
F0
sS'visionAngle'
p32
I130
sS'maxAccel'
p33
I2
sS'maxVel'
p34
F0.72999999999999998
sS'age'
p35
I100
sS'tailSize'
p36
I0
sS'sexualgeno'
p37
NsS'tailBrigh'
p38
I0
sS'maxSteering'
p39
I20
sS'energy'
p40
F0.90074117190206726
sS'lastScale'
p41
F14.507411719020674
sb.(i__main__
Data_mobile
p1
(dp2
S'vel_y'
p3
F0.42717197626472547
sS'vel_x'
p4
F-0.59196630199200428
sS'pos_x'
p5
F-36.32897413051073
sS'pos_y'
p6
F62.535174727989485
sS'isAlive'
p7
I01
sS'cumulativeEnergy'
p8
F47.492356324548432
sS'geno'
p9
(i__main__
Node
p10
(dp11
S'depth'
p12
I1
sS'vector'
p13
S'+'
sS'right'
p14
(i__main__
Node
p15
(dp16
g12
I2
sg13
S'*'
sg14
(i__main__
Node
p17
(dp18
g12
I3
sg13
S'-'
sg14
(i__main__
Node
p19
(dp20
g12
I4
sg13
S'indiv.currentVelocity()'
p21
sg14
NsS'parent'
p22
g17
sS'left'
p23
Nsbsg22
g15
sg23
(i__main__
Node
p24
(dp25
g12
I4
sg13
S'indiv.separation()'
p26
sg14
Nsg22
g17
sg23
Nsbsbsg22
g10
sg23
(i__main__
Node
p27
(dp28
g12
I3
sg13
S'+'
sg14
(i__main__
Node
p29
(dp30
g12
I4
sg13
S'indiv.target()'
p31
sg14
Nsg22
g27
sg23
Nsbsg22
g15
sg23
(i__main__
Node
p32
(dp33
g12
I4
sg13
S'indiv.alignment()'
p34
sg14
Nsg22
g27
sg23
Nsbsbsbsg22
Nsg23
(i__main__
Node
p35
(dp36
g12
I2
sg13
S'+'
sg14
(i__main__
Node
p37
(dp38
g12
I3
sg13
g31
sg14
Nsg22
g35
sg23
Nsbsg22
g10
sg23
(i__main__
Node
p39
(dp40
g12
I3
sg13
g31
sg14
Nsg22
g35
sg23
NsbsbsbsS'accel_x'
p41
F-1.5858146060141771
sS'accel_y'
p42
F1.2186845512076123
sS'visionAngle'
p43
I130
sS'maxAccel'
p44
I2
sS'maxVel'
p45
F0.72999999999999998
sS'age'
p46
I200
sS'tailSize'
p47
I0
sS'sexualgeno'
p48
NsS'tailBrigh'
p49
I0
sS'maxSteering'
p50
I20
sS'energy'
p51
F0.82003356713360331
sS'lastScale'
p52
F13.700335671336031
sb.(i__main__
Data_mobile
p1
(dp2
S'vel_y'
p3
F0.61987518875713254
sS'vel_x'
p4
F-0.38555771340139117
sS'pos_x'
p5
F126.52634958413891
sS'pos_y'
p6
F-22.888180843247824
sS'isAlive'
p7
I01
sS'cumulativeEnergy'
p8
F47.276335132775998
sS'geno'
p9
(i__main__
Node
p10
(dp11
S'depth'
p12
I1
sS'vector'
p13
S'+'
sS'right'
p14
(i__main__
Node
p15
(dp16
g12
I2
sg13
S'*'
sg14
(i__main__
Node
p17
(dp18
g12
I3
sg13
S'indiv.randV()'
p19
sg14
NsS'parent'
p20
g15
sS'left'
p21
Nsbsg20
g10
sg21
(i__main__
Node
p22
(dp23
g12
I3
sg13
S'indiv.target()'
p24
sg14
Nsg20
g15
sg21
Nsbsbsg20
Nsg21
(i__main__
Node
p25
(dp26
g12
I2
sg13
S'*'
sg14
(i__main__
Node
p27
(dp28
g12
I3
sg13
g19
sg14
Nsg20
g25
sg21
Nsbsg20
g10
sg21
(i__main__
Node
p29
(dp30
g12
I3
sg13
g24
sg14
Nsg20
g25
sg21
NsbsbsbsS'accel_x'
p31
F1.2192516839481955
sS'accel_y'
p32
F-1.5853786081531092
sS'visionAngle'
p33
I130
sS'maxAccel'
p34
I2
sS'maxVel'
p35
F0.72999999999999998
sS'age'
p36
I100
sS'tailSize'
p37
I0
sS'sexualgeno'
p38
NsS'tailBrigh'
p39
I0
sS'maxSteering'
p40
I20
sS'energy'
p41
F1
sS'lastScale'
p42
F15.5
sb.(i__main__
Data_mobile
p1
(dp2
S'vel_y'
p3
F-0.028999317385100788
sS'vel_x'
p4
F-0.72942377229646027
sS'pos_x'
p5
F65.932997146070633
sS'pos_y'
p6
F76.07604024889865
sS'isAlive'
p7
I01
sS'cumulativeEnergy'
p8
F46.175822960034438
sS'geno'
p9
(i__main__
Node
p10
(dp11
S'depth'
p12
I1
sS'vector'
p13
S'+'
sS'right'
p14
(i__main__
Node
p15
(dp16
g12
I2
sg13
S'*'
sg14
(i__main__
Node
p17
(dp18
g12
I3
sg13
S'indiv.randV()'
p19
sg14
NsS'parent'
p20
g15
sS'left'
p21
Nsbsg20
g10
sg21
(i__main__
Node
p22
(dp23
g12
I3
sg13
S'indiv.target()'
p24
sg14
Nsg20
g15
sg21
Nsbsbsg20
Nsg21
(i__main__
Node
p25
(dp26
g12
I2
sg13
S'-'
sg14
(i__main__
Node
p27
(dp28
g12
I3
sg13
S'indiv.currentEnergy()'
p29
sg14
Nsg20
g25
sg21
Nsbsg20
g10
sg21
(i__main__
Node
p30
(dp31
g12
I3
sg13
g29
sg14
Nsg20
g25
sg21
NsbsbsbsS'accel_x'
p32
F-0.20767614248369318
sS'accel_y'
p33
F-1.9891884324626192
sS'visionAngle'
p34
I130
sS'maxAccel'
p35
I2
sS'maxVel'
p36
F0.72999999999999998
sS'age'
p37
I50
sS'tailSize'
p38
I0
sS'sexualgeno'
p39
NsS'tailBrigh'
p40
I0
sS'maxSteering'
p41
I20
sS'energy'
p42
F0.96961052284214888
sS'lastScale'
p43
F15.196105228421491
sb.(i__main__
Data_mobile
p1
(dp2
S'vel_y'
p3
F0.43383682737980545
sS'vel_x'
p4
F0.58709931630774781
sS'pos_x'
p5
F82.738572848276959
sS'pos_y'
p6
F49.717143367125836
sS'isAlive'
p7
I01
sS'cumulativeEnergy'
p8
F45.933823846760724
sS'geno'
p9
(i__main__
Node
p10
(dp11
S'depth'
p12
I1
sS'vector'
p13
S'+'
sS'right'
p14
(i__main__
Node
p15
(dp16
g12
I2
sg13
S'*'
sg14
(i__main__
Node
p17
(dp18
g12
I3
sg13
S'indiv.randV()'
p19
sg14
NsS'parent'
p20
g15
sS'left'
p21
Nsbsg20
g10
sg21
(i__main__
Node
p22
(dp23
g12
I3
sg13
S'indiv.target()'
p24
sg14
Nsg20
g15
sg21
Nsbsbsg20
Nsg21
(i__main__
Node
p25
(dp26
g12
I2
sg13
S'-'
sg14
(i__main__
Node
p27
(dp28
g12
I3
sg13
S'indiv.currentEnergy()'
p29
sg14
Nsg20
g25
sg21
Nsbsg20
g10
sg21
(i__main__
Node
p30
(dp31
g12
I3
sg13
g29
sg14
Nsg20
g25
sg21
NsbsbsbsS'accel_x'
p32
F0.11234779616832748
sS'accel_y'
p33
F1.9968419999329241
sS'visionAngle'
p34
I130
sS'maxAccel'
p35
I2
sS'maxVel'
p36
F0.72999999999999998
sS'age'
p37
I200
sS'tailSize'
p38
I0
sS'sexualgeno'
p39
NsS'tailBrigh'
p40
I0
sS'maxSteering'
p41
I20
sS'energy'
p42
F0.66009383678932443
sS'lastScale'
p43
F12.100938367893242
sb.(i__main__
Data_mobile
p1
(dp2
S'vel_y'
p3
F-0.32911557233234073
sS'vel_x'
p4
F0.65160029162697286
sS'pos_x'
p5
F-54.853164355610055
sS'pos_y'
p6
F42.606408181333528
sS'isAlive'
p7
I01
sS'cumulativeEnergy'
p8
F45.64867268442886
sS'geno'
p9
(i__main__
Node
p10
(dp11
S'depth'
p12
I1
sS'vector'
p13
S'+'
sS'right'
p14
(i__main__
Node
p15
(dp16
g12
I2
sg13
S'*'
sg14
(i__main__
Node
p17
(dp18
g12
I3
sg13
S'indiv.randV()'
p19
sg14
NsS'parent'
p20
g15
sS'left'
p21
Nsbsg20
g10
sg21
(i__main__
Node
p22
(dp23
g12
I3
sg13
S'indiv.target()'
p24
sg14
Nsg20
g15
sg21
Nsbsbsg20
Nsg21
(i__main__
Node
p25
(dp26
g13
g19
sg12
I2
sg14
Nsg20
g10
sg21
NsbsbsS'accel_x'
p27
F0.863053520016552
sS'accel_y'
p28
F-1.8042002720283132
sS'visionAngle'
p29
I130
sS'maxAccel'
p30
I2
sS'maxVel'
p31
F0.72999999999999998
sS'age'
p32
I100
sS'tailSize'
p33
I0
sS'sexualgeno'
p34
NsS'tailBrigh'
p35
I0
sS'maxSteering'
p36
I20
sS'energy'
p37
F0.95624568269475341
sS'lastScale'
p38
F15.062456826947534
sb.(i__main__
Data_mobile
p1
(dp2
S'vel_y'
p3
F-0.56972326830366526
sS'vel_x'
p4
F-0.45641581650222185
sS'pos_x'
p5
F-109.41505511888597
sS'pos_y'
p6
F-1.4508886917891683
sS'isAlive'
p7
I01
sS'cumulativeEnergy'
p8
F45.603243542514399
sS'geno'
p9
(i__main__
Node
p10
(dp11
S'depth'
p12
I1
sS'vector'
p13
S'+'
sS'right'
p14
(i__main__
Node
p15
(dp16
g12
I2
sg13
S'*'
sg14
(i__main__
Node
p17
(dp18
g12
I3
sg13
S'indiv.randV()'
p19
sg14
NsS'parent'
p20
g15
sS'left'
p21
Nsbsg20
g10
sg21
(i__main__
Node
p22
(dp23
g12
I3
sg13
S'indiv.target()'
p24
sg14
Nsg20
g15
sg21
Nsbsbsg20
Nsg21
(i__main__
Node
p25
(dp26
g12
I2
sg13
S'+'
sg14
(i__main__
Node
p27
(dp28
g12
I3
sg13
g24
sg14
Nsg20
g25
sg21
Nsbsg20
g10
sg21
(i__main__
Node
p29
(dp30
g12
I3
sg13
g24
sg14
Nsg20
g25
sg21
NsbsbsbsS'accel_x'
p31
F-0.76872989149750948
sS'accel_y'
p32
F-1.8463624654758954
sS'visionAngle'
p33
I130
sS'maxAccel'
p34
I2
sS'maxVel'
p35
F0.72999999999999998
sS'age'
p36
I200
sS'tailSize'
p37
I0
sS'sexualgeno'
p38
NsS'tailBrigh'
p39
I0
sS'maxSteering'
p40
I20
sS'energy'
p41
F0.70007482480899441
sS'lastScale'
p42
F12.500748248089943
sb.(i__main__
Data_mobile
p1
(dp2
S'vel_y'
p3
F-0.37956389431917992
sS'vel_x'
p4
F0.62356334893037002
sS'pos_x'
p5
F131.03822564153438
sS'pos_y'
p6
F-26.127017890248439
sS'isAlive'
p7
I01
sS'cumulativeEnergy'
p8
F43.328354122429765
sS'geno'
p9
(i__main__
Node
p10
(dp11
S'depth'
p12
I1
sS'vector'
p13
S'+'
sS'right'
p14
(i__main__
Node
p15
(dp16
g12
I2
sg13
S'*'
sg14
(i__main__
Node
p17
(dp18
g12
I3
sg13
S'indiv.randV()'
p19
sg14
NsS'parent'
p20
g15
sS'left'
p21
Nsbsg20
g10
sg21
(i__main__
Node
p22
(dp23
g12
I3
sg13
S'indiv.target()'
p24
sg14
Nsg20
g15
sg21
Nsbsbsg20
Nsg21
(i__main__
Node
p25
(dp26
g12
I2
sg13
S'+'
sg14
(i__main__
Node
p27
(dp28
g12
I3
sg13
S'-'
sg14
(i__main__
Node
p29
(dp30
g12
I4
sg13
S'indiv.currentEnergy()'
p31
sg14
Nsg20
g27
sg21
Nsbsg20
g25
sg21
(i__main__
Node
p32
(dp33
g12
I4
sg13
g31
sg14
Nsg20
g27
sg21
Nsbsbsg20
g10
sg21
(i__main__
Node
p34
(dp35
g12
I3
sg13
S'+'
sg14
(i__main__
Node
p36
(dp37
g12
I4
sg13
g24
sg14
Nsg20
g34
sg21
Nsbsg20
g25
sg21
(i__main__
Node
p38
(dp39
g12
I4
sg13
g24
sg14
Nsg20
g34
sg21
NsbsbsbsbsS'accel_x'
p40
F1.7153964932349177
sS'accel_y'
p41
F1.0283067980896301
sS'visionAngle'
p42
I130
sS'maxAccel'
p43
I2
sS'maxVel'
p44
F0.72999999999999998
sS'age'
p45
I50
sS'tailSize'
p46
I0
sS'sexualgeno'
p47
NsS'tailBrigh'
p48
I0
sS'maxSteering'
p49
I20
sS'energy'
p50
F0.96961052284214888
sS'lastScale'
p51
F15.196105228421491
sb.(i__main__
Data_mobile
p1
(dp2
S'vel_y'
p3
F-0.72118046141069303
sS'vel_x'
p4
F-0.1131315255773558
sS'pos_x'
p5
F151.27867886518965
sS'pos_y'
p6
F-18.485157255500148
sS'isAlive'
p7
I01
sS'cumulativeEnergy'
p8
F43.240854466764183
sS'geno'
p9
(i__main__
Node
p10
(dp11
S'depth'
p12
I1
sS'vector'
p13
S'+'
sS'right'
p14
(i__main__
Node
p15
(dp16
g12
I2
sg13
S'*'
sg14
(i__main__
Node
p17
(dp18
g12
I3
sg13
S'indiv.randV()'
p19
sg14
NsS'parent'
p20
g15
sS'left'
p21
Nsbsg20
g10
sg21
(i__main__
Node
p22
(dp23
g12
I3
sg13
S'indiv.target()'
p24
sg14
Nsg20
g15
sg21
Nsbsbsg20
Nsg21
(i__main__
Node
p25
(dp26
g12
I2
sg13
S'+'
sg14
(i__main__
Node
p27
(dp28
g12
I3
sg13
g24
sg14
Nsg20
g25
sg21
Nsbsg20
g10
sg21
(i__main__
Node
p29
(dp30
g12
I3
sg13
S'indiv.currentEnergy()'
p31
sg14
Nsg20
g25
sg21
NsbsbsbsS'accel_x'
p32
F-1.6676807429499962
sS'accel_y'
p33
F-1.1040112950480845
sS'visionAngle'
p34
I130
sS'maxAccel'
p35
I2
sS'maxVel'
p36
F0.72999999999999998
sS'age'
p37
I150
sS'tailSize'
p38
I0
sS'sexualgeno'
p39
NsS'tailBrigh'
p40
I0
sS'maxSteering'
p41
I20
sS'energy'
p42
F0.74367292251701467
sS'lastScale'
p43
F12.936729225170147
sb.(i__main__
Data_mobile
p1
(dp2
S'vel_y'
p3
F-0.65258046903078271
sS'vel_x'
p4
F-0.32716774205224408
sS'pos_x'
p5
F151.56428806980045
sS'pos_y'
p6
F-17.974722959674811
sS'isAlive'
p7
I01
sS'cumulativeEnergy'
p8
F42.637473860388624
sS'geno'
p9
(i__main__
Node
p10
(dp11
S'depth'
p12
I1
sS'vector'
p13
S'+'
sS'right'
p14
(i__main__
Node
p15
(dp16
g12
I2
sg13
S'*'
sg14
(i__main__
Node
p17
(dp18
g12
I3
sg13
S'indiv.randV()'
p19
sg14
NsS'parent'
p20
g15
sS'left'
p21
Nsbsg20
g10
sg21
(i__main__
Node
p22
(dp23
g12
I3
sg13
S'indiv.target()'
p24
sg14
Nsg20
g15
sg21
Nsbsbsg20
Nsg21
(i__main__
Node
p25
(dp26
g13
S'indiv.currentEnergy()'
p27
sg12
I2
sg14
Nsg20
g10
sg21
NsbsbsS'accel_x'
p28
F-1.8130403318555752
sS'accel_y'
p29
F-0.84432502927784026
sS'visionAngle'
p30
I130
sS'maxAccel'
p31
I2
sS'maxVel'
p32
F0.72999999999999998
sS'age'
p33
I50
sS'tailSize'
p34
I0
sS'sexualgeno'
p35
NsS'tailBrigh'
p36
I0
sS'maxSteering'
p37
I20
sS'energy'
p38
F0.79845103526864547
sS'lastScale'
p39
F13.484510352686453
sb.(i__main__
Data_mobile
p1
(dp2
S'vel_y'
p3
F0.1947399774062335
sS'vel_x'
p4
F0.70354555019545095
sS'pos_x'
p5
F191.99609869540259
sS'pos_y'
p6
F-53.495948887706049
sS'isAlive'
p7
I01
sS'cumulativeEnergy'
p8
F41.388876428344823
sS'geno'
p9
(i__main__
Node
p10
(dp11
S'depth'
p12
I1
sS'vector'
p13
S'+'
sS'right'
p14
(i__main__
Node
p15
(dp16
g12
I2
sg13
S'*'
sg14
(i__main__
Node
p17
(dp18
g12
I3
sg13
S'indiv.randV()'
p19
sg14
NsS'parent'
p20
g15
sS'left'
p21
Nsbsg20
g10
sg21
(i__main__
Node
p22
(dp23
g12
I3
sg13
S'indiv.target()'
p24
sg14
Nsg20
g15
sg21
Nsbsbsg20
Nsg21
(i__main__
Node
p25
(dp26
g12
I2
sg13
S'+'
sg14
(i__main__
Node
p27
(dp28
g12
I3
sg13
S'+'
sg14
(i__main__
Node
p29
(dp30
g12
I4
sg13
g24
sg14
Nsg20
g27
sg21
Nsbsg20
g25
sg21
(i__main__
Node
p31
(dp32
g12
I4
sg13
S'indiv.currentEnergy()'
p33
sg14
Nsg20
g27
sg21
Nsbsbsg20
g10
sg21
(i__main__
Node
p34
(dp35
g12
I3
sg13
S'+'
sg14
(i__main__
Node
p36
(dp37
g12
I4
sg13
g24
sg14
Nsg20
g34
sg21
Nsbsg20
g25
sg21
(i__main__
Node
p38
(dp39
g12
I4
sg13
g24
sg14
Nsg20
g34
sg21
NsbsbsbsbsS'accel_x'
p40
F0.92075256039655906
sS'accel_y'
p41
F0.92075256039655906
sS'visionAngle'
p42
I130
sS'maxAccel'
p43
I2
sS'maxVel'
p44
F0.72999999999999998
sS'age'
p45
I150
sS'tailSize'
p46
I0
sS'sexualgeno'
p47
NsS'tailBrigh'
p48
I0
sS'maxSteering'
p49
I20
sS'energy'
p50
F0.92075256039655906
sS'lastScale'
p51
F14.707525603965593
sb.(i__main__
Data_mobile
p1
(dp2
S'vel_y'
p3
F0.69976895787957316
sS'vel_x'
p4
F-0.20790239437807378
sS'pos_x'
p5
F17.587158430825628
sS'pos_y'
p6
F79.325218267192739
sS'isAlive'
p7
I01
sS'cumulativeEnergy'
p8
F41.369334935470803
sS'geno'
p9
(i__main__
Node
p10
(dp11
S'depth'
p12
I1
sS'vector'
p13
S'+'
sS'right'
p14
(i__main__
Node
p15
(dp16
g12
I2
sg13
S'+'
sg14
(i__main__
Node
p17
(dp18
g12
I3
sg13
S'indiv.target()'
p19
sg14
NsS'parent'
p20
g15
sS'left'
p21
Nsbsg20
g10
sg21
(i__main__
Node
p22
(dp23
g12
I3
sg13
g19
sg14
Nsg20
g15
sg21
Nsbsbsg20
Nsg21
(i__main__
Node
p24
(dp25
g12
I2
sg13
S'+'
sg14
(i__main__
Node
p26
(dp27
g12
I3
sg13
g19
sg14
Nsg20
g24
sg21
Nsbsg20
g10
sg21
(i__main__
Node
p28
(dp29
g12
I3
sg13
g19
sg14
Nsg20
g24
sg21
NsbsbsbsS'accel_x'
p30
F-1.2725753185975375
sS'accel_y'
p31
F1.542903774866202
sS'visionAngle'
p32
I130
sS'maxAccel'
p33
I2
sS'maxVel'
p34
F0.72999999999999998
sS'age'
p35
I50
sS'tailSize'
p36
I0
sS'sexualgeno'
p37
NsS'tailBrigh'
p38
I0
sS'maxSteering'
p39
I20
sS'energy'
p40
F1
sS'lastScale'
p41
F15.5
sb.(i__main__
Data_mobile
p1
(dp2
S'vel_y'
p3
F-0.50547026060528855
sS'vel_x'
p4
F-0.5266875882756511
sS'pos_x'
p5
F-82.575755235763481
sS'pos_y'
p6
F-56.299107728857244
sS'isAlive'
p7
I01
sS'cumulativeEnergy'
p8
F41.077546599310608
sS'geno'
p9
(i__main__
Node
p10
(dp11
S'depth'
p12
I1
sS'vector'
p13
S'+'
sS'right'
p14
(i__main__
Node
p15
(dp16
g12
I2
sg13
S'*'
sg14
(i__main__
Node
p17
(dp18
g12
I3
sg13
S'indiv.randV()'
p19
sg14
NsS'parent'
p20
g15
sS'left'
p21
Nsbsg20
g10
sg21
(i__main__
Node
p22
(dp23
g12
I3
sg13
S'indiv.target()'
p24
sg14
Nsg20
g15
sg21
Nsbsbsg20
Nsg21
(i__main__
Node
p25
(dp26
g12
I2
sg13
S'+'
sg14
(i__main__
Node
p27
(dp28
g12
I3
sg13
g24
sg14
Nsg20
g25
sg21
Nsbsg20
g10
sg21
(i__main__
Node
p29
(dp30
g12
I3
sg13
g24
sg14
Nsg20
g25
sg21
NsbsbsbsS'accel_x'
p31
F1.9405127752665083
sS'accel_y'
p32
F-0.48415923932883342
sS'visionAngle'
p33
I130
sS'maxAccel'
p34
I2
sS'maxVel'
p35
F0.72999999999999998
sS'age'
p36
I100
sS'tailSize'
p37
I0
sS'sexualgeno'
p38
NsS'tailBrigh'
p39
I0
sS'maxSteering'
p40
I20
sS'energy'
p41
F1
sS'lastScale'
p42
F15.5
sb.(i__main__
Data_mobile
p1
(dp2
S'vel_y'
p3
F0.69694332237104928
sS'vel_x'
p4
F0.21718656819058454
sS'pos_x'
p5
F68.356315291909198
sS'pos_y'
p6
F62.98873120869299
sS'isAlive'
p7
I01
sS'cumulativeEnergy'
p8
F40.749553583047586
sS'geno'
p9
(i__main__
Node
p10
(dp11
S'depth'
p12
I1
sS'vector'
p13
S'+'
sS'right'
p14
(i__main__
Node
p15
(dp16
g12
I2
sg13
S'*'
sg14
(i__main__
Node
p17
(dp18
g12
I3
sg13
S'indiv.randV()'
p19
sg14
NsS'parent'
p20
g15
sS'left'
p21
Nsbsg20
g10
sg21
(i__main__
Node
p22
(dp23
g12
I3
sg13
S'indiv.target()'
p24
sg14
Nsg20
g15
sg21
Nsbsbsg20
Nsg21
(i__main__
Node
p25
(dp26
g12
I2
sg13
S'*'
sg14
(i__main__
Node
p27
(dp28
g12
I3
sg13
g19
sg14
Nsg20
g25
sg21
Nsbsg20
g10
sg21
(i__main__
Node
p29
(dp30
g12
I3
sg13
g24
sg14
Nsg20
g25
sg21
NsbsbsbsS'accel_x'
p31
F-0.091625801970235926
sS'accel_y'
p32
F1.9979000756827932
sS'visionAngle'
p33
I130
sS'maxAccel'
p34
I2
sS'maxVel'
p35
F0.72999999999999998
sS'age'
p36
I50
sS'tailSize'
p37
I0
sS'sexualgeno'
p38
NsS'tailBrigh'
p39
I0
sS'maxSteering'
p40
I20
sS'energy'
p41
F1
sS'lastScale'
p42
F15.5
sb.(i__main__
Data_mobile
p1
(dp2
S'vel_y'
p3
F0.05282870902335287
sS'vel_x'
p4
F0.72808593414714862
sS'pos_x'
p5
F-106.14812133028589
sS'pos_y'
p6
F-99.293117683099254
sS'isAlive'
p7
I01
sS'cumulativeEnergy'
p8
F40.71108897544201
sS'geno'
p9
(i__main__
Node
p10
(dp11
S'depth'
p12
I1
sS'vector'
p13
S'+'
sS'right'
p14
(i__main__
Node
p15
(dp16
g13
S'+'
sg12
I2
sg14
(i__main__
Node
p17
(dp18
g13
S'/'
sg12
I3
sg14
(i__main__
Node
p19
(dp20
g13
S'indiv.target()'
p21
sg12
I4
sg14
NsS'parent'
p22
g17
sS'left'
p23
Nsbsg22
g15
sg23
(i__main__
Node
p24
(dp25
g13
S'indiv.cohesion()'
p26
sg12
I4
sg14
Nsg22
g17
sg23
Nsbsbsg22
g10
sg23
(i__main__
Node
p27
(dp28
g13
S'+'
sg12
I3
sg14
(i__main__
Node
p29
(dp30
g13
g21
sg12
I4
sg14
Nsg22
g27
sg23
Nsbsg22
g15
sg23
(i__main__
Node
p31
(dp32
g13
g26
sg12
I4
sg14
Nsg22
g27
sg23
Nsbsbsbsg22
Nsg23
(i__main__
Node
p33
(dp34
g12
I2
sg13
S'*'
sg14
(i__main__
Node
p35
(dp36
g12
I3
sg13
S'indiv.randV()'
p37
sg14
Nsg22
g33
sg23
Nsbsg22
g10
sg23
(i__main__
Node
p38
(dp39
g12
I3
sg13
g21
sg14
Nsg22
g33
sg23
NsbsbsbsS'accel_x'
p40
F-1.5191179129909465
sS'accel_y'
p41
F1.3008769220914138
sS'visionAngle'
p42
I130
sS'maxAccel'
p43
I2
sS'maxVel'
p44
F0.72999999999999998
sS'age'
p45
I200
sS'tailSize'
p46
I0
sS'sexualgeno'
p47
NsS'tailBrigh'
p48
I0
sS'maxSteering'
p49
I20
sS'energy'
p50
F1
sS'lastScale'
p51
F15.5
sb.(i__main__
Data_mobile
p1
(dp2
S'vel_y'
p3
F0.45048009204559869
sS'vel_x'
p4
F0.57442813882207133
sS'pos_x'
p5
F40.844314930355097
sS'pos_y'
p6
F64.770404002170835
sS'isAlive'
p7
I01
sS'cumulativeEnergy'
p8
F40.389476355121467
sS'geno'
p9
(i__main__
Node
p10
(dp11
S'depth'
p12
I1
sS'vector'
p13
S'+'
sS'right'
p14
(i__main__
Node
p15
(dp16
g12
I2
sg13
S'*'
sg14
(i__main__
Node
p17
(dp18
g12
I3
sg13
S'-'
sg14
(i__main__
Node
p19
(dp20
g12
I4
sg13
S'indiv.currentVelocity()'
p21
sg14
NsS'parent'
p22
g17
sS'left'
p23
Nsbsg22
g15
sg23
(i__main__
Node
p24
(dp25
g12
I4
sg13
S'indiv.separation()'
p26
sg14
Nsg22
g17
sg23
Nsbsbsg22
g10
sg23
(i__main__
Node
p27
(dp28
g12
I3
sg13
S'+'
sg14
(i__main__
Node
p29
(dp30
g12
I4
sg13
S'indiv.target()'
p31
sg14
Nsg22
g27
sg23
Nsbsg22
g15
sg23
(i__main__
Node
p32
(dp33
g12
I4
sg13
S'indiv.alignment()'
p34
sg14
Nsg22
g27
sg23
Nsbsbsbsg22
Nsg23
(i__main__
Node
p35
(dp36
g12
I2
sg13
S'+'
sg14
(i__main__
Node
p37
(dp38
g12
I3
sg13
g31
sg14
Nsg22
g35
sg23
Nsbsg22
g10
sg23
(i__main__
Node
p39
(dp40
g12
I3
sg13
g31
sg14
Nsg22
g35
sg23
NsbsbsbsS'accel_x'
p41
F-0.13549554917444895
sS'accel_y'
p42
F-0.011062978597995231
sS'visionAngle'
p43
I130
sS'maxAccel'
p44
I2
sS'maxVel'
p45
F0.72999999999999998
sS'age'
p46
I50
sS'tailSize'
p47
I0
sS'sexualgeno'
p48
NsS'tailBrigh'
p49
I0
sS'maxSteering'
p50
I20
sS'energy'
p51
F1
sS'lastScale'
p52
F15.5
sb.(i__main__
Data_mobile
p1
(dp2
S'vel_y'
p3
F0.58485721247013334
sS'vel_x'
p4
F0.4368547138599575
sS'pos_x'
p5
F-87.138920060328815
sS'pos_y'
p6
F-53.66227543029472
sS'isAlive'
p7
I01
sS'cumulativeEnergy'
p8
F40.037691401971955
sS'geno'
p9
(i__main__
Node
p10
(dp11
S'depth'
p12
I1
sS'vector'
p13
S'+'
sS'right'
p14
(i__main__
Node
p15
(dp16
g12
I2
sg13
S'*'
sg14
(i__main__
Node
p17
(dp18
g12
I3
sg13
S'indiv.randV()'
p19
sg14
NsS'parent'
p20
g15
sS'left'
p21
Nsbsg20
g10
sg21
(i__main__
Node
p22
(dp23
g12
I3
sg13
S'indiv.target()'
p24
sg14
Nsg20
g15
sg21
Nsbsbsg20
Nsg21
(i__main__
Node
p25
(dp26
g12
I2
sg13
S'*'
sg14
(i__main__
Node
p27
(dp28
g12
I3
sg13
g19
sg14
Nsg20
g25
sg21
Nsbsg20
g10
sg21
(i__main__
Node
p29
(dp30
g12
I3
sg13
g24
sg14
Nsg20
g25
sg21
NsbsbsbsS'accel_x'
p31
F1.9276483210812172
sS'accel_y'
p32
F-0.53307780879789435
sS'visionAngle'
p33
I130
sS'maxAccel'
p34
I2
sS'maxVel'
p35
F0.72999999999999998
sS'age'
p36
I100
sS'tailSize'
p37
I0
sS'sexualgeno'
p38
NsS'tailBrigh'
p39
I0
sS'maxSteering'
p40
I20
sS'energy'
p41
F0.91111111542113343
sS'lastScale'
p42
F14.611111154211336
sb.(i__main__
Data_mobile
p1
(dp2
S'vel_y'
p3
F0.20138712116815513
sS'vel_x'
p4
F-0.70167173765771895
sS'pos_x'
p5
F93.546570518120859
sS'pos_y'
p6
F50.253069367640919
sS'isAlive'
p7
I01
sS'cumulativeEnergy'
p8
F40.006961303531995
sS'geno'
p9
(i__main__
Node
p10
(dp11
S'depth'
p12
I1
sS'vector'
p13
S'+'
sS'right'
p14
(i__main__
Node
p15
(dp16
g12
I2
sg13
S'*'
sg14
(i__main__
Node
p17
(dp18
g12
I3
sg13
S'indiv.randV()'
p19
sg14
NsS'parent'
p20
g15
sS'left'
p21
Nsbsg20
g10
sg21
(i__main__
Node
p22
(dp23
g12
I3
sg13
S'indiv.target()'
p24
sg14
Nsg20
g15
sg21
Nsbsbsg20
Nsg21
(i__main__
Node
p25
(dp26
g12
I2
sg13
S'+'
sg14
(i__main__
Node
p27
(dp28
g13
S'indiv.currentVelocity()'
p29
sg12
I3
sg14
Nsg20
g25
sg21
Nsbsg20
g10
sg21
(i__main__
Node
p30
(dp31
g12
I3
sg13
S'*'
sg14
(i__main__
Node
p32
(dp33
g12
I4
sg13
g19
sg14
Nsg20
g30
sg21
Nsbsg20
g25
sg21
(i__main__
Node
p34
(dp35
g12
I4
sg13
g24
sg14
Nsg20
g30
sg21
NsbsbsbsbsS'accel_x'
p36
F-1.9952852298070833
sS'accel_y'
p37
F0.13724741059012735
sS'visionAngle'
p38
I130
sS'maxAccel'
p39
I2
sS'maxVel'
p40
F0.72999999999999998
sS'age'
p41
I100
sS'tailSize'
p42
I0
sS'sexualgeno'
p43
NsS'tailBrigh'
p44
I0
sS'maxSteering'
p45
I20
sS'energy'
p46
F0.55446346606581065
sS'lastScale'
p47
F11.044634660658105
sb.(i__main__
Data_mobile
p1
(dp2
S'vel_y'
p3
F-0.72162680498375598
sS'vel_x'
p4
F-0.11024860238994542
sS'pos_x'
p5
F-11.719137939126625
sS'pos_y'
p6
F0.12199799381290997
sS'isAlive'
p7
I01
sS'cumulativeEnergy'
p8
F39.986956707449828
sS'geno'
p9
(i__main__
Node
p10
(dp11
S'depth'
p12
I1
sS'vector'
p13
S'+'
sS'right'
p14
(i__main__
Node
p15
(dp16
g12
I2
sg13
S'*'
sg14
(i__main__
Node
p17
(dp18
g12
I3
sg13
S'indiv.randV()'
p19
sg14
NsS'parent'
p20
g15
sS'left'
p21
Nsbsg20
g10
sg21
(i__main__
Node
p22
(dp23
g12
I3
sg13
S'indiv.target()'
p24
sg14
Nsg20
g15
sg21
Nsbsbsg20
Nsg21
(i__main__
Node
p25
(dp26
g12
I2
sg13
S'+'
sg14
(i__main__
Node
p27
(dp28
g12
I3
sg13
g24
sg14
Nsg20
g25
sg21
Nsbsg20
g10
sg21
(i__main__
Node
p29
(dp30
g12
I3
sg13
g24
sg14
Nsg20
g25
sg21
NsbsbsbsS'accel_x'
p31
F-0.53356990884992173
sS'accel_y'
p32
F-1.9275121665945161
sS'visionAngle'
p33
I130
sS'maxAccel'
p34
I2
sS'maxVel'
p35
F0.72999999999999998
sS'age'
p36
I100
sS'tailSize'
p37
I0
sS'sexualgeno'
p38
NsS'tailBrigh'
p39
I0
sS'maxSteering'
p40
I20
sS'energy'
p41
F0.82181250041163989
sS'lastScale'
p42
F13.718125004116398
sb.(i__main__
Data_mobile
p1
(dp2
S'vel_y'
p3
F-0.39397227778746785
sS'vel_x'
p4
F-0.51686178728522669
sS'pos_x'
p5
F112.63951087371292
sS'pos_y'
p6
F13.429558225069318
sS'isAlive'
p7
I01
sS'cumulativeEnergy'
p8
F39.719390016683398
sS'geno'
p9
(i__main__
Node
p10
(dp11
S'depth'
p12
I1
sS'vector'
p13
S'+'
sS'right'
p14
(i__main__
Node
p15
(dp16
g12
I2
sg13
S'*'
sg14
(i__main__
Node
p17
(dp18
g12
I3
sg13
S'indiv.randV()'
p19
sg14
NsS'parent'
p20
g15
sS'left'
p21
Nsbsg20
g10
sg21
(i__main__
Node
p22
(dp23
g12
I3
sg13
S'indiv.target()'
p24
sg14
Nsg20
g15
sg21
Nsbsbsg20
Nsg21
(i__main__
Node
p25
(dp26
g12
I2
sg13
S'*'
sg14
(i__main__
Node
p27
(dp28
g12
I3
sg13
g19
sg14
Nsg20
g25
sg21
Nsbsg20
g10
sg21
(i__main__
Node
p29
(dp30
g12
I3
sg13
g24
sg14
Nsg20
g25
sg21
NsbsbsbsS'accel_x'
p31
F0.95209224181550234
sS'accel_y'
p32
F0.082653781992295866
sS'visionAngle'
p33
I130
sS'maxAccel'
p34
I2
sS'maxVel'
p35
F0.72999999999999998
sS'age'
p36
I50
sS'tailSize'
p37
I0
sS'sexualgeno'
p38
NsS'tailBrigh'
p39
I0
sS'maxSteering'
p40
I20
sS'energy'
p41
F1
sS'lastScale'
p42
F15.5
sb.(i__main__
Data_mobile
p1
(dp2
S'vel_y'
p3
F-0.63626233350769767
sS'vel_x'
p4
F-0.35786903045575119
sS'pos_x'
p5
F-10.535790529813944
sS'pos_y'
p6
F2.6522805197258204
sS'isAlive'
p7
I01
sS'cumulativeEnergy'
p8
F39.595912723251146
sS'geno'
p9
(i__main__
Node
p10
(dp11
S'depth'
p12
I1
sS'vector'
p13
S'+'
sS'right'
p14
(i__main__
Node
p15
(dp16
g12
I2
sg13
S'*'
sg14
(i__main__
Node
p17
(dp18
g12
I3
sg13
S'indiv.randV()'
p19
sg14
NsS'parent'
p20
g15
sS'left'
p21
Nsbsg20
g10
sg21
(i__main__
Node
p22
(dp23
g12
I3
sg13
S'indiv.target()'
p24
sg14
Nsg20
g15
sg21
Nsbsbsg20
Nsg21
(i__main__
Node
p25
(dp26
g12
I2
sg13
S'*'
sg14
(i__main__
Node
p27
(dp28
g12
I3
sg13
g19
sg14
Nsg20
g25
sg21
Nsbsg20
g10
sg21
(i__main__
Node
p29
(dp30
g12
I3
sg13
g24
sg14
Nsg20
g25
sg21
NsbsbsbsS'accel_x'
p31
F-0.24915963327247384
sS'accel_y'
p32
F-1.9844191787894829
sS'visionAngle'
p33
I130
sS'maxAccel'
p34
I2
sS'maxVel'
p35
F0.72999999999999998
sS'age'
p36
I100
sS'tailSize'
p37
I0
sS'sexualgeno'
p38
NsS'tailBrigh'
p39
I0
sS'maxSteering'
p40
I20
sS'energy'
p41
F0.67181250041163976
sS'lastScale'
p42
F12.218125004116398
sb.(i__main__
Data_mobile
p1
(dp2
S'vel_y'
p3
F-0.0027633959109248435
sS'vel_x'
p4
F0.72999476959978249
sS'pos_x'
p5
F89.398366217242298
sS'pos_y'
p6
F32.043029787457066
sS'isAlive'
p7
I01
sS'cumulativeEnergy'
p8
F39.088790066164819
sS'geno'
p9
(i__main__
Node
p10
(dp11
S'depth'
p12
I1
sS'vector'
p13
S'+'
sS'right'
p14
(i__main__
Node
p15
(dp16
g12
I2
sg13
S'*'
sg14
(i__main__
Node
p17
(dp18
g12
I3
sg13
S'indiv.randV()'
p19
sg14
NsS'parent'
p20
g15
sS'left'
p21
Nsbsg20
g10
sg21
(i__main__
Node
p22
(dp23
g12
I3
sg13
S'indiv.target()'
p24
sg14
Nsg20
g15
sg21
Nsbsbsg20
Nsg21
(i__main__
Node
p25
(dp26
g12
I2
sg13
S'*'
sg14
(i__main__
Node
p27
(dp28
g12
I3
sg13
g19
sg14
Nsg20
g25
sg21
Nsbsg20
g10
sg21
(i__main__
Node
p29
(dp30
g12
I3
sg13
g24
sg14
Nsg20
g25
sg21
NsbsbsbsS'accel_x'
p31
F-0.95562296386986123
sS'accel_y'
p32
F1.7569247994506145
sS'visionAngle'
p33
I130
sS'maxAccel'
p34
I2
sS'maxVel'
p35
F0.72999999999999998
sS'age'
p36
I200
sS'tailSize'
p37
I0
sS'sexualgeno'
p38
NsS'tailBrigh'
p39
I0
sS'maxSteering'
p40
I20
sS'energy'
p41
F0.36040182559302325
sS'lastScale'
p42
F9.1040182559302316
sb.(i__main__
Data_mobile
p1
(dp2
S'vel_y'
p3
F-0.54294514100122837
sS'vel_x'
p4
F-0.48796575070711284
sS'pos_x'
p5
F-108.91759103144649
sS'pos_y'
p6
F-2.64362681245552
sS'isAlive'
p7
I01
sS'cumulativeEnergy'
p8
F39.049478278358556
sS'geno'
p9
(i__main__
Node
p10
(dp11
S'depth'
p12
I1
sS'vector'
p13
S'+'
sS'right'
p14
(i__main__
Node
p15
(dp16
g12
I2
sg13
S'*'
sg14
(i__main__
Node
p17
(dp18
g12
I3
sg13
S'indiv.randV()'
p19
sg14
NsS'parent'
p20
g15
sS'left'
p21
Nsbsg20
g10
sg21
(i__main__
Node
p22
(dp23
g12
I3
sg13
S'indiv.target()'
p24
sg14
Nsg20
g15
sg21
Nsbsbsg20
Nsg21
(i__main__
Node
p25
(dp26
g12
I2
sg13
S'*'
sg14
(i__main__
Node
p27
(dp28
g12
I3
sg13
g19
sg14
Nsg20
g25
sg21
Nsbsg20
g10
sg21
(i__main__
Node
p29
(dp30
g12
I3
sg13
g24
sg14
Nsg20
g25
sg21
NsbsbsbsS'accel_x'
p31
F-1.8224665670929492
sS'accel_y'
p32
F-0.82378128883122925
sS'visionAngle'
p33
I130
sS'maxAccel'
p34
I2
sS'maxVel'
p35
F0.72999999999999998
sS'age'
p36
I100
sS'tailSize'
p37
I0
sS'sexualgeno'
p38
NsS'tailBrigh'
p39
I0
sS'maxSteering'
p40
I20
sS'energy'
p41
F0.92809823813916148
sS'lastScale'
p42
F14.780982381391617
sb.(i__main__
Data_mobile
p1
(dp2
S'vel_y'
p3
F-0.72380119887991234
sS'vel_x'
p4
F-0.094930629935768021
sS'pos_x'
p5
F101.30541596157697
sS'pos_y'
p6
F-86.702927545485423
sS'isAlive'
p7
I01
sS'cumulativeEnergy'
p8
F37.767862682391396
sS'geno'
p9
(i__main__
Node
p10
(dp11
S'depth'
p12
I1
sS'vector'
p13
S'+'
sS'right'
p14
(i__main__
Node
p15
(dp16
g12
I2
sg13
S'*'
sg14
(i__main__
Node
p17
(dp18
g12
I3
sg13
S'indiv.randV()'
p19
sg14
NsS'parent'
p20
g15
sS'left'
p21
Nsbsg20
g10
sg21
(i__main__
Node
p22
(dp23
g12
I3
sg13
S'indiv.target()'
p24
sg14
Nsg20
g15
sg21
Nsbsbsg20
Nsg21
(i__main__
Node
p25
(dp26
g12
I2
sg13
S'*'
sg14
(i__main__
Node
p27
(dp28
g12
I3
sg13
g19
sg14
Nsg20
g25
sg21
Nsbsg20
g10
sg21
(i__main__
Node
p29
(dp30
g12
I3
sg13
g24
sg14
Nsg20
g25
sg21
NsbsbsbsS'accel_x'
p31
F-0.061010721053697481
sS'accel_y'
p32
F-1.9990692063849387
sS'visionAngle'
p33
I130
sS'maxAccel'
p34
I2
sS'maxVel'
p35
F0.72999999999999998
sS'age'
p36
I150
sS'tailSize'
p37
I0
sS'sexualgeno'
p38
NsS'tailBrigh'
p39
I0
sS'maxSteering'
p40
I20
sS'energy'
p41
F0.7270261961900838
sS'lastScale'
p42
F12.770261961900836
sb.(i__main__
Data_mobile
p1
(dp2
S'vel_y'
p3
F-0.72713098103558649
sS'vel_x'
p4
F-0.064657067813390506
sS'pos_x'
p5
F27.892301513276262
sS'pos_y'
p6
F-106.83187836687262
sS'isAlive'
p7
I01
sS'cumulativeEnergy'
p8
F37.187319092701927
sS'geno'
p9
(i__main__
Node
p10
(dp11
S'depth'
p12
I1
sS'vector'
p13
S'+'
sS'right'
p14
(i__main__
Node
p15
(dp16
g12
I2
sg13
S'*'
sg14
(i__main__
Node
p17
(dp18
g12
I3
sg13
S'indiv.randV()'
p19
sg14
NsS'parent'
p20
g15
sS'left'
p21
Nsbsg20
g10
sg21
(i__main__
Node
p22
(dp23
g12
I3
sg13
S'indiv.target()'
p24
sg14
Nsg20
g15
sg21
Nsbsbsg20
Nsg21
(i__main__
Node
p25
(dp26
g12
I2
sg13
S'+'
sg14
(i__main__
Node
p27
(dp28
g12
I3
sg13
g24
sg14
Nsg20
g25
sg21
Nsbsg20
g10
sg21
(i__main__
Node
p29
(dp30
g12
I3
sg13
g24
sg14
Nsg20
g25
sg21
NsbsbsbsS'accel_x'
p31
F0
sS'accel_y'
p32
F0
sS'visionAngle'
p33
I130
sS'maxAccel'
p34
I2
sS'maxVel'
p35
F0.72999999999999998
sS'age'
p36
I150
sS'tailSize'
p37
I0
sS'sexualgeno'
p38
NsS'tailBrigh'
p39
I0
sS'maxSteering'
p40
I20
sS'energy'
p41
F0.31180802464909041
sS'lastScale'
p42
F8.618080246490905
sb.(i__main__
Data_mobile
p1
(dp2
S'vel_y'
p3
F-0.54512486795412807
sS'vel_x'
p4
F0.4855294824601224
sS'pos_x'
p5
F160.26314411966666
sS'pos_y'
p6
F-77.971430607464214
sS'isAlive'
p7
I01
sS'cumulativeEnergy'
p8
F36.400225752986053
sS'geno'
p9
(i__main__
Node
p10
(dp11
S'depth'
p12
I1
sS'vector'
p13
S'+'
sS'right'
p14
(i__main__
Node
p15
(dp16
g12
I2
sg13
S'*'
sg14
(i__main__
Node
p17
(dp18
g12
I3
sg13
S'indiv.randV()'
p19
sg14
NsS'parent'
p20
g15
sS'left'
p21
Nsbsg20
g10
sg21
(i__main__
Node
p22
(dp23
g12
I3
sg13
S'indiv.target()'
p24
sg14
Nsg20
g15
sg21
Nsbsbsg20
Nsg21
(i__main__
Node
p25
(dp26
g12
I2
sg13
S'*'
sg14
(i__main__
Node
p27
(dp28
g12
I3
sg13
g19
sg14
Nsg20
g25
sg21
Nsbsg20
g10
sg21
(i__main__
Node
p29
(dp30
g12
I3
sg13
g24
sg14
Nsg20
g25
sg21
NsbsbsbsS'accel_x'
p31
F0
sS'accel_y'
p32
F0
sS'visionAngle'
p33
I130
sS'maxAccel'
p34
I2
sS'maxVel'
p35
F0.72999999999999998
sS'age'
p36
I250
sS'tailSize'
p37
I0
sS'sexualgeno'
p38
NsS'tailBrigh'
p39
I0
sS'maxSteering'
p40
I20
sS'energy'
p41
F0.28000889522172995
sS'lastScale'
p42
F8.3000889522172994
sb.(i__main__
Data_mobile
p1
(dp2
S'vel_y'
p3
F-0.13199817759126509
sS'vel_x'
p4
F0.71796690809018826
sS'pos_x'
p5
F-117.03742488469774
sS'pos_y'
p6
F-96.745939487536063
sS'isAlive'
p7
I01
sS'cumulativeEnergy'
p8
F35.431245061703308
sS'geno'
p9
(i__main__
Node
p10
(dp11
S'depth'
p12
I1
sS'vector'
p13
S'+'
sS'right'
p14
(i__main__
Node
p15
(dp16
g12
I2
sg13
S'+'
sg14
(i__main__
Node
p17
(dp18
g12
I3
sg13
S'/'
sg14
(i__main__
Node
p19
(dp20
g12
I4
sg13
S'indiv.target()'
p21
sg14
NsS'parent'
p22
g17
sS'left'
p23
Nsbsg22
g15
sg23
(i__main__
Node
p24
(dp25
g12
I4
sg13
S'indiv.cohesion()'
p26
sg14
Nsg22
g17
sg23
Nsbsbsg22
g10
sg23
(i__main__
Node
p27
(dp28
g12
I3
sg13
S'+'
sg14
(i__main__
Node
p29
(dp30
g12
I4
sg13
g21
sg14
Nsg22
g27
sg23
Nsbsg22
g15
sg23
(i__main__
Node
p31
(dp32
g12
I4
sg13
g26
sg14
Nsg22
g27
sg23
Nsbsbsbsg22
Nsg23
(i__main__
Node
p33
(dp34
g12
I2
sg13
S'+'
sg14
(i__main__
Node
p35
(dp36
g12
I3
sg13
g21
sg14
Nsg22
g33
sg23
Nsbsg22
g10
sg23
(i__main__
Node
p37
(dp38
g12
I3
sg13
g21
sg14
Nsg22
g33
sg23
NsbsbsbsS'accel_x'
p39
F1.9637541145613024
sS'accel_y'
p40
F-0.37903796319571381
sS'visionAngle'
p41
I130
sS'maxAccel'
p42
I2
sS'maxVel'
p43
F0.72999999999999998
sS'age'
p44
I50
sS'tailSize'
p45
I0
sS'sexualgeno'
p46
NsS'tailBrigh'
p47
I0
sS'maxSteering'
p48
I20
sS'energy'
p49
F0.59825676022440022
sS'lastScale'
p50
F11.482567602244002
sb.(i__main__
Data_mobile
p1
(dp2
S'vel_y'
p3
F-0.71130702258543954
sS'vel_x'
p4
F-0.16414115760721687
sS'pos_x'
p5
F-80.933834967258733
sS'pos_y'
p6
F-56.598883630198237
sS'isAlive'
p7
I01
sS'cumulativeEnergy'
p8
F35.217812379444595
sS'geno'
p9
(i__main__
Node
p10
(dp11
S'depth'
p12
I1
sS'vector'
p13
S'+'
sS'right'
p14
(i__main__
Node
p15
(dp16
g12
I2
sg13
S'*'
sg14
(i__main__
Node
p17
(dp18
g12
I3
sg13
S'indiv.randV()'
p19
sg14
NsS'parent'
p20
g15
sS'left'
p21
Nsbsg20
g10
sg21
(i__main__
Node
p22
(dp23
g12
I3
sg13
S'indiv.target()'
p24
sg14
Nsg20
g15
sg21
Nsbsbsg20
Nsg21
(i__main__
Node
p25
(dp26
g12
I2
sg13
S'*'
sg14
(i__main__
Node
p27
(dp28
g12
I3
sg13
g19
sg14
Nsg20
g25
sg21
Nsbsg20
g10
sg21
(i__main__
Node
p29
(dp30
g12
I3
sg13
g24
sg14
Nsg20
g25
sg21
NsbsbsbsS'accel_x'
p31
F-1.9321751736316877
sS'accel_y'
p32
F0.51642918043170061
sS'visionAngle'
p33
I130
sS'maxAccel'
p34
I2
sS'maxVel'
p35
F0.72999999999999998
sS'age'
p36
I50
sS'tailSize'
p37
I0
sS'sexualgeno'
p38
NsS'tailBrigh'
p39
I0
sS'maxSteering'
p40
I20
sS'energy'
p41
F1
sS'lastScale'
p42
F15.5
sb.(i__main__
Data_mobile
p1
(dp2
S'vel_y'
p3
F-0.55070547329863195
sS'vel_x'
p4
F-0.47919044406053196
sS'pos_x'
p5
F-60.451003542836489
sS'pos_y'
p6
F40.582513130252103
sS'isAlive'
p7
I01
sS'cumulativeEnergy'
p8
F35.148260402477511
sS'geno'
p9
(i__main__
Node
p10
(dp11
S'depth'
p12
I1
sS'vector'
p13
S'+'
sS'right'
p14
(i__main__
Node
p15
(dp16
g12
I2
sg13
S'*'
sg14
(i__main__
Node
p17
(dp18
g12
I3
sg13
S'indiv.randV()'
p19
sg14
NsS'parent'
p20
g15
sS'left'
p21
Nsbsg20
g10
sg21
(i__main__
Node
p22
(dp23
g12
I3
sg13
S'indiv.target()'
p24
sg14
Nsg20
g15
sg21
Nsbsbsg20
Nsg21
(i__main__
Node
p25
(dp26
g12
I2
sg13
S'+'
sg14
(i__main__
Node
p27
(dp28
g12
I3
sg13
g24
sg14
Nsg20
g25
sg21
Nsbsg20
g10
sg21
(i__main__
Node
p29
(dp30
g12
I3
sg13
g24
sg14
Nsg20
g25
sg21
NsbsbsbsS'accel_x'
p31
F-1.48727546178013
sS'accel_y'
p32
F-1.337165547262829
sS'visionAngle'
p33
I130
sS'maxAccel'
p34
I2
sS'maxVel'
p35
F0.72999999999999998
sS'age'
p36
I50
sS'tailSize'
p37
I0
sS'sexualgeno'
p38
NsS'tailBrigh'
p39
I0
sS'maxSteering'
p40
I20
sS'energy'
p41
F1
sS'lastScale'
p42
F15.5
sb.(i__main__
Data_mobile
p1
(dp2
S'vel_y'
p3
F-1.9762625833649862e-322
sS'vel_x'
p4
F-3.1620201333839779e-322
sS'pos_x'
p5
F136.02131071353298
sS'pos_y'
p6
F-63.008828177303364
sS'isAlive'
p7
I01
sS'cumulativeEnergy'
p8
F34.881245061703311
sS'geno'
p9
(i__main__
Node
p10
(dp11
S'depth'
p12
I1
sS'vector'
p13
S'+'
sS'right'
p14
(i__main__
Node
p15
(dp16
g12
I2
sg13
S'*'
sg14
(i__main__
Node
p17
(dp18
g12
I3
sg13
S'indiv.randV()'
p19
sg14
NsS'parent'
p20
g15
sS'left'
p21
Nsbsg20
g10
sg21
(i__main__
Node
p22
(dp23
g12
I3
sg13
S'indiv.target()'
p24
sg14
Nsg20
g15
sg21
Nsbsbsg20
Nsg21
(i__main__
Node
p25
(dp26
g12
I2
sg13
S'-'
sg14
(i__main__
Node
p27
(dp28
g12
I3
sg13
S'indiv.currentVelocity()'
p29
sg14
Nsg20
g25
sg21
Nsbsg20
g10
sg21
(i__main__
Node
p30
(dp31
g12
I3
sg13
S'indiv.separation()'
p32
sg14
Nsg20
g25
sg21
NsbsbsbsS'accel_x'
p33
F3.1620201333839779e-322
sS'accel_y'
p34
F1.9762625833649862e-322
sS'visionAngle'
p35
I130
sS'maxAccel'
p36
I2
sS'maxVel'
p37
F0.72999999999999998
sS'age'
p38
I50
sS'tailSize'
p39
I0
sS'sexualgeno'
p40
NsS'tailBrigh'
p41
I0
sS'maxSteering'
p42
I20
sS'energy'
p43
F0.54825676022440006
sS'lastScale'
p44
F10.982567602244002
sb.(i__main__
Data_mobile
p1
(dp2
S'vel_y'
p3
F0.08716731957181105
sS'vel_x'
p4
F-0.72477710946101603
sS'pos_x'
p5
F68.469869586208659
sS'pos_y'
p6
F77.415078806555442
sS'isAlive'
p7
I01
sS'cumulativeEnergy'
p8
F34.703474955307506
sS'geno'
p9
(i__main__
Node
p10
(dp11
S'depth'
p12
I1
sS'vector'
p13
S'+'
sS'right'
p14
(i__main__
Node
p15
(dp16
g12
I2
sg13
S'+'
sg14
(i__main__
Node
p17
(dp18
g12
I3
sg13
S'indiv.target()'
p19
sg14
NsS'parent'
p20
g15
sS'left'
p21
Nsbsg20
g10
sg21
(i__main__
Node
p22
(dp23
g12
I3
sg13
g19
sg14
Nsg20
g15
sg21
Nsbsbsg20
Nsg21
(i__main__
Node
p24
(dp25
g12
I2
sg13
S'+'
sg14
(i__main__
Node
p26
(dp27
g12
I3
sg13
g19
sg14
Nsg20
g24
sg21
Nsbsg20
g10
sg21
(i__main__
Node
p28
(dp29
g12
I3
sg13
g19
sg14
Nsg20
g24
sg21
NsbsbsbsS'accel_x'
p30
F-1.6851795184511293
sS'accel_y'
p31
F-1.0771118746874995
sS'visionAngle'
p32
I130
sS'maxAccel'
p33
I2
sS'maxVel'
p34
F0.72999999999999998
sS'age'
p35
I150
sS'tailSize'
p36
I0
sS'sexualgeno'
p37
NsS'tailBrigh'
p38
I0
sS'maxSteering'
p39
I20
sS'energy'
p40
F0.765120357704138
sS'lastScale'
p41
F13.151203577041379
sb.(i__main__
Data_mobile
p1
(dp2
S'vel_y'
p3
F-0.62650425292787215
sS'vel_x'
p4
F0.3746897664245567
sS'pos_x'
p5
F31.180623045468923
sS'pos_y'
p6
F-80.396421112009449
sS'isAlive'
p7
I01
sS'cumulativeEnergy'
p8
F33.685852344322861
sS'geno'
p9
(i__main__
Node
p10
(dp11
S'depth'
p12
I1
sS'vector'
p13
S'+'
sS'right'
p14
(i__main__
Node
p15
(dp16
g12
I2
sg13
S'*'
sg14
(i__main__
Node
p17
(dp18
g12
I3
sg13
S'indiv.randV()'
p19
sg14
NsS'parent'
p20
g15
sS'left'
p21
Nsbsg20
g10
sg21
(i__main__
Node
p22
(dp23
g12
I3
sg13
S'indiv.target()'
p24
sg14
Nsg20
g15
sg21
Nsbsbsg20
Nsg21
(i__main__
Node
p25
(dp26
g12
I2
sg13
S'+'
sg14
(i__main__
Node
p27
(dp28
g12
I3
sg13
g24
sg14
Nsg20
g25
sg21
Nsbsg20
g10
sg21
(i__main__
Node
p29
(dp30
g12
I3
sg13
g24
sg14
Nsg20
g25
sg21
NsbsbsbsS'accel_x'
p31
F-1.3664065890176984
sS'accel_y'
p32
F1.460456446967529
sS'visionAngle'
p33
I130
sS'maxAccel'
p34
I2
sS'maxVel'
p35
F0.72999999999999998
sS'age'
p36
I50
sS'tailSize'
p37
I0
sS'sexualgeno'
p38
NsS'tailBrigh'
p39
I0
sS'maxSteering'
p40
I20
sS'energy'
p41
F1
sS'lastScale'
p42
F15.5
sb.(i__main__
Data_mobile
p1
(dp2
S'vel_y'
p3
F0.53184977686755475
sS'vel_x'
p4
F-0.50003581356332083
sS'pos_x'
p5
F128.85990377346235
sS'pos_y'
p6
F27.719391039440108
sS'isAlive'
p7
I01
sS'cumulativeEnergy'
p8
F32.49947255161954
sS'geno'
p9
(i__main__
Node
p10
(dp11
S'depth'
p12
I1
sS'vector'
p13
S'+'
sS'right'
p14
(i__main__
Node
p15
(dp16
g13
S'/'
sg12
I2
sg14
(i__main__
Node
p17
(dp18
g13
S'indiv.randV()'
p19
sg12
I3
sg14
NsS'parent'
p20
g15
sS'left'
p21
Nsbsg20
g10
sg21
(i__main__
Node
p22
(dp23
g13
S'indiv.currentEnergy()'
p24
sg12
I3
sg14
Nsg20
g15
sg21
Nsbsbsg20
Nsg21
(i__main__
Node
p25
(dp26
g12
I2
sg13
S'*'
sg14
(i__main__
Node
p27
(dp28
g12
I3
sg13
g19
sg14
Nsg20
g25
sg21
Nsbsg20
g10
sg21
(i__main__
Node
p29
(dp30
g12
I3
sg13
S'indiv.target()'
p31
sg14
Nsg20
g25
sg21
NsbsbsbsS'accel_x'
p32
F-1.989546110189536
sS'accel_y'
p33
F-0.20422114344427325
sS'visionAngle'
p34
I130
sS'maxAccel'
p35
I2
sS'maxVel'
p36
F0.72999999999999998
sS'age'
p37
I150
sS'tailSize'
p38
I0
sS'sexualgeno'
p39
NsS'tailBrigh'
p40
I0
sS'maxSteering'
p41
I20
sS'energy'
p42
F0.60792735969306433
sS'lastScale'
p43
F11.579273596930644
sb.(i__main__
Data_mobile
p1
(dp2
S'vel_y'
p3
F-0.41506602587277724
sS'vel_x'
p4
F0.60051660607028912
sS'pos_x'
p5
F37.055384549297649
sS'pos_y'
p6
F2.6732712345900356
sS'isAlive'
p7
I01
sS'cumulativeEnergy'
p8
F32.38662632723014
sS'geno'
p9
(i__main__
Node
p10
(dp11
S'depth'
p12
I1
sS'vector'
p13
S'+'
sS'right'
p14
(i__main__
Node
p15
(dp16
g12
I2
sg13
S'*'
sg14
(i__main__
Node
p17
(dp18
g12
I3
sg13
S'indiv.randV()'
p19
sg14
NsS'parent'
p20
g15
sS'left'
p21
Nsbsg20
g10
sg21
(i__main__
Node
p22
(dp23
g12
I3
sg13
S'indiv.target()'
p24
sg14
Nsg20
g15
sg21
Nsbsbsg20
Nsg21
(i__main__
Node
p25
(dp26
g13
S'*'
sg12
I2
sg14
(i__main__
Node
p27
(dp28
g13
g19
sg12
I3
sg14
Nsg20
g25
sg21
Nsbsg20
g10
sg21
(i__main__
Node
p29
(dp30
g13
S'indiv.alignment()'
p31
sg12
I3
sg14
Nsg20
g25
sg21
NsbsbsbsS'accel_x'
p32
F-0.38203435442376293
sS'accel_y'
p33
F0.63937824502437368
sS'visionAngle'
p34
I130
sS'maxAccel'
p35
I2
sS'maxVel'
p36
F0.72999999999999998
sS'age'
p37
I50
sS'tailSize'
p38
I0
sS'sexualgeno'
p39
NsS'tailBrigh'
p40
I0
sS'maxSteering'
p41
I20
sS'energy'
p42
F1
sS'lastScale'
p43
F15.5
sb.(i__main__
Data_mobile
p1
(dp2
S'vel_y'
p3
F-0.69119637907923026
sS'vel_x'
p4
F-0.23483518805273032
sS'pos_x'
p5
F-135.65464947797949
sS'pos_y'
p6
F47.054869957182227
sS'isAlive'
p7
I01
sS'cumulativeEnergy'
p8
F32.251925949053089
sS'geno'
p9
(i__main__
Node
p10
(dp11
S'depth'
p12
I1
sS'vector'
p13
S'+'
sS'right'
p14
(i__main__
Node
p15
(dp16
g12
I2
sg13
S'-'
sg14
(i__main__
Node
p17
(dp18
g12
I3
sg13
S'indiv.currentVelocity()'
p19
sg14
NsS'parent'
p20
g15
sS'left'
p21
Nsbsg20
g10
sg21
(i__main__
Node
p22
(dp23
g12
I3
sg13
S'indiv.separation()'
p24
sg14
Nsg20
g15
sg21
Nsbsbsg20
Nsg21
(i__main__
Node
p25
(dp26
g12
I2
sg13
S'+'
sg14
(i__main__
Node
p27
(dp28
g12
I3
sg13
S'indiv.target()'
p29
sg14
Nsg20
g25
sg21
Nsbsg20
g10
sg21
(i__main__
Node
p30
(dp31
g12
I3
sg13
g29
sg14
Nsg20
g25
sg21
NsbsbsbsS'accel_x'
p32
F-0.36326292947641936
sS'accel_y'
p33
F-1.2945359794870939
sS'visionAngle'
p34
I130
sS'maxAccel'
p35
I2
sS'maxVel'
p36
F0.72999999999999998
sS'age'
p37
I300
sS'tailSize'
p38
I0
sS'sexualgeno'
p39
NsS'tailBrigh'
p40
I0
sS'maxSteering'
p41
I20
sS'energy'
p42
F1
sS'lastScale'
p43
F15.5
sb.(i__main__
Data_mobile
p1
(dp2
S'vel_y'
p3
F0.7279429753027743
sS'vel_x'
p4
F0.054763351863673745
sS'pos_x'
p5
F-49.89073576607661
sS'pos_y'
p6
F73.207269931359008
sS'isAlive'
p7
I01
sS'cumulativeEnergy'
p8
F28.869305930445371
sS'geno'
p9
(i__main__
Node
p10
(dp11
S'depth'
p12
I1
sS'vector'
p13
S'+'
sS'right'
p14
(i__main__
Node
p15
(dp16
g12
I2
sg13
S'indiv.currentEnergy()'
p17
sg14
NsS'parent'
p18
g10
sS'left'
p19
Nsbsg18
Nsg19
(i__main__
Node
p20
(dp21
g12
I2
sg13
S'indiv.target()'
p22
sg14
Nsg18
g10
sg19
NsbsbsS'accel_x'
p23
F0.25173251372129524
sS'accel_y'
p24
F1.9840944386635324
sS'visionAngle'
p25
I130
sS'maxAccel'
p26
I2
sS'maxVel'
p27
F0.72999999999999998
sS'age'
p28
I100
sS'tailSize'
p29
I0
sS'sexualgeno'
p30
NsS'tailBrigh'
p31
I0
sS'maxSteering'
p32
I20
sS'energy'
p33
F0.73928086898664858
sS'lastScale'
p34
F12.892808689866486
sb.(i__main__
Data_mobile
p1
(dp2
S'vel_y'
p3
F0.31185290692306938
sS'vel_x'
p4
F0.6600361841926784
sS'pos_x'
p5
F168.71164032373258
sS'pos_y'
p6
F-65.73149607062129
sS'isAlive'
p7
I01
sS'cumulativeEnergy'
p8
F28.731245061703284
sS'geno'
p9
(i__main__
Node
p10
(dp11
S'depth'
p12
I1
sS'vector'
p13
S'+'
sS'right'
p14
(i__main__
Node
p15
(dp16
g12
I2
sg13
S'+'
sg14
(i__main__
Node
p17
(dp18
g12
I3
sg13
S'indiv.target()'
p19
sg14
NsS'parent'
p20
g15
sS'left'
p21
Nsbsg20
g10
sg21
(i__main__
Node
p22
(dp23
g12
I3
sg13
S'indiv.alignment()'
p24
sg14
Nsg20
g15
sg21
Nsbsbsg20
Nsg21
(i__main__
Node
p25
(dp26
g12
I2
sg13
S'*'
sg14
(i__main__
Node
p27
(dp28
g12
I3
sg13
S'indiv.randV()'
p29
sg14
Nsg20
g25
sg21
Nsbsg20
g10
sg21
(i__main__
Node
p30
(dp31
g12
I3
sg13
g19
sg14
Nsg20
g25
sg21
NsbsbsbsS'accel_x'
p32
F1.1475181931695728
sS'accel_y'
p33
F1.6380482277225048
sS'visionAngle'
p34
I130
sS'maxAccel'
p35
I2
sS'maxVel'
p36
F0.72999999999999998
sS'age'
p37
I50
sS'tailSize'
p38
I0
sS'sexualgeno'
p39
NsS'tailBrigh'
p40
I0
sS'maxSteering'
p41
I20
sS'energy'
p42
F0.39825676022439971
sS'lastScale'
p43
F9.4825676022439964
sb.(i__main__
Data_mobile
p1
(dp2
S'vel_y'
p3
F-0.69017943733050391
sS'vel_x'
p4
F-0.23780736802325758
sS'pos_x'
p5
F-11.302289645943242
sS'pos_y'
p6
F3.3350124659683704
sS'isAlive'
p7
I01
sS'cumulativeEnergy'
p8
F28.343978273211679
sS'geno'
p9
(i__main__
Node
p10
(dp11
S'depth'
p12
I1
sS'vector'
p13
S'+'
sS'right'
p14
(i__main__
Node
p15
(dp16
g12
I2
sg13
S'*'
sg14
(i__main__
Node
p17
(dp18
g12
I3
sg13
S'indiv.randV()'
p19
sg14
NsS'parent'
p20
g15
sS'left'
p21
Nsbsg20
g10
sg21
(i__main__
Node
p22
(dp23
g12
I3
sg13
S'indiv.target()'
p24
sg14
Nsg20
g15
sg21
Nsbsbsg20
Nsg21
(i__main__
Node
p25
(dp26
g12
I2
sg13
S'*'
sg14
(i__main__
Node
p27
(dp28
g12
I3
sg13
g19
sg14
Nsg20
g25
sg21
Nsbsg20
g10
sg21
(i__main__
Node
p29
(dp30
g12
I3
sg13
g24
sg14
Nsg20
g25
sg21
NsbsbsbsS'accel_x'
p31
F-0.69030547287715671
sS'accel_y'
p32
F-1.8770930595247122
sS'visionAngle'
p33
I130
sS'maxAccel'
p34
I2
sS'maxVel'
p35
F0.72999999999999998
sS'age'
p36
I100
sS'tailSize'
p37
I0
sS'sexualgeno'
p38
NsS'tailBrigh'
p39
I0
sS'maxSteering'
p40
I20
sS'energy'
p41
F0.26981502156396792
sS'lastScale'
p42
F8.1981502156396786
sb.(i__main__
Data_mobile
p1
(dp2
S'vel_y'
p3
F-0.59620206297935452
sS'vel_x'
p4
F0.42123995548756032
sS'pos_x'
p5
F-80.589642623761335
sS'pos_y'
p6
F-56.702374206414135
sS'isAlive'
p7
I01
sS'cumulativeEnergy'
p8
F28.194922974049241
sS'geno'
p9
(i__main__
Node
p10
(dp11
S'depth'
p12
I1
sS'vector'
p13
S'+'
sS'right'
p14
(i__main__
Node
p15
(dp16
g12
I2
sg13
S'*'
sg14
(i__main__
Node
p17
(dp18
g12
I3
sg13
S'indiv.randV()'
p19
sg14
NsS'parent'
p20
g15
sS'left'
p21
Nsbsg20
g10
sg21
(i__main__
Node
p22
(dp23
g12
I3
sg13
S'indiv.target()'
p24
sg14
Nsg20
g15
sg21
Nsbsbsg20
Nsg21
(i__main__
Node
p25
(dp26
g12
I2
sg13
S'+'
sg14
(i__main__
Node
p27
(dp28
g12
I3
sg13
g24
sg14
Nsg20
g25
sg21
Nsbsg20
g10
sg21
(i__main__
Node
p29
(dp30
g12
I3
sg13
g24
sg14
Nsg20
g25
sg21
NsbsbsbsS'accel_x'
p31
F-1.753216273969104
sS'accel_y'
p32
F0.96240983821337345
sS'visionAngle'
p33
I130
sS'maxAccel'
p34
I2
sS'maxVel'
p35
F0.72999999999999998
sS'age'
p36
I200
sS'tailSize'
p37
I0
sS'sexualgeno'
p38
NsS'tailBrigh'
p39
I0
sS'maxSteering'
p40
I20
sS'energy'
p41
F0.57174083665847231
sS'lastScale'
p42
F11.217408366584724
sb.(i__main__
Data_mobile
p1
(dp2
S'vel_y'
p3
F0.51629465747849113
sS'vel_x'
p4
F0.51608122099061837
sS'pos_x'
p5
F194.26481200604317
sS'pos_y'
p6
F-46.065407285765332
sS'isAlive'
p7
I01
sS'cumulativeEnergy'
p8
F25.65254436854147
sS'geno'
p9
(i__main__
Node
p10
(dp11
S'depth'
p12
I1
sS'vector'
p13
S'+'
sS'right'
p14
(i__main__
Node
p15
(dp16
g12
I2
sg13
S'*'
sg14
(i__main__
Node
p17
(dp18
g12
I3
sg13
S'indiv.randV()'
p19
sg14
NsS'parent'
p20
g15
sS'left'
p21
Nsbsg20
g10
sg21
(i__main__
Node
p22
(dp23
g12
I3
sg13
S'indiv.target()'
p24
sg14
Nsg20
g15
sg21
Nsbsbsg20
Nsg21
(i__main__
Node
p25
(dp26
g12
I2
sg13
S'+'
sg14
(i__main__
Node
p27
(dp28
g12
I3
sg13
S'+'
sg14
(i__main__
Node
p29
(dp30
g12
I4
sg13
g24
sg14
Nsg20
g27
sg21
Nsbsg20
g25
sg21
(i__main__
Node
p31
(dp32
g12
I4
sg13
S'indiv.currentEnergy()'
p33
sg14
Nsg20
g27
sg21
Nsbsbsg20
g10
sg21
(i__main__
Node
p34
(dp35
g12
I3
sg13
S'+'
sg14
(i__main__
Node
p36
(dp37
g12
I4
sg13
g24
sg14
Nsg20
g34
sg21
Nsbsg20
g25
sg21
(i__main__
Node
p38
(dp39
g12
I4
sg13
g24
sg14
Nsg20
g34
sg21
NsbsbsbsbsS'accel_x'
p40
F0.86002380153258151
sS'accel_y'
p41
F0.86002380153258151
sS'visionAngle'
p42
I130
sS'maxAccel'
p43
I2
sS'maxVel'
p44
F0.72999999999999998
sS'age'
p45
I200
sS'tailSize'
p46
I0
sS'sexualgeno'
p47
NsS'tailBrigh'
p48
I0
sS'maxSteering'
p49
I20
sS'energy'
p50
F0.86002380153258151
sS'lastScale'
p51
F14.100238015325816
sb.(i__main__
Data_mobile
p1
(dp2
S'vel_y'
p3
F0.42129598783413114
sS'vel_x'
p4
F0.59616246999862688
sS'pos_x'
p5
F197.70506227692508
sS'pos_y'
p6
F-46.935298435951744
sS'isAlive'
p7
I01
sS'cumulativeEnergy'
p8
F25.070341194943556
sS'geno'
p9
(i__main__
Node
p10
(dp11
S'depth'
p12
I1
sS'vector'
p13
S'+'
sS'right'
p14
(i__main__
Node
p15
(dp16
g12
I2
sg13
S'+'
sg14
(i__main__
Node
p17
(dp18
g12
I3
sg13
S'indiv.target()'
p19
sg14
NsS'parent'
p20
g15
sS'left'
p21
Nsbsg20
g10
sg21
(i__main__
Node
p22
(dp23
g12
I3
sg13
S'indiv.alignment()'
p24
sg14
Nsg20
g15
sg21
Nsbsbsg20
Nsg21
(i__main__
Node
p25
(dp26
g12
I2
sg13
S'*'
sg14
(i__main__
Node
p27
(dp28
g12
I3
sg13
S'indiv.randV()'
p29
sg14
Nsg20
g25
sg21
Nsbsg20
g10
sg21
(i__main__
Node
p30
(dp31
g12
I3
sg13
g19
sg14
Nsg20
g25
sg21
NsbsbsbsS'accel_x'
p32
F0.59627379386724633
sS'accel_y'
p33
F0.42113841281360281
sS'visionAngle'
p34
I130
sS'maxAccel'
p35
I2
sS'maxVel'
p36
F0.72999999999999998
sS'age'
p37
I100
sS'tailSize'
p38
I0
sS'sexualgeno'
p39
NsS'tailBrigh'
p40
I0
sS'maxSteering'
p41
I20
sS'energy'
p42
F0.81933263221155717
sS'lastScale'
p43
F13.693326322115571
sb.(i__main__
Data_mobile
p1
(dp2
S'vel_y'
p3
F-0.075099305613086267
sS'vel_x'
p4
F0.53003440541384039
sS'pos_x'
p5
F120.34886483941713
sS'pos_y'
p6
F-93.317762448155335
sS'isAlive'
p7
I01
sS'cumulativeEnergy'
p8
F24.281245061703292
sS'geno'
p9
(i__main__
Node
p10
(dp11
S'depth'
p12
I1
sS'vector'
p13
S'+'
sS'right'
p14
(i__main__
Node
p15
(dp16
g12
I2
sg13
S'*'
sg14
(i__main__
Node
p17
(dp18
g12
I3
sg13
S'indiv.randV()'
p19
sg14
NsS'parent'
p20
g15
sS'left'
p21
Nsbsg20
g10
sg21
(i__main__
Node
p22
(dp23
g12
I3
sg13
S'indiv.target()'
p24
sg14
Nsg20
g15
sg21
Nsbsbsg20
Nsg21
(i__main__
Node
p25
(dp26
g12
I2
sg13
S'*'
sg14
(i__main__
Node
p27
(dp28
g12
I3
sg13
S'-'
sg14
(i__main__
Node
p29
(dp30
g12
I4
sg13
S'indiv.currentVelocity()'
p31
sg14
Nsg20
g27
sg21
Nsbsg20
g25
sg21
(i__main__
Node
p32
(dp33
g12
I4
sg13
S'indiv.separation()'
p34
sg14
Nsg20
g27
sg21
Nsbsbsg20
g10
sg21
(i__main__
Node
p35
(dp36
g12
I3
sg13
S'+'
sg14
(i__main__
Node
p37
(dp38
g12
I4
sg13
g24
sg14
Nsg20
g35
sg21
Nsbsg20
g25
sg21
(i__main__
Node
p39
(dp40
g12
I4
sg13
S'indiv.alignment()'
p41
sg14
Nsg20
g35
sg21
NsbsbsbsbsS'accel_x'
p42
F0
sS'accel_y'
p43
F0
sS'visionAngle'
p44
I130
sS'maxAccel'
p45
I2
sS'maxVel'
p46
F0.72999999999999998
sS'age'
p47
I50
sS'tailSize'
p48
I0
sS'sexualgeno'
p49
NsS'tailBrigh'
p50
I0
sS'maxSteering'
p51
I20
sS'energy'
p52
F0.34825676022439966
sS'lastScale'
p53
F8.9825676022439964
sb.(i__main__
Data_mobile
p1
(dp2
S'vel_y'
p3
F-0.24451698507844674
sS'vel_x'
p4
F-0.68783097052120779
sS'pos_x'
p5
F150.94506260138925
sS'pos_y'
p6
F-23.269841310881716
sS'isAlive'
p7
I01
sS'cumulativeEnergy'
p8
F23.133715415738749
sS'geno'
p9
(i__main__
Node
p10
(dp11
S'depth'
p12
I1
sS'vector'
p13
S'+'
sS'right'
p14
(i__main__
Node
p15
(dp16
g12
I2
sg13
S'*'
sg14
(i__main__
Node
p17
(dp18
g12
I3
sg13
S'indiv.randV()'
p19
sg14
NsS'parent'
p20
g15
sS'left'
p21
Nsbsg20
g10
sg21
(i__main__
Node
p22
(dp23
g12
I3
sg13
S'indiv.target()'
p24
sg14
Nsg20
g15
sg21
Nsbsbsg20
Nsg21
(i__main__
Node
p25
(dp26
g12
I2
sg13
S'+'
sg14
(i__main__
Node
p27
(dp28
g12
I3
sg13
S'+'
sg14
(i__main__
Node
p29
(dp30
g12
I4
sg13
g24
sg14
Nsg20
g27
sg21
Nsbsg20
g25
sg21
(i__main__
Node
p31
(dp32
g12
I4
sg13
S'indiv.currentEnergy()'
p33
sg14
Nsg20
g27
sg21
Nsbsbsg20
g10
sg21
(i__main__
Node
p34
(dp35
g12
I3
sg13
S'-'
sg14
(i__main__
Node
p36
(dp37
g12
I4
sg13
g33
sg14
Nsg20
g34
sg21
Nsbsg20
g25
sg21
(i__main__
Node
p38
(dp39
g12
I4
sg13
g33
sg14
Nsg20
g34
sg21
NsbsbsbsbsS'accel_x'
p40
F-1.9736255264597349
sS'accel_y'
p41
F-0.32373180459530709
sS'visionAngle'
p42
I130
sS'maxAccel'
p43
I2
sS'maxVel'
p44
F0.72999999999999998
sS'age'
p45
I150
sS'tailSize'
p46
I0
sS'sexualgeno'
p47
NsS'tailBrigh'
p48
I0
sS'maxSteering'
p49
I20
sS'energy'
p50
I0
sS'lastScale'
p51
F5.5
sb.(i__main__
Data_mobile
p1
(dp2
S'vel_y'
p3
F-0.64535474356022637
sS'vel_x'
p4
F-0.34119972884560507
sS'pos_x'
p5
F-11.285049383241113
sS'pos_y'
p6
F0.17000364893783376
sS'isAlive'
p7
I01
sS'cumulativeEnergy'
p8
F22.131245061703286
sS'geno'
p9
(i__main__
Node
p10
(dp11
S'depth'
p12
I1
sS'vector'
p13
S'+'
sS'right'
p14
(i__main__
Node
p15
(dp16
g12
I2
sg13
S'*'
sg14
(i__main__
Node
p17
(dp18
g12
I3
sg13
S'indiv.randV()'
p19
sg14
NsS'parent'
p20
g15
sS'left'
p21
Nsbsg20
g10
sg21
(i__main__
Node
p22
(dp23
g12
I3
sg13
S'indiv.target()'
p24
sg14
Nsg20
g15
sg21
Nsbsbsg20
Nsg21
(i__main__
Node
p25
(dp26
g12
I2
sg13
S'*'
sg14
(i__main__
Node
p27
(dp28
g12
I3
sg13
g19
sg14
Nsg20
g25
sg21
Nsbsg20
g10
sg21
(i__main__
Node
p29
(dp30
g12
I3
sg13
g24
sg14
Nsg20
g25
sg21
NsbsbsbsS'accel_x'
p31
F-0.61444048852742339
sS'accel_y'
p32
F-1.9032768810812002
sS'visionAngle'
p33
I130
sS'maxAccel'
p34
I2
sS'maxVel'
p35
F0.72999999999999998
sS'age'
p36
I50
sS'tailSize'
p37
I0
sS'sexualgeno'
p38
NsS'tailBrigh'
p39
I0
sS'maxSteering'
p40
I20
sS'energy'
p41
F0.44825676022439953
sS'lastScale'
p42
F9.9825676022439946
sb.(i__main__
Data_mobile
p1
(dp2
S'vel_y'
p3
F0.5181576875921059
sS'vel_x'
p4
F0.51421066771237012
sS'pos_x'
p5
F71.545515995282145
sS'pos_y'
p6
F-0.98393641818556987
sS'isAlive'
p7
I01
sS'cumulativeEnergy'
p8
F20.481245061703294
sS'geno'
p9
(i__main__
Node
p10
(dp11
S'depth'
p12
I1
sS'vector'
p13
S'+'
sS'right'
p14
(i__main__
Node
p15
(dp16
g12
I2
sg13
S'indiv.currentEnergy()'
p17
sg14
NsS'parent'
p18
g10
sS'left'
p19
Nsbsg18
Nsg19
(i__main__
Node
p20
(dp21
g12
I2
sg13
S'+'
sg14
(i__main__
Node
p22
(dp23
g12
I3
sg13
S'indiv.target()'
p24
sg14
Nsg18
g20
sg19
Nsbsg18
g10
sg19
(i__main__
Node
p25
(dp26
g12
I3
sg13
g24
sg14
Nsg18
g20
sg19
NsbsbsbsS'accel_x'
p27
F-0.95920407516016015
sS'accel_y'
p28
F1.7549722340242715
sS'visionAngle'
p29
I130
sS'maxAccel'
p30
I2
sS'maxVel'
p31
F0.72999999999999998
sS'age'
p32
I50
sS'tailSize'
p33
I0
sS'sexualgeno'
p34
NsS'tailBrigh'
p35
I0
sS'maxSteering'
p36
I20
sS'energy'
p37
F0.49825676022439996
sS'lastScale'
p38
F10.482567602244
sb.(i__main__
Data_mobile
p1
(dp2
S'vel_y'
p3
F-0.52511359944729574
sS'vel_x'
p4
F-0.50710522347487719
sS'pos_x'
p5
F151.39649111946463
sS'pos_y'
p6
F-22.770510910917025
sS'isAlive'
p7
I01
sS'cumulativeEnergy'
p8
F20.3812450617033
sS'geno'
p9
(i__main__
Node
p10
(dp11
S'depth'
p12
I1
sS'vector'
p13
S'+'
sS'right'
p14
(i__main__
Node
p15
(dp16
g12
I2
sg13
S'*'
sg14
(i__main__
Node
p17
(dp18
g12
I3
sg13
S'indiv.randV()'
p19
sg14
NsS'parent'
p20
g15
sS'left'
p21
Nsbsg20
g10
sg21
(i__main__
Node
p22
(dp23
g12
I3
sg13
S'indiv.target()'
p24
sg14
Nsg20
g15
sg21
Nsbsbsg20
Nsg21
(i__main__
Node
p25
(dp26
g12
I2
sg13
S'+'
sg14
(i__main__
Node
p27
(dp28
g12
I3
sg13
g24
sg14
Nsg20
g25
sg21
Nsbsg20
g10
sg21
(i__main__
Node
p29
(dp30
g12
I3
sg13
S'indiv.currentEnergy()'
p31
sg14
Nsg20
g25
sg21
NsbsbsbsS'accel_x'
p32
F-1.2626383997504054
sS'accel_y'
p33
F-1.5510461861194642
sS'visionAngle'
p34
I130
sS'maxAccel'
p35
I2
sS'maxVel'
p36
F0.72999999999999998
sS'age'
p37
I50
sS'tailSize'
p38
I0
sS'sexualgeno'
p39
NsS'tailBrigh'
p40
I0
sS'maxSteering'
p41
I20
sS'energy'
p42
F0.29825676022439962
sS'lastScale'
p43
F8.4825676022439964
sb.(i__main__
Data_mobile
p1
(dp2
S'vel_y'
p3
F0.076188474231801306
sS'vel_x'
p4
F0.72601330317992807
sS'pos_x'
p5
F-74.2160150940189
sS'pos_y'
p6
F39.788086539562414
sS'isAlive'
p7
I01
sS'cumulativeEnergy'
p8
F20.331245061703292
sS'geno'
p9
(i__main__
Node
p10
(dp11
S'depth'
p12
I1
sS'vector'
p13
S'+'
sS'right'
p14
(i__main__
Node
p15
(dp16
g12
I2
sg13
S'indiv.currentEnergy()'
p17
sg14
NsS'parent'
p18
g10
sS'left'
p19
Nsbsg18
Nsg19
(i__main__
Node
p20
(dp21
g12
I2
sg13
S'indiv.target()'
p22
sg14
Nsg18
g10
sg19
NsbsbsS'accel_x'
p23
F1.9999523004307704
sS'accel_y'
p24
F-0.013812892588779753
sS'visionAngle'
p25
I130
sS'maxAccel'
p26
I2
sS'maxVel'
p27
F0.72999999999999998
sS'age'
p28
I50
sS'tailSize'
p29
I0
sS'sexualgeno'
p30
NsS'tailBrigh'
p31
I0
sS'maxSteering'
p32
I20
sS'energy'
p33
F0.5982567602244
sS'lastScale'
p34
F11.482567602244
sb.(i__main__
Data_mobile
p1
(dp2
S'vel_y'
p3
F0.71134196097018287
sS'vel_x'
p4
F0.16398967822120628
sS'pos_x'
p5
F127.98980284197214
sS'pos_y'
p6
F-22.364043175536477
sS'isAlive'
p7
I01
sS'cumulativeEnergy'
p8
F19.722847665208459
sS'geno'
p9
(i__main__
Node
p10
(dp11
S'depth'
p12
I1
sS'vector'
p13
S'+'
sS'right'
p14
(i__main__
Node
p15
(dp16
g12
I2
sg13
S'*'
sg14
(i__main__
Node
p17
(dp18
g12
I3
sg13
S'indiv.randV()'
p19
sg14
NsS'parent'
p20
g15
sS'left'
p21
Nsbsg20
g10
sg21
(i__main__
Node
p22
(dp23
g12
I3
sg13
S'indiv.target()'
p24
sg14
Nsg20
g15
sg21
Nsbsbsg20
Nsg21
(i__main__
Node
p25
(dp26
g12
I2
sg13
S'+'
sg14
(i__main__
Node
p27
(dp28
g12
I3
sg13
g24
sg14
Nsg20
g25
sg21
Nsbsg20
g10
sg21
(i__main__
Node
p29
(dp30
g12
I3
sg13
S'indiv.currentEnergy()'
p31
sg14
Nsg20
g25
sg21
NsbsbsbsS'accel_x'
p32
F0.9753931037575575
sS'accel_y'
p33
F-1.0063537559833509
sS'visionAngle'
p34
I130
sS'maxAccel'
p35
I2
sS'maxVel'
p36
F0.72999999999999998
sS'age'
p37
I50
sS'tailSize'
p38
I0
sS'sexualgeno'
p39
NsS'tailBrigh'
p40
I0
sS'maxSteering'
p41
I20
sS'energy'
p42
F1
sS'lastScale'
p43
F15.5
sb.(i__main__
Data_mobile
p1
(dp2
S'vel_y'
p3
F0.67769005233450863
sS'vel_x'
p4
F-0.27135989564939555
sS'pos_x'
p5
F-114.6911488676262
sS'pos_y'
p6
F-15.609597101716785
sS'isAlive'
p7
I01
sS'cumulativeEnergy'
p8
F18.681245061703287
sS'geno'
p9
(i__main__
Node
p10
(dp11
S'depth'
p12
I1
sS'vector'
p13
S'+'
sS'right'
p14
(i__main__
Node
p15
(dp16
g12
I2
sg13
S'*'
sg14
(i__main__
Node
p17
(dp18
g12
I3
sg13
S'indiv.randV()'
p19
sg14
NsS'parent'
p20
g15
sS'left'
p21
Nsbsg20
g10
sg21
(i__main__
Node
p22
(dp23
g12
I3
sg13
S'indiv.target()'
p24
sg14
Nsg20
g15
sg21
Nsbsbsg20
Nsg21
(i__main__
Node
p25
(dp26
g12
I2
sg13
S'*'
sg14
(i__main__
Node
p27
(dp28
g12
I3
sg13
g19
sg14
Nsg20
g25
sg21
Nsbsg20
g10
sg21
(i__main__
Node
p29
(dp30
g12
I3
sg13
g24
sg14
Nsg20
g25
sg21
NsbsbsbsS'accel_x'
p31
F-0.74233521458358631
sS'accel_y'
p32
F1.8571317748585159
sS'visionAngle'
p33
I130
sS'maxAccel'
p34
I2
sS'maxVel'
p35
F0.72999999999999998
sS'age'
p36
I50
sS'tailSize'
p37
I0
sS'sexualgeno'
p38
NsS'tailBrigh'
p39
I0
sS'maxSteering'
p40
I20
sS'energy'
p41
F0.19825676022439961
sS'lastScale'
p42
F7.4825676022439964
sb.(i__main__
Data_mobile
p1
(dp2
S'vel_y'
p3
F-0.12153673876891538
sS'vel_x'
p4
F0.71981165670570835
sS'pos_x'
p5
F23.220490001818735
sS'pos_y'
p6
F-78.326110072891012
sS'isAlive'
p7
I01
sS'cumulativeEnergy'
p8
F18.231245061703291
sS'geno'
p9
(i__main__
Node
p10
(dp11
S'depth'
p12
I1
sS'vector'
p13
S'+'
sS'right'
p14
(i__main__
Node
p15
(dp16
g12
I2
sg13
S'*'
sg14
(i__main__
Node
p17
(dp18
g12
I3
sg13
S'indiv.randV()'
p19
sg14
NsS'parent'
p20
g15
sS'left'
p21
Nsbsg20
g10
sg21
(i__main__
Node
p22
(dp23
g12
I3
sg13
S'indiv.target()'
p24
sg14
Nsg20
g15
sg21
Nsbsbsg20
Nsg21
(i__main__
Node
p25
(dp26
g12
I2
sg13
S'+'
sg14
(i__main__
Node
p27
(dp28
g12
I3
sg13
g24
sg14
Nsg20
g25
sg21
Nsbsg20
g10
sg21
(i__main__
Node
p29
(dp30
g12
I3
sg13
g24
sg14
Nsg20
g25
sg21
NsbsbsbsS'accel_x'
p31
F1.9983669503990273
sS'accel_y'
p32
F-0.080805516846879963
sS'visionAngle'
p33
I130
sS'maxAccel'
p34
I2
sS'maxVel'
p35
F0.72999999999999998
sS'age'
p36
I50
sS'tailSize'
p37
I0
sS'sexualgeno'
p38
NsS'tailBrigh'
p39
I0
sS'maxSteering'
p40
I20
sS'energy'
p41
F0.24825676022439955
sS'lastScale'
p42
F7.9825676022439955
sb.(i__main__
Data_mobile
p1
(dp2
S'vel_y'
p3
F0.42113841281360281
sS'vel_x'
p4
F0.59627379386724633
sS'pos_x'
p5
F197.82504392906912
sS'pos_y'
p6
F-46.468105002082957
sS'isAlive'
p7
I01
sS'cumulativeEnergy'
p8
F17.231245061703298
sS'geno'
p9
(i__main__
Node
p10
(dp11
S'depth'
p12
I1
sS'vector'
p13
S'+'
sS'right'
p14
(i__main__
Node
p15
(dp16
g12
I2
sg13
S'+'
sg14
(i__main__
Node
p17
(dp18
g12
I3
sg13
S'indiv.target()'
p19
sg14
NsS'parent'
p20
g15
sS'left'
p21
Nsbsg20
g10
sg21
(i__main__
Node
p22
(dp23
g12
I3
sg13
g19
sg14
Nsg20
g15
sg21
Nsbsbsg20
Nsg21
(i__main__
Node
p24
(dp25
g12
I2
sg13
S'*'
sg14
(i__main__
Node
p26
(dp27
g12
I3
sg13
S'+'
sg14
(i__main__
Node
p28
(dp29
g12
I4
sg13
S'+'
sg14
(i__main__
Node
p30
(dp31
g12
I5
sg13
g19
sg14
Nsg20
g28
sg21
Nsbsg20
g26
sg21
(i__main__
Node
p32
(dp33
g12
I5
sg13
S'indiv.currentEnergy()'
p34
sg14
Nsg20
g28
sg21
Nsbsbsg20
g24
sg21
(i__main__
Node
p35
(dp36
g12
I4
sg13
S'*'
sg14
(i__main__
Node
p37
(dp38
g12
I5
sg13
S'indiv.randV()'
p39
sg14
Nsg20
g35
sg21
Nsbsg20
g26
sg21
(i__main__
Node
p40
(dp41
g12
I5
sg13
g19
sg14
Nsg20
g35
sg21
Nsbsbsbsg20
g10
sg21
(i__main__
Node
p42
(dp43
g12
I3
sg13
S'+'
sg14
(i__main__
Node
p44
(dp45
g12
I4
sg13
g19
sg14
Nsg20
g42
sg21
Nsbsg20
g24
sg21
(i__main__
Node
p46
(dp47
g12
I4
sg13
S'indiv.alignment()'
p48
sg14
Nsg20
g42
sg21
NsbsbsbsbsS'accel_x'
p49
F0.20761230715979812
sS'accel_y'
p50
F0.14672667993267186
sS'visionAngle'
p51
I130
sS'maxAccel'
p52
I2
sS'maxVel'
p53
F0.72999999999999998
sS'age'
p54
I50
sS'tailSize'
p55
I0
sS'sexualgeno'
p56
NsS'tailBrigh'
p57
I0
sS'maxSteering'
p58
I20
sS'energy'
p59
F0.34825676022439955
sS'lastScale'
p60
F8.9825676022439964
sb.(i__main__
Data_mobile
p1
(dp2
S'vel_y'
p3
F-0.3137214132223955
sS'vel_x'
p4
F-0.3481300550273464
sS'pos_x'
p5
F-81.909308238036175
sS'pos_y'
p6
F-57.503025101321505
sS'isAlive'
p7
I01
sS'cumulativeEnergy'
p8
F16.631245061703297
sS'geno'
p9
(i__main__
Node
p10
(dp11
S'depth'
p12
I1
sS'vector'
p13
S'+'
sS'right'
p14
(i__main__
Node
p15
(dp16
g12
I2
sg13
S'-'
sg14
(i__main__
Node
p17
(dp18
g12
I3
sg13
S'indiv.currentVelocity()'
p19
sg14
NsS'parent'
p20
g15
sS'left'
p21
Nsbsg20
g10
sg21
(i__main__
Node
p22
(dp23
g12
I3
sg13
S'indiv.separation()'
p24
sg14
Nsg20
g15
sg21
Nsbsbsg20
Nsg21
(i__main__
Node
p25
(dp26
g12
I2
sg13
S'*'
sg14
(i__main__
Node
p27
(dp28
g12
I3
sg13
S'indiv.randV()'
p29
sg14
Nsg20
g25
sg21
Nsbsg20
g10
sg21
(i__main__
Node
p30
(dp31
g12
I3
sg13
S'indiv.target()'
p32
sg14
Nsg20
g25
sg21
NsbsbsbsS'accel_x'
p33
F0.35276428096365409
sS'accel_y'
p34
F1.9686435335215453
sS'visionAngle'
p35
I130
sS'maxAccel'
p36
I2
sS'maxVel'
p37
F0.72999999999999998
sS'age'
p38
I50
sS'tailSize'
p39
I0
sS'sexualgeno'
p40
NsS'tailBrigh'
p41
I0
sS'maxSteering'
p42
I20
sS'energy'
p43
F0.94825676022439997
sS'lastScale'
p44
F14.982567602244
sb.(i__main__
Data_mobile
p1
(dp2
S'vel_y'
p3
F0.1091261872223762
sS'vel_x'
p4
F-0.72179739211381666
sS'pos_x'
p5
F57.155884134538972
sS'pos_y'
p6
F-3.4028631115879922
sS'isAlive'
p7
I01
sS'cumulativeEnergy'
p8
F16.581245061703289
sS'geno'
p9
(i__main__
Node
p10
(dp11
S'depth'
p12
I1
sS'vector'
p13
S'+'
sS'right'
p14
(i__main__
Node
p15
(dp16
g12
I2
sg13
S'*'
sg14
(i__main__
Node
p17
(dp18
g12
I3
sg13
S'indiv.randV()'
p19
sg14
NsS'parent'
p20
g15
sS'left'
p21
Nsbsg20
g10
sg21
(i__main__
Node
p22
(dp23
g12
I3
sg13
S'indiv.target()'
p24
sg14
Nsg20
g15
sg21
Nsbsbsg20
Nsg21
(i__main__
Node
p25
(dp26
g12
I2
sg13
S'*'
sg14
(i__main__
Node
p27
(dp28
g12
I3
sg13
g19
sg14
Nsg20
g25
sg21
Nsbsg20
g10
sg21
(i__main__
Node
p29
(dp30
g12
I3
sg13
g24
sg14
Nsg20
g25
sg21
NsbsbsbsS'accel_x'
p31
F-1.9908450286146946
sS'accel_y'
p32
F0.19114411327622902
sS'visionAngle'
p33
I130
sS'maxAccel'
p34
I2
sS'maxVel'
p35
F0.72999999999999998
sS'age'
p36
I50
sS'tailSize'
p37
I0
sS'sexualgeno'
p38
NsS'tailBrigh'
p39
I0
sS'maxSteering'
p40
I20
sS'energy'
p41
F0.29825676022439951
sS'lastScale'
p42
F8.4825676022439946
sb.(i__main__
Data_mobile
p1
(dp2
S'vel_y'
p3
F0.72408105009782553
sS'vel_x'
p4
F-0.092771940204083983
sS'pos_x'
p5
F-43.392203006837228
sS'pos_y'
p6
F-40.853483715443865
sS'isAlive'
p7
I01
sS'cumulativeEnergy'
p8
F16.331245061703289
sS'geno'
p9
(i__main__
Node
p10
(dp11
S'depth'
p12
I1
sS'vector'
p13
S'+'
sS'right'
p14
(i__main__
Node
p15
(dp16
g13
S'+'
sg12
I2
sg14
(i__main__
Node
p17
(dp18
g13
S'+'
sg12
I3
sg14
(i__main__
Node
p19
(dp20
g13
S'indiv.alignment()'
p21
sg12
I4
sg14
NsS'parent'
p22
g17
sS'left'
p23
Nsbsg22
g15
sg23
(i__main__
Node
p24
(dp25
g13
g21
sg12
I4
sg14
Nsg22
g17
sg23
Nsbsbsg22
g10
sg23
(i__main__
Node
p26
(dp27
g13
S'+'
sg12
I3
sg14
(i__main__
Node
p28
(dp29
g13
S'indiv.currentVelocity()'
p30
sg12
I4
sg14
Nsg22
g26
sg23
Nsbsg22
g15
sg23
(i__main__
Node
p31
(dp32
g13
S'indiv.cohesion()'
p33
sg12
I4
sg14
Nsg22
g26
sg23
Nsbsbsbsg22
Nsg23
(i__main__
Node
p34
(dp35
g12
I2
sg13
S'*'
sg14
(i__main__
Node
p36
(dp37
g12
I3
sg13
S'indiv.randV()'
p38
sg14
Nsg22
g34
sg23
Nsbsg22
g10
sg23
(i__main__
Node
p39
(dp40
g12
I3
sg13
S'indiv.target()'
p41
sg14
Nsg22
g34
sg23
NsbsbsbsS'accel_x'
p42
F-0.092771940204083983
sS'accel_y'
p43
F0.72408105009782553
sS'visionAngle'
p44
I130
sS'maxAccel'
p45
I2
sS'maxVel'
p46
F0.72999999999999998
sS'age'
p47
I50
sS'tailSize'
p48
I0
sS'sexualgeno'
p49
NsS'tailBrigh'
p50
I0
sS'maxSteering'
p51
I20
sS'energy'
p52
F0.19825676022439959
sS'lastScale'
p53
F7.4825676022439964
sb.(i__main__
Data_mobile
p1
(dp2
S'vel_y'
p3
F-0.09937704967827872
sS'vel_x'
p4
F0.72320412194431027
sS'pos_x'
p5
F162.72811556723605
sS'pos_y'
p6
F-81.717217818523565
sS'isAlive'
p7
I01
sS'cumulativeEnergy'
p8
F15.881245061703291
sS'geno'
p9
(i__main__
Node
p10
(dp11
S'depth'
p12
I1
sS'vector'
p13
S'+'
sS'right'
p14
(i__main__
Node
p15
(dp16
g12
I2
sg13
S'+'
sg14
(i__main__
Node
p17
(dp18
g12
I3
sg13
S'indiv.currentVelocity()'
p19
sg14
NsS'parent'
p20
g15
sS'left'
p21
Nsbsg20
g10
sg21
(i__main__
Node
p22
(dp23
g12
I3
sg13
S'*'
sg14
(i__main__
Node
p24
(dp25
g12
I4
sg13
S'indiv.randV()'
p26
sg14
Nsg20
g22
sg21
Nsbsg20
g15
sg21
(i__main__
Node
p27
(dp28
g12
I4
sg13
S'indiv.target()'
p29
sg14
Nsg20
g22
sg21
Nsbsbsbsg20
Nsg21
(i__main__
Node
p30
(dp31
g12
I2
sg13
S'*'
sg14
(i__main__
Node
p32
(dp33
g12
I3
sg13
g26
sg14
Nsg20
g30
sg21
Nsbsg20
g10
sg21
(i__main__
Node
p34
(dp35
g12
I3
sg13
g29
sg14
Nsg20
g30
sg21
NsbsbsbsS'accel_x'
p36
F0.72320412194431027
sS'accel_y'
p37
F-0.09937704967827872
sS'visionAngle'
p38
I130
sS'maxAccel'
p39
I2
sS'maxVel'
p40
F0.72999999999999998
sS'age'
p41
I50
sS'tailSize'
p42
I0
sS'sexualgeno'
p43
NsS'tailBrigh'
p44
I0
sS'maxSteering'
p45
I20
sS'energy'
p46
F0.098256760224399664
sS'lastScale'
p47
F6.4825676022439964
sb.(i__main__
Data_mobile
p1
(dp2
S'vel_y'
p3
F0.42113212734839583
sS'vel_x'
p4
F0.59627823313870376
sS'pos_x'
p5
F74.766389085840729
sS'pos_y'
p6
F-6.2208777007849569
sS'isAlive'
p7
I01
sS'cumulativeEnergy'
p8
F15.520341194943555
sS'geno'
p9
(i__main__
Node
p10
(dp11
S'depth'
p12
I1
sS'vector'
p13
S'+'
sS'right'
p14
(i__main__
Node
p15
(dp16
g12
I2
sg13
S'*'
sg14
(i__main__
Node
p17
(dp18
g12
I3
sg13
S'indiv.randV()'
p19
sg14
NsS'parent'
p20
g15
sS'left'
p21
Nsbsg20
g10
sg21
(i__main__
Node
p22
(dp23
g12
I3
sg13
S'indiv.target()'
p24
sg14
Nsg20
g15
sg21
Nsbsbsg20
Nsg21
(i__main__
Node
p25
(dp26
g12
I2
sg13
S'*'
sg14
(i__main__
Node
p27
(dp28
g12
I3
sg13
g19
sg14
Nsg20
g25
sg21
Nsbsg20
g10
sg21
(i__main__
Node
p29
(dp30
g12
I3
sg13
g24
sg14
Nsg20
g25
sg21
NsbsbsbsS'accel_x'
p31
F0
sS'accel_y'
p32
F0
sS'visionAngle'
p33
I130
sS'maxAccel'
p34
I2
sS'maxVel'
p35
F0.72999999999999998
sS'age'
p36
I100
sS'tailSize'
p37
I0
sS'sexualgeno'
p38
NsS'tailBrigh'
p39
I0
sS'maxSteering'
p40
I20
sS'energy'
p41
F0.21933263221155702
sS'lastScale'
p42
F7.6933263221155697
sb.(i__main__
Data_mobile
p1
(dp2
S'vel_y'
p3
F-0.68622400155349594
sS'vel_x'
p4
F-0.24899120404525887
sS'pos_x'
p5
F-11.315686412264039
sS'pos_y'
p6
F0.74408132317338838
sS'isAlive'
p7
I01
sS'cumulativeEnergy'
p8
F14.78124506170329
sS'geno'
p9
(i__main__
Node
p10
(dp11
S'depth'
p12
I1
sS'vector'
p13
S'+'
sS'right'
p14
(i__main__
Node
p15
(dp16
g13
S'-'
sg12
I2
sg14
(i__main__
Node
p17
(dp18
g13
S'indiv.currentVelocity()'
p19
sg12
I3
sg14
NsS'parent'
p20
g15
sS'left'
p21
Nsbsg20
g10
sg21
(i__main__
Node
p22
(dp23
g13
S'indiv.target()'
p24
sg12
I3
sg14
Nsg20
g15
sg21
Nsbsbsg20
Nsg21
(i__main__
Node
p25
(dp26
g12
I2
sg13
S'+'
sg14
(i__main__
Node
p27
(dp28
g12
I3
sg13
g24
sg14
Nsg20
g25
sg21
Nsbsg20
g10
sg21
(i__main__
Node
p29
(dp30
g12
I3
sg13
g24
sg14
Nsg20
g25
sg21
NsbsbsbsS'accel_x'
p31
F-0.69755427302339867
sS'accel_y'
p32
F-1.8744113839247774
sS'visionAngle'
p33
I130
sS'maxAccel'
p34
I2
sS'maxVel'
p35
F0.72999999999999998
sS'age'
p36
I50
sS'tailSize'
p37
I0
sS'sexualgeno'
p38
NsS'tailBrigh'
p39
I0
sS'maxSteering'
p40
I20
sS'energy'
p41
F0.098256760224399664
sS'lastScale'
p42
F6.4825676022439964
sb.(i__main__
Data_mobile
p1
(dp2
S'vel_y'
p3
F-7.8085084891551991e-285
sS'vel_x'
p4
F4.0251517759318246e-279
sS'pos_x'
p5
F161.9333179048227
sS'pos_y'
p6
F-83.498918859117396
sS'isAlive'
p7
I01
sS'cumulativeEnergy'
p8
F14.281245061703293
sS'geno'
p9
(i__main__
Node
p10
(dp11
S'depth'
p12
I1
sS'vector'
p13
S'+'
sS'right'
p14
(i__main__
Node
p15
(dp16
g12
I2
sg13
S'*'
sg14
(i__main__
Node
p17
(dp18
g12
I3
sg13
S'indiv.randV()'
p19
sg14
NsS'parent'
p20
g15
sS'left'
p21
Nsbsg20
g10
sg21
(i__main__
Node
p22
(dp23
g12
I3
sg13
S'indiv.target()'
p24
sg14
Nsg20
g15
sg21
Nsbsbsg20
Nsg21
(i__main__
Node
p25
(dp26
g12
I2
sg13
S'-'
sg14
(i__main__
Node
p27
(dp28
g12
I3
sg13
S'indiv.currentVelocity()'
p29
sg14
Nsg20
g25
sg21
Nsbsg20
g10
sg21
(i__main__
Node
p30
(dp31
g12
I3
sg13
S'indiv.separation()'
p32
sg14
Nsg20
g25
sg21
NsbsbsbsS'accel_x'
p33
F-4.0251517759318246e-279
sS'accel_y'
p34
F7.8085084891551991e-285
sS'visionAngle'
p35
I130
sS'maxAccel'
p36
I2
sS'maxVel'
p37
F0.72999999999999998
sS'age'
p38
I50
sS'tailSize'
p39
I0
sS'sexualgeno'
p40
NsS'tailBrigh'
p41
I0
sS'maxSteering'
p42
I20
sS'energy'
p43
F0.098256760224399664
sS'lastScale'
p44
F6.4825676022439964
sb.(i__main__
Data_mobile
p1
(dp2
S'vel_y'
p3
F-0.59255078098001246
sS'vel_x'
p4
F0.42636084712362748
sS'pos_x'
p5
F158.70399341613873
sS'pos_y'
p6
F-84.18348610215412
sS'isAlive'
p7
I01
sS'cumulativeEnergy'
p8
F14.031245061703293
sS'geno'
p9
(i__main__
Node
p10
(dp11
S'depth'
p12
I1
sS'vector'
p13
S'+'
sS'right'
p14
(i__main__
Node
p15
(dp16
g12
I2
sg13
S'*'
sg14
(i__main__
Node
p17
(dp18
g12
I3
sg13
S'indiv.randV()'
p19
sg14
NsS'parent'
p20
g15
sS'left'
p21
Nsbsg20
g10
sg21
(i__main__
Node
p22
(dp23
g12
I3
sg13
S'indiv.target()'
p24
sg14
Nsg20
g15
sg21
Nsbsbsg20
Nsg21
(i__main__
Node
p25
(dp26
g12
I2
sg13
S'+'
sg14
(i__main__
Node
p27
(dp28
g12
I3
sg13
g24
sg14
Nsg20
g25
sg21
Nsbsg20
g10
sg21
(i__main__
Node
p29
(dp30
g12
I3
sg13
g24
sg14
Nsg20
g25
sg21
NsbsbsbsS'accel_x'
p31
F0
sS'accel_y'
p32
F0
sS'visionAngle'
p33
I130
sS'maxAccel'
p34
I2
sS'maxVel'
p35
F0.72999999999999998
sS'age'
p36
I50
sS'tailSize'
p37
I0
sS'sexualgeno'
p38
NsS'tailBrigh'
p39
I0
sS'maxSteering'
p40
I20
sS'energy'
p41
F0.048256760224399717
sS'lastScale'
p42
F5.9825676022439973
sb.(i__main__
Data_mobile
p1
(dp2
S'vel_y'
p3
F0.68088289555553083
sS'vel_x'
p4
F0.26324604942888713
sS'pos_x'
p5
F128.13558274747962
sS'pos_y'
p6
F-22.994249505475874
sS'isAlive'
p7
I01
sS'cumulativeEnergy'
p8
F13.181245061703294
sS'geno'
p9
(i__main__
Node
p10
(dp11
S'depth'
p12
I1
sS'vector'
p13
S'+'
sS'right'
p14
(i__main__
Node
p15
(dp16
g12
I2
sg13
S'indiv.currentEnergy()'
p17
sg14
NsS'parent'
p18
g10
sS'left'
p19
Nsbsg18
Nsg19
(i__main__
Node
p20
(dp21
g12
I2
sg13
S'*'
sg14
(i__main__
Node
p22
(dp23
g12
I3
sg13
S'indiv.randV()'
p24
sg14
Nsg18
g20
sg19
Nsbsg18
g10
sg19
(i__main__
Node
p25
(dp26
g12
I3
sg13
S'indiv.target()'
p27
sg14
Nsg18
g20
sg19
NsbsbsbsS'accel_x'
p28
F-0.22424917759967489
sS'accel_y'
p29
F-0.074139916938086581
sS'visionAngle'
p30
I130
sS'maxAccel'
p31
I2
sS'maxVel'
p32
F0.72999999999999998
sS'age'
p33
I50
sS'tailSize'
p34
I0
sS'sexualgeno'
p35
NsS'tailBrigh'
p36
I0
sS'maxSteering'
p37
I20
sS'energy'
p38
F0.34825676022439972
sS'lastScale'
p39
F8.9825676022439982
sb.(i__main__
Data_mobile
p1
(dp2
S'vel_y'
p3
F-0.13012441688466225
sS'vel_x'
p4
F0.71830887237345653
sS'pos_x'
p5
F18.989350311178047
sS'pos_y'
p6
F-77.779690308442198
sS'isAlive'
p7
I01
sS'cumulativeEnergy'
p8
F12.231245061703294
sS'geno'
p9
(i__main__
Node
p10
(dp11
S'depth'
p12
I1
sS'vector'
p13
S'+'
sS'right'
p14
(i__main__
Node
p15
(dp16
g12
I2
sg13
S'*'
sg14
(i__main__
Node
p17
(dp18
g12
I3
sg13
S'indiv.randV()'
p19
sg14
NsS'parent'
p20
g15
sS'left'
p21
Nsbsg20
g10
sg21
(i__main__
Node
p22
(dp23
g12
I3
sg13
S'indiv.target()'
p24
sg14
Nsg20
g15
sg21
Nsbsbsg20
Nsg21
(i__main__
Node
p25
(dp26
g12
I2
sg13
S'*'
sg14
(i__main__
Node
p27
(dp28
g12
I3
sg13
g19
sg14
Nsg20
g25
sg21
Nsbsg20
g10
sg21
(i__main__
Node
p29
(dp30
g12
I3
sg13
g24
sg14
Nsg20
g25
sg21
NsbsbsbsS'accel_x'
p31
F1.9659186785255598
sS'accel_y'
p32
F-0.36764622862789803
sS'visionAngle'
p33
I130
sS'maxAccel'
p34
I2
sS'maxVel'
p35
F0.72999999999999998
sS'age'
p36
I50
sS'tailSize'
p37
I0
sS'sexualgeno'
p38
NsS'tailBrigh'
p39
I0
sS'maxSteering'
p40
I20
sS'energy'
p41
I0
sS'lastScale'
p42
F5.5
sb.(i__main__
Data_mobile
p1
(dp2
S'vel_y'
p3
F-0.71386538435710101
sS'vel_x'
p4
F0.15263097004438053
sS'pos_x'
p5
F-81.017925309945028
sS'pos_y'
p6
F-55.30819624297682
sS'isAlive'
p7
I01
sS'cumulativeEnergy'
p8
F12.231245061703294
sS'geno'
p9
(i__main__
Node
p10
(dp11
S'depth'
p12
I1
sS'vector'
p13
S'+'
sS'right'
p14
(i__main__
Node
p15
(dp16
g12
I2
sg13
S'-'
sg14
(i__main__
Node
p17
(dp18
g12
I3
sg13
S'indiv.currentVelocity()'
p19
sg14
NsS'parent'
p20
g15
sS'left'
p21
Nsbsg20
g10
sg21
(i__main__
Node
p22
(dp23
g12
I3
sg13
S'indiv.separation()'
p24
sg14
Nsg20
g15
sg21
Nsbsbsg20
Nsg21
(i__main__
Node
p25
(dp26
g12
I2
sg13
S'*'
sg14
(i__main__
Node
p27
(dp28
g12
I3
sg13
S'indiv.randV()'
p29
sg14
Nsg20
g25
sg21
Nsbsg20
g10
sg21
(i__main__
Node
p30
(dp31
g12
I3
sg13
S'indiv.target()'
p32
sg14
Nsg20
g25
sg21
NsbsbsbsS'accel_x'
p33
F1.2539744092955254
sS'accel_y'
p34
F1.0388331927176604
sS'visionAngle'
p35
I130
sS'maxAccel'
p36
I2
sS'maxVel'
p37
F0.72999999999999998
sS'age'
p38
I50
sS'tailSize'
p39
I0
sS'sexualgeno'
p40
NsS'tailBrigh'
p41
I0
sS'maxSteering'
p42
I20
sS'energy'
p43
F0.15000000000000002
sS'lastScale'
p44
F7
sb.(i__main__
Data_mobile
p1
(dp2
S'vel_y'
p3
F0.49486173513171811
sS'vel_x'
p4
F0.53666736727923492
sS'pos_x'
p5
F4.980569156244866
sS'pos_y'
p6
F-54.05886727949305
sS'isAlive'
p7
I01
sS'cumulativeEnergy'
p8
F12.231245061703294
sS'geno'
p9
(i__main__
Node
p10
(dp11
S'depth'
p12
I1
sS'vector'
p13
S'+'
sS'right'
p14
(i__main__
Node
p15
(dp16
g12
I2
sg13
S'indiv.currentEnergy()'
p17
sg14
NsS'parent'
p18
g10
sS'left'
p19
Nsbsg18
Nsg19
(i__main__
Node
p20
(dp21
g12
I2
sg13
S'+'
sg14
(i__main__
Node
p22
(dp23
g12
I3
sg13
S'indiv.target()'
p24
sg14
Nsg18
g20
sg19
Nsbsg18
g10
sg19
(i__main__
Node
p25
(dp26
g12
I3
sg13
g24
sg14
Nsg18
g20
sg19
NsbsbsbsS'accel_x'
p27
F0
sS'accel_y'
p28
F0
sS'visionAngle'
p29
I130
sS'maxAccel'
p30
I2
sS'maxVel'
p31
F0.72999999999999998
sS'age'
p32
I50
sS'tailSize'
p33
I0
sS'sexualgeno'
p34
NsS'tailBrigh'
p35
I0
sS'maxSteering'
p36
I20
sS'energy'
p37
I0
sS'lastScale'
p38
F5.5
sb.(i__main__
Data_mobile
p1
(dp2
S'vel_y'
p3
F0.61052973669534216
sS'vel_x'
p4
F0.39967633354890408
sS'pos_x'
p5
F93.767971688509931
sS'pos_y'
p6
F-39.541476566740656
sS'isAlive'
p7
I01
sS'cumulativeEnergy'
p8
F12.231245061703294
sS'geno'
p9
(i__main__
Node
p10
(dp11
S'depth'
p12
I1
sS'vector'
p13
S'+'
sS'right'
p14
(i__main__
Node
p15
(dp16
g12
I2
sg13
S'*'
sg14
(i__main__
Node
p17
(dp18
g12
I3
sg13
S'indiv.randV()'
p19
sg14
NsS'parent'
p20
g15
sS'left'
p21
Nsbsg20
g10
sg21
(i__main__
Node
p22
(dp23
g12
I3
sg13
S'indiv.target()'
p24
sg14
Nsg20
g15
sg21
Nsbsbsg20
Nsg21
(i__main__
Node
p25
(dp26
g12
I2
sg13
S'+'
sg14
(i__main__
Node
p27
(dp28
g12
I3
sg13
g24
sg14
Nsg20
g25
sg21
Nsbsg20
g10
sg21
(i__main__
Node
p29
(dp30
g12
I3
sg13
g24
sg14
Nsg20
g25
sg21
NsbsbsbsS'accel_x'
p31
F0
sS'accel_y'
p32
F0
sS'visionAngle'
p33
I130
sS'maxAccel'
p34
I2
sS'maxVel'
p35
F0.72999999999999998
sS'age'
p36
I50
sS'tailSize'
p37
I0
sS'sexualgeno'
p38
NsS'tailBrigh'
p39
I0
sS'maxSteering'
p40
I20
sS'energy'
p41
I0
sS'lastScale'
p42
F5.5
sb.(i__main__
Data_mobile
p1
(dp2
S'vel_y'
p3
F0.5161879486778912
sS'vel_x'
p4
F0.5161879518544682
sS'pos_x'
p5
F106.95156801725949
sS'pos_y'
p6
F58.138900060522637
sS'isAlive'
p7
I01
sS'cumulativeEnergy'
p8
F12.231245061703294
sS'geno'
p9
(i__main__
Node
p10
(dp11
S'depth'
p12
I1
sS'vector'
p13
S'+'
sS'right'
p14
(i__main__
Node
p15
(dp16
g12
I2
sg13
S'indiv.currentEnergy()'
p17
sg14
NsS'parent'
p18
g10
sS'left'
p19
Nsbsg18
Nsg19
(i__main__
Node
p20
(dp21
g12
I2
sg13
S'-'
sg14
(i__main__
Node
p22
(dp23
g12
I3
sg13
g17
sg14
Nsg18
g20
sg19
Nsbsg18
g10
sg19
(i__main__
Node
p24
(dp25
g12
I3
sg13
g17
sg14
Nsg18
g20
sg19
NsbsbsbsS'accel_x'
p26
F0
sS'accel_y'
p27
F0
sS'visionAngle'
p28
I130
sS'maxAccel'
p29
I2
sS'maxVel'
p30
F0.72999999999999998
sS'age'
p31
I50
sS'tailSize'
p32
I0
sS'sexualgeno'
p33
NsS'tailBrigh'
p34
I0
sS'maxSteering'
p35
I20
sS'energy'
p36
I0
sS'lastScale'
p37
F5.5
sb.(i__main__
Data_mobile
p1
(dp2
S'vel_y'
p3
F0.43302721482833922
sS'vel_x'
p4
F0.58769671703865356
sS'pos_x'
p5
F-68.470867819903177
sS'pos_y'
p6
F28.994076990021533
sS'isAlive'
p7
I01
sS'cumulativeEnergy'
p8
F12.231245061703294
sS'geno'
p9
(i__main__
Node
p10
(dp11
S'depth'
p12
I1
sS'vector'
p13
S'+'
sS'right'
p14
(i__main__
Node
p15
(dp16
g12
I2
sg13
S'*'
sg14
(i__main__
Node
p17
(dp18
g12
I3
sg13
S'indiv.randV()'
p19
sg14
NsS'parent'
p20
g15
sS'left'
p21
Nsbsg20
g10
sg21
(i__main__
Node
p22
(dp23
g12
I3
sg13
S'indiv.target()'
p24
sg14
Nsg20
g15
sg21
Nsbsbsg20
Nsg21
(i__main__
Node
p25
(dp26
g12
I2
sg13
S'+'
sg14
(i__main__
Node
p27
(dp28
g12
I3
sg13
g24
sg14
Nsg20
g25
sg21
Nsbsg20
g10
sg21
(i__main__
Node
p29
(dp30
g12
I3
sg13
g24
sg14
Nsg20
g25
sg21
NsbsbsbsS'accel_x'
p31
F1.5538224035339983
sS'accel_y'
p32
F1.2592203692268593
sS'visionAngle'
p33
I130
sS'maxAccel'
p34
I2
sS'maxVel'
p35
F0.72999999999999998
sS'age'
p36
I50
sS'tailSize'
p37
I0
sS'sexualgeno'
p38
NsS'tailBrigh'
p39
I0
sS'maxSteering'
p40
I20
sS'energy'
p41
I0
sS'lastScale'
p42
F5.5
sb.(i__main__
Data_mobile
p1
(dp2
S'vel_y'
p3
F0.25216611610712242
sS'vel_x'
p4
F0.6850636830889878
sS'pos_x'
p5
F171.57263386928122
sS'pos_y'
p6
F-60.304847707187562
sS'isAlive'
p7
I01
sS'cumulativeEnergy'
p8
F12.231245061703294
sS'geno'
p9
(i__main__
Node
p10
(dp11
S'depth'
p12
I1
sS'vector'
p13
S'+'
sS'right'
p14
(i__main__
Node
p15
(dp16
g12
I2
sg13
S'*'
sg14
(i__main__
Node
p17
(dp18
g12
I3
sg13
S'indiv.randV()'
p19
sg14
NsS'parent'
p20
g15
sS'left'
p21
Nsbsg20
g10
sg21
(i__main__
Node
p22
(dp23
g12
I3
sg13
S'indiv.target()'
p24
sg14
Nsg20
g15
sg21
Nsbsbsg20
Nsg21
(i__main__
Node
p25
(dp26
g12
I2
sg13
S'+'
sg14
(i__main__
Node
p27
(dp28
g12
I3
sg13
S'+'
sg14
(i__main__
Node
p29
(dp30
g12
I4
sg13
g24
sg14
Nsg20
g27
sg21
Nsbsg20
g25
sg21
(i__main__
Node
p31
(dp32
g12
I4
sg13
S'indiv.currentEnergy()'
p33
sg14
Nsg20
g27
sg21
Nsbsbsg20
g10
sg21
(i__main__
Node
p34
(dp35
g12
I3
sg13
S'*'
sg14
(i__main__
Node
p36
(dp37
g12
I4
sg13
g19
sg14
Nsg20
g34
sg21
Nsbsg20
g25
sg21
(i__main__
Node
p38
(dp39
g12
I4
sg13
g24
sg14
Nsg20
g34
sg21
NsbsbsbsbsS'accel_x'
p40
F1.9713005440799016
sS'accel_y'
p41
F0.33760059968886902
sS'visionAngle'
p42
I130
sS'maxAccel'
p43
I2
sS'maxVel'
p44
F0.72999999999999998
sS'age'
p45
I50
sS'tailSize'
p46
I0
sS'sexualgeno'
p47
NsS'tailBrigh'
p48
I0
sS'maxSteering'
p49
I20
sS'energy'
p50
I0
sS'lastScale'
p51
F5.5
sb.(i__main__
Data_mobile
p1
(dp2
S'vel_y'
p3
F0.4920907083656843
sS'vel_x'
p4
F0.53920936076830028
sS'pos_x'
p5
F5.2751364535620517
sS'pos_y'
p6
F-49.771635924685107
sS'isAlive'
p7
I01
sS'cumulativeEnergy'
p8
F12.231245061703294
sS'geno'
p9
(i__main__
Node
p10
(dp11
S'depth'
p12
I1
sS'vector'
p13
S'+'
sS'right'
p14
(i__main__
Node
p15
(dp16
g12
I2
sg13
S'indiv.currentEnergy()'
p17
sg14
NsS'parent'
p18
g10
sS'left'
p19
Nsbsg18
Nsg19
(i__main__
Node
p20
(dp21
g12
I2
sg13
S'*'
sg14
(i__main__
Node
p22
(dp23
g12
I3
sg13
S'indiv.randV()'
p24
sg14
Nsg18
g20
sg19
Nsbsg18
g10
sg19
(i__main__
Node
p25
(dp26
g12
I3
sg13
S'indiv.target()'
p27
sg14
Nsg18
g20
sg19
NsbsbsbsS'accel_x'
p28
F0
sS'accel_y'
p29
F0
sS'visionAngle'
p30
I130
sS'maxAccel'
p31
I2
sS'maxVel'
p32
F0.72999999999999998
sS'age'
p33
I50
sS'tailSize'
p34
I0
sS'sexualgeno'
p35
NsS'tailBrigh'
p36
I0
sS'maxSteering'
p37
I20
sS'energy'
p38
I0
sS'lastScale'
p39
F5.5
sb.(i__main__
Data_mobile
p1
(dp2
S'vel_y'
p3
F0.039929173079871053
sS'vel_x'
p4
F0.72890716908064346
sS'pos_x'
p5
F10.113019972727553
sS'pos_y'
p6
F-59.841072097551589
sS'isAlive'
p7
I01
sS'cumulativeEnergy'
p8
F12.231245061703294
sS'geno'
p9
(i__main__
Node
p10
(dp11
S'depth'
p12
I1
sS'vector'
p13
S'+'
sS'right'
p14
(i__main__
Node
p15
(dp16
g12
I2
sg13
S'indiv.currentEnergy()'
p17
sg14
NsS'parent'
p18
g10
sS'left'
p19
Nsbsg18
Nsg19
(i__main__
Node
p20
(dp21
g12
I2
sg13
S'*'
sg14
(i__main__
Node
p22
(dp23
g12
I3
sg13
S'indiv.randV()'
p24
sg14
Nsg18
g20
sg19
Nsbsg18
g10
sg19
(i__main__
Node
p25
(dp26
g12
I3
sg13
S'indiv.target()'
p27
sg14
Nsg18
g20
sg19
NsbsbsbsS'accel_x'
p28
F1.6029227398764652
sS'accel_y'
p29
F-1.1960930941974903
sS'visionAngle'
p30
I130
sS'maxAccel'
p31
I2
sS'maxVel'
p32
F0.72999999999999998
sS'age'
p33
I50
sS'tailSize'
p34
I0
sS'sexualgeno'
p35
NsS'tailBrigh'
p36
I0
sS'maxSteering'
p37
I20
sS'energy'
p38
I0
sS'lastScale'
p39
F5.5
sb.(i__main__
Data_mobile
p1
(dp2
S'vel_y'
p3
F-1.5810100666919889e-322
sS'vel_x'
p4
F4.3477776834029696e-322
sS'pos_x'
p5
F-73.015303466997565
sS'pos_y'
p6
F12.003966195156865
sS'isAlive'
p7
I01
sS'cumulativeEnergy'
p8
F12.231245061703294
sS'geno'
p9
(i__main__
Node
p10
(dp11
S'depth'
p12
I1
sS'vector'
p13
S'+'
sS'right'
p14
(i__main__
Node
p15
(dp16
g12
I2
sg13
S'-'
sg14
(i__main__
Node
p17
(dp18
g12
I3
sg13
S'indiv.currentVelocity()'
p19
sg14
NsS'parent'
p20
g15
sS'left'
p21
Nsbsg20
g10
sg21
(i__main__
Node
p22
(dp23
g12
I3
sg13
S'indiv.separation()'
p24
sg14
Nsg20
g15
sg21
Nsbsbsg20
Nsg21
(i__main__
Node
p25
(dp26
g12
I2
sg13
S'+'
sg14
(i__main__
Node
p27
(dp28
g12
I3
sg13
S'indiv.target()'
p29
sg14
Nsg20
g25
sg21
Nsbsg20
g10
sg21
(i__main__
Node
p30
(dp31
g12
I3
sg13
g29
sg14
Nsg20
g25
sg21
NsbsbsbsS'accel_x'
p32
F0.76874238739103962
sS'accel_y'
p33
F1.8463572627821314
sS'visionAngle'
p34
I130
sS'maxAccel'
p35
I2
sS'maxVel'
p36
F0.72999999999999998
sS'age'
p37
I50
sS'tailSize'
p38
I0
sS'sexualgeno'
p39
NsS'tailBrigh'
p40
I0
sS'maxSteering'
p41
I20
sS'energy'
p42
I0
sS'lastScale'
p43
F5.5
sb.(i__main__
Data_mobile
p1
(dp2
S'vel_y'
p3
F0.72989610792529458
sS'vel_x'
p4
F0.012315503867350339
sS'pos_x'
p5
F161.90597842677252
sS'pos_y'
p6
F-72.43836709660745
sS'isAlive'
p7
I01
sS'cumulativeEnergy'
p8
F12.231245061703294
sS'geno'
p9
(i__main__
Node
p10
(dp11
S'depth'
p12
I1
sS'vector'
p13
S'+'
sS'right'
p14
(i__main__
Node
p15
(dp16
g12
I2
sg13
S'+'
sg14
(i__main__
Node
p17
(dp18
g12
I3
sg13
S'indiv.target()'
p19
sg14
NsS'parent'
p20
g15
sS'left'
p21
Nsbsg20
g10
sg21
(i__main__
Node
p22
(dp23
g12
I3
sg13
g19
sg14
Nsg20
g15
sg21
Nsbsbsg20
Nsg21
(i__main__
Node
p24
(dp25
g12
I2
sg13
S'*'
sg14
(i__main__
Node
p26
(dp27
g12
I3
sg13
S'-'
sg14
(i__main__
Node
p28
(dp29
g12
I4
sg13
S'indiv.currentVelocity()'
p30
sg14
Nsg20
g26
sg21
Nsbsg20
g24
sg21
(i__main__
Node
p31
(dp32
g12
I4
sg13
S'indiv.separation()'
p33
sg14
Nsg20
g26
sg21
Nsbsbsg20
g10
sg21
(i__main__
Node
p34
(dp35
g12
I3
sg13
S'*'
sg14
(i__main__
Node
p36
(dp37
g12
I4
sg13
S'indiv.randV()'
p38
sg14
Nsg20
g34
sg21
Nsbsg20
g24
sg21
(i__main__
Node
p39
(dp40
g12
I4
sg13
g19
sg14
Nsg20
g34
sg21
NsbsbsbsbsS'accel_x'
p41
F0
sS'accel_y'
p42
F0
sS'visionAngle'
p43
I130
sS'maxAccel'
p44
I2
sS'maxVel'
p45
F0.72999999999999998
sS'age'
p46
I50
sS'tailSize'
p47
I0
sS'sexualgeno'
p48
NsS'tailBrigh'
p49
I0
sS'maxSteering'
p50
I20
sS'energy'
p51
I0
sS'lastScale'
p52
F5.5
sb.(i__main__
Data_mobile
p1
(dp2
S'vel_y'
p3
F0.28945566461705585
sS'vel_x'
p4
F-0.2504977963737976
sS'pos_x'
p5
F60.368730859186229
sS'pos_y'
p6
F59.392219018976569
sS'isAlive'
p7
I01
sS'cumulativeEnergy'
p8
F0.5
sS'geno'
p9
(i__main__
Node
p10
(dp11
S'depth'
p12
I1
sS'vector'
p13
S'+'
sS'right'
p14
(i__main__
Node
p15
(dp16
g12
I2
sg13
S'+'
sg14
(i__main__
Node
p17
(dp18
g12
I3
sg13
S'indiv.target()'
p19
sg14
NsS'parent'
p20
g15
sS'left'
p21
Nsbsg20
g10
sg21
(i__main__
Node
p22
(dp23
g12
I3
sg13
g19
sg14
Nsg20
g15
sg21
Nsbsbsg20
Nsg21
(i__main__
Node
p24
(dp25
g12
I2
sg13
S'+'
sg14
(i__main__
Node
p26
(dp27
g12
I3
sg13
S'indiv.currentVelocity()'
p28
sg14
Nsg20
g24
sg21
Nsbsg20
g10
sg21
(i__main__
Node
p29
(dp30
g12
I3
sg13
S'*'
sg14
(i__main__
Node
p31
(dp32
g12
I4
sg13
S'indiv.randV()'
p33
sg14
Nsg20
g29
sg21
Nsbsg20
g24
sg21
(i__main__
Node
p34
(dp35
g12
I4
sg13
g19
sg14
Nsg20
g29
sg21
NsbsbsbsbsS'accel_x'
p36
F0
sS'accel_y'
p37
F0
sS'visionAngle'
p38
I130
sS'maxAccel'
p39
I2
sS'maxVel'
p40
F0.72999999999999998
sS'age'
p41
I0
sS'tailSize'
p42
I0
sS'sexualgeno'
p43
NsS'tailBrigh'
p44
I0
sS'maxSteering'
p45
I20
sS'energy'
p46
F0.5
sS'lastScale'
p47
F5.5
sb.(i__main__
Data_mobile
p1
(dp2
S'vel_y'
p3
F0.38508079853464605
sS'vel_x'
p4
F-0.56291474055309132
sS'pos_x'
p5
F102.80855940082176
sS'pos_y'
p6
F29.712196581197198
sS'isAlive'
p7
I01
sS'cumulativeEnergy'
p8
F0.5
sS'geno'
p9
(i__main__
Node
p10
(dp11
S'depth'
p12
I1
sS'vector'
p13
S'+'
sS'right'
p14
(i__main__
Node
p15
(dp16
g12
I2
sg13
S'*'
sg14
(i__main__
Node
p17
(dp18
g12
I3
sg13
S'indiv.randV()'
p19
sg14
NsS'parent'
p20
g15
sS'left'
p21
Nsbsg20
g10
sg21
(i__main__
Node
p22
(dp23
g12
I3
sg13
S'indiv.target()'
p24
sg14
Nsg20
g15
sg21
Nsbsbsg20
Nsg21
(i__main__
Node
p25
(dp26
g12
I2
sg13
S'+'
sg14
(i__main__
Node
p27
(dp28
g12
I3
sg13
S'indiv.currentVelocity()'
p29
sg14
Nsg20
g25
sg21
Nsbsg20
g10
sg21
(i__main__
Node
p30
(dp31
g12
I3
sg13
S'*'
sg14
(i__main__
Node
p32
(dp33
g12
I4
sg13
g19
sg14
Nsg20
g30
sg21
Nsbsg20
g25
sg21
(i__main__
Node
p34
(dp35
g12
I4
sg13
g24
sg14
Nsg20
g30
sg21
NsbsbsbsbsS'accel_x'
p36
F0
sS'accel_y'
p37
F0
sS'visionAngle'
p38
I130
sS'maxAccel'
p39
I2
sS'maxVel'
p40
F0.72999999999999998
sS'age'
p41
I0
sS'tailSize'
p42
I0
sS'sexualgeno'
p43
NsS'tailBrigh'
p44
I0
sS'maxSteering'
p45
I20
sS'energy'
p46
F0.5
sS'lastScale'
p47
F5.5
sb.(i__main__
Data_mobile
p1
(dp2
S'vel_y'
p3
F0.66990466098605583
sS'vel_x'
p4
F-0.11145730449709536
sS'pos_x'
p5
F121.8523688887075
sS'pos_y'
p6
F-33.848731307995735
sS'isAlive'
p7
I01
sS'cumulativeEnergy'
p8
F0.5
sS'geno'
p9
(i__main__
Node
p10
(dp11
S'depth'
p12
I1
sS'vector'
p13
S'+'
sS'right'
p14
(i__main__
Node
p15
(dp16
g12
I2
sg13
S'*'
sg14
(i__main__
Node
p17
(dp18
g12
I3
sg13
S'indiv.randV()'
p19
sg14
NsS'parent'
p20
g15
sS'left'
p21
Nsbsg20
g10
sg21
(i__main__
Node
p22
(dp23
g12
I3
sg13
S'indiv.target()'
p24
sg14
Nsg20
g15
sg21
Nsbsbsg20
Nsg21
(i__main__
Node
p25
(dp26
g12
I2
sg13
S'+'
sg14
(i__main__
Node
p27
(dp28
g12
I3
sg13
g24
sg14
Nsg20
g25
sg21
Nsbsg20
g10
sg21
(i__main__
Node
p29
(dp30
g12
I3
sg13
g24
sg14
Nsg20
g25
sg21
NsbsbsbsS'accel_x'
p31
F0
sS'accel_y'
p32
F0
sS'visionAngle'
p33
I130
sS'maxAccel'
p34
I2
sS'maxVel'
p35
F0.72999999999999998
sS'age'
p36
I0
sS'tailSize'
p37
I0
sS'sexualgeno'
p38
NsS'tailBrigh'
p39
I0
sS'maxSteering'
p40
I20
sS'energy'
p41
F0.5
sS'lastScale'
p42
F5.5
sb.(i__main__
Data_mobile
p1
(dp2
S'vel_y'
p3
F0.52169813214176119
sS'vel_x'
p4
F0.47119957824671282
sS'pos_x'
p5
F60.364478218108559
sS'pos_y'
p6
F63.506281313998883
sS'isAlive'
p7
I01
sS'cumulativeEnergy'
p8
F0.5
sS'geno'
p9
(i__main__
Node
p10
(dp11
S'depth'
p12
I1
sS'vector'
p13
S'+'
sS'right'
p14
(i__main__
Node
p15
(dp16
g12
I2
sg13
S'*'
sg14
(i__main__
Node
p17
(dp18
g12
I3
sg13
S'indiv.randV()'
p19
sg14
NsS'parent'
p20
g15
sS'left'
p21
Nsbsg20
g10
sg21
(i__main__
Node
p22
(dp23
g12
I3
sg13
S'indiv.target()'
p24
sg14
Nsg20
g15
sg21
Nsbsbsg20
Nsg21
(i__main__
Node
p25
(dp26
g12
I2
sg13
S'+'
sg14
(i__main__
Node
p27
(dp28
g12
I3
sg13
g24
sg14
Nsg20
g25
sg21
Nsbsg20
g10
sg21
(i__main__
Node
p29
(dp30
g12
I3
sg13
g24
sg14
Nsg20
g25
sg21
NsbsbsbsS'accel_x'
p31
F0
sS'accel_y'
p32
F0
sS'visionAngle'
p33
I130
sS'maxAccel'
p34
I2
sS'maxVel'
p35
F0.72999999999999998
sS'age'
p36
I0
sS'tailSize'
p37
I0
sS'sexualgeno'
p38
NsS'tailBrigh'
p39
I0
sS'maxSteering'
p40
I20
sS'energy'
p41
F0.5
sS'lastScale'
p42
F5.5
sb.(i__main__
Data_mobile
p1
(dp2
S'vel_y'
p3
F0.3692636748015603
sS'vel_x'
p4
F-0.57486254748635091
sS'pos_x'
p5
F111.69996769998363
sS'pos_y'
p6
F9.9931827626279652
sS'isAlive'
p7
I01
sS'cumulativeEnergy'
p8
F0.5
sS'geno'
p9
(i__main__
Node
p10
(dp11
S'depth'
p12
I1
sS'vector'
p13
S'+'
sS'right'
p14
(i__main__
Node
p15
(dp16
g12
I2
sg13
S'*'
sg14
(i__main__
Node
p17
(dp18
g12
I3
sg13
S'indiv.randV()'
p19
sg14
NsS'parent'
p20
g15
sS'left'
p21
Nsbsg20
g10
sg21
(i__main__
Node
p22
(dp23
g12
I3
sg13
S'indiv.target()'
p24
sg14
Nsg20
g15
sg21
Nsbsbsg20
Nsg21
(i__main__
Node
p25
(dp26
g12
I2
sg13
S'*'
sg14
(i__main__
Node
p27
(dp28
g12
I3
sg13
g19
sg14
Nsg20
g25
sg21
Nsbsg20
g10
sg21
(i__main__
Node
p29
(dp30
g12
I3
sg13
g24
sg14
Nsg20
g25
sg21
NsbsbsbsS'accel_x'
p31
F0
sS'accel_y'
p32
F0
sS'visionAngle'
p33
I130
sS'maxAccel'
p34
I2
sS'maxVel'
p35
F0.72999999999999998
sS'age'
p36
I0
sS'tailSize'
p37
I0
sS'sexualgeno'
p38
NsS'tailBrigh'
p39
I0
sS'maxSteering'
p40
I20
sS'energy'
p41
F0.5
sS'lastScale'
p42
F5.5
sb.(i__main__
Data_mobile
p1
(dp2
S'vel_y'
p3
F0.59022826726397304
sS'vel_x'
p4
F0.37186706087964294
sS'pos_x'
p5
F51.25736327778106
sS'pos_y'
p6
F64.096056637603908
sS'isAlive'
p7
I01
sS'cumulativeEnergy'
p8
F0.5
sS'geno'
p9
(i__main__
Node
p10
(dp11
S'depth'
p12
I1
sS'vector'
p13
S'+'
sS'right'
p14
(i__main__
Node
p15
(dp16
g12
I2
sg13
S'*'
sg14
(i__main__
Node
p17
(dp18
g12
I3
sg13
S'indiv.randV()'
p19
sg14
NsS'parent'
p20
g15
sS'left'
p21
Nsbsg20
g10
sg21
(i__main__
Node
p22
(dp23
g12
I3
sg13
S'indiv.target()'
p24
sg14
Nsg20
g15
sg21
Nsbsbsg20
Nsg21
(i__main__
Node
p25
(dp26
g13
S'-'
sg12
I2
sg14
(i__main__
Node
p27
(dp28
g13
S'+'
sg12
I3
sg14
(i__main__
Node
p29
(dp30
g13
g19
sg12
I4
sg14
Nsg20
g27
sg21
Nsbsg20
g25
sg21
(i__main__
Node
p31
(dp32
g13
g19
sg12
I4
sg14
Nsg20
g27
sg21
Nsbsbsg20
g10
sg21
(i__main__
Node
p33
(dp34
g13
S'/'
sg12
I3
sg14
(i__main__
Node
p35
(dp36
g13
S'indiv.cohesion()'
p37
sg12
I4
sg14
Nsg20
g33
sg21
Nsbsg20
g25
sg21
(i__main__
Node
p38
(dp39
g13
g37
sg12
I4
sg14
Nsg20
g33
sg21
NsbsbsbsbsS'accel_x'
p40
F0
sS'accel_y'
p41
F0
sS'visionAngle'
p42
I130
sS'maxAccel'
p43
I2
sS'maxVel'
p44
F0.72999999999999998
sS'age'
p45
I0
sS'tailSize'
p46
I0
sS'sexualgeno'
p47
NsS'tailBrigh'
p48
I0
sS'maxSteering'
p49
I20
sS'energy'
p50
F0.5
sS'lastScale'
p51
F5.5
sb.(i__main__
Data_mobile
p1
(dp2
S'vel_y'
p3
F0.47574116279338796
sS'vel_x'
p4
F0.46099820472332853
sS'pos_x'
p5
F-39.096133355487794
sS'pos_y'
p6
F57.474831643254831
sS'isAlive'
p7
I01
sS'cumulativeEnergy'
p8
F0.5
sS'geno'
p9
(i__main__
Node
p10
(dp11
S'depth'
p12
I1
sS'vector'
p13
S'+'
sS'right'
p14
(i__main__
Node
p15
(dp16
g12
I2
sg13
S'*'
sg14
(i__main__
Node
p17
(dp18
g12
I3
sg13
S'-'
sg14
(i__main__
Node
p19
(dp20
g12
I4
sg13
S'indiv.currentVelocity()'
p21
sg14
NsS'parent'
p22
g17
sS'left'
p23
Nsbsg22
g15
sg23
(i__main__
Node
p24
(dp25
g12
I4
sg13
S'indiv.separation()'
p26
sg14
Nsg22
g17
sg23
Nsbsbsg22
g10
sg23
(i__main__
Node
p27
(dp28
g12
I3
sg13
S'+'
sg14
(i__main__
Node
p29
(dp30
g12
I4
sg13
S'indiv.target()'
p31
sg14
Nsg22
g27
sg23
Nsbsg22
g15
sg23
(i__main__
Node
p32
(dp33
g12
I4
sg13
S'indiv.alignment()'
p34
sg14
Nsg22
g27
sg23
Nsbsbsbsg22
Nsg23
(i__main__
Node
p35
(dp36
g12
I2
sg13
S'-'
sg14
(i__main__
Node
p37
(dp38
g12
I3
sg13
g21
sg14
Nsg22
g35
sg23
Nsbsg22
g10
sg23
(i__main__
Node
p39
(dp40
g12
I3
sg13
g26
sg14
Nsg22
g35
sg23
NsbsbsbsS'accel_x'
p41
F0
sS'accel_y'
p42
F0
sS'visionAngle'
p43
I130
sS'maxAccel'
p44
I2
sS'maxVel'
p45
F0.72999999999999998
sS'age'
p46
I0
sS'tailSize'
p47
I0
sS'sexualgeno'
p48
NsS'tailBrigh'
p49
I0
sS'maxSteering'
p50
I20
sS'energy'
p51
F0.5
sS'lastScale'
p52
F5.5
sb.(i__main__
Data_mobile
p1
(dp2
S'vel_y'
p3
F0.38063754416576884
sS'vel_x'
p4
F0.2166257230873628
sS'pos_x'
p5
F49.807610628305852
sS'pos_y'
p6
F62.301379448587966
sS'isAlive'
p7
I01
sS'cumulativeEnergy'
p8
F0.5
sS'geno'
p9
(i__main__
Node
p10
(dp11
S'depth'
p12
I1
sS'vector'
p13
S'+'
sS'right'
p14
(i__main__
Node
p15
(dp16
g12
I2
sg13
S'*'
sg14
(i__main__
Node
p17
(dp18
g12
I3
sg13
S'-'
sg14
(i__main__
Node
p19
(dp20
g12
I4
sg13
S'indiv.currentVelocity()'
p21
sg14
NsS'parent'
p22
g17
sS'left'
p23
Nsbsg22
g15
sg23
(i__main__
Node
p24
(dp25
g12
I4
sg13
S'indiv.separation()'
p26
sg14
Nsg22
g17
sg23
Nsbsbsg22
g10
sg23
(i__main__
Node
p27
(dp28
g12
I3
sg13
S'+'
sg14
(i__main__
Node
p29
(dp30
g12
I4
sg13
S'indiv.target()'
p31
sg14
Nsg22
g27
sg23
Nsbsg22
g15
sg23
(i__main__
Node
p32
(dp33
g12
I4
sg13
S'indiv.alignment()'
p34
sg14
Nsg22
g27
sg23
Nsbsbsbsg22
Nsg23
(i__main__
Node
p35
(dp36
g12
I2
sg13
S'*'
sg14
(i__main__
Node
p37
(dp38
g12
I3
sg13
S'indiv.randV()'
p39
sg14
Nsg22
g35
sg23
Nsbsg22
g10
sg23
(i__main__
Node
p40
(dp41
g12
I3
sg13
g31
sg14
Nsg22
g35
sg23
NsbsbsbsS'accel_x'
p42
F0
sS'accel_y'
p43
F0
sS'visionAngle'
p44
I130
sS'maxAccel'
p45
I2
sS'maxVel'
p46
F0.72999999999999998
sS'age'
p47
I0
sS'tailSize'
p48
I0
sS'sexualgeno'
p49
NsS'tailBrigh'
p50
I0
sS'maxSteering'
p51
I20
sS'energy'
p52
F0.5
sS'lastScale'
p53
F5.5
sb.(i__main__
Data_mobile
p1
(dp2
S'vel_y'
p3
F0.4896402478064219
sS'vel_x'
p4
F-0.35910138514965129
sS'pos_x'
p5
F147.73063501694841
sS'pos_y'
p6
F-19.116294655814585
sS'isAlive'
p7
I01
sS'cumulativeEnergy'
p8
F0.5
sS'geno'
p9
(i__main__
Node
p10
(dp11
S'depth'
p12
I1
sS'vector'
p13
S'+'
sS'right'
p14
(i__main__
Node
p15
(dp16
g12
I2
sg13
S'*'
sg14
(i__main__
Node
p17
(dp18
g12
I3
sg13
S'indiv.randV()'
p19
sg14
NsS'parent'
p20
g15
sS'left'
p21
Nsbsg20
g10
sg21
(i__main__
Node
p22
(dp23
g12
I3
sg13
S'indiv.target()'
p24
sg14
Nsg20
g15
sg21
Nsbsbsg20
Nsg21
(i__main__
Node
p25
(dp26
g12
I2
sg13
S'*'
sg14
(i__main__
Node
p27
(dp28
g12
I3
sg13
g19
sg14
Nsg20
g25
sg21
Nsbsg20
g10
sg21
(i__main__
Node
p29
(dp30
g12
I3
sg13
g24
sg14
Nsg20
g25
sg21
NsbsbsbsS'accel_x'
p31
F0
sS'accel_y'
p32
F0
sS'visionAngle'
p33
I130
sS'maxAccel'
p34
I2
sS'maxVel'
p35
F0.72999999999999998
sS'age'
p36
I0
sS'tailSize'
p37
I0
sS'sexualgeno'
p38
NsS'tailBrigh'
p39
I0
sS'maxSteering'
p40
I20
sS'energy'
p41
F0.5
sS'lastScale'
p42
F5.5
sb.(i__main__
Data_mobile
p1
(dp2
S'vel_y'
p3
F0.22967411942008845
sS'vel_x'
p4
F-0.3062910626915194
sS'pos_x'
p5
F141.46283097495828
sS'pos_y'
p6
F-20.231231707875779
sS'isAlive'
p7
I01
sS'cumulativeEnergy'
p8
F0.5
sS'geno'
p9
(i__main__
Node
p10
(dp11
S'depth'
p12
I1
sS'vector'
p13
S'+'
sS'right'
p14
(i__main__
Node
p15
(dp16
g12
I2
sg13
S'*'
sg14
(i__main__
Node
p17
(dp18
g12
I3
sg13
S'indiv.randV()'
p19
sg14
NsS'parent'
p20
g15
sS'left'
p21
Nsbsg20
g10
sg21
(i__main__
Node
p22
(dp23
g12
I3
sg13
S'indiv.target()'
p24
sg14
Nsg20
g15
sg21
Nsbsbsg20
Nsg21
(i__main__
Node
p25
(dp26
g12
I2
sg13
S'+'
sg14
(i__main__
Node
p27
(dp28
g12
I3
sg13
g24
sg14
Nsg20
g25
sg21
Nsbsg20
g10
sg21
(i__main__
Node
p29
(dp30
g12
I3
sg13
S'indiv.currentEnergy()'
p31
sg14
Nsg20
g25
sg21
NsbsbsbsS'accel_x'
p32
F0
sS'accel_y'
p33
F0
sS'visionAngle'
p34
I130
sS'maxAccel'
p35
I2
sS'maxVel'
p36
F0.72999999999999998
sS'age'
p37
I0
sS'tailSize'
p38
I0
sS'sexualgeno'
p39
NsS'tailBrigh'
p40
I0
sS'maxSteering'
p41
I20
sS'energy'
p42
F0.5
sS'lastScale'
p43
F5.5
sb.(i__main__
Data_mobile
p1
(dp2
S'vel_y'
p3
F-0.36750291625740122
sS'vel_x'
p4
F0.27125633113060654
sS'pos_x'
p5
F-23.064659224395648
sS'pos_y'
p6
F-73.212674182490062
sS'isAlive'
p7
I01
sS'cumulativeEnergy'
p8
F0.5
sS'geno'
p9
(i__main__
Node
p10
(dp11
S'depth'
p12
I1
sS'vector'
p13
S'+'
sS'right'
p14
(i__main__
Node
p15
(dp16
g12
I2
sg13
S'+'
sg14
(i__main__
Node
p17
(dp18
g12
I3
sg13
S'/'
sg14
(i__main__
Node
p19
(dp20
g12
I4
sg13
S'indiv.target()'
p21
sg14
NsS'parent'
p22
g17
sS'left'
p23
Nsbsg22
g15
sg23
(i__main__
Node
p24
(dp25
g12
I4
sg13
S'indiv.cohesion()'
p26
sg14
Nsg22
g17
sg23
Nsbsbsg22
g10
sg23
(i__main__
Node
p27
(dp28
g12
I3
sg13
S'+'
sg14
(i__main__
Node
p29
(dp30
g12
I4
sg13
g21
sg14
Nsg22
g27
sg23
Nsbsg22
g15
sg23
(i__main__
Node
p31
(dp32
g12
I4
sg13
S'indiv.currentEnergy()'
p33
sg14
Nsg22
g27
sg23
Nsbsbsbsg22
Nsg23
(i__main__
Node
p34
(dp35
g12
I2
sg13
S'*'
sg14
(i__main__
Node
p36
(dp37
g12
I3
sg13
S'indiv.randV()'
p38
sg14
Nsg22
g34
sg23
Nsbsg22
g10
sg23
(i__main__
Node
p39
(dp40
g12
I3
sg13
g21
sg14
Nsg22
g34
sg23
NsbsbsbsS'accel_x'
p41
F0
sS'accel_y'
p42
F0
sS'visionAngle'
p43
I130
sS'maxAccel'
p44
I2
sS'maxVel'
p45
F0.72999999999999998
sS'age'
p46
I0
sS'tailSize'
p47
I0
sS'sexualgeno'
p48
NsS'tailBrigh'
p49
I0
sS'maxSteering'
p50
I20
sS'energy'
p51
F0.5
sS'lastScale'
p52
F5.5
sb.(i__main__
Data_mobile
p1
(dp2
S'vel_y'
p3
F0.60447782549927731
sS'vel_x'
p4
F-0.18451492591795873
sS'pos_x'
p5
F93.008544982501931
sS'pos_y'
p6
F48.61821374503608
sS'isAlive'
p7
I01
sS'cumulativeEnergy'
p8
F0.5
sS'geno'
p9
(i__main__
Node
p10
(dp11
S'depth'
p12
I1
sS'vector'
p13
S'+'
sS'right'
p14
(i__main__
Node
p15
(dp16
g12
I2
sg13
S'*'
sg14
(i__main__
Node
p17
(dp18
g12
I3
sg13
S'indiv.randV()'
p19
sg14
NsS'parent'
p20
g15
sS'left'
p21
Nsbsg20
g10
sg21
(i__main__
Node
p22
(dp23
g12
I3
sg13
S'indiv.target()'
p24
sg14
Nsg20
g15
sg21
Nsbsbsg20
Nsg21
(i__main__
Node
p25
(dp26
g12
I2
sg13
S'/'
sg14
(i__main__
Node
p27
(dp28
g12
I3
sg13
g19
sg14
Nsg20
g25
sg21
Nsbsg20
g10
sg21
(i__main__
Node
p29
(dp30
g12
I3
sg13
S'indiv.currentEnergy()'
p31
sg14
Nsg20
g25
sg21
NsbsbsbsS'accel_x'
p32
F0
sS'accel_y'
p33
F0
sS'visionAngle'
p34
I130
sS'maxAccel'
p35
I2
sS'maxVel'
p36
F0.72999999999999998
sS'age'
p37
I0
sS'tailSize'
p38
I0
sS'sexualgeno'
p39
NsS'tailBrigh'
p40
I0
sS'maxSteering'
p41
I20
sS'energy'
p42
F0.5
sS'lastScale'
p43
F5.5
sb.(i__main__
Data_mobile
p1
(dp2
S'vel_y'
p3
F0.27834226637025544
sS'vel_x'
p4
F0.40150427482395618
sS'pos_x'
p5
F-50.091381139426574
sS'pos_y'
p6
F72.699421732088339
sS'isAlive'
p7
I01
sS'cumulativeEnergy'
p8
F0.5
sS'geno'
p9
(i__main__
Node
p10
(dp11
S'depth'
p12
I1
sS'vector'
p13
S'+'
sS'right'
p14
(i__main__
Node
p15
(dp16
g12
I2
sg13
S'indiv.currentEnergy()'
p17
sg14
NsS'parent'
p18
g10
sS'left'
p19
Nsbsg18
Nsg19
(i__main__
Node
p20
(dp21
g12
I2
sg13
S'indiv.target()'
p22
sg14
Nsg18
g10
sg19
NsbsbsS'accel_x'
p23
F0
sS'accel_y'
p24
F0
sS'visionAngle'
p25
I130
sS'maxAccel'
p26
I2
sS'maxVel'
p27
F0.72999999999999998
sS'age'
p28
I0
sS'tailSize'
p29
I0
sS'sexualgeno'
p30
NsS'tailBrigh'
p31
I0
sS'maxSteering'
p32
I20
sS'energy'
p33
F0.5
sS'lastScale'
p34
F5.5
sb.(i__main__
Data_mobile
p1
(dp2
S'vel_y'
p3
F-0.71684342929240685
sS'vel_x'
p4
F-0.10841790294773967
sS'pos_x'
p5
F-16.957899169388348
sS'pos_y'
p6
F-71.295722161600423
sS'isAlive'
p7
I01
sS'cumulativeEnergy'
p8
F0.5
sS'geno'
p9
(i__main__
Node
p10
(dp11
S'depth'
p12
I1
sS'vector'
p13
S'+'
sS'right'
p14
(i__main__
Node
p15
(dp16
g12
I2
sg13
S'*'
sg14
(i__main__
Node
p17
(dp18
g12
I3
sg13
S'indiv.randV()'
p19
sg14
NsS'parent'
p20
g15
sS'left'
p21
Nsbsg20
g10
sg21
(i__main__
Node
p22
(dp23
g12
I3
sg13
S'indiv.target()'
p24
sg14
Nsg20
g15
sg21
Nsbsbsg20
Nsg21
(i__main__
Node
p25
(dp26
g12
I2
sg13
S'+'
sg14
(i__main__
Node
p27
(dp28
g12
I3
sg13
g24
sg14
Nsg20
g25
sg21
Nsbsg20
g10
sg21
(i__main__
Node
p29
(dp30
g12
I3
sg13
S'indiv.cohesion()'
p31
sg14
Nsg20
g25
sg21
NsbsbsbsS'accel_x'
p32
F0
sS'accel_y'
p33
F0
sS'visionAngle'
p34
I130
sS'maxAccel'
p35
I2
sS'maxVel'
p36
F0.72999999999999998
sS'age'
p37
I0
sS'tailSize'
p38
I0
sS'sexualgeno'
p39
NsS'tailBrigh'
p40
I0
sS'maxSteering'
p41
I20
sS'energy'
p42
F0.5
sS'lastScale'
p43
F5.5
sb.(i__main__
Data_mobile
p1
(dp2
S'vel_y'
p3
F0.074539607203580313
sS'vel_x'
p4
F0.51900221914352018
sS'pos_x'
p5
F-123.86884751046327
sS'pos_y'
p6
F-42.496061161063651
sS'isAlive'
p7
I01
sS'cumulativeEnergy'
p8
F0.5
sS'geno'
p9
(i__main__
Node
p10
(dp11
S'depth'
p12
I1
sS'vector'
p13
S'+'
sS'right'
p14
(i__main__
Node
p15
(dp16
g12
I2
sg13
S'+'
sg14
(i__main__
Node
p17
(dp18
g12
I3
sg13
S'/'
sg14
(i__main__
Node
p19
(dp20
g12
I4
sg13
S'indiv.target()'
p21
sg14
NsS'parent'
p22
g17
sS'left'
p23
Nsbsg22
g15
sg23
(i__main__
Node
p24
(dp25
g12
I4
sg13
S'indiv.cohesion()'
p26
sg14
Nsg22
g17
sg23
Nsbsbsg22
g10
sg23
(i__main__
Node
p27
(dp28
g12
I3
sg13
S'+'
sg14
(i__main__
Node
p29
(dp30
g12
I4
sg13
g21
sg14
Nsg22
g27
sg23
Nsbsg22
g15
sg23
(i__main__
Node
p31
(dp32
g12
I4
sg13
g26
sg14
Nsg22
g27
sg23
Nsbsbsbsg22
Nsg23
(i__main__
Node
p33
(dp34
g12
I2
sg13
S'-'
sg14
(i__main__
Node
p35
(dp36
g12
I3
sg13
S'indiv.currentVelocity()'
p37
sg14
Nsg22
g33
sg23
Nsbsg22
g10
sg23
(i__main__
Node
p38
(dp39
g12
I3
sg13
S'indiv.separation()'
p40
sg14
Nsg22
g33
sg23
NsbsbsbsS'accel_x'
p41
F0
sS'accel_y'
p42
F0
sS'visionAngle'
p43
I130
sS'maxAccel'
p44
I2
sS'maxVel'
p45
F0.72999999999999998
sS'age'
p46
I0
sS'tailSize'
p47
I0
sS'sexualgeno'
p48
NsS'tailBrigh'
p49
I0
sS'maxSteering'
p50
I20
sS'energy'
p51
F0.5
sS'lastScale'
p52
F5.5
sb.(i__main__
Data_mobile
p1
(dp2
S'vel_y'
p3
F-0.56734239474617787
sS'vel_x'
p4
F-0.44289403325410526
sS'pos_x'
p5
F-8.2292419089905522
sS'pos_y'
p6
F-11.834919185872334
sS'isAlive'
p7
I01
sS'cumulativeEnergy'
p8
F0.5
sS'geno'
p9
(i__main__
Node
p10
(dp11
S'depth'
p12
I1
sS'vector'
p13
S'+'
sS'right'
p14
(i__main__
Node
p15
(dp16
g12
I2
sg13
S'*'
sg14
(i__main__
Node
p17
(dp18
g12
I3
sg13
S'indiv.randV()'
p19
sg14
NsS'parent'
p20
g15
sS'left'
p21
Nsbsg20
g10
sg21
(i__main__
Node
p22
(dp23
g12
I3
sg13
S'indiv.target()'
p24
sg14
Nsg20
g15
sg21
Nsbsbsg20
Nsg21
(i__main__
Node
p25
(dp26
g12
I2
sg13
S'+'
sg14
(i__main__
Node
p27
(dp28
g12
I3
sg13
S'*'
sg14
(i__main__
Node
p29
(dp30
g12
I4
sg13
g19
sg14
Nsg20
g27
sg21
Nsbsg20
g25
sg21
(i__main__
Node
p31
(dp32
g12
I4
sg13
g24
sg14
Nsg20
g27
sg21
Nsbsbsg20
g10
sg21
(i__main__
Node
p33
(dp34
g12
I3
sg13
S'+'
sg14
(i__main__
Node
p35
(dp36
g12
I4
sg13
g24
sg14
Nsg20
g33
sg21
Nsbsg20
g25
sg21
(i__main__
Node
p37
(dp38
g12
I4
sg13
g24
sg14
Nsg20
g33
sg21
NsbsbsbsbsS'accel_x'
p39
F0
sS'accel_y'
p40
F0
sS'visionAngle'
p41
I130
sS'maxAccel'
p42
I2
sS'maxVel'
p43
F0.72999999999999998
sS'age'
p44
I0
sS'tailSize'
p45
I0
sS'sexualgeno'
p46
NsS'tailBrigh'
p47
I0
sS'maxSteering'
p48
I20
sS'energy'
p49
F0.5
sS'lastScale'
p50
F5.5
sb.(i__main__
Data_mobile
p1
(dp2
S'vel_y'
p3
F0.15383868924798733
sS'vel_x'
p4
F-0.70739935660071196
sS'pos_x'
p5
F80.488619717494672
sS'pos_y'
p6
F62.464277194686105
sS'isAlive'
p7
I01
sS'cumulativeEnergy'
p8
F0.5
sS'geno'
p9
(i__main__
Node
p10
(dp11
S'depth'
p12
I1
sS'vector'
p13
S'+'
sS'right'
p14
(i__main__
Node
p15
(dp16
g12
I2
sg13
S'-'
sg14
(i__main__
Node
p17
(dp18
g12
I3
sg13
S'indiv.currentEnergy()'
p19
sg14
NsS'parent'
p20
g15
sS'left'
p21
Nsbsg20
g10
sg21
(i__main__
Node
p22
(dp23
g12
I3
sg13
g19
sg14
Nsg20
g15
sg21
Nsbsbsg20
Nsg21
(i__main__
Node
p24
(dp25
g12
I2
sg13
S'+'
sg14
(i__main__
Node
p26
(dp27
g12
I3
sg13
S'indiv.currentVelocity()'
p28
sg14
Nsg20
g24
sg21
Nsbsg20
g10
sg21
(i__main__
Node
p29
(dp30
g12
I3
sg13
S'*'
sg14
(i__main__
Node
p31
(dp32
g12
I4
sg13
S'indiv.randV()'
p33
sg14
Nsg20
g29
sg21
Nsbsg20
g24
sg21
(i__main__
Node
p34
(dp35
g12
I4
sg13
S'indiv.target()'
p36
sg14
Nsg20
g29
sg21
NsbsbsbsbsS'accel_x'
p37
F0
sS'accel_y'
p38
F0
sS'visionAngle'
p39
I130
sS'maxAccel'
p40
I2
sS'maxVel'
p41
F0.72999999999999998
sS'age'
p42
I0
sS'tailSize'
p43
I0
sS'sexualgeno'
p44
NsS'tailBrigh'
p45
I0
sS'maxSteering'
p46
I20
sS'energy'
p47
F0.5
sS'lastScale'
p48
F5.5
sb.(i__main__
Data_mobile
p1
(dp2
S'vel_y'
p3
F-0.52019634719601637
sS'vel_x'
p4
F-0.1751357417758059
sS'pos_x'
p5
F115.96901131002812
sS'pos_y'
p6
F-24.580564131798699
sS'isAlive'
p7
I01
sS'cumulativeEnergy'
p8
F0.5
sS'geno'
p9
(i__main__
Node
p10
(dp11
S'depth'
p12
I1
sS'vector'
p13
S'+'
sS'right'
p14
(i__main__
Node
p15
(dp16
g12
I2
sg13
S'-'
sg14
(i__main__
Node
p17
(dp18
g12
I3
sg13
S'indiv.currentEnergy()'
p19
sg14
NsS'parent'
p20
g15
sS'left'
p21
Nsbsg20
g10
sg21
(i__main__
Node
p22
(dp23
g12
I3
sg13
g19
sg14
Nsg20
g15
sg21
Nsbsbsg20
Nsg21
(i__main__
Node
p24
(dp25
g12
I2
sg13
S'+'
sg14
(i__main__
Node
p26
(dp27
g12
I3
sg13
S'indiv.target()'
p28
sg14
Nsg20
g24
sg21
Nsbsg20
g10
sg21
(i__main__
Node
p29
(dp30
g12
I3
sg13
g28
sg14
Nsg20
g24
sg21
NsbsbsbsS'accel_x'
p31
F0
sS'accel_y'
p32
F0
sS'visionAngle'
p33
I130
sS'maxAccel'
p34
I2
sS'maxVel'
p35
F0.72999999999999998
sS'age'
p36
I0
sS'tailSize'
p37
I0
sS'sexualgeno'
p38
NsS'tailBrigh'
p39
I0
sS'maxSteering'
p40
I20
sS'energy'
p41
F0.5
sS'lastScale'
p42
F5.5
sb.(i__main__
Data_mobile
p1
(dp2
S'vel_y'
p3
F-0.01975623446632644
sS'vel_x'
p4
F0.72519495655203581
sS'pos_x'
p5
F95.711445852454077
sS'pos_y'
p6
F23.223784274846544
sS'isAlive'
p7
I01
sS'cumulativeEnergy'
p8
F0.5
sS'geno'
p9
(i__main__
Node
p10
(dp11
S'depth'
p12
I1
sS'vector'
p13
S'+'
sS'right'
p14
(i__main__
Node
p15
(dp16
g12
I2
sg13
S'*'
sg14
(i__main__
Node
p17
(dp18
g12
I3
sg13
S'indiv.randV()'
p19
sg14
NsS'parent'
p20
g15
sS'left'
p21
Nsbsg20
g10
sg21
(i__main__
Node
p22
(dp23
g12
I3
sg13
S'indiv.target()'
p24
sg14
Nsg20
g15
sg21
Nsbsbsg20
Nsg21
(i__main__
Node
p25
(dp26
g12
I2
sg13
S'*'
sg14
(i__main__
Node
p27
(dp28
g12
I3
sg13
g19
sg14
Nsg20
g25
sg21
Nsbsg20
g10
sg21
(i__main__
Node
p29
(dp30
g12
I3
sg13
g24
sg14
Nsg20
g25
sg21
NsbsbsbsS'accel_x'
p31
F0
sS'accel_y'
p32
F0
sS'visionAngle'
p33
I130
sS'maxAccel'
p34
I2
sS'maxVel'
p35
F0.72999999999999998
sS'age'
p36
I0
sS'tailSize'
p37
I0
sS'sexualgeno'
p38
NsS'tailBrigh'
p39
I0
sS'maxSteering'
p40
I20
sS'energy'
p41
F0.5
sS'lastScale'
p42
F5.5
sb.(i__main__
Data_mobile
p1
(dp2
S'vel_y'
p3
F-0.02867218010159979
sS'vel_x'
p4
F0.61842955239008712
sS'pos_x'
p5
F-134.11168574664552
sS'pos_y'
p6
F38.844643179909113
sS'isAlive'
p7
I01
sS'cumulativeEnergy'
p8
F0.5
sS'geno'
p9
(i__main__
Node
p10
(dp11
S'depth'
p12
I1
sS'vector'
p13
S'+'
sS'right'
p14
(i__main__
Node
p15
(dp16
g12
I2
sg13
S'+'
sg14
(i__main__
Node
p17
(dp18
g12
I3
sg13
S'indiv.target()'
p19
sg14
NsS'parent'
p20
g15
sS'left'
p21
Nsbsg20
g10
sg21
(i__main__
Node
p22
(dp23
g12
I3
sg13
g19
sg14
Nsg20
g15
sg21
Nsbsbsg20
Nsg21
(i__main__
Node
p24
(dp25
g12
I2
sg13
S'+'
sg14
(i__main__
Node
p26
(dp27
g12
I3
sg13
g19
sg14
Nsg20
g24
sg21
Nsbsg20
g10
sg21
(i__main__
Node
p28
(dp29
g12
I3
sg13
g19
sg14
Nsg20
g24
sg21
NsbsbsbsS'accel_x'
p30
F0
sS'accel_y'
p31
F0
sS'visionAngle'
p32
I130
sS'maxAccel'
p33
I2
sS'maxVel'
p34
F0.72999999999999998
sS'age'
p35
I0
sS'tailSize'
p36
I0
sS'sexualgeno'
p37
NsS'tailBrigh'
p38
I0
sS'maxSteering'
p39
I20
sS'energy'
p40
F0.5
sS'lastScale'
p41
F5.5
sb.(i__main__
Data_mobile
p1
(dp2
S'vel_y'
p3
F-0.13298083965412502
sS'vel_x'
p4
F0.69321342883172465
sS'pos_x'
p5
F116.79380405272545
sS'pos_y'
p6
F-6.2278468935528828
sS'isAlive'
p7
I01
sS'cumulativeEnergy'
p8
F0.5
sS'geno'
p9
(i__main__
Node
p10
(dp11
S'depth'
p12
I1
sS'vector'
p13
S'+'
sS'right'
p14
(i__main__
Node
p15
(dp16
g12
I2
sg13
S'*'
sg14
(i__main__
Node
p17
(dp18
g12
I3
sg13
S'indiv.randV()'
p19
sg14
NsS'parent'
p20
g15
sS'left'
p21
Nsbsg20
g10
sg21
(i__main__
Node
p22
(dp23
g12
I3
sg13
S'indiv.target()'
p24
sg14
Nsg20
g15
sg21
Nsbsbsg20
Nsg21
(i__main__
Node
p25
(dp26
g12
I2
sg13
S'+'
sg14
(i__main__
Node
p27
(dp28
g12
I3
sg13
S'-'
sg14
(i__main__
Node
p29
(dp30
g12
I4
sg13
S'indiv.currentEnergy()'
p31
sg14
Nsg20
g27
sg21
Nsbsg20
g25
sg21
(i__main__
Node
p32
(dp33
g12
I4
sg13
g31
sg14
Nsg20
g27
sg21
Nsbsbsg20
g10
sg21
(i__main__
Node
p34
(dp35
g13
S'-'
sg12
I3
sg14
(i__main__
Node
p36
(dp37
g13
S'indiv.alignment()'
p38
sg12
I4
sg14
Nsg20
g34
sg21
Nsbsg20
g25
sg21
(i__main__
Node
p39
(dp40
g13
g38
sg12
I4
sg14
Nsg20
g34
sg21
NsbsbsbsbsS'accel_x'
p41
F0
sS'accel_y'
p42
F0
sS'visionAngle'
p43
I130
sS'maxAccel'
p44
I2
sS'maxVel'
p45
F0.72999999999999998
sS'age'
p46
I0
sS'tailSize'
p47
I0
sS'sexualgeno'
p48
NsS'tailBrigh'
p49
I0
sS'maxSteering'
p50
I20
sS'energy'
p51
F0.5
sS'lastScale'
p52
F5.5
sb.(i__main__
Data_mobile
p1
(dp2
S'vel_y'
p3
F0.35300886941374926
sS'vel_x'
p4
F0.11291058856738823
sS'pos_x'
p5
F-109.66863318393072
sS'pos_y'
p6
F-0.73800351285970933
sS'isAlive'
p7
I01
sS'cumulativeEnergy'
p8
F0.5
sS'geno'
p9
(i__main__
Node
p10
(dp11
S'depth'
p12
I1
sS'vector'
p13
S'+'
sS'right'
p14
(i__main__
Node
p15
(dp16
g12
I2
sg13
S'-'
sg14
(i__main__
Node
p17
(dp18
g12
I3
sg13
S'indiv.currentVelocity()'
p19
sg14
NsS'parent'
p20
g15
sS'left'
p21
Nsbsg20
g10
sg21
(i__main__
Node
p22
(dp23
g12
I3
sg13
S'indiv.separation()'
p24
sg14
Nsg20
g15
sg21
Nsbsbsg20
Nsg21
(i__main__
Node
p25
(dp26
g12
I2
sg13
S'+'
sg14
(i__main__
Node
p27
(dp28
g12
I3
sg13
S'indiv.target()'
p29
sg14
Nsg20
g25
sg21
Nsbsg20
g10
sg21
(i__main__
Node
p30
(dp31
g12
I3
sg13
g29
sg14
Nsg20
g25
sg21
NsbsbsbsS'accel_x'
p32
F0
sS'accel_y'
p33
F0
sS'visionAngle'
p34
I130
sS'maxAccel'
p35
I2
sS'maxVel'
p36
F0.72999999999999998
sS'age'
p37
I0
sS'tailSize'
p38
I0
sS'sexualgeno'
p39
NsS'tailBrigh'
p40
I0
sS'maxSteering'
p41
I20
sS'energy'
p42
F0.5
sS'lastScale'
p43
F5.5
sb.(i__main__
Data_mobile
p1
(dp2
S'vel_y'
p3
F-0.089528433017086934
sS'vel_x'
p4
F0.25753765448369892
sS'pos_x'
p5
F44.083008459282382
sS'pos_y'
p6
F62.328779512428333
sS'isAlive'
p7
I01
sS'cumulativeEnergy'
p8
F0.5
sS'geno'
p9
(i__main__
Node
p10
(dp11
S'depth'
p12
I1
sS'vector'
p13
S'+'
sS'right'
p14
(i__main__
Node
p15
(dp16
g12
I2
sg13
S'+'
sg14
(i__main__
Node
p17
(dp18
g12
I3
sg13
S'indiv.target()'
p19
sg14
NsS'parent'
p20
g15
sS'left'
p21
Nsbsg20
g10
sg21
(i__main__
Node
p22
(dp23
g12
I3
sg13
S'indiv.alignment()'
p24
sg14
Nsg20
g15
sg21
Nsbsbsg20
Nsg21
(i__main__
Node
p25
(dp26
g12
I2
sg13
S'+'
sg14
(i__main__
Node
p27
(dp28
g12
I3
sg13
g19
sg14
Nsg20
g25
sg21
Nsbsg20
g10
sg21
(i__main__
Node
p29
(dp30
g12
I3
sg13
S'indiv.currentEnergy()'
p31
sg14
Nsg20
g25
sg21
NsbsbsbsS'accel_x'
p32
F0
sS'accel_y'
p33
F0
sS'visionAngle'
p34
I130
sS'maxAccel'
p35
I2
sS'maxVel'
p36
F0.72999999999999998
sS'age'
p37
I0
sS'tailSize'
p38
I0
sS'sexualgeno'
p39
NsS'tailBrigh'
p40
I0
sS'maxSteering'
p41
I20
sS'energy'
p42
F0.5
sS'lastScale'
p43
F5.5
sb.(i__main__
Data_mobile
p1
(dp2
S'vel_y'
p3
F0.25113476792459272
sS'vel_x'
p4
F0.14600205027076504
sS'pos_x'
p5
F-131.39692636474473
sS'pos_y'
p6
F41.0794815746358
sS'isAlive'
p7
I01
sS'cumulativeEnergy'
p8
F0.5
sS'geno'
p9
(i__main__
Node
p10
(dp11
S'depth'
p12
I1
sS'vector'
p13
S'+'
sS'right'
p14
(i__main__
Node
p15
(dp16
g12
I2
sg13
S'*'
sg14
(i__main__
Node
p17
(dp18
g12
I3
sg13
S'indiv.randV()'
p19
sg14
NsS'parent'
p20
g15
sS'left'
p21
Nsbsg20
g10
sg21
(i__main__
Node
p22
(dp23
g12
I3
sg13
S'indiv.target()'
p24
sg14
Nsg20
g15
sg21
Nsbsbsg20
Nsg21
(i__main__
Node
p25
(dp26
g12
I2
sg13
S'+'
sg14
(i__main__
Node
p27
(dp28
g12
I3
sg13
g24
sg14
Nsg20
g25
sg21
Nsbsg20
g10
sg21
(i__main__
Node
p29
(dp30
g12
I3
sg13
g24
sg14
Nsg20
g25
sg21
NsbsbsbsS'accel_x'
p31
F0
sS'accel_y'
p32
F0
sS'visionAngle'
p33
I130
sS'maxAccel'
p34
I2
sS'maxVel'
p35
F0.72999999999999998
sS'age'
p36
I0
sS'tailSize'
p37
I0
sS'sexualgeno'
p38
NsS'tailBrigh'
p39
I0
sS'maxSteering'
p40
I20
sS'energy'
p41
F0.5
sS'lastScale'
p42
F5.5
sb.(i__main__
Data_mobile
p1
(dp2
S'vel_y'
p3
F-0.061548511600304556
sS'vel_x'
p4
F0.27395697091668397
sS'pos_x'
p5
F52.342657163911163
sS'pos_y'
p6
F56.101898094422964
sS'isAlive'
p7
I01
sS'cumulativeEnergy'
p8
F0.5
sS'geno'
p9
(i__main__
Node
p10
(dp11
S'depth'
p12
I1
sS'vector'
p13
S'+'
sS'right'
p14
(i__main__
Node
p15
(dp16
g12
I2
sg13
S'*'
sg14
(i__main__
Node
p17
(dp18
g12
I3
sg13
S'-'
sg14
(i__main__
Node
p19
(dp20
g12
I4
sg13
S'indiv.currentVelocity()'
p21
sg14
NsS'parent'
p22
g17
sS'left'
p23
Nsbsg22
g15
sg23
(i__main__
Node
p24
(dp25
g12
I4
sg13
S'indiv.separation()'
p26
sg14
Nsg22
g17
sg23
Nsbsbsg22
g10
sg23
(i__main__
Node
p27
(dp28
g12
I3
sg13
S'*'
sg14
(i__main__
Node
p29
(dp30
g12
I4
sg13
S'indiv.randV()'
p31
sg14
Nsg22
g27
sg23
Nsbsg22
g15
sg23
(i__main__
Node
p32
(dp33
g12
I4
sg13
S'indiv.target()'
p34
sg14
Nsg22
g27
sg23
Nsbsbsbsg22
Nsg23
(i__main__
Node
p35
(dp36
g12
I2
sg13
S'+'
sg14
(i__main__
Node
p37
(dp38
g12
I3
sg13
g34
sg14
Nsg22
g35
sg23
Nsbsg22
g10
sg23
(i__main__
Node
p39
(dp40
g12
I3
sg13
g34
sg14
Nsg22
g35
sg23
NsbsbsbsS'accel_x'
p41
F0
sS'accel_y'
p42
F0
sS'visionAngle'
p43
I130
sS'maxAccel'
p44
I2
sS'maxVel'
p45
F0.72999999999999998
sS'age'
p46
I0
sS'tailSize'
p47
I0
sS'sexualgeno'
p48
NsS'tailBrigh'
p49
I0
sS'maxSteering'
p50
I20
sS'energy'
p51
F0.5
sS'lastScale'
p52
F5.5
sb.(i__main__
Data_mobile
p1
(dp2
S'vel_y'
p3
F0.041543601743840586
sS'vel_x'
p4
F-0.72092626893871914
sS'pos_x'
p5
F71.826450702571975
sS'pos_y'
p6
F70.564747757734935
sS'isAlive'
p7
I01
sS'cumulativeEnergy'
p8
F0.5
sS'geno'
p9
(i__main__
Node
p10
(dp11
S'depth'
p12
I1
sS'vector'
p13
S'+'
sS'right'
p14
(i__main__
Node
p15
(dp16
g12
I2
sg13
S'*'
sg14
(i__main__
Node
p17
(dp18
g12
I3
sg13
S'indiv.randV()'
p19
sg14
NsS'parent'
p20
g15
sS'left'
p21
Nsbsg20
g10
sg21
(i__main__
Node
p22
(dp23
g12
I3
sg13
S'indiv.target()'
p24
sg14
Nsg20
g15
sg21
Nsbsbsg20
Nsg21
(i__main__
Node
p25
(dp26
g12
I2
sg13
S'*'
sg14
(i__main__
Node
p27
(dp28
g12
I3
sg13
g19
sg14
Nsg20
g25
sg21
Nsbsg20
g10
sg21
(i__main__
Node
p29
(dp30
g12
I3
sg13
g24
sg14
Nsg20
g25
sg21
NsbsbsbsS'accel_x'
p31
F0
sS'accel_y'
p32
F0
sS'visionAngle'
p33
I130
sS'maxAccel'
p34
I2
sS'maxVel'
p35
F0.72999999999999998
sS'age'
p36
I0
sS'tailSize'
p37
I0
sS'sexualgeno'
p38
NsS'tailBrigh'
p39
I0
sS'maxSteering'
p40
I20
sS'energy'
p41
F0.5
sS'lastScale'
p42
F5.5
sb.(i__main__
Data_mobile
p1
(dp2
S'vel_y'
p3
F0.67127249788862231
sS'vel_x'
p4
F-0.10396322875325595
sS'pos_x'
p5
F108.97103908190718
sS'pos_y'
p6
F-64.055630865475621
sS'isAlive'
p7
I01
sS'cumulativeEnergy'
p8
F0.5
sS'geno'
p9
(i__main__
Node
p10
(dp11
S'depth'
p12
I1
sS'vector'
p13
S'+'
sS'right'
p14
(i__main__
Node
p15
(dp16
g12
I2
sg13
S'+'
sg14
(i__main__
Node
p17
(dp18
g12
I3
sg13
S'indiv.target()'
p19
sg14
NsS'parent'
p20
g15
sS'left'
p21
Nsbsg20
g10
sg21
(i__main__
Node
p22
(dp23
g12
I3
sg13
g19
sg14
Nsg20
g15
sg21
Nsbsbsg20
Nsg21
(i__main__
Node
p24
(dp25
g12
I2
sg13
S'*'
sg14
(i__main__
Node
p26
(dp27
g12
I3
sg13
S'indiv.randV()'
p28
sg14
Nsg20
g24
sg21
Nsbsg20
g10
sg21
(i__main__
Node
p29
(dp30
g12
I3
sg13
g19
sg14
Nsg20
g24
sg21
NsbsbsbsS'accel_x'
p31
F0
sS'accel_y'
p32
F0
sS'visionAngle'
p33
I130
sS'maxAccel'
p34
I2
sS'maxVel'
p35
F0.72999999999999998
sS'age'
p36
I0
sS'tailSize'
p37
I0
sS'sexualgeno'
p38
NsS'tailBrigh'
p39
I0
sS'maxSteering'
p40
I20
sS'energy'
p41
F0.5
sS'lastScale'
p42
F5.5
sb.(i__main__
Data_mobile
p1
(dp2
S'vel_y'
p3
F0.32047328965615618
sS'vel_x'
p4
F0.36901199976927646
sS'pos_x'
p5
F-111.93634869486883
sS'pos_y'
p6
F-83.834740419772743
sS'isAlive'
p7
I01
sS'cumulativeEnergy'
p8
F0.5
sS'geno'
p9
(i__main__
Node
p10
(dp11
S'depth'
p12
I1
sS'vector'
p13
S'+'
sS'right'
p14
(i__main__
Node
p15
(dp16
g12
I2
sg13
S'+'
sg14
(i__main__
Node
p17
(dp18
g12
I3
sg13
S'/'
sg14
(i__main__
Node
p19
(dp20
g12
I4
sg13
S'indiv.target()'
p21
sg14
NsS'parent'
p22
g17
sS'left'
p23
Nsbsg22
g15
sg23
(i__main__
Node
p24
(dp25
g12
I4
sg13
S'indiv.cohesion()'
p26
sg14
Nsg22
g17
sg23
Nsbsbsg22
g10
sg23
(i__main__
Node
p27
(dp28
g12
I3
sg13
S'+'
sg14
(i__main__
Node
p29
(dp30
g12
I4
sg13
g21
sg14
Nsg22
g27
sg23
Nsbsg22
g15
sg23
(i__main__
Node
p31
(dp32
g12
I4
sg13
g26
sg14
Nsg22
g27
sg23
Nsbsbsbsg22
Nsg23
(i__main__
Node
p33
(dp34
g12
I2
sg13
S'+'
sg14
(i__main__
Node
p35
(dp36
g12
I3
sg13
g21
sg14
Nsg22
g33
sg23
Nsbsg22
g10
sg23
(i__main__
Node
p37
(dp38
g12
I3
sg13
g21
sg14
Nsg22
g33
sg23
NsbsbsbsS'accel_x'
p39
F0
sS'accel_y'
p40
F0
sS'visionAngle'
p41
I130
sS'maxAccel'
p42
I2
sS'maxVel'
p43
F0.72999999999999998
sS'age'
p44
I0
sS'tailSize'
p45
I0
sS'sexualgeno'
p46
NsS'tailBrigh'
p47
I0
sS'maxSteering'
p48
I20
sS'energy'
p49
F0.5
sS'lastScale'
p50
F5.5
sb.(i__main__
Data_mobile
p1
(dp2
S'vel_y'
p3
F0.47336155518374878
sS'vel_x'
p4
F0.47168337072587657
sS'pos_x'
p5
F-28.912149594102043
sS'pos_y'
p6
F58.404248378166649
sS'isAlive'
p7
I01
sS'cumulativeEnergy'
p8
F0.5
sS'geno'
p9
(i__main__
Node
p10
(dp11
S'depth'
p12
I1
sS'vector'
p13
S'+'
sS'right'
p14
(i__main__
Node
p15
(dp16
g12
I2
sg13
S'+'
sg14
(i__main__
Node
p17
(dp18
g12
I3
sg13
S'indiv.target()'
p19
sg14
NsS'parent'
p20
g15
sS'left'
p21
Nsbsg20
g10
sg21
(i__main__
Node
p22
(dp23
g12
I3
sg13
g19
sg14
Nsg20
g15
sg21
Nsbsbsg20
Nsg21
(i__main__
Node
p24
(dp25
g12
I2
sg13
S'+'
sg14
(i__main__
Node
p26
(dp27
g12
I3
sg13
g19
sg14
Nsg20
g24
sg21
Nsbsg20
g10
sg21
(i__main__
Node
p28
(dp29
g12
I3
sg13
g19
sg14
Nsg20
g24
sg21
NsbsbsbsS'accel_x'
p30
F0
sS'accel_y'
p31
F0
sS'visionAngle'
p32
I130
sS'maxAccel'
p33
I2
sS'maxVel'
p34
F0.72999999999999998
sS'age'
p35
I0
sS'tailSize'
p36
I0
sS'sexualgeno'
p37
NsS'tailBrigh'
p38
I0
sS'maxSteering'
p39
I20
sS'energy'
p40
F0.5
sS'lastScale'
p41
F5.5
sb.(i__main__
Data_mobile
p1
(dp2
S'vel_y'
p3
F0.37436191918470541
sS'vel_x'
p4
F-0.54189642706888097
sS'pos_x'
p5
F70.156596578465539
sS'pos_y'
p6
F74.500947335465469
sS'isAlive'
p7
I01
sS'cumulativeEnergy'
p8
F0.5
sS'geno'
p9
(i__main__
Node
p10
(dp11
S'depth'
p12
I1
sS'vector'
p13
S'+'
sS'right'
p14
(i__main__
Node
p15
(dp16
g12
I2
sg13
S'*'
sg14
(i__main__
Node
p17
(dp18
g12
I3
sg13
S'indiv.randV()'
p19
sg14
NsS'parent'
p20
g15
sS'left'
p21
Nsbsg20
g10
sg21
(i__main__
Node
p22
(dp23
g12
I3
sg13
S'indiv.target()'
p24
sg14
Nsg20
g15
sg21
Nsbsbsg20
Nsg21
(i__main__
Node
p25
(dp26
g12
I2
sg13
S'+'
sg14
(i__main__
Node
p27
(dp28
g12
I3
sg13
g24
sg14
Nsg20
g25
sg21
Nsbsg20
g10
sg21
(i__main__
Node
p29
(dp30
g12
I3
sg13
g24
sg14
Nsg20
g25
sg21
NsbsbsbsS'accel_x'
p31
F0
sS'accel_y'
p32
F0
sS'visionAngle'
p33
I130
sS'maxAccel'
p34
I2
sS'maxVel'
p35
F0.72999999999999998
sS'age'
p36
I0
sS'tailSize'
p37
I0
sS'sexualgeno'
p38
NsS'tailBrigh'
p39
I0
sS'maxSteering'
p40
I20
sS'energy'
p41
F0.5
sS'lastScale'
p42
F5.5
sb.(i__main__
Data_mobile
p1
(dp2
S'vel_y'
p3
F0.53639040675085337
sS'vel_x'
p4
F-0.43871941603523651
sS'pos_x'
p5
F81.166029120330734
sS'pos_y'
p6
F55.480125355161711
sS'isAlive'
p7
I01
sS'cumulativeEnergy'
p8
F0.5
sS'geno'
p9
(i__main__
Node
p10
(dp11
S'depth'
p12
I1
sS'vector'
p13
S'+'
sS'right'
p14
(i__main__
Node
p15
(dp16
g12
I2
sg13
S'*'
sg14
(i__main__
Node
p17
(dp18
g12
I3
sg13
S'indiv.randV()'
p19
sg14
NsS'parent'
p20
g15
sS'left'
p21
Nsbsg20
g10
sg21
(i__main__
Node
p22
(dp23
g12
I3
sg13
S'indiv.target()'
p24
sg14
Nsg20
g15
sg21
Nsbsbsg20
Nsg21
(i__main__
Node
p25
(dp26
g12
I2
sg13
S'+'
sg14
(i__main__
Node
p27
(dp28
g12
I3
sg13
g24
sg14
Nsg20
g25
sg21
Nsbsg20
g10
sg21
(i__main__
Node
p29
(dp30
g12
I3
sg13
g24
sg14
Nsg20
g25
sg21
NsbsbsbsS'accel_x'
p31
F0
sS'accel_y'
p32
F0
sS'visionAngle'
p33
I130
sS'maxAccel'
p34
I2
sS'maxVel'
p35
F0.72999999999999998
sS'age'
p36
I0
sS'tailSize'
p37
I0
sS'sexualgeno'
p38
NsS'tailBrigh'
p39
I0
sS'maxSteering'
p40
I20
sS'energy'
p41
F0.5
sS'lastScale'
p42
F5.5
sb.(i__main__
Data_mobile
p1
(dp2
S'vel_y'
p3
F-0.045357736817985661
sS'vel_x'
p4
F-0.37862528413647778
sS'pos_x'
p5
F-111.82282951771523
sS'pos_y'
p6
F-7.9122931423928557
sS'isAlive'
p7
I01
sS'cumulativeEnergy'
p8
F0.5
sS'geno'
p9
(i__main__
Node
p10
(dp11
S'depth'
p12
I1
sS'vector'
p13
S'+'
sS'right'
p14
(i__main__
Node
p15
(dp16
g12
I2
sg13
S'*'
sg14
(i__main__
Node
p17
(dp18
g12
I3
sg13
S'indiv.randV()'
p19
sg14
NsS'parent'
p20
g15
sS'left'
p21
Nsbsg20
g10
sg21
(i__main__
Node
p22
(dp23
g12
I3
sg13
S'indiv.target()'
p24
sg14
Nsg20
g15
sg21
Nsbsbsg20
Nsg21
(i__main__
Node
p25
(dp26
g12
I2
sg13
S'*'
sg14
(i__main__
Node
p27
(dp28
g12
I3
sg13
g19
sg14
Nsg20
g25
sg21
Nsbsg20
g10
sg21
(i__main__
Node
p29
(dp30
g12
I3
sg13
g24
sg14
Nsg20
g25
sg21
NsbsbsbsS'accel_x'
p31
F0
sS'accel_y'
p32
F0
sS'visionAngle'
p33
I130
sS'maxAccel'
p34
I2
sS'maxVel'
p35
F0.72999999999999998
sS'age'
p36
I0
sS'tailSize'
p37
I0
sS'sexualgeno'
p38
NsS'tailBrigh'
p39
I0
sS'maxSteering'
p40
I20
sS'energy'
p41
F0.5
sS'lastScale'
p42
F5.5
sb.(i__main__
Data_mobile
p1
(dp2
S'vel_y'
p3
F0.35773364306163113
sS'vel_x'
p4
F0.07816683341841274
sS'pos_x'
p5
F148.17265784640063
sS'pos_y'
p6
F-22.482300020446417
sS'isAlive'
p7
I01
sS'cumulativeEnergy'
p8
F0.5
sS'geno'
p9
(i__main__
Node
p10
(dp11
S'depth'
p12
I1
sS'vector'
p13
S'+'
sS'right'
p14
(i__main__
Node
p15
(dp16
g12
I2
sg13
S'*'
sg14
(i__main__
Node
p17
(dp18
g12
I3
sg13
S'indiv.randV()'
p19
sg14
NsS'parent'
p20
g15
sS'left'
p21
Nsbsg20
g10
sg21
(i__main__
Node
p22
(dp23
g12
I3
sg13
S'indiv.target()'
p24
sg14
Nsg20
g15
sg21
Nsbsbsg20
Nsg21
(i__main__
Node
p25
(dp26
g12
I2
sg13
S'+'
sg14
(i__main__
Node
p27
(dp28
g12
I3
sg13
g24
sg14
Nsg20
g25
sg21
Nsbsg20
g10
sg21
(i__main__
Node
p29
(dp30
g12
I3
sg13
g24
sg14
Nsg20
g25
sg21
NsbsbsbsS'accel_x'
p31
F0
sS'accel_y'
p32
F0
sS'visionAngle'
p33
I130
sS'maxAccel'
p34
I2
sS'maxVel'
p35
F0.72999999999999998
sS'age'
p36
I0
sS'tailSize'
p37
I0
sS'sexualgeno'
p38
NsS'tailBrigh'
p39
I0
sS'maxSteering'
p40
I20
sS'energy'
p41
F0.5
sS'lastScale'
p42
F5.5
sb.(i__main__
Data_mobile
p1
(dp2
S'vel_y'
p3
F0.57363716874680992
sS'vel_x'
p4
F0.1164479069475937
sS'pos_x'
p5
F109.99276152553549
sS'pos_y'
p6
F-71.616061647353845
sS'isAlive'
p7
I01
sS'cumulativeEnergy'
p8
F0.5
sS'geno'
p9
(i__main__
Node
p10
(dp11
S'depth'
p12
I1
sS'vector'
p13
S'+'
sS'right'
p14
(i__main__
Node
p15
(dp16
g12
I2
sg13
S'+'
sg14
(i__main__
Node
p17
(dp18
g12
I3
sg13
S'indiv.target()'
p19
sg14
NsS'parent'
p20
g15
sS'left'
p21
Nsbsg20
g10
sg21
(i__main__
Node
p22
(dp23
g12
I3
sg13
g19
sg14
Nsg20
g15
sg21
Nsbsbsg20
Nsg21
(i__main__
Node
p24
(dp25
g12
I2
sg13
S'+'
sg14
(i__main__
Node
p26
(dp27
g12
I3
sg13
g19
sg14
Nsg20
g24
sg21
Nsbsg20
g10
sg21
(i__main__
Node
p28
(dp29
g12
I3
sg13
S'indiv.currentEnergy()'
p30
sg14
Nsg20
g24
sg21
NsbsbsbsS'accel_x'
p31
F0
sS'accel_y'
p32
F0
sS'visionAngle'
p33
I130
sS'maxAccel'
p34
I2
sS'maxVel'
p35
F0.72999999999999998
sS'age'
p36
I0
sS'tailSize'
p37
I0
sS'sexualgeno'
p38
NsS'tailBrigh'
p39
I0
sS'maxSteering'
p40
I20
sS'energy'
p41
F0.5
sS'lastScale'
p42
F5.5
sb.(i__main__
Data_mobile
p1
(dp2
S'vel_y'
p3
F-0.64794140842238113
sS'vel_x'
p4
F0.27121965889279881
sS'pos_x'
p5
F94.616832783274035
sS'pos_y'
p6
F-86.101405728582947
sS'isAlive'
p7
I01
sS'cumulativeEnergy'
p8
F0.5
sS'geno'
p9
(i__main__
Node
p10
(dp11
S'depth'
p12
I1
sS'vector'
p13
S'+'
sS'right'
p14
(i__main__
Node
p15
(dp16
g12
I2
sg13
S'*'
sg14
(i__main__
Node
p17
(dp18
g12
I3
sg13
S'indiv.randV()'
p19
sg14
NsS'parent'
p20
g15
sS'left'
p21
Nsbsg20
g10
sg21
(i__main__
Node
p22
(dp23
g12
I3
sg13
S'indiv.target()'
p24
sg14
Nsg20
g15
sg21
Nsbsbsg20
Nsg21
(i__main__
Node
p25
(dp26
g13
S'+'
sg12
I2
sg14
(i__main__
Node
p27
(dp28
g13
S'+'
sg12
I3
sg14
(i__main__
Node
p29
(dp30
g13
S'indiv.cohesion()'
p31
sg12
I4
sg14
Nsg20
g27
sg21
Nsbsg20
g25
sg21
(i__main__
Node
p32
(dp33
g13
g31
sg12
I4
sg14
Nsg20
g27
sg21
Nsbsbsg20
g10
sg21
(i__main__
Node
p34
(dp35
g13
S'*'
sg12
I3
sg14
(i__main__
Node
p36
(dp37
g13
S'indiv.alignment()'
p38
sg12
I4
sg14
Nsg20
g34
sg21
Nsbsg20
g25
sg21
(i__main__
Node
p39
(dp40
g13
g31
sg12
I4
sg14
Nsg20
g34
sg21
NsbsbsbsbsS'accel_x'
p41
F0
sS'accel_y'
p42
F0
sS'visionAngle'
p43
I130
sS'maxAccel'
p44
I2
sS'maxVel'
p45
F0.72999999999999998
sS'age'
p46
I0
sS'tailSize'
p47
I0
sS'sexualgeno'
p48
NsS'tailBrigh'
p49
I0
sS'maxSteering'
p50
I20
sS'energy'
p51
F0.5
sS'lastScale'
p52
F5.5
sb.(i__main__
Data_mobile
p1
(dp2
S'vel_y'
p3
F-0.6947756021830036
sS'vel_x'
p4
F0.045166390500169046
sS'pos_x'
p5
F78.889842687046198
sS'pos_y'
p6
F-84.687036286669198
sS'isAlive'
p7
I01
sS'cumulativeEnergy'
p8
F0.5
sS'geno'
p9
(i__main__
Node
p10
(dp11
S'depth'
p12
I1
sS'vector'
p13
S'+'
sS'right'
p14
(i__main__
Node
p15
(dp16
g12
I2
sg13
S'*'
sg14
(i__main__
Node
p17
(dp18
g12
I3
sg13
S'indiv.randV()'
p19
sg14
NsS'parent'
p20
g15
sS'left'
p21
Nsbsg20
g10
sg21
(i__main__
Node
p22
(dp23
g12
I3
sg13
S'indiv.target()'
p24
sg14
Nsg20
g15
sg21
Nsbsbsg20
Nsg21
(i__main__
Node
p25
(dp26
g12
I2
sg13
S'*'
sg14
(i__main__
Node
p27
(dp28
g12
I3
sg13
g19
sg14
Nsg20
g25
sg21
Nsbsg20
g10
sg21
(i__main__
Node
p29
(dp30
g12
I3
sg13
g24
sg14
Nsg20
g25
sg21
NsbsbsbsS'accel_x'
p31
F0
sS'accel_y'
p32
F0
sS'visionAngle'
p33
I130
sS'maxAccel'
p34
I2
sS'maxVel'
p35
F0.72999999999999998
sS'age'
p36
I0
sS'tailSize'
p37
I0
sS'sexualgeno'
p38
NsS'tailBrigh'
p39
I0
sS'maxSteering'
p40
I20
sS'energy'
p41
F0.5
sS'lastScale'
p42
F5.5
sb.(i__main__
Data_mobile
p1
(dp2
S'vel_y'
p3
F0.54506271154490737
sS'vel_x'
p4
F-0.44263434186829925
sS'pos_x'
p5
F68.647514144674773
sS'pos_y'
p6
F62.818982741654267
sS'isAlive'
p7
I01
sS'cumulativeEnergy'
p8
F0.5
sS'geno'
p9
(i__main__
Node
p10
(dp11
S'depth'
p12
I1
sS'vector'
p13
S'+'
sS'right'
p14
(i__main__
Node
p15
(dp16
g12
I2
sg13
S'*'
sg14
(i__main__
Node
p17
(dp18
g12
I3
sg13
S'indiv.randV()'
p19
sg14
NsS'parent'
p20
g15
sS'left'
p21
Nsbsg20
g10
sg21
(i__main__
Node
p22
(dp23
g12
I3
sg13
S'indiv.target()'
p24
sg14
Nsg20
g15
sg21
Nsbsbsg20
Nsg21
(i__main__
Node
p25
(dp26
g12
I2
sg13
S'*'
sg14
(i__main__
Node
p27
(dp28
g12
I3
sg13
g19
sg14
Nsg20
g25
sg21
Nsbsg20
g10
sg21
(i__main__
Node
p29
(dp30
g12
I3
sg13
g24
sg14
Nsg20
g25
sg21
NsbsbsbsS'accel_x'
p31
F0
sS'accel_y'
p32
F0
sS'visionAngle'
p33
I130
sS'maxAccel'
p34
I2
sS'maxVel'
p35
F0.72999999999999998
sS'age'
p36
I0
sS'tailSize'
p37
I0
sS'sexualgeno'
p38
NsS'tailBrigh'
p39
I0
sS'maxSteering'
p40
I20
sS'energy'
p41
F0.5
sS'lastScale'
p42
F5.5
sb.(i__main__
Data_mobile
p1
(dp2
S'vel_y'
p3
F0.23262009815542045
sS'vel_x'
p4
F-0.3373867921494263
sS'pos_x'
p5
F-113.55845720509346
sS'pos_y'
p6
F-12.569952294043219
sS'isAlive'
p7
I01
sS'cumulativeEnergy'
p8
F0.5
sS'geno'
p9
(i__main__
Node
p10
(dp11
S'depth'
p12
I1
sS'vector'
p13
S'+'
sS'right'
p14
(i__main__
Node
p15
(dp16
g12
I2
sg13
S'*'
sg14
(i__main__
Node
p17
(dp18
g12
I3
sg13
S'indiv.randV()'
p19
sg14
NsS'parent'
p20
g15
sS'left'
p21
Nsbsg20
g10
sg21
(i__main__
Node
p22
(dp23
g12
I3
sg13
S'indiv.target()'
p24
sg14
Nsg20
g15
sg21
Nsbsbsg20
Nsg21
(i__main__
Node
p25
(dp26
g12
I2
sg13
S'+'
sg14
(i__main__
Node
p27
(dp28
g12
I3
sg13
g24
sg14
Nsg20
g25
sg21
Nsbsg20
g10
sg21
(i__main__
Node
p29
(dp30
g12
I3
sg13
g24
sg14
Nsg20
g25
sg21
NsbsbsbsS'accel_x'
p31
F0
sS'accel_y'
p32
F0
sS'visionAngle'
p33
I130
sS'maxAccel'
p34
I2
sS'maxVel'
p35
F0.72999999999999998
sS'age'
p36
I0
sS'tailSize'
p37
I0
sS'sexualgeno'
p38
NsS'tailBrigh'
p39
I0
sS'maxSteering'
p40
I20
sS'energy'
p41
F0.5
sS'lastScale'
p42
F5.5
sb.(i__main__
Data_mobile
p1
(dp2
S'vel_y'
p3
I0
sS'vel_x'
p4
I0
sS'pos_x'
p5
I-9579
sS'pos_y'
p6
I9779
sS'isAlive'
p7
I00
sS'cumulativeEnergy'
p8
F0.5
sS'geno'
p9
(i__main__
Node
p10
(dp11
S'depth'
p12
I1
sS'vector'
p13
S'+'
sS'right'
p14
(i__main__
Node
p15
(dp16
g12
I2
sg13
S'*'
sg14
(i__main__
Node
p17
(dp18
g12
I3
sg13
S'indiv.randV()'
p19
sg14
NsS'parent'
p20
g15
sS'left'
p21
Nsbsg20
g10
sg21
(i__main__
Node
p22
(dp23
g12
I3
sg13
S'indiv.target()'
p24
sg14
Nsg20
g15
sg21
Nsbsbsg20
Nsg21
(i__main__
Node
p25
(dp26
g12
I2
sg13
S'*'
sg14
(i__main__
Node
p27
(dp28
g12
I3
sg13
g19
sg14
Nsg20
g25
sg21
Nsbsg20
g10
sg21
(i__main__
Node
p29
(dp30
g12
I3
sg13
g24
sg14
Nsg20
g25
sg21
NsbsbsbsS'accel_x'
p31
F0
sS'accel_y'
p32
F0
sS'visionAngle'
p33
I130
sS'maxAccel'
p34
I2
sS'maxVel'
p35
F0.72999999999999998
sS'age'
p36
I0
sS'tailSize'
p37
I0
sS'sexualgeno'
p38
NsS'tailBrigh'
p39
I0
sS'maxSteering'
p40
I20
sS'energy'
p41
F0.5
sS'lastScale'
p42
F5.5
sb.(i__main__
Data_mobile
p1
(dp2
S'vel_y'
p3
I0
sS'vel_x'
p4
I0
sS'pos_x'
p5
I-9579
sS'pos_y'
p6
I9779
sS'isAlive'
p7
I00
sS'cumulativeEnergy'
p8
F0.5
sS'geno'
p9
(i__main__
Node
p10
(dp11
S'depth'
p12
I1
sS'vector'
p13
S'+'
sS'right'
p14
(i__main__
Node
p15
(dp16
g12
I2
sg13
S'*'
sg14
(i__main__
Node
p17
(dp18
g12
I3
sg13
S'indiv.randV()'
p19
sg14
NsS'parent'
p20
g15
sS'left'
p21
Nsbsg20
g10
sg21
(i__main__
Node
p22
(dp23
g12
I3
sg13
S'indiv.target()'
p24
sg14
Nsg20
g15
sg21
Nsbsbsg20
Nsg21
(i__main__
Node
p25
(dp26
g12
I2
sg13
S'*'
sg14
(i__main__
Node
p27
(dp28
g12
I3
sg13
g19
sg14
Nsg20
g25
sg21
Nsbsg20
g10
sg21
(i__main__
Node
p29
(dp30
g12
I3
sg13
g24
sg14
Nsg20
g25
sg21
NsbsbsbsS'accel_x'
p31
F0
sS'accel_y'
p32
F0
sS'visionAngle'
p33
I130
sS'maxAccel'
p34
I2
sS'maxVel'
p35
F0.72999999999999998
sS'age'
p36
I0
sS'tailSize'
p37
I0
sS'sexualgeno'
p38
NsS'tailBrigh'
p39
I0
sS'maxSteering'
p40
I20
sS'energy'
p41
F0.5
sS'lastScale'
p42
F5.5
sb.(i__main__
Data_mobile
p1
(dp2
S'vel_y'
p3
I0
sS'vel_x'
p4
I0
sS'pos_x'
p5
I-9579
sS'pos_y'
p6
I9779
sS'isAlive'
p7
I00
sS'cumulativeEnergy'
p8
F0.5
sS'geno'
p9
(i__main__
Node
p10
(dp11
S'depth'
p12
I1
sS'vector'
p13
S'+'
sS'right'
p14
(i__main__
Node
p15
(dp16
g12
I2
sg13
S'indiv.currentEnergy()'
p17
sg14
NsS'parent'
p18
g10
sS'left'
p19
Nsbsg18
Nsg19
(i__main__
Node
p20
(dp21
g12
I2
sg13
S'*'
sg14
(i__main__
Node
p22
(dp23
g12
I3
sg13
S'indiv.randV()'
p24
sg14
Nsg18
g20
sg19
Nsbsg18
g10
sg19
(i__main__
Node
p25
(dp26
g12
I3
sg13
S'indiv.target()'
p27
sg14
Nsg18
g20
sg19
NsbsbsbsS'accel_x'
p28
F0
sS'accel_y'
p29
F0
sS'visionAngle'
p30
I130
sS'maxAccel'
p31
I2
sS'maxVel'
p32
F0.72999999999999998
sS'age'
p33
I0
sS'tailSize'
p34
I0
sS'sexualgeno'
p35
NsS'tailBrigh'
p36
I0
sS'maxSteering'
p37
I20
sS'energy'
p38
F0.5
sS'lastScale'
p39
F5.5
sb.(i__main__
Data_mobile
p1
(dp2
S'vel_y'
p3
I0
sS'vel_x'
p4
I0
sS'pos_x'
p5
I-9579
sS'pos_y'
p6
I9779
sS'isAlive'
p7
I00
sS'cumulativeEnergy'
p8
F0.5
sS'geno'
p9
(i__main__
Node
p10
(dp11
S'depth'
p12
I1
sS'vector'
p13
S'+'
sS'right'
p14
(i__main__
Node
p15
(dp16
g12
I2
sg13
S'-'
sg14
(i__main__
Node
p17
(dp18
g12
I3
sg13
S'indiv.currentVelocity()'
p19
sg14
NsS'parent'
p20
g15
sS'left'
p21
Nsbsg20
g10
sg21
(i__main__
Node
p22
(dp23
g12
I3
sg13
S'indiv.separation()'
p24
sg14
Nsg20
g15
sg21
Nsbsbsg20
Nsg21
(i__main__
Node
p25
(dp26
g12
I2
sg13
S'*'
sg14
(i__main__
Node
p27
(dp28
g12
I3
sg13
S'indiv.randV()'
p29
sg14
Nsg20
g25
sg21
Nsbsg20
g10
sg21
(i__main__
Node
p30
(dp31
g12
I3
sg13
S'indiv.target()'
p32
sg14
Nsg20
g25
sg21
NsbsbsbsS'accel_x'
p33
F0
sS'accel_y'
p34
F0
sS'visionAngle'
p35
I130
sS'maxAccel'
p36
I2
sS'maxVel'
p37
F0.72999999999999998
sS'age'
p38
I0
sS'tailSize'
p39
I0
sS'sexualgeno'
p40
NsS'tailBrigh'
p41
I0
sS'maxSteering'
p42
I20
sS'energy'
p43
F0.5
sS'lastScale'
p44
F5.5
sb.(i__main__
Data_mobile
p1
(dp2
S'vel_y'
p3
I0
sS'vel_x'
p4
I0
sS'pos_x'
p5
I-9579
sS'pos_y'
p6
I9779
sS'isAlive'
p7
I00
sS'cumulativeEnergy'
p8
F0.5
sS'geno'
p9
(i__main__
Node
p10
(dp11
S'depth'
p12
I1
sS'vector'
p13
S'+'
sS'right'
p14
(i__main__
Node
p15
(dp16
g12
I2
sg13
S'+'
sg14
(i__main__
Node
p17
(dp18
g12
I3
sg13
S'indiv.target()'
p19
sg14
NsS'parent'
p20
g15
sS'left'
p21
Nsbsg20
g10
sg21
(i__main__
Node
p22
(dp23
g12
I3
sg13
g19
sg14
Nsg20
g15
sg21
Nsbsbsg20
Nsg21
(i__main__
Node
p24
(dp25
g12
I2
sg13
S'*'
sg14
(i__main__
Node
p26
(dp27
g12
I3
sg13
S'indiv.randV()'
p28
sg14
Nsg20
g24
sg21
Nsbsg20
g10
sg21
(i__main__
Node
p29
(dp30
g12
I3
sg13
g19
sg14
Nsg20
g24
sg21
NsbsbsbsS'accel_x'
p31
F0
sS'accel_y'
p32
F0
sS'visionAngle'
p33
I130
sS'maxAccel'
p34
I2
sS'maxVel'
p35
F0.72999999999999998
sS'age'
p36
I0
sS'tailSize'
p37
I0
sS'sexualgeno'
p38
NsS'tailBrigh'
p39
I0
sS'maxSteering'
p40
I20
sS'energy'
p41
F0.5
sS'lastScale'
p42
F5.5
sb.(i__main__
Data_mobile
p1
(dp2
S'vel_y'
p3
I0
sS'vel_x'
p4
I0
sS'pos_x'
p5
I-9579
sS'pos_y'
p6
I9779
sS'isAlive'
p7
I00
sS'cumulativeEnergy'
p8
F0.5
sS'geno'
p9
(i__main__
Node
p10
(dp11
S'depth'
p12
I1
sS'vector'
p13
S'+'
sS'right'
p14
(i__main__
Node
p15
(dp16
g12
I2
sg13
S'+'
sg14
(i__main__
Node
p17
(dp18
g12
I3
sg13
S'indiv.target()'
p19
sg14
NsS'parent'
p20
g15
sS'left'
p21
Nsbsg20
g10
sg21
(i__main__
Node
p22
(dp23
g12
I3
sg13
g19
sg14
Nsg20
g15
sg21
Nsbsbsg20
Nsg21
(i__main__
Node
p24
(dp25
g12
I2
sg13
S'*'
sg14
(i__main__
Node
p26
(dp27
g12
I3
sg13
S'-'
sg14
(i__main__
Node
p28
(dp29
g12
I4
sg13
S'indiv.currentVelocity()'
p30
sg14
Nsg20
g26
sg21
Nsbsg20
g24
sg21
(i__main__
Node
p31
(dp32
g12
I4
sg13
S'indiv.separation()'
p33
sg14
Nsg20
g26
sg21
Nsbsbsg20
g10
sg21
(i__main__
Node
p34
(dp35
g12
I3
sg13
S'+'
sg14
(i__main__
Node
p36
(dp37
g12
I4
sg13
g19
sg14
Nsg20
g34
sg21
Nsbsg20
g24
sg21
(i__main__
Node
p38
(dp39
g12
I4
sg13
S'indiv.alignment()'
p40
sg14
Nsg20
g34
sg21
NsbsbsbsbsS'accel_x'
p41
F0
sS'accel_y'
p42
F0
sS'visionAngle'
p43
I130
sS'maxAccel'
p44
I2
sS'maxVel'
p45
F0.72999999999999998
sS'age'
p46
I0
sS'tailSize'
p47
I0
sS'sexualgeno'
p48
NsS'tailBrigh'
p49
I0
sS'maxSteering'
p50
I20
sS'energy'
p51
F0.5
sS'lastScale'
p52
F5.5
sb.(i__main__
Data_mobile
p1
(dp2
S'vel_y'
p3
I0
sS'vel_x'
p4
I0
sS'pos_x'
p5
I-9579
sS'pos_y'
p6
I9779
sS'isAlive'
p7
I00
sS'cumulativeEnergy'
p8
F0.5
sS'geno'
p9
(i__main__
Node
p10
(dp11
S'depth'
p12
I1
sS'vector'
p13
S'+'
sS'right'
p14
(i__main__
Node
p15
(dp16
g12
I2
sg13
S'indiv.currentEnergy()'
p17
sg14
NsS'parent'
p18
g10
sS'left'
p19
Nsbsg18
Nsg19
(i__main__
Node
p20
(dp21
g12
I2
sg13
S'*'
sg14
(i__main__
Node
p22
(dp23
g12
I3
sg13
S'indiv.randV()'
p24
sg14
Nsg18
g20
sg19
Nsbsg18
g10
sg19
(i__main__
Node
p25
(dp26
g12
I3
sg13
S'indiv.target()'
p27
sg14
Nsg18
g20
sg19
NsbsbsbsS'accel_x'
p28
F0
sS'accel_y'
p29
F0
sS'visionAngle'
p30
I130
sS'maxAccel'
p31
I2
sS'maxVel'
p32
F0.72999999999999998
sS'age'
p33
I0
sS'tailSize'
p34
I0
sS'sexualgeno'
p35
NsS'tailBrigh'
p36
I0
sS'maxSteering'
p37
I20
sS'energy'
p38
F0.5
sS'lastScale'
p39
F5.5
sb.(i__main__
Data_mobile
p1
(dp2
S'vel_y'
p3
I0
sS'vel_x'
p4
I0
sS'pos_x'
p5
I-9579
sS'pos_y'
p6
I9779
sS'isAlive'
p7
I00
sS'cumulativeEnergy'
p8
F0.5
sS'geno'
p9
(i__main__
Node
p10
(dp11
S'depth'
p12
I1
sS'vector'
p13
S'+'
sS'right'
p14
(i__main__
Node
p15
(dp16
g12
I2
sg13
S'-'
sg14
(i__main__
Node
p17
(dp18
g12
I3
sg13
S'indiv.currentVelocity()'
p19
sg14
NsS'parent'
p20
g15
sS'left'
p21
Nsbsg20
g10
sg21
(i__main__
Node
p22
(dp23
g12
I3
sg13
S'indiv.separation()'
p24
sg14
Nsg20
g15
sg21
Nsbsbsg20
Nsg21
(i__main__
Node
p25
(dp26
g12
I2
sg13
S'*'
sg14
(i__main__
Node
p27
(dp28
g12
I3
sg13
S'indiv.randV()'
p29
sg14
Nsg20
g25
sg21
Nsbsg20
g10
sg21
(i__main__
Node
p30
(dp31
g12
I3
sg13
S'indiv.target()'
p32
sg14
Nsg20
g25
sg21
NsbsbsbsS'accel_x'
p33
F0
sS'accel_y'
p34
F0
sS'visionAngle'
p35
I130
sS'maxAccel'
p36
I2
sS'maxVel'
p37
F0.72999999999999998
sS'age'
p38
I0
sS'tailSize'
p39
I0
sS'sexualgeno'
p40
NsS'tailBrigh'
p41
I0
sS'maxSteering'
p42
I20
sS'energy'
p43
F0.5
sS'lastScale'
p44
F5.5
sb.(i__main__
Data_mobile
p1
(dp2
S'vel_y'
p3
I0
sS'vel_x'
p4
I0
sS'pos_x'
p5
I-9579
sS'pos_y'
p6
I9779
sS'isAlive'
p7
I00
sS'cumulativeEnergy'
p8
F0.5
sS'geno'
p9
(i__main__
Node
p10
(dp11
S'depth'
p12
I1
sS'vector'
p13
S'+'
sS'right'
p14
(i__main__
Node
p15
(dp16
g12
I2
sg13
S'*'
sg14
(i__main__
Node
p17
(dp18
g12
I3
sg13
S'-'
sg14
(i__main__
Node
p19
(dp20
g12
I4
sg13
S'indiv.currentVelocity()'
p21
sg14
NsS'parent'
p22
g17
sS'left'
p23
Nsbsg22
g15
sg23
(i__main__
Node
p24
(dp25
g12
I4
sg13
S'indiv.separation()'
p26
sg14
Nsg22
g17
sg23
Nsbsbsg22
g10
sg23
(i__main__
Node
p27
(dp28
g12
I3
sg13
S'+'
sg14
(i__main__
Node
p29
(dp30
g12
I4
sg13
S'indiv.target()'
p31
sg14
Nsg22
g27
sg23
Nsbsg22
g15
sg23
(i__main__
Node
p32
(dp33
g12
I4
sg13
S'indiv.alignment()'
p34
sg14
Nsg22
g27
sg23
Nsbsbsbsg22
Nsg23
(i__main__
Node
p35
(dp36
g12
I2
sg13
S'*'
sg14
(i__main__
Node
p37
(dp38
g12
I3
sg13
S'indiv.randV()'
p39
sg14
Nsg22
g35
sg23
Nsbsg22
g10
sg23
(i__main__
Node
p40
(dp41
g12
I3
sg13
g31
sg14
Nsg22
g35
sg23
NsbsbsbsS'accel_x'
p42
F0
sS'accel_y'
p43
F0
sS'visionAngle'
p44
I130
sS'maxAccel'
p45
I2
sS'maxVel'
p46
F0.72999999999999998
sS'age'
p47
I0
sS'tailSize'
p48
I0
sS'sexualgeno'
p49
NsS'tailBrigh'
p50
I0
sS'maxSteering'
p51
I20
sS'energy'
p52
F0.5
sS'lastScale'
p53
F5.5
sb.(i__main__
Data_mobile
p1
(dp2
S'vel_y'
p3
I0
sS'vel_x'
p4
I0
sS'pos_x'
p5
I-9579
sS'pos_y'
p6
I9779
sS'isAlive'
p7
I00
sS'cumulativeEnergy'
p8
F0.5
sS'geno'
p9
(i__main__
Node
p10
(dp11
S'depth'
p12
I1
sS'vector'
p13
S'+'
sS'right'
p14
(i__main__
Node
p15
(dp16
g12
I2
sg13
S'-'
sg14
(i__main__
Node
p17
(dp18
g12
I3
sg13
S'indiv.currentVelocity()'
p19
sg14
NsS'parent'
p20
g15
sS'left'
p21
Nsbsg20
g10
sg21
(i__main__
Node
p22
(dp23
g12
I3
sg13
S'indiv.separation()'
p24
sg14
Nsg20
g15
sg21
Nsbsbsg20
Nsg21
(i__main__
Node
p25
(dp26
g12
I2
sg13
S'*'
sg14
(i__main__
Node
p27
(dp28
g12
I3
sg13
S'indiv.randV()'
p29
sg14
Nsg20
g25
sg21
Nsbsg20
g10
sg21
(i__main__
Node
p30
(dp31
g12
I3
sg13
S'indiv.target()'
p32
sg14
Nsg20
g25
sg21
NsbsbsbsS'accel_x'
p33
F0
sS'accel_y'
p34
F0
sS'visionAngle'
p35
I130
sS'maxAccel'
p36
I2
sS'maxVel'
p37
F0.72999999999999998
sS'age'
p38
I0
sS'tailSize'
p39
I0
sS'sexualgeno'
p40
NsS'tailBrigh'
p41
I0
sS'maxSteering'
p42
I20
sS'energy'
p43
F0.5
sS'lastScale'
p44
F5.5
sb.(i__main__
Data_mobile
p1
(dp2
S'vel_y'
p3
I0
sS'vel_x'
p4
I0
sS'pos_x'
p5
I-9579
sS'pos_y'
p6
I9779
sS'isAlive'
p7
I00
sS'cumulativeEnergy'
p8
F0.5
sS'geno'
p9
(i__main__
Node
p10
(dp11
S'depth'
p12
I1
sS'vector'
p13
S'+'
sS'right'
p14
(i__main__
Node
p15
(dp16
g12
I2
sg13
S'*'
sg14
(i__main__
Node
p17
(dp18
g12
I3
sg13
S'indiv.randV()'
p19
sg14
NsS'parent'
p20
g15
sS'left'
p21
Nsbsg20
g10
sg21
(i__main__
Node
p22
(dp23
g12
I3
sg13
S'indiv.target()'
p24
sg14
Nsg20
g15
sg21
Nsbsbsg20
Nsg21
(i__main__
Node
p25
(dp26
g12
I2
sg13
S'+'
sg14
(i__main__
Node
p27
(dp28
g12
I3
sg13
g24
sg14
Nsg20
g25
sg21
Nsbsg20
g10
sg21
(i__main__
Node
p29
(dp30
g12
I3
sg13
g24
sg14
Nsg20
g25
sg21
NsbsbsbsS'accel_x'
p31
F0
sS'accel_y'
p32
F0
sS'visionAngle'
p33
I130
sS'maxAccel'
p34
I2
sS'maxVel'
p35
F0.72999999999999998
sS'age'
p36
I0
sS'tailSize'
p37
I0
sS'sexualgeno'
p38
NsS'tailBrigh'
p39
I0
sS'maxSteering'
p40
I20
sS'energy'
p41
F0.5
sS'lastScale'
p42
F5.5
sb.(i__main__
Data_mobile
p1
(dp2
S'vel_y'
p3
I0
sS'vel_x'
p4
I0
sS'pos_x'
p5
I-9579
sS'pos_y'
p6
I9779
sS'isAlive'
p7
I00
sS'cumulativeEnergy'
p8
F0.5
sS'geno'
p9
(i__main__
Node
p10
(dp11
S'depth'
p12
I1
sS'vector'
p13
S'+'
sS'right'
p14
(i__main__
Node
p15
(dp16
g13
S'-'
sg12
I2
sg14
(i__main__
Node
p17
(dp18
g13
S'*'
sg12
I3
sg14
(i__main__
Node
p19
(dp20
g13
S'indiv.currentVelocity()'
p21
sg12
I4
sg14
NsS'parent'
p22
g17
sS'left'
p23
Nsbsg22
g15
sg23
(i__main__
Node
p24
(dp25
g13
S'indiv.currentEnergy()'
p26
sg12
I4
sg14
Nsg22
g17
sg23
Nsbsbsg22
g10
sg23
(i__main__
Node
p27
(dp28
g13
S'*'
sg12
I3
sg14
(i__main__
Node
p29
(dp30
g13
S'indiv.cohesion()'
p31
sg12
I4
sg14
Nsg22
g27
sg23
Nsbsg22
g15
sg23
(i__main__
Node
p32
(dp33
g13
g26
sg12
I4
sg14
Nsg22
g27
sg23
Nsbsbsbsg22
Nsg23
(i__main__
Node
p34
(dp35
g12
I2
sg13
S'+'
sg14
(i__main__
Node
p36
(dp37
g12
I3
sg13
S'indiv.target()'
p38
sg14
Nsg22
g34
sg23
Nsbsg22
g10
sg23
(i__main__
Node
p39
(dp40
g12
I3
sg13
g38
sg14
Nsg22
g34
sg23
NsbsbsbsS'accel_x'
p41
F0
sS'accel_y'
p42
F0
sS'visionAngle'
p43
I130
sS'maxAccel'
p44
I2
sS'maxVel'
p45
F0.72999999999999998
sS'age'
p46
I0
sS'tailSize'
p47
I0
sS'sexualgeno'
p48
NsS'tailBrigh'
p49
I0
sS'maxSteering'
p50
I20
sS'energy'
p51
F0.5
sS'lastScale'
p52
F5.5
sb.(i__main__
Data_mobile
p1
(dp2
S'vel_y'
p3
I0
sS'vel_x'
p4
I0
sS'pos_x'
p5
I-9579
sS'pos_y'
p6
I9779
sS'isAlive'
p7
I00
sS'cumulativeEnergy'
p8
F0.5
sS'geno'
p9
(i__main__
Node
p10
(dp11
S'depth'
p12
I1
sS'vector'
p13
S'+'
sS'right'
p14
(i__main__
Node
p15
(dp16
g12
I2
sg13
S'-'
sg14
(i__main__
Node
p17
(dp18
g12
I3
sg13
S'indiv.currentVelocity()'
p19
sg14
NsS'parent'
p20
g15
sS'left'
p21
Nsbsg20
g10
sg21
(i__main__
Node
p22
(dp23
g12
I3
sg13
S'indiv.separation()'
p24
sg14
Nsg20
g15
sg21
Nsbsbsg20
Nsg21
(i__main__
Node
p25
(dp26
g12
I2
sg13
S'*'
sg14
(i__main__
Node
p27
(dp28
g12
I3
sg13
S'indiv.randV()'
p29
sg14
Nsg20
g25
sg21
Nsbsg20
g10
sg21
(i__main__
Node
p30
(dp31
g12
I3
sg13
S'indiv.target()'
p32
sg14
Nsg20
g25
sg21
NsbsbsbsS'accel_x'
p33
F0
sS'accel_y'
p34
F0
sS'visionAngle'
p35
I130
sS'maxAccel'
p36
I2
sS'maxVel'
p37
F0.72999999999999998
sS'age'
p38
I0
sS'tailSize'
p39
I0
sS'sexualgeno'
p40
NsS'tailBrigh'
p41
I0
sS'maxSteering'
p42
I20
sS'energy'
p43
F0.5
sS'lastScale'
p44
F5.5
sb.(i__main__
Data_mobile
p1
(dp2
S'vel_y'
p3
I0
sS'vel_x'
p4
I0
sS'pos_x'
p5
I-9579
sS'pos_y'
p6
I9779
sS'isAlive'
p7
I00
sS'cumulativeEnergy'
p8
F0.5
sS'geno'
p9
(i__main__
Node
p10
(dp11
S'depth'
p12
I1
sS'vector'
p13
S'+'
sS'right'
p14
(i__main__
Node
p15
(dp16
g12
I2
sg13
S'*'
sg14
(i__main__
Node
p17
(dp18
g12
I3
sg13
S'indiv.randV()'
p19
sg14
NsS'parent'
p20
g15
sS'left'
p21
Nsbsg20
g10
sg21
(i__main__
Node
p22
(dp23
g12
I3
sg13
S'indiv.target()'
p24
sg14
Nsg20
g15
sg21
Nsbsbsg20
Nsg21
(i__main__
Node
p25
(dp26
g12
I2
sg13
S'*'
sg14
(i__main__
Node
p27
(dp28
g12
I3
sg13
g19
sg14
Nsg20
g25
sg21
Nsbsg20
g10
sg21
(i__main__
Node
p29
(dp30
g12
I3
sg13
g24
sg14
Nsg20
g25
sg21
NsbsbsbsS'accel_x'
p31
F0
sS'accel_y'
p32
F0
sS'visionAngle'
p33
I130
sS'maxAccel'
p34
I2
sS'maxVel'
p35
F0.72999999999999998
sS'age'
p36
I0
sS'tailSize'
p37
I0
sS'sexualgeno'
p38
NsS'tailBrigh'
p39
I0
sS'maxSteering'
p40
I20
sS'energy'
p41
F0.5
sS'lastScale'
p42
F5.5
sb.(i__main__
Data_mobile
p1
(dp2
S'vel_y'
p3
I0
sS'vel_x'
p4
I0
sS'pos_x'
p5
I-9579
sS'pos_y'
p6
I9779
sS'isAlive'
p7
I00
sS'cumulativeEnergy'
p8
F0.5
sS'geno'
p9
(i__main__
Node
p10
(dp11
S'depth'
p12
I1
sS'vector'
p13
S'+'
sS'right'
p14
(i__main__
Node
p15
(dp16
g12
I2
sg13
S'-'
sg14
(i__main__
Node
p17
(dp18
g12
I3
sg13
S'indiv.currentVelocity()'
p19
sg14
NsS'parent'
p20
g15
sS'left'
p21
Nsbsg20
g10
sg21
(i__main__
Node
p22
(dp23
g12
I3
sg13
S'indiv.separation()'
p24
sg14
Nsg20
g15
sg21
Nsbsbsg20
Nsg21
(i__main__
Node
p25
(dp26
g12
I2
sg13
S'*'
sg14
(i__main__
Node
p27
(dp28
g12
I3
sg13
S'indiv.randV()'
p29
sg14
Nsg20
g25
sg21
Nsbsg20
g10
sg21
(i__main__
Node
p30
(dp31
g12
I3
sg13
S'indiv.target()'
p32
sg14
Nsg20
g25
sg21
NsbsbsbsS'accel_x'
p33
F0
sS'accel_y'
p34
F0
sS'visionAngle'
p35
I130
sS'maxAccel'
p36
I2
sS'maxVel'
p37
F0.72999999999999998
sS'age'
p38
I0
sS'tailSize'
p39
I0
sS'sexualgeno'
p40
NsS'tailBrigh'
p41
I0
sS'maxSteering'
p42
I20
sS'energy'
p43
F0.5
sS'lastScale'
p44
F5.5
sb.(i__main__
Data_mobile
p1
(dp2
S'vel_y'
p3
I0
sS'vel_x'
p4
I0
sS'pos_x'
p5
I-9579
sS'pos_y'
p6
I9779
sS'isAlive'
p7
I00
sS'cumulativeEnergy'
p8
F0.5
sS'geno'
p9
(i__main__
Node
p10
(dp11
S'depth'
p12
I1
sS'vector'
p13
S'+'
sS'right'
p14
(i__main__
Node
p15
(dp16
g12
I2
sg13
S'*'
sg14
(i__main__
Node
p17
(dp18
g12
I3
sg13
S'indiv.randV()'
p19
sg14
NsS'parent'
p20
g15
sS'left'
p21
Nsbsg20
g10
sg21
(i__main__
Node
p22
(dp23
g12
I3
sg13
S'indiv.target()'
p24
sg14
Nsg20
g15
sg21
Nsbsbsg20
Nsg21
(i__main__
Node
p25
(dp26
g12
I2
sg13
S'-'
sg14
(i__main__
Node
p27
(dp28
g12
I3
sg13
S'indiv.currentVelocity()'
p29
sg14
Nsg20
g25
sg21
Nsbsg20
g10
sg21
(i__main__
Node
p30
(dp31
g12
I3
sg13
S'indiv.separation()'
p32
sg14
Nsg20
g25
sg21
NsbsbsbsS'accel_x'
p33
F0
sS'accel_y'
p34
F0
sS'visionAngle'
p35
I130
sS'maxAccel'
p36
I2
sS'maxVel'
p37
F0.72999999999999998
sS'age'
p38
I0
sS'tailSize'
p39
I0
sS'sexualgeno'
p40
NsS'tailBrigh'
p41
I0
sS'maxSteering'
p42
I20
sS'energy'
p43
F0.5
sS'lastScale'
p44
F5.5
sb.(i__main__
Data_mobile
p1
(dp2
S'vel_y'
p3
I0
sS'vel_x'
p4
I0
sS'pos_x'
p5
I-9579
sS'pos_y'
p6
I9779
sS'isAlive'
p7
I00
sS'cumulativeEnergy'
p8
F0.5
sS'geno'
p9
(i__main__
Node
p10
(dp11
S'depth'
p12
I1
sS'vector'
p13
S'+'
sS'right'
p14
(i__main__
Node
p15
(dp16
g12
I2
sg13
S'*'
sg14
(i__main__
Node
p17
(dp18
g12
I3
sg13
S'indiv.randV()'
p19
sg14
NsS'parent'
p20
g15
sS'left'
p21
Nsbsg20
g10
sg21
(i__main__
Node
p22
(dp23
g12
I3
sg13
S'indiv.target()'
p24
sg14
Nsg20
g15
sg21
Nsbsbsg20
Nsg21
(i__main__
Node
p25
(dp26
g12
I2
sg13
S'*'
sg14
(i__main__
Node
p27
(dp28
g12
I3
sg13
g19
sg14
Nsg20
g25
sg21
Nsbsg20
g10
sg21
(i__main__
Node
p29
(dp30
g12
I3
sg13
g24
sg14
Nsg20
g25
sg21
NsbsbsbsS'accel_x'
p31
F0
sS'accel_y'
p32
F0
sS'visionAngle'
p33
I130
sS'maxAccel'
p34
I2
sS'maxVel'
p35
F0.72999999999999998
sS'age'
p36
I0
sS'tailSize'
p37
I0
sS'sexualgeno'
p38
NsS'tailBrigh'
p39
I0
sS'maxSteering'
p40
I20
sS'energy'
p41
F0.5
sS'lastScale'
p42
F5.5
sb.(i__main__
Data_mobile
p1
(dp2
S'vel_y'
p3
I0
sS'vel_x'
p4
I0
sS'pos_x'
p5
I-9579
sS'pos_y'
p6
I9779
sS'isAlive'
p7
I00
sS'cumulativeEnergy'
p8
F0.5
sS'geno'
p9
(i__main__
Node
p10
(dp11
S'depth'
p12
I1
sS'vector'
p13
S'+'
sS'right'
p14
(i__main__
Node
p15
(dp16
g12
I2
sg13
S'-'
sg14
(i__main__
Node
p17
(dp18
g12
I3
sg13
S'indiv.currentVelocity()'
p19
sg14
NsS'parent'
p20
g15
sS'left'
p21
Nsbsg20
g10
sg21
(i__main__
Node
p22
(dp23
g12
I3
sg13
S'indiv.separation()'
p24
sg14
Nsg20
g15
sg21
Nsbsbsg20
Nsg21
(i__main__
Node
p25
(dp26
g12
I2
sg13
S'*'
sg14
(i__main__
Node
p27
(dp28
g12
I3
sg13
S'indiv.randV()'
p29
sg14
Nsg20
g25
sg21
Nsbsg20
g10
sg21
(i__main__
Node
p30
(dp31
g12
I3
sg13
S'indiv.target()'
p32
sg14
Nsg20
g25
sg21
NsbsbsbsS'accel_x'
p33
F0
sS'accel_y'
p34
F0
sS'visionAngle'
p35
I130
sS'maxAccel'
p36
I2
sS'maxVel'
p37
F0.72999999999999998
sS'age'
p38
I0
sS'tailSize'
p39
I0
sS'sexualgeno'
p40
NsS'tailBrigh'
p41
I0
sS'maxSteering'
p42
I20
sS'energy'
p43
F0.5
sS'lastScale'
p44
F5.5
sb.(i__main__
Data_mobile
p1
(dp2
S'vel_y'
p3
I0
sS'vel_x'
p4
I0
sS'pos_x'
p5
I-9579
sS'pos_y'
p6
I9779
sS'isAlive'
p7
I00
sS'cumulativeEnergy'
p8
F0.5
sS'geno'
p9
(i__main__
Node
p10
(dp11
S'depth'
p12
I1
sS'vector'
p13
S'+'
sS'right'
p14
(i__main__
Node
p15
(dp16
g12
I2
sg13
S'*'
sg14
(i__main__
Node
p17
(dp18
g12
I3
sg13
S'indiv.randV()'
p19
sg14
NsS'parent'
p20
g15
sS'left'
p21
Nsbsg20
g10
sg21
(i__main__
Node
p22
(dp23
g12
I3
sg13
S'indiv.target()'
p24
sg14
Nsg20
g15
sg21
Nsbsbsg20
Nsg21
(i__main__
Node
p25
(dp26
g12
I2
sg13
S'*'
sg14
(i__main__
Node
p27
(dp28
g12
I3
sg13
g19
sg14
Nsg20
g25
sg21
Nsbsg20
g10
sg21
(i__main__
Node
p29
(dp30
g12
I3
sg13
g24
sg14
Nsg20
g25
sg21
NsbsbsbsS'accel_x'
p31
F0
sS'accel_y'
p32
F0
sS'visionAngle'
p33
I130
sS'maxAccel'
p34
I2
sS'maxVel'
p35
F0.72999999999999998
sS'age'
p36
I0
sS'tailSize'
p37
I0
sS'sexualgeno'
p38
NsS'tailBrigh'
p39
I0
sS'maxSteering'
p40
I20
sS'energy'
p41
F0.5
sS'lastScale'
p42
F5.5
sb.(i__main__
Data_mobile
p1
(dp2
S'vel_y'
p3
I0
sS'vel_x'
p4
I0
sS'pos_x'
p5
I-9579
sS'pos_y'
p6
I9779
sS'isAlive'
p7
I00
sS'cumulativeEnergy'
p8
F0.5
sS'geno'
p9
(i__main__
Node
p10
(dp11
S'depth'
p12
I1
sS'vector'
p13
S'+'
sS'right'
p14
(i__main__
Node
p15
(dp16
g12
I2
sg13
S'-'
sg14
(i__main__
Node
p17
(dp18
g12
I3
sg13
S'indiv.currentVelocity()'
p19
sg14
NsS'parent'
p20
g15
sS'left'
p21
Nsbsg20
g10
sg21
(i__main__
Node
p22
(dp23
g12
I3
sg13
S'indiv.separation()'
p24
sg14
Nsg20
g15
sg21
Nsbsbsg20
Nsg21
(i__main__
Node
p25
(dp26
g12
I2
sg13
S'*'
sg14
(i__main__
Node
p27
(dp28
g12
I3
sg13
S'indiv.randV()'
p29
sg14
Nsg20
g25
sg21
Nsbsg20
g10
sg21
(i__main__
Node
p30
(dp31
g12
I3
sg13
S'indiv.target()'
p32
sg14
Nsg20
g25
sg21
NsbsbsbsS'accel_x'
p33
F0
sS'accel_y'
p34
F0
sS'visionAngle'
p35
I130
sS'maxAccel'
p36
I2
sS'maxVel'
p37
F0.72999999999999998
sS'age'
p38
I0
sS'tailSize'
p39
I0
sS'sexualgeno'
p40
NsS'tailBrigh'
p41
I0
sS'maxSteering'
p42
I20
sS'energy'
p43
F0.5
sS'lastScale'
p44
F5.5
sb.(i__main__
Data_mobile
p1
(dp2
S'vel_y'
p3
I0
sS'vel_x'
p4
I0
sS'pos_x'
p5
I-9579
sS'pos_y'
p6
I9779
sS'isAlive'
p7
I00
sS'cumulativeEnergy'
p8
F0.5
sS'geno'
p9
(i__main__
Node
p10
(dp11
S'depth'
p12
I1
sS'vector'
p13
S'+'
sS'right'
p14
(i__main__
Node
p15
(dp16
g12
I2
sg13
S'-'
sg14
(i__main__
Node
p17
(dp18
g12
I3
sg13
S'indiv.currentVelocity()'
p19
sg14
NsS'parent'
p20
g15
sS'left'
p21
Nsbsg20
g10
sg21
(i__main__
Node
p22
(dp23
g12
I3
sg13
S'indiv.separation()'
p24
sg14
Nsg20
g15
sg21
Nsbsbsg20
Nsg21
(i__main__
Node
p25
(dp26
g12
I2
sg13
S'*'
sg14
(i__main__
Node
p27
(dp28
g12
I3
sg13
S'indiv.randV()'
p29
sg14
Nsg20
g25
sg21
Nsbsg20
g10
sg21
(i__main__
Node
p30
(dp31
g12
I3
sg13
S'indiv.target()'
p32
sg14
Nsg20
g25
sg21
NsbsbsbsS'accel_x'
p33
F0
sS'accel_y'
p34
F0
sS'visionAngle'
p35
I130
sS'maxAccel'
p36
I2
sS'maxVel'
p37
F0.72999999999999998
sS'age'
p38
I0
sS'tailSize'
p39
I0
sS'sexualgeno'
p40
NsS'tailBrigh'
p41
I0
sS'maxSteering'
p42
I20
sS'energy'
p43
F0.5
sS'lastScale'
p44
F5.5
sb.(i__main__
Data_mobile
p1
(dp2
S'vel_y'
p3
I0
sS'vel_x'
p4
I0
sS'pos_x'
p5
I-9579
sS'pos_y'
p6
I9779
sS'isAlive'
p7
I00
sS'cumulativeEnergy'
p8
F0.5
sS'geno'
p9
(i__main__
Node
p10
(dp11
S'depth'
p12
I1
sS'vector'
p13
S'+'
sS'right'
p14
(i__main__
Node
p15
(dp16
g12
I2
sg13
S'*'
sg14
(i__main__
Node
p17
(dp18
g12
I3
sg13
S'indiv.randV()'
p19
sg14
NsS'parent'
p20
g15
sS'left'
p21
Nsbsg20
g10
sg21
(i__main__
Node
p22
(dp23
g12
I3
sg13
S'indiv.target()'
p24
sg14
Nsg20
g15
sg21
Nsbsbsg20
Nsg21
(i__main__
Node
p25
(dp26
g12
I2
sg13
S'*'
sg14
(i__main__
Node
p27
(dp28
g12
I3
sg13
g19
sg14
Nsg20
g25
sg21
Nsbsg20
g10
sg21
(i__main__
Node
p29
(dp30
g12
I3
sg13
g24
sg14
Nsg20
g25
sg21
NsbsbsbsS'accel_x'
p31
F0
sS'accel_y'
p32
F0
sS'visionAngle'
p33
I130
sS'maxAccel'
p34
I2
sS'maxVel'
p35
F0.72999999999999998
sS'age'
p36
I0
sS'tailSize'
p37
I0
sS'sexualgeno'
p38
NsS'tailBrigh'
p39
I0
sS'maxSteering'
p40
I20
sS'energy'
p41
F0.5
sS'lastScale'
p42
F5.5
sb.(i__main__
Data_mobile
p1
(dp2
S'vel_y'
p3
I0
sS'vel_x'
p4
I0
sS'pos_x'
p5
I-9579
sS'pos_y'
p6
I9779
sS'isAlive'
p7
I00
sS'cumulativeEnergy'
p8
F0.5
sS'geno'
p9
(i__main__
Node
p10
(dp11
S'depth'
p12
I1
sS'vector'
p13
S'+'
sS'right'
p14
(i__main__
Node
p15
(dp16
g12
I2
sg13
S'*'
sg14
(i__main__
Node
p17
(dp18
g12
I3
sg13
S'indiv.randV()'
p19
sg14
NsS'parent'
p20
g15
sS'left'
p21
Nsbsg20
g10
sg21
(i__main__
Node
p22
(dp23
g12
I3
sg13
S'indiv.target()'
p24
sg14
Nsg20
g15
sg21
Nsbsbsg20
Nsg21
(i__main__
Node
p25
(dp26
g12
I2
sg13
S'*'
sg14
(i__main__
Node
p27
(dp28
g12
I3
sg13
g19
sg14
Nsg20
g25
sg21
Nsbsg20
g10
sg21
(i__main__
Node
p29
(dp30
g12
I3
sg13
g24
sg14
Nsg20
g25
sg21
NsbsbsbsS'accel_x'
p31
F0
sS'accel_y'
p32
F0
sS'visionAngle'
p33
I130
sS'maxAccel'
p34
I2
sS'maxVel'
p35
F0.72999999999999998
sS'age'
p36
I0
sS'tailSize'
p37
I0
sS'sexualgeno'
p38
NsS'tailBrigh'
p39
I0
sS'maxSteering'
p40
I20
sS'energy'
p41
F0.5
sS'lastScale'
p42
F5.5
sb.(i__main__
Data_mobile
p1
(dp2
S'vel_y'
p3
I0
sS'vel_x'
p4
I0
sS'pos_x'
p5
I-9579
sS'pos_y'
p6
I9779
sS'isAlive'
p7
I00
sS'cumulativeEnergy'
p8
F0.5
sS'geno'
p9
(i__main__
Node
p10
(dp11
S'depth'
p12
I1
sS'vector'
p13
S'+'
sS'right'
p14
(i__main__
Node
p15
(dp16
g12
I2
sg13
S'*'
sg14
(i__main__
Node
p17
(dp18
g12
I3
sg13
S'indiv.randV()'
p19
sg14
NsS'parent'
p20
g15
sS'left'
p21
Nsbsg20
g10
sg21
(i__main__
Node
p22
(dp23
g12
I3
sg13
S'indiv.target()'
p24
sg14
Nsg20
g15
sg21
Nsbsbsg20
Nsg21
(i__main__
Node
p25
(dp26
g12
I2
sg13
S'*'
sg14
(i__main__
Node
p27
(dp28
g12
I3
sg13
g19
sg14
Nsg20
g25
sg21
Nsbsg20
g10
sg21
(i__main__
Node
p29
(dp30
g12
I3
sg13
g24
sg14
Nsg20
g25
sg21
NsbsbsbsS'accel_x'
p31
F0
sS'accel_y'
p32
F0
sS'visionAngle'
p33
I130
sS'maxAccel'
p34
I2
sS'maxVel'
p35
F0.72999999999999998
sS'age'
p36
I0
sS'tailSize'
p37
I0
sS'sexualgeno'
p38
NsS'tailBrigh'
p39
I0
sS'maxSteering'
p40
I20
sS'energy'
p41
F0.5
sS'lastScale'
p42
F5.5
sb.