(i__main__
Data_mobile
p1
(dp2
S'vel_y'
p3
F-0.74357925243850598
sS'vel_x'
p4
F0.29510997160887825
sS'pos_x'
p5
F-35.302774698885827
sS'pos_y'
p6
F80.45102020538485
sS'isAlive'
p7
I01
sS'geno'
p8
(i__main__
Node
p9
(dp10
S'node'
p11
(lp12
S'+'
aS'-'
aS'*'
aS'/'
asS'right'
p13
(i__main__
Node
p14
(dp15
g11
(lp16
S'+'
aS'-'
aS'*'
aS'/'
asg13
NsS'leaf'
p17
(lp18
S'indiv.alignment()'
p19
aS'indiv.cohesion()'
p20
aS'indiv.separation()'
p21
aS'indiv.target()'
p22
aS'indiv.currentVelocity()'
p23
aS'indiv.mostEnergizedNeighbor()'
p24
aS'indiv.randV()'
p25
asS'parent'
p26
g9
sS'data'
p27
g24
sS'left'
p28
Nsbsg17
(lp29
g19
ag20
ag21
ag22
ag23
ag24
ag25
asg26
Nsg27
S'+'
sg28
(i__main__
Node
p30
(dp31
g11
(lp32
S'+'
aS'-'
aS'*'
aS'/'
asg13
(i__main__
Node
p33
(dp34
g11
(lp35
S'+'
aS'-'
aS'*'
aS'/'
asg13
Nsg17
(lp36
g19
ag20
ag21
ag22
ag23
ag24
ag25
asg26
g30
sg27
g24
sg28
Nsbsg17
(lp37
g19
ag20
ag21
ag22
ag23
ag24
ag25
asg26
g9
sg27
S'-'
sg28
(i__main__
Node
p38
(dp39
g11
(lp40
S'+'
aS'-'
aS'*'
aS'/'
asg13
Nsg17
(lp41
g19
ag20
ag21
ag22
ag23
ag24
ag25
asg26
g30
sg27
g22
sg28
NsbsbsbsS'accel_x'
p42
F-1.3136499993590007
sS'accel_y'
p43
F-1.1925740451535205
sS'maxAccel'
p44
I2
sS'maxVel'
p45
F0.80000000000000004
sS'age'
p46
I200
sS'gener'
p47
S'm'
sS'lastScale'
p48
F15.30002611903191
sS'energy'
p49
F0.98000261190319093
sb.(i__main__
Data_mobile
p1
(dp2
S'vel_y'
p3
F-0.53604485768420174
sS'vel_x'
p4
F-0.59384839020605573
sS'pos_x'
p5
F-187.27838141838123
sS'pos_y'
p6
F23.877931251316838
sS'isAlive'
p7
I01
sS'geno'
p8
(i__main__
Node
p9
(dp10
S'node'
p11
(lp12
S'+'
aS'-'
aS'*'
aS'/'
asS'right'
p13
(i__main__
Node
p14
(dp15
g11
(lp16
S'+'
aS'-'
aS'*'
aS'/'
asg13
NsS'leaf'
p17
(lp18
S'indiv.alignment()'
p19
aS'indiv.cohesion()'
p20
aS'indiv.separation()'
p21
aS'indiv.target()'
p22
aS'indiv.currentVelocity()'
p23
aS'indiv.mostEnergizedNeighbor()'
p24
aS'indiv.randV()'
p25
asS'parent'
p26
g9
sS'data'
p27
g24
sS'left'
p28
Nsbsg17
(lp29
g19
ag20
ag21
ag22
ag23
ag24
ag25
asg26
Nsg27
S'+'
sg28
(i__main__
Node
p30
(dp31
g11
(lp32
S'+'
aS'-'
aS'*'
aS'/'
asg13
(i__main__
Node
p33
(dp34
g11
(lp35
S'+'
aS'-'
aS'*'
aS'/'
asg13
Nsg17
(lp36
g19
ag20
ag21
ag22
ag23
ag24
ag25
asg26
g30
sg27
g24
sg28
Nsbsg17
(lp37
g19
ag20
ag21
ag22
ag23
ag24
ag25
asg26
g9
sg27
S'-'
sg28
(i__main__
Node
p38
(dp39
g11
(lp40
S'+'
aS'-'
aS'*'
aS'/'
asg13
Nsg17
(lp41
g19
ag20
ag21
ag22
ag23
ag24
ag25
asg26
g30
sg27
g22
sg28
NsbsbsbsS'accel_x'
p42
F-1.4400157963094282
sS'accel_y'
p43
F-1.3879317369306474
sS'maxAccel'
p44
I2
sS'maxVel'
p45
F0.80000000000000004
sS'age'
p46
I200
sS'gener'
p47
S'm'
sS'lastScale'
p48
F12.901741423811696
sS'energy'
p49
F0.74017414238116952
sb.(i__main__
Data_mobile
p1
(dp2
S'vel_y'
p3
F-0.62380346929137076
sS'vel_x'
p4
F-0.45009182954540639
sS'pos_x'
p5
F-107.91731539643177
sS'pos_y'
p6
F0.30261404635940148
sS'isAlive'
p7
I01
sS'geno'
p8
(i__main__
Node
p9
(dp10
S'node'
p11
(lp12
S'+'
aS'-'
aS'*'
aS'/'
asS'right'
p13
(i__main__
Node
p14
(dp15
g11
(lp16
S'+'
aS'-'
aS'*'
aS'/'
asg13
NsS'leaf'
p17
(lp18
S'indiv.alignment()'
p19
aS'indiv.cohesion()'
p20
aS'indiv.separation()'
p21
aS'indiv.target()'
p22
aS'indiv.currentVelocity()'
p23
aS'indiv.mostEnergizedNeighbor()'
p24
aS'indiv.randV()'
p25
asS'parent'
p26
g9
sS'data'
p27
g24
sS'left'
p28
Nsbsg17
(lp29
g19
ag20
ag21
ag22
ag23
ag24
ag25
asg26
Nsg27
S'+'
sg28
(i__main__
Node
p30
(dp31
g11
(lp32
S'+'
aS'-'
aS'*'
aS'/'
asg13
(i__main__
Node
p33
(dp34
g11
(lp35
S'+'
aS'-'
aS'*'
aS'/'
asg13
Nsg17
(lp36
g19
ag20
ag21
ag22
ag23
ag24
ag25
asg26
g30
sg27
g24
sg28
Nsbsg17
(lp37
g19
ag20
ag21
ag22
ag23
ag24
ag25
asg26
g9
sg27
S'-'
sg28
(i__main__
Node
p38
(dp39
g11
(lp40
S'+'
aS'-'
aS'*'
aS'/'
asg13
Nsg17
(lp41
g19
ag20
ag21
ag22
ag23
ag24
ag25
asg26
g30
sg27
g22
sg28
NsbsbsbsS'accel_x'
p42
F0.62115209873348931
sS'accel_y'
p43
F-0.21967486323053786
sS'maxAccel'
p44
I2
sS'maxVel'
p45
F0.80000000000000004
sS'age'
p46
I100
sS'gener'
p47
S'm'
sS'lastScale'
p48
F15.352082128537274
sS'energy'
p49
F0.98520821285372739
sb.(i__main__
Data_mobile
p1
(dp2
S'vel_y'
p3
F-0.62346142342385558
sS'vel_x'
p4
F-0.45641139772698502
sS'pos_x'
p5
F-107.91211741042562
sS'pos_y'
p6
F0.30038897167174122
sS'isAlive'
p7
I01
sS'geno'
p8
(i__main__
Node
p9
(dp10
S'node'
p11
(lp12
S'+'
aS'-'
aS'*'
aS'/'
asS'right'
p13
(i__main__
Node
p14
(dp15
g11
(lp16
S'+'
aS'-'
aS'*'
aS'/'
asg13
NsS'leaf'
p17
(lp18
S'indiv.alignment()'
p19
aS'indiv.cohesion()'
p20
aS'indiv.separation()'
p21
aS'indiv.target()'
p22
aS'indiv.currentVelocity()'
p23
aS'indiv.mostEnergizedNeighbor()'
p24
aS'indiv.randV()'
p25
asS'parent'
p26
g9
sS'data'
p27
g24
sS'left'
p28
Nsbsg17
(lp29
g19
ag20
ag21
ag22
ag23
ag24
ag25
asg26
Nsg27
S'+'
sg28
(i__main__
Node
p30
(dp31
g11
(lp32
S'+'
aS'-'
aS'*'
aS'/'
asg13
(i__main__
Node
p33
(dp34
g11
(lp35
S'+'
aS'-'
aS'*'
aS'/'
asg13
Nsg17
(lp36
g19
ag20
ag21
ag22
ag23
ag24
ag25
asg26
g30
sg27
g24
sg28
Nsbsg17
(lp37
g19
ag20
ag21
ag22
ag23
ag24
ag25
asg26
g9
sg27
S'-'
sg28
(i__main__
Node
p38
(dp39
g11
(lp40
S'+'
aS'-'
aS'*'
aS'/'
asg13
Nsg17
(lp41
g19
ag20
ag21
ag22
ag23
ag24
ag25
asg26
g30
sg27
g22
sg28
NsbsbsbsS'accel_x'
p42
F0.61595411272733713
sS'accel_y'
p43
F-0.21744978854287761
sS'maxAccel'
p44
I2
sS'maxVel'
p45
F0.80000000000000004
sS'age'
p46
I100
sS'gener'
p47
S'm'
sS'lastScale'
p48
F15.352082128537274
sS'energy'
p49
F0.98520821285372739
sb.(i__main__
Data_mobile
p1
(dp2
S'vel_y'
p3
F0.33050283925059065
sS'vel_x'
p4
F-0.7285381755593171
sS'pos_x'
p5
F-45.470487834782659
sS'pos_y'
p6
F55.909484820077864
sS'isAlive'
p7
I01
sS'geno'
p8
(i__main__
Node
p9
(dp10
S'node'
p11
(lp12
S'+'
aS'-'
aS'*'
aS'/'
asS'right'
p13
(i__main__
Node
p14
(dp15
g11
(lp16
S'+'
aS'-'
aS'*'
aS'/'
asg13
NsS'leaf'
p17
(lp18
S'indiv.alignment()'
p19
aS'indiv.cohesion()'
p20
aS'indiv.separation()'
p21
aS'indiv.target()'
p22
aS'indiv.currentVelocity()'
p23
aS'indiv.mostEnergizedNeighbor()'
p24
aS'indiv.randV()'
p25
asS'parent'
p26
g9
sS'data'
p27
g24
sS'left'
p28
Nsbsg17
(lp29
g19
ag20
ag21
ag22
ag23
ag24
ag25
asg26
Nsg27
S'+'
sg28
(i__main__
Node
p30
(dp31
g11
(lp32
S'+'
aS'-'
aS'*'
aS'/'
asg13
(i__main__
Node
p33
(dp34
g11
(lp35
S'+'
aS'-'
aS'*'
aS'/'
asg13
Nsg17
(lp36
g19
ag20
ag21
ag22
ag23
ag24
ag25
asg26
g30
sg27
g24
sg28
Nsbsg17
(lp37
g19
ag20
ag21
ag22
ag23
ag24
ag25
asg26
g9
sg27
S'-'
sg28
(i__main__
Node
p38
(dp39
g11
(lp40
S'+'
aS'-'
aS'*'
aS'/'
asg13
Nsg17
(lp41
g19
ag20
ag21
ag22
ag23
ag24
ag25
asg26
g30
sg27
g22
sg28
NsbsbsbsS'accel_x'
p42
F0.5897858664490343
sS'accel_y'
p43
F1.4630458706446348
sS'maxAccel'
p44
I2
sS'maxVel'
p45
F0.80000000000000004
sS'age'
p46
I100
sS'gener'
p47
S'm'
sS'lastScale'
p48
F15.352082128537274
sS'energy'
p49
F0.98520821285372739
sb.(i__main__
Data_mobile
p1
(dp2
S'vel_y'
p3
F0.581000916843605
sS'vel_x'
p4
F-0.54994357403909233
sS'pos_x'
p5
F-70.423710486806883
sS'pos_y'
p6
F61.634666751192981
sS'isAlive'
p7
I01
sS'geno'
p8
(i__main__
Node
p9
(dp10
S'node'
p11
(lp12
S'+'
aS'-'
aS'*'
aS'/'
asS'right'
p13
(i__main__
Node
p14
(dp15
g11
(lp16
S'+'
aS'-'
aS'*'
aS'/'
asg13
NsS'leaf'
p17
(lp18
S'indiv.alignment()'
p19
aS'indiv.cohesion()'
p20
aS'indiv.separation()'
p21
aS'indiv.target()'
p22
aS'indiv.currentVelocity()'
p23
aS'indiv.mostEnergizedNeighbor()'
p24
aS'indiv.randV()'
p25
asS'parent'
p26
g9
sS'data'
p27
g24
sS'left'
p28
Nsbsg17
(lp29
g19
ag20
ag21
ag22
ag23
ag24
ag25
asg26
Nsg27
S'+'
sg28
(i__main__
Node
p30
(dp31
g11
(lp32
S'+'
aS'-'
aS'*'
aS'/'
asg13
(i__main__
Node
p33
(dp34
g11
(lp35
S'+'
aS'-'
aS'*'
aS'/'
asg13
Nsg17
(lp36
g19
ag20
ag21
ag22
ag23
ag24
ag25
asg26
g30
sg27
g24
sg28
Nsbsg17
(lp37
g19
ag20
ag21
ag22
ag23
ag24
ag25
asg26
g9
sg27
S'-'
sg28
(i__main__
Node
p38
(dp39
g11
(lp40
S'+'
aS'-'
aS'*'
aS'/'
asg13
Nsg17
(lp41
g19
ag20
ag21
ag22
ag23
ag24
ag25
asg26
g30
sg27
g22
sg28
NsbsbsbsS'accel_x'
p42
F-0.97213933922141393
sS'accel_y'
p43
F0.84893894302216921
sS'maxAccel'
p44
I2
sS'maxVel'
p45
F0.80000000000000004
sS'age'
p46
I100
sS'gener'
p47
S'm'
sS'lastScale'
p48
F15.352082128537274
sS'energy'
p49
F0.98520821285372739
sb.(i__main__
Data_mobile
p1
(dp2
S'vel_y'
p3
F0.79650444377346596
sS'vel_x'
p4
F0.074703889116442435
sS'pos_x'
p5
F28.641270891172898
sS'pos_y'
p6
F12.953808555146518
sS'isAlive'
p7
I01
sS'geno'
p8
(i__main__
Node
p9
(dp10
S'node'
p11
(lp12
S'+'
aS'-'
aS'*'
aS'/'
asS'right'
p13
(i__main__
Node
p14
(dp15
g11
(lp16
S'+'
aS'-'
aS'*'
aS'/'
asg13
NsS'leaf'
p17
(lp18
S'indiv.alignment()'
p19
aS'indiv.cohesion()'
p20
aS'indiv.separation()'
p21
aS'indiv.target()'
p22
aS'indiv.currentVelocity()'
p23
aS'indiv.mostEnergizedNeighbor()'
p24
aS'indiv.randV()'
p25
asS'parent'
p26
g9
sS'data'
p27
g24
sS'left'
p28
Nsbsg17
(lp29
g19
ag20
ag21
ag22
ag23
ag24
ag25
asg26
Nsg27
S'+'
sg28
(i__main__
Node
p30
(dp31
g11
(lp32
S'+'
aS'-'
aS'*'
aS'/'
asg13
(i__main__
Node
p33
(dp34
g11
(lp35
S'+'
aS'-'
aS'*'
aS'/'
asg13
(i__main__
Node
p36
(dp37
g11
(lp38
S'+'
aS'-'
aS'*'
aS'/'
asg13
Nsg17
(lp39
g19
ag20
ag21
ag22
ag23
ag24
ag25
asg26
g33
sg27
g19
sg28
Nsbsg17
(lp40
g19
ag20
ag21
ag22
ag23
ag24
ag25
asg26
g30
sg27
S'*'
sg28
(i__main__
Node
p41
(dp42
g11
(lp43
S'+'
aS'-'
aS'*'
aS'/'
asg13
Nsg17
(lp44
g19
ag20
ag21
ag22
ag23
ag24
ag25
asg26
g33
sg27
g23
sg28
Nsbsbsg17
(lp45
g19
ag20
ag21
ag22
ag23
ag24
ag25
asg26
g9
sg27
S'+'
sg28
(i__main__
Node
p46
(dp47
g11
(lp48
S'+'
aS'-'
aS'*'
aS'/'
asg13
(i__main__
Node
p49
(dp50
g11
(lp51
S'+'
aS'-'
aS'*'
aS'/'
asg13
Nsg17
(lp52
g19
ag20
ag21
ag22
ag23
ag24
ag25
asg26
g46
sg27
g24
sg28
Nsbsg17
(lp53
g19
ag20
ag21
ag22
ag23
ag24
ag25
asg26
g30
sg27
S'-'
sg28
(i__main__
Node
p54
(dp55
g11
(lp56
S'+'
aS'-'
aS'*'
aS'/'
asg13
Nsg17
(lp57
g19
ag20
ag21
ag22
ag23
ag24
ag25
asg26
g46
sg27
g22
sg28
NsbsbsbsbsS'accel_x'
p58
F0.0061952685999902557
sS'accel_y'
p59
F0.42645787997993545
sS'maxAccel'
p60
I2
sS'maxVel'
p61
F0.80000000000000004
sS'age'
p62
I150
sS'gener'
p63
S'm'
sS'lastScale'
p64
F10.08168510933999
sS'energy'
p65
F0.45816851093399907
sb.(i__main__
Data_mobile
p1
(dp2
S'vel_y'
p3
F0.73677192221939836
sS'vel_x'
p4
F-0.31171643304313124
sS'pos_x'
p5
F-147.96395231951337
sS'pos_y'
p6
F-31.209044053114365
sS'isAlive'
p7
I01
sS'geno'
p8
(i__main__
Node
p9
(dp10
S'node'
p11
(lp12
S'+'
aS'-'
aS'*'
aS'/'
asS'right'
p13
(i__main__
Node
p14
(dp15
g11
(lp16
S'+'
aS'-'
aS'*'
aS'/'
asg13
NsS'leaf'
p17
(lp18
S'indiv.alignment()'
p19
aS'indiv.cohesion()'
p20
aS'indiv.separation()'
p21
aS'indiv.target()'
p22
aS'indiv.currentVelocity()'
p23
aS'indiv.mostEnergizedNeighbor()'
p24
aS'indiv.randV()'
p25
asS'parent'
p26
g9
sS'data'
p27
g24
sS'left'
p28
Nsbsg17
(lp29
g19
ag20
ag21
ag22
ag23
ag24
ag25
asg26
Nsg27
S'+'
sg28
(i__main__
Node
p30
(dp31
g11
(lp32
S'+'
aS'-'
aS'*'
aS'/'
asg13
(i__main__
Node
p33
(dp34
g11
(lp35
S'+'
aS'-'
aS'*'
aS'/'
asg13
Nsg17
(lp36
g19
ag20
ag21
ag22
ag23
ag24
ag25
asg26
g30
sg27
g24
sg28
Nsbsg17
(lp37
g19
ag20
ag21
ag22
ag23
ag24
ag25
asg26
g9
sg27
S'-'
sg28
(i__main__
Node
p38
(dp39
g11
(lp40
S'+'
aS'-'
aS'*'
aS'/'
asg13
Nsg17
(lp41
g19
ag20
ag21
ag22
ag23
ag24
ag25
asg26
g30
sg27
g22
sg28
NsbsbsbsS'accel_x'
p42
F0.30360089082896025
sS'accel_y'
p43
F0.96044408086418187
sS'maxAccel'
p44
I2
sS'maxVel'
p45
F0.80000000000000004
sS'age'
p46
I100
sS'gener'
p47
S'm'
sS'lastScale'
p48
F12.693326322115565
sS'energy'
p49
F0.71933263221155641
sb.(i__main__
Data_mobile
p1
(dp2
S'vel_y'
p3
F-0.25196698492756237
sS'vel_x'
p4
F-0.75928429359925109
sS'pos_x'
p5
F27.515443622972001
sS'pos_y'
p6
F11.483040683658986
sS'isAlive'
p7
I01
sS'geno'
p8
(i__main__
Node
p9
(dp10
S'node'
p11
(lp12
S'+'
aS'-'
aS'*'
aS'/'
asS'right'
p13
(i__main__
Node
p14
(dp15
g11
(lp16
S'+'
aS'-'
aS'*'
aS'/'
asg13
NsS'leaf'
p17
(lp18
S'indiv.alignment()'
p19
aS'indiv.cohesion()'
p20
aS'indiv.separation()'
p21
aS'indiv.target()'
p22
aS'indiv.currentVelocity()'
p23
aS'indiv.mostEnergizedNeighbor()'
p24
aS'indiv.randV()'
p25
asS'parent'
p26
g9
sS'data'
p27
g24
sS'left'
p28
Nsbsg17
(lp29
g19
ag20
ag21
ag22
ag23
ag24
ag25
asg26
Nsg27
S'+'
sg28
(i__main__
Node
p30
(dp31
g11
(lp32
S'+'
aS'-'
aS'*'
aS'/'
asg13
(i__main__
Node
p33
(dp34
g11
(lp35
S'+'
aS'-'
aS'*'
aS'/'
asg13
Nsg17
(lp36
g19
ag20
ag21
ag22
ag23
ag24
ag25
asg26
g30
sg27
g24
sg28
Nsbsg17
(lp37
g19
ag20
ag21
ag22
ag23
ag24
ag25
asg26
g9
sg27
S'-'
sg28
(i__main__
Node
p38
(dp39
g11
(lp40
S'+'
aS'-'
aS'*'
aS'/'
asg13
Nsg17
(lp41
g19
ag20
ag21
ag22
ag23
ag24
ag25
asg26
g30
sg27
g22
sg28
NsbsbsbsS'accel_x'
p42
F-0.41942592162585512
sS'accel_y'
p43
F-1.5610904441862576
sS'maxAccel'
p44
I2
sS'maxVel'
p45
F0.80000000000000004
sS'age'
p46
I100
sS'gener'
p47
S'm'
sS'lastScale'
p48
F11.693326322115563
sS'energy'
p49
F0.61933263221155643
sb.(i__main__
Data_mobile
p1
(dp2
S'vel_y'
p3
F0.43089536017321617
sS'vel_x'
p4
F-0.67403945624955386
sS'pos_x'
p5
F-169.96835519060724
sS'pos_y'
p6
F-69.831201564615938
sS'isAlive'
p7
I01
sS'geno'
p8
(i__main__
Node
p9
(dp10
S'node'
p11
(lp12
S'+'
aS'-'
aS'*'
aS'/'
asS'right'
p13
(i__main__
Node
p14
(dp15
g11
(lp16
S'+'
aS'-'
aS'*'
aS'/'
asg13
NsS'leaf'
p17
(lp18
S'indiv.alignment()'
p19
aS'indiv.cohesion()'
p20
aS'indiv.separation()'
p21
aS'indiv.target()'
p22
aS'indiv.currentVelocity()'
p23
aS'indiv.mostEnergizedNeighbor()'
p24
aS'indiv.randV()'
p25
asS'parent'
p26
g9
sS'data'
p27
g24
sS'left'
p28
Nsbsg17
(lp29
g19
ag20
ag21
ag22
ag23
ag24
ag25
asg26
Nsg27
S'+'
sg28
(i__main__
Node
p30
(dp31
g11
(lp32
S'+'
aS'-'
aS'*'
aS'/'
asg13
(i__main__
Node
p33
(dp34
g11
(lp35
S'+'
aS'-'
aS'*'
aS'/'
asg13
Nsg17
(lp36
g19
ag20
ag21
ag22
ag23
ag24
ag25
asg26
g30
sg27
g24
sg28
Nsbsg17
(lp37
g19
ag20
ag21
ag22
ag23
ag24
ag25
asg26
g9
sg27
S'-'
sg28
(i__main__
Node
p38
(dp39
g11
(lp40
S'+'
aS'-'
aS'*'
aS'/'
asg13
Nsg17
(lp41
g19
ag20
ag21
ag22
ag23
ag24
ag25
asg26
g30
sg27
g22
sg28
NsbsbsbsS'accel_x'
p42
F-1.4103726622687378
sS'accel_y'
p43
F1.4180440590916041
sS'maxAccel'
p44
I2
sS'maxVel'
p45
F0.80000000000000004
sS'age'
p46
I200
sS'gener'
p47
S'm'
sS'lastScale'
p48
F7.6461257851185138
sS'energy'
p49
F0.21461257851185137
sb.(i__main__
Data_mobile
p1
(dp2
S'vel_y'
p3
F0.43089536017321617
sS'vel_x'
p4
F-0.67403945624955386
sS'pos_x'
p5
F-169.96835519060724
sS'pos_y'
p6
F-69.831201564615938
sS'isAlive'
p7
I01
sS'geno'
p8
(i__main__
Node
p9
(dp10
S'node'
p11
(lp12
S'+'
aS'-'
aS'*'
aS'/'
asS'right'
p13
(i__main__
Node
p14
(dp15
g11
(lp16
S'+'
aS'-'
aS'*'
aS'/'
asg13
NsS'leaf'
p17
(lp18
S'indiv.alignment()'
p19
aS'indiv.cohesion()'
p20
aS'indiv.separation()'
p21
aS'indiv.target()'
p22
aS'indiv.currentVelocity()'
p23
aS'indiv.mostEnergizedNeighbor()'
p24
aS'indiv.randV()'
p25
asS'parent'
p26
g9
sS'data'
p27
g24
sS'left'
p28
Nsbsg17
(lp29
g19
ag20
ag21
ag22
ag23
ag24
ag25
asg26
Nsg27
S'+'
sg28
(i__main__
Node
p30
(dp31
g11
(lp32
S'+'
aS'-'
aS'*'
aS'/'
asg13
(i__main__
Node
p33
(dp34
g11
(lp35
S'+'
aS'-'
aS'*'
aS'/'
asg13
Nsg17
(lp36
g19
ag20
ag21
ag22
ag23
ag24
ag25
asg26
g30
sg27
g24
sg28
Nsbsg17
(lp37
g19
ag20
ag21
ag22
ag23
ag24
ag25
asg26
g9
sg27
S'-'
sg28
(i__main__
Node
p38
(dp39
g11
(lp40
S'+'
aS'-'
aS'*'
aS'/'
asg13
Nsg17
(lp41
g19
ag20
ag21
ag22
ag23
ag24
ag25
asg26
g30
sg27
g22
sg28
NsbsbsbsS'accel_x'
p42
F-1.4103726622687378
sS'accel_y'
p43
F1.4180440590916041
sS'maxAccel'
p44
I2
sS'maxVel'
p45
F0.80000000000000004
sS'age'
p46
I200
sS'gener'
p47
S'm'
sS'lastScale'
p48
F5.7773634943069156
sS'energy'
p49
F0.02773634943069158
sb.(i__main__
Data_mobile
p1
(dp2
S'vel_y'
p3
F0.71810100137360866
sS'vel_x'
p4
F-0.35260594411640411
sS'pos_x'
p5
F-147.3083064517767
sS'pos_y'
p6
F-30.715086312394245
sS'isAlive'
p7
I01
sS'geno'
p8
(i__main__
Node
p9
(dp10
S'node'
p11
(lp12
S'+'
aS'-'
aS'*'
aS'/'
asS'right'
p13
(i__main__
Node
p14
(dp15
g11
(lp16
S'+'
aS'-'
aS'*'
aS'/'
asg13
NsS'leaf'
p17
(lp18
S'indiv.alignment()'
p19
aS'indiv.cohesion()'
p20
aS'indiv.separation()'
p21
aS'indiv.target()'
p22
aS'indiv.currentVelocity()'
p23
aS'indiv.mostEnergizedNeighbor()'
p24
aS'indiv.randV()'
p25
asS'parent'
p26
g9
sS'data'
p27
g24
sS'left'
p28
Nsbsg17
(lp29
g19
ag20
ag21
ag22
ag23
ag24
ag25
asg26
Nsg27
S'+'
sg28
(i__main__
Node
p30
(dp31
g11
(lp32
S'+'
aS'-'
aS'*'
aS'/'
asg13
(i__main__
Node
p33
(dp34
g11
(lp35
S'+'
aS'-'
aS'*'
aS'/'
asg13
(i__main__
Node
p36
(dp37
g11
(lp38
S'+'
aS'-'
aS'*'
aS'/'
asg13
Nsg17
(lp39
g19
ag20
ag21
ag22
ag23
ag24
ag25
asg26
g33
sg27
g19
sg28
Nsbsg17
(lp40
g19
ag20
ag21
ag22
ag23
ag24
ag25
asg26
g30
sg27
S'*'
sg28
(i__main__
Node
p41
(dp42
g11
(lp43
S'+'
aS'-'
aS'*'
aS'/'
asg13
Nsg17
(lp44
g19
ag20
ag21
ag22
ag23
ag24
ag25
asg26
g33
sg27
g23
sg28
Nsbsbsg17
(lp45
g19
ag20
ag21
ag22
ag23
ag24
ag25
asg26
g9
sg27
S'+'
sg28
(i__main__
Node
p46
(dp47
g11
(lp48
S'+'
aS'-'
aS'*'
aS'/'
asg13
(i__main__
Node
p49
(dp50
g11
(lp51
S'+'
aS'-'
aS'*'
aS'/'
asg13
Nsg17
(lp52
g19
ag20
ag21
ag22
ag23
ag24
ag25
asg26
g46
sg27
g24
sg28
Nsbsg17
(lp53
g19
ag20
ag21
ag22
ag23
ag24
ag25
asg26
g30
sg27
S'-'
sg28
(i__main__
Node
p54
(dp55
g11
(lp56
S'+'
aS'-'
aS'*'
aS'/'
asg13
Nsg17
(lp57
g19
ag20
ag21
ag22
ag23
ag24
ag25
asg26
g46
sg27
g22
sg28
NsbsbsbsbsS'accel_x'
p58
F-0.23490475927571297
sS'accel_y'
p59
F0.81358390686373494
sS'maxAccel'
p60
I2
sS'maxVel'
p61
F0.80000000000000004
sS'age'
p62
I50
sS'gener'
p63
S'm'
sS'lastScale'
p64
F15.398593637295674
sS'energy'
p65
F0.98985936372956751
sb.(i__main__
Data_mobile
p1
(dp2
S'vel_y'
p3
F-0.46399224218713125
sS'vel_x'
p4
F-0.65169870276850994
sS'pos_x'
p5
F-146.96153395544908
sS'pos_y'
p6
F-29.025590453622645
sS'isAlive'
p7
I01
sS'geno'
p8
(i__main__
Node
p9
(dp10
S'node'
p11
(lp12
S'+'
aS'-'
aS'*'
aS'/'
asS'right'
p13
(i__main__
Node
p14
(dp15
g11
(lp16
S'+'
aS'-'
aS'*'
aS'/'
asg13
NsS'leaf'
p17
(lp18
S'indiv.alignment()'
p19
aS'indiv.cohesion()'
p20
aS'indiv.separation()'
p21
aS'indiv.target()'
p22
aS'indiv.currentVelocity()'
p23
aS'indiv.mostEnergizedNeighbor()'
p24
aS'indiv.randV()'
p25
asS'parent'
p26
g9
sS'data'
p27
g24
sS'left'
p28
Nsbsg17
(lp29
g19
ag20
ag21
ag22
ag23
ag24
ag25
asg26
Nsg27
S'+'
sg28
(i__main__
Node
p30
(dp31
g11
(lp32
S'+'
aS'-'
aS'*'
aS'/'
asg13
(i__main__
Node
p33
(dp34
g11
(lp35
S'+'
aS'-'
aS'*'
aS'/'
asg13
Nsg17
(lp36
g19
ag20
ag21
ag22
ag23
ag24
ag25
asg26
g30
sg27
g24
sg28
Nsbsg17
(lp37
g19
ag20
ag21
ag22
ag23
ag24
ag25
asg26
g9
sg27
S'-'
sg28
(i__main__
Node
p38
(dp39
g11
(lp40
S'+'
aS'-'
aS'*'
aS'/'
asg13
Nsg17
(lp41
g19
ag20
ag21
ag22
ag23
ag24
ag25
asg26
g30
sg27
g22
sg28
NsbsbsbsS'accel_x'
p42
F-0.111049919376768
sS'accel_y'
p43
F-0.09476649753233346
sS'maxAccel'
p44
I2
sS'maxVel'
p45
F0.80000000000000004
sS'age'
p46
I50
sS'gener'
p47
S'm'
sS'lastScale'
p48
F15.398593637295674
sS'energy'
p49
F0.98985936372956751
sb.(i__main__
Data_mobile
p1
(dp2
S'vel_y'
p3
F-0.6929509436874941
sS'vel_x'
p4
F-0.39977367302338884
sS'pos_x'
p5
F-145.86160535530945
sS'pos_y'
p6
F-30.131942780163307
sS'isAlive'
p7
I01
sS'geno'
p8
(i__main__
Node
p9
(dp10
S'node'
p11
(lp12
S'+'
aS'-'
aS'*'
aS'/'
asS'right'
p13
(i__main__
Node
p14
(dp15
g11
(lp16
S'+'
aS'-'
aS'*'
aS'/'
asg13
NsS'leaf'
p17
(lp18
S'indiv.alignment()'
p19
aS'indiv.cohesion()'
p20
aS'indiv.separation()'
p21
aS'indiv.target()'
p22
aS'indiv.currentVelocity()'
p23
aS'indiv.mostEnergizedNeighbor()'
p24
aS'indiv.randV()'
p25
asS'parent'
p26
g9
sS'data'
p27
g24
sS'left'
p28
Nsbsg17
(lp29
g19
ag20
ag21
ag22
ag23
ag24
ag25
asg26
Nsg27
S'+'
sg28
(i__main__
Node
p30
(dp31
g11
(lp32
S'+'
aS'-'
aS'*'
aS'/'
asg13
Nsg17
(lp33
g19
ag20
ag21
ag22
ag23
ag24
ag25
asg26
g9
sg27
g22
sg28
NsbsbsS'accel_x'
p34
F-1.6487553200370737
sS'accel_y'
p35
F1.1320803393087644
sS'maxAccel'
p36
I2
sS'maxVel'
p37
F0.80000000000000004
sS'age'
p38
I50
sS'gener'
p39
S'm'
sS'lastScale'
p40
F15.398593637295674
sS'energy'
p41
F0.98985936372956751
sb.(i__main__
Data_mobile
p1
(dp2
S'vel_y'
p3
F0.75781117439460299
sS'vel_x'
p4
F-0.25636346066214766
sS'pos_x'
p5
F-148.03423089468271
sS'pos_y'
p6
F-31.053850512447326
sS'isAlive'
p7
I01
sS'geno'
p8
(i__main__
Node
p9
(dp10
S'node'
p11
(lp12
S'+'
aS'-'
aS'*'
aS'/'
asS'right'
p13
(i__main__
Node
p14
(dp15
g11
(lp16
S'+'
aS'-'
aS'*'
aS'/'
asg13
NsS'leaf'
p17
(lp18
S'indiv.alignment()'
p19
aS'indiv.cohesion()'
p20
aS'indiv.separation()'
p21
aS'indiv.target()'
p22
aS'indiv.currentVelocity()'
p23
aS'indiv.mostEnergizedNeighbor()'
p24
aS'indiv.randV()'
p25
asS'parent'
p26
g9
sS'data'
p27
g24
sS'left'
p28
Nsbsg17
(lp29
g19
ag20
ag21
ag22
ag23
ag24
ag25
asg26
Nsg27
S'+'
sg28
(i__main__
Node
p30
(dp31
g11
(lp32
S'+'
aS'-'
aS'*'
aS'/'
asg13
(i__main__
Node
p33
(dp34
g11
(lp35
S'+'
aS'-'
aS'*'
aS'/'
asg13
Nsg17
(lp36
g19
ag20
ag21
ag22
ag23
ag24
ag25
asg26
g30
sg27
g24
sg28
Nsbsg17
(lp37
g19
ag20
ag21
ag22
ag23
ag24
ag25
asg26
g9
sg27
S'-'
sg28
(i__main__
Node
p38
(dp39
g11
(lp40
S'+'
aS'-'
aS'*'
aS'/'
asg13
Nsg17
(lp41
g19
ag20
ag21
ag22
ag23
ag24
ag25
asg26
g30
sg27
g22
sg28
NsbsbsbsS'accel_x'
p42
F0.37387946599830002
sS'accel_y'
p43
F0.80525054019714304
sS'maxAccel'
p44
I2
sS'maxVel'
p45
F0.80000000000000004
sS'age'
p46
I50
sS'gener'
p47
S'm'
sS'lastScale'
p48
F15.398593637295674
sS'energy'
p49
F0.98985936372956751
sb.(i__main__
Data_mobile
p1
(dp2
S'vel_y'
p3
F0.75171361581664486
sS'vel_x'
p4
F-0.27372730918902777
sS'pos_x'
p5
F-148.04109007051349
sS'pos_y'
p6
F-31.0724924251675
sS'isAlive'
p7
I01
sS'geno'
p8
(i__main__
Node
p9
(dp10
S'node'
p11
(lp12
S'+'
aS'-'
aS'*'
aS'/'
asS'right'
p13
(i__main__
Node
p14
(dp15
g11
(lp16
S'+'
aS'-'
aS'*'
aS'/'
asg13
NsS'leaf'
p17
(lp18
S'indiv.alignment()'
p19
aS'indiv.cohesion()'
p20
aS'indiv.separation()'
p21
aS'indiv.target()'
p22
aS'indiv.currentVelocity()'
p23
aS'indiv.mostEnergizedNeighbor()'
p24
aS'indiv.randV()'
p25
asS'parent'
p26
g9
sS'data'
p27
g24
sS'left'
p28
Nsbsg17
(lp29
g19
ag20
ag21
ag22
ag23
ag24
ag25
asg26
Nsg27
S'+'
sg28
(i__main__
Node
p30
(dp31
g11
(lp32
S'+'
aS'-'
aS'*'
aS'/'
asg13
(i__main__
Node
p33
(dp34
g11
(lp35
S'+'
aS'-'
aS'*'
aS'/'
asg13
Nsg17
(lp36
g19
ag20
ag21
ag22
ag23
ag24
ag25
asg26
g30
sg27
g24
sg28
Nsbsg17
(lp37
g19
ag20
ag21
ag22
ag23
ag24
ag25
asg26
g9
sg27
S'-'
sg28
(i__main__
Node
p38
(dp39
g11
(lp40
S'+'
aS'-'
aS'*'
aS'/'
asg13
Nsg17
(lp41
g19
ag20
ag21
ag22
ag23
ag24
ag25
asg26
g30
sg27
g22
sg28
NsbsbsbsS'accel_x'
p42
F0.38073864182908324
sS'accel_y'
p43
F0.82389245291731683
sS'maxAccel'
p44
I2
sS'maxVel'
p45
F0.80000000000000004
sS'age'
p46
I50
sS'gener'
p47
S'm'
sS'lastScale'
p48
F15.398593637295674
sS'energy'
p49
F0.98985936372956751
sb.(i__main__
Data_mobile
p1
(dp2
S'vel_y'
p3
F-0.535637199835443
sS'vel_x'
p4
F-0.59421611401277719
sS'pos_x'
p5
F-187.26800621382685
sS'pos_y'
p6
F23.865627280775268
sS'isAlive'
p7
I01
sS'geno'
p8
(i__main__
Node
p9
(dp10
S'node'
p11
(lp12
S'+'
aS'-'
aS'*'
aS'/'
asS'right'
p13
(i__main__
Node
p14
(dp15
g11
(lp16
S'+'
aS'-'
aS'*'
aS'/'
asg13
NsS'leaf'
p17
(lp18
S'indiv.alignment()'
p19
aS'indiv.cohesion()'
p20
aS'indiv.separation()'
p21
aS'indiv.target()'
p22
aS'indiv.currentVelocity()'
p23
aS'indiv.mostEnergizedNeighbor()'
p24
aS'indiv.randV()'
p25
asS'parent'
p26
g9
sS'data'
p27
g24
sS'left'
p28
Nsbsg17
(lp29
g19
ag20
ag21
ag22
ag23
ag24
ag25
asg26
Nsg27
S'+'
sg28
(i__main__
Node
p30
(dp31
g11
(lp32
S'+'
aS'-'
aS'*'
aS'/'
asg13
(i__main__
Node
p33
(dp34
g11
(lp35
S'+'
aS'-'
aS'*'
aS'/'
asg13
Nsg17
(lp36
g19
ag20
ag21
ag22
ag23
ag24
ag25
asg26
g30
sg27
g24
sg28
Nsbsg17
(lp37
g19
ag20
ag21
ag22
ag23
ag24
ag25
asg26
g9
sg27
S'-'
sg28
(i__main__
Node
p38
(dp39
g11
(lp40
S'+'
aS'-'
aS'*'
aS'/'
asg13
Nsg17
(lp41
g19
ag20
ag21
ag22
ag23
ag24
ag25
asg26
g30
sg27
g22
sg28
NsbsbsbsS'accel_x'
p42
F-1.4416837106740938
sS'accel_y'
p43
F-1.3861991481663003
sS'maxAccel'
p44
I2
sS'maxVel'
p45
F0.80000000000000004
sS'age'
p46
I50
sS'gener'
p47
S'm'
sS'lastScale'
p48
F13.482567602243996
sS'energy'
p49
F0.79825676022439962
sb.(i__main__
Data_mobile
p1
(dp2
S'vel_y'
p3
F0.75953198256609444
sS'vel_x'
p4
F-0.25121936123479449
sS'pos_x'
p5
F-148.02868774748976
sS'pos_y'
p6
F-31.052409461012235
sS'isAlive'
p7
I01
sS'geno'
p8
(i__main__
Node
p9
(dp10
S'node'
p11
(lp12
S'+'
aS'-'
aS'*'
aS'/'
asS'right'
p13
(i__main__
Node
p14
(dp15
g11
(lp16
S'+'
aS'-'
aS'*'
aS'/'
asg13
NsS'leaf'
p17
(lp18
S'indiv.alignment()'
p19
aS'indiv.cohesion()'
p20
aS'indiv.separation()'
p21
aS'indiv.target()'
p22
aS'indiv.currentVelocity()'
p23
aS'indiv.mostEnergizedNeighbor()'
p24
aS'indiv.randV()'
p25
asS'parent'
p26
g9
sS'data'
p27
g24
sS'left'
p28
Nsbsg17
(lp29
g19
ag20
ag21
ag22
ag23
ag24
ag25
asg26
Nsg27
S'+'
sg28
(i__main__
Node
p30
(dp31
g11
(lp32
S'+'
aS'-'
aS'*'
aS'/'
asg13
(i__main__
Node
p33
(dp34
g11
(lp35
S'+'
aS'-'
aS'*'
aS'/'
asg13
Nsg17
(lp36
g19
ag20
ag21
ag22
ag23
ag24
ag25
asg26
g30
sg27
g24
sg28
Nsbsg17
(lp37
g19
ag20
ag21
ag22
ag23
ag24
ag25
asg26
g9
sg27
S'-'
sg28
(i__main__
Node
p38
(dp39
g11
(lp40
S'+'
aS'-'
aS'*'
aS'/'
asg13
Nsg17
(lp41
g19
ag20
ag21
ag22
ag23
ag24
ag25
asg26
g30
sg27
g22
sg28
NsbsbsbsS'accel_x'
p42
F0.36833631880534767
sS'accel_y'
p43
F0.80380948876205238
sS'maxAccel'
p44
I2
sS'maxVel'
p45
F0.80000000000000004
sS'age'
p46
I50
sS'gener'
p47
S'm'
sS'lastScale'
p48
F13.482567602243996
sS'energy'
p49
F0.79825676022439962
sb.(i__main__
Data_mobile
p1
(dp2
S'vel_y'
p3
F0.71752242387192067
sS'vel_x'
p4
F-0.35378181304437323
sS'pos_x'
p5
F-147.30911862983083
sS'pos_y'
p6
F-30.717430850240273
sS'isAlive'
p7
I01
sS'geno'
p8
(i__main__
Node
p9
(dp10
S'node'
p11
(lp12
S'+'
aS'-'
aS'*'
aS'/'
asS'right'
p13
(i__main__
Node
p14
(dp15
g11
(lp16
S'+'
aS'-'
aS'*'
aS'/'
asg13
NsS'leaf'
p17
(lp18
S'indiv.alignment()'
p19
aS'indiv.cohesion()'
p20
aS'indiv.separation()'
p21
aS'indiv.target()'
p22
aS'indiv.currentVelocity()'
p23
aS'indiv.mostEnergizedNeighbor()'
p24
aS'indiv.randV()'
p25
asS'parent'
p26
g9
sS'data'
p27
g24
sS'left'
p28
Nsbsg17
(lp29
g19
ag20
ag21
ag22
ag23
ag24
ag25
asg26
Nsg27
S'+'
sg28
(i__main__
Node
p30
(dp31
g11
(lp32
S'+'
aS'-'
aS'*'
aS'/'
asg13
(i__main__
Node
p33
(dp34
g11
(lp35
S'+'
aS'-'
aS'*'
aS'/'
asg13
(i__main__
Node
p36
(dp37
g11
(lp38
S'+'
aS'-'
aS'*'
aS'/'
asg13
Nsg17
(lp39
g19
ag20
ag21
ag22
ag23
ag24
ag25
asg26
g33
sg27
g19
sg28
Nsbsg17
(lp40
g19
ag20
ag21
ag22
ag23
ag24
ag25
asg26
g30
sg27
S'*'
sg28
(i__main__
Node
p41
(dp42
g11
(lp43
S'+'
aS'-'
aS'*'
aS'/'
asg13
Nsg17
(lp44
g19
ag20
ag21
ag22
ag23
ag24
ag25
asg26
g33
sg27
g23
sg28
Nsbsbsg17
(lp45
g19
ag20
ag21
ag22
ag23
ag24
ag25
asg26
g9
sg27
S'+'
sg28
(i__main__
Node
p46
(dp47
g11
(lp48
S'+'
aS'-'
aS'*'
aS'/'
asg13
(i__main__
Node
p49
(dp50
g11
(lp51
S'+'
aS'-'
aS'*'
aS'/'
asg13
Nsg17
(lp52
g19
ag20
ag21
ag22
ag23
ag24
ag25
asg26
g46
sg27
g24
sg28
Nsbsg17
(lp53
g19
ag20
ag21
ag22
ag23
ag24
ag25
asg26
g30
sg27
S'-'
sg28
(i__main__
Node
p54
(dp55
g11
(lp56
S'+'
aS'-'
aS'*'
aS'/'
asg13
Nsg17
(lp57
g19
ag20
ag21
ag22
ag23
ag24
ag25
asg26
g46
sg27
g22
sg28
NsbsbsbsbsS'accel_x'
p58
F-0.19974886592791541
sS'accel_y'
p59
F0.73808017870385101
sS'maxAccel'
p60
I2
sS'maxVel'
p61
F0.80000000000000004
sS'age'
p62
I50
sS'gener'
p63
S'm'
sS'lastScale'
p64
F13.482567602243995
sS'energy'
p65
F0.79825676022439951
sb.(i__main__
Data_mobile
p1
(dp2
S'vel_y'
p3
F0.75028834677762313
sS'vel_x'
p4
F-0.27761015235344161
sS'pos_x'
p5
F-148.03986988295392
sS'pos_y'
p6
F-31.079545439576854
sS'isAlive'
p7
I01
sS'geno'
p8
(i__main__
Node
p9
(dp10
S'node'
p11
(lp12
S'+'
aS'-'
aS'*'
aS'/'
asS'right'
p13
(i__main__
Node
p14
(dp15
g11
(lp16
S'+'
aS'-'
aS'*'
aS'/'
asg13
NsS'leaf'
p17
(lp18
S'indiv.alignment()'
p19
aS'indiv.cohesion()'
p20
aS'indiv.separation()'
p21
aS'indiv.target()'
p22
aS'indiv.currentVelocity()'
p23
aS'indiv.mostEnergizedNeighbor()'
p24
aS'indiv.randV()'
p25
asS'parent'
p26
g9
sS'data'
p27
g24
sS'left'
p28
Nsbsg17
(lp29
g19
ag20
ag21
ag22
ag23
ag24
ag25
asg26
Nsg27
S'+'
sg28
(i__main__
Node
p30
(dp31
g11
(lp32
S'+'
aS'-'
aS'*'
aS'/'
asg13
(i__main__
Node
p33
(dp34
g11
(lp35
S'+'
aS'-'
aS'*'
aS'/'
asg13
Nsg17
(lp36
g19
ag20
ag21
ag22
ag23
ag24
ag25
asg26
g30
sg27
g24
sg28
Nsbsg17
(lp37
g19
ag20
ag21
ag22
ag23
ag24
ag25
asg26
g9
sg27
S'-'
sg28
(i__main__
Node
p38
(dp39
g11
(lp40
S'+'
aS'-'
aS'*'
aS'/'
asg13
Nsg17
(lp41
g19
ag20
ag21
ag22
ag23
ag24
ag25
asg26
g30
sg27
g22
sg28
NsbsbsbsS'accel_x'
p42
F0.37951845426951536
sS'accel_y'
p43
F0.83094546732667141
sS'maxAccel'
p44
I2
sS'maxVel'
p45
F0.80000000000000004
sS'age'
p46
I50
sS'gener'
p47
S'm'
sS'lastScale'
p48
F13.482567602243995
sS'energy'
p49
F0.79825676022439951
sb.(i__main__
Data_mobile
p1
(dp2
S'vel_y'
p3
F0.5315193148520726
sS'vel_x'
p4
F-0.59790234816329613
sS'pos_x'
p5
F-165.54955813472429
sS'pos_y'
p6
F-74.679865144966314
sS'isAlive'
p7
I01
sS'geno'
p8
(i__main__
Node
p9
(dp10
S'node'
p11
(lp12
S'+'
aS'-'
aS'*'
aS'/'
asS'right'
p13
(i__main__
Node
p14
(dp15
g11
(lp16
S'+'
aS'-'
aS'*'
aS'/'
asg13
NsS'leaf'
p17
(lp18
S'indiv.alignment()'
p19
aS'indiv.cohesion()'
p20
aS'indiv.separation()'
p21
aS'indiv.target()'
p22
aS'indiv.currentVelocity()'
p23
aS'indiv.mostEnergizedNeighbor()'
p24
aS'indiv.randV()'
p25
asS'parent'
p26
g9
sS'data'
p27
g24
sS'left'
p28
Nsbsg17
(lp29
g19
ag20
ag21
ag22
ag23
ag24
ag25
asg26
Nsg27
S'+'
sg28
(i__main__
Node
p30
(dp31
g11
(lp32
S'+'
aS'-'
aS'*'
aS'/'
asg13
(i__main__
Node
p33
(dp34
g11
(lp35
S'+'
aS'-'
aS'*'
aS'/'
asg13
(i__main__
Node
p36
(dp37
g11
(lp38
S'+'
aS'-'
aS'*'
aS'/'
asg13
(i__main__
Node
p39
(dp40
g11
(lp41
S'+'
aS'-'
aS'*'
aS'/'
asg13
Nsg17
(lp42
g19
ag20
ag21
ag22
ag23
ag24
ag25
asg26
g36
sg27
g19
sg28
Nsbsg17
(lp43
g19
ag20
ag21
ag22
ag23
ag24
ag25
asg26
g33
sg27
S'*'
sg28
(i__main__
Node
p44
(dp45
g11
(lp46
S'+'
aS'-'
aS'*'
aS'/'
asg13
Nsg17
(lp47
g19
ag20
ag21
ag22
ag23
ag24
ag25
asg26
g36
sg27
g23
sg28
Nsbsbsg17
(lp48
g19
ag20
ag21
ag22
ag23
ag24
ag25
asg26
g30
sg27
S'+'
sg28
(i__main__
Node
p49
(dp50
g11
(lp51
S'+'
aS'-'
aS'*'
aS'/'
asg13
(i__main__
Node
p52
(dp53
g11
(lp54
S'+'
aS'-'
aS'*'
aS'/'
asg13
Nsg17
(lp55
g19
ag20
ag21
ag22
ag23
ag24
ag25
asg26
g49
sg27
g24
sg28
Nsbsg17
(lp56
g19
ag20
ag21
ag22
ag23
ag24
ag25
asg26
g33
sg27
S'-'
sg28
(i__main__
Node
p57
(dp58
g11
(lp59
S'+'
aS'-'
aS'*'
aS'/'
asg13
Nsg17
(lp60
g19
ag20
ag21
ag22
ag23
ag24
ag25
asg26
g49
sg27
g22
sg28
Nsbsbsbsg17
(lp61
g19
ag20
ag21
ag22
ag23
ag24
ag25
asg26
g9
sg27
S'+'
sg28
(i__main__
Node
p62
(dp63
g11
(lp64
S'+'
aS'-'
aS'*'
aS'/'
asg13
(i__main__
Node
p65
(dp66
g11
(lp67
S'+'
aS'-'
aS'*'
aS'/'
asg13
Nsg17
(lp68
g19
ag20
ag21
ag22
ag23
ag24
ag25
asg26
g62
sg27
g24
sg28
Nsbsg17
(lp69
g19
ag20
ag21
ag22
ag23
ag24
ag25
asg26
g30
sg27
S'-'
sg28
(i__main__
Node
p70
(dp71
g11
(lp72
S'+'
aS'-'
aS'*'
aS'/'
asg13
Nsg17
(lp73
g19
ag20
ag21
ag22
ag23
ag24
ag25
asg26
g62
sg27
g22
sg28
NsbsbsbsbsS'accel_x'
p74
F-1.3715897328182698
sS'accel_y'
p75
F1.4555897790337449
sS'maxAccel'
p76
I2
sS'maxVel'
p77
F0.80000000000000004
sS'age'
p78
I50
sS'gener'
p79
S'm'
sS'lastScale'
p80
F11.482567602243998
sS'energy'
p81
F0.59825676022439978
sb.(i__main__
Data_mobile
p1
(dp2
S'vel_y'
p3
F-0.79344243784845681
sS'vel_x'
p4
F0.10222082870480929
sS'pos_x'
p5
F-55.606051182106256
sS'pos_y'
p6
F-48.420558704761383
sS'isAlive'
p7
I01
sS'geno'
p8
(i__main__
Node
p9
(dp10
S'node'
p11
(lp12
S'+'
aS'-'
aS'*'
aS'/'
asS'right'
p13
(i__main__
Node
p14
(dp15
g11
(lp16
S'+'
aS'-'
aS'*'
aS'/'
asg13
NsS'leaf'
p17
(lp18
S'indiv.alignment()'
p19
aS'indiv.cohesion()'
p20
aS'indiv.separation()'
p21
aS'indiv.target()'
p22
aS'indiv.currentVelocity()'
p23
aS'indiv.mostEnergizedNeighbor()'
p24
aS'indiv.randV()'
p25
asS'parent'
p26
g9
sS'data'
p27
g24
sS'left'
p28
Nsbsg17
(lp29
g19
ag20
ag21
ag22
ag23
ag24
ag25
asg26
Nsg27
S'+'
sg28
(i__main__
Node
p30
(dp31
g11
(lp32
S'+'
aS'-'
aS'*'
aS'/'
asg13
(i__main__
Node
p33
(dp34
g11
(lp35
S'+'
aS'-'
aS'*'
aS'/'
asg13
Nsg17
(lp36
g19
ag20
ag21
ag22
ag23
ag24
ag25
asg26
g30
sg27
g24
sg28
Nsbsg17
(lp37
g19
ag20
ag21
ag22
ag23
ag24
ag25
asg26
g9
sg27
S'-'
sg28
(i__main__
Node
p38
(dp39
g11
(lp40
S'+'
aS'-'
aS'*'
aS'/'
asg13
Nsg17
(lp41
g19
ag20
ag21
ag22
ag23
ag24
ag25
asg26
g30
sg27
g22
sg28
NsbsbsbsS'accel_x'
p42
F0
sS'accel_y'
p43
F0
sS'maxAccel'
p44
I2
sS'maxVel'
p45
F0.80000000000000004
sS'age'
p46
I50
sS'gener'
p47
S'm'
sS'lastScale'
p48
F10.482567602243996
sS'energy'
p49
F0.49825676022439974
sb.(i__main__
Data_mobile
p1
(dp2
S'vel_y'
p3
F-5.967880865786656e-005
sS'vel_x'
p4
F0.18486071207655141
sS'pos_x'
p5
F-55.205860717763755
sS'pos_y'
p6
F-42.105172766907607
sS'isAlive'
p7
I01
sS'geno'
p8
(i__main__
Node
p9
(dp10
S'node'
p11
(lp12
S'+'
aS'-'
aS'*'
aS'/'
asS'right'
p13
(i__main__
Node
p14
(dp15
g11
(lp16
S'+'
aS'-'
aS'*'
aS'/'
asg13
NsS'leaf'
p17
(lp18
S'indiv.alignment()'
p19
aS'indiv.cohesion()'
p20
aS'indiv.separation()'
p21
aS'indiv.target()'
p22
aS'indiv.currentVelocity()'
p23
aS'indiv.mostEnergizedNeighbor()'
p24
aS'indiv.randV()'
p25
asS'parent'
p26
g9
sS'data'
p27
g24
sS'left'
p28
Nsbsg17
(lp29
g19
ag20
ag21
ag22
ag23
ag24
ag25
asg26
Nsg27
S'+'
sg28
(i__main__
Node
p30
(dp31
g11
(lp32
S'+'
aS'-'
aS'*'
aS'/'
asg13
(i__main__
Node
p33
(dp34
g11
(lp35
S'+'
aS'-'
aS'*'
aS'/'
asg13
(i__main__
Node
p36
(dp37
g11
(lp38
S'+'
aS'-'
aS'*'
aS'/'
asg13
Nsg17
(lp39
g19
ag20
ag21
ag22
ag23
ag24
ag25
asg26
g33
sg27
g19
sg28
Nsbsg17
(lp40
g19
ag20
ag21
ag22
ag23
ag24
ag25
asg26
g30
sg27
S'*'
sg28
(i__main__
Node
p41
(dp42
g11
(lp43
S'+'
aS'-'
aS'*'
aS'/'
asg13
Nsg17
(lp44
g19
ag20
ag21
ag22
ag23
ag24
ag25
asg26
g33
sg27
g23
sg28
Nsbsbsg17
(lp45
g19
ag20
ag21
ag22
ag23
ag24
ag25
asg26
g9
sg27
S'+'
sg28
(i__main__
Node
p46
(dp47
g11
(lp48
S'+'
aS'-'
aS'*'
aS'/'
asg13
(i__main__
Node
p49
(dp50
g11
(lp51
S'+'
aS'-'
aS'*'
aS'/'
asg13
Nsg17
(lp52
g19
ag20
ag21
ag22
ag23
ag24
ag25
asg26
g46
sg27
g24
sg28
Nsbsg17
(lp53
g19
ag20
ag21
ag22
ag23
ag24
ag25
asg26
g30
sg27
S'-'
sg28
(i__main__
Node
p54
(dp55
g11
(lp56
S'+'
aS'-'
aS'*'
aS'/'
asg13
Nsg17
(lp57
g19
ag20
ag21
ag22
ag23
ag24
ag25
asg26
g46
sg27
g22
sg28
NsbsbsbsbsS'accel_x'
p58
F0
sS'accel_y'
p59
F0
sS'maxAccel'
p60
I2
sS'maxVel'
p61
F0.80000000000000004
sS'age'
p62
I50
sS'gener'
p63
S'm'
sS'lastScale'
p64
F9.4825676022439964
sS'energy'
p65
F0.39825676022439971
sb.(i__main__
Data_mobile
p1
(dp2
S'vel_y'
p3
F0.43108864692969207
sS'vel_x'
p4
F-0.67391585416009259
sS'pos_x'
p5
F-169.97254926595792
sS'pos_y'
p6
F-69.82906781148786
sS'isAlive'
p7
I01
sS'geno'
p8
(i__main__
Node
p9
(dp10
S'node'
p11
(lp12
S'+'
aS'-'
aS'*'
aS'/'
asS'right'
p13
(i__main__
Node
p14
(dp15
g11
(lp16
S'+'
aS'-'
aS'*'
aS'/'
asg13
NsS'leaf'
p17
(lp18
S'indiv.alignment()'
p19
aS'indiv.cohesion()'
p20
aS'indiv.separation()'
p21
aS'indiv.target()'
p22
aS'indiv.currentVelocity()'
p23
aS'indiv.mostEnergizedNeighbor()'
p24
aS'indiv.randV()'
p25
asS'parent'
p26
g9
sS'data'
p27
g24
sS'left'
p28
Nsbsg17
(lp29
g19
ag20
ag21
ag22
ag23
ag24
ag25
asg26
Nsg27
S'+'
sg28
(i__main__
Node
p30
(dp31
g11
(lp32
S'+'
aS'-'
aS'*'
aS'/'
asg13
(i__main__
Node
p33
(dp34
g11
(lp35
S'+'
aS'-'
aS'*'
aS'/'
asg13
Nsg17
(lp36
g19
ag20
ag21
ag22
ag23
ag24
ag25
asg26
g30
sg27
g24
sg28
Nsbsg17
(lp37
g19
ag20
ag21
ag22
ag23
ag24
ag25
asg26
g9
sg27
S'-'
sg28
(i__main__
Node
p38
(dp39
g11
(lp40
S'+'
aS'-'
aS'*'
aS'/'
asg13
Nsg17
(lp41
g19
ag20
ag21
ag22
ag23
ag24
ag25
asg26
g30
sg27
g22
sg28
NsbsbsbsS'accel_x'
p42
F-1.4093404866600452
sS'accel_y'
p43
F1.4190699040783112
sS'maxAccel'
p44
I2
sS'maxVel'
p45
F0.80000000000000004
sS'age'
p46
I50
sS'gener'
p47
S'm'
sS'lastScale'
p48
F7.4825676022439964
sS'energy'
p49
F0.1982567602243997
sb.(i__main__
Data_mobile
p1
(dp2
S'vel_y'
p3
F0.43106919753678991
sS'vel_x'
p4
F-0.67392829509895791
sS'pos_x'
p5
F-169.97212481794978
sS'pos_y'
p6
F-69.829283978178097
sS'isAlive'
p7
I01
sS'geno'
p8
(i__main__
Node
p9
(dp10
S'node'
p11
(lp12
S'+'
aS'-'
aS'*'
aS'/'
asS'right'
p13
(i__main__
Node
p14
(dp15
g11
(lp16
S'+'
aS'-'
aS'*'
aS'/'
asg13
NsS'leaf'
p17
(lp18
S'indiv.alignment()'
p19
aS'indiv.cohesion()'
p20
aS'indiv.separation()'
p21
aS'indiv.target()'
p22
aS'indiv.currentVelocity()'
p23
aS'indiv.mostEnergizedNeighbor()'
p24
aS'indiv.randV()'
p25
asS'parent'
p26
g9
sS'data'
p27
g24
sS'left'
p28
Nsbsg17
(lp29
g19
ag20
ag21
ag22
ag23
ag24
ag25
asg26
Nsg27
S'+'
sg28
(i__main__
Node
p30
(dp31
g11
(lp32
S'+'
aS'-'
aS'*'
aS'/'
asg13
(i__main__
Node
p33
(dp34
g11
(lp35
S'+'
aS'-'
aS'*'
aS'/'
asg13
Nsg17
(lp36
g19
ag20
ag21
ag22
ag23
ag24
ag25
asg26
g30
sg27
g24
sg28
Nsbsg17
(lp37
g19
ag20
ag21
ag22
ag23
ag24
ag25
asg26
g9
sg27
S'-'
sg28
(i__main__
Node
p38
(dp39
g11
(lp40
S'+'
aS'-'
aS'*'
aS'/'
asg13
Nsg17
(lp41
g19
ag20
ag21
ag22
ag23
ag24
ag25
asg26
g30
sg27
g22
sg28
NsbsbsbsS'accel_x'
p42
F-1.4094450741011659
sS'accel_y'
p43
F1.4189660260527588
sS'maxAccel'
p44
I2
sS'maxVel'
p45
F0.80000000000000004
sS'age'
p46
I50
sS'gener'
p47
S'm'
sS'lastScale'
p48
F7.4825676022439964
sS'energy'
p49
F0.1982567602243997
sb.(i__main__
Data_mobile
p1
(dp2
S'vel_y'
p3
F-0.10938188240515836
sS'vel_x'
p4
F-0.79248697390020495
sS'pos_x'
p5
F-158.08840495867778
sS'pos_y'
p6
F-67.497317309461792
sS'isAlive'
p7
I01
sS'geno'
p8
(i__main__
Node
p9
(dp10
S'node'
p11
(lp12
S'+'
aS'-'
aS'*'
aS'/'
asS'right'
p13
(i__main__
Node
p14
(dp15
g11
(lp16
S'+'
aS'-'
aS'*'
aS'/'
asg13
NsS'leaf'
p17
(lp18
S'indiv.alignment()'
p19
aS'indiv.cohesion()'
p20
aS'indiv.separation()'
p21
aS'indiv.target()'
p22
aS'indiv.currentVelocity()'
p23
aS'indiv.mostEnergizedNeighbor()'
p24
aS'indiv.randV()'
p25
asS'parent'
p26
g9
sS'data'
p27
g24
sS'left'
p28
Nsbsg17
(lp29
g19
ag20
ag21
ag22
ag23
ag24
ag25
asg26
Nsg27
S'+'
sg28
(i__main__
Node
p30
(dp31
g11
(lp32
S'+'
aS'-'
aS'*'
aS'/'
asg13
(i__main__
Node
p33
(dp34
g11
(lp35
S'+'
aS'-'
aS'*'
aS'/'
asg13
(i__main__
Node
p36
(dp37
g11
(lp38
S'+'
aS'-'
aS'*'
aS'/'
asg13
Nsg17
(lp39
g19
ag20
ag21
ag22
ag23
ag24
ag25
asg26
g33
sg27
g19
sg28
Nsbsg17
(lp40
g19
ag20
ag21
ag22
ag23
ag24
ag25
asg26
g30
sg27
S'*'
sg28
(i__main__
Node
p41
(dp42
g11
(lp43
S'+'
aS'-'
aS'*'
aS'/'
asg13
Nsg17
(lp44
g19
ag20
ag21
ag22
ag23
ag24
ag25
asg26
g33
sg27
g23
sg28
Nsbsbsg17
(lp45
g19
ag20
ag21
ag22
ag23
ag24
ag25
asg26
g9
sg27
S'+'
sg28
(i__main__
Node
p46
(dp47
g11
(lp48
S'+'
aS'-'
aS'*'
aS'/'
asg13
(i__main__
Node
p49
(dp50
g11
(lp51
S'+'
aS'-'
aS'*'
aS'/'
asg13
Nsg17
(lp52
g19
ag20
ag21
ag22
ag23
ag24
ag25
asg26
g46
sg27
g24
sg28
Nsbsg17
(lp53
g19
ag20
ag21
ag22
ag23
ag24
ag25
asg26
g30
sg27
S'-'
sg28
(i__main__
Node
p54
(dp55
g11
(lp56
S'+'
aS'-'
aS'*'
aS'/'
asg13
Nsg17
(lp57
g19
ag20
ag21
ag22
ag23
ag24
ag25
asg26
g46
sg27
g22
sg28
NsbsbsbsbsS'accel_x'
p58
F-1.9954485521258729
sS'accel_y'
p59
F-0.13485205159268915
sS'maxAccel'
p60
I2
sS'maxVel'
p61
F0.80000000000000004
sS'age'
p62
I50
sS'gener'
p63
S'm'
sS'lastScale'
p64
F7.4825676022439964
sS'energy'
p65
F0.1982567602243997
sb.(i__main__
Data_mobile
p1
(dp2
S'vel_y'
p3
F0.43075583907048465
sS'vel_x'
p4
F-0.67412862801299489
sS'pos_x'
p5
F-169.96532388836758
sS'pos_y'
p6
F-69.832742678078233
sS'isAlive'
p7
I01
sS'geno'
p8
(i__main__
Node
p9
(dp10
S'node'
p11
(lp12
S'+'
aS'-'
aS'*'
aS'/'
asS'right'
p13
(i__main__
Node
p14
(dp15
g11
(lp16
S'+'
aS'-'
aS'*'
aS'/'
asg13
NsS'leaf'
p17
(lp18
S'indiv.alignment()'
p19
aS'indiv.cohesion()'
p20
aS'indiv.separation()'
p21
aS'indiv.target()'
p22
aS'indiv.currentVelocity()'
p23
aS'indiv.mostEnergizedNeighbor()'
p24
aS'indiv.randV()'
p25
asS'parent'
p26
g9
sS'data'
p27
g24
sS'left'
p28
Nsbsg17
(lp29
g19
ag20
ag21
ag22
ag23
ag24
ag25
asg26
Nsg27
S'+'
sg28
(i__main__
Node
p30
(dp31
g11
(lp32
S'+'
aS'-'
aS'*'
aS'/'
asg13
(i__main__
Node
p33
(dp34
g11
(lp35
S'+'
aS'-'
aS'*'
aS'/'
asg13
Nsg17
(lp36
g19
ag20
ag21
ag22
ag23
ag24
ag25
asg26
g30
sg27
g24
sg28
Nsbsg17
(lp37
g19
ag20
ag21
ag22
ag23
ag24
ag25
asg26
g9
sg27
S'-'
sg28
(i__main__
Node
p38
(dp39
g11
(lp40
S'+'
aS'-'
aS'*'
aS'/'
asg13
Nsg17
(lp41
g19
ag20
ag21
ag22
ag23
ag24
ag25
asg26
g30
sg27
g22
sg28
NsbsbsbsS'accel_x'
p42
F-1.4111159082964373
sS'accel_y'
p43
F1.4173044462474251
sS'maxAccel'
p44
I2
sS'maxVel'
p45
F0.80000000000000004
sS'age'
p46
I50
sS'gener'
p47
S'm'
sS'lastScale'
p48
F6.4825676022439982
sS'energy'
p49
F0.09825676022439972
sb.(i__main__
Data_mobile
p1
(dp2
S'vel_y'
p3
F-0.62360329710219764
sS'vel_x'
p4
F-0.45379016920588722
sS'pos_x'
p5
F-107.91272345289953
sS'pos_y'
p6
F0.30064839710434688
sS'isAlive'
p7
I01
sS'geno'
p8
(i__main__
Node
p9
(dp10
S'node'
p11
(lp12
S'+'
aS'-'
aS'*'
aS'/'
asS'right'
p13
(i__main__
Node
p14
(dp15
g11
(lp16
S'+'
aS'-'
aS'*'
aS'/'
asg13
NsS'leaf'
p17
(lp18
S'indiv.alignment()'
p19
aS'indiv.cohesion()'
p20
aS'indiv.separation()'
p21
aS'indiv.target()'
p22
aS'indiv.currentVelocity()'
p23
aS'indiv.mostEnergizedNeighbor()'
p24
aS'indiv.randV()'
p25
asS'parent'
p26
g9
sS'data'
p27
g24
sS'left'
p28
Nsbsg17
(lp29
g19
ag20
ag21
ag22
ag23
ag24
ag25
asg26
Nsg27
S'+'
sg28
(i__main__
Node
p30
(dp31
g11
(lp32
S'+'
aS'-'
aS'*'
aS'/'
asg13
(i__main__
Node
p33
(dp34
g11
(lp35
S'+'
aS'-'
aS'*'
aS'/'
asg13
Nsg17
(lp36
g19
ag20
ag21
ag22
ag23
ag24
ag25
asg26
g30
sg27
g24
sg28
Nsbsg17
(lp37
g19
ag20
ag21
ag22
ag23
ag24
ag25
asg26
g9
sg27
S'-'
sg28
(i__main__
Node
p38
(dp39
g11
(lp40
S'+'
aS'-'
aS'*'
aS'/'
asg13
Nsg17
(lp41
g19
ag20
ag21
ag22
ag23
ag24
ag25
asg26
g30
sg27
g22
sg28
NsbsbsbsS'accel_x'
p42
F0
sS'accel_y'
p43
F0
sS'maxAccel'
p44
I2
sS'maxVel'
p45
F0.80000000000000004
sS'age'
p46
I0
sS'gener'
p47
S'm'
sS'lastScale'
p48
F5.5
sS'energy'
p49
F0.5
sb.(i__main__
Data_mobile
p1
(dp2
S'vel_y'
p3
F0.028722360013831577
sS'vel_x'
p4
F-0.68163164275566224
sS'pos_x'
p5
F-79.675107694853494
sS'pos_y'
p6
F48.183348526394944
sS'isAlive'
p7
I01
sS'geno'
p8
(i__main__
Node
p9
(dp10
S'node'
p11
(lp12
S'+'
aS'-'
aS'*'
aS'/'
asS'right'
p13
(i__main__
Node
p14
(dp15
g11
(lp16
S'+'
aS'-'
aS'*'
aS'/'
asg13
NsS'leaf'
p17
(lp18
S'indiv.alignment()'
p19
aS'indiv.cohesion()'
p20
aS'indiv.separation()'
p21
aS'indiv.target()'
p22
aS'indiv.currentVelocity()'
p23
aS'indiv.mostEnergizedNeighbor()'
p24
aS'indiv.randV()'
p25
asS'parent'
p26
g9
sS'data'
p27
g24
sS'left'
p28
Nsbsg17
(lp29
g19
ag20
ag21
ag22
ag23
ag24
ag25
asg26
Nsg27
S'+'
sg28
(i__main__
Node
p30
(dp31
g11
(lp32
S'+'
aS'-'
aS'*'
aS'/'
asg13
(i__main__
Node
p33
(dp34
g11
(lp35
S'+'
aS'-'
aS'*'
aS'/'
asg13
Nsg17
(lp36
g19
ag20
ag21
ag22
ag23
ag24
ag25
asg26
g30
sg27
g24
sg28
Nsbsg17
(lp37
g19
ag20
ag21
ag22
ag23
ag24
ag25
asg26
g9
sg27
S'-'
sg28
(i__main__
Node
p38
(dp39
g11
(lp40
S'+'
aS'-'
aS'*'
aS'/'
asg13
Nsg17
(lp41
g19
ag20
ag21
ag22
ag23
ag24
ag25
asg26
g30
sg27
g22
sg28
NsbsbsbsS'accel_x'
p42
F0
sS'accel_y'
p43
F0
sS'maxAccel'
p44
I2
sS'maxVel'
p45
F0.80000000000000004
sS'age'
p46
I0
sS'gener'
p47
S'm'
sS'lastScale'
p48
F5.5
sS'energy'
p49
F0.5
sb.(i__main__
Data_mobile
p1
(dp2
S'vel_y'
p3
F-0.16623630839514419
sS'vel_x'
p4
F0.039271382619740225
sS'pos_x'
p5
F-134.77142401395798
sS'pos_y'
p6
F-18.272161515088797
sS'isAlive'
p7
I01
sS'geno'
p8
(i__main__
Node
p9
(dp10
S'node'
p11
(lp12
S'+'
aS'-'
aS'*'
aS'/'
asS'right'
p13
(i__main__
Node
p14
(dp15
g11
(lp16
S'+'
aS'-'
aS'*'
aS'/'
asg13
NsS'leaf'
p17
(lp18
S'indiv.alignment()'
p19
aS'indiv.cohesion()'
p20
aS'indiv.separation()'
p21
aS'indiv.target()'
p22
aS'indiv.currentVelocity()'
p23
aS'indiv.mostEnergizedNeighbor()'
p24
aS'indiv.randV()'
p25
asS'parent'
p26
g9
sS'data'
p27
g24
sS'left'
p28
Nsbsg17
(lp29
g19
ag20
ag21
ag22
ag23
ag24
ag25
asg26
Nsg27
S'+'
sg28
(i__main__
Node
p30
(dp31
g11
(lp32
S'+'
aS'-'
aS'*'
aS'/'
asg13
(i__main__
Node
p33
(dp34
g11
(lp35
S'+'
aS'-'
aS'*'
aS'/'
asg13
Nsg17
(lp36
g19
ag20
ag21
ag22
ag23
ag24
ag25
asg26
g30
sg27
g24
sg28
Nsbsg17
(lp37
g19
ag20
ag21
ag22
ag23
ag24
ag25
asg26
g9
sg27
S'-'
sg28
(i__main__
Node
p38
(dp39
g11
(lp40
S'+'
aS'-'
aS'*'
aS'/'
asg13
Nsg17
(lp41
g19
ag20
ag21
ag22
ag23
ag24
ag25
asg26
g30
sg27
g22
sg28
NsbsbsbsS'accel_x'
p42
F0
sS'accel_y'
p43
F0
sS'maxAccel'
p44
I2
sS'maxVel'
p45
F0.80000000000000004
sS'age'
p46
I0
sS'gener'
p47
S'm'
sS'lastScale'
p48
F5.5
sS'energy'
p49
F0.5
sb.(i__main__
Data_mobile
p1
(dp2
S'vel_y'
p3
F-0.61345072592016348
sS'vel_x'
p4
F0.23744598011963963
sS'pos_x'
p5
F-72.143578267477281
sS'pos_y'
p6
F43.886319965917345
sS'isAlive'
p7
I01
sS'geno'
p8
(i__main__
Node
p9
(dp10
S'node'
p11
(lp12
S'+'
aS'-'
aS'*'
aS'/'
asS'right'
p13
(i__main__
Node
p14
(dp15
g11
(lp16
S'+'
aS'-'
aS'*'
aS'/'
asg13
NsS'leaf'
p17
(lp18
S'indiv.alignment()'
p19
aS'indiv.cohesion()'
p20
aS'indiv.separation()'
p21
aS'indiv.target()'
p22
aS'indiv.currentVelocity()'
p23
aS'indiv.mostEnergizedNeighbor()'
p24
aS'indiv.randV()'
p25
asS'parent'
p26
g9
sS'data'
p27
g24
sS'left'
p28
Nsbsg17
(lp29
g19
ag20
ag21
ag22
ag23
ag24
ag25
asg26
Nsg27
S'+'
sg28
(i__main__
Node
p30
(dp31
g11
(lp32
S'+'
aS'-'
aS'*'
aS'/'
asg13
(i__main__
Node
p33
(dp34
g11
(lp35
S'+'
aS'-'
aS'*'
aS'/'
asg13
(i__main__
Node
p36
(dp37
g11
(lp38
S'+'
aS'-'
aS'*'
aS'/'
asg13
Nsg17
(lp39
g19
ag20
ag21
ag22
ag23
ag24
ag25
asg26
g33
sg27
g19
sg28
Nsbsg17
(lp40
g19
ag20
ag21
ag22
ag23
ag24
ag25
asg26
g30
sg27
S'*'
sg28
(i__main__
Node
p41
(dp42
g11
(lp43
S'+'
aS'-'
aS'*'
aS'/'
asg13
Nsg17
(lp44
g19
ag20
ag21
ag22
ag23
ag24
ag25
asg26
g33
sg27
g23
sg28
Nsbsbsg17
(lp45
g19
ag20
ag21
ag22
ag23
ag24
ag25
asg26
g9
sg27
S'+'
sg28
(i__main__
Node
p46
(dp47
g11
(lp48
S'+'
aS'-'
aS'*'
aS'/'
asg13
(i__main__
Node
p49
(dp50
g11
(lp51
S'+'
aS'-'
aS'*'
aS'/'
asg13
Nsg17
(lp52
g19
ag20
ag21
ag22
ag23
ag24
ag25
asg26
g46
sg27
g24
sg28
Nsbsg17
(lp53
g19
ag20
ag21
ag22
ag23
ag24
ag25
asg26
g30
sg27
S'-'
sg28
(i__main__
Node
p54
(dp55
g11
(lp56
S'+'
aS'-'
aS'*'
aS'/'
asg13
Nsg17
(lp57
g19
ag20
ag21
ag22
ag23
ag24
ag25
asg26
g46
sg27
g22
sg28
NsbsbsbsbsS'accel_x'
p58
F0
sS'accel_y'
p59
F0
sS'maxAccel'
p60
I2
sS'maxVel'
p61
F0.80000000000000004
sS'age'
p62
I0
sS'gener'
p63
S'm'
sS'lastScale'
p64
F5.5
sS'energy'
p65
F0.5
sb.(i__main__
Data_mobile
p1
(dp2
S'vel_y'
p3
F-0.059599928316239115
sS'vel_x'
p4
F-0.6679034774173136
sS'pos_x'
p5
F-77.668575208487312
sS'pos_y'
p6
F48.636583894330286
sS'isAlive'
p7
I01
sS'geno'
p8
(i__main__
Node
p9
(dp10
S'node'
p11
(lp12
S'+'
aS'-'
aS'*'
aS'/'
asS'right'
p13
(i__main__
Node
p14
(dp15
g11
(lp16
S'+'
aS'-'
aS'*'
aS'/'
asg13
NsS'leaf'
p17
(lp18
S'indiv.alignment()'
p19
aS'indiv.cohesion()'
p20
aS'indiv.separation()'
p21
aS'indiv.target()'
p22
aS'indiv.currentVelocity()'
p23
aS'indiv.mostEnergizedNeighbor()'
p24
aS'indiv.randV()'
p25
asS'parent'
p26
g9
sS'data'
p27
g24
sS'left'
p28
Nsbsg17
(lp29
g19
ag20
ag21
ag22
ag23
ag24
ag25
asg26
Nsg27
S'+'
sg28
(i__main__
Node
p30
(dp31
g11
(lp32
S'+'
aS'-'
aS'*'
aS'/'
asg13
(i__main__
Node
p33
(dp34
g11
(lp35
S'+'
aS'-'
aS'*'
aS'/'
asg13
Nsg17
(lp36
g19
ag20
ag21
ag22
ag23
ag24
ag25
asg26
g30
sg27
g24
sg28
Nsbsg17
(lp37
g19
ag20
ag21
ag22
ag23
ag24
ag25
asg26
g9
sg27
S'-'
sg28
(i__main__
Node
p38
(dp39
g11
(lp40
S'+'
aS'-'
aS'*'
aS'/'
asg13
Nsg17
(lp41
g19
ag20
ag21
ag22
ag23
ag24
ag25
asg26
g30
sg27
g22
sg28
NsbsbsbsS'accel_x'
p42
F0
sS'accel_y'
p43
F0
sS'maxAccel'
p44
I2
sS'maxVel'
p45
F0.80000000000000004
sS'age'
p46
I0
sS'gener'
p47
S'm'
sS'lastScale'
p48
F5.5
sS'energy'
p49
F0.5
sb.(i__main__
Data_mobile
p1
(dp2
S'vel_y'
p3
F0.25008503776969238
sS'vel_x'
p4
F-0.36121423450888118
sS'pos_x'
p5
F-108.27707250440362
sS'pos_y'
p6
F0.019530525337684512
sS'isAlive'
p7
I01
sS'geno'
p8
(i__main__
Node
p9
(dp10
S'node'
p11
(lp12
S'+'
aS'-'
aS'*'
aS'/'
asS'right'
p13
(i__main__
Node
p14
(dp15
g11
(lp16
S'+'
aS'-'
aS'*'
aS'/'
asg13
NsS'leaf'
p17
(lp18
S'indiv.alignment()'
p19
aS'indiv.cohesion()'
p20
aS'indiv.separation()'
p21
aS'indiv.target()'
p22
aS'indiv.currentVelocity()'
p23
aS'indiv.mostEnergizedNeighbor()'
p24
aS'indiv.randV()'
p25
asS'parent'
p26
g9
sS'data'
p27
g24
sS'left'
p28
Nsbsg17
(lp29
g19
ag20
ag21
ag22
ag23
ag24
ag25
asg26
Nsg27
S'+'
sg28
(i__main__
Node
p30
(dp31
g11
(lp32
S'+'
aS'-'
aS'*'
aS'/'
asg13
(i__main__
Node
p33
(dp34
g11
(lp35
S'+'
aS'-'
aS'*'
aS'/'
asg13
(i__main__
Node
p36
(dp37
g11
(lp38
S'+'
aS'-'
aS'*'
aS'/'
asg13
(i__main__
Node
p39
(dp40
g11
(lp41
S'+'
aS'-'
aS'*'
aS'/'
asg13
(i__main__
Node
p42
(dp43
g11
(lp44
S'+'
aS'-'
aS'*'
aS'/'
asg13
Nsg17
(lp45
g19
ag20
ag21
ag22
ag23
ag24
ag25
asg26
g39
sg27
g22
sg28
Nsbsg17
(lp46
g19
ag20
ag21
ag22
ag23
ag24
ag25
asg26
g36
sg27
S'-'
sg28
(i__main__
Node
p47
(dp48
g11
(lp49
S'+'
aS'-'
aS'*'
aS'/'
asg13
Nsg17
(lp50
g19
ag20
ag21
ag22
ag23
ag24
ag25
asg26
g39
sg27
g25
sg28
Nsbsbsg17
(lp51
g19
ag20
ag21
ag22
ag23
ag24
ag25
asg26
g33
sg27
S'/'
sg28
(i__main__
Node
p52
(dp53
g11
(lp54
S'+'
aS'-'
aS'*'
aS'/'
asg13
(i__main__
Node
p55
(dp56
g11
(lp57
S'+'
aS'-'
aS'*'
aS'/'
asg13
Nsg17
(lp58
g19
ag20
ag21
ag22
ag23
ag24
ag25
asg26
g52
sg27
g21
sg28
Nsbsg17
(lp59
g19
ag20
ag21
ag22
ag23
ag24
ag25
asg26
g36
sg27
S'*'
sg28
(i__main__
Node
p60
(dp61
g11
(lp62
S'+'
aS'-'
aS'*'
aS'/'
asg13
Nsg17
(lp63
g19
ag20
ag21
ag22
ag23
ag24
ag25
asg26
g52
sg27
g21
sg28
Nsbsbsbsg17
(lp64
g19
ag20
ag21
ag22
ag23
ag24
ag25
asg26
g30
sg27
S'/'
sg28
(i__main__
Node
p65
(dp66
g11
(lp67
S'+'
aS'-'
aS'*'
aS'/'
asg13
(i__main__
Node
p68
(dp69
g11
(lp70
S'+'
aS'-'
aS'*'
aS'/'
asg13
(i__main__
Node
p71
(dp72
g11
(lp73
S'+'
aS'-'
aS'*'
aS'/'
asg13
Nsg17
(lp74
g19
ag20
ag21
ag22
ag23
ag24
ag25
asg26
g68
sg27
g19
sg28
Nsbsg17
(lp75
g19
ag20
ag21
ag22
ag23
ag24
ag25
asg26
g65
sg27
S'*'
sg28
(i__main__
Node
p76
(dp77
g11
(lp78
S'+'
aS'-'
aS'*'
aS'/'
asg13
Nsg17
(lp79
g19
ag20
ag21
ag22
ag23
ag24
ag25
asg26
g68
sg27
g23
sg28
Nsbsbsg17
(lp80
g19
ag20
ag21
ag22
ag23
ag24
ag25
asg26
g33
sg27
S'-'
sg28
(i__main__
Node
p81
(dp82
g11
(lp83
S'+'
aS'-'
aS'*'
aS'/'
asg13
(i__main__
Node
p84
(dp85
g11
(lp86
S'+'
aS'-'
aS'*'
aS'/'
asg13
Nsg17
(lp87
g19
ag20
ag21
ag22
ag23
ag24
ag25
asg26
g81
sg27
g22
sg28
Nsbsg17
(lp88
g19
ag20
ag21
ag22
ag23
ag24
ag25
asg26
g65
sg27
S'-'
sg28
(i__main__
Node
p89
(dp90
g11
(lp91
S'+'
aS'-'
aS'*'
aS'/'
asg13
Nsg17
(lp92
g19
ag20
ag21
ag22
ag23
ag24
ag25
asg26
g81
sg27
g20
sg28
Nsbsbsbsbsg17
(lp93
g19
ag20
ag21
ag22
ag23
ag24
ag25
asg26
g9
sg27
S'*'
sg28
(i__main__
Node
p94
(dp95
g11
(lp96
S'+'
aS'-'
aS'*'
aS'/'
asg13
(i__main__
Node
p97
(dp98
g11
(lp99
S'+'
aS'-'
aS'*'
aS'/'
asg13
(i__main__
Node
p100
(dp101
g11
(lp102
S'+'
aS'-'
aS'*'
aS'/'
asg13
(i__main__
Node
p103
(dp104
g11
(lp105
S'+'
aS'-'
aS'*'
aS'/'
asg13
Nsg17
(lp106
g19
ag20
ag21
ag22
ag23
ag24
ag25
asg26
g100
sg27
g19
sg28
Nsbsg17
(lp107
g19
ag20
ag21
ag22
ag23
ag24
ag25
asg26
g97
sg27
S'/'
sg28
(i__main__
Node
p108
(dp109
g11
(lp110
S'+'
aS'-'
aS'*'
aS'/'
asg13
Nsg17
(lp111
g19
ag20
ag21
ag22
ag23
ag24
ag25
asg26
g100
sg27
g19
sg28
Nsbsbsg17
(lp112
g19
ag20
ag21
ag22
ag23
ag24
ag25
asg26
g94
sg27
S'-'
sg28
(i__main__
Node
p113
(dp114
g11
(lp115
S'+'
aS'-'
aS'*'
aS'/'
asg13
(i__main__
Node
p116
(dp117
g11
(lp118
S'+'
aS'-'
aS'*'
aS'/'
asg13
Nsg17
(lp119
g19
ag20
ag21
ag22
ag23
ag24
ag25
asg26
g113
sg27
g21
sg28
Nsbsg17
(lp120
g19
ag20
ag21
ag22
ag23
ag24
ag25
asg26
g97
sg27
S'-'
sg28
(i__main__
Node
p121
(dp122
g11
(lp123
S'+'
aS'-'
aS'*'
aS'/'
asg13
Nsg17
(lp124
g19
ag20
ag21
ag22
ag23
ag24
ag25
asg26
g113
sg27
g20
sg28
Nsbsbsbsg17
(lp125
g19
ag20
ag21
ag22
ag23
ag24
ag25
asg26
g30
sg27
S'*'
sg28
(i__main__
Node
p126
(dp127
g11
(lp128
S'+'
aS'-'
aS'*'
aS'/'
asg13
(i__main__
Node
p129
(dp130
g11
(lp131
S'+'
aS'-'
aS'*'
aS'/'
asg13
(i__main__
Node
p132
(dp133
g11
(lp134
S'+'
aS'-'
aS'*'
aS'/'
asg13
Nsg17
(lp135
g19
ag20
ag21
ag22
ag23
ag24
ag25
asg26
g129
sg27
g24
sg28
Nsbsg17
(lp136
g19
ag20
ag21
ag22
ag23
ag24
ag25
asg26
g126
sg27
S'-'
sg28
(i__main__
Node
p137
(dp138
g11
(lp139
S'+'
aS'-'
aS'*'
aS'/'
asg13
Nsg17
(lp140
g19
ag20
ag21
ag22
ag23
ag24
ag25
asg26
g129
sg27
g25
sg28
Nsbsbsg17
(lp141
g19
ag20
ag21
ag22
ag23
ag24
ag25
asg26
g94
sg27
S'*'
sg28
(i__main__
Node
p142
(dp143
g11
(lp144
S'+'
aS'-'
aS'*'
aS'/'
asg13
(i__main__
Node
p145
(dp146
g11
(lp147
S'+'
aS'-'
aS'*'
aS'/'
asg13
Nsg17
(lp148
g19
ag20
ag21
ag22
ag23
ag24
ag25
asg26
g142
sg27
g22
sg28
Nsbsg17
(lp149
g19
ag20
ag21
ag22
ag23
ag24
ag25
asg26
g126
sg27
S'/'
sg28
(i__main__
Node
p150
(dp151
g11
(lp152
S'+'
aS'-'
aS'*'
aS'/'
asg13
Nsg17
(lp153
g19
ag20
ag21
ag22
ag23
ag24
ag25
asg26
g142
sg27
g22
sg28
NsbsbsbsbsbsbsS'accel_x'
p154
F0
sS'accel_y'
p155
F0
sS'maxAccel'
p156
I2
sS'maxVel'
p157
F0.80000000000000004
sS'age'
p158
I0
sS'gener'
p159
S'm'
sS'lastScale'
p160
F5.5
sS'energy'
p161
F0.5
sb.(i__main__
Data_mobile
p1
(dp2
S'vel_y'
p3
F0.19794742958005862
sS'vel_x'
p4
F-0.70793473995030054
sS'pos_x'
p5
F-98.259479399775486
sS'pos_y'
p6
F43.985512406242414
sS'isAlive'
p7
I01
sS'geno'
p8
(i__main__
Node
p9
(dp10
S'node'
p11
(lp12
S'+'
aS'-'
aS'*'
aS'/'
asS'right'
p13
(i__main__
Node
p14
(dp15
g11
(lp16
S'+'
aS'-'
aS'*'
aS'/'
asg13
NsS'leaf'
p17
(lp18
S'indiv.alignment()'
p19
aS'indiv.cohesion()'
p20
aS'indiv.separation()'
p21
aS'indiv.target()'
p22
aS'indiv.currentVelocity()'
p23
aS'indiv.mostEnergizedNeighbor()'
p24
aS'indiv.randV()'
p25
asS'parent'
p26
g9
sS'data'
p27
g24
sS'left'
p28
Nsbsg17
(lp29
g19
ag20
ag21
ag22
ag23
ag24
ag25
asg26
Nsg27
S'+'
sg28
(i__main__
Node
p30
(dp31
g11
(lp32
S'+'
aS'-'
aS'*'
aS'/'
asg13
(i__main__
Node
p33
(dp34
g11
(lp35
S'+'
aS'-'
aS'*'
aS'/'
asg13
Nsg17
(lp36
g19
ag20
ag21
ag22
ag23
ag24
ag25
asg26
g30
sg27
g24
sg28
Nsbsg17
(lp37
g19
ag20
ag21
ag22
ag23
ag24
ag25
asg26
g9
sg27
S'-'
sg28
(i__main__
Node
p38
(dp39
g11
(lp40
S'+'
aS'-'
aS'*'
aS'/'
asg13
Nsg17
(lp41
g19
ag20
ag21
ag22
ag23
ag24
ag25
asg26
g30
sg27
g22
sg28
NsbsbsbsS'accel_x'
p42
F0
sS'accel_y'
p43
F0
sS'maxAccel'
p44
I2
sS'maxVel'
p45
F0.80000000000000004
sS'age'
p46
I0
sS'gener'
p47
S'm'
sS'lastScale'
p48
F5.5
sS'energy'
p49
F0.5
sb.(i__main__
Data_mobile
p1
(dp2
S'vel_y'
p3
F0.39221835866383264
sS'vel_x'
p4
F-0.31231287989781253
sS'pos_x'
p5
F-136.4804917083973
sS'pos_y'
p6
F-58.187704680092239
sS'isAlive'
p7
I01
sS'geno'
p8
(i__main__
Node
p9
(dp10
S'node'
p11
(lp12
S'+'
aS'-'
aS'*'
aS'/'
asS'right'
p13
(i__main__
Node
p14
(dp15
g11
(lp16
S'+'
aS'-'
aS'*'
aS'/'
asg13
NsS'leaf'
p17
(lp18
S'indiv.alignment()'
p19
aS'indiv.cohesion()'
p20
aS'indiv.separation()'
p21
aS'indiv.target()'
p22
aS'indiv.currentVelocity()'
p23
aS'indiv.mostEnergizedNeighbor()'
p24
aS'indiv.randV()'
p25
asS'parent'
p26
g9
sS'data'
p27
g24
sS'left'
p28
Nsbsg17
(lp29
g19
ag20
ag21
ag22
ag23
ag24
ag25
asg26
Nsg27
S'+'
sg28
(i__main__
Node
p30
(dp31
g11
(lp32
S'+'
aS'-'
aS'*'
aS'/'
asg13
(i__main__
Node
p33
(dp34
g11
(lp35
S'+'
aS'-'
aS'*'
aS'/'
asg13
(i__main__
Node
p36
(dp37
g11
(lp38
S'+'
aS'-'
aS'*'
aS'/'
asg13
Nsg17
(lp39
g19
ag20
ag21
ag22
ag23
ag24
ag25
asg26
g33
sg27
g19
sg28
Nsbsg17
(lp40
g19
ag20
ag21
ag22
ag23
ag24
ag25
asg26
g30
sg27
S'*'
sg28
(i__main__
Node
p41
(dp42
g11
(lp43
S'+'
aS'-'
aS'*'
aS'/'
asg13
Nsg17
(lp44
g19
ag20
ag21
ag22
ag23
ag24
ag25
asg26
g33
sg27
g23
sg28
Nsbsbsg17
(lp45
g19
ag20
ag21
ag22
ag23
ag24
ag25
asg26
g9
sg27
S'+'
sg28
(i__main__
Node
p46
(dp47
g11
(lp48
S'+'
aS'-'
aS'*'
aS'/'
asg13
(i__main__
Node
p49
(dp50
g11
(lp51
S'+'
aS'-'
aS'*'
aS'/'
asg13
Nsg17
(lp52
g19
ag20
ag21
ag22
ag23
ag24
ag25
asg26
g46
sg27
g24
sg28
Nsbsg17
(lp53
g19
ag20
ag21
ag22
ag23
ag24
ag25
asg26
g30
sg27
S'-'
sg28
(i__main__
Node
p54
(dp55
g11
(lp56
S'+'
aS'-'
aS'*'
aS'/'
asg13
Nsg17
(lp57
g19
ag20
ag21
ag22
ag23
ag24
ag25
asg26
g46
sg27
g22
sg28
NsbsbsbsbsS'accel_x'
p58
F0
sS'accel_y'
p59
F0
sS'maxAccel'
p60
I2
sS'maxVel'
p61
F0.80000000000000004
sS'age'
p62
I0
sS'gener'
p63
S'm'
sS'lastScale'
p64
F5.5
sS'energy'
p65
F0.5
sb.(i__main__
Data_mobile
p1
(dp2
S'vel_y'
p3
F-0.25467882008472531
sS'vel_x'
p4
F-0.41255052899607292
sS'pos_x'
p5
F-134.92737724745263
sS'pos_y'
p6
F-20.950901846368264
sS'isAlive'
p7
I01
sS'geno'
p8
(i__main__
Node
p9
(dp10
S'node'
p11
(lp12
S'+'
aS'-'
aS'*'
aS'/'
asS'right'
p13
(i__main__
Node
p14
(dp15
g11
(lp16
S'+'
aS'-'
aS'*'
aS'/'
asg13
NsS'leaf'
p17
(lp18
S'indiv.alignment()'
p19
aS'indiv.cohesion()'
p20
aS'indiv.separation()'
p21
aS'indiv.target()'
p22
aS'indiv.currentVelocity()'
p23
aS'indiv.mostEnergizedNeighbor()'
p24
aS'indiv.randV()'
p25
asS'parent'
p26
g9
sS'data'
p27
g24
sS'left'
p28
Nsbsg17
(lp29
g19
ag20
ag21
ag22
ag23
ag24
ag25
asg26
Nsg27
S'+'
sg28
(i__main__
Node
p30
(dp31
g11
(lp32
S'+'
aS'-'
aS'*'
aS'/'
asg13
(i__main__
Node
p33
(dp34
g11
(lp35
S'+'
aS'-'
aS'*'
aS'/'
asg13
Nsg17
(lp36
g19
ag20
ag21
ag22
ag23
ag24
ag25
asg26
g30
sg27
g24
sg28
Nsbsg17
(lp37
g19
ag20
ag21
ag22
ag23
ag24
ag25
asg26
g9
sg27
S'-'
sg28
(i__main__
Node
p38
(dp39
g11
(lp40
S'+'
aS'-'
aS'*'
aS'/'
asg13
Nsg17
(lp41
g19
ag20
ag21
ag22
ag23
ag24
ag25
asg26
g30
sg27
g22
sg28
NsbsbsbsS'accel_x'
p42
F0
sS'accel_y'
p43
F0
sS'maxAccel'
p44
I2
sS'maxVel'
p45
F0.80000000000000004
sS'age'
p46
I0
sS'gener'
p47
S'm'
sS'lastScale'
p48
F5.5
sS'energy'
p49
F0.5
sb.(i__main__
Data_mobile
p1
(dp2
S'vel_y'
p3
F-0.64593038450445783
sS'vel_x'
p4
F-0.43399022073373383
sS'pos_x'
p5
F-126.95217298125425
sS'pos_y'
p6
F-14.964965225195945
sS'isAlive'
p7
I01
sS'geno'
p8
(i__main__
Node
p9
(dp10
S'node'
p11
(lp12
S'+'
aS'-'
aS'*'
aS'/'
asS'right'
p13
(i__main__
Node
p14
(dp15
g11
(lp16
S'+'
aS'-'
aS'*'
aS'/'
asg13
NsS'leaf'
p17
(lp18
S'indiv.alignment()'
p19
aS'indiv.cohesion()'
p20
aS'indiv.separation()'
p21
aS'indiv.target()'
p22
aS'indiv.currentVelocity()'
p23
aS'indiv.mostEnergizedNeighbor()'
p24
aS'indiv.randV()'
p25
asS'parent'
p26
g9
sS'data'
p27
g24
sS'left'
p28
Nsbsg17
(lp29
g19
ag20
ag21
ag22
ag23
ag24
ag25
asg26
Nsg27
S'+'
sg28
(i__main__
Node
p30
(dp31
g11
(lp32
S'+'
aS'-'
aS'*'
aS'/'
asg13
Nsg17
(lp33
g19
ag20
ag21
ag22
ag23
ag24
ag25
asg26
g9
sg27
g22
sg28
NsbsbsS'accel_x'
p34
F0
sS'accel_y'
p35
F0
sS'maxAccel'
p36
I2
sS'maxVel'
p37
F0.80000000000000004
sS'age'
p38
I0
sS'gener'
p39
S'm'
sS'lastScale'
p40
F5.5
sS'energy'
p41
F0.5
sb.(i__main__
Data_mobile
p1
(dp2
S'vel_y'
p3
F0.18992063678938159
sS'vel_x'
p4
F-0.59455706537440212
sS'pos_x'
p5
F-43.470596376264837
sS'pos_y'
p6
F60.736568977547989
sS'isAlive'
p7
I01
sS'geno'
p8
(i__main__
Node
p9
(dp10
S'node'
p11
(lp12
S'+'
aS'-'
aS'*'
aS'/'
asS'right'
p13
(i__main__
Node
p14
(dp15
g11
(lp16
S'+'
aS'-'
aS'*'
aS'/'
asg13
NsS'leaf'
p17
(lp18
S'indiv.alignment()'
p19
aS'indiv.cohesion()'
p20
aS'indiv.separation()'
p21
aS'indiv.target()'
p22
aS'indiv.currentVelocity()'
p23
aS'indiv.mostEnergizedNeighbor()'
p24
aS'indiv.randV()'
p25
asS'parent'
p26
g9
sS'data'
p27
g24
sS'left'
p28
Nsbsg17
(lp29
g19
ag20
ag21
ag22
ag23
ag24
ag25
asg26
Nsg27
S'+'
sg28
(i__main__
Node
p30
(dp31
g11
(lp32
S'+'
aS'-'
aS'*'
aS'/'
asg13
(i__main__
Node
p33
(dp34
g11
(lp35
S'+'
aS'-'
aS'*'
aS'/'
asg13
Nsg17
(lp36
g19
ag20
ag21
ag22
ag23
ag24
ag25
asg26
g30
sg27
g24
sg28
Nsbsg17
(lp37
g19
ag20
ag21
ag22
ag23
ag24
ag25
asg26
g9
sg27
S'-'
sg28
(i__main__
Node
p38
(dp39
g11
(lp40
S'+'
aS'-'
aS'*'
aS'/'
asg13
Nsg17
(lp41
g19
ag20
ag21
ag22
ag23
ag24
ag25
asg26
g30
sg27
g22
sg28
NsbsbsbsS'accel_x'
p42
F0
sS'accel_y'
p43
F0
sS'maxAccel'
p44
I2
sS'maxVel'
p45
F0.80000000000000004
sS'age'
p46
I0
sS'gener'
p47
S'm'
sS'lastScale'
p48
F5.5
sS'energy'
p49
F0.5
sb.(i__main__
Data_mobile
p1
(dp2
S'vel_y'
p3
F-0.62366377768423698
sS'vel_x'
p4
F-0.45267274257350287
sS'pos_x'
p5
F-107.91256494090187
sS'pos_y'
p6
F0.30058054370242432
sS'isAlive'
p7
I01
sS'geno'
p8
(i__main__
Node
p9
(dp10
S'node'
p11
(lp12
S'+'
aS'-'
aS'*'
aS'/'
asS'right'
p13
(i__main__
Node
p14
(dp15
g11
(lp16
S'+'
aS'-'
aS'*'
aS'/'
asg13
NsS'leaf'
p17
(lp18
S'indiv.alignment()'
p19
aS'indiv.cohesion()'
p20
aS'indiv.separation()'
p21
aS'indiv.target()'
p22
aS'indiv.currentVelocity()'
p23
aS'indiv.mostEnergizedNeighbor()'
p24
aS'indiv.randV()'
p25
asS'parent'
p26
g9
sS'data'
p27
g24
sS'left'
p28
Nsbsg17
(lp29
g19
ag20
ag21
ag22
ag23
ag24
ag25
asg26
Nsg27
S'+'
sg28
(i__main__
Node
p30
(dp31
g11
(lp32
S'+'
aS'-'
aS'*'
aS'/'
asg13
(i__main__
Node
p33
(dp34
g11
(lp35
S'+'
aS'-'
aS'*'
aS'/'
asg13
Nsg17
(lp36
g19
ag20
ag21
ag22
ag23
ag24
ag25
asg26
g30
sg27
g24
sg28
Nsbsg17
(lp37
g19
ag20
ag21
ag22
ag23
ag24
ag25
asg26
g9
sg27
S'-'
sg28
(i__main__
Node
p38
(dp39
g11
(lp40
S'+'
aS'-'
aS'*'
aS'/'
asg13
Nsg17
(lp41
g19
ag20
ag21
ag22
ag23
ag24
ag25
asg26
g30
sg27
g22
sg28
NsbsbsbsS'accel_x'
p42
F0
sS'accel_y'
p43
F0
sS'maxAccel'
p44
I2
sS'maxVel'
p45
F0.80000000000000004
sS'age'
p46
I0
sS'gener'
p47
S'm'
sS'lastScale'
p48
F5.5
sS'energy'
p49
F0.5
sb.(i__main__
Data_mobile
p1
(dp2
S'vel_y'
p3
F-0.44811078133239118
sS'vel_x'
p4
F0.013515338075091921
sS'pos_x'
p5
F-39.529620327230745
sS'pos_y'
p6
F70.248796738828787
sS'isAlive'
p7
I01
sS'geno'
p8
(i__main__
Node
p9
(dp10
S'node'
p11
(lp12
S'+'
aS'-'
aS'*'
aS'/'
asS'right'
p13
(i__main__
Node
p14
(dp15
g11
(lp16
S'+'
aS'-'
aS'*'
aS'/'
asg13
NsS'leaf'
p17
(lp18
S'indiv.alignment()'
p19
aS'indiv.cohesion()'
p20
aS'indiv.separation()'
p21
aS'indiv.target()'
p22
aS'indiv.currentVelocity()'
p23
aS'indiv.mostEnergizedNeighbor()'
p24
aS'indiv.randV()'
p25
asS'parent'
p26
g9
sS'data'
p27
g24
sS'left'
p28
Nsbsg17
(lp29
g19
ag20
ag21
ag22
ag23
ag24
ag25
asg26
Nsg27
S'+'
sg28
(i__main__
Node
p30
(dp31
g11
(lp32
S'+'
aS'-'
aS'*'
aS'/'
asg13
(i__main__
Node
p33
(dp34
g11
(lp35
S'+'
aS'-'
aS'*'
aS'/'
asg13
Nsg17
(lp36
g19
ag20
ag21
ag22
ag23
ag24
ag25
asg26
g30
sg27
g24
sg28
Nsbsg17
(lp37
g19
ag20
ag21
ag22
ag23
ag24
ag25
asg26
g9
sg27
S'-'
sg28
(i__main__
Node
p38
(dp39
g11
(lp40
S'+'
aS'-'
aS'*'
aS'/'
asg13
Nsg17
(lp41
g19
ag20
ag21
ag22
ag23
ag24
ag25
asg26
g30
sg27
g22
sg28
NsbsbsbsS'accel_x'
p42
F0
sS'accel_y'
p43
F0
sS'maxAccel'
p44
I2
sS'maxVel'
p45
F0.80000000000000004
sS'age'
p46
I0
sS'gener'
p47
S'm'
sS'lastScale'
p48
F5.5
sS'energy'
p49
F0.5
sb.(i__main__
Data_mobile
p1
(dp2
S'vel_y'
p3
F0.66313001140967287
sS'vel_x'
p4
F-0.052973376522190238
sS'pos_x'
p5
F-87.049491046857526
sS'pos_y'
p6
F-36.89071673355501
sS'isAlive'
p7
I01
sS'geno'
p8
(i__main__
Node
p9
(dp10
S'node'
p11
(lp12
S'+'
aS'-'
aS'*'
aS'/'
asS'right'
p13
(i__main__
Node
p14
(dp15
g11
(lp16
S'+'
aS'-'
aS'*'
aS'/'
asg13
NsS'leaf'
p17
(lp18
S'indiv.alignment()'
p19
aS'indiv.cohesion()'
p20
aS'indiv.separation()'
p21
aS'indiv.target()'
p22
aS'indiv.currentVelocity()'
p23
aS'indiv.mostEnergizedNeighbor()'
p24
aS'indiv.randV()'
p25
asS'parent'
p26
g9
sS'data'
p27
g24
sS'left'
p28
Nsbsg17
(lp29
g19
ag20
ag21
ag22
ag23
ag24
ag25
asg26
Nsg27
S'+'
sg28
(i__main__
Node
p30
(dp31
g11
(lp32
S'+'
aS'-'
aS'*'
aS'/'
asg13
(i__main__
Node
p33
(dp34
g11
(lp35
S'+'
aS'-'
aS'*'
aS'/'
asg13
(i__main__
Node
p36
(dp37
g11
(lp38
S'+'
aS'-'
aS'*'
aS'/'
asg13
Nsg17
(lp39
g19
ag20
ag21
ag22
ag23
ag24
ag25
asg26
g33
sg27
g21
sg28
Nsbsg17
(lp40
g19
ag20
ag21
ag22
ag23
ag24
ag25
asg26
g30
sg27
S'/'
sg28
(i__main__
Node
p41
(dp42
g11
(lp43
S'+'
aS'-'
aS'*'
aS'/'
asg13
Nsg17
(lp44
g19
ag20
ag21
ag22
ag23
ag24
ag25
asg26
g33
sg27
g24
sg28
Nsbsbsg17
(lp45
g19
ag20
ag21
ag22
ag23
ag24
ag25
asg26
g9
sg27
S'/'
sg28
(i__main__
Node
p46
(dp47
g11
(lp48
S'+'
aS'-'
aS'*'
aS'/'
asg13
(i__main__
Node
p49
(dp50
g11
(lp51
S'+'
aS'-'
aS'*'
aS'/'
asg13
Nsg17
(lp52
g19
ag20
ag21
ag22
ag23
ag24
ag25
asg26
g46
sg27
g23
sg28
Nsbsg17
(lp53
g19
ag20
ag21
ag22
ag23
ag24
ag25
asg26
g30
sg27
S'-'
sg28
(i__main__
Node
p54
(dp55
g11
(lp56
S'+'
aS'-'
aS'*'
aS'/'
asg13
Nsg17
(lp57
g19
ag20
ag21
ag22
ag23
ag24
ag25
asg26
g46
sg27
g25
sg28
NsbsbsbsbsS'accel_x'
p58
F0
sS'accel_y'
p59
F0
sS'maxAccel'
p60
I2
sS'maxVel'
p61
F0.80000000000000004
sS'age'
p62
I0
sS'gener'
p63
S'm'
sS'lastScale'
p64
F5.5
sS'energy'
p65
F0.5
sb.(i__main__
Data_mobile
p1
(dp2
S'vel_y'
p3
F-0.28391006892483267
sS'vel_x'
p4
F-0.6330383628967855
sS'pos_x'
p5
F-136.1340032133468
sS'pos_y'
p6
F35.430418555204213
sS'isAlive'
p7
I01
sS'geno'
p8
(i__main__
Node
p9
(dp10
S'node'
p11
(lp12
S'+'
aS'-'
aS'*'
aS'/'
asS'right'
p13
(i__main__
Node
p14
(dp15
g11
(lp16
S'+'
aS'-'
aS'*'
aS'/'
asg13
NsS'leaf'
p17
(lp18
S'indiv.alignment()'
p19
aS'indiv.cohesion()'
p20
aS'indiv.separation()'
p21
aS'indiv.target()'
p22
aS'indiv.currentVelocity()'
p23
aS'indiv.mostEnergizedNeighbor()'
p24
aS'indiv.randV()'
p25
asS'parent'
p26
g9
sS'data'
p27
g24
sS'left'
p28
Nsbsg17
(lp29
g19
ag20
ag21
ag22
ag23
ag24
ag25
asg26
Nsg27
S'+'
sg28
(i__main__
Node
p30
(dp31
g11
(lp32
S'+'
aS'-'
aS'*'
aS'/'
asg13
(i__main__
Node
p33
(dp34
g11
(lp35
S'+'
aS'-'
aS'*'
aS'/'
asg13
Nsg17
(lp36
g19
ag20
ag21
ag22
ag23
ag24
ag25
asg26
g30
sg27
g24
sg28
Nsbsg17
(lp37
g19
ag20
ag21
ag22
ag23
ag24
ag25
asg26
g9
sg27
S'-'
sg28
(i__main__
Node
p38
(dp39
g11
(lp40
S'+'
aS'-'
aS'*'
aS'/'
asg13
Nsg17
(lp41
g19
ag20
ag21
ag22
ag23
ag24
ag25
asg26
g30
sg27
g22
sg28
NsbsbsbsS'accel_x'
p42
F0
sS'accel_y'
p43
F0
sS'maxAccel'
p44
I2
sS'maxVel'
p45
F0.80000000000000004
sS'age'
p46
I0
sS'gener'
p47
S'm'
sS'lastScale'
p48
F5.5
sS'energy'
p49
F0.5
sb.(i__main__
Data_mobile
p1
(dp2
S'vel_y'
p3
F-0.65028111151394974
sS'vel_x'
p4
F-0.43082422566941581
sS'pos_x'
p5
F-143.30797931496161
sS'pos_y'
p6
F-28.083716896298245
sS'isAlive'
p7
I01
sS'geno'
p8
(i__main__
Node
p9
(dp10
S'node'
p11
(lp12
S'+'
aS'-'
aS'*'
aS'/'
asS'right'
p13
(i__main__
Node
p14
(dp15
g11
(lp16
S'+'
aS'-'
aS'*'
aS'/'
asg13
NsS'leaf'
p17
(lp18
S'indiv.alignment()'
p19
aS'indiv.cohesion()'
p20
aS'indiv.separation()'
p21
aS'indiv.target()'
p22
aS'indiv.currentVelocity()'
p23
aS'indiv.mostEnergizedNeighbor()'
p24
aS'indiv.randV()'
p25
asS'parent'
p26
g9
sS'data'
p27
g24
sS'left'
p28
Nsbsg17
(lp29
g19
ag20
ag21
ag22
ag23
ag24
ag25
asg26
Nsg27
S'+'
sg28
(i__main__
Node
p30
(dp31
g11
(lp32
S'+'
aS'-'
aS'*'
aS'/'
asg13
(i__main__
Node
p33
(dp34
g11
(lp35
S'+'
aS'-'
aS'*'
aS'/'
asg13
Nsg17
(lp36
g19
ag20
ag21
ag22
ag23
ag24
ag25
asg26
g30
sg27
g24
sg28
Nsbsg17
(lp37
g19
ag20
ag21
ag22
ag23
ag24
ag25
asg26
g9
sg27
S'-'
sg28
(i__main__
Node
p38
(dp39
g11
(lp40
S'+'
aS'-'
aS'*'
aS'/'
asg13
Nsg17
(lp41
g19
ag20
ag21
ag22
ag23
ag24
ag25
asg26
g30
sg27
g22
sg28
NsbsbsbsS'accel_x'
p42
F0
sS'accel_y'
p43
F0
sS'maxAccel'
p44
I2
sS'maxVel'
p45
F0.80000000000000004
sS'age'
p46
I0
sS'gener'
p47
S'm'
sS'lastScale'
p48
F5.5
sS'energy'
p49
F0.5
sb.(i__main__
Data_mobile
p1
(dp2
S'vel_y'
p3
F0.46982726741510161
sS'vel_x'
p4
F-0.64750470175378538
sS'pos_x'
p5
F-138.35362125223097
sS'pos_y'
p6
F-39.028710818400278
sS'isAlive'
p7
I01
sS'geno'
p8
(i__main__
Node
p9
(dp10
S'node'
p11
(lp12
S'+'
aS'-'
aS'*'
aS'/'
asS'right'
p13
(i__main__
Node
p14
(dp15
g11
(lp16
S'+'
aS'-'
aS'*'
aS'/'
asg13
NsS'leaf'
p17
(lp18
S'indiv.alignment()'
p19
aS'indiv.cohesion()'
p20
aS'indiv.separation()'
p21
aS'indiv.target()'
p22
aS'indiv.currentVelocity()'
p23
aS'indiv.mostEnergizedNeighbor()'
p24
aS'indiv.randV()'
p25
asS'parent'
p26
g9
sS'data'
p27
g24
sS'left'
p28
Nsbsg17
(lp29
g19
ag20
ag21
ag22
ag23
ag24
ag25
asg26
Nsg27
S'+'
sg28
(i__main__
Node
p30
(dp31
g11
(lp32
S'+'
aS'-'
aS'*'
aS'/'
asg13
(i__main__
Node
p33
(dp34
g11
(lp35
S'+'
aS'-'
aS'*'
aS'/'
asg13
(i__main__
Node
p36
(dp37
g11
(lp38
S'+'
aS'-'
aS'*'
aS'/'
asg13
Nsg17
(lp39
g19
ag20
ag21
ag22
ag23
ag24
ag25
asg26
g33
sg27
g24
sg28
Nsbsg17
(lp40
g19
ag20
ag21
ag22
ag23
ag24
ag25
asg26
g30
sg27
S'-'
sg28
(i__main__
Node
p41
(dp42
g11
(lp43
S'+'
aS'-'
aS'*'
aS'/'
asg13
Nsg17
(lp44
g19
ag20
ag21
ag22
ag23
ag24
ag25
asg26
g33
sg27
g22
sg28
Nsbsbsg17
(lp45
g19
ag20
ag21
ag22
ag23
ag24
ag25
asg26
g9
sg27
S'+'
sg28
(i__main__
Node
p46
(dp47
g11
(lp48
S'+'
aS'-'
aS'*'
aS'/'
asg13
(i__main__
Node
p49
(dp50
g11
(lp51
S'+'
aS'-'
aS'*'
aS'/'
asg13
Nsg17
(lp52
g19
ag20
ag21
ag22
ag23
ag24
ag25
asg26
g46
sg27
g24
sg28
Nsbsg17
(lp53
g19
ag20
ag21
ag22
ag23
ag24
ag25
asg26
g30
sg27
S'-'
sg28
(i__main__
Node
p54
(dp55
g11
(lp56
S'+'
aS'-'
aS'*'
aS'/'
asg13
Nsg17
(lp57
g19
ag20
ag21
ag22
ag23
ag24
ag25
asg26
g46
sg27
g22
sg28
NsbsbsbsbsS'accel_x'
p58
F-1.9390628938273771
sS'accel_y'
p59
F0.48993376468845129
sS'maxAccel'
p60
I2
sS'maxVel'
p61
F0.80000000000000004
sS'age'
p62
I50
sS'gener'
p63
S'm'
sS'lastScale'
p64
F5.5
sS'energy'
p65
I0
sb.(i__main__
Data_mobile
p1
(dp2
S'vel_y'
p3
F0.46114056993821601
sS'vel_x'
p4
F-0.65371964538099769
sS'pos_x'
p5
F-163.15377396254229
sS'pos_y'
p6
F-76.153065732850763
sS'isAlive'
p7
I01
sS'geno'
p8
(i__main__
Node
p9
(dp10
S'node'
p11
(lp12
S'+'
aS'-'
aS'*'
aS'/'
asS'right'
p13
(i__main__
Node
p14
(dp15
g11
(lp16
S'+'
aS'-'
aS'*'
aS'/'
asg13
NsS'leaf'
p17
(lp18
S'indiv.alignment()'
p19
aS'indiv.cohesion()'
p20
aS'indiv.separation()'
p21
aS'indiv.target()'
p22
aS'indiv.currentVelocity()'
p23
aS'indiv.mostEnergizedNeighbor()'
p24
aS'indiv.randV()'
p25
asS'parent'
p26
g9
sS'data'
p27
g24
sS'left'
p28
Nsbsg17
(lp29
g19
ag20
ag21
ag22
ag23
ag24
ag25
asg26
Nsg27
S'+'
sg28
(i__main__
Node
p30
(dp31
g11
(lp32
S'+'
aS'-'
aS'*'
aS'/'
asg13
(i__main__
Node
p33
(dp34
g11
(lp35
S'+'
aS'-'
aS'*'
aS'/'
asg13
Nsg17
(lp36
g19
ag20
ag21
ag22
ag23
ag24
ag25
asg26
g30
sg27
g19
sg28
Nsbsg17
(lp37
g19
ag20
ag21
ag22
ag23
ag24
ag25
asg26
g9
sg27
S'*'
sg28
(i__main__
Node
p38
(dp39
g11
(lp40
S'+'
aS'-'
aS'*'
aS'/'
asg13
Nsg17
(lp41
g19
ag20
ag21
ag22
ag23
ag24
ag25
asg26
g30
sg27
g23
sg28
NsbsbsbsS'accel_x'
p42
F-1.5190767505623193
sS'accel_y'
p43
F1.3009249885758303
sS'maxAccel'
p44
I2
sS'maxVel'
p45
F0.80000000000000004
sS'age'
p46
I50
sS'gener'
p47
S'm'
sS'lastScale'
p48
F5.5
sS'energy'
p49
I0
sb.(i__main__
Data_mobile
p1
(dp2
S'vel_y'
p3
F0.46611575240816161
sS'vel_x'
p4
F-0.65018159413887844
sS'pos_x'
p5
F-163.45082650686516
sS'pos_y'
p6
F-76.468239081723283
sS'isAlive'
p7
I01
sS'geno'
p8
(i__main__
Node
p9
(dp10
S'node'
p11
(lp12
S'+'
aS'-'
aS'*'
aS'/'
asS'right'
p13
(i__main__
Node
p14
(dp15
g11
(lp16
S'+'
aS'-'
aS'*'
aS'/'
asg13
NsS'leaf'
p17
(lp18
S'indiv.alignment()'
p19
aS'indiv.cohesion()'
p20
aS'indiv.separation()'
p21
aS'indiv.target()'
p22
aS'indiv.currentVelocity()'
p23
aS'indiv.mostEnergizedNeighbor()'
p24
aS'indiv.randV()'
p25
asS'parent'
p26
g9
sS'data'
p27
g24
sS'left'
p28
Nsbsg17
(lp29
g19
ag20
ag21
ag22
ag23
ag24
ag25
asg26
Nsg27
S'+'
sg28
(i__main__
Node
p30
(dp31
g11
(lp32
S'+'
aS'-'
aS'*'
aS'/'
asg13
Nsg17
(lp33
g19
ag20
ag21
ag22
ag23
ag24
ag25
asg26
g9
sg27
g19
sg28
NsbsbsS'accel_x'
p34
F-1.5324928573825043
sS'accel_y'
p35
F1.2850936316360795
sS'maxAccel'
p36
I2
sS'maxVel'
p37
F0.80000000000000004
sS'age'
p38
I50
sS'gener'
p39
S'm'
sS'lastScale'
p40
F5.5
sS'energy'
p41
I0
sb.(i__main__
Data_mobile
p1
(dp2
S'vel_y'
p3
F0.42959020841854167
sS'vel_x'
p4
F-0.674872027002834
sS'pos_x'
p5
F-161.23406878844875
sS'pos_y'
p6
F-77.502438061369574
sS'isAlive'
p7
I01
sS'geno'
p8
(i__main__
Node
p9
(dp10
S'node'
p11
(lp12
S'+'
aS'-'
aS'*'
aS'/'
asS'right'
p13
(i__main__
Node
p14
(dp15
g11
(lp16
S'+'
aS'-'
aS'*'
aS'/'
asg13
NsS'leaf'
p17
(lp18
S'indiv.alignment()'
p19
aS'indiv.cohesion()'
p20
aS'indiv.separation()'
p21
aS'indiv.target()'
p22
aS'indiv.currentVelocity()'
p23
aS'indiv.mostEnergizedNeighbor()'
p24
aS'indiv.randV()'
p25
asS'parent'
p26
g9
sS'data'
p27
g24
sS'left'
p28
Nsbsg17
(lp29
g19
ag20
ag21
ag22
ag23
ag24
ag25
asg26
Nsg27
S'+'
sg28
(i__main__
Node
p30
(dp31
g11
(lp32
S'+'
aS'-'
aS'*'
aS'/'
asg13
(i__main__
Node
p33
(dp34
g11
(lp35
S'+'
aS'-'
aS'*'
aS'/'
asg13
Nsg17
(lp36
g19
ag20
ag21
ag22
ag23
ag24
ag25
asg26
g30
sg27
g19
sg28
Nsbsg17
(lp37
g19
ag20
ag21
ag22
ag23
ag24
ag25
asg26
g9
sg27
S'*'
sg28
(i__main__
Node
p38
(dp39
g11
(lp40
S'+'
aS'-'
aS'*'
aS'/'
asg13
Nsg17
(lp41
g19
ag20
ag21
ag22
ag23
ag24
ag25
asg26
g30
sg27
g23
sg28
NsbsbsbsS'accel_x'
p42
F-1.5772318952055928
sS'accel_y'
p43
F1.2297721531837411
sS'maxAccel'
p44
I2
sS'maxVel'
p45
F0.80000000000000004
sS'age'
p46
I50
sS'gener'
p47
S'm'
sS'lastScale'
p48
F5.5
sS'energy'
p49
I0
sb.(i__main__
Data_mobile
p1
(dp2
S'vel_y'
p3
I0
sS'vel_x'
p4
I0
sS'pos_x'
p5
I-9579
sS'pos_y'
p6
I9779
sS'isAlive'
p7
I00
sS'geno'
p8
(i__main__
Node
p9
(dp10
S'node'
p11
(lp12
S'+'
aS'-'
aS'*'
aS'/'
asS'right'
p13
(i__main__
Node
p14
(dp15
g11
(lp16
S'+'
aS'-'
aS'*'
aS'/'
asg13
NsS'leaf'
p17
(lp18
S'indiv.alignment()'
p19
aS'indiv.cohesion()'
p20
aS'indiv.separation()'
p21
aS'indiv.target()'
p22
aS'indiv.currentVelocity()'
p23
aS'indiv.mostEnergizedNeighbor()'
p24
aS'indiv.randV()'
p25
asS'parent'
p26
g9
sS'data'
p27
g24
sS'left'
p28
Nsbsg17
(lp29
g19
ag20
ag21
ag22
ag23
ag24
ag25
asg26
Nsg27
S'+'
sg28
(i__main__
Node
p30
(dp31
g11
(lp32
S'+'
aS'-'
aS'*'
aS'/'
asg13
(i__main__
Node
p33
(dp34
g11
(lp35
S'+'
aS'-'
aS'*'
aS'/'
asg13
Nsg17
(lp36
g19
ag20
ag21
ag22
ag23
ag24
ag25
asg26
g30
sg27
g24
sg28
Nsbsg17
(lp37
g19
ag20
ag21
ag22
ag23
ag24
ag25
asg26
g9
sg27
S'-'
sg28
(i__main__
Node
p38
(dp39
g11
(lp40
S'+'
aS'-'
aS'*'
aS'/'
asg13
Nsg17
(lp41
g19
ag20
ag21
ag22
ag23
ag24
ag25
asg26
g30
sg27
g22
sg28
NsbsbsbsS'accel_x'
p42
F0
sS'accel_y'
p43
F0
sS'maxAccel'
p44
I2
sS'maxVel'
p45
F0.80000000000000004
sS'age'
p46
I0
sS'gener'
p47
S'm'
sS'lastScale'
p48
F5.5
sS'energy'
p49
F0.5
sb.(i__main__
Data_mobile
p1
(dp2
S'vel_y'
p3
I0
sS'vel_x'
p4
I0
sS'pos_x'
p5
I-9579
sS'pos_y'
p6
I9779
sS'isAlive'
p7
I00
sS'geno'
p8
(i__main__
Node
p9
(dp10
S'node'
p11
(lp12
S'+'
aS'-'
aS'*'
aS'/'
asS'right'
p13
(i__main__
Node
p14
(dp15
g11
(lp16
S'+'
aS'-'
aS'*'
aS'/'
asg13
NsS'leaf'
p17
(lp18
S'indiv.alignment()'
p19
aS'indiv.cohesion()'
p20
aS'indiv.separation()'
p21
aS'indiv.target()'
p22
aS'indiv.currentVelocity()'
p23
aS'indiv.mostEnergizedNeighbor()'
p24
aS'indiv.randV()'
p25
asS'parent'
p26
g9
sS'data'
p27
g24
sS'left'
p28
Nsbsg17
(lp29
g19
ag20
ag21
ag22
ag23
ag24
ag25
asg26
Nsg27
S'+'
sg28
(i__main__
Node
p30
(dp31
g11
(lp32
S'+'
aS'-'
aS'*'
aS'/'
asg13
(i__main__
Node
p33
(dp34
g11
(lp35
S'+'
aS'-'
aS'*'
aS'/'
asg13
Nsg17
(lp36
g19
ag20
ag21
ag22
ag23
ag24
ag25
asg26
g30
sg27
g24
sg28
Nsbsg17
(lp37
g19
ag20
ag21
ag22
ag23
ag24
ag25
asg26
g9
sg27
S'-'
sg28
(i__main__
Node
p38
(dp39
g11
(lp40
S'+'
aS'-'
aS'*'
aS'/'
asg13
Nsg17
(lp41
g19
ag20
ag21
ag22
ag23
ag24
ag25
asg26
g30
sg27
g22
sg28
NsbsbsbsS'accel_x'
p42
F0
sS'accel_y'
p43
F0
sS'maxAccel'
p44
I2
sS'maxVel'
p45
F0.80000000000000004
sS'age'
p46
I0
sS'gener'
p47
S'm'
sS'lastScale'
p48
F5.5
sS'energy'
p49
F0.5
sb.(i__main__
Data_mobile
p1
(dp2
S'vel_y'
p3
I0
sS'vel_x'
p4
I0
sS'pos_x'
p5
I-9579
sS'pos_y'
p6
I9779
sS'isAlive'
p7
I00
sS'geno'
p8
(i__main__
Node
p9
(dp10
S'node'
p11
(lp12
S'+'
aS'-'
aS'*'
aS'/'
asS'right'
p13
(i__main__
Node
p14
(dp15
g11
(lp16
S'+'
aS'-'
aS'*'
aS'/'
asg13
NsS'leaf'
p17
(lp18
S'indiv.alignment()'
p19
aS'indiv.cohesion()'
p20
aS'indiv.separation()'
p21
aS'indiv.target()'
p22
aS'indiv.currentVelocity()'
p23
aS'indiv.mostEnergizedNeighbor()'
p24
aS'indiv.randV()'
p25
asS'parent'
p26
g9
sS'data'
p27
g24
sS'left'
p28
Nsbsg17
(lp29
g19
ag20
ag21
ag22
ag23
ag24
ag25
asg26
Nsg27
S'+'
sg28
(i__main__
Node
p30
(dp31
g11
(lp32
S'+'
aS'-'
aS'*'
aS'/'
asg13
(i__main__
Node
p33
(dp34
g11
(lp35
S'+'
aS'-'
aS'*'
aS'/'
asg13
Nsg17
(lp36
g19
ag20
ag21
ag22
ag23
ag24
ag25
asg26
g30
sg27
g24
sg28
Nsbsg17
(lp37
g19
ag20
ag21
ag22
ag23
ag24
ag25
asg26
g9
sg27
S'-'
sg28
(i__main__
Node
p38
(dp39
g11
(lp40
S'+'
aS'-'
aS'*'
aS'/'
asg13
Nsg17
(lp41
g19
ag20
ag21
ag22
ag23
ag24
ag25
asg26
g30
sg27
g22
sg28
NsbsbsbsS'accel_x'
p42
F0
sS'accel_y'
p43
F0
sS'maxAccel'
p44
I2
sS'maxVel'
p45
F0.80000000000000004
sS'age'
p46
I0
sS'gener'
p47
S'm'
sS'lastScale'
p48
F5.5
sS'energy'
p49
F0.5
sb.(i__main__
Data_mobile
p1
(dp2
S'vel_y'
p3
I0
sS'vel_x'
p4
I0
sS'pos_x'
p5
I-9579
sS'pos_y'
p6
I9779
sS'isAlive'
p7
I00
sS'geno'
p8
(i__main__
Node
p9
(dp10
S'node'
p11
(lp12
S'+'
aS'-'
aS'*'
aS'/'
asS'right'
p13
(i__main__
Node
p14
(dp15
g11
(lp16
S'+'
aS'-'
aS'*'
aS'/'
asg13
NsS'leaf'
p17
(lp18
S'indiv.alignment()'
p19
aS'indiv.cohesion()'
p20
aS'indiv.separation()'
p21
aS'indiv.target()'
p22
aS'indiv.currentVelocity()'
p23
aS'indiv.mostEnergizedNeighbor()'
p24
aS'indiv.randV()'
p25
asS'parent'
p26
g9
sS'data'
p27
g24
sS'left'
p28
Nsbsg17
(lp29
g19
ag20
ag21
ag22
ag23
ag24
ag25
asg26
Nsg27
S'+'
sg28
(i__main__
Node
p30
(dp31
g11
(lp32
S'+'
aS'-'
aS'*'
aS'/'
asg13
(i__main__
Node
p33
(dp34
g11
(lp35
S'+'
aS'-'
aS'*'
aS'/'
asg13
Nsg17
(lp36
g19
ag20
ag21
ag22
ag23
ag24
ag25
asg26
g30
sg27
g24
sg28
Nsbsg17
(lp37
g19
ag20
ag21
ag22
ag23
ag24
ag25
asg26
g9
sg27
S'-'
sg28
(i__main__
Node
p38
(dp39
g11
(lp40
S'+'
aS'-'
aS'*'
aS'/'
asg13
Nsg17
(lp41
g19
ag20
ag21
ag22
ag23
ag24
ag25
asg26
g30
sg27
g22
sg28
NsbsbsbsS'accel_x'
p42
F0
sS'accel_y'
p43
F0
sS'maxAccel'
p44
I2
sS'maxVel'
p45
F0.80000000000000004
sS'age'
p46
I0
sS'gener'
p47
S'm'
sS'lastScale'
p48
F5.5
sS'energy'
p49
F0.5
sb.(i__main__
Data_mobile
p1
(dp2
S'vel_y'
p3
I0
sS'vel_x'
p4
I0
sS'pos_x'
p5
I-9579
sS'pos_y'
p6
I9779
sS'isAlive'
p7
I00
sS'geno'
p8
(i__main__
Node
p9
(dp10
S'node'
p11
(lp12
S'+'
aS'-'
aS'*'
aS'/'
asS'right'
p13
(i__main__
Node
p14
(dp15
g11
(lp16
S'+'
aS'-'
aS'*'
aS'/'
asg13
NsS'leaf'
p17
(lp18
S'indiv.alignment()'
p19
aS'indiv.cohesion()'
p20
aS'indiv.separation()'
p21
aS'indiv.target()'
p22
aS'indiv.currentVelocity()'
p23
aS'indiv.mostEnergizedNeighbor()'
p24
aS'indiv.randV()'
p25
asS'parent'
p26
g9
sS'data'
p27
g24
sS'left'
p28
Nsbsg17
(lp29
g19
ag20
ag21
ag22
ag23
ag24
ag25
asg26
Nsg27
S'+'
sg28
(i__main__
Node
p30
(dp31
g11
(lp32
S'+'
aS'-'
aS'*'
aS'/'
asg13
(i__main__
Node
p33
(dp34
g11
(lp35
S'+'
aS'-'
aS'*'
aS'/'
asg13
(i__main__
Node
p36
(dp37
g11
(lp38
S'+'
aS'-'
aS'*'
aS'/'
asg13
Nsg17
(lp39
g19
ag20
ag21
ag22
ag23
ag24
ag25
asg26
g33
sg27
g19
sg28
Nsbsg17
(lp40
g19
ag20
ag21
ag22
ag23
ag24
ag25
asg26
g30
sg27
S'*'
sg28
(i__main__
Node
p41
(dp42
g11
(lp43
S'+'
aS'-'
aS'*'
aS'/'
asg13
Nsg17
(lp44
g19
ag20
ag21
ag22
ag23
ag24
ag25
asg26
g33
sg27
g23
sg28
Nsbsbsg17
(lp45
g19
ag20
ag21
ag22
ag23
ag24
ag25
asg26
g9
sg27
S'+'
sg28
(i__main__
Node
p46
(dp47
g11
(lp48
S'+'
aS'-'
aS'*'
aS'/'
asg13
(i__main__
Node
p49
(dp50
g11
(lp51
S'+'
aS'-'
aS'*'
aS'/'
asg13
Nsg17
(lp52
g19
ag20
ag21
ag22
ag23
ag24
ag25
asg26
g46
sg27
g24
sg28
Nsbsg17
(lp53
g19
ag20
ag21
ag22
ag23
ag24
ag25
asg26
g30
sg27
S'-'
sg28
(i__main__
Node
p54
(dp55
g11
(lp56
S'+'
aS'-'
aS'*'
aS'/'
asg13
Nsg17
(lp57
g19
ag20
ag21
ag22
ag23
ag24
ag25
asg26
g46
sg27
g22
sg28
NsbsbsbsbsS'accel_x'
p58
F0
sS'accel_y'
p59
F0
sS'maxAccel'
p60
I2
sS'maxVel'
p61
F0.80000000000000004
sS'age'
p62
I0
sS'gener'
p63
S'm'
sS'lastScale'
p64
F5.5
sS'energy'
p65
F0.5
sb.(i__main__
Data_mobile
p1
(dp2
S'vel_y'
p3
I0
sS'vel_x'
p4
I0
sS'pos_x'
p5
I-9579
sS'pos_y'
p6
I9779
sS'isAlive'
p7
I00
sS'geno'
p8
(i__main__
Node
p9
(dp10
S'node'
p11
(lp12
S'+'
aS'-'
aS'*'
aS'/'
asS'right'
p13
(i__main__
Node
p14
(dp15
g11
(lp16
S'+'
aS'-'
aS'*'
aS'/'
asg13
NsS'leaf'
p17
(lp18
S'indiv.alignment()'
p19
aS'indiv.cohesion()'
p20
aS'indiv.separation()'
p21
aS'indiv.target()'
p22
aS'indiv.currentVelocity()'
p23
aS'indiv.mostEnergizedNeighbor()'
p24
aS'indiv.randV()'
p25
asS'parent'
p26
g9
sS'data'
p27
g24
sS'left'
p28
Nsbsg17
(lp29
g19
ag20
ag21
ag22
ag23
ag24
ag25
asg26
Nsg27
S'+'
sg28
(i__main__
Node
p30
(dp31
g11
(lp32
S'+'
aS'-'
aS'*'
aS'/'
asg13
(i__main__
Node
p33
(dp34
g11
(lp35
S'+'
aS'-'
aS'*'
aS'/'
asg13
(i__main__
Node
p36
(dp37
g11
(lp38
S'+'
aS'-'
aS'*'
aS'/'
asg13
Nsg17
(lp39
g19
ag20
ag21
ag22
ag23
ag24
ag25
asg26
g33
sg27
g19
sg28
Nsbsg17
(lp40
g19
ag20
ag21
ag22
ag23
ag24
ag25
asg26
g30
sg27
S'*'
sg28
(i__main__
Node
p41
(dp42
g11
(lp43
S'+'
aS'-'
aS'*'
aS'/'
asg13
Nsg17
(lp44
g19
ag20
ag21
ag22
ag23
ag24
ag25
asg26
g33
sg27
g23
sg28
Nsbsbsg17
(lp45
g19
ag20
ag21
ag22
ag23
ag24
ag25
asg26
g9
sg27
S'+'
sg28
(i__main__
Node
p46
(dp47
g11
(lp48
S'+'
aS'-'
aS'*'
aS'/'
asg13
(i__main__
Node
p49
(dp50
g11
(lp51
S'+'
aS'-'
aS'*'
aS'/'
asg13
Nsg17
(lp52
g19
ag20
ag21
ag22
ag23
ag24
ag25
asg26
g46
sg27
g24
sg28
Nsbsg17
(lp53
g19
ag20
ag21
ag22
ag23
ag24
ag25
asg26
g30
sg27
S'-'
sg28
(i__main__
Node
p54
(dp55
g11
(lp56
S'+'
aS'-'
aS'*'
aS'/'
asg13
Nsg17
(lp57
g19
ag20
ag21
ag22
ag23
ag24
ag25
asg26
g46
sg27
g22
sg28
NsbsbsbsbsS'accel_x'
p58
F0
sS'accel_y'
p59
F0
sS'maxAccel'
p60
I2
sS'maxVel'
p61
F0.80000000000000004
sS'age'
p62
I0
sS'gener'
p63
S'm'
sS'lastScale'
p64
F5.5
sS'energy'
p65
F0.5
sb.(i__main__
Data_mobile
p1
(dp2
S'vel_y'
p3
I0
sS'vel_x'
p4
I0
sS'pos_x'
p5
I-9579
sS'pos_y'
p6
I9779
sS'isAlive'
p7
I00
sS'geno'
p8
(i__main__
Node
p9
(dp10
S'node'
p11
(lp12
S'+'
aS'-'
aS'*'
aS'/'
asS'right'
p13
(i__main__
Node
p14
(dp15
g11
(lp16
S'+'
aS'-'
aS'*'
aS'/'
asg13
NsS'leaf'
p17
(lp18
S'indiv.alignment()'
p19
aS'indiv.cohesion()'
p20
aS'indiv.separation()'
p21
aS'indiv.target()'
p22
aS'indiv.currentVelocity()'
p23
aS'indiv.mostEnergizedNeighbor()'
p24
aS'indiv.randV()'
p25
asS'parent'
p26
g9
sS'data'
p27
g24
sS'left'
p28
Nsbsg17
(lp29
g19
ag20
ag21
ag22
ag23
ag24
ag25
asg26
Nsg27
S'+'
sg28
(i__main__
Node
p30
(dp31
g11
(lp32
S'+'
aS'-'
aS'*'
aS'/'
asg13
(i__main__
Node
p33
(dp34
g11
(lp35
S'+'
aS'-'
aS'*'
aS'/'
asg13
(i__main__
Node
p36
(dp37
g11
(lp38
S'+'
aS'-'
aS'*'
aS'/'
asg13
Nsg17
(lp39
g19
ag20
ag21
ag22
ag23
ag24
ag25
asg26
g33
sg27
g19
sg28
Nsbsg17
(lp40
g19
ag20
ag21
ag22
ag23
ag24
ag25
asg26
g30
sg27
S'*'
sg28
(i__main__
Node
p41
(dp42
g11
(lp43
S'+'
aS'-'
aS'*'
aS'/'
asg13
Nsg17
(lp44
g19
ag20
ag21
ag22
ag23
ag24
ag25
asg26
g33
sg27
g23
sg28
Nsbsbsg17
(lp45
g19
ag20
ag21
ag22
ag23
ag24
ag25
asg26
g9
sg27
S'+'
sg28
(i__main__
Node
p46
(dp47
g11
(lp48
S'+'
aS'-'
aS'*'
aS'/'
asg13
(i__main__
Node
p49
(dp50
g11
(lp51
S'+'
aS'-'
aS'*'
aS'/'
asg13
Nsg17
(lp52
g19
ag20
ag21
ag22
ag23
ag24
ag25
asg26
g46
sg27
g24
sg28
Nsbsg17
(lp53
g19
ag20
ag21
ag22
ag23
ag24
ag25
asg26
g30
sg27
S'-'
sg28
(i__main__
Node
p54
(dp55
g11
(lp56
S'+'
aS'-'
aS'*'
aS'/'
asg13
Nsg17
(lp57
g19
ag20
ag21
ag22
ag23
ag24
ag25
asg26
g46
sg27
g22
sg28
NsbsbsbsbsS'accel_x'
p58
F0
sS'accel_y'
p59
F0
sS'maxAccel'
p60
I2
sS'maxVel'
p61
F0.80000000000000004
sS'age'
p62
I0
sS'gener'
p63
S'm'
sS'lastScale'
p64
F5.5
sS'energy'
p65
F0.5
sb.(i__main__
Data_mobile
p1
(dp2
S'vel_y'
p3
I0
sS'vel_x'
p4
I0
sS'pos_x'
p5
I-9579
sS'pos_y'
p6
I9779
sS'isAlive'
p7
I00
sS'geno'
p8
(i__main__
Node
p9
(dp10
S'node'
p11
(lp12
S'+'
aS'-'
aS'*'
aS'/'
asS'right'
p13
(i__main__
Node
p14
(dp15
g11
(lp16
S'+'
aS'-'
aS'*'
aS'/'
asg13
NsS'leaf'
p17
(lp18
S'indiv.alignment()'
p19
aS'indiv.cohesion()'
p20
aS'indiv.separation()'
p21
aS'indiv.target()'
p22
aS'indiv.currentVelocity()'
p23
aS'indiv.mostEnergizedNeighbor()'
p24
aS'indiv.randV()'
p25
asS'parent'
p26
g9
sS'data'
p27
g24
sS'left'
p28
Nsbsg17
(lp29
g19
ag20
ag21
ag22
ag23
ag24
ag25
asg26
Nsg27
S'+'
sg28
(i__main__
Node
p30
(dp31
g11
(lp32
S'+'
aS'-'
aS'*'
aS'/'
asg13
(i__main__
Node
p33
(dp34
g11
(lp35
S'+'
aS'-'
aS'*'
aS'/'
asg13
(i__main__
Node
p36
(dp37
g11
(lp38
S'+'
aS'-'
aS'*'
aS'/'
asg13
(i__main__
Node
p39
(dp40
g11
(lp41
S'+'
aS'-'
aS'*'
aS'/'
asg13
(i__main__
Node
p42
(dp43
g11
(lp44
S'+'
aS'-'
aS'*'
aS'/'
asg13
Nsg17
(lp45
g19
ag20
ag21
ag22
ag23
ag24
ag25
asg26
g39
sg27
g22
sg28
Nsbsg17
(lp46
g19
ag20
ag21
ag22
ag23
ag24
ag25
asg26
g36
sg27
S'*'
sg28
(i__main__
Node
p47
(dp48
g11
(lp49
S'+'
aS'-'
aS'*'
aS'/'
asg13
Nsg17
(lp50
g19
ag20
ag21
ag22
ag23
ag24
ag25
asg26
g39
sg27
g23
sg28
Nsbsbsg17
(lp51
g19
ag20
ag21
ag22
ag23
ag24
ag25
asg26
g33
sg27
S'/'
sg28
(i__main__
Node
p52
(dp53
g11
(lp54
S'+'
aS'-'
aS'*'
aS'/'
asg13
(i__main__
Node
p55
(dp56
g11
(lp57
S'+'
aS'-'
aS'*'
aS'/'
asg13
Nsg17
(lp58
g19
ag20
ag21
ag22
ag23
ag24
ag25
asg26
g52
sg27
g20
sg28
Nsbsg17
(lp59
g19
ag20
ag21
ag22
ag23
ag24
ag25
asg26
g36
sg27
S'*'
sg28
(i__main__
Node
p60
(dp61
g11
(lp62
S'+'
aS'-'
aS'*'
aS'/'
asg13
Nsg17
(lp63
g19
ag20
ag21
ag22
ag23
ag24
ag25
asg26
g52
sg27
g25
sg28
Nsbsbsbsg17
(lp64
g19
ag20
ag21
ag22
ag23
ag24
ag25
asg26
g30
sg27
S'/'
sg28
(i__main__
Node
p65
(dp66
g11
(lp67
S'+'
aS'-'
aS'*'
aS'/'
asg13
(i__main__
Node
p68
(dp69
g11
(lp70
S'+'
aS'-'
aS'*'
aS'/'
asg13
(i__main__
Node
p71
(dp72
g11
(lp73
S'+'
aS'-'
aS'*'
aS'/'
asg13
Nsg17
(lp74
g19
ag20
ag21
ag22
ag23
ag24
ag25
asg26
g68
sg27
g21
sg28
Nsbsg17
(lp75
g19
ag20
ag21
ag22
ag23
ag24
ag25
asg26
g65
sg27
S'-'
sg28
(i__main__
Node
p76
(dp77
g11
(lp78
S'+'
aS'-'
aS'*'
aS'/'
asg13
Nsg17
(lp79
g19
ag20
ag21
ag22
ag23
ag24
ag25
asg26
g68
sg27
g22
sg28
Nsbsbsg17
(lp80
g19
ag20
ag21
ag22
ag23
ag24
ag25
asg26
g33
sg27
S'/'
sg28
(i__main__
Node
p81
(dp82
g11
(lp83
S'+'
aS'-'
aS'*'
aS'/'
asg13
(i__main__
Node
p84
(dp85
g11
(lp86
S'+'
aS'-'
aS'*'
aS'/'
asg13
Nsg17
(lp87
g19
ag20
ag21
ag22
ag23
ag24
ag25
asg26
g81
sg27
g24
sg28
Nsbsg17
(lp88
g19
ag20
ag21
ag22
ag23
ag24
ag25
asg26
g65
sg27
S'+'
sg28
(i__main__
Node
p89
(dp90
g11
(lp91
S'+'
aS'-'
aS'*'
aS'/'
asg13
Nsg17
(lp92
g19
ag20
ag21
ag22
ag23
ag24
ag25
asg26
g81
sg27
g20
sg28
Nsbsbsbsbsg17
(lp93
g19
ag20
ag21
ag22
ag23
ag24
ag25
asg26
g9
sg27
S'+'
sg28
(i__main__
Node
p94
(dp95
g11
(lp96
S'+'
aS'-'
aS'*'
aS'/'
asg13
(i__main__
Node
p97
(dp98
g11
(lp99
S'+'
aS'-'
aS'*'
aS'/'
asg13
(i__main__
Node
p100
(dp101
g11
(lp102
S'+'
aS'-'
aS'*'
aS'/'
asg13
(i__main__
Node
p103
(dp104
g11
(lp105
S'+'
aS'-'
aS'*'
aS'/'
asg13
Nsg17
(lp106
g19
ag20
ag21
ag22
ag23
ag24
ag25
asg26
g100
sg27
g25
sg28
Nsbsg17
(lp107
g19
ag20
ag21
ag22
ag23
ag24
ag25
asg26
g97
sg27
S'+'
sg28
(i__main__
Node
p108
(dp109
g11
(lp110
S'+'
aS'-'
aS'*'
aS'/'
asg13
Nsg17
(lp111
g19
ag20
ag21
ag22
ag23
ag24
ag25
asg26
g100
sg27
g20
sg28
Nsbsbsg17
(lp112
g19
ag20
ag21
ag22
ag23
ag24
ag25
asg26
g94
sg27
S'-'
sg28
(i__main__
Node
p113
(dp114
g11
(lp115
S'+'
aS'-'
aS'*'
aS'/'
asg13
(i__main__
Node
p116
(dp117
g11
(lp118
S'+'
aS'-'
aS'*'
aS'/'
asg13
Nsg17
(lp119
g19
ag20
ag21
ag22
ag23
ag24
ag25
asg26
g113
sg27
g19
sg28
Nsbsg17
(lp120
g19
ag20
ag21
ag22
ag23
ag24
ag25
asg26
g97
sg27
S'-'
sg28
(i__main__
Node
p121
(dp122
g11
(lp123
S'+'
aS'-'
aS'*'
aS'/'
asg13
Nsg17
(lp124
g19
ag20
ag21
ag22
ag23
ag24
ag25
asg26
g113
sg27
g22
sg28
Nsbsbsbsg17
(lp125
g19
ag20
ag21
ag22
ag23
ag24
ag25
asg26
g30
sg27
S'*'
sg28
(i__main__
Node
p126
(dp127
g11
(lp128
S'+'
aS'-'
aS'*'
aS'/'
asg13
(i__main__
Node
p129
(dp130
g11
(lp131
S'+'
aS'-'
aS'*'
aS'/'
asg13
(i__main__
Node
p132
(dp133
g11
(lp134
S'+'
aS'-'
aS'*'
aS'/'
asg13
Nsg17
(lp135
g19
ag20
ag21
ag22
ag23
ag24
ag25
asg26
g129
sg27
g20
sg28
Nsbsg17
(lp136
g19
ag20
ag21
ag22
ag23
ag24
ag25
asg26
g126
sg27
S'+'
sg28
(i__main__
Node
p137
(dp138
g11
(lp139
S'+'
aS'-'
aS'*'
aS'/'
asg13
Nsg17
(lp140
g19
ag20
ag21
ag22
ag23
ag24
ag25
asg26
g129
sg27
g20
sg28
Nsbsbsg17
(lp141
g19
ag20
ag21
ag22
ag23
ag24
ag25
asg26
g94
sg27
S'-'
sg28
(i__main__
Node
p142
(dp143
g11
(lp144
S'+'
aS'-'
aS'*'
aS'/'
asg13
(i__main__
Node
p145
(dp146
g11
(lp147
S'+'
aS'-'
aS'*'
aS'/'
asg13
Nsg17
(lp148
g19
ag20
ag21
ag22
ag23
ag24
ag25
asg26
g142
sg27
g25
sg28
Nsbsg17
(lp149
g19
ag20
ag21
ag22
ag23
ag24
ag25
asg26
g126
sg27
S'*'
sg28
(i__main__
Node
p150
(dp151
g11
(lp152
S'+'
aS'-'
aS'*'
aS'/'
asg13
Nsg17
(lp153
g19
ag20
ag21
ag22
ag23
ag24
ag25
asg26
g142
sg27
g25
sg28
NsbsbsbsbsbsbsS'accel_x'
p154
F0
sS'accel_y'
p155
F0
sS'maxAccel'
p156
I2
sS'maxVel'
p157
F0.80000000000000004
sS'age'
p158
I0
sS'gener'
p159
S'm'
sS'lastScale'
p160
F5.5
sS'energy'
p161
F0.5
sb.(i__main__
Data_mobile
p1
(dp2
S'vel_y'
p3
I0
sS'vel_x'
p4
I0
sS'pos_x'
p5
I-9579
sS'pos_y'
p6
I9779
sS'isAlive'
p7
I00
sS'geno'
p8
(i__main__
Node
p9
(dp10
S'node'
p11
(lp12
S'+'
aS'-'
aS'*'
aS'/'
asS'right'
p13
(i__main__
Node
p14
(dp15
g11
(lp16
S'+'
aS'-'
aS'*'
aS'/'
asg13
NsS'leaf'
p17
(lp18
S'indiv.alignment()'
p19
aS'indiv.cohesion()'
p20
aS'indiv.separation()'
p21
aS'indiv.target()'
p22
aS'indiv.currentVelocity()'
p23
aS'indiv.mostEnergizedNeighbor()'
p24
aS'indiv.randV()'
p25
asS'parent'
p26
g9
sS'data'
p27
g24
sS'left'
p28
Nsbsg17
(lp29
g19
ag20
ag21
ag22
ag23
ag24
ag25
asg26
Nsg27
S'+'
sg28
(i__main__
Node
p30
(dp31
g11
(lp32
S'+'
aS'-'
aS'*'
aS'/'
asg13
(i__main__
Node
p33
(dp34
g11
(lp35
S'+'
aS'-'
aS'*'
aS'/'
asg13
Nsg17
(lp36
g19
ag20
ag21
ag22
ag23
ag24
ag25
asg26
g30
sg27
g24
sg28
Nsbsg17
(lp37
g19
ag20
ag21
ag22
ag23
ag24
ag25
asg26
g9
sg27
S'-'
sg28
(i__main__
Node
p38
(dp39
g11
(lp40
S'+'
aS'-'
aS'*'
aS'/'
asg13
Nsg17
(lp41
g19
ag20
ag21
ag22
ag23
ag24
ag25
asg26
g30
sg27
g22
sg28
NsbsbsbsS'accel_x'
p42
F0
sS'accel_y'
p43
F0
sS'maxAccel'
p44
I2
sS'maxVel'
p45
F0.80000000000000004
sS'age'
p46
I0
sS'gener'
p47
S'm'
sS'lastScale'
p48
F5.5
sS'energy'
p49
F0.5
sb.(i__main__
Data_mobile
p1
(dp2
S'vel_y'
p3
I0
sS'vel_x'
p4
I0
sS'pos_x'
p5
I-9579
sS'pos_y'
p6
I9779
sS'isAlive'
p7
I00
sS'geno'
p8
(i__main__
Node
p9
(dp10
S'node'
p11
(lp12
S'+'
aS'-'
aS'*'
aS'/'
asS'right'
p13
(i__main__
Node
p14
(dp15
g11
(lp16
S'+'
aS'-'
aS'*'
aS'/'
asg13
NsS'leaf'
p17
(lp18
S'indiv.alignment()'
p19
aS'indiv.cohesion()'
p20
aS'indiv.separation()'
p21
aS'indiv.target()'
p22
aS'indiv.currentVelocity()'
p23
aS'indiv.mostEnergizedNeighbor()'
p24
aS'indiv.randV()'
p25
asS'parent'
p26
g9
sS'data'
p27
g24
sS'left'
p28
Nsbsg17
(lp29
g19
ag20
ag21
ag22
ag23
ag24
ag25
asg26
Nsg27
S'+'
sg28
(i__main__
Node
p30
(dp31
g11
(lp32
S'+'
aS'-'
aS'*'
aS'/'
asg13
Nsg17
(lp33
g19
ag20
ag21
ag22
ag23
ag24
ag25
asg26
g9
sg27
g22
sg28
NsbsbsS'accel_x'
p34
F0
sS'accel_y'
p35
F0
sS'maxAccel'
p36
I2
sS'maxVel'
p37
F0.80000000000000004
sS'age'
p38
I0
sS'gener'
p39
S'm'
sS'lastScale'
p40
F5.5
sS'energy'
p41
F0.5
sb.(i__main__
Data_mobile
p1
(dp2
S'vel_y'
p3
I0
sS'vel_x'
p4
I0
sS'pos_x'
p5
I-9579
sS'pos_y'
p6
I9779
sS'isAlive'
p7
I00
sS'geno'
p8
(i__main__
Node
p9
(dp10
S'node'
p11
(lp12
S'+'
aS'-'
aS'*'
aS'/'
asS'right'
p13
(i__main__
Node
p14
(dp15
g11
(lp16
S'+'
aS'-'
aS'*'
aS'/'
asg13
NsS'leaf'
p17
(lp18
S'indiv.alignment()'
p19
aS'indiv.cohesion()'
p20
aS'indiv.separation()'
p21
aS'indiv.target()'
p22
aS'indiv.currentVelocity()'
p23
aS'indiv.mostEnergizedNeighbor()'
p24
aS'indiv.randV()'
p25
asS'parent'
p26
g9
sS'data'
p27
g24
sS'left'
p28
Nsbsg17
(lp29
g19
ag20
ag21
ag22
ag23
ag24
ag25
asg26
Nsg27
S'+'
sg28
(i__main__
Node
p30
(dp31
g11
(lp32
S'+'
aS'-'
aS'*'
aS'/'
asg13
(i__main__
Node
p33
(dp34
g11
(lp35
S'+'
aS'-'
aS'*'
aS'/'
asg13
Nsg17
(lp36
g19
ag20
ag21
ag22
ag23
ag24
ag25
asg26
g30
sg27
g24
sg28
Nsbsg17
(lp37
g19
ag20
ag21
ag22
ag23
ag24
ag25
asg26
g9
sg27
S'-'
sg28
(i__main__
Node
p38
(dp39
g11
(lp40
S'+'
aS'-'
aS'*'
aS'/'
asg13
Nsg17
(lp41
g19
ag20
ag21
ag22
ag23
ag24
ag25
asg26
g30
sg27
g22
sg28
NsbsbsbsS'accel_x'
p42
F0
sS'accel_y'
p43
F0
sS'maxAccel'
p44
I2
sS'maxVel'
p45
F0.80000000000000004
sS'age'
p46
I0
sS'gener'
p47
S'm'
sS'lastScale'
p48
F5.5
sS'energy'
p49
F0.5
sb.(i__main__
Data_mobile
p1
(dp2
S'vel_y'
p3
I0
sS'vel_x'
p4
I0
sS'pos_x'
p5
I-9579
sS'pos_y'
p6
I9779
sS'isAlive'
p7
I00
sS'geno'
p8
(i__main__
Node
p9
(dp10
S'node'
p11
(lp12
S'+'
aS'-'
aS'*'
aS'/'
asS'right'
p13
(i__main__
Node
p14
(dp15
g11
(lp16
S'+'
aS'-'
aS'*'
aS'/'
asg13
NsS'leaf'
p17
(lp18
S'indiv.alignment()'
p19
aS'indiv.cohesion()'
p20
aS'indiv.separation()'
p21
aS'indiv.target()'
p22
aS'indiv.currentVelocity()'
p23
aS'indiv.mostEnergizedNeighbor()'
p24
aS'indiv.randV()'
p25
asS'parent'
p26
g9
sS'data'
p27
g24
sS'left'
p28
Nsbsg17
(lp29
g19
ag20
ag21
ag22
ag23
ag24
ag25
asg26
Nsg27
S'+'
sg28
(i__main__
Node
p30
(dp31
g11
(lp32
S'+'
aS'-'
aS'*'
aS'/'
asg13
(i__main__
Node
p33
(dp34
g11
(lp35
S'+'
aS'-'
aS'*'
aS'/'
asg13
Nsg17
(lp36
g19
ag20
ag21
ag22
ag23
ag24
ag25
asg26
g30
sg27
g24
sg28
Nsbsg17
(lp37
g19
ag20
ag21
ag22
ag23
ag24
ag25
asg26
g9
sg27
S'-'
sg28
(i__main__
Node
p38
(dp39
g11
(lp40
S'+'
aS'-'
aS'*'
aS'/'
asg13
Nsg17
(lp41
g19
ag20
ag21
ag22
ag23
ag24
ag25
asg26
g30
sg27
g22
sg28
NsbsbsbsS'accel_x'
p42
F0
sS'accel_y'
p43
F0
sS'maxAccel'
p44
I2
sS'maxVel'
p45
F0.80000000000000004
sS'age'
p46
I0
sS'gener'
p47
S'm'
sS'lastScale'
p48
F5.5
sS'energy'
p49
F0.5
sb.(i__main__
Data_mobile
p1
(dp2
S'vel_y'
p3
I0
sS'vel_x'
p4
I0
sS'pos_x'
p5
I-9579
sS'pos_y'
p6
I9779
sS'isAlive'
p7
I00
sS'geno'
p8
(i__main__
Node
p9
(dp10
S'node'
p11
(lp12
S'+'
aS'-'
aS'*'
aS'/'
asS'right'
p13
(i__main__
Node
p14
(dp15
g11
(lp16
S'+'
aS'-'
aS'*'
aS'/'
asg13
NsS'leaf'
p17
(lp18
S'indiv.alignment()'
p19
aS'indiv.cohesion()'
p20
aS'indiv.separation()'
p21
aS'indiv.target()'
p22
aS'indiv.currentVelocity()'
p23
aS'indiv.mostEnergizedNeighbor()'
p24
aS'indiv.randV()'
p25
asS'parent'
p26
g9
sS'data'
p27
g24
sS'left'
p28
Nsbsg17
(lp29
g19
ag20
ag21
ag22
ag23
ag24
ag25
asg26
Nsg27
S'+'
sg28
(i__main__
Node
p30
(dp31
g11
(lp32
S'+'
aS'-'
aS'*'
aS'/'
asg13
(i__main__
Node
p33
(dp34
g11
(lp35
S'+'
aS'-'
aS'*'
aS'/'
asg13
Nsg17
(lp36
g19
ag20
ag21
ag22
ag23
ag24
ag25
asg26
g30
sg27
g24
sg28
Nsbsg17
(lp37
g19
ag20
ag21
ag22
ag23
ag24
ag25
asg26
g9
sg27
S'-'
sg28
(i__main__
Node
p38
(dp39
g11
(lp40
S'+'
aS'-'
aS'*'
aS'/'
asg13
Nsg17
(lp41
g19
ag20
ag21
ag22
ag23
ag24
ag25
asg26
g30
sg27
g22
sg28
NsbsbsbsS'accel_x'
p42
F0
sS'accel_y'
p43
F0
sS'maxAccel'
p44
I2
sS'maxVel'
p45
F0.80000000000000004
sS'age'
p46
I0
sS'gener'
p47
S'm'
sS'lastScale'
p48
F5.5
sS'energy'
p49
F0.5
sb.(i__main__
Data_mobile
p1
(dp2
S'vel_y'
p3
I0
sS'vel_x'
p4
I0
sS'pos_x'
p5
I-9579
sS'pos_y'
p6
I9779
sS'isAlive'
p7
I00
sS'geno'
p8
(i__main__
Node
p9
(dp10
S'node'
p11
(lp12
S'+'
aS'-'
aS'*'
aS'/'
asS'right'
p13
(i__main__
Node
p14
(dp15
g11
(lp16
S'+'
aS'-'
aS'*'
aS'/'
asg13
NsS'leaf'
p17
(lp18
S'indiv.alignment()'
p19
aS'indiv.cohesion()'
p20
aS'indiv.separation()'
p21
aS'indiv.target()'
p22
aS'indiv.currentVelocity()'
p23
aS'indiv.mostEnergizedNeighbor()'
p24
aS'indiv.randV()'
p25
asS'parent'
p26
g9
sS'data'
p27
g24
sS'left'
p28
Nsbsg17
(lp29
g19
ag20
ag21
ag22
ag23
ag24
ag25
asg26
Nsg27
S'+'
sg28
(i__main__
Node
p30
(dp31
g11
(lp32
S'+'
aS'-'
aS'*'
aS'/'
asg13
(i__main__
Node
p33
(dp34
g11
(lp35
S'+'
aS'-'
aS'*'
aS'/'
asg13
Nsg17
(lp36
g19
ag20
ag21
ag22
ag23
ag24
ag25
asg26
g30
sg27
g24
sg28
Nsbsg17
(lp37
g19
ag20
ag21
ag22
ag23
ag24
ag25
asg26
g9
sg27
S'-'
sg28
(i__main__
Node
p38
(dp39
g11
(lp40
S'+'
aS'-'
aS'*'
aS'/'
asg13
Nsg17
(lp41
g19
ag20
ag21
ag22
ag23
ag24
ag25
asg26
g30
sg27
g22
sg28
NsbsbsbsS'accel_x'
p42
F0
sS'accel_y'
p43
F0
sS'maxAccel'
p44
I2
sS'maxVel'
p45
F0.80000000000000004
sS'age'
p46
I0
sS'gener'
p47
S'm'
sS'lastScale'
p48
F5.5
sS'energy'
p49
F0.5
sb.(i__main__
Data_mobile
p1
(dp2
S'vel_y'
p3
I0
sS'vel_x'
p4
I0
sS'pos_x'
p5
I-9579
sS'pos_y'
p6
I9779
sS'isAlive'
p7
I00
sS'geno'
p8
(i__main__
Node
p9
(dp10
S'node'
p11
(lp12
S'+'
aS'-'
aS'*'
aS'/'
asS'right'
p13
(i__main__
Node
p14
(dp15
g11
(lp16
S'+'
aS'-'
aS'*'
aS'/'
asg13
NsS'leaf'
p17
(lp18
S'indiv.alignment()'
p19
aS'indiv.cohesion()'
p20
aS'indiv.separation()'
p21
aS'indiv.target()'
p22
aS'indiv.currentVelocity()'
p23
aS'indiv.mostEnergizedNeighbor()'
p24
aS'indiv.randV()'
p25
asS'parent'
p26
g9
sS'data'
p27
g24
sS'left'
p28
Nsbsg17
(lp29
g19
ag20
ag21
ag22
ag23
ag24
ag25
asg26
Nsg27
S'+'
sg28
(i__main__
Node
p30
(dp31
g11
(lp32
S'+'
aS'-'
aS'*'
aS'/'
asg13
(i__main__
Node
p33
(dp34
g11
(lp35
S'+'
aS'-'
aS'*'
aS'/'
asg13
(i__main__
Node
p36
(dp37
g11
(lp38
S'+'
aS'-'
aS'*'
aS'/'
asg13
(i__main__
Node
p39
(dp40
g11
(lp41
S'+'
aS'-'
aS'*'
aS'/'
asg13
(i__main__
Node
p42
(dp43
g11
(lp44
S'+'
aS'-'
aS'*'
aS'/'
asg13
Nsg17
(lp45
g19
ag20
ag21
ag22
ag23
ag24
ag25
asg26
g39
sg27
g24
sg28
Nsbsg17
(lp46
g19
ag20
ag21
ag22
ag23
ag24
ag25
asg26
g36
sg27
S'+'
sg28
(i__main__
Node
p47
(dp48
g11
(lp49
S'+'
aS'-'
aS'*'
aS'/'
asg13
Nsg17
(lp50
g19
ag20
ag21
ag22
ag23
ag24
ag25
asg26
g39
sg27
g20
sg28
Nsbsbsg17
(lp51
g19
ag20
ag21
ag22
ag23
ag24
ag25
asg26
g33
sg27
S'-'
sg28
(i__main__
Node
p52
(dp53
g11
(lp54
S'+'
aS'-'
aS'*'
aS'/'
asg13
(i__main__
Node
p55
(dp56
g11
(lp57
S'+'
aS'-'
aS'*'
aS'/'
asg13
Nsg17
(lp58
g19
ag20
ag21
ag22
ag23
ag24
ag25
asg26
g52
sg27
g21
sg28
Nsbsg17
(lp59
g19
ag20
ag21
ag22
ag23
ag24
ag25
asg26
g36
sg27
S'-'
sg28
(i__main__
Node
p60
(dp61
g11
(lp62
S'+'
aS'-'
aS'*'
aS'/'
asg13
Nsg17
(lp63
g19
ag20
ag21
ag22
ag23
ag24
ag25
asg26
g52
sg27
g23
sg28
Nsbsbsbsg17
(lp64
g19
ag20
ag21
ag22
ag23
ag24
ag25
asg26
g30
sg27
S'/'
sg28
(i__main__
Node
p65
(dp66
g11
(lp67
S'+'
aS'-'
aS'*'
aS'/'
asg13
(i__main__
Node
p68
(dp69
g11
(lp70
S'+'
aS'-'
aS'*'
aS'/'
asg13
(i__main__
Node
p71
(dp72
g11
(lp73
S'+'
aS'-'
aS'*'
aS'/'
asg13
Nsg17
(lp74
g19
ag20
ag21
ag22
ag23
ag24
ag25
asg26
g68
sg27
g21
sg28
Nsbsg17
(lp75
g19
ag20
ag21
ag22
ag23
ag24
ag25
asg26
g65
sg27
S'/'
sg28
(i__main__
Node
p76
(dp77
g11
(lp78
S'+'
aS'-'
aS'*'
aS'/'
asg13
Nsg17
(lp79
g19
ag20
ag21
ag22
ag23
ag24
ag25
asg26
g68
sg27
g24
sg28
Nsbsbsg17
(lp80
g19
ag20
ag21
ag22
ag23
ag24
ag25
asg26
g33
sg27
S'+'
sg28
(i__main__
Node
p81
(dp82
g11
(lp83
S'+'
aS'-'
aS'*'
aS'/'
asg13
(i__main__
Node
p84
(dp85
g11
(lp86
S'+'
aS'-'
aS'*'
aS'/'
asg13
Nsg17
(lp87
g19
ag20
ag21
ag22
ag23
ag24
ag25
asg26
g81
sg27
g21
sg28
Nsbsg17
(lp88
g19
ag20
ag21
ag22
ag23
ag24
ag25
asg26
g65
sg27
S'-'
sg28
(i__main__
Node
p89
(dp90
g11
(lp91
S'+'
aS'-'
aS'*'
aS'/'
asg13
Nsg17
(lp92
g19
ag20
ag21
ag22
ag23
ag24
ag25
asg26
g81
sg27
g23
sg28
Nsbsbsbsbsg17
(lp93
g19
ag20
ag21
ag22
ag23
ag24
ag25
asg26
g9
sg27
S'*'
sg28
(i__main__
Node
p94
(dp95
g11
(lp96
S'+'
aS'-'
aS'*'
aS'/'
asg13
(i__main__
Node
p97
(dp98
g11
(lp99
S'+'
aS'-'
aS'*'
aS'/'
asg13
(i__main__
Node
p100
(dp101
g11
(lp102
S'+'
aS'-'
aS'*'
aS'/'
asg13
(i__main__
Node
p103
(dp104
g11
(lp105
S'+'
aS'-'
aS'*'
aS'/'
asg13
Nsg17
(lp106
g19
ag20
ag21
ag22
ag23
ag24
ag25
asg26
g100
sg27
g20
sg28
Nsbsg17
(lp107
g19
ag20
ag21
ag22
ag23
ag24
ag25
asg26
g97
sg27
S'+'
sg28
(i__main__
Node
p108
(dp109
g11
(lp110
S'+'
aS'-'
aS'*'
aS'/'
asg13
Nsg17
(lp111
g19
ag20
ag21
ag22
ag23
ag24
ag25
asg26
g100
sg27
g19
sg28
Nsbsbsg17
(lp112
g19
ag20
ag21
ag22
ag23
ag24
ag25
asg26
g94
sg27
S'*'
sg28
(i__main__
Node
p113
(dp114
g11
(lp115
S'+'
aS'-'
aS'*'
aS'/'
asg13
(i__main__
Node
p116
(dp117
g11
(lp118
S'+'
aS'-'
aS'*'
aS'/'
asg13
Nsg17
(lp119
g19
ag20
ag21
ag22
ag23
ag24
ag25
asg26
g113
sg27
g23
sg28
Nsbsg17
(lp120
g19
ag20
ag21
ag22
ag23
ag24
ag25
asg26
g97
sg27
S'*'
sg28
(i__main__
Node
p121
(dp122
g11
(lp123
S'+'
aS'-'
aS'*'
aS'/'
asg13
Nsg17
(lp124
g19
ag20
ag21
ag22
ag23
ag24
ag25
asg26
g113
sg27
g19
sg28
Nsbsbsbsg17
(lp125
g19
ag20
ag21
ag22
ag23
ag24
ag25
asg26
g30
sg27
S'+'
sg28
(i__main__
Node
p126
(dp127
g11
(lp128
S'+'
aS'-'
aS'*'
aS'/'
asg13
(i__main__
Node
p129
(dp130
g11
(lp131
S'+'
aS'-'
aS'*'
aS'/'
asg13
(i__main__
Node
p132
(dp133
g11
(lp134
S'+'
aS'-'
aS'*'
aS'/'
asg13
Nsg17
(lp135
g19
ag20
ag21
ag22
ag23
ag24
ag25
asg26
g129
sg27
g24
sg28
Nsbsg17
(lp136
g19
ag20
ag21
ag22
ag23
ag24
ag25
asg26
g126
sg27
S'-'
sg28
(i__main__
Node
p137
(dp138
g11
(lp139
S'+'
aS'-'
aS'*'
aS'/'
asg13
Nsg17
(lp140
g19
ag20
ag21
ag22
ag23
ag24
ag25
asg26
g129
sg27
g24
sg28
Nsbsbsg17
(lp141
g19
ag20
ag21
ag22
ag23
ag24
ag25
asg26
g94
sg27
S'/'
sg28
(i__main__
Node
p142
(dp143
g11
(lp144
S'+'
aS'-'
aS'*'
aS'/'
asg13
(i__main__
Node
p145
(dp146
g11
(lp147
S'+'
aS'-'
aS'*'
aS'/'
asg13
Nsg17
(lp148
g19
ag20
ag21
ag22
ag23
ag24
ag25
asg26
g142
sg27
g24
sg28
Nsbsg17
(lp149
g19
ag20
ag21
ag22
ag23
ag24
ag25
asg26
g126
sg27
S'*'
sg28
(i__main__
Node
p150
(dp151
g11
(lp152
S'+'
aS'-'
aS'*'
aS'/'
asg13
Nsg17
(lp153
g19
ag20
ag21
ag22
ag23
ag24
ag25
asg26
g142
sg27
g23
sg28
NsbsbsbsbsbsbsS'accel_x'
p154
F0
sS'accel_y'
p155
F0
sS'maxAccel'
p156
I2
sS'maxVel'
p157
F0.80000000000000004
sS'age'
p158
I0
sS'gener'
p159
S'm'
sS'lastScale'
p160
F5.5
sS'energy'
p161
F0.5
sb.(i__main__
Data_mobile
p1
(dp2
S'vel_y'
p3
I0
sS'vel_x'
p4
I0
sS'pos_x'
p5
I-9579
sS'pos_y'
p6
I9779
sS'isAlive'
p7
I00
sS'geno'
p8
(i__main__
Node
p9
(dp10
S'node'
p11
(lp12
S'+'
aS'-'
aS'*'
aS'/'
asS'right'
p13
(i__main__
Node
p14
(dp15
g11
(lp16
S'+'
aS'-'
aS'*'
aS'/'
asg13
NsS'leaf'
p17
(lp18
S'indiv.alignment()'
p19
aS'indiv.cohesion()'
p20
aS'indiv.separation()'
p21
aS'indiv.target()'
p22
aS'indiv.currentVelocity()'
p23
aS'indiv.mostEnergizedNeighbor()'
p24
aS'indiv.randV()'
p25
asS'parent'
p26
g9
sS'data'
p27
g24
sS'left'
p28
Nsbsg17
(lp29
g19
ag20
ag21
ag22
ag23
ag24
ag25
asg26
Nsg27
S'+'
sg28
(i__main__
Node
p30
(dp31
g11
(lp32
S'+'
aS'-'
aS'*'
aS'/'
asg13
(i__main__
Node
p33
(dp34
g11
(lp35
S'+'
aS'-'
aS'*'
aS'/'
asg13
(i__main__
Node
p36
(dp37
g11
(lp38
S'+'
aS'-'
aS'*'
aS'/'
asg13
Nsg17
(lp39
g19
ag20
ag21
ag22
ag23
ag24
ag25
asg26
g33
sg27
g20
sg28
Nsbsg17
(lp40
g19
ag20
ag21
ag22
ag23
ag24
ag25
asg26
g30
sg27
S'*'
sg28
(i__main__
Node
p41
(dp42
g11
(lp43
S'+'
aS'-'
aS'*'
aS'/'
asg13
Nsg17
(lp44
g19
ag20
ag21
ag22
ag23
ag24
ag25
asg26
g33
sg27
g21
sg28
Nsbsbsg17
(lp45
g19
ag20
ag21
ag22
ag23
ag24
ag25
asg26
g9
sg27
S'+'
sg28
(i__main__
Node
p46
(dp47
g11
(lp48
S'+'
aS'-'
aS'*'
aS'/'
asg13
(i__main__
Node
p49
(dp50
g11
(lp51
S'+'
aS'-'
aS'*'
aS'/'
asg13
Nsg17
(lp52
g19
ag20
ag21
ag22
ag23
ag24
ag25
asg26
g46
sg27
g25
sg28
Nsbsg17
(lp53
g19
ag20
ag21
ag22
ag23
ag24
ag25
asg26
g30
sg27
S'*'
sg28
(i__main__
Node
p54
(dp55
g11
(lp56
S'+'
aS'-'
aS'*'
aS'/'
asg13
Nsg17
(lp57
g19
ag20
ag21
ag22
ag23
ag24
ag25
asg26
g46
sg27
g20
sg28
NsbsbsbsbsS'accel_x'
p58
F0
sS'accel_y'
p59
F0
sS'maxAccel'
p60
I2
sS'maxVel'
p61
F0.80000000000000004
sS'age'
p62
I0
sS'gener'
p63
S'm'
sS'lastScale'
p64
F5.5
sS'energy'
p65
F0.5
sb.(i__main__
Data_mobile
p1
(dp2
S'vel_y'
p3
I0
sS'vel_x'
p4
I0
sS'pos_x'
p5
I-9579
sS'pos_y'
p6
I9779
sS'isAlive'
p7
I00
sS'geno'
p8
(i__main__
Node
p9
(dp10
S'node'
p11
(lp12
S'+'
aS'-'
aS'*'
aS'/'
asS'right'
p13
(i__main__
Node
p14
(dp15
g11
(lp16
S'+'
aS'-'
aS'*'
aS'/'
asg13
NsS'leaf'
p17
(lp18
S'indiv.alignment()'
p19
aS'indiv.cohesion()'
p20
aS'indiv.separation()'
p21
aS'indiv.target()'
p22
aS'indiv.currentVelocity()'
p23
aS'indiv.mostEnergizedNeighbor()'
p24
aS'indiv.randV()'
p25
asS'parent'
p26
g9
sS'data'
p27
g24
sS'left'
p28
Nsbsg17
(lp29
g19
ag20
ag21
ag22
ag23
ag24
ag25
asg26
Nsg27
S'+'
sg28
(i__main__
Node
p30
(dp31
g11
(lp32
S'+'
aS'-'
aS'*'
aS'/'
asg13
(i__main__
Node
p33
(dp34
g11
(lp35
S'+'
aS'-'
aS'*'
aS'/'
asg13
Nsg17
(lp36
g19
ag20
ag21
ag22
ag23
ag24
ag25
asg26
g30
sg27
g24
sg28
Nsbsg17
(lp37
g19
ag20
ag21
ag22
ag23
ag24
ag25
asg26
g9
sg27
S'-'
sg28
(i__main__
Node
p38
(dp39
g11
(lp40
S'+'
aS'-'
aS'*'
aS'/'
asg13
Nsg17
(lp41
g19
ag20
ag21
ag22
ag23
ag24
ag25
asg26
g30
sg27
g22
sg28
NsbsbsbsS'accel_x'
p42
F0
sS'accel_y'
p43
F0
sS'maxAccel'
p44
I2
sS'maxVel'
p45
F0.80000000000000004
sS'age'
p46
I0
sS'gener'
p47
S'm'
sS'lastScale'
p48
F5.5
sS'energy'
p49
F0.5
sb.(i__main__
Data_mobile
p1
(dp2
S'vel_y'
p3
I0
sS'vel_x'
p4
I0
sS'pos_x'
p5
I-9579
sS'pos_y'
p6
I9779
sS'isAlive'
p7
I00
sS'geno'
p8
(i__main__
Node
p9
(dp10
S'node'
p11
(lp12
S'+'
aS'-'
aS'*'
aS'/'
asS'right'
p13
(i__main__
Node
p14
(dp15
g11
(lp16
S'+'
aS'-'
aS'*'
aS'/'
asg13
NsS'leaf'
p17
(lp18
S'indiv.alignment()'
p19
aS'indiv.cohesion()'
p20
aS'indiv.separation()'
p21
aS'indiv.target()'
p22
aS'indiv.currentVelocity()'
p23
aS'indiv.mostEnergizedNeighbor()'
p24
aS'indiv.randV()'
p25
asS'parent'
p26
g9
sS'data'
p27
g24
sS'left'
p28
Nsbsg17
(lp29
g19
ag20
ag21
ag22
ag23
ag24
ag25
asg26
Nsg27
S'+'
sg28
(i__main__
Node
p30
(dp31
g11
(lp32
S'+'
aS'-'
aS'*'
aS'/'
asg13
(i__main__
Node
p33
(dp34
g11
(lp35
S'+'
aS'-'
aS'*'
aS'/'
asg13
Nsg17
(lp36
g19
ag20
ag21
ag22
ag23
ag24
ag25
asg26
g30
sg27
g24
sg28
Nsbsg17
(lp37
g19
ag20
ag21
ag22
ag23
ag24
ag25
asg26
g9
sg27
S'-'
sg28
(i__main__
Node
p38
(dp39
g11
(lp40
S'+'
aS'-'
aS'*'
aS'/'
asg13
Nsg17
(lp41
g19
ag20
ag21
ag22
ag23
ag24
ag25
asg26
g30
sg27
g22
sg28
NsbsbsbsS'accel_x'
p42
F0
sS'accel_y'
p43
F0
sS'maxAccel'
p44
I2
sS'maxVel'
p45
F0.80000000000000004
sS'age'
p46
I0
sS'gener'
p47
S'm'
sS'lastScale'
p48
F5.5
sS'energy'
p49
F0.5
sb.(i__main__
Data_mobile
p1
(dp2
S'vel_y'
p3
I0
sS'vel_x'
p4
I0
sS'pos_x'
p5
I-9579
sS'pos_y'
p6
I9779
sS'isAlive'
p7
I00
sS'geno'
p8
(i__main__
Node
p9
(dp10
S'node'
p11
(lp12
S'+'
aS'-'
aS'*'
aS'/'
asS'right'
p13
(i__main__
Node
p14
(dp15
g11
(lp16
S'+'
aS'-'
aS'*'
aS'/'
asg13
NsS'leaf'
p17
(lp18
S'indiv.alignment()'
p19
aS'indiv.cohesion()'
p20
aS'indiv.separation()'
p21
aS'indiv.target()'
p22
aS'indiv.currentVelocity()'
p23
aS'indiv.mostEnergizedNeighbor()'
p24
aS'indiv.randV()'
p25
asS'parent'
p26
g9
sS'data'
p27
g24
sS'left'
p28
Nsbsg17
(lp29
g19
ag20
ag21
ag22
ag23
ag24
ag25
asg26
Nsg27
S'+'
sg28
(i__main__
Node
p30
(dp31
g11
(lp32
S'+'
aS'-'
aS'*'
aS'/'
asg13
(i__main__
Node
p33
(dp34
g11
(lp35
S'+'
aS'-'
aS'*'
aS'/'
asg13
Nsg17
(lp36
g19
ag20
ag21
ag22
ag23
ag24
ag25
asg26
g30
sg27
g24
sg28
Nsbsg17
(lp37
g19
ag20
ag21
ag22
ag23
ag24
ag25
asg26
g9
sg27
S'-'
sg28
(i__main__
Node
p38
(dp39
g11
(lp40
S'+'
aS'-'
aS'*'
aS'/'
asg13
Nsg17
(lp41
g19
ag20
ag21
ag22
ag23
ag24
ag25
asg26
g30
sg27
g22
sg28
NsbsbsbsS'accel_x'
p42
F0
sS'accel_y'
p43
F0
sS'maxAccel'
p44
I2
sS'maxVel'
p45
F0.80000000000000004
sS'age'
p46
I0
sS'gener'
p47
S'm'
sS'lastScale'
p48
F5.5
sS'energy'
p49
F0.5
sb.(i__main__
Data_mobile
p1
(dp2
S'vel_y'
p3
I0
sS'vel_x'
p4
I0
sS'pos_x'
p5
I-9579
sS'pos_y'
p6
I9779
sS'isAlive'
p7
I00
sS'geno'
p8
(i__main__
Node
p9
(dp10
S'node'
p11
(lp12
S'+'
aS'-'
aS'*'
aS'/'
asS'right'
p13
(i__main__
Node
p14
(dp15
g11
(lp16
S'+'
aS'-'
aS'*'
aS'/'
asg13
NsS'leaf'
p17
(lp18
S'indiv.alignment()'
p19
aS'indiv.cohesion()'
p20
aS'indiv.separation()'
p21
aS'indiv.target()'
p22
aS'indiv.currentVelocity()'
p23
aS'indiv.mostEnergizedNeighbor()'
p24
aS'indiv.randV()'
p25
asS'parent'
p26
g9
sS'data'
p27
g24
sS'left'
p28
Nsbsg17
(lp29
g19
ag20
ag21
ag22
ag23
ag24
ag25
asg26
Nsg27
S'+'
sg28
(i__main__
Node
p30
(dp31
g11
(lp32
S'+'
aS'-'
aS'*'
aS'/'
asg13
(i__main__
Node
p33
(dp34
g11
(lp35
S'+'
aS'-'
aS'*'
aS'/'
asg13
Nsg17
(lp36
g19
ag20
ag21
ag22
ag23
ag24
ag25
asg26
g30
sg27
g24
sg28
Nsbsg17
(lp37
g19
ag20
ag21
ag22
ag23
ag24
ag25
asg26
g9
sg27
S'-'
sg28
(i__main__
Node
p38
(dp39
g11
(lp40
S'+'
aS'-'
aS'*'
aS'/'
asg13
Nsg17
(lp41
g19
ag20
ag21
ag22
ag23
ag24
ag25
asg26
g30
sg27
g22
sg28
NsbsbsbsS'accel_x'
p42
F0
sS'accel_y'
p43
F0
sS'maxAccel'
p44
I2
sS'maxVel'
p45
F0.80000000000000004
sS'age'
p46
I0
sS'gener'
p47
S'm'
sS'lastScale'
p48
F5.5
sS'energy'
p49
F0.5
sb.(i__main__
Data_mobile
p1
(dp2
S'vel_y'
p3
I0
sS'vel_x'
p4
I0
sS'pos_x'
p5
I-9579
sS'pos_y'
p6
I9779
sS'isAlive'
p7
I00
sS'geno'
p8
(i__main__
Node
p9
(dp10
S'node'
p11
(lp12
S'+'
aS'-'
aS'*'
aS'/'
asS'right'
p13
(i__main__
Node
p14
(dp15
g11
(lp16
S'+'
aS'-'
aS'*'
aS'/'
asg13
NsS'leaf'
p17
(lp18
S'indiv.alignment()'
p19
aS'indiv.cohesion()'
p20
aS'indiv.separation()'
p21
aS'indiv.target()'
p22
aS'indiv.currentVelocity()'
p23
aS'indiv.mostEnergizedNeighbor()'
p24
aS'indiv.randV()'
p25
asS'parent'
p26
g9
sS'data'
p27
g24
sS'left'
p28
Nsbsg17
(lp29
g19
ag20
ag21
ag22
ag23
ag24
ag25
asg26
Nsg27
S'+'
sg28
(i__main__
Node
p30
(dp31
g11
(lp32
S'+'
aS'-'
aS'*'
aS'/'
asg13
(i__main__
Node
p33
(dp34
g11
(lp35
S'+'
aS'-'
aS'*'
aS'/'
asg13
Nsg17
(lp36
g19
ag20
ag21
ag22
ag23
ag24
ag25
asg26
g30
sg27
g24
sg28
Nsbsg17
(lp37
g19
ag20
ag21
ag22
ag23
ag24
ag25
asg26
g9
sg27
S'-'
sg28
(i__main__
Node
p38
(dp39
g11
(lp40
S'+'
aS'-'
aS'*'
aS'/'
asg13
Nsg17
(lp41
g19
ag20
ag21
ag22
ag23
ag24
ag25
asg26
g30
sg27
g22
sg28
NsbsbsbsS'accel_x'
p42
F0
sS'accel_y'
p43
F0
sS'maxAccel'
p44
I2
sS'maxVel'
p45
F0.80000000000000004
sS'age'
p46
I0
sS'gener'
p47
S'm'
sS'lastScale'
p48
F5.5
sS'energy'
p49
F0.5
sb.(i__main__
Data_mobile
p1
(dp2
S'vel_y'
p3
I0
sS'vel_x'
p4
I0
sS'pos_x'
p5
I-9579
sS'pos_y'
p6
I9779
sS'isAlive'
p7
I00
sS'geno'
p8
(i__main__
Node
p9
(dp10
S'node'
p11
(lp12
S'+'
aS'-'
aS'*'
aS'/'
asS'right'
p13
(i__main__
Node
p14
(dp15
g11
(lp16
S'+'
aS'-'
aS'*'
aS'/'
asg13
NsS'leaf'
p17
(lp18
S'indiv.alignment()'
p19
aS'indiv.cohesion()'
p20
aS'indiv.separation()'
p21
aS'indiv.target()'
p22
aS'indiv.currentVelocity()'
p23
aS'indiv.mostEnergizedNeighbor()'
p24
aS'indiv.randV()'
p25
asS'parent'
p26
g9
sS'data'
p27
g24
sS'left'
p28
Nsbsg17
(lp29
g19
ag20
ag21
ag22
ag23
ag24
ag25
asg26
Nsg27
S'+'
sg28
(i__main__
Node
p30
(dp31
g11
(lp32
S'+'
aS'-'
aS'*'
aS'/'
asg13
(i__main__
Node
p33
(dp34
g11
(lp35
S'+'
aS'-'
aS'*'
aS'/'
asg13
Nsg17
(lp36
g19
ag20
ag21
ag22
ag23
ag24
ag25
asg26
g30
sg27
g24
sg28
Nsbsg17
(lp37
g19
ag20
ag21
ag22
ag23
ag24
ag25
asg26
g9
sg27
S'-'
sg28
(i__main__
Node
p38
(dp39
g11
(lp40
S'+'
aS'-'
aS'*'
aS'/'
asg13
Nsg17
(lp41
g19
ag20
ag21
ag22
ag23
ag24
ag25
asg26
g30
sg27
g22
sg28
NsbsbsbsS'accel_x'
p42
F0
sS'accel_y'
p43
F0
sS'maxAccel'
p44
I2
sS'maxVel'
p45
F0.80000000000000004
sS'age'
p46
I0
sS'gener'
p47
S'm'
sS'lastScale'
p48
F5.5
sS'energy'
p49
F0.5
sb.(i__main__
Data_mobile
p1
(dp2
S'vel_y'
p3
I0
sS'vel_x'
p4
I0
sS'pos_x'
p5
I-9579
sS'pos_y'
p6
I9779
sS'isAlive'
p7
I00
sS'geno'
p8
(i__main__
Node
p9
(dp10
S'node'
p11
(lp12
S'+'
aS'-'
aS'*'
aS'/'
asS'right'
p13
(i__main__
Node
p14
(dp15
g11
(lp16
S'+'
aS'-'
aS'*'
aS'/'
asg13
NsS'leaf'
p17
(lp18
S'indiv.alignment()'
p19
aS'indiv.cohesion()'
p20
aS'indiv.separation()'
p21
aS'indiv.target()'
p22
aS'indiv.currentVelocity()'
p23
aS'indiv.mostEnergizedNeighbor()'
p24
aS'indiv.randV()'
p25
asS'parent'
p26
g9
sS'data'
p27
g24
sS'left'
p28
Nsbsg17
(lp29
g19
ag20
ag21
ag22
ag23
ag24
ag25
asg26
Nsg27
S'+'
sg28
(i__main__
Node
p30
(dp31
g11
(lp32
S'+'
aS'-'
aS'*'
aS'/'
asg13
(i__main__
Node
p33
(dp34
g11
(lp35
S'+'
aS'-'
aS'*'
aS'/'
asg13
(i__main__
Node
p36
(dp37
g11
(lp38
S'+'
aS'-'
aS'*'
aS'/'
asg13
Nsg17
(lp39
g19
ag20
ag21
ag22
ag23
ag24
ag25
asg26
g33
sg27
g20
sg28
Nsbsg17
(lp40
g19
ag20
ag21
ag22
ag23
ag24
ag25
asg26
g30
sg27
S'*'
sg28
(i__main__
Node
p41
(dp42
g11
(lp43
S'+'
aS'-'
aS'*'
aS'/'
asg13
Nsg17
(lp44
g19
ag20
ag21
ag22
ag23
ag24
ag25
asg26
g33
sg27
g21
sg28
Nsbsbsg17
(lp45
g19
ag20
ag21
ag22
ag23
ag24
ag25
asg26
g9
sg27
S'+'
sg28
(i__main__
Node
p46
(dp47
g11
(lp48
S'+'
aS'-'
aS'*'
aS'/'
asg13
(i__main__
Node
p49
(dp50
g11
(lp51
S'+'
aS'-'
aS'*'
aS'/'
asg13
Nsg17
(lp52
g19
ag20
ag21
ag22
ag23
ag24
ag25
asg26
g46
sg27
g25
sg28
Nsbsg17
(lp53
g19
ag20
ag21
ag22
ag23
ag24
ag25
asg26
g30
sg27
S'*'
sg28
(i__main__
Node
p54
(dp55
g11
(lp56
S'+'
aS'-'
aS'*'
aS'/'
asg13
Nsg17
(lp57
g19
ag20
ag21
ag22
ag23
ag24
ag25
asg26
g46
sg27
g20
sg28
NsbsbsbsbsS'accel_x'
p58
F0
sS'accel_y'
p59
F0
sS'maxAccel'
p60
I2
sS'maxVel'
p61
F0.80000000000000004
sS'age'
p62
I0
sS'gener'
p63
S'm'
sS'lastScale'
p64
F5.5
sS'energy'
p65
F0.5
sb.(i__main__
Data_mobile
p1
(dp2
S'vel_y'
p3
I0
sS'vel_x'
p4
I0
sS'pos_x'
p5
I-9579
sS'pos_y'
p6
I9779
sS'isAlive'
p7
I00
sS'geno'
p8
(i__main__
Node
p9
(dp10
S'node'
p11
(lp12
S'+'
aS'-'
aS'*'
aS'/'
asS'right'
p13
(i__main__
Node
p14
(dp15
g11
(lp16
S'+'
aS'-'
aS'*'
aS'/'
asg13
NsS'leaf'
p17
(lp18
S'indiv.alignment()'
p19
aS'indiv.cohesion()'
p20
aS'indiv.separation()'
p21
aS'indiv.target()'
p22
aS'indiv.currentVelocity()'
p23
aS'indiv.mostEnergizedNeighbor()'
p24
aS'indiv.randV()'
p25
asS'parent'
p26
g9
sS'data'
p27
g24
sS'left'
p28
Nsbsg17
(lp29
g19
ag20
ag21
ag22
ag23
ag24
ag25
asg26
Nsg27
S'+'
sg28
(i__main__
Node
p30
(dp31
g11
(lp32
S'+'
aS'-'
aS'*'
aS'/'
asg13
(i__main__
Node
p33
(dp34
g11
(lp35
S'+'
aS'-'
aS'*'
aS'/'
asg13
Nsg17
(lp36
g19
ag20
ag21
ag22
ag23
ag24
ag25
asg26
g30
sg27
g24
sg28
Nsbsg17
(lp37
g19
ag20
ag21
ag22
ag23
ag24
ag25
asg26
g9
sg27
S'-'
sg28
(i__main__
Node
p38
(dp39
g11
(lp40
S'+'
aS'-'
aS'*'
aS'/'
asg13
Nsg17
(lp41
g19
ag20
ag21
ag22
ag23
ag24
ag25
asg26
g30
sg27
g22
sg28
NsbsbsbsS'accel_x'
p42
F0
sS'accel_y'
p43
F0
sS'maxAccel'
p44
I2
sS'maxVel'
p45
F0.80000000000000004
sS'age'
p46
I0
sS'gener'
p47
S'm'
sS'lastScale'
p48
F5.5
sS'energy'
p49
F0.5
sb.(i__main__
Data_mobile
p1
(dp2
S'vel_y'
p3
I0
sS'vel_x'
p4
I0
sS'pos_x'
p5
I-9579
sS'pos_y'
p6
I9779
sS'isAlive'
p7
I00
sS'geno'
p8
(i__main__
Node
p9
(dp10
S'node'
p11
(lp12
S'+'
aS'-'
aS'*'
aS'/'
asS'right'
p13
(i__main__
Node
p14
(dp15
g11
(lp16
S'+'
aS'-'
aS'*'
aS'/'
asg13
NsS'leaf'
p17
(lp18
S'indiv.alignment()'
p19
aS'indiv.cohesion()'
p20
aS'indiv.separation()'
p21
aS'indiv.target()'
p22
aS'indiv.currentVelocity()'
p23
aS'indiv.mostEnergizedNeighbor()'
p24
aS'indiv.randV()'
p25
asS'parent'
p26
g9
sS'data'
p27
g24
sS'left'
p28
Nsbsg17
(lp29
g19
ag20
ag21
ag22
ag23
ag24
ag25
asg26
Nsg27
S'+'
sg28
(i__main__
Node
p30
(dp31
g11
(lp32
S'+'
aS'-'
aS'*'
aS'/'
asg13
(i__main__
Node
p33
(dp34
g11
(lp35
S'+'
aS'-'
aS'*'
aS'/'
asg13
Nsg17
(lp36
g19
ag20
ag21
ag22
ag23
ag24
ag25
asg26
g30
sg27
g24
sg28
Nsbsg17
(lp37
g19
ag20
ag21
ag22
ag23
ag24
ag25
asg26
g9
sg27
S'-'
sg28
(i__main__
Node
p38
(dp39
g11
(lp40
S'+'
aS'-'
aS'*'
aS'/'
asg13
Nsg17
(lp41
g19
ag20
ag21
ag22
ag23
ag24
ag25
asg26
g30
sg27
g22
sg28
NsbsbsbsS'accel_x'
p42
F0
sS'accel_y'
p43
F0
sS'maxAccel'
p44
I2
sS'maxVel'
p45
F0.80000000000000004
sS'age'
p46
I0
sS'gener'
p47
S'm'
sS'lastScale'
p48
F5.5
sS'energy'
p49
F0.5
sb.(i__main__
Data_mobile
p1
(dp2
S'vel_y'
p3
I0
sS'vel_x'
p4
I0
sS'pos_x'
p5
I-9579
sS'pos_y'
p6
I9779
sS'isAlive'
p7
I00
sS'geno'
p8
(i__main__
Node
p9
(dp10
S'node'
p11
(lp12
S'+'
aS'-'
aS'*'
aS'/'
asS'right'
p13
(i__main__
Node
p14
(dp15
g11
(lp16
S'+'
aS'-'
aS'*'
aS'/'
asg13
NsS'leaf'
p17
(lp18
S'indiv.alignment()'
p19
aS'indiv.cohesion()'
p20
aS'indiv.separation()'
p21
aS'indiv.target()'
p22
aS'indiv.currentVelocity()'
p23
aS'indiv.mostEnergizedNeighbor()'
p24
aS'indiv.randV()'
p25
asS'parent'
p26
g9
sS'data'
p27
g24
sS'left'
p28
Nsbsg17
(lp29
g19
ag20
ag21
ag22
ag23
ag24
ag25
asg26
Nsg27
S'+'
sg28
(i__main__
Node
p30
(dp31
g11
(lp32
S'+'
aS'-'
aS'*'
aS'/'
asg13
(i__main__
Node
p33
(dp34
g11
(lp35
S'+'
aS'-'
aS'*'
aS'/'
asg13
Nsg17
(lp36
g19
ag20
ag21
ag22
ag23
ag24
ag25
asg26
g30
sg27
g24
sg28
Nsbsg17
(lp37
g19
ag20
ag21
ag22
ag23
ag24
ag25
asg26
g9
sg27
S'-'
sg28
(i__main__
Node
p38
(dp39
g11
(lp40
S'+'
aS'-'
aS'*'
aS'/'
asg13
Nsg17
(lp41
g19
ag20
ag21
ag22
ag23
ag24
ag25
asg26
g30
sg27
g22
sg28
NsbsbsbsS'accel_x'
p42
F0
sS'accel_y'
p43
F0
sS'maxAccel'
p44
I2
sS'maxVel'
p45
F0.80000000000000004
sS'age'
p46
I0
sS'gener'
p47
S'm'
sS'lastScale'
p48
F5.5
sS'energy'
p49
F0.5
sb.(i__main__
Data_mobile
p1
(dp2
S'vel_y'
p3
I0
sS'vel_x'
p4
I0
sS'pos_x'
p5
I-9579
sS'pos_y'
p6
I9779
sS'isAlive'
p7
I00
sS'geno'
p8
(i__main__
Node
p9
(dp10
S'node'
p11
(lp12
S'+'
aS'-'
aS'*'
aS'/'
asS'right'
p13
(i__main__
Node
p14
(dp15
g11
(lp16
S'+'
aS'-'
aS'*'
aS'/'
asg13
NsS'leaf'
p17
(lp18
S'indiv.alignment()'
p19
aS'indiv.cohesion()'
p20
aS'indiv.separation()'
p21
aS'indiv.target()'
p22
aS'indiv.currentVelocity()'
p23
aS'indiv.mostEnergizedNeighbor()'
p24
aS'indiv.randV()'
p25
asS'parent'
p26
g9
sS'data'
p27
g24
sS'left'
p28
Nsbsg17
(lp29
g19
ag20
ag21
ag22
ag23
ag24
ag25
asg26
Nsg27
S'+'
sg28
(i__main__
Node
p30
(dp31
g11
(lp32
S'+'
aS'-'
aS'*'
aS'/'
asg13
(i__main__
Node
p33
(dp34
g11
(lp35
S'+'
aS'-'
aS'*'
aS'/'
asg13
Nsg17
(lp36
g19
ag20
ag21
ag22
ag23
ag24
ag25
asg26
g30
sg27
g24
sg28
Nsbsg17
(lp37
g19
ag20
ag21
ag22
ag23
ag24
ag25
asg26
g9
sg27
S'-'
sg28
(i__main__
Node
p38
(dp39
g11
(lp40
S'+'
aS'-'
aS'*'
aS'/'
asg13
Nsg17
(lp41
g19
ag20
ag21
ag22
ag23
ag24
ag25
asg26
g30
sg27
g22
sg28
NsbsbsbsS'accel_x'
p42
F0
sS'accel_y'
p43
F0
sS'maxAccel'
p44
I2
sS'maxVel'
p45
F0.80000000000000004
sS'age'
p46
I0
sS'gener'
p47
S'm'
sS'lastScale'
p48
F5.5
sS'energy'
p49
F0.5
sb.