(i__main__
Data_mobile
p1
(dp2
S'vel_y'
p3
F-0.47677684108258228
sS'vel_x'
p4
F-0.55279638548683907
sS'pos_x'
p5
F11.502399300092605
sS'pos_y'
p6
F92.905946292463597
sS'isAlive'
p7
I01
sS'cumulativeEnergy'
p8
F42.833628671880213
sS'geno'
p9
(lp10
F-1.7181931717910821
aF-2.4860946047403472
aF0.47937690108934139
aF6.7231303954873782
aF-0.50974441396147829
asS'accel_x'
p11
F-0.46299214863358917
sS'accel_y'
p12
F-0.21325486599039989
sS'visionAngle'
p13
I130
sS'maxAccel'
p14
I2
sS'maxVel'
p15
F0.72999999999999998
sS'age'
p16
I100
sS'tailSize'
p17
I0
sS'sexualgeno'
p18
NsS'tailBrigh'
p19
I0
sS'maxSteering'
p20
I20
sS'energy'
p21
F0.64405907041763066
sS'lastScale'
p22
F11.940590704176309
sb.(i__main__
Data_mobile
p1
(dp2
S'vel_y'
p3
F-0.50367136836234905
sS'vel_x'
p4
F-0.52840813079663984
sS'pos_x'
p5
F20.41651918269147
sS'pos_y'
p6
F82.179264611211636
sS'isAlive'
p7
I01
sS'cumulativeEnergy'
p8
F40.734749604219552
sS'geno'
p9
(lp10
F-1.4479044785338873
aF-2.4860946047403472
aF0.47937690108934139
aF6.7231303954873782
aF-0.50974441396147829
asS'accel_x'
p11
F-0.49385271937674491
sS'accel_y'
p12
F-0.12628879257133235
sS'visionAngle'
p13
I130
sS'maxAccel'
p14
I2
sS'maxVel'
p15
F0.72999999999999998
sS'age'
p16
I100
sS'tailSize'
p17
I0
sS'sexualgeno'
p18
NsS'tailBrigh'
p19
I0
sS'maxSteering'
p20
I20
sS'energy'
p21
F0.54405907041763057
sS'lastScale'
p22
F10.940590704176307
sb.(i__main__
Data_mobile
p1
(dp2
S'vel_y'
p3
F0.51512026668930289
sS'vel_x'
p4
F0.5172534299992041
sS'pos_x'
p5
F85.006031766646615
sS'pos_y'
p6
F56.998443481103756
sS'isAlive'
p7
I01
sS'cumulativeEnergy'
p8
F36.116046548205631
sS'geno'
p9
(lp10
F-1.5663595600248956
aF-2.4574272174552716
aF0.47937690108934139
aF6.7231303954873782
aF-0.50974441396147829
asS'accel_x'
p11
F1.0133940316540795
sS'accel_y'
p12
F1.7242483975947001
sS'visionAngle'
p13
I130
sS'maxAccel'
p14
I2
sS'maxVel'
p15
F0.72999999999999998
sS'age'
p16
I100
sS'tailSize'
p17
I0
sS'sexualgeno'
p18
NsS'tailBrigh'
p19
I0
sS'maxSteering'
p20
I20
sS'energy'
p21
F1
sS'lastScale'
p22
F15.5
sb.(i__main__
Data_mobile
p1
(dp2
S'vel_y'
p3
F0.71893909649157206
sS'vel_x'
p4
F0.12659611185135972
sS'pos_x'
p5
F88.263356693249904
sS'pos_y'
p6
F61.122204780255267
sS'isAlive'
p7
I01
sS'cumulativeEnergy'
p8
F35.921869204892381
sS'geno'
p9
(lp10
F-1.4479044785338873
aF-2.4860946047403472
aF0.47937690108934139
aF6.7231303954873782
aF-0.50974441396147829
asS'accel_x'
p11
F-1.2764127293036696
sS'accel_y'
p12
F-1.5397306727059628
sS'visionAngle'
p13
I130
sS'maxAccel'
p14
I2
sS'maxVel'
p15
F0.72999999999999998
sS'age'
p16
I150
sS'tailSize'
p17
I0
sS'sexualgeno'
p18
NsS'tailBrigh'
p19
I0
sS'maxSteering'
p20
I20
sS'energy'
p21
F1
sS'lastScale'
p22
F15.5
sb.(i__main__
Data_mobile
p1
(dp2
S'vel_y'
p3
F0.54763402312768661
sS'vel_x'
p4
F0.48269760379867677
sS'pos_x'
p5
F46.05113002948417
sS'pos_y'
p6
F12.766864911383854
sS'isAlive'
p7
I01
sS'cumulativeEnergy'
p8
F35.267812379444599
sS'geno'
p9
(lp10
F-1.5663595600248956
aF-2.4574272174552716
aF0.78474993142646243
aF6.7231303954873782
aF-0.058233774698217444
asS'accel_x'
p11
F-1.0485888193056856
sS'accel_y'
p12
F-1.7030741287528
sS'visionAngle'
p13
I130
sS'maxAccel'
p14
I2
sS'maxVel'
p15
F0.72999999999999998
sS'age'
p16
I50
sS'tailSize'
p17
I0
sS'sexualgeno'
p18
NsS'tailBrigh'
p19
I0
sS'maxSteering'
p20
I20
sS'energy'
p21
F1
sS'lastScale'
p22
F15.5
sb.(i__main__
Data_mobile
p1
(dp2
S'vel_y'
p3
F-0.26435440235575747
sS'vel_x'
p4
F0.68045334149751258
sS'pos_x'
p5
F79.005553034176472
sS'pos_y'
p6
F52.7724612138189
sS'isAlive'
p7
I01
sS'cumulativeEnergy'
p8
F34.04133064811937
sS'geno'
p9
(lp10
F-1.4479044785338873
aF-2.4860946047403472
aF0.47937690108934139
aF6.7231303954873782
aF-0.50974441396147829
asS'accel_x'
p11
F-0.1169641994536216
sS'accel_y'
p12
F1.9965769146331862
sS'visionAngle'
p13
I130
sS'maxAccel'
p14
I2
sS'maxVel'
p15
F0.72999999999999998
sS'age'
p16
I50
sS'tailSize'
p17
I0
sS'sexualgeno'
p18
NsS'tailBrigh'
p19
I0
sS'maxSteering'
p20
I20
sS'energy'
p21
F0.94873914957681105
sS'lastScale'
p22
F14.987391495768112
sb.(i__main__
Data_mobile
p1
(dp2
S'vel_y'
p3
F-0.43020908748943815
sS'vel_x'
p4
F-0.58976278370333346
sS'pos_x'
p5
F-1.6957299920775648
sS'pos_y'
p6
F73.362827828348486
sS'isAlive'
p7
I01
sS'cumulativeEnergy'
p8
F28.981245061703294
sS'geno'
p9
(lp10
F-1.7181931717910821
aF-2.4860946047403472
aF0.47937690108934139
aF6.7231303954873782
aF-0.50974441396147829
asS'accel_x'
p11
F-0.38054368962863344
sS'accel_y'
p12
F-0.33915463707394189
sS'visionAngle'
p13
I130
sS'maxAccel'
p14
I2
sS'maxVel'
p15
F0.72999999999999998
sS'age'
p16
I50
sS'tailSize'
p17
I0
sS'sexualgeno'
p18
NsS'tailBrigh'
p19
I0
sS'maxSteering'
p20
I20
sS'energy'
p21
F0.39825676022439982
sS'lastScale'
p22
F9.4825676022439982
sb.(i__main__
Data_mobile
p1
(dp2
S'vel_y'
p3
F-0.53965103295457406
sS'vel_x'
p4
F-0.49160630857532878
sS'pos_x'
p5
F63.945058057687916
sS'pos_y'
p6
F-48.354027953777532
sS'isAlive'
p7
I01
sS'cumulativeEnergy'
p8
F26.570341194943545
sS'geno'
p9
(lp10
F-1.7181931717910821
aF-1.993274101217771
aF0.47937690108934139
aF6.7231303954873782
aF-0.50974441396147829
asS'accel_x'
p11
F-0.070939075265237017
sS'accel_y'
p12
F-0.50478412729150268
sS'visionAngle'
p13
I130
sS'maxAccel'
p14
I2
sS'maxVel'
p15
F0.72999999999999998
sS'age'
p16
I100
sS'tailSize'
p17
I0
sS'sexualgeno'
p18
NsS'tailBrigh'
p19
I0
sS'maxSteering'
p20
I20
sS'energy'
p21
F0.26933263221155684
sS'lastScale'
p22
F8.193326322115567
sb.(i__main__
Data_mobile
p1
(dp2
S'vel_y'
p3
F0.0015322550792595667
sS'vel_x'
p4
F0.7299983919121823
sS'pos_x'
p5
F46.743995970800562
sS'pos_y'
p6
F10.479769543327556
sS'isAlive'
p7
I01
sS'cumulativeEnergy'
p8
F26.34419119416302
sS'geno'
p9
(lp10
F-1.4479044785338873
aF-2.4860946047403472
aF0.47937690108934139
aF6.7231303954873782
aF-0.50974441396147829
asS'accel_x'
p11
F-1.5485348130596766
sS'accel_y'
p12
F1.2657171614315079
sS'visionAngle'
p13
I130
sS'maxAccel'
p14
I2
sS'maxVel'
p15
F0.72999999999999998
sS'age'
p16
I50
sS'tailSize'
p17
I0
sS'sexualgeno'
p18
NsS'tailBrigh'
p19
I0
sS'maxSteering'
p20
I20
sS'energy'
p21
F1
sS'lastScale'
p22
F15.5
sb.(i__main__
Data_mobile
p1
(dp2
S'vel_y'
p3
F-0.72009109519443426
sS'vel_x'
p4
F-0.1198699904967053
sS'pos_x'
p5
F50.478697761087538
sS'pos_y'
p6
F-104.61203441431327
sS'isAlive'
p7
I01
sS'cumulativeEnergy'
p8
F23.183715415738749
sS'geno'
p9
(lp10
F-1.5663595600248956
aF-2.4574272174552716
aF0.78474993142646243
aF6.9340243880316317
aF-1.568817011091703
asS'accel_x'
p11
F-0.94446544947164957
sS'accel_y'
p12
F-1.2526658888327005
sS'visionAngle'
p13
I130
sS'maxAccel'
p14
I2
sS'maxVel'
p15
F0.72999999999999998
sS'age'
p16
I150
sS'tailSize'
p17
I0
sS'sexualgeno'
p18
NsS'tailBrigh'
p19
I0
sS'maxSteering'
p20
I20
sS'energy'
p21
I0
sS'lastScale'
p22
F5.5
sb.(i__main__
Data_mobile
p1
(dp2
S'vel_y'
p3
F-0.57271030122291033
sS'vel_x'
p4
F-0.4526620272048047
sS'pos_x'
p5
F43.921395355678797
sS'pos_y'
p6
F9.085860068075494
sS'isAlive'
p7
I01
sS'cumulativeEnergy'
p8
F19.231245061703294
sS'geno'
p9
(lp10
F-1.4479044785338873
aF-2.4860946047403472
aF0.52732447083130218
aF6.7231303954873782
aF-0.50974441396147829
asS'accel_x'
p11
F0.85119297866278776
sS'accel_y'
p12
F1.8098261002303984
sS'visionAngle'
p13
I130
sS'maxAccel'
p14
I2
sS'maxVel'
p15
F0.72999999999999998
sS'age'
p16
I50
sS'tailSize'
p17
I0
sS'sexualgeno'
p18
NsS'tailBrigh'
p19
I0
sS'maxSteering'
p20
I20
sS'energy'
p21
F0.89825676022440004
sS'lastScale'
p22
F14.482567602244
sb.(i__main__
Data_mobile
p1
(dp2
S'vel_y'
p3
F-0.41893172775784021
sS'vel_x'
p4
F0.59782623518697364
sS'pos_x'
p5
F14.572212550125169
sS'pos_y'
p6
F-69.367537693938857
sS'isAlive'
p7
I01
sS'cumulativeEnergy'
p8
F12.281245061703295
sS'geno'
p9
(lp10
F-1.5663595600248956
aF-2.4574272174552716
aF0.84534730442642181
aF7.2340755601336566
aF-1.3327561581332814
asS'accel_x'
p11
F1.8436834178916957
sS'accel_y'
p12
F-0.7751331850664086
sS'visionAngle'
p13
I130
sS'maxAccel'
p14
I2
sS'maxVel'
p15
F0.72999999999999998
sS'age'
p16
I50
sS'tailSize'
p17
I0
sS'sexualgeno'
p18
NsS'tailBrigh'
p19
I0
sS'maxSteering'
p20
I20
sS'energy'
p21
F0.09825676022439972
sS'lastScale'
p22
F6.4825676022439982
sb.(i__main__
Data_mobile
p1
(dp2
S'vel_y'
p3
F-0.32858439550130342
sS'vel_x'
p4
F-0.65186831111279142
sS'pos_x'
p5
F34.63724152251384
sS'pos_y'
p6
F-94.706249838276378
sS'isAlive'
p7
I01
sS'cumulativeEnergy'
p8
F12.231245061703294
sS'geno'
p9
(lp10
F-1.4479044785338873
aF-2.4860946047403472
aF0.47937690108934139
aF6.7231303954873782
aF-0.50974441396147829
asS'accel_x'
p11
F-0.50954615359581101
sS'accel_y'
p12
F-0.014215657587501577
sS'visionAngle'
p13
I130
sS'maxAccel'
p14
I2
sS'maxVel'
p15
F0.72999999999999998
sS'age'
p16
I50
sS'tailSize'
p17
I0
sS'sexualgeno'
p18
NsS'tailBrigh'
p19
I0
sS'maxSteering'
p20
I20
sS'energy'
p21
I0
sS'lastScale'
p22
F5.5
sb.(i__main__
Data_mobile
p1
(dp2
S'vel_y'
p3
F-0.40028091608403454
sS'vel_x'
p4
F-0.61047128369721537
sS'pos_x'
p5
F27.142060475400935
sS'pos_y'
p6
F-59.235872873067358
sS'isAlive'
p7
I01
sS'cumulativeEnergy'
p8
F12.231245061703294
sS'geno'
p9
(lp10
F-1.4479044785338873
aF-2.4860946047403472
aF0.47937690108934139
aF6.9340243880316317
aF-1.568817011091703
asS'accel_x'
p11
F-1.5588923063109477
sS'accel_y'
p12
F-1.2529384571177204
sS'visionAngle'
p13
I130
sS'maxAccel'
p14
I2
sS'maxVel'
p15
F0.72999999999999998
sS'age'
p16
I50
sS'tailSize'
p17
I0
sS'sexualgeno'
p18
NsS'tailBrigh'
p19
I0
sS'maxSteering'
p20
I20
sS'energy'
p21
I0
sS'lastScale'
p22
F5.5
sb.(i__main__
Data_mobile
p1
(dp2
S'vel_y'
p3
F-0.51887369486713986
sS'vel_x'
p4
F-0.51285842171178819
sS'pos_x'
p5
F37.401176606032593
sS'pos_y'
p6
F31.245708974897319
sS'isAlive'
p7
I01
sS'cumulativeEnergy'
p8
F0.5
sS'geno'
p9
(lp10
F-1.7181931717910821
aF-2.2561254559460715
aF0.47937690108934139
aF6.7231303954873782
aF-0.50974441396147829
asS'accel_x'
p11
F0
sS'accel_y'
p12
F0
sS'visionAngle'
p13
I130
sS'maxAccel'
p14
I2
sS'maxVel'
p15
F0.72999999999999998
sS'age'
p16
I0
sS'tailSize'
p17
I0
sS'sexualgeno'
p18
NsS'tailBrigh'
p19
I0
sS'maxSteering'
p20
I20
sS'energy'
p21
F0.5
sS'lastScale'
p22
F5.5
sb.(i__main__
Data_mobile
p1
(dp2
S'vel_y'
p3
F0.33674435246670381
sS'vel_x'
p4
F0.33417297423463349
sS'pos_x'
p5
F51.503110466081509
sS'pos_y'
p6
F70.059868391363565
sS'isAlive'
p7
I01
sS'cumulativeEnergy'
p8
F0.5
sS'geno'
p9
(lp10
F-1.4479044785338873
aF-2.4860946047403472
aF0.47937690108934139
aF6.7231303954873782
aF-0.50974441396147829
asS'accel_x'
p11
F0
sS'accel_y'
p12
F0
sS'visionAngle'
p13
I130
sS'maxAccel'
p14
I2
sS'maxVel'
p15
F0.72999999999999998
sS'age'
p16
I0
sS'tailSize'
p17
I0
sS'sexualgeno'
p18
NsS'tailBrigh'
p19
I0
sS'maxSteering'
p20
I20
sS'energy'
p21
F0.5
sS'lastScale'
p22
F5.5
sb.(i__main__
Data_mobile
p1
(dp2
S'vel_y'
p3
F-0.52883975005990236
sS'vel_x'
p4
F-0.50266463598286082
sS'pos_x'
p5
F31.180740876953031
sS'pos_y'
p6
F49.899538804505184
sS'isAlive'
p7
I01
sS'cumulativeEnergy'
p8
F0.5
sS'geno'
p9
(lp10
F-1.4479044785338873
aF-1.9450393231851155
aF0.47937690108934139
aF6.7231303954873782
aF-0.50974441396147829
asS'accel_x'
p11
F0
sS'accel_y'
p12
F0
sS'visionAngle'
p13
I130
sS'maxAccel'
p14
I2
sS'maxVel'
p15
F0.72999999999999998
sS'age'
p16
I0
sS'tailSize'
p17
I0
sS'sexualgeno'
p18
NsS'tailBrigh'
p19
I0
sS'maxSteering'
p20
I20
sS'energy'
p21
F0.5
sS'lastScale'
p22
F5.5
sb.(i__main__
Data_mobile
p1
(dp2
S'vel_y'
p3
F-0.49976373500761212
sS'vel_x'
p4
F-0.53195161592652862
sS'pos_x'
p5
F16.03230967232264
sS'pos_y'
p6
F87.454941903082783
sS'isAlive'
p7
I01
sS'cumulativeEnergy'
p8
F0.5
sS'geno'
p9
(lp10
F-1.7181931717910821
aF-2.4860946047403472
aF0.47937690108934139
aF6.7231303954873782
aF-0.95432709602327515
asS'accel_x'
p11
F0
sS'accel_y'
p12
F0
sS'visionAngle'
p13
I130
sS'maxAccel'
p14
I2
sS'maxVel'
p15
F0.72999999999999998
sS'age'
p16
I0
sS'tailSize'
p17
I0
sS'sexualgeno'
p18
NsS'tailBrigh'
p19
I0
sS'maxSteering'
p20
I20
sS'energy'
p21
F0.5
sS'lastScale'
p22
F5.5
sb.(i__main__
Data_mobile
p1
(dp2
S'vel_y'
p3
F-0.50176732516961819
sS'vel_x'
p4
F-0.53013473821540624
sS'pos_x'
p5
F17.026493215848035
sS'pos_y'
p6
F86.258605019062003
sS'isAlive'
p7
I01
sS'cumulativeEnergy'
p8
F0.5
sS'geno'
p9
(lp10
F-1.0777762627735019
aF-2.4860946047403472
aF0.47937690108934139
aF6.7231303954873782
aF-0.50974441396147829
asS'accel_x'
p11
F0
sS'accel_y'
p12
F0
sS'visionAngle'
p13
I130
sS'maxAccel'
p14
I2
sS'maxVel'
p15
F0.72999999999999998
sS'age'
p16
I0
sS'tailSize'
p17
I0
sS'sexualgeno'
p18
NsS'tailBrigh'
p19
I0
sS'maxSteering'
p20
I20
sS'energy'
p21
F0.5
sS'lastScale'
p22
F5.5
sb.(i__main__
Data_mobile
p1
(dp2
S'vel_y'
p3
F0.10904782953823977
sS'vel_x'
p4
F0.10047111277294882
sS'pos_x'
p5
F32.04119611714902
sS'pos_y'
p6
F77.647276384773434
sS'isAlive'
p7
I01
sS'cumulativeEnergy'
p8
F0.5
sS'geno'
p9
(lp10
F-1.5509277601834563
aF-2.4574272174552716
aF0.47937690108934139
aF6.7231303954873782
aF-0.42794539813676369
asS'accel_x'
p11
F0
sS'accel_y'
p12
F0
sS'visionAngle'
p13
I130
sS'maxAccel'
p14
I2
sS'maxVel'
p15
F0.72999999999999998
sS'age'
p16
I0
sS'tailSize'
p17
I0
sS'sexualgeno'
p18
NsS'tailBrigh'
p19
I0
sS'maxSteering'
p20
I20
sS'energy'
p21
F0.5
sS'lastScale'
p22
F5.5
sb.(i__main__
Data_mobile
p1
(dp2
S'vel_y'
p3
F-0.17017546866481595
sS'vel_x'
p4
F-0.18611650707413385
sS'pos_x'
p5
F61.222434354355698
sS'pos_y'
p6
F66.270699739284069
sS'isAlive'
p7
I01
sS'cumulativeEnergy'
p8
F0.5
sS'geno'
p9
(lp10
F-1.5663595600248956
aF-2.4574272174552716
aF0.47937690108934139
aF6.7231303954873782
aF-0.50974441396147829
asS'accel_x'
p11
F0
sS'accel_y'
p12
F0
sS'visionAngle'
p13
I130
sS'maxAccel'
p14
I2
sS'maxVel'
p15
F0.72999999999999998
sS'age'
p16
I0
sS'tailSize'
p17
I0
sS'sexualgeno'
p18
NsS'tailBrigh'
p19
I0
sS'maxSteering'
p20
I20
sS'energy'
p21
F0.5
sS'lastScale'
p22
F5.5
sb.(i__main__
Data_mobile
p1
(dp2
S'vel_y'
p3
F0.23998125425154807
sS'vel_x'
p4
F0.23485781613366274
sS'pos_x'
p5
F79.743975096807219
sS'pos_y'
p6
F59.049905126792545
sS'isAlive'
p7
I01
sS'cumulativeEnergy'
p8
F0.5
sS'geno'
p9
(lp10
F-1.7457706067299807
aF-2.4860946047403472
aF0.47937690108934139
aF6.7231303954873782
aF-0.50974441396147829
asS'accel_x'
p11
F0
sS'accel_y'
p12
F0
sS'visionAngle'
p13
I130
sS'maxAccel'
p14
I2
sS'maxVel'
p15
F0.72999999999999998
sS'age'
p16
I0
sS'tailSize'
p17
I0
sS'sexualgeno'
p18
NsS'tailBrigh'
p19
I0
sS'maxSteering'
p20
I20
sS'energy'
p21
F0.5
sS'lastScale'
p22
F5.5
sb.(i__main__
Data_mobile
p1
(dp2
S'vel_y'
p3
I0
sS'vel_x'
p4
I0
sS'pos_x'
p5
I-9579
sS'pos_y'
p6
I9779
sS'isAlive'
p7
I00
sS'cumulativeEnergy'
p8
F0.5
sS'geno'
p9
(lp10
F-1.5663595600248956
aF-2.4574272174552716
aF0.47937690108934139
aF7.2340755601336566
aF-1.6414825186195352
asS'accel_x'
p11
F0
sS'accel_y'
p12
F0
sS'visionAngle'
p13
I130
sS'maxAccel'
p14
I2
sS'maxVel'
p15
F0.72999999999999998
sS'age'
p16
I0
sS'tailSize'
p17
I0
sS'sexualgeno'
p18
NsS'tailBrigh'
p19
I0
sS'maxSteering'
p20
I20
sS'energy'
p21
F0.5
sS'lastScale'
p22
F5.5
sb.(i__main__
Data_mobile
p1
(dp2
S'vel_y'
p3
I0
sS'vel_x'
p4
I0
sS'pos_x'
p5
I-9579
sS'pos_y'
p6
I9779
sS'isAlive'
p7
I00
sS'cumulativeEnergy'
p8
F0.5
sS'geno'
p9
(lp10
F-1.4479044785338873
aF-2.4860946047403472
aF0.47937690108934139
aF6.7231303954873782
aF-0.50974441396147829
asS'accel_x'
p11
F0
sS'accel_y'
p12
F0
sS'visionAngle'
p13
I130
sS'maxAccel'
p14
I2
sS'maxVel'
p15
F0.72999999999999998
sS'age'
p16
I0
sS'tailSize'
p17
I0
sS'sexualgeno'
p18
NsS'tailBrigh'
p19
I0
sS'maxSteering'
p20
I20
sS'energy'
p21
F0.5
sS'lastScale'
p22
F5.5
sb.(i__main__
Data_mobile
p1
(dp2
S'vel_y'
p3
I0
sS'vel_x'
p4
I0
sS'pos_x'
p5
I-9579
sS'pos_y'
p6
I9779
sS'isAlive'
p7
I00
sS'cumulativeEnergy'
p8
F0.5
sS'geno'
p9
(lp10
F-1.4479044785338873
aF-2.4860946047403472
aF0.40785589802495437
aF7.1844186819276921
aF-1.0918444945516717
asS'accel_x'
p11
F0
sS'accel_y'
p12
F0
sS'visionAngle'
p13
I130
sS'maxAccel'
p14
I2
sS'maxVel'
p15
F0.72999999999999998
sS'age'
p16
I0
sS'tailSize'
p17
I0
sS'sexualgeno'
p18
NsS'tailBrigh'
p19
I0
sS'maxSteering'
p20
I20
sS'energy'
p21
F0.5
sS'lastScale'
p22
F5.5
sb.(i__main__
Data_mobile
p1
(dp2
S'vel_y'
p3
I0
sS'vel_x'
p4
I0
sS'pos_x'
p5
I-9579
sS'pos_y'
p6
I9779
sS'isAlive'
p7
I00
sS'cumulativeEnergy'
p8
F0.5
sS'geno'
p9
(lp10
F-1.4479044785338873
aF-2.4860946047403472
aF0.47937690108934139
aF6.7231303954873782
aF-0.50974441396147829
asS'accel_x'
p11
F0
sS'accel_y'
p12
F0
sS'visionAngle'
p13
I130
sS'maxAccel'
p14
I2
sS'maxVel'
p15
F0.72999999999999998
sS'age'
p16
I0
sS'tailSize'
p17
I0
sS'sexualgeno'
p18
NsS'tailBrigh'
p19
I0
sS'maxSteering'
p20
I20
sS'energy'
p21
F0.5
sS'lastScale'
p22
F5.5
sb.(i__main__
Data_mobile
p1
(dp2
S'vel_y'
p3
I0
sS'vel_x'
p4
I0
sS'pos_x'
p5
I-9579
sS'pos_y'
p6
I9779
sS'isAlive'
p7
I00
sS'cumulativeEnergy'
p8
F0.5
sS'geno'
p9
(lp10
F-1.4479044785338873
aF-2.4860946047403472
aF0.47937690108934139
aF7.1844186819276921
aF-1.6414825186195352
asS'accel_x'
p11
F0
sS'accel_y'
p12
F0
sS'visionAngle'
p13
I130
sS'maxAccel'
p14
I2
sS'maxVel'
p15
F0.72999999999999998
sS'age'
p16
I0
sS'tailSize'
p17
I0
sS'sexualgeno'
p18
NsS'tailBrigh'
p19
I0
sS'maxSteering'
p20
I20
sS'energy'
p21
F0.5
sS'lastScale'
p22
F5.5
sb.(i__main__
Data_mobile
p1
(dp2
S'vel_y'
p3
I0
sS'vel_x'
p4
I0
sS'pos_x'
p5
I-9579
sS'pos_y'
p6
I9779
sS'isAlive'
p7
I00
sS'cumulativeEnergy'
p8
F0.5
sS'geno'
p9
(lp10
F-1.9956194036612747
aF-2.4860946047403472
aF0.47937690108934139
aF6.7231303954873782
aF-0.55433277596823327
asS'accel_x'
p11
F0
sS'accel_y'
p12
F0
sS'visionAngle'
p13
I130
sS'maxAccel'
p14
I2
sS'maxVel'
p15
F0.72999999999999998
sS'age'
p16
I0
sS'tailSize'
p17
I0
sS'sexualgeno'
p18
NsS'tailBrigh'
p19
I0
sS'maxSteering'
p20
I20
sS'energy'
p21
F0.5
sS'lastScale'
p22
F5.5
sb.(i__main__
Data_mobile
p1
(dp2
S'vel_y'
p3
I0
sS'vel_x'
p4
I0
sS'pos_x'
p5
I-9579
sS'pos_y'
p6
I9779
sS'isAlive'
p7
I00
sS'cumulativeEnergy'
p8
F0.5
sS'geno'
p9
(lp10
F-1.4479044785338873
aF-2.4860946047403472
aF0.47937690108934139
aF6.7231303954873782
aF-0.50974441396147829
asS'accel_x'
p11
F0
sS'accel_y'
p12
F0
sS'visionAngle'
p13
I130
sS'maxAccel'
p14
I2
sS'maxVel'
p15
F0.72999999999999998
sS'age'
p16
I0
sS'tailSize'
p17
I0
sS'sexualgeno'
p18
NsS'tailBrigh'
p19
I0
sS'maxSteering'
p20
I20
sS'energy'
p21
F0.5
sS'lastScale'
p22
F5.5
sb.(i__main__
Data_mobile
p1
(dp2
S'vel_y'
p3
I0
sS'vel_x'
p4
I0
sS'pos_x'
p5
I-9579
sS'pos_y'
p6
I9779
sS'isAlive'
p7
I00
sS'cumulativeEnergy'
p8
F0.5
sS'geno'
p9
(lp10
F-1.7181931717910821
aF-2.4860946047403472
aF0.47937690108934139
aF6.7231303954873782
aF-0.50974441396147829
asS'accel_x'
p11
F0
sS'accel_y'
p12
F0
sS'visionAngle'
p13
I130
sS'maxAccel'
p14
I2
sS'maxVel'
p15
F0.72999999999999998
sS'age'
p16
I0
sS'tailSize'
p17
I0
sS'sexualgeno'
p18
NsS'tailBrigh'
p19
I0
sS'maxSteering'
p20
I20
sS'energy'
p21
F0.5
sS'lastScale'
p22
F5.5
sb.(i__main__
Data_mobile
p1
(dp2
S'vel_y'
p3
I0
sS'vel_x'
p4
I0
sS'pos_x'
p5
I-9579
sS'pos_y'
p6
I9779
sS'isAlive'
p7
I00
sS'cumulativeEnergy'
p8
F0.5
sS'geno'
p9
(lp10
F-1.5663595600248956
aF-2.4574272174552716
aF0.47937690108934139
aF6.7231303954873782
aF-0.50974441396147829
asS'accel_x'
p11
F0
sS'accel_y'
p12
F0
sS'visionAngle'
p13
I130
sS'maxAccel'
p14
I2
sS'maxVel'
p15
F0.72999999999999998
sS'age'
p16
I0
sS'tailSize'
p17
I0
sS'sexualgeno'
p18
NsS'tailBrigh'
p19
I0
sS'maxSteering'
p20
I20
sS'energy'
p21
F0.5
sS'lastScale'
p22
F5.5
sb.(i__main__
Data_mobile
p1
(dp2
S'vel_y'
p3
I0
sS'vel_x'
p4
I0
sS'pos_x'
p5
I-9579
sS'pos_y'
p6
I9779
sS'isAlive'
p7
I00
sS'cumulativeEnergy'
p8
F0.5
sS'geno'
p9
(lp10
F-1.7181931717910821
aF-2.4860946047403472
aF0.40785589802495437
aF7.1844186819276921
aF-1.2042250114692665
asS'accel_x'
p11
F0
sS'accel_y'
p12
F0
sS'visionAngle'
p13
I130
sS'maxAccel'
p14
I2
sS'maxVel'
p15
F0.72999999999999998
sS'age'
p16
I0
sS'tailSize'
p17
I0
sS'sexualgeno'
p18
NsS'tailBrigh'
p19
I0
sS'maxSteering'
p20
I20
sS'energy'
p21
F0.5
sS'lastScale'
p22
F5.5
sb.(i__main__
Data_mobile
p1
(dp2
S'vel_y'
p3
I0
sS'vel_x'
p4
I0
sS'pos_x'
p5
I-9579
sS'pos_y'
p6
I9779
sS'isAlive'
p7
I00
sS'cumulativeEnergy'
p8
F0.5
sS'geno'
p9
(lp10
F-2.1396462060302506
aF-2.4860946047403472
aF0.47937690108934139
aF7.1844186819276921
aF-1.6414825186195352
asS'accel_x'
p11
F0
sS'accel_y'
p12
F0
sS'visionAngle'
p13
I130
sS'maxAccel'
p14
I2
sS'maxVel'
p15
F0.72999999999999998
sS'age'
p16
I0
sS'tailSize'
p17
I0
sS'sexualgeno'
p18
NsS'tailBrigh'
p19
I0
sS'maxSteering'
p20
I20
sS'energy'
p21
F0.5
sS'lastScale'
p22
F5.5
sb.(i__main__
Data_mobile
p1
(dp2
S'vel_y'
p3
I0
sS'vel_x'
p4
I0
sS'pos_x'
p5
I-9579
sS'pos_y'
p6
I9779
sS'isAlive'
p7
I00
sS'cumulativeEnergy'
p8
F0.5
sS'geno'
p9
(lp10
F-2.1396462060302506
aF-2.4860946047403472
aF0.47937690108934139
aF7.1844186819276921
aF-1.9229210811055255
asS'accel_x'
p11
F0
sS'accel_y'
p12
F0
sS'visionAngle'
p13
I130
sS'maxAccel'
p14
I2
sS'maxVel'
p15
F0.72999999999999998
sS'age'
p16
I0
sS'tailSize'
p17
I0
sS'sexualgeno'
p18
NsS'tailBrigh'
p19
I0
sS'maxSteering'
p20
I20
sS'energy'
p21
F0.5
sS'lastScale'
p22
F5.5
sb.(i__main__
Data_mobile
p1
(dp2
S'vel_y'
p3
I0
sS'vel_x'
p4
I0
sS'pos_x'
p5
I-9579
sS'pos_y'
p6
I9779
sS'isAlive'
p7
I00
sS'cumulativeEnergy'
p8
F0.5
sS'geno'
p9
(lp10
F-2.1396462060302506
aF-2.4860946047403472
aF0.47937690108934139
aF7.1844186819276921
aF-1.6414825186195352
asS'accel_x'
p11
F0
sS'accel_y'
p12
F0
sS'visionAngle'
p13
I130
sS'maxAccel'
p14
I2
sS'maxVel'
p15
F0.72999999999999998
sS'age'
p16
I0
sS'tailSize'
p17
I0
sS'sexualgeno'
p18
NsS'tailBrigh'
p19
I0
sS'maxSteering'
p20
I20
sS'energy'
p21
F0.5
sS'lastScale'
p22
F5.5
sb.(i__main__
Data_mobile
p1
(dp2
S'vel_y'
p3
I0
sS'vel_x'
p4
I0
sS'pos_x'
p5
I-9579
sS'pos_y'
p6
I9779
sS'isAlive'
p7
I00
sS'cumulativeEnergy'
p8
F0.5
sS'geno'
p9
(lp10
F-1.7181931717910821
aF-2.4860946047403472
aF0.47937690108934139
aF6.7231303954873782
aF-0.50974441396147829
asS'accel_x'
p11
F0
sS'accel_y'
p12
F0
sS'visionAngle'
p13
I130
sS'maxAccel'
p14
I2
sS'maxVel'
p15
F0.72999999999999998
sS'age'
p16
I0
sS'tailSize'
p17
I0
sS'sexualgeno'
p18
NsS'tailBrigh'
p19
I0
sS'maxSteering'
p20
I20
sS'energy'
p21
F0.5
sS'lastScale'
p22
F5.5
sb.(i__main__
Data_mobile
p1
(dp2
S'vel_y'
p3
I0
sS'vel_x'
p4
I0
sS'pos_x'
p5
I-9579
sS'pos_y'
p6
I9779
sS'isAlive'
p7
I00
sS'cumulativeEnergy'
p8
F0.5
sS'geno'
p9
(lp10
F-1.4479044785338873
aF-2.4860946047403472
aF0.78474993142646243
aF7.4903680079838972
aF-1.568817011091703
asS'accel_x'
p11
F0
sS'accel_y'
p12
F0
sS'visionAngle'
p13
I130
sS'maxAccel'
p14
I2
sS'maxVel'
p15
F0.72999999999999998
sS'age'
p16
I0
sS'tailSize'
p17
I0
sS'sexualgeno'
p18
NsS'tailBrigh'
p19
I0
sS'maxSteering'
p20
I20
sS'energy'
p21
F0.5
sS'lastScale'
p22
F5.5
sb.(i__main__
Data_mobile
p1
(dp2
S'vel_y'
p3
I0
sS'vel_x'
p4
I0
sS'pos_x'
p5
I-9579
sS'pos_y'
p6
I9779
sS'isAlive'
p7
I00
sS'cumulativeEnergy'
p8
F0.5
sS'geno'
p9
(lp10
F-1.4479044785338873
aF-2.4860946047403472
aF0.78474993142646243
aF7.1844186819276921
aF-1.568817011091703
asS'accel_x'
p11
F0
sS'accel_y'
p12
F0
sS'visionAngle'
p13
I130
sS'maxAccel'
p14
I2
sS'maxVel'
p15
F0.72999999999999998
sS'age'
p16
I0
sS'tailSize'
p17
I0
sS'sexualgeno'
p18
NsS'tailBrigh'
p19
I0
sS'maxSteering'
p20
I20
sS'energy'
p21
F0.5
sS'lastScale'
p22
F5.5
sb.(i__main__
Data_mobile
p1
(dp2
S'vel_y'
p3
I0
sS'vel_x'
p4
I0
sS'pos_x'
p5
I-9579
sS'pos_y'
p6
I9779
sS'isAlive'
p7
I00
sS'cumulativeEnergy'
p8
F0.5
sS'geno'
p9
(lp10
F-2.1396462060302506
aF-2.4860946047403472
aF0.47937690108934139
aF7.1844186819276921
aF-1.6414825186195352
asS'accel_x'
p11
F0
sS'accel_y'
p12
F0
sS'visionAngle'
p13
I130
sS'maxAccel'
p14
I2
sS'maxVel'
p15
F0.72999999999999998
sS'age'
p16
I0
sS'tailSize'
p17
I0
sS'sexualgeno'
p18
NsS'tailBrigh'
p19
I0
sS'maxSteering'
p20
I20
sS'energy'
p21
F0.5
sS'lastScale'
p22
F5.5
sb.(i__main__
Data_mobile
p1
(dp2
S'vel_y'
p3
I0
sS'vel_x'
p4
I0
sS'pos_x'
p5
I-9579
sS'pos_y'
p6
I9779
sS'isAlive'
p7
I00
sS'cumulativeEnergy'
p8
F0.5
sS'geno'
p9
(lp10
F-2.1396462060302506
aF-2.4860946047403472
aF0.31647477190327711
aF7.1844186819276921
aF-1.568817011091703
asS'accel_x'
p11
F0
sS'accel_y'
p12
F0
sS'visionAngle'
p13
I130
sS'maxAccel'
p14
I2
sS'maxVel'
p15
F0.72999999999999998
sS'age'
p16
I0
sS'tailSize'
p17
I0
sS'sexualgeno'
p18
NsS'tailBrigh'
p19
I0
sS'maxSteering'
p20
I20
sS'energy'
p21
F0.5
sS'lastScale'
p22
F5.5
sb.(i__main__
Data_mobile
p1
(dp2
S'vel_y'
p3
I0
sS'vel_x'
p4
I0
sS'pos_x'
p5
I-9579
sS'pos_y'
p6
I9779
sS'isAlive'
p7
I00
sS'cumulativeEnergy'
p8
F0.5
sS'geno'
p9
(lp10
F-1.7181931717910821
aF-2.4860946047403472
aF0.78474993142646243
aF7.1844186819276921
aF-1.568817011091703
asS'accel_x'
p11
F0
sS'accel_y'
p12
F0
sS'visionAngle'
p13
I130
sS'maxAccel'
p14
I2
sS'maxVel'
p15
F0.72999999999999998
sS'age'
p16
I0
sS'tailSize'
p17
I0
sS'sexualgeno'
p18
NsS'tailBrigh'
p19
I0
sS'maxSteering'
p20
I20
sS'energy'
p21
F0.5
sS'lastScale'
p22
F5.5
sb.(i__main__
Data_mobile
p1
(dp2
S'vel_y'
p3
I0
sS'vel_x'
p4
I0
sS'pos_x'
p5
I-9579
sS'pos_y'
p6
I9779
sS'isAlive'
p7
I00
sS'cumulativeEnergy'
p8
F0.5
sS'geno'
p9
(lp10
F-2.1396462060302506
aF-2.4860946047403472
aF0.47937690108934139
aF7.1844186819276921
aF-1.6414825186195352
asS'accel_x'
p11
F0
sS'accel_y'
p12
F0
sS'visionAngle'
p13
I130
sS'maxAccel'
p14
I2
sS'maxVel'
p15
F0.72999999999999998
sS'age'
p16
I0
sS'tailSize'
p17
I0
sS'sexualgeno'
p18
NsS'tailBrigh'
p19
I0
sS'maxSteering'
p20
I20
sS'energy'
p21
F0.5
sS'lastScale'
p22
F5.5
sb.(i__main__
Data_mobile
p1
(dp2
S'vel_y'
p3
I0
sS'vel_x'
p4
I0
sS'pos_x'
p5
I-9579
sS'pos_y'
p6
I9779
sS'isAlive'
p7
I00
sS'cumulativeEnergy'
p8
F0.5
sS'geno'
p9
(lp10
F-1.4479044785338873
aF-2.4860946047403472
aF0.78474993142646243
aF7.1844186819276921
aF-1.568817011091703
asS'accel_x'
p11
F0
sS'accel_y'
p12
F0
sS'visionAngle'
p13
I130
sS'maxAccel'
p14
I2
sS'maxVel'
p15
F0.72999999999999998
sS'age'
p16
I0
sS'tailSize'
p17
I0
sS'sexualgeno'
p18
NsS'tailBrigh'
p19
I0
sS'maxSteering'
p20
I20
sS'energy'
p21
F0.5
sS'lastScale'
p22
F5.5
sb.(i__main__
Data_mobile
p1
(dp2
S'vel_y'
p3
I0
sS'vel_x'
p4
I0
sS'pos_x'
p5
I-9579
sS'pos_y'
p6
I9779
sS'isAlive'
p7
I00
sS'cumulativeEnergy'
p8
F0.5
sS'geno'
p9
(lp10
F-1.4479044785338873
aF-2.4860946047403472
aF0.78474993142646243
aF7.1844186819276921
aF-1.568817011091703
asS'accel_x'
p11
F0
sS'accel_y'
p12
F0
sS'visionAngle'
p13
I130
sS'maxAccel'
p14
I2
sS'maxVel'
p15
F0.72999999999999998
sS'age'
p16
I0
sS'tailSize'
p17
I0
sS'sexualgeno'
p18
NsS'tailBrigh'
p19
I0
sS'maxSteering'
p20
I20
sS'energy'
p21
F0.5
sS'lastScale'
p22
F5.5
sb.(i__main__
Data_mobile
p1
(dp2
S'vel_y'
p3
I0
sS'vel_x'
p4
I0
sS'pos_x'
p5
I-9579
sS'pos_y'
p6
I9779
sS'isAlive'
p7
I00
sS'cumulativeEnergy'
p8
F0.5
sS'geno'
p9
(lp10
F-1.7181931717910821
aF-2.4860946047403472
aF0.78474993142646243
aF7.1844186819276921
aF-1.568817011091703
asS'accel_x'
p11
F0
sS'accel_y'
p12
F0
sS'visionAngle'
p13
I130
sS'maxAccel'
p14
I2
sS'maxVel'
p15
F0.72999999999999998
sS'age'
p16
I0
sS'tailSize'
p17
I0
sS'sexualgeno'
p18
NsS'tailBrigh'
p19
I0
sS'maxSteering'
p20
I20
sS'energy'
p21
F0.5
sS'lastScale'
p22
F5.5
sb.(i__main__
Data_mobile
p1
(dp2
S'vel_y'
p3
I0
sS'vel_x'
p4
I0
sS'pos_x'
p5
I-9579
sS'pos_y'
p6
I9779
sS'isAlive'
p7
I00
sS'cumulativeEnergy'
p8
F0.5
sS'geno'
p9
(lp10
F-1.5663595600248956
aF-2.4574272174552716
aF0.78474993142646243
aF7.1844186819276921
aF-1.568817011091703
asS'accel_x'
p11
F0
sS'accel_y'
p12
F0
sS'visionAngle'
p13
I130
sS'maxAccel'
p14
I2
sS'maxVel'
p15
F0.72999999999999998
sS'age'
p16
I0
sS'tailSize'
p17
I0
sS'sexualgeno'
p18
NsS'tailBrigh'
p19
I0
sS'maxSteering'
p20
I20
sS'energy'
p21
F0.5
sS'lastScale'
p22
F5.5
sb.(i__main__
Data_mobile
p1
(dp2
S'vel_y'
p3
I0
sS'vel_x'
p4
I0
sS'pos_x'
p5
I-9579
sS'pos_y'
p6
I9779
sS'isAlive'
p7
I00
sS'cumulativeEnergy'
p8
F0.5
sS'geno'
p9
(lp10
F-1.4479044785338873
aF-2.4860946047403472
aF0.78474993142646243
aF7.1844186819276921
aF-1.568817011091703
asS'accel_x'
p11
F0
sS'accel_y'
p12
F0
sS'visionAngle'
p13
I130
sS'maxAccel'
p14
I2
sS'maxVel'
p15
F0.72999999999999998
sS'age'
p16
I0
sS'tailSize'
p17
I0
sS'sexualgeno'
p18
NsS'tailBrigh'
p19
I0
sS'maxSteering'
p20
I20
sS'energy'
p21
F0.5
sS'lastScale'
p22
F5.5
sb.(i__main__
Data_mobile
p1
(dp2
S'vel_y'
p3
I0
sS'vel_x'
p4
I0
sS'pos_x'
p5
I-9579
sS'pos_y'
p6
I9779
sS'isAlive'
p7
I00
sS'cumulativeEnergy'
p8
F0.5
sS'geno'
p9
(lp10
F-1.7181931717910821
aF-2.4574272174552716
aF0.78474993142646243
aF7.1844186819276921
aF-1.568817011091703
asS'accel_x'
p11
F0
sS'accel_y'
p12
F0
sS'visionAngle'
p13
I130
sS'maxAccel'
p14
I2
sS'maxVel'
p15
F0.72999999999999998
sS'age'
p16
I0
sS'tailSize'
p17
I0
sS'sexualgeno'
p18
NsS'tailBrigh'
p19
I0
sS'maxSteering'
p20
I20
sS'energy'
p21
F0.5
sS'lastScale'
p22
F5.5
sb.(i__main__
Data_mobile
p1
(dp2
S'vel_y'
p3
I0
sS'vel_x'
p4
I0
sS'pos_x'
p5
I-9579
sS'pos_y'
p6
I9779
sS'isAlive'
p7
I00
sS'cumulativeEnergy'
p8
F0.5
sS'geno'
p9
(lp10
F-1.5663595600248956
aF-2.4574272174552716
aF0.78474993142646243
aF7.1844186819276921
aF-1.568817011091703
asS'accel_x'
p11
F0
sS'accel_y'
p12
F0
sS'visionAngle'
p13
I130
sS'maxAccel'
p14
I2
sS'maxVel'
p15
F0.72999999999999998
sS'age'
p16
I0
sS'tailSize'
p17
I0
sS'sexualgeno'
p18
NsS'tailBrigh'
p19
I0
sS'maxSteering'
p20
I20
sS'energy'
p21
F0.5
sS'lastScale'
p22
F5.5
sb.(i__main__
Data_mobile
p1
(dp2
S'vel_y'
p3
I0
sS'vel_x'
p4
I0
sS'pos_x'
p5
I-9579
sS'pos_y'
p6
I9779
sS'isAlive'
p7
I00
sS'cumulativeEnergy'
p8
F0.5
sS'geno'
p9
(lp10
F-1.4479044785338873
aF-2.4574272174552716
aF0.78474993142646243
aF6.9738965866961049
aF-1.568817011091703
asS'accel_x'
p11
F0
sS'accel_y'
p12
F0
sS'visionAngle'
p13
I130
sS'maxAccel'
p14
I2
sS'maxVel'
p15
F0.72999999999999998
sS'age'
p16
I0
sS'tailSize'
p17
I0
sS'sexualgeno'
p18
NsS'tailBrigh'
p19
I0
sS'maxSteering'
p20
I20
sS'energy'
p21
F0.5
sS'lastScale'
p22
F5.5
sb.(i__main__
Data_mobile
p1
(dp2
S'vel_y'
p3
I0
sS'vel_x'
p4
I0
sS'pos_x'
p5
I-9579
sS'pos_y'
p6
I9779
sS'isAlive'
p7
I00
sS'cumulativeEnergy'
p8
F0.5
sS'geno'
p9
(lp10
F-1.7181931717910821
aF-2.4860946047403472
aF0.47937690108934139
aF6.7231303954873782
aF-0.50974441396147829
asS'accel_x'
p11
F0
sS'accel_y'
p12
F0
sS'visionAngle'
p13
I130
sS'maxAccel'
p14
I2
sS'maxVel'
p15
F0.72999999999999998
sS'age'
p16
I0
sS'tailSize'
p17
I0
sS'sexualgeno'
p18
NsS'tailBrigh'
p19
I0
sS'maxSteering'
p20
I20
sS'energy'
p21
F0.5
sS'lastScale'
p22
F5.5
sb.(i__main__
Data_mobile
p1
(dp2
S'vel_y'
p3
I0
sS'vel_x'
p4
I0
sS'pos_x'
p5
I-9579
sS'pos_y'
p6
I9779
sS'isAlive'
p7
I00
sS'cumulativeEnergy'
p8
F0.5
sS'geno'
p9
(lp10
F-1.4479044785338873
aF-2.4574272174552716
aF0.78474993142646243
aF7.1844186819276921
aF-1.1960835183513587
asS'accel_x'
p11
F0
sS'accel_y'
p12
F0
sS'visionAngle'
p13
I130
sS'maxAccel'
p14
I2
sS'maxVel'
p15
F0.72999999999999998
sS'age'
p16
I0
sS'tailSize'
p17
I0
sS'sexualgeno'
p18
NsS'tailBrigh'
p19
I0
sS'maxSteering'
p20
I20
sS'energy'
p21
F0.5
sS'lastScale'
p22
F5.5
sb.(i__main__
Data_mobile
p1
(dp2
S'vel_y'
p3
I0
sS'vel_x'
p4
I0
sS'pos_x'
p5
I-9579
sS'pos_y'
p6
I9779
sS'isAlive'
p7
I00
sS'cumulativeEnergy'
p8
F0.5
sS'geno'
p9
(lp10
F-1.8894519217821493
aF-2.4574272174552716
aF0.47937690108934139
aF7.1844186819276921
aF-1.6414825186195352
asS'accel_x'
p11
F0
sS'accel_y'
p12
F0
sS'visionAngle'
p13
I130
sS'maxAccel'
p14
I2
sS'maxVel'
p15
F0.72999999999999998
sS'age'
p16
I0
sS'tailSize'
p17
I0
sS'sexualgeno'
p18
NsS'tailBrigh'
p19
I0
sS'maxSteering'
p20
I20
sS'energy'
p21
F0.5
sS'lastScale'
p22
F5.5
sb.(i__main__
Data_mobile
p1
(dp2
S'vel_y'
p3
I0
sS'vel_x'
p4
I0
sS'pos_x'
p5
I-9579
sS'pos_y'
p6
I9779
sS'isAlive'
p7
I00
sS'cumulativeEnergy'
p8
F0.5
sS'geno'
p9
(lp10
F-1.5663595600248956
aF-2.133420156462063
aF0.47937690108934139
aF6.7231303954873782
aF-0.50974441396147829
asS'accel_x'
p11
F0
sS'accel_y'
p12
F0
sS'visionAngle'
p13
I130
sS'maxAccel'
p14
I2
sS'maxVel'
p15
F0.72999999999999998
sS'age'
p16
I0
sS'tailSize'
p17
I0
sS'sexualgeno'
p18
NsS'tailBrigh'
p19
I0
sS'maxSteering'
p20
I20
sS'energy'
p21
F0.5
sS'lastScale'
p22
F5.5
sb.(i__main__
Data_mobile
p1
(dp2
S'vel_y'
p3
I0
sS'vel_x'
p4
I0
sS'pos_x'
p5
I-9579
sS'pos_y'
p6
I9779
sS'isAlive'
p7
I00
sS'cumulativeEnergy'
p8
F0.5
sS'geno'
p9
(lp10
F-1.4479044785338873
aF-2.4860946047403472
aF0.47937690108934139
aF6.7231303954873782
aF-0.50974441396147829
asS'accel_x'
p11
F0
sS'accel_y'
p12
F0
sS'visionAngle'
p13
I130
sS'maxAccel'
p14
I2
sS'maxVel'
p15
F0.72999999999999998
sS'age'
p16
I0
sS'tailSize'
p17
I0
sS'sexualgeno'
p18
NsS'tailBrigh'
p19
I0
sS'maxSteering'
p20
I20
sS'energy'
p21
F0.5
sS'lastScale'
p22
F5.5
sb.(i__main__
Data_mobile
p1
(dp2
S'vel_y'
p3
I0
sS'vel_x'
p4
I0
sS'pos_x'
p5
I-9579
sS'pos_y'
p6
I9779
sS'isAlive'
p7
I00
sS'cumulativeEnergy'
p8
F0.5
sS'geno'
p9
(lp10
F-1.5663595600248956
aF-2.8983218450089754
aF0.47937690108934139
aF6.7231303954873782
aF-0.50974441396147829
asS'accel_x'
p11
F0
sS'accel_y'
p12
F0
sS'visionAngle'
p13
I130
sS'maxAccel'
p14
I2
sS'maxVel'
p15
F0.72999999999999998
sS'age'
p16
I0
sS'tailSize'
p17
I0
sS'sexualgeno'
p18
NsS'tailBrigh'
p19
I0
sS'maxSteering'
p20
I20
sS'energy'
p21
F0.5
sS'lastScale'
p22
F5.5
sb.(i__main__
Data_mobile
p1
(dp2
S'vel_y'
p3
I0
sS'vel_x'
p4
I0
sS'pos_x'
p5
I-9579
sS'pos_y'
p6
I9779
sS'isAlive'
p7
I00
sS'cumulativeEnergy'
p8
F0.5
sS'geno'
p9
(lp10
F-1.5663595600248956
aF-2.4574272174552716
aF0.47937690108934139
aF7.1844186819276921
aF-1.6414825186195352
asS'accel_x'
p11
F0
sS'accel_y'
p12
F0
sS'visionAngle'
p13
I130
sS'maxAccel'
p14
I2
sS'maxVel'
p15
F0.72999999999999998
sS'age'
p16
I0
sS'tailSize'
p17
I0
sS'sexualgeno'
p18
NsS'tailBrigh'
p19
I0
sS'maxSteering'
p20
I20
sS'energy'
p21
F0.5
sS'lastScale'
p22
F5.5
sb.(i__main__
Data_mobile
p1
(dp2
S'vel_y'
p3
I0
sS'vel_x'
p4
I0
sS'pos_x'
p5
I-9579
sS'pos_y'
p6
I9779
sS'isAlive'
p7
I00
sS'cumulativeEnergy'
p8
F0.5
sS'geno'
p9
(lp10
F-1.4479044785338873
aF-2.4574272174552716
aF0.78474993142646243
aF7.1844186819276921
aF-1.568817011091703
asS'accel_x'
p11
F0
sS'accel_y'
p12
F0
sS'visionAngle'
p13
I130
sS'maxAccel'
p14
I2
sS'maxVel'
p15
F0.72999999999999998
sS'age'
p16
I0
sS'tailSize'
p17
I0
sS'sexualgeno'
p18
NsS'tailBrigh'
p19
I0
sS'maxSteering'
p20
I20
sS'energy'
p21
F0.5
sS'lastScale'
p22
F5.5
sb.(i__main__
Data_mobile
p1
(dp2
S'vel_y'
p3
I0
sS'vel_x'
p4
I0
sS'pos_x'
p5
I-9579
sS'pos_y'
p6
I9779
sS'isAlive'
p7
I00
sS'cumulativeEnergy'
p8
F0.5
sS'geno'
p9
(lp10
F-1.5663595600248956
aF-2.4574272174552716
aF0.47937690108934139
aF7.1844186819276921
aF-1.6414825186195352
asS'accel_x'
p11
F0
sS'accel_y'
p12
F0
sS'visionAngle'
p13
I130
sS'maxAccel'
p14
I2
sS'maxVel'
p15
F0.72999999999999998
sS'age'
p16
I0
sS'tailSize'
p17
I0
sS'sexualgeno'
p18
NsS'tailBrigh'
p19
I0
sS'maxSteering'
p20
I20
sS'energy'
p21
F0.5
sS'lastScale'
p22
F5.5
sb.(i__main__
Data_mobile
p1
(dp2
S'vel_y'
p3
I0
sS'vel_x'
p4
I0
sS'pos_x'
p5
I-9579
sS'pos_y'
p6
I9779
sS'isAlive'
p7
I00
sS'cumulativeEnergy'
p8
F0.5
sS'geno'
p9
(lp10
F-1.4479044785338873
aF-2.4860946047403472
aF0.78474993142646243
aF7.1844186819276921
aF-1.568817011091703
asS'accel_x'
p11
F0
sS'accel_y'
p12
F0
sS'visionAngle'
p13
I130
sS'maxAccel'
p14
I2
sS'maxVel'
p15
F0.72999999999999998
sS'age'
p16
I0
sS'tailSize'
p17
I0
sS'sexualgeno'
p18
NsS'tailBrigh'
p19
I0
sS'maxSteering'
p20
I20
sS'energy'
p21
F0.5
sS'lastScale'
p22
F5.5
sb.(i__main__
Data_mobile
p1
(dp2
S'vel_y'
p3
I0
sS'vel_x'
p4
I0
sS'pos_x'
p5
I-9579
sS'pos_y'
p6
I9779
sS'isAlive'
p7
I00
sS'cumulativeEnergy'
p8
F0.5
sS'geno'
p9
(lp10
F-1.4479044785338873
aF-2.6437866557898966
aF0.78474993142646243
aF7.1844186819276921
aF-0.50974441396147829
asS'accel_x'
p11
F0
sS'accel_y'
p12
F0
sS'visionAngle'
p13
I130
sS'maxAccel'
p14
I2
sS'maxVel'
p15
F0.72999999999999998
sS'age'
p16
I0
sS'tailSize'
p17
I0
sS'sexualgeno'
p18
NsS'tailBrigh'
p19
I0
sS'maxSteering'
p20
I20
sS'energy'
p21
F0.5
sS'lastScale'
p22
F5.5
sb.(i__main__
Data_mobile
p1
(dp2
S'vel_y'
p3
I0
sS'vel_x'
p4
I0
sS'pos_x'
p5
I-9579
sS'pos_y'
p6
I9779
sS'isAlive'
p7
I00
sS'cumulativeEnergy'
p8
F0.5
sS'geno'
p9
(lp10
F-1.4479044785338873
aF-2.4574272174552716
aF0.78474993142646243
aF7.1844186819276921
aF-1.3756205398260895
asS'accel_x'
p11
F0
sS'accel_y'
p12
F0
sS'visionAngle'
p13
I130
sS'maxAccel'
p14
I2
sS'maxVel'
p15
F0.72999999999999998
sS'age'
p16
I0
sS'tailSize'
p17
I0
sS'sexualgeno'
p18
NsS'tailBrigh'
p19
I0
sS'maxSteering'
p20
I20
sS'energy'
p21
F0.5
sS'lastScale'
p22
F5.5
sb.(i__main__
Data_mobile
p1
(dp2
S'vel_y'
p3
I0
sS'vel_x'
p4
I0
sS'pos_x'
p5
I-9579
sS'pos_y'
p6
I9779
sS'isAlive'
p7
I00
sS'cumulativeEnergy'
p8
F0.5
sS'geno'
p9
(lp10
F-1.5663595600248956
aF-2.4574272174552716
aF0.81488598886726105
aF7.1844186819276921
aF-1.568817011091703
asS'accel_x'
p11
F0
sS'accel_y'
p12
F0
sS'visionAngle'
p13
I130
sS'maxAccel'
p14
I2
sS'maxVel'
p15
F0.72999999999999998
sS'age'
p16
I0
sS'tailSize'
p17
I0
sS'sexualgeno'
p18
NsS'tailBrigh'
p19
I0
sS'maxSteering'
p20
I20
sS'energy'
p21
F0.5
sS'lastScale'
p22
F5.5
sb.(i__main__
Data_mobile
p1
(dp2
S'vel_y'
p3
I0
sS'vel_x'
p4
I0
sS'pos_x'
p5
I-9579
sS'pos_y'
p6
I9779
sS'isAlive'
p7
I00
sS'cumulativeEnergy'
p8
F0.5
sS'geno'
p9
(lp10
F-1.5663595600248956
aF-2.4574272174552716
aF0.81488598886726105
aF7.1844186819276921
aF-1.4500404312323765
asS'accel_x'
p11
F0
sS'accel_y'
p12
F0
sS'visionAngle'
p13
I130
sS'maxAccel'
p14
I2
sS'maxVel'
p15
F0.72999999999999998
sS'age'
p16
I0
sS'tailSize'
p17
I0
sS'sexualgeno'
p18
NsS'tailBrigh'
p19
I0
sS'maxSteering'
p20
I20
sS'energy'
p21
F0.5
sS'lastScale'
p22
F5.5
sb.(i__main__
Data_mobile
p1
(dp2
S'vel_y'
p3
I0
sS'vel_x'
p4
I0
sS'pos_x'
p5
I-9579
sS'pos_y'
p6
I9779
sS'isAlive'
p7
I00
sS'cumulativeEnergy'
p8
F0.5
sS'geno'
p9
(lp10
F-1.4479044785338873
aF-2.1624856733506856
aF0.94075305404519349
aF6.7231303954873782
aF-0.50974441396147829
asS'accel_x'
p11
F0
sS'accel_y'
p12
F0
sS'visionAngle'
p13
I130
sS'maxAccel'
p14
I2
sS'maxVel'
p15
F0.72999999999999998
sS'age'
p16
I0
sS'tailSize'
p17
I0
sS'sexualgeno'
p18
NsS'tailBrigh'
p19
I0
sS'maxSteering'
p20
I20
sS'energy'
p21
F0.5
sS'lastScale'
p22
F5.5
sb.(i__main__
Data_mobile
p1
(dp2
S'vel_y'
p3
I0
sS'vel_x'
p4
I0
sS'pos_x'
p5
I-9579
sS'pos_y'
p6
I9779
sS'isAlive'
p7
I00
sS'cumulativeEnergy'
p8
F0.5
sS'geno'
p9
(lp10
F-1.4479044785338873
aF-2.1624856733506856
aF1.2608422719276038
aF6.7231303954873782
aF-0.50974441396147829
asS'accel_x'
p11
F0
sS'accel_y'
p12
F0
sS'visionAngle'
p13
I130
sS'maxAccel'
p14
I2
sS'maxVel'
p15
F0.72999999999999998
sS'age'
p16
I0
sS'tailSize'
p17
I0
sS'sexualgeno'
p18
NsS'tailBrigh'
p19
I0
sS'maxSteering'
p20
I20
sS'energy'
p21
F0.5
sS'lastScale'
p22
F5.5
sb.(i__main__
Data_mobile
p1
(dp2
S'vel_y'
p3
I0
sS'vel_x'
p4
I0
sS'pos_x'
p5
I-9579
sS'pos_y'
p6
I9779
sS'isAlive'
p7
I00
sS'cumulativeEnergy'
p8
F0.5
sS'geno'
p9
(lp10
F-1.5663595600248956
aF-2.4574272174552716
aF0.47937690108934139
aF7.2958044919656695
aF-1.568817011091703
asS'accel_x'
p11
F0
sS'accel_y'
p12
F0
sS'visionAngle'
p13
I130
sS'maxAccel'
p14
I2
sS'maxVel'
p15
F0.72999999999999998
sS'age'
p16
I0
sS'tailSize'
p17
I0
sS'sexualgeno'
p18
NsS'tailBrigh'
p19
I0
sS'maxSteering'
p20
I20
sS'energy'
p21
F0.5
sS'lastScale'
p22
F5.5
sb.(i__main__
Data_mobile
p1
(dp2
S'vel_y'
p3
I0
sS'vel_x'
p4
I0
sS'pos_x'
p5
I-9579
sS'pos_y'
p6
I9779
sS'isAlive'
p7
I00
sS'cumulativeEnergy'
p8
F0.5
sS'geno'
p9
(lp10
F-1.4479044785338873
aF-2.4860946047403472
aF0.78474993142646243
aF7.1844186819276921
aF-1.568817011091703
asS'accel_x'
p11
F0
sS'accel_y'
p12
F0
sS'visionAngle'
p13
I130
sS'maxAccel'
p14
I2
sS'maxVel'
p15
F0.72999999999999998
sS'age'
p16
I0
sS'tailSize'
p17
I0
sS'sexualgeno'
p18
NsS'tailBrigh'
p19
I0
sS'maxSteering'
p20
I20
sS'energy'
p21
F0.5
sS'lastScale'
p22
F5.5
sb.(i__main__
Data_mobile
p1
(dp2
S'vel_y'
p3
I0
sS'vel_x'
p4
I0
sS'pos_x'
p5
I-9579
sS'pos_y'
p6
I9779
sS'isAlive'
p7
I00
sS'cumulativeEnergy'
p8
F0.5
sS'geno'
p9
(lp10
F-1.5663595600248956
aF-2.4574272174552716
aF0.78474993142646243
aF7.1844186819276921
aF-1.568817011091703
asS'accel_x'
p11
F0
sS'accel_y'
p12
F0
sS'visionAngle'
p13
I130
sS'maxAccel'
p14
I2
sS'maxVel'
p15
F0.72999999999999998
sS'age'
p16
I0
sS'tailSize'
p17
I0
sS'sexualgeno'
p18
NsS'tailBrigh'
p19
I0
sS'maxSteering'
p20
I20
sS'energy'
p21
F0.5
sS'lastScale'
p22
F5.5
sb.(i__main__
Data_mobile
p1
(dp2
S'vel_y'
p3
I0
sS'vel_x'
p4
I0
sS'pos_x'
p5
I-9579
sS'pos_y'
p6
I9779
sS'isAlive'
p7
I00
sS'cumulativeEnergy'
p8
F0.5
sS'geno'
p9
(lp10
F-1.4479044785338873
aF-2.4574272174552716
aF0.47937690108934139
aF7.2958044919656695
aF-1.568817011091703
asS'accel_x'
p11
F0
sS'accel_y'
p12
F0
sS'visionAngle'
p13
I130
sS'maxAccel'
p14
I2
sS'maxVel'
p15
F0.72999999999999998
sS'age'
p16
I0
sS'tailSize'
p17
I0
sS'sexualgeno'
p18
NsS'tailBrigh'
p19
I0
sS'maxSteering'
p20
I20
sS'energy'
p21
F0.5
sS'lastScale'
p22
F5.5
sb.(i__main__
Data_mobile
p1
(dp2
S'vel_y'
p3
I0
sS'vel_x'
p4
I0
sS'pos_x'
p5
I-9579
sS'pos_y'
p6
I9779
sS'isAlive'
p7
I00
sS'cumulativeEnergy'
p8
F0.5
sS'geno'
p9
(lp10
F-1.5663595600248956
aF-2.4574272174552716
aF0.00035403319160653979
aF6.7231303954873782
aF-0.50974441396147829
asS'accel_x'
p11
F0
sS'accel_y'
p12
F0
sS'visionAngle'
p13
I130
sS'maxAccel'
p14
I2
sS'maxVel'
p15
F0.72999999999999998
sS'age'
p16
I0
sS'tailSize'
p17
I0
sS'sexualgeno'
p18
NsS'tailBrigh'
p19
I0
sS'maxSteering'
p20
I20
sS'energy'
p21
F0.5
sS'lastScale'
p22
F5.5
sb.(i__main__
Data_mobile
p1
(dp2
S'vel_y'
p3
I0
sS'vel_x'
p4
I0
sS'pos_x'
p5
I-9579
sS'pos_y'
p6
I9779
sS'isAlive'
p7
I00
sS'cumulativeEnergy'
p8
F0.5
sS'geno'
p9
(lp10
F-1.4479044785338873
aF-2.4574272174552716
aF0.78474993142646243
aF7.547838019291337
aF-1.568817011091703
asS'accel_x'
p11
F0
sS'accel_y'
p12
F0
sS'visionAngle'
p13
I130
sS'maxAccel'
p14
I2
sS'maxVel'
p15
F0.72999999999999998
sS'age'
p16
I0
sS'tailSize'
p17
I0
sS'sexualgeno'
p18
NsS'tailBrigh'
p19
I0
sS'maxSteering'
p20
I20
sS'energy'
p21
F0.5
sS'lastScale'
p22
F5.5
sb.(i__main__
Data_mobile
p1
(dp2
S'vel_y'
p3
I0
sS'vel_x'
p4
I0
sS'pos_x'
p5
I-9579
sS'pos_y'
p6
I9779
sS'isAlive'
p7
I00
sS'cumulativeEnergy'
p8
F0.5
sS'geno'
p9
(lp10
F-1.4479044785338873
aF-2.1624856733506856
aF0.94075305404519349
aF6.7231303954873782
aF-0.50974441396147829
asS'accel_x'
p11
F0
sS'accel_y'
p12
F0
sS'visionAngle'
p13
I130
sS'maxAccel'
p14
I2
sS'maxVel'
p15
F0.72999999999999998
sS'age'
p16
I0
sS'tailSize'
p17
I0
sS'sexualgeno'
p18
NsS'tailBrigh'
p19
I0
sS'maxSteering'
p20
I20
sS'energy'
p21
F0.5
sS'lastScale'
p22
F5.5
sb.(i__main__
Data_mobile
p1
(dp2
S'vel_y'
p3
I0
sS'vel_x'
p4
I0
sS'pos_x'
p5
I-9579
sS'pos_y'
p6
I9779
sS'isAlive'
p7
I00
sS'cumulativeEnergy'
p8
F0.5
sS'geno'
p9
(lp10
F-1.5663595600248956
aF-2.4574272174552716
aF0.47937690108934139
aF6.7231303954873782
aF-0.50974441396147829
asS'accel_x'
p11
F0
sS'accel_y'
p12
F0
sS'visionAngle'
p13
I130
sS'maxAccel'
p14
I2
sS'maxVel'
p15
F0.72999999999999998
sS'age'
p16
I0
sS'tailSize'
p17
I0
sS'sexualgeno'
p18
NsS'tailBrigh'
p19
I0
sS'maxSteering'
p20
I20
sS'energy'
p21
F0.5
sS'lastScale'
p22
F5.5
sb.(i__main__
Data_mobile
p1
(dp2
S'vel_y'
p3
I0
sS'vel_x'
p4
I0
sS'pos_x'
p5
I-9579
sS'pos_y'
p6
I9779
sS'isAlive'
p7
I00
sS'cumulativeEnergy'
p8
F0.5
sS'geno'
p9
(lp10
F-1.4479044785338873
aF-2.4860946047403472
aF0.78474993142646243
aF7.1844186819276921
aF-1.568817011091703
asS'accel_x'
p11
F0
sS'accel_y'
p12
F0
sS'visionAngle'
p13
I130
sS'maxAccel'
p14
I2
sS'maxVel'
p15
F0.72999999999999998
sS'age'
p16
I0
sS'tailSize'
p17
I0
sS'sexualgeno'
p18
NsS'tailBrigh'
p19
I0
sS'maxSteering'
p20
I20
sS'energy'
p21
F0.5
sS'lastScale'
p22
F5.5
sb.(i__main__
Data_mobile
p1
(dp2
S'vel_y'
p3
I0
sS'vel_x'
p4
I0
sS'pos_x'
p5
I-9579
sS'pos_y'
p6
I9779
sS'isAlive'
p7
I00
sS'cumulativeEnergy'
p8
F0.5
sS'geno'
p9
(lp10
F-1.5663595600248956
aF-2.4574272174552716
aF0.47937690108934139
aF6.7231303954873782
aF-0.50974441396147829
asS'accel_x'
p11
F0
sS'accel_y'
p12
F0
sS'visionAngle'
p13
I130
sS'maxAccel'
p14
I2
sS'maxVel'
p15
F0.72999999999999998
sS'age'
p16
I0
sS'tailSize'
p17
I0
sS'sexualgeno'
p18
NsS'tailBrigh'
p19
I0
sS'maxSteering'
p20
I20
sS'energy'
p21
F0.5
sS'lastScale'
p22
F5.5
sb.(i__main__
Data_mobile
p1
(dp2
S'vel_y'
p3
I0
sS'vel_x'
p4
I0
sS'pos_x'
p5
I-9579
sS'pos_y'
p6
I9779
sS'isAlive'
p7
I00
sS'cumulativeEnergy'
p8
F0.5
sS'geno'
p9
(lp10
F-1.3798076954604666
aF-2.4574272174552716
aF0.78474993142646243
aF6.5027626320429004
aF-0.50974441396147829
asS'accel_x'
p11
F0
sS'accel_y'
p12
F0
sS'visionAngle'
p13
I130
sS'maxAccel'
p14
I2
sS'maxVel'
p15
F0.72999999999999998
sS'age'
p16
I0
sS'tailSize'
p17
I0
sS'sexualgeno'
p18
NsS'tailBrigh'
p19
I0
sS'maxSteering'
p20
I20
sS'energy'
p21
F0.5
sS'lastScale'
p22
F5.5
sb.(i__main__
Data_mobile
p1
(dp2
S'vel_y'
p3
I0
sS'vel_x'
p4
I0
sS'pos_x'
p5
I-9579
sS'pos_y'
p6
I9779
sS'isAlive'
p7
I00
sS'cumulativeEnergy'
p8
F0.5
sS'geno'
p9
(lp10
F-1.4479044785338873
aF-2.1624856733506856
aF0.78474993142646243
aF6.9427020134067643
aF-1.6414825186195352
asS'accel_x'
p11
F0
sS'accel_y'
p12
F0
sS'visionAngle'
p13
I130
sS'maxAccel'
p14
I2
sS'maxVel'
p15
F0.72999999999999998
sS'age'
p16
I0
sS'tailSize'
p17
I0
sS'sexualgeno'
p18
NsS'tailBrigh'
p19
I0
sS'maxSteering'
p20
I20
sS'energy'
p21
F0.5
sS'lastScale'
p22
F5.5
sb.(i__main__
Data_mobile
p1
(dp2
S'vel_y'
p3
I0
sS'vel_x'
p4
I0
sS'pos_x'
p5
I-9579
sS'pos_y'
p6
I9779
sS'isAlive'
p7
I00
sS'cumulativeEnergy'
p8
F0.5
sS'geno'
p9
(lp10
F-1.4479044785338873
aF-2.4574272174552716
aF0.78474993142646243
aF7.1844186819276921
aF-1.568817011091703
asS'accel_x'
p11
F0
sS'accel_y'
p12
F0
sS'visionAngle'
p13
I130
sS'maxAccel'
p14
I2
sS'maxVel'
p15
F0.72999999999999998
sS'age'
p16
I0
sS'tailSize'
p17
I0
sS'sexualgeno'
p18
NsS'tailBrigh'
p19
I0
sS'maxSteering'
p20
I20
sS'energy'
p21
F0.5
sS'lastScale'
p22
F5.5
sb.(i__main__
Data_mobile
p1
(dp2
S'vel_y'
p3
I0
sS'vel_x'
p4
I0
sS'pos_x'
p5
I-9579
sS'pos_y'
p6
I9779
sS'isAlive'
p7
I00
sS'cumulativeEnergy'
p8
F0.5
sS'geno'
p9
(lp10
F-1.4479044785338873
aF-2.4574272174552716
aF0.78474993142646243
aF7.1844186819276921
aF-0.50974441396147829
asS'accel_x'
p11
F0
sS'accel_y'
p12
F0
sS'visionAngle'
p13
I130
sS'maxAccel'
p14
I2
sS'maxVel'
p15
F0.72999999999999998
sS'age'
p16
I0
sS'tailSize'
p17
I0
sS'sexualgeno'
p18
NsS'tailBrigh'
p19
I0
sS'maxSteering'
p20
I20
sS'energy'
p21
F0.5
sS'lastScale'
p22
F5.5
sb.(i__main__
Data_mobile
p1
(dp2
S'vel_y'
p3
I0
sS'vel_x'
p4
I0
sS'pos_x'
p5
I-9579
sS'pos_y'
p6
I9779
sS'isAlive'
p7
I00
sS'cumulativeEnergy'
p8
F0.5
sS'geno'
p9
(lp10
F-1.4479044785338873
aF-2.4574272174552716
aF0.78474993142646243
aF6.7231303954873782
aF-0.50974441396147829
asS'accel_x'
p11
F0
sS'accel_y'
p12
F0
sS'visionAngle'
p13
I130
sS'maxAccel'
p14
I2
sS'maxVel'
p15
F0.72999999999999998
sS'age'
p16
I0
sS'tailSize'
p17
I0
sS'sexualgeno'
p18
NsS'tailBrigh'
p19
I0
sS'maxSteering'
p20
I20
sS'energy'
p21
F0.5
sS'lastScale'
p22
F5.5
sb.(i__main__
Data_mobile
p1
(dp2
S'vel_y'
p3
I0
sS'vel_x'
p4
I0
sS'pos_x'
p5
I-9579
sS'pos_y'
p6
I9779
sS'isAlive'
p7
I00
sS'cumulativeEnergy'
p8
F0.5
sS'geno'
p9
(lp10
F-1.4479044785338873
aF-2.4574272174552716
aF0.78474993142646243
aF7.547838019291337
aF-1.568817011091703
asS'accel_x'
p11
F0
sS'accel_y'
p12
F0
sS'visionAngle'
p13
I130
sS'maxAccel'
p14
I2
sS'maxVel'
p15
F0.72999999999999998
sS'age'
p16
I0
sS'tailSize'
p17
I0
sS'sexualgeno'
p18
NsS'tailBrigh'
p19
I0
sS'maxSteering'
p20
I20
sS'energy'
p21
F0.5
sS'lastScale'
p22
F5.5
sb.(i__main__
Data_mobile
p1
(dp2
S'vel_y'
p3
I0
sS'vel_x'
p4
I0
sS'pos_x'
p5
I-9579
sS'pos_y'
p6
I9779
sS'isAlive'
p7
I00
sS'cumulativeEnergy'
p8
F0.5
sS'geno'
p9
(lp10
F-1.4479044785338873
aF-2.4574272174552716
aF0.78474993142646243
aF7.1844186819276921
aF-1.6414825186195352
asS'accel_x'
p11
F0
sS'accel_y'
p12
F0
sS'visionAngle'
p13
I130
sS'maxAccel'
p14
I2
sS'maxVel'
p15
F0.72999999999999998
sS'age'
p16
I0
sS'tailSize'
p17
I0
sS'sexualgeno'
p18
NsS'tailBrigh'
p19
I0
sS'maxSteering'
p20
I20
sS'energy'
p21
F0.5
sS'lastScale'
p22
F5.5
sb.(i__main__
Data_mobile
p1
(dp2
S'vel_y'
p3
I0
sS'vel_x'
p4
I0
sS'pos_x'
p5
I-9579
sS'pos_y'
p6
I9779
sS'isAlive'
p7
I00
sS'cumulativeEnergy'
p8
F0.5
sS'geno'
p9
(lp10
F-1.4479044785338873
aF-2.4574272174552716
aF0.78474993142646243
aF7.547838019291337
aF-1.568817011091703
asS'accel_x'
p11
F0
sS'accel_y'
p12
F0
sS'visionAngle'
p13
I130
sS'maxAccel'
p14
I2
sS'maxVel'
p15
F0.72999999999999998
sS'age'
p16
I0
sS'tailSize'
p17
I0
sS'sexualgeno'
p18
NsS'tailBrigh'
p19
I0
sS'maxSteering'
p20
I20
sS'energy'
p21
F0.5
sS'lastScale'
p22
F5.5
sb.(i__main__
Data_mobile
p1
(dp2
S'vel_y'
p3
I0
sS'vel_x'
p4
I0
sS'pos_x'
p5
I-9579
sS'pos_y'
p6
I9779
sS'isAlive'
p7
I00
sS'cumulativeEnergy'
p8
F0.5
sS'geno'
p9
(lp10
F-1.4479044785338873
aF-2.1624856733506856
aF0.94075305404519349
aF6.7231303954873782
aF-0.50974441396147829
asS'accel_x'
p11
F0
sS'accel_y'
p12
F0
sS'visionAngle'
p13
I130
sS'maxAccel'
p14
I2
sS'maxVel'
p15
F0.72999999999999998
sS'age'
p16
I0
sS'tailSize'
p17
I0
sS'sexualgeno'
p18
NsS'tailBrigh'
p19
I0
sS'maxSteering'
p20
I20
sS'energy'
p21
F0.5
sS'lastScale'
p22
F5.5
sb.(i__main__
Data_mobile
p1
(dp2
S'vel_y'
p3
I0
sS'vel_x'
p4
I0
sS'pos_x'
p5
I-9579
sS'pos_y'
p6
I9779
sS'isAlive'
p7
I00
sS'cumulativeEnergy'
p8
F0.5
sS'geno'
p9
(lp10
F-1.4479044785338873
aF-2.1624856733506856
aF0.78474993142646243
aF6.9427020134067643
aF-1.6414825186195352
asS'accel_x'
p11
F0
sS'accel_y'
p12
F0
sS'visionAngle'
p13
I130
sS'maxAccel'
p14
I2
sS'maxVel'
p15
F0.72999999999999998
sS'age'
p16
I0
sS'tailSize'
p17
I0
sS'sexualgeno'
p18
NsS'tailBrigh'
p19
I0
sS'maxSteering'
p20
I20
sS'energy'
p21
F0.5
sS'lastScale'
p22
F5.5
sb.(i__main__
Data_mobile
p1
(dp2
S'vel_y'
p3
I0
sS'vel_x'
p4
I0
sS'pos_x'
p5
I-9579
sS'pos_y'
p6
I9779
sS'isAlive'
p7
I00
sS'cumulativeEnergy'
p8
F0.5
sS'geno'
p9
(lp10
F-1.5663595600248956
aF-2.4574272174552716
aF0.47937690108934139
aF6.7231303954873782
aF-1.568817011091703
asS'accel_x'
p11
F0
sS'accel_y'
p12
F0
sS'visionAngle'
p13
I130
sS'maxAccel'
p14
I2
sS'maxVel'
p15
F0.72999999999999998
sS'age'
p16
I0
sS'tailSize'
p17
I0
sS'sexualgeno'
p18
NsS'tailBrigh'
p19
I0
sS'maxSteering'
p20
I20
sS'energy'
p21
F0.5
sS'lastScale'
p22
F5.5
sb.(i__main__
Data_mobile
p1
(dp2
S'vel_y'
p3
I0
sS'vel_x'
p4
I0
sS'pos_x'
p5
I-9579
sS'pos_y'
p6
I9779
sS'isAlive'
p7
I00
sS'cumulativeEnergy'
p8
F0.5
sS'geno'
p9
(lp10
F-1.4479044785338873
aF-2.4574272174552716
aF0.78474993142646243
aF7.1844186819276921
aF-1.6414825186195352
asS'accel_x'
p11
F0
sS'accel_y'
p12
F0
sS'visionAngle'
p13
I130
sS'maxAccel'
p14
I2
sS'maxVel'
p15
F0.72999999999999998
sS'age'
p16
I0
sS'tailSize'
p17
I0
sS'sexualgeno'
p18
NsS'tailBrigh'
p19
I0
sS'maxSteering'
p20
I20
sS'energy'
p21
F0.5
sS'lastScale'
p22
F5.5
sb.(i__main__
Data_mobile
p1
(dp2
S'vel_y'
p3
I0
sS'vel_x'
p4
I0
sS'pos_x'
p5
I-9579
sS'pos_y'
p6
I9779
sS'isAlive'
p7
I00
sS'cumulativeEnergy'
p8
F0.5
sS'geno'
p9
(lp10
F-1.4479044785338873
aF-2.1624856733506856
aF0.78474993142646243
aF7.1844186819276921
aF-1.277470614265491
asS'accel_x'
p11
F0
sS'accel_y'
p12
F0
sS'visionAngle'
p13
I130
sS'maxAccel'
p14
I2
sS'maxVel'
p15
F0.72999999999999998
sS'age'
p16
I0
sS'tailSize'
p17
I0
sS'sexualgeno'
p18
NsS'tailBrigh'
p19
I0
sS'maxSteering'
p20
I20
sS'energy'
p21
F0.5
sS'lastScale'
p22
F5.5
sb.(i__main__
Data_mobile
p1
(dp2
S'vel_y'
p3
I0
sS'vel_x'
p4
I0
sS'pos_x'
p5
I-9579
sS'pos_y'
p6
I9779
sS'isAlive'
p7
I00
sS'cumulativeEnergy'
p8
F0.5
sS'geno'
p9
(lp10
F-1.4479044785338873
aF-2.9487821544089505
aF0.78474993142646243
aF7.3292814777747193
aF-1.568817011091703
asS'accel_x'
p11
F0
sS'accel_y'
p12
F0
sS'visionAngle'
p13
I130
sS'maxAccel'
p14
I2
sS'maxVel'
p15
F0.72999999999999998
sS'age'
p16
I0
sS'tailSize'
p17
I0
sS'sexualgeno'
p18
NsS'tailBrigh'
p19
I0
sS'maxSteering'
p20
I20
sS'energy'
p21
F0.5
sS'lastScale'
p22
F5.5
sb.(i__main__
Data_mobile
p1
(dp2
S'vel_y'
p3
I0
sS'vel_x'
p4
I0
sS'pos_x'
p5
I-9579
sS'pos_y'
p6
I9779
sS'isAlive'
p7
I00
sS'cumulativeEnergy'
p8
F0.5
sS'geno'
p9
(lp10
F-1.4479044785338873
aF-2.4574272174552716
aF0.78474993142646243
aF7.1844186819276921
aF-1.6414825186195352
asS'accel_x'
p11
F0
sS'accel_y'
p12
F0
sS'visionAngle'
p13
I130
sS'maxAccel'
p14
I2
sS'maxVel'
p15
F0.72999999999999998
sS'age'
p16
I0
sS'tailSize'
p17
I0
sS'sexualgeno'
p18
NsS'tailBrigh'
p19
I0
sS'maxSteering'
p20
I20
sS'energy'
p21
F0.5
sS'lastScale'
p22
F5.5
sb.(i__main__
Data_mobile
p1
(dp2
S'vel_y'
p3
I0
sS'vel_x'
p4
I0
sS'pos_x'
p5
I-9579
sS'pos_y'
p6
I9779
sS'isAlive'
p7
I00
sS'cumulativeEnergy'
p8
F0.5
sS'geno'
p9
(lp10
F-1.4479044785338873
aF-2.1624856733506856
aF0.94075305404519349
aF6.7231303954873782
aF-0.50974441396147829
asS'accel_x'
p11
F0
sS'accel_y'
p12
F0
sS'visionAngle'
p13
I130
sS'maxAccel'
p14
I2
sS'maxVel'
p15
F0.72999999999999998
sS'age'
p16
I0
sS'tailSize'
p17
I0
sS'sexualgeno'
p18
NsS'tailBrigh'
p19
I0
sS'maxSteering'
p20
I20
sS'energy'
p21
F0.5
sS'lastScale'
p22
F5.5
sb.(i__main__
Data_mobile
p1
(dp2
S'vel_y'
p3
I0
sS'vel_x'
p4
I0
sS'pos_x'
p5
I-9579
sS'pos_y'
p6
I9779
sS'isAlive'
p7
I00
sS'cumulativeEnergy'
p8
F0.5
sS'geno'
p9
(lp10
F-1.4479044785338873
aF-2.1624856733506856
aF0.78474993142646243
aF7.1844186819276921
aF-1.6414825186195352
asS'accel_x'
p11
F0
sS'accel_y'
p12
F0
sS'visionAngle'
p13
I130
sS'maxAccel'
p14
I2
sS'maxVel'
p15
F0.72999999999999998
sS'age'
p16
I0
sS'tailSize'
p17
I0
sS'sexualgeno'
p18
NsS'tailBrigh'
p19
I0
sS'maxSteering'
p20
I20
sS'energy'
p21
F0.5
sS'lastScale'
p22
F5.5
sb.(i__main__
Data_mobile
p1
(dp2
S'vel_y'
p3
I0
sS'vel_x'
p4
I0
sS'pos_x'
p5
I-9579
sS'pos_y'
p6
I9779
sS'isAlive'
p7
I00
sS'cumulativeEnergy'
p8
F0.5
sS'geno'
p9
(lp10
F-1.4479044785338873
aF-2.1624856733506856
aF0.78474993142646243
aF7.1844186819276921
aF-1.277470614265491
asS'accel_x'
p11
F0
sS'accel_y'
p12
F0
sS'visionAngle'
p13
I130
sS'maxAccel'
p14
I2
sS'maxVel'
p15
F0.72999999999999998
sS'age'
p16
I0
sS'tailSize'
p17
I0
sS'sexualgeno'
p18
NsS'tailBrigh'
p19
I0
sS'maxSteering'
p20
I20
sS'energy'
p21
F0.5
sS'lastScale'
p22
F5.5
sb.(i__main__
Data_mobile
p1
(dp2
S'vel_y'
p3
I0
sS'vel_x'
p4
I0
sS'pos_x'
p5
I-9579
sS'pos_y'
p6
I9779
sS'isAlive'
p7
I00
sS'cumulativeEnergy'
p8
F0.5
sS'geno'
p9
(lp10
F-1.4479044785338873
aF-2.1624856733506856
aF0.78474993142646243
aF7.1844186819276921
aF-0.50974441396147829
asS'accel_x'
p11
F0
sS'accel_y'
p12
F0
sS'visionAngle'
p13
I130
sS'maxAccel'
p14
I2
sS'maxVel'
p15
F0.72999999999999998
sS'age'
p16
I0
sS'tailSize'
p17
I0
sS'sexualgeno'
p18
NsS'tailBrigh'
p19
I0
sS'maxSteering'
p20
I20
sS'energy'
p21
F0.5
sS'lastScale'
p22
F5.5
sb.(i__main__
Data_mobile
p1
(dp2
S'vel_y'
p3
I0
sS'vel_x'
p4
I0
sS'pos_x'
p5
I-9579
sS'pos_y'
p6
I9779
sS'isAlive'
p7
I00
sS'cumulativeEnergy'
p8
F0.5
sS'geno'
p9
(lp10
F-1.4479044785338873
aF-2.1624856733506856
aF0.94075305404519349
aF6.7231303954873782
aF-1.277470614265491
asS'accel_x'
p11
F0
sS'accel_y'
p12
F0
sS'visionAngle'
p13
I130
sS'maxAccel'
p14
I2
sS'maxVel'
p15
F0.72999999999999998
sS'age'
p16
I0
sS'tailSize'
p17
I0
sS'sexualgeno'
p18
NsS'tailBrigh'
p19
I0
sS'maxSteering'
p20
I20
sS'energy'
p21
F0.5
sS'lastScale'
p22
F5.5
sb.(i__main__
Data_mobile
p1
(dp2
S'vel_y'
p3
I0
sS'vel_x'
p4
I0
sS'pos_x'
p5
I-9579
sS'pos_y'
p6
I9779
sS'isAlive'
p7
I00
sS'cumulativeEnergy'
p8
F0.5
sS'geno'
p9
(lp10
F-1.5663595600248956
aF-2.4574272174552716
aF0.94075305404519349
aF6.7231303954873782
aF-0.50974441396147829
asS'accel_x'
p11
F0
sS'accel_y'
p12
F0
sS'visionAngle'
p13
I130
sS'maxAccel'
p14
I2
sS'maxVel'
p15
F0.72999999999999998
sS'age'
p16
I0
sS'tailSize'
p17
I0
sS'sexualgeno'
p18
NsS'tailBrigh'
p19
I0
sS'maxSteering'
p20
I20
sS'energy'
p21
F0.5
sS'lastScale'
p22
F5.5
sb.(i__main__
Data_mobile
p1
(dp2
S'vel_y'
p3
I0
sS'vel_x'
p4
I0
sS'pos_x'
p5
I-9579
sS'pos_y'
p6
I9779
sS'isAlive'
p7
I00
sS'cumulativeEnergy'
p8
F0.5
sS'geno'
p9
(lp10
F-1.4479044785338873
aF-2.4574272174552716
aF0.94075305404519349
aF6.7231303954873782
aF-0.50974441396147829
asS'accel_x'
p11
F0
sS'accel_y'
p12
F0
sS'visionAngle'
p13
I130
sS'maxAccel'
p14
I2
sS'maxVel'
p15
F0.72999999999999998
sS'age'
p16
I0
sS'tailSize'
p17
I0
sS'sexualgeno'
p18
NsS'tailBrigh'
p19
I0
sS'maxSteering'
p20
I20
sS'energy'
p21
F0.5
sS'lastScale'
p22
F5.5
sb.(i__main__
Data_mobile
p1
(dp2
S'vel_y'
p3
I0
sS'vel_x'
p4
I0
sS'pos_x'
p5
I-9579
sS'pos_y'
p6
I9779
sS'isAlive'
p7
I00
sS'cumulativeEnergy'
p8
F0.5
sS'geno'
p9
(lp10
F-1.3650328587139409
aF-2.1624856733506856
aF0.94075305404519349
aF6.7231303954873782
aF-1.277470614265491
asS'accel_x'
p11
F0
sS'accel_y'
p12
F0
sS'visionAngle'
p13
I130
sS'maxAccel'
p14
I2
sS'maxVel'
p15
F0.72999999999999998
sS'age'
p16
I0
sS'tailSize'
p17
I0
sS'sexualgeno'
p18
NsS'tailBrigh'
p19
I0
sS'maxSteering'
p20
I20
sS'energy'
p21
F0.5
sS'lastScale'
p22
F5.5
sb.(i__main__
Data_mobile
p1
(dp2
S'vel_y'
p3
I0
sS'vel_x'
p4
I0
sS'pos_x'
p5
I-9579
sS'pos_y'
p6
I9779
sS'isAlive'
p7
I00
sS'cumulativeEnergy'
p8
F0.5
sS'geno'
p9
(lp10
F-1.4479044785338873
aF-2.1624856733506856
aF0.78474993142646243
aF7.1844186819276921
aF-1.277470614265491
asS'accel_x'
p11
F0
sS'accel_y'
p12
F0
sS'visionAngle'
p13
I130
sS'maxAccel'
p14
I2
sS'maxVel'
p15
F0.72999999999999998
sS'age'
p16
I0
sS'tailSize'
p17
I0
sS'sexualgeno'
p18
NsS'tailBrigh'
p19
I0
sS'maxSteering'
p20
I20
sS'energy'
p21
F0.5
sS'lastScale'
p22
F5.5
sb.(i__main__
Data_mobile
p1
(dp2
S'vel_y'
p3
I0
sS'vel_x'
p4
I0
sS'pos_x'
p5
I-9579
sS'pos_y'
p6
I9779
sS'isAlive'
p7
I00
sS'cumulativeEnergy'
p8
F0.5
sS'geno'
p9
(lp10
F-1.4479044785338873
aF-2.4574272174552716
aF0.78474993142646243
aF7.1844186819276921
aF-1.6414825186195352
asS'accel_x'
p11
F0
sS'accel_y'
p12
F0
sS'visionAngle'
p13
I130
sS'maxAccel'
p14
I2
sS'maxVel'
p15
F0.72999999999999998
sS'age'
p16
I0
sS'tailSize'
p17
I0
sS'sexualgeno'
p18
NsS'tailBrigh'
p19
I0
sS'maxSteering'
p20
I20
sS'energy'
p21
F0.5
sS'lastScale'
p22
F5.5
sb.(i__main__
Data_mobile
p1
(dp2
S'vel_y'
p3
I0
sS'vel_x'
p4
I0
sS'pos_x'
p5
I-9579
sS'pos_y'
p6
I9779
sS'isAlive'
p7
I00
sS'cumulativeEnergy'
p8
F0.5
sS'geno'
p9
(lp10
F-1.7986747433271701
aF-2.4574272174552716
aF0.78474993142646243
aF6.7231303954873782
aF-0.50974441396147829
asS'accel_x'
p11
F0
sS'accel_y'
p12
F0
sS'visionAngle'
p13
I130
sS'maxAccel'
p14
I2
sS'maxVel'
p15
F0.72999999999999998
sS'age'
p16
I0
sS'tailSize'
p17
I0
sS'sexualgeno'
p18
NsS'tailBrigh'
p19
I0
sS'maxSteering'
p20
I20
sS'energy'
p21
F0.5
sS'lastScale'
p22
F5.5
sb.(i__main__
Data_mobile
p1
(dp2
S'vel_y'
p3
I0
sS'vel_x'
p4
I0
sS'pos_x'
p5
I-9579
sS'pos_y'
p6
I9779
sS'isAlive'
p7
I00
sS'cumulativeEnergy'
p8
F0.5
sS'geno'
p9
(lp10
F-1.4479044785338873
aF-2.4574272174552716
aF0.94075305404519349
aF6.7231303954873782
aF-1.277470614265491
asS'accel_x'
p11
F0
sS'accel_y'
p12
F0
sS'visionAngle'
p13
I130
sS'maxAccel'
p14
I2
sS'maxVel'
p15
F0.72999999999999998
sS'age'
p16
I0
sS'tailSize'
p17
I0
sS'sexualgeno'
p18
NsS'tailBrigh'
p19
I0
sS'maxSteering'
p20
I20
sS'energy'
p21
F0.5
sS'lastScale'
p22
F5.5
sb.(i__main__
Data_mobile
p1
(dp2
S'vel_y'
p3
I0
sS'vel_x'
p4
I0
sS'pos_x'
p5
I-9579
sS'pos_y'
p6
I9779
sS'isAlive'
p7
I00
sS'cumulativeEnergy'
p8
F0.5
sS'geno'
p9
(lp10
F-2.1932571358521473
aF-2.4574272174552716
aF0.78474993142646243
aF7.0413517310828855
aF-1.277470614265491
asS'accel_x'
p11
F0
sS'accel_y'
p12
F0
sS'visionAngle'
p13
I130
sS'maxAccel'
p14
I2
sS'maxVel'
p15
F0.72999999999999998
sS'age'
p16
I0
sS'tailSize'
p17
I0
sS'sexualgeno'
p18
NsS'tailBrigh'
p19
I0
sS'maxSteering'
p20
I20
sS'energy'
p21
F0.5
sS'lastScale'
p22
F5.5
sb.(i__main__
Data_mobile
p1
(dp2
S'vel_y'
p3
I0
sS'vel_x'
p4
I0
sS'pos_x'
p5
I-9579
sS'pos_y'
p6
I9779
sS'isAlive'
p7
I00
sS'cumulativeEnergy'
p8
F0.5
sS'geno'
p9
(lp10
F-1.4479044785338873
aF-2.1624856733506856
aF0.78474993142646243
aF7.1844186819276921
aF-1.6414825186195352
asS'accel_x'
p11
F0
sS'accel_y'
p12
F0
sS'visionAngle'
p13
I130
sS'maxAccel'
p14
I2
sS'maxVel'
p15
F0.72999999999999998
sS'age'
p16
I0
sS'tailSize'
p17
I0
sS'sexualgeno'
p18
NsS'tailBrigh'
p19
I0
sS'maxSteering'
p20
I20
sS'energy'
p21
F0.5
sS'lastScale'
p22
F5.5
sb.(i__main__
Data_mobile
p1
(dp2
S'vel_y'
p3
I0
sS'vel_x'
p4
I0
sS'pos_x'
p5
I-9579
sS'pos_y'
p6
I9779
sS'isAlive'
p7
I00
sS'cumulativeEnergy'
p8
F0.5
sS'geno'
p9
(lp10
F-1.7986747433271701
aF-2.4574272174552716
aF0.78474993142646243
aF6.7231303954873782
aF-0.50974441396147829
asS'accel_x'
p11
F0
sS'accel_y'
p12
F0
sS'visionAngle'
p13
I130
sS'maxAccel'
p14
I2
sS'maxVel'
p15
F0.72999999999999998
sS'age'
p16
I0
sS'tailSize'
p17
I0
sS'sexualgeno'
p18
NsS'tailBrigh'
p19
I0
sS'maxSteering'
p20
I20
sS'energy'
p21
F0.5
sS'lastScale'
p22
F5.5
sb.