(i__main__
Data_mobile
p1
(dp2
S'vel_y'
p3
F-0.36119023224716323
sS'vel_x'
p4
F0.63438286241767305
sS'pos_x'
p5
F177.71804752592158
sS'pos_y'
p6
F-49.761395685531973
sS'isAlive'
p7
I01
sS'geno'
p8
(lp9
S'POINT.*'
p10
a(lp11
S'POINT.-'
p12
aS'target'
p13
aa(lp14
S'POINT./'
p15
aS'POINT.-'
p16
aa(lp17
S'currentVelocity'
p18
aS'POINT./'
p19
a(lp20
(lp21
(lp22
S'cohesion'
p23
aaS'alignment'
p24
a(lp25
S'currentVelocity'
p26
aS'currentVelocity'
p27
aS'alignment'
p28
aaS'POINT.*'
p29
a(lp30
S'separation'
p31
aaa(lp32
S'alignment'
p33
aaS'target'
p34
aS'randV'
p35
aS'cohesion'
p36
aS'POINT.-'
p37
a(lp38
S'POINT.*'
p39
aaaa(lp40
S'alignment'
p41
a(lp42
(lp43
S'target'
p44
aaS'POINT.*'
p45
aS'currentEnergy'
p46
a(lp47
S'POINT./'
p48
aaS'randV'
p49
aS'separation'
p50
a(lp51
S'alignment'
p52
aaa(lp53
S'randV'
p54
a(lp55
(lp56
S'POINT.*'
p57
aaS'cohesion'
p58
aaS'separation'
p59
aS'alignment'
p60
aaa(lp61
S'cohesion'
p62
aasS'accel_x'
p63
F0.93068705885616509
sS'accel_y'
p64
F0.30552180988462396
sS'visionAngle'
p65
I130
sS'maxAccel'
p66
I2
sS'maxVel'
p67
F0.72999999999999998
sS'age'
p68
I200
sS'lastScale'
p69
F15.30002611903191
sS'maxSteering'
p70
I20
sS'energy'
p71
F0.98000261190319093
sb.(i__main__
Data_mobile
p1
(dp2
S'vel_y'
p3
F-0.30000853694416091
sS'vel_x'
p4
F0.1223867259347531
sS'pos_x'
p5
F-107.44700289083742
sS'pos_y'
p6
F-45.367808764292818
sS'isAlive'
p7
I01
sS'geno'
p8
(lp9
S'POINT.*'
p10
a(lp11
S'POINT.-'
p12
aS'target'
p13
aa(lp14
S'POINT./'
p15
aS'POINT.-'
p16
aa(lp17
S'currentVelocity'
p18
aS'POINT./'
p19
a(lp20
(lp21
(lp22
S'cohesion'
p23
aaS'alignment'
p24
a(lp25
S'currentVelocity'
p26
aS'currentVelocity'
p27
aS'alignment'
p28
aaS'POINT.*'
p29
a(lp30
S'separation'
p31
aaa(lp32
S'alignment'
p33
aaS'target'
p34
aS'randV'
p35
aS'cohesion'
p36
aS'POINT.-'
p37
a(lp38
S'POINT.*'
p39
aaaa(lp40
S'alignment'
p41
a(lp42
(lp43
S'target'
p44
aaS'POINT.*'
p45
aS'currentEnergy'
p46
a(lp47
S'POINT./'
p48
aaS'randV'
p49
aS'separation'
p50
a(lp51
S'alignment'
p52
aaa(lp53
S'randV'
p54
a(lp55
(lp56
S'POINT.*'
p57
aaS'cohesion'
p58
aaS'separation'
p59
aS'alignment'
p60
aaa(lp61
S'cohesion'
p62
aasS'accel_x'
p63
F0.51321841335358442
sS'accel_y'
p64
F-0.088271874816634011
sS'visionAngle'
p65
I130
sS'maxAccel'
p66
I2
sS'maxVel'
p67
F0.72999999999999998
sS'age'
p68
I150
sS'lastScale'
p69
F15.301657194409474
sS'maxSteering'
p70
I20
sS'energy'
p71
F0.98016571944094744
sb.(i__main__
Data_mobile
p1
(dp2
S'vel_y'
p3
F-0.10317561341260431
sS'vel_x'
p4
F0.018354810666204324
sS'pos_x'
p5
F-107.49766444263895
sS'pos_y'
p6
F-45.23167732669534
sS'isAlive'
p7
I01
sS'geno'
p8
(lp9
S'POINT.*'
p10
a(lp11
S'POINT.-'
p12
aS'target'
p13
aa(lp14
S'POINT./'
p15
aS'POINT.-'
p16
aa(lp17
S'currentVelocity'
p18
aS'POINT./'
p19
a(lp20
(lp21
(lp22
S'cohesion'
p23
aaS'alignment'
p24
a(lp25
S'currentVelocity'
p26
aS'currentVelocity'
p27
aS'alignment'
p28
aaS'POINT.*'
p29
a(lp30
S'separation'
p31
aaa(lp32
S'alignment'
p33
aaS'target'
p34
aS'randV'
p35
aS'cohesion'
p36
aS'POINT.-'
p37
a(lp38
S'POINT.*'
p39
aaaa(lp40
S'alignment'
p41
a(lp42
(lp43
S'target'
p44
aaS'POINT.*'
p45
aS'currentEnergy'
p46
a(lp47
S'POINT./'
p48
aaS'randV'
p49
aS'separation'
p50
a(lp51
S'alignment'
p52
aaa(lp53
S'randV'
p54
a(lp55
(lp56
S'POINT.*'
p57
aaS'cohesion'
p58
aaS'separation'
p59
aS'alignment'
p60
aaa(lp61
S'cohesion'
p62
aasS'accel_x'
p63
F-0.25098740793801255
sS'accel_y'
p64
F0.41487215107428455
sS'visionAngle'
p65
I130
sS'maxAccel'
p66
I2
sS'maxVel'
p67
F0.72999999999999998
sS'age'
p68
I150
sS'lastScale'
p69
F15.301657194409474
sS'maxSteering'
p70
I20
sS'energy'
p71
F0.98016571944094744
sb.(i__main__
Data_mobile
p1
(dp2
S'vel_y'
p3
F-0.15916168167385114
sS'vel_x'
p4
F0.71243775804399334
sS'pos_x'
p5
F-5.1700788391668731
sS'pos_y'
p6
F18.183791687517406
sS'isAlive'
p7
I01
sS'geno'
p8
(lp9
S'POINT.*'
p10
a(lp11
S'POINT.-'
p12
aS'target'
p13
aa(lp14
S'POINT./'
p15
aS'POINT.-'
p16
aa(lp17
S'currentVelocity'
p18
aS'POINT./'
p19
a(lp20
(lp21
(lp22
S'cohesion'
p23
aaS'alignment'
p24
a(lp25
S'currentVelocity'
p26
aS'currentVelocity'
p27
aS'alignment'
p28
aaS'POINT.*'
p29
a(lp30
S'separation'
p31
aaa(lp32
S'alignment'
p33
aaS'target'
p34
aS'randV'
p35
aS'cohesion'
p36
aS'POINT.-'
p37
a(lp38
S'POINT.*'
p39
aaaa(lp40
S'alignment'
p41
a(lp42
(lp43
S'target'
p44
aaS'POINT.*'
p45
aS'currentEnergy'
p46
a(lp47
S'POINT./'
p48
aaS'randV'
p49
aS'separation'
p50
a(lp51
S'alignment'
p52
aaa(lp53
S'randV'
p54
a(lp55
(lp56
S'POINT.*'
p57
aaS'cohesion'
p58
aaS'separation'
p59
aS'alignment'
p60
aaa(lp61
S'cohesion'
p62
aasS'accel_x'
p63
F1.4890039520149529
sS'accel_y'
p64
F-0.40586103394980455
sS'visionAngle'
p65
I130
sS'maxAccel'
p66
I2
sS'maxVel'
p67
F0.72999999999999998
sS'age'
p68
I150
sS'lastScale'
p69
F15.301657194409474
sS'maxSteering'
p70
I20
sS'energy'
p71
F0.98016571944094744
sb.(i__main__
Data_mobile
p1
(dp2
S'vel_y'
p3
F0.62371592616365057
sS'vel_x'
p4
F0.37931312058748984
sS'pos_x'
p5
F-41.120963949254701
sS'pos_y'
p6
F37.089286229688348
sS'isAlive'
p7
I01
sS'geno'
p8
(lp9
S'POINT.*'
p10
a(lp11
S'POINT.-'
p12
aS'target'
p13
aa(lp14
S'POINT./'
p15
aS'POINT.-'
p16
aa(lp17
S'currentVelocity'
p18
aS'POINT./'
p19
a(lp20
(lp21
(lp22
S'cohesion'
p23
aaS'alignment'
p24
a(lp25
S'currentVelocity'
p26
aS'currentVelocity'
p27
aS'alignment'
p28
aaS'POINT.*'
p29
a(lp30
S'separation'
p31
aaa(lp32
S'alignment'
p33
aaS'target'
p34
aS'randV'
p35
aS'cohesion'
p36
aS'POINT.-'
p37
a(lp38
S'POINT.*'
p39
aaaa(lp40
S'alignment'
p41
a(lp42
(lp43
S'target'
p44
aaS'POINT.*'
p45
aS'currentEnergy'
p46
a(lp47
S'POINT./'
p48
aaS'randV'
p49
aS'separation'
p50
a(lp51
S'alignment'
p52
aaa(lp53
S'randV'
p54
a(lp55
(lp56
S'POINT.*'
p57
aaS'cohesion'
p58
aaS'separation'
p59
aS'alignment'
p60
aaa(lp61
S'cohesion'
p62
aasS'accel_x'
p63
F0.27292805928316
sS'accel_y'
p64
F0.40580025339308179
sS'visionAngle'
p65
I130
sS'maxAccel'
p66
I2
sS'maxVel'
p67
F0.72999999999999998
sS'age'
p68
I150
sS'lastScale'
p69
F14.158168982832596
sS'maxSteering'
p70
I20
sS'energy'
p71
F0.86581689828325958
sb.(i__main__
Data_mobile
p1
(dp2
S'vel_y'
p3
F-0.12624517326474702
sS'vel_x'
p4
F-0.71900080405195244
sS'pos_x'
p5
F88.7205626133659
sS'pos_y'
p6
F68.641359117299629
sS'isAlive'
p7
I01
sS'geno'
p8
(lp9
S'POINT.*'
p10
a(lp11
S'POINT.-'
p12
aS'target'
p13
aa(lp14
S'POINT./'
p15
aS'POINT.-'
p16
aa(lp17
S'currentVelocity'
p18
aS'POINT./'
p19
a(lp20
(lp21
(lp22
S'cohesion'
p23
aaS'alignment'
p24
a(lp25
S'currentVelocity'
p26
aS'currentVelocity'
p27
aS'alignment'
p28
aaS'POINT.*'
p29
a(lp30
S'separation'
p31
aaa(lp32
S'alignment'
p33
aaS'target'
p34
aS'randV'
p35
aS'cohesion'
p36
aS'POINT.-'
p37
a(lp38
S'POINT.*'
p39
aaaa(lp40
S'alignment'
p41
a(lp42
(lp43
S'target'
p44
aaS'POINT.*'
p45
aS'currentEnergy'
p46
a(lp47
S'POINT./'
p48
aaS'randV'
p49
aS'separation'
p50
a(lp51
S'alignment'
p52
aaa(lp53
S'randV'
p54
a(lp55
(lp56
S'POINT.*'
p57
aaS'cohesion'
p58
aaS'separation'
p59
aS'alignment'
p60
aaa(lp61
S'cohesion'
p62
aasS'accel_x'
p63
F0
sS'accel_y'
p64
F0
sS'visionAngle'
p65
I130
sS'maxAccel'
p66
I2
sS'maxVel'
p67
F0.72999999999999998
sS'age'
p68
I150
sS'lastScale'
p69
F13.936729225170145
sS'maxSteering'
p70
I20
sS'energy'
p71
F0.84367292251701465
sb.(i__main__
Data_mobile
p1
(dp2
S'vel_y'
p3
F-0.10754250966254261
sS'vel_x'
p4
F0.49253433195465107
sS'pos_x'
p5
F64.415027193467651
sS'pos_y'
p6
F20.955276104874908
sS'isAlive'
p7
I01
sS'geno'
p8
(lp9
S'POINT.*'
p10
a(lp11
S'POINT.-'
p12
aS'target'
p13
aa(lp14
S'POINT./'
p15
aS'POINT.-'
p16
aa(lp17
S'currentVelocity'
p18
aS'POINT./'
p19
a(lp20
(lp21
(lp22
S'cohesion'
p23
aaS'alignment'
p24
a(lp25
S'currentVelocity'
p26
aS'currentVelocity'
p27
aS'alignment'
p28
aaS'POINT.*'
p29
a(lp30
S'separation'
p31
aaa(lp32
S'alignment'
p33
aaS'target'
p34
aS'randV'
p35
aS'cohesion'
p36
aS'POINT.-'
p37
a(lp38
S'POINT.*'
p39
aaaa(lp40
S'alignment'
p41
a(lp42
(lp43
S'target'
p44
aaS'POINT.*'
p45
aS'currentEnergy'
p46
a(lp47
S'POINT./'
p48
aaS'randV'
p49
aS'separation'
p50
a(lp51
S'alignment'
p52
aaa(lp53
S'randV'
p54
a(lp55
(lp56
S'POINT.*'
p57
aaS'cohesion'
p58
aaS'separation'
p59
aS'alignment'
p60
aaa(lp61
S'cohesion'
p62
aasS'accel_x'
p63
F-0.47337207772124401
sS'accel_y'
p64
F0.13940213449846084
sS'visionAngle'
p65
I130
sS'maxAccel'
p66
I2
sS'maxVel'
p67
F0.72999999999999998
sS'age'
p68
I100
sS'lastScale'
p69
F15.352082128537274
sS'maxSteering'
p70
I20
sS'energy'
p71
F0.98520821285372739
sb.(i__main__
Data_mobile
p1
(dp2
S'vel_y'
p3
F-0.10535795238747254
sS'vel_x'
p4
F0.017845213749139496
sS'pos_x'
p5
F-107.50187219031537
sS'pos_y'
p6
F-45.230323785100595
sS'isAlive'
p7
I01
sS'geno'
p8
(lp9
S'POINT.*'
p10
a(lp11
S'POINT.-'
p12
aS'target'
p13
aa(lp14
S'POINT./'
p15
aS'POINT.-'
p16
aa(lp17
S'currentVelocity'
p18
aS'POINT./'
p19
a(lp20
(lp21
(lp22
S'cohesion'
p23
aaS'alignment'
p24
a(lp25
S'currentVelocity'
p26
aS'currentVelocity'
p27
aS'alignment'
p28
aaS'POINT.*'
p29
a(lp30
S'separation'
p31
aaa(lp32
S'alignment'
p33
aaS'target'
p34
aS'randV'
p35
aS'cohesion'
p36
aS'POINT.-'
p37
a(lp38
S'POINT.*'
p39
aaaa(lp40
S'alignment'
p41
a(lp42
(lp43
S'target'
p44
aaS'POINT.*'
p45
aS'currentEnergy'
p46
a(lp47
S'POINT./'
p48
aaS'randV'
p49
aS'separation'
p50
a(lp51
S'alignment'
p52
aaa(lp53
S'randV'
p54
a(lp55
(lp56
S'POINT.*'
p57
aaS'cohesion'
p58
aaS'separation'
p59
aS'alignment'
p60
aaa(lp61
S'cohesion'
p62
aasS'accel_x'
p63
F-0.24677966026159481
sS'accel_y'
p64
F0.41351860947953867
sS'visionAngle'
p65
I130
sS'maxAccel'
p66
I2
sS'maxVel'
p67
F0.72999999999999998
sS'age'
p68
I100
sS'lastScale'
p69
F15.352082128537274
sS'maxSteering'
p70
I20
sS'energy'
p71
F0.98520821285372739
sb.(i__main__
Data_mobile
p1
(dp2
S'vel_y'
p3
F-0.010587084020677982
sS'vel_x'
p4
F-0.11172782777409036
sS'pos_x'
p5
F-107.38691304980469
sS'pos_y'
p6
F-45.324929920725275
sS'isAlive'
p7
I01
sS'geno'
p8
(lp9
S'POINT.*'
p10
a(lp11
S'POINT.-'
p12
aS'target'
p13
aa(lp14
S'POINT./'
p15
aS'POINT.-'
p16
aa(lp17
S'currentVelocity'
p18
aS'POINT./'
p19
a(lp20
(lp21
(lp22
S'cohesion'
p23
aaS'alignment'
p24
a(lp25
S'currentVelocity'
p26
aS'currentVelocity'
p27
aS'alignment'
p28
aaS'POINT.*'
p29
a(lp30
S'separation'
p31
aaa(lp32
S'alignment'
p33
aaS'target'
p34
aS'randV'
p35
aS'cohesion'
p36
aS'POINT.-'
p37
a(lp38
S'POINT.*'
p39
aaaa(lp40
S'alignment'
p41
a(lp42
(lp43
S'target'
p44
aaS'POINT.*'
p45
aS'currentEnergy'
p46
a(lp47
S'POINT./'
p48
aaS'randV'
p49
aS'separation'
p50
a(lp51
S'alignment'
p52
aaa(lp53
S'randV'
p54
a(lp55
(lp56
S'POINT.*'
p57
aaS'cohesion'
p58
aaS'separation'
p59
aS'alignment'
p60
aaa(lp61
S'cohesion'
p62
aasS'accel_x'
p63
F0.4531285723208498
sS'accel_y'
p64
F-0.13115071838417691
sS'visionAngle'
p65
I130
sS'maxAccel'
p66
I2
sS'maxVel'
p67
F0.72999999999999998
sS'age'
p68
I100
sS'lastScale'
p69
F15.352082128537274
sS'maxSteering'
p70
I20
sS'energy'
p71
F0.98520821285372739
sb.(i__main__
Data_mobile
p1
(dp2
S'vel_y'
p3
F-0.62418136742940933
sS'vel_x'
p4
F0.37854672175829585
sS'pos_x'
p5
F-49.752286623237332
sS'pos_y'
p6
F-0.5155862442899396
sS'isAlive'
p7
I01
sS'geno'
p8
(lp9
S'POINT.*'
p10
a(lp11
S'POINT.-'
p12
aS'target'
p13
aa(lp14
S'POINT./'
p15
aS'POINT.-'
p16
aa(lp17
S'currentVelocity'
p18
aS'POINT./'
p19
a(lp20
(lp21
(lp22
S'cohesion'
p23
aaS'alignment'
p24
a(lp25
S'currentVelocity'
p26
aS'currentVelocity'
p27
aS'alignment'
p28
aaS'POINT.*'
p29
a(lp30
S'separation'
p31
aaa(lp32
S'alignment'
p33
aaS'target'
p34
aS'randV'
p35
aS'cohesion'
p36
aS'POINT.-'
p37
a(lp38
S'POINT.*'
p39
aaaa(lp40
S'alignment'
p41
a(lp42
(lp43
S'target'
p44
aaS'POINT.*'
p45
aS'currentEnergy'
p46
a(lp47
S'POINT./'
p48
aaS'randV'
p49
aS'separation'
p50
a(lp51
S'alignment'
p52
aaa(lp53
S'randV'
p54
a(lp55
(lp56
S'POINT.*'
p57
aaS'cohesion'
p58
aaS'separation'
p59
aS'alignment'
p60
aaa(lp61
S'cohesion'
p62
aasS'accel_x'
p63
F0.83650771633217147
sS'accel_y'
p64
F-1.3656667184993827
sS'visionAngle'
p65
I130
sS'maxAccel'
p66
I2
sS'maxVel'
p67
F0.72999999999999998
sS'age'
p68
I100
sS'lastScale'
p69
F15.352082128537274
sS'maxSteering'
p70
I20
sS'energy'
p71
F0.98520821285372739
sb.(i__main__
Data_mobile
p1
(dp2
S'vel_y'
p3
F-0.13791214016773026
sS'vel_x'
p4
F0.71685440752942031
sS'pos_x'
p5
F-5.1801110569515485
sS'pos_y'
p6
F18.160451596000122
sS'isAlive'
p7
I01
sS'geno'
p8
(lp9
S'POINT.*'
p10
a(lp11
S'POINT.-'
p12
aS'target'
p13
aa(lp14
S'POINT./'
p15
aS'POINT.-'
p16
aa(lp17
S'currentVelocity'
p18
aS'POINT./'
p19
a(lp20
(lp21
(lp22
S'cohesion'
p23
aaS'alignment'
p24
a(lp25
S'currentVelocity'
p26
aS'currentVelocity'
p27
aS'alignment'
p28
aaS'POINT.*'
p29
a(lp30
S'separation'
p31
aaa(lp32
S'alignment'
p33
aaS'target'
p34
aS'randV'
p35
aS'cohesion'
p36
aS'POINT.-'
p37
a(lp38
S'POINT.*'
p39
aaaa(lp40
S'alignment'
p41
a(lp42
(lp43
S'target'
p44
aaS'POINT.*'
p45
aS'currentEnergy'
p46
a(lp47
S'POINT./'
p48
aaS'randV'
p49
aS'separation'
p50
a(lp51
S'alignment'
p52
aaa(lp53
S'randV'
p54
a(lp55
(lp56
S'POINT.*'
p57
aaS'cohesion'
p58
aaS'separation'
p59
aS'alignment'
p60
aaa(lp61
S'cohesion'
p62
aasS'accel_x'
p63
F1.4990361697996284
sS'accel_y'
p64
F-0.38252094243252088
sS'visionAngle'
p65
I130
sS'maxAccel'
p66
I2
sS'maxVel'
p67
F0.72999999999999998
sS'age'
p68
I100
sS'lastScale'
p69
F15.352082128537274
sS'maxSteering'
p70
I20
sS'energy'
p71
F0.98520821285372739
sb.(i__main__
Data_mobile
p1
(dp2
S'vel_y'
p3
F-0.18364926558940353
sS'vel_x'
p4
F0.70652172454105955
sS'pos_x'
p5
F-5.1675885563871891
sS'pos_y'
p6
F18.172446944518615
sS'isAlive'
p7
I01
sS'geno'
p8
(lp9
S'POINT.*'
p10
a(lp11
S'POINT.-'
p12
aS'target'
p13
aa(lp14
S'POINT./'
p15
aS'POINT.-'
p16
aa(lp17
S'currentVelocity'
p18
aS'POINT./'
p19
a(lp20
(lp21
(lp22
S'cohesion'
p23
aaS'alignment'
p24
a(lp25
S'currentVelocity'
p26
aS'currentVelocity'
p27
aS'alignment'
p28
aaS'POINT.*'
p29
a(lp30
S'separation'
p31
aaa(lp32
S'alignment'
p33
aaS'target'
p34
aS'randV'
p35
aS'cohesion'
p36
aS'POINT.-'
p37
a(lp38
S'POINT.*'
p39
aaaa(lp40
S'alignment'
p41
a(lp42
(lp43
S'target'
p44
aaS'POINT.*'
p45
aS'currentEnergy'
p46
a(lp47
S'POINT./'
p48
aaS'randV'
p49
aS'separation'
p50
a(lp51
S'alignment'
p52
aaa(lp53
S'randV'
p54
a(lp55
(lp56
S'POINT.*'
p57
aaS'cohesion'
p58
aaS'separation'
p59
aS'alignment'
p60
aaa(lp61
S'cohesion'
p62
aasS'accel_x'
p63
F1.486513669235269
sS'accel_y'
p64
F-0.39451629095101381
sS'visionAngle'
p65
I130
sS'maxAccel'
p66
I2
sS'maxVel'
p67
F0.72999999999999998
sS'age'
p68
I100
sS'lastScale'
p69
F15.352082128537274
sS'maxSteering'
p70
I20
sS'energy'
p71
F0.98520821285372739
sb.(i__main__
Data_mobile
p1
(dp2
S'vel_y'
p3
F-0.058888922270133905
sS'vel_x'
p4
F0.5699688440704056
sS'pos_x'
p5
F64.361926379389516
sS'pos_y'
p6
F21.011803351723398
sS'isAlive'
p7
I01
sS'geno'
p8
(lp9
S'POINT.*'
p10
a(lp11
S'POINT.-'
p12
aS'target'
p13
aa(lp14
S'POINT./'
p15
aS'POINT.-'
p16
aa(lp17
S'currentVelocity'
p18
aS'POINT./'
p19
a(lp20
(lp21
(lp22
S'cohesion'
p23
aaS'alignment'
p24
a(lp25
S'currentVelocity'
p26
aS'currentVelocity'
p27
aS'alignment'
p28
aaS'POINT.*'
p29
a(lp30
S'separation'
p31
aaa(lp32
S'alignment'
p33
aaS'target'
p34
aS'randV'
p35
aS'cohesion'
p36
aS'POINT.-'
p37
a(lp38
S'POINT.*'
p39
aaaa(lp40
S'alignment'
p41
a(lp42
(lp43
S'target'
p44
aaS'POINT.*'
p45
aS'currentEnergy'
p46
a(lp47
S'POINT./'
p48
aaS'randV'
p49
aS'separation'
p50
a(lp51
S'alignment'
p52
aaa(lp53
S'randV'
p54
a(lp55
(lp56
S'POINT.*'
p57
aaS'cohesion'
p58
aaS'separation'
p59
aS'alignment'
p60
aaa(lp61
S'cohesion'
p62
aasS'accel_x'
p63
F-0.42027126364310874
sS'accel_y'
p64
F0.08287488764997164
sS'visionAngle'
p65
I130
sS'maxAccel'
p66
I2
sS'maxVel'
p67
F0.72999999999999998
sS'age'
p68
I100
sS'lastScale'
p69
F15.352082128537274
sS'maxSteering'
p70
I20
sS'energy'
p71
F0.98520821285372739
sb.(i__main__
Data_mobile
p1
(dp2
S'vel_y'
p3
F-0.61911660303666272
sS'vel_x'
p4
F0.38677465253599996
sS'pos_x'
p5
F-49.719680250075264
sS'pos_y'
p6
F-0.57001823900843718
sS'isAlive'
p7
I01
sS'geno'
p8
(lp9
S'POINT.*'
p10
a(lp11
S'POINT.-'
p12
aS'target'
p13
aa(lp14
S'POINT./'
p15
aS'POINT.-'
p16
aa(lp17
S'currentVelocity'
p18
aS'POINT./'
p19
a(lp20
(lp21
(lp22
S'cohesion'
p23
aaS'alignment'
p24
a(lp25
S'currentVelocity'
p26
aS'currentVelocity'
p27
aS'alignment'
p28
aaS'POINT.*'
p29
a(lp30
S'separation'
p31
aaa(lp32
S'alignment'
p33
aaS'target'
p34
aS'randV'
p35
aS'cohesion'
p36
aS'POINT.-'
p37
a(lp38
S'POINT.*'
p39
aaaa(lp40
S'alignment'
p41
a(lp42
(lp43
S'target'
p44
aaS'POINT.*'
p45
aS'currentEnergy'
p46
a(lp47
S'POINT./'
p48
aaS'randV'
p49
aS'separation'
p50
a(lp51
S'alignment'
p52
aaa(lp53
S'randV'
p54
a(lp55
(lp56
S'POINT.*'
p57
aaS'cohesion'
p58
aaS'separation'
p59
aS'alignment'
p60
aaa(lp61
S'cohesion'
p62
aasS'accel_x'
p63
F0.80390134317010364
sS'accel_y'
p64
F-1.3112347237808852
sS'visionAngle'
p65
I130
sS'maxAccel'
p66
I2
sS'maxVel'
p67
F0.72999999999999998
sS'age'
p68
I100
sS'lastScale'
p69
F15.352082128537274
sS'maxSteering'
p70
I20
sS'energy'
p71
F0.98520821285372739
sb.(i__main__
Data_mobile
p1
(dp2
S'vel_y'
p3
F-0.20951976288061372
sS'vel_x'
p4
F0.69928639981230245
sS'pos_x'
p5
F-26.419134307436309
sS'pos_y'
p6
F-35.867592537679052
sS'isAlive'
p7
I01
sS'geno'
p8
(lp9
S'POINT.*'
p10
a(lp11
S'POINT.-'
p12
aS'target'
p13
aa(lp14
S'POINT./'
p15
aS'POINT.-'
p16
aa(lp17
S'currentVelocity'
p18
aS'POINT./'
p19
a(lp20
(lp21
(lp22
S'cohesion'
p23
aaS'alignment'
p24
a(lp25
S'currentVelocity'
p26
aS'currentVelocity'
p27
aS'alignment'
p28
aaS'POINT.*'
p29
a(lp30
S'separation'
p31
aaa(lp32
S'alignment'
p33
aaS'target'
p34
aS'randV'
p35
aS'cohesion'
p36
aS'POINT.-'
p37
a(lp38
S'POINT.*'
p39
aaaa(lp40
S'alignment'
p41
a(lp42
(lp43
S'target'
p44
aaS'POINT.*'
p45
aS'currentEnergy'
p46
a(lp47
S'POINT./'
p48
aaS'randV'
p49
aS'separation'
p50
a(lp51
S'alignment'
p52
aaa(lp53
S'randV'
p54
a(lp55
(lp56
S'POINT.*'
p57
aaS'cohesion'
p58
aaS'separation'
p59
aS'alignment'
p60
aaa(lp61
S'cohesion'
p62
aasS'accel_x'
p63
F0
sS'accel_y'
p64
F0
sS'visionAngle'
p65
I130
sS'maxAccel'
p66
I2
sS'maxVel'
p67
F0.72999999999999998
sS'age'
p68
I100
sS'lastScale'
p69
F11.149014660429753
sS'maxSteering'
p70
I20
sS'energy'
p71
F0.56490146604297531
sb.(i__main__
Data_mobile
p1
(dp2
S'vel_y'
p3
F0.67463151427536083
sS'vel_x'
p4
F-0.27887689030562107
sS'pos_x'
p5
F8.0857090342183611
sS'pos_y'
p6
F16.076571129990157
sS'isAlive'
p7
I01
sS'geno'
p8
(lp9
S'POINT.*'
p10
a(lp11
S'POINT.-'
p12
aS'target'
p13
aa(lp14
S'POINT./'
p15
aS'POINT.-'
p16
aa(lp17
S'currentVelocity'
p18
aS'POINT./'
p19
a(lp20
(lp21
(lp22
S'cohesion'
p23
aaS'alignment'
p24
a(lp25
S'currentVelocity'
p26
aS'currentVelocity'
p27
aS'alignment'
p28
aaS'POINT.*'
p29
a(lp30
S'separation'
p31
aaa(lp32
S'alignment'
p33
aaS'target'
p34
aS'randV'
p35
aS'cohesion'
p36
aS'POINT.-'
p37
a(lp38
S'POINT.*'
p39
aaaa(lp40
S'alignment'
p41
a(lp42
(lp43
S'target'
p44
aaS'POINT.*'
p45
aS'currentEnergy'
p46
a(lp47
S'POINT./'
p48
aaS'randV'
p49
aS'separation'
p50
a(lp51
S'alignment'
p52
aaa(lp53
S'randV'
p54
a(lp55
(lp56
S'POINT.*'
p57
aaS'cohesion'
p58
aaS'separation'
p59
aS'alignment'
p60
aaa(lp61
S'cohesion'
p62
aasS'accel_x'
p63
F-0.52521295673950341
sS'accel_y'
p64
F-0.22365652100315181
sS'visionAngle'
p65
I130
sS'maxAccel'
p66
I2
sS'maxVel'
p67
F0.72999999999999998
sS'age'
p68
I50
sS'lastScale'
p69
F15.398593637295674
sS'maxSteering'
p70
I20
sS'energy'
p71
F0.98985936372956751
sb.(i__main__
Data_mobile
p1
(dp2
S'vel_y'
p3
F0.1531311181963354
sS'vel_x'
p4
F-0.27535931767964983
sS'pos_x'
p5
F7.9837350429026337
sS'pos_y'
p6
F15.734184647141785
sS'isAlive'
p7
I01
sS'geno'
p8
(lp9
S'POINT.*'
p10
a(lp11
S'POINT.-'
p12
aS'target'
p13
aa(lp14
S'POINT./'
p15
aS'POINT.-'
p16
aa(lp17
S'currentVelocity'
p18
aS'POINT./'
p19
a(lp20
(lp21
(lp22
S'cohesion'
p23
aaS'alignment'
p24
a(lp25
S'currentVelocity'
p26
aS'currentVelocity'
p27
aS'alignment'
p28
aaS'POINT.*'
p29
a(lp30
S'separation'
p31
aaa(lp32
S'alignment'
p33
aaS'target'
p34
aS'randV'
p35
aS'cohesion'
p36
aS'POINT.-'
p37
a(lp38
S'POINT.*'
p39
aaaa(lp40
S'alignment'
p41
a(lp42
(lp43
S'target'
p44
aaS'POINT.*'
p45
aS'currentEnergy'
p46
a(lp47
S'POINT./'
p48
aaS'randV'
p49
aS'separation'
p50
a(lp51
S'alignment'
p52
aaa(lp53
S'randV'
p54
a(lp55
(lp56
S'POINT.*'
p57
aaS'cohesion'
p58
aaS'separation'
p59
aS'alignment'
p60
aaa(lp61
S'cohesion'
p62
aasS'accel_x'
p63
F-0.42323896542377604
sS'accel_y'
p64
F0.11872996184522044
sS'visionAngle'
p65
I130
sS'maxAccel'
p66
I2
sS'maxVel'
p67
F0.72999999999999998
sS'age'
p68
I50
sS'lastScale'
p69
F15.398593637295674
sS'maxSteering'
p70
I20
sS'energy'
p71
F0.98985936372956751
sb.(i__main__
Data_mobile
p1
(dp2
S'vel_y'
p3
F0.29892559064993185
sS'vel_x'
p4
F-0.66599060898378237
sS'pos_x'
p5
F6.9573399958558459
sS'pos_y'
p6
F16.698082734939938
sS'isAlive'
p7
I01
sS'geno'
p8
(lp9
S'POINT.*'
p10
a(lp11
S'POINT.-'
p12
aS'target'
p13
aa(lp14
S'POINT./'
p15
aS'POINT.-'
p16
aa(lp17
S'currentVelocity'
p18
aS'POINT./'
p19
a(lp20
(lp21
(lp22
S'cohesion'
p23
aaS'alignment'
p24
a(lp25
S'currentVelocity'
p26
aS'currentVelocity'
p27
aS'alignment'
p28
aaS'POINT.*'
p29
a(lp30
S'separation'
p31
aaa(lp32
S'alignment'
p33
aaS'target'
p34
aS'randV'
p35
aS'cohesion'
p36
aS'POINT.-'
p37
a(lp38
S'POINT.*'
p39
aaaa(lp40
S'alignment'
p41
a(lp42
(lp43
S'target'
p44
aaS'POINT.*'
p45
aS'currentEnergy'
p46
a(lp47
S'POINT./'
p48
aaS'randV'
p49
aS'separation'
p50
a(lp51
S'alignment'
p52
aaa(lp53
S'randV'
p54
a(lp55
(lp56
S'POINT.*'
p57
aaS'cohesion'
p58
aaS'separation'
p59
aS'alignment'
p60
aaa(lp61
S'cohesion'
p62
aasS'accel_x'
p63
F0.60315608162301171
sS'accel_y'
p64
F-0.84516812595293267
sS'visionAngle'
p65
I130
sS'maxAccel'
p66
I2
sS'maxVel'
p67
F0.72999999999999998
sS'age'
p68
I50
sS'lastScale'
p69
F15.398593637295674
sS'maxSteering'
p70
I20
sS'energy'
p71
F0.98985936372956751
sb.(i__main__
Data_mobile
p1
(dp2
S'vel_y'
p3
F-0.11925208946950848
sS'vel_x'
p4
F0.72019368169760867
sS'pos_x'
p5
F8.4871363046917292
sS'pos_y'
p6
F13.561537248863146
sS'isAlive'
p7
I01
sS'geno'
p8
(lp9
S'POINT.*'
p10
a(lp11
S'POINT.-'
p12
aS'target'
p13
aa(lp14
S'POINT./'
p15
aS'POINT.-'
p16
aa(lp17
S'currentVelocity'
p18
aS'POINT./'
p19
a(lp20
(lp21
(lp22
S'cohesion'
p23
aaS'alignment'
p24
a(lp25
S'currentVelocity'
p26
aS'currentVelocity'
p27
aS'alignment'
p28
aaS'POINT.*'
p29
a(lp30
S'separation'
p31
aaa(lp32
S'alignment'
p33
aaS'target'
p34
aS'randV'
p35
aS'cohesion'
p36
aS'POINT.-'
p37
a(lp38
S'POINT.*'
p39
aaaa(lp40
S'alignment'
p41
a(lp42
(lp43
S'target'
p44
aaS'POINT.*'
p45
aS'currentEnergy'
p46
a(lp47
S'POINT./'
p48
aaS'randV'
p49
aS'separation'
p50
a(lp51
S'alignment'
p52
aaa(lp53
S'randV'
p54
a(lp55
(lp56
S'POINT.*'
p57
aaS'cohesion'
p58
aaS'separation'
p59
aS'alignment'
p60
aaa(lp61
S'cohesion'
p62
aasS'accel_x'
p63
F-1.3123617970347583
sS'accel_y'
p64
F0.75091115077727544
sS'visionAngle'
p65
I130
sS'maxAccel'
p66
I2
sS'maxVel'
p67
F0.72999999999999998
sS'age'
p68
I50
sS'lastScale'
p69
F15.398593637295674
sS'maxSteering'
p70
I20
sS'energy'
p71
F0.98985936372956751
sb.(i__main__
Data_mobile
p1
(dp2
S'vel_y'
p3
F0.022435667277682519
sS'vel_x'
p4
F-0.72965515199565689
sS'pos_x'
p5
F-108.3370151233499
sS'pos_y'
p6
F-44.32179191072067
sS'isAlive'
p7
I01
sS'geno'
p8
(lp9
S'POINT.*'
p10
a(lp11
S'POINT.-'
p12
aS'target'
p13
aa(lp14
S'POINT./'
p15
aS'POINT.-'
p16
aa(lp17
S'currentVelocity'
p18
aS'POINT./'
p19
a(lp20
(lp21
(lp22
S'cohesion'
p23
aaS'alignment'
p24
a(lp25
S'currentVelocity'
p26
aS'currentVelocity'
p27
aS'alignment'
p28
aaS'POINT.*'
p29
a(lp30
S'separation'
p31
aaa(lp32
S'alignment'
p33
aaS'target'
p34
aS'randV'
p35
aS'cohesion'
p36
aS'POINT.-'
p37
a(lp38
S'POINT.*'
p39
aaaa(lp40
S'alignment'
p41
a(lp42
(lp43
S'target'
p44
aaS'POINT.*'
p45
aS'currentEnergy'
p46
a(lp47
S'POINT./'
p48
aaS'randV'
p49
aS'separation'
p50
a(lp51
S'alignment'
p52
aaa(lp53
S'randV'
p54
a(lp55
(lp56
S'POINT.*'
p57
aaS'cohesion'
p58
aaS'separation'
p59
aS'alignment'
p60
aaa(lp61
S'cohesion'
p62
aasS'accel_x'
p63
F0.58836327277293776
sS'accel_y'
p64
F-0.49501326490038622
sS'visionAngle'
p65
I130
sS'maxAccel'
p66
I2
sS'maxVel'
p67
F0.72999999999999998
sS'age'
p68
I50
sS'lastScale'
p69
F15.398593637295674
sS'maxSteering'
p70
I20
sS'energy'
p71
F0.98985936372956751
sb.(i__main__
Data_mobile
p1
(dp2
S'vel_y'
p3
F-0.33439114727480129
sS'vel_x'
p4
F-0.6489087459914854
sS'pos_x'
p5
F-66.558740397561976
sS'pos_y'
p6
F-67.465758345357017
sS'isAlive'
p7
I01
sS'geno'
p8
(lp9
S'POINT.*'
p10
a(lp11
S'POINT.-'
p12
aS'target'
p13
aa(lp14
S'POINT./'
p15
aS'POINT.-'
p16
aa(lp17
S'currentVelocity'
p18
aS'POINT./'
p19
a(lp20
(lp21
(lp22
S'cohesion'
p23
aaS'alignment'
p24
a(lp25
S'currentVelocity'
p26
aS'currentVelocity'
p27
aS'alignment'
p28
aaS'POINT.*'
p29
a(lp30
S'separation'
p31
aaa(lp32
S'alignment'
p33
aaS'target'
p34
aS'randV'
p35
aS'cohesion'
p36
aS'POINT.-'
p37
a(lp38
S'POINT.*'
p39
aaaa(lp40
S'alignment'
p41
a(lp42
(lp43
S'target'
p44
aaS'POINT.*'
p45
aS'currentEnergy'
p46
a(lp47
S'POINT./'
p48
aaS'randV'
p49
aS'separation'
p50
a(lp51
S'alignment'
p52
aaa(lp53
S'randV'
p54
a(lp55
(lp56
S'POINT.*'
p57
aaS'cohesion'
p58
aaS'separation'
p59
aS'alignment'
p60
aaa(lp61
S'cohesion'
p62
aasS'accel_x'
p63
F0
sS'accel_y'
p64
F0
sS'visionAngle'
p65
I130
sS'maxAccel'
p66
I2
sS'maxVel'
p67
F0.72999999999999998
sS'age'
p68
I50
sS'lastScale'
p69
F12.983256054642686
sS'maxSteering'
p70
I20
sS'energy'
p71
F0.74832560546426863
sb.(i__main__
Data_mobile
p1
(dp2
S'vel_y'
p3
F-0.14730674846923247
sS'vel_x'
p4
F-0.10392680262763573
sS'pos_x'
p5
F-55.25569826037443
sS'pos_y'
p6
F-34.644524818752998
sS'isAlive'
p7
I01
sS'geno'
p8
(lp9
S'POINT.*'
p10
a(lp11
S'POINT.-'
p12
aS'target'
p13
aa(lp14
S'POINT./'
p15
aS'POINT.-'
p16
aa(lp17
S'currentVelocity'
p18
aS'POINT./'
p19
a(lp20
(lp21
(lp22
S'cohesion'
p23
aaS'alignment'
p24
a(lp25
S'currentVelocity'
p26
aS'currentVelocity'
p27
aS'alignment'
p28
aaS'POINT.*'
p29
a(lp30
S'separation'
p31
aaa(lp32
S'alignment'
p33
aaS'target'
p34
aS'randV'
p35
aS'cohesion'
p36
aS'POINT.-'
p37
a(lp38
S'POINT.*'
p39
aaaa(lp40
S'alignment'
p41
a(lp42
(lp43
S'target'
p44
aaS'POINT.*'
p45
aS'currentEnergy'
p46
a(lp47
S'POINT./'
p48
aaS'randV'
p49
aS'separation'
p50
a(lp51
S'alignment'
p52
aaa(lp53
S'randV'
p54
a(lp55
(lp56
S'POINT.*'
p57
aaS'cohesion'
p58
aaS'separation'
p59
aS'alignment'
p60
aaa(lp61
S'cohesion'
p62
aasS'accel_x'
p63
F0
sS'accel_y'
p64
F0
sS'visionAngle'
p65
I130
sS'maxAccel'
p66
I2
sS'maxVel'
p67
F0.72999999999999998
sS'age'
p68
I50
sS'lastScale'
p69
F11.482567602243996
sS'maxSteering'
p70
I20
sS'energy'
p71
F0.59825676022439966
sb.(i__main__
Data_mobile
p1
(dp2
S'vel_y'
p3
F-0.18520050633364474
sS'vel_x'
p4
F-0.70611668472977007
sS'pos_x'
p5
F-107.30283883477921
sS'pos_y'
p6
F-45.414698736447171
sS'isAlive'
p7
I01
sS'geno'
p8
(lp9
S'POINT.*'
p10
a(lp11
S'POINT.-'
p12
aS'target'
p13
aa(lp14
S'POINT./'
p15
aS'POINT.-'
p16
aa(lp17
S'currentVelocity'
p18
aS'POINT./'
p19
a(lp20
(lp21
(lp22
S'cohesion'
p23
aaS'alignment'
p24
a(lp25
S'currentVelocity'
p26
aS'currentVelocity'
p27
aS'alignment'
p28
aaS'POINT.*'
p29
a(lp30
S'separation'
p31
aaa(lp32
S'alignment'
p33
aaS'target'
p34
aS'randV'
p35
aS'cohesion'
p36
aS'POINT.-'
p37
a(lp38
S'POINT.*'
p39
aaaa(lp40
S'alignment'
p41
a(lp42
(lp43
S'target'
p44
aaS'POINT.*'
p45
aS'currentEnergy'
p46
a(lp47
S'POINT./'
p48
aaS'randV'
p49
aS'separation'
p50
a(lp51
S'alignment'
p52
aaa(lp53
S'randV'
p54
a(lp55
(lp56
S'POINT.*'
p57
aaS'cohesion'
p58
aaS'separation'
p59
aS'alignment'
p60
aaa(lp61
S'cohesion'
p62
aasS'accel_x'
p63
F0.36905435729536862
sS'accel_y'
p64
F-0.041381902662280368
sS'visionAngle'
p65
I130
sS'maxAccel'
p66
I2
sS'maxVel'
p67
F0.72999999999999998
sS'age'
p68
I50
sS'lastScale'
p69
F9.4825676022439982
sS'maxSteering'
p70
I20
sS'energy'
p71
F0.39825676022439976
sb.(i__main__
Data_mobile
p1
(dp2
S'vel_y'
p3
F-0.51189665357182967
sS'vel_x'
p4
F0.47323070302704462
sS'pos_x'
p5
F45.775897210380464
sS'pos_y'
p6
F-17.650775844582771
sS'isAlive'
p7
I01
sS'geno'
p8
(lp9
S'POINT.*'
p10
a(lp11
S'POINT.-'
p12
aS'target'
p13
aa(lp14
S'POINT./'
p15
aS'POINT.-'
p16
aa(lp17
S'currentVelocity'
p18
aS'POINT./'
p19
a(lp20
(lp21
(lp22
S'cohesion'
p23
aaS'alignment'
p24
a(lp25
S'currentVelocity'
p26
aS'currentVelocity'
p27
aS'alignment'
p28
aaS'POINT.*'
p29
a(lp30
S'separation'
p31
aaa(lp32
S'alignment'
p33
aaS'target'
p34
aS'randV'
p35
aS'cohesion'
p36
aS'POINT.-'
p37
a(lp38
S'POINT.*'
p39
aaaa(lp40
S'alignment'
p41
a(lp42
(lp43
S'target'
p44
aaS'POINT.*'
p45
aS'currentEnergy'
p46
a(lp47
S'POINT./'
p48
aaS'randV'
p49
aS'separation'
p50
a(lp51
S'alignment'
p52
aaa(lp53
S'randV'
p54
a(lp55
(lp56
S'POINT.*'
p57
aaS'cohesion'
p58
aaS'separation'
p59
aS'alignment'
p60
aaa(lp61
S'cohesion'
p62
aasS'accel_x'
p63
F0
sS'accel_y'
p64
F0
sS'visionAngle'
p65
I130
sS'maxAccel'
p66
I2
sS'maxVel'
p67
F0.72999999999999998
sS'age'
p68
I50
sS'lastScale'
p69
F9.4825676022439946
sS'maxSteering'
p70
I20
sS'energy'
p71
F0.39825676022439949
sb.(i__main__
Data_mobile
p1
(dp2
S'vel_y'
p3
F0.14348703565082851
sS'vel_x'
p4
F-0.71575936640755033
sS'pos_x'
p5
F-75.347670352344707
sS'pos_y'
p6
F-25.033155438227936
sS'isAlive'
p7
I01
sS'geno'
p8
(lp9
S'POINT.*'
p10
a(lp11
S'POINT.-'
p12
aS'target'
p13
aa(lp14
S'POINT./'
p15
aS'POINT.-'
p16
aa(lp17
S'currentVelocity'
p18
aS'POINT./'
p19
a(lp20
(lp21
(lp22
S'cohesion'
p23
aaS'alignment'
p24
a(lp25
S'currentVelocity'
p26
aS'currentVelocity'
p27
aS'alignment'
p28
aaS'POINT.*'
p29
a(lp30
S'separation'
p31
aaa(lp32
S'alignment'
p33
aaS'target'
p34
aS'randV'
p35
aS'cohesion'
p36
aS'POINT.-'
p37
a(lp38
S'POINT.*'
p39
aaaa(lp40
S'alignment'
p41
a(lp42
(lp43
S'target'
p44
aaS'POINT.*'
p45
aS'currentEnergy'
p46
a(lp47
S'POINT./'
p48
aaS'randV'
p49
aS'separation'
p50
a(lp51
S'alignment'
p52
aaa(lp53
S'randV'
p54
a(lp55
(lp56
S'POINT.*'
p57
aaS'cohesion'
p58
aaS'separation'
p59
aS'alignment'
p60
aaa(lp61
S'cohesion'
p62
aasS'accel_x'
p63
F0
sS'accel_y'
p64
F0
sS'visionAngle'
p65
I130
sS'maxAccel'
p66
I2
sS'maxVel'
p67
F0.72999999999999998
sS'age'
p68
I50
sS'lastScale'
p69
F8.4825676022439964
sS'maxSteering'
p70
I20
sS'energy'
p71
F0.29825676022439973
sb.(i__main__
Data_mobile
p1
(dp2
S'vel_y'
p3
F0.72930365433742184
sS'vel_x'
p4
F0.031877574720835397
sS'pos_x'
p5
F-94.686670339863312
sS'pos_y'
p6
F23.980298342824053
sS'isAlive'
p7
I01
sS'geno'
p8
(lp9
S'POINT.*'
p10
a(lp11
S'POINT.-'
p12
aS'target'
p13
aa(lp14
S'POINT./'
p15
aS'POINT.-'
p16
aa(lp17
S'currentVelocity'
p18
aS'POINT./'
p19
a(lp20
(lp21
(lp22
S'cohesion'
p23
aaS'alignment'
p24
a(lp25
S'currentVelocity'
p26
aS'currentVelocity'
p27
aS'alignment'
p28
aaS'POINT.*'
p29
a(lp30
S'separation'
p31
aaa(lp32
S'alignment'
p33
aaS'target'
p34
aS'randV'
p35
aS'cohesion'
p36
aS'POINT.-'
p37
a(lp38
S'POINT.*'
p39
aaaa(lp40
S'alignment'
p41
a(lp42
(lp43
S'target'
p44
aaS'POINT.*'
p45
aS'currentEnergy'
p46
a(lp47
S'POINT./'
p48
aaS'randV'
p49
aS'separation'
p50
a(lp51
S'alignment'
p52
aaa(lp53
S'randV'
p54
a(lp55
(lp56
S'POINT.*'
p57
aaS'cohesion'
p58
aaS'separation'
p59
aS'alignment'
p60
aaa(lp61
S'cohesion'
p62
aasS'accel_x'
p63
F0
sS'accel_y'
p64
F0
sS'visionAngle'
p65
I130
sS'maxAccel'
p66
I2
sS'maxVel'
p67
F0.72999999999999998
sS'age'
p68
I50
sS'lastScale'
p69
F7.4825676022439964
sS'maxSteering'
p70
I20
sS'energy'
p71
F0.1982567602243997
sb.(i__main__
Data_mobile
p1
(dp2
S'vel_y'
p3
F0.72930365433742184
sS'vel_x'
p4
F0.031877574720835397
sS'pos_x'
p5
F-94.686670339863312
sS'pos_y'
p6
F23.980298342824053
sS'isAlive'
p7
I01
sS'geno'
p8
(lp9
S'POINT.*'
p10
a(lp11
S'POINT.-'
p12
aS'target'
p13
aa(lp14
S'POINT./'
p15
aS'POINT.-'
p16
aa(lp17
S'currentVelocity'
p18
aS'POINT./'
p19
a(lp20
(lp21
(lp22
S'cohesion'
p23
aaS'alignment'
p24
a(lp25
S'currentVelocity'
p26
aS'currentVelocity'
p27
aS'alignment'
p28
aaS'POINT.*'
p29
a(lp30
S'separation'
p31
aaa(lp32
S'alignment'
p33
aaS'target'
p34
aS'randV'
p35
aS'cohesion'
p36
aS'POINT.-'
p37
a(lp38
S'POINT.*'
p39
aaaa(lp40
S'alignment'
p41
a(lp42
(lp43
S'target'
p44
aaS'POINT.*'
p45
aS'currentEnergy'
p46
a(lp47
S'POINT./'
p48
aaS'randV'
p49
aS'separation'
p50
a(lp51
S'alignment'
p52
aaa(lp53
S'randV'
p54
a(lp55
(lp56
S'POINT.*'
p57
aaS'cohesion'
p58
aaS'separation'
p59
aS'alignment'
p60
aaa(lp61
S'cohesion'
p62
aasS'accel_x'
p63
F0
sS'accel_y'
p64
F0
sS'visionAngle'
p65
I130
sS'maxAccel'
p66
I2
sS'maxVel'
p67
F0.72999999999999998
sS'age'
p68
I50
sS'lastScale'
p69
F7.4825676022439964
sS'maxSteering'
p70
I20
sS'energy'
p71
F0.1982567602243997
sb.(i__main__
Data_mobile
p1
(dp2
S'vel_y'
p3
F0.66216384011719198
sS'vel_x'
p4
F0.30730936992101915
sS'pos_x'
p5
F-99.98913611424021
sS'pos_y'
p6
F0.10571231522568654
sS'isAlive'
p7
I01
sS'geno'
p8
(lp9
S'POINT.*'
p10
a(lp11
S'POINT.-'
p12
aS'target'
p13
aa(lp14
S'POINT./'
p15
aS'POINT.-'
p16
aa(lp17
S'currentVelocity'
p18
aS'POINT./'
p19
a(lp20
(lp21
(lp22
S'cohesion'
p23
aaS'alignment'
p24
a(lp25
S'currentVelocity'
p26
aS'currentVelocity'
p27
aS'alignment'
p28
aaS'POINT.*'
p29
a(lp30
S'separation'
p31
aaa(lp32
S'alignment'
p33
aaS'target'
p34
aS'randV'
p35
aS'cohesion'
p36
aS'POINT.-'
p37
a(lp38
S'POINT.*'
p39
aaaa(lp40
S'alignment'
p41
a(lp42
(lp43
S'target'
p44
aaS'POINT.*'
p45
aS'currentEnergy'
p46
a(lp47
S'POINT./'
p48
aaS'randV'
p49
aS'separation'
p50
a(lp51
S'alignment'
p52
aaa(lp53
S'randV'
p54
a(lp55
(lp56
S'POINT.*'
p57
aaS'cohesion'
p58
aaS'separation'
p59
aS'alignment'
p60
aaa(lp61
S'cohesion'
p62
aasS'accel_x'
p63
F0
sS'accel_y'
p64
F0
sS'visionAngle'
p65
I130
sS'maxAccel'
p66
I2
sS'maxVel'
p67
F0.72999999999999998
sS'age'
p68
I50
sS'lastScale'
p69
F6.4825676022439964
sS'maxSteering'
p70
I20
sS'energy'
p71
F0.098256760224399664
sb.(i__main__
Data_mobile
p1
(dp2
S'vel_y'
p3
F-0.082830537849720429
sS'vel_x'
p4
F0.27176342850699992
sS'pos_x'
p5
F33.08765542344338
sS'pos_y'
p6
F8.9570989625616431
sS'isAlive'
p7
I01
sS'geno'
p8
(lp9
S'POINT.*'
p10
a(lp11
S'POINT.-'
p12
aS'target'
p13
aa(lp14
S'POINT./'
p15
aS'POINT.-'
p16
aa(lp17
S'currentVelocity'
p18
aS'POINT./'
p19
a(lp20
(lp21
(lp22
S'cohesion'
p23
aaS'alignment'
p24
a(lp25
S'currentVelocity'
p26
aS'currentVelocity'
p27
aS'alignment'
p28
aaS'POINT.*'
p29
a(lp30
S'separation'
p31
aaa(lp32
S'alignment'
p33
aaS'target'
p34
aS'randV'
p35
aS'cohesion'
p36
aS'POINT.-'
p37
a(lp38
S'POINT.*'
p39
aaaa(lp40
S'alignment'
p41
a(lp42
(lp43
S'target'
p44
aaS'POINT.*'
p45
aS'currentEnergy'
p46
a(lp47
S'POINT./'
p48
aaS'randV'
p49
aS'separation'
p50
a(lp51
S'alignment'
p52
aaa(lp53
S'randV'
p54
a(lp55
(lp56
S'POINT.*'
p57
aaS'cohesion'
p58
aaS'separation'
p59
aS'alignment'
p60
aaa(lp61
S'cohesion'
p62
aasS'accel_x'
p63
F0
sS'accel_y'
p64
F0
sS'visionAngle'
p65
I130
sS'maxAccel'
p66
I2
sS'maxVel'
p67
F0.72999999999999998
sS'age'
p68
I0
sS'lastScale'
p69
F5.5
sS'maxSteering'
p70
I20
sS'energy'
p71
F0.5
sb.(i__main__
Data_mobile
p1
(dp2
S'vel_y'
p3
F-0.31067263799322042
sS'vel_x'
p4
F0.51376855262392396
sS'pos_x'
p5
F-7.4354554876419812
sS'pos_y'
p6
F-46.820838112406747
sS'isAlive'
p7
I01
sS'geno'
p8
(lp9
S'POINT.*'
p10
a(lp11
S'POINT.-'
p12
aS'target'
p13
aa(lp14
S'POINT./'
p15
aS'POINT.-'
p16
aa(lp17
S'currentVelocity'
p18
aS'POINT./'
p19
a(lp20
(lp21
(lp22
S'cohesion'
p23
aaS'alignment'
p24
a(lp25
S'currentVelocity'
p26
aS'currentVelocity'
p27
aS'alignment'
p28
aaS'POINT.*'
p29
a(lp30
S'separation'
p31
aaa(lp32
S'alignment'
p33
aaS'target'
p34
aS'randV'
p35
aS'cohesion'
p36
aS'POINT.-'
p37
a(lp38
S'POINT.*'
p39
aaaa(lp40
S'alignment'
p41
a(lp42
(lp43
S'target'
p44
aaS'POINT.*'
p45
aS'currentEnergy'
p46
a(lp47
S'POINT./'
p48
aaS'randV'
p49
aS'separation'
p50
a(lp51
S'alignment'
p52
aaa(lp53
S'randV'
p54
a(lp55
(lp56
S'POINT.*'
p57
aaS'cohesion'
p58
aaS'separation'
p59
aS'alignment'
p60
aaa(lp61
S'cohesion'
p62
aasS'accel_x'
p63
F0
sS'accel_y'
p64
F0
sS'visionAngle'
p65
I130
sS'maxAccel'
p66
I2
sS'maxVel'
p67
F0.72999999999999998
sS'age'
p68
I0
sS'lastScale'
p69
F5.5
sS'maxSteering'
p70
I20
sS'energy'
p71
F0.5
sb.(i__main__
Data_mobile
p1
(dp2
S'vel_y'
p3
F0.099505174016610409
sS'vel_x'
p4
F0.022845478346805781
sS'pos_x'
p5
F25.362405120857378
sS'pos_y'
p6
F18.081148337965264
sS'isAlive'
p7
I01
sS'geno'
p8
(lp9
S'POINT.*'
p10
a(lp11
S'POINT.-'
p12
aS'target'
p13
aa(lp14
S'POINT./'
p15
aS'POINT.-'
p16
aa(lp17
S'currentVelocity'
p18
aS'POINT./'
p19
a(lp20
(lp21
(lp22
S'cohesion'
p23
aaS'alignment'
p24
a(lp25
S'currentVelocity'
p26
aS'currentVelocity'
p27
aS'alignment'
p28
aaS'POINT.*'
p29
a(lp30
S'separation'
p31
aaa(lp32
S'alignment'
p33
aaS'target'
p34
aS'randV'
p35
aS'cohesion'
p36
aS'POINT.-'
p37
a(lp38
S'POINT.*'
p39
aaaa(lp40
S'alignment'
p41
a(lp42
(lp43
S'target'
p44
aaS'POINT.*'
p45
aS'currentEnergy'
p46
a(lp47
S'POINT./'
p48
aaS'randV'
p49
aS'separation'
p50
a(lp51
S'alignment'
p52
aaa(lp53
S'randV'
p54
a(lp55
(lp56
S'POINT.*'
p57
aaS'cohesion'
p58
aaS'separation'
p59
aS'alignment'
p60
aaa(lp61
S'cohesion'
p62
aasS'accel_x'
p63
F0
sS'accel_y'
p64
F0
sS'visionAngle'
p65
I130
sS'maxAccel'
p66
I2
sS'maxVel'
p67
F0.72999999999999998
sS'age'
p68
I0
sS'lastScale'
p69
F5.5
sS'maxSteering'
p70
I20
sS'energy'
p71
F0.5
sb.(i__main__
Data_mobile
p1
(dp2
S'vel_y'
p3
F-0.027382621305101461
sS'vel_x'
p4
F-0.098141828270858628
sS'pos_x'
p5
F-107.42604598750358
sS'pos_y'
p6
F-45.352854359949781
sS'isAlive'
p7
I01
sS'geno'
p8
(lp9
S'POINT.*'
p10
a(lp11
S'POINT.-'
p12
aS'target'
p13
aa(lp14
S'POINT./'
p15
aS'POINT.-'
p16
aa(lp17
S'currentVelocity'
p18
aS'POINT./'
p19
a(lp20
(lp21
(lp22
S'cohesion'
p23
aaS'alignment'
p24
a(lp25
S'currentVelocity'
p26
aS'currentVelocity'
p27
aS'alignment'
p28
aaS'POINT.*'
p29
a(lp30
S'separation'
p31
aaa(lp32
S'alignment'
p33
aaS'target'
p34
aS'randV'
p35
aS'cohesion'
p36
aS'POINT.-'
p37
a(lp38
S'POINT.*'
p39
aaaa(lp40
S'alignment'
p41
a(lp42
(lp43
S'target'
p44
aaS'POINT.*'
p45
aS'currentEnergy'
p46
a(lp47
S'POINT./'
p48
aaS'randV'
p49
aS'separation'
p50
a(lp51
S'alignment'
p52
aaa(lp53
S'randV'
p54
a(lp55
(lp56
S'POINT.*'
p57
aaS'cohesion'
p58
aaS'separation'
p59
aS'alignment'
p60
aaa(lp61
S'cohesion'
p62
aasS'accel_x'
p63
F0
sS'accel_y'
p64
F0
sS'visionAngle'
p65
I130
sS'maxAccel'
p66
I2
sS'maxVel'
p67
F0.72999999999999998
sS'age'
p68
I0
sS'lastScale'
p69
F5.5
sS'maxSteering'
p70
I20
sS'energy'
p71
F0.5
sb.(i__main__
Data_mobile
p1
(dp2
S'vel_y'
p3
F-0.24568909159815724
sS'vel_x'
p4
F0.35861576452814325
sS'pos_x'
p5
F-63.656651268732872
sS'pos_y'
p6
F-45.927948373171667
sS'isAlive'
p7
I01
sS'geno'
p8
(lp9
S'POINT.*'
p10
a(lp11
S'POINT.-'
p12
aS'target'
p13
aa(lp14
S'POINT./'
p15
aS'POINT.-'
p16
aa(lp17
S'currentVelocity'
p18
aS'POINT./'
p19
a(lp20
(lp21
(lp22
S'cohesion'
p23
aaS'alignment'
p24
a(lp25
S'currentVelocity'
p26
aS'currentVelocity'
p27
aS'alignment'
p28
aaS'POINT.*'
p29
a(lp30
S'separation'
p31
aaa(lp32
S'alignment'
p33
aaS'target'
p34
aS'randV'
p35
aS'cohesion'
p36
aS'POINT.-'
p37
a(lp38
S'POINT.*'
p39
aaaa(lp40
S'alignment'
p41
a(lp42
(lp43
S'target'
p44
aaS'POINT.*'
p45
aS'currentEnergy'
p46
a(lp47
S'POINT./'
p48
aaS'randV'
p49
aS'separation'
p50
a(lp51
S'alignment'
p52
aaa(lp53
S'randV'
p54
a(lp55
(lp56
S'POINT.*'
p57
aaS'cohesion'
p58
aaS'separation'
p59
aS'alignment'
p60
aaa(lp61
S'cohesion'
p62
aasS'accel_x'
p63
F0
sS'accel_y'
p64
F0
sS'visionAngle'
p65
I130
sS'maxAccel'
p66
I2
sS'maxVel'
p67
F0.72999999999999998
sS'age'
p68
I0
sS'lastScale'
p69
F5.5
sS'maxSteering'
p70
I20
sS'energy'
p71
F0.5
sb.(i__main__
Data_mobile
p1
(dp2
S'vel_y'
p3
F-0.032818128997913538
sS'vel_x'
p4
F-0.093745017167778055
sS'pos_x'
p5
F-107.39719296205702
sS'pos_y'
p6
F-45.33226544935674
sS'isAlive'
p7
I01
sS'geno'
p8
(lp9
S'POINT.*'
p10
a(lp11
S'POINT.-'
p12
aS'target'
p13
aa(lp14
S'POINT./'
p15
aS'POINT.-'
p16
aa(lp17
S'currentVelocity'
p18
aS'POINT./'
p19
a(lp20
(lp21
(lp22
S'cohesion'
p23
aaS'alignment'
p24
a(lp25
S'currentVelocity'
p26
aS'currentVelocity'
p27
aS'alignment'
p28
aaS'POINT.*'
p29
a(lp30
S'separation'
p31
aaa(lp32
S'alignment'
p33
aaS'target'
p34
aS'randV'
p35
aS'cohesion'
p36
aS'POINT.-'
p37
a(lp38
S'POINT.*'
p39
aaaa(lp40
S'alignment'
p41
aS'POINT.-'
p42
a(lp43
S'randV'
p44
a(lp45
(lp46
S'POINT.*'
p47
aaS'cohesion'
p48
aaS'separation'
p49
aS'alignment'
p50
aaa(lp51
S'cohesion'
p52
aasS'accel_x'
p53
F0
sS'accel_y'
p54
F0
sS'visionAngle'
p55
I130
sS'maxAccel'
p56
I2
sS'maxVel'
p57
F0.72999999999999998
sS'age'
p58
I0
sS'lastScale'
p59
F5.5
sS'maxSteering'
p60
I20
sS'energy'
p61
F0.5
sb.(i__main__
Data_mobile
p1
(dp2
S'vel_y'
p3
F-0.28512598477256634
sS'vel_x'
p4
F0.45107342112492671
sS'pos_x'
p5
F46.622351120741023
sS'pos_y'
p6
F-47.678778080001592
sS'isAlive'
p7
I01
sS'geno'
p8
(lp9
S'POINT.*'
p10
a(lp11
S'POINT.-'
p12
aS'target'
p13
aa(lp14
S'POINT./'
p15
aS'POINT.-'
p16
aa(lp17
S'currentVelocity'
p18
aS'POINT./'
p19
a(lp20
(lp21
(lp22
S'cohesion'
p23
aaS'alignment'
p24
a(lp25
S'currentVelocity'
p26
aS'currentVelocity'
p27
aS'alignment'
p28
aaS'POINT.*'
p29
a(lp30
S'separation'
p31
aaa(lp32
S'alignment'
p33
aaS'target'
p34
aS'randV'
p35
aS'cohesion'
p36
aS'POINT.-'
p37
a(lp38
S'POINT.*'
p39
aaaa(lp40
S'alignment'
p41
a(lp42
(lp43
S'target'
p44
aaS'POINT.*'
p45
aS'currentEnergy'
p46
a(lp47
S'POINT./'
p48
aaS'randV'
p49
aS'separation'
p50
a(lp51
S'alignment'
p52
aaa(lp53
S'randV'
p54
a(lp55
(lp56
S'POINT.*'
p57
aaS'cohesion'
p58
aaS'separation'
p59
aS'alignment'
p60
aaa(lp61
S'cohesion'
p62
aasS'accel_x'
p63
F0
sS'accel_y'
p64
F0
sS'visionAngle'
p65
I130
sS'maxAccel'
p66
I2
sS'maxVel'
p67
F0.72999999999999998
sS'age'
p68
I0
sS'lastScale'
p69
F5.5
sS'maxSteering'
p70
I20
sS'energy'
p71
F0.5
sb.(i__main__
Data_mobile
p1
(dp2
S'vel_y'
p3
F-0.30819656456562722
sS'vel_x'
p4
F0.50667188206517444
sS'pos_x'
p5
F133.44215846538043
sS'pos_y'
p6
F-49.058018316278002
sS'isAlive'
p7
I01
sS'geno'
p8
(lp9
S'POINT.*'
p10
a(lp11
S'POINT.-'
p12
aS'target'
p13
aa(lp14
S'POINT./'
p15
aS'POINT.-'
p16
aa(lp17
S'currentVelocity'
p18
aS'POINT./'
p19
a(lp20
(lp21
(lp22
S'cohesion'
p23
aaS'alignment'
p24
a(lp25
S'currentVelocity'
p26
aS'currentVelocity'
p27
aS'alignment'
p28
aaS'POINT.*'
p29
a(lp30
S'separation'
p31
aaa(lp32
S'alignment'
p33
aaS'target'
p34
aS'randV'
p35
aS'cohesion'
p36
aS'POINT.-'
p37
a(lp38
S'POINT.*'
p39
aaaa(lp40
S'alignment'
p41
a(lp42
(lp43
S'target'
p44
aaS'POINT.*'
p45
aS'currentEnergy'
p46
a(lp47
S'POINT./'
p48
aaS'randV'
p49
aS'separation'
p50
a(lp51
S'alignment'
p52
aaa(lp53
S'randV'
p54
a(lp55
(lp56
S'POINT.*'
p57
aaS'cohesion'
p58
aaS'separation'
p59
aS'alignment'
p60
aaa(lp61
S'cohesion'
p62
aasS'accel_x'
p63
F0
sS'accel_y'
p64
F0
sS'visionAngle'
p65
I130
sS'maxAccel'
p66
I2
sS'maxVel'
p67
F0.72999999999999998
sS'age'
p68
I0
sS'lastScale'
p69
F5.5
sS'maxSteering'
p70
I20
sS'energy'
p71
F0.5
sb.(i__main__
Data_mobile
p1
(dp2
S'vel_y'
p3
F-0.14781614860363407
sS'vel_x'
p4
F0.57178239006561216
sS'pos_x'
p5
F-64.431518288550919
sS'pos_y'
p6
F-18.542296932446504
sS'isAlive'
p7
I01
sS'geno'
p8
(lp9
S'POINT.*'
p10
a(lp11
S'POINT.-'
p12
aS'target'
p13
aa(lp14
S'POINT./'
p15
aS'POINT.-'
p16
aa(lp17
S'currentVelocity'
p18
aS'POINT./'
p19
a(lp20
(lp21
(lp22
S'cohesion'
p23
aaS'alignment'
p24
a(lp25
S'currentVelocity'
p26
aS'currentVelocity'
p27
aS'alignment'
p28
aaS'POINT.*'
p29
a(lp30
S'separation'
p31
aaa(lp32
S'alignment'
p33
aaS'target'
p34
aS'randV'
p35
aS'cohesion'
p36
aS'POINT.-'
p37
a(lp38
S'POINT.*'
p39
aaaa(lp40
S'alignment'
p41
a(lp42
(lp43
S'target'
p44
aaS'POINT.*'
p45
aS'currentEnergy'
p46
a(lp47
S'POINT./'
p48
aaS'randV'
p49
aS'separation'
p50
a(lp51
S'alignment'
p52
aaa(lp53
S'randV'
p54
a(lp55
(lp56
S'POINT.*'
p57
aaS'cohesion'
p58
aaS'separation'
p59
aS'alignment'
p60
aaa(lp61
S'cohesion'
p62
aasS'accel_x'
p63
F0
sS'accel_y'
p64
F0
sS'visionAngle'
p65
I130
sS'maxAccel'
p66
I2
sS'maxVel'
p67
F0.72999999999999998
sS'age'
p68
I0
sS'lastScale'
p69
F5.5
sS'maxSteering'
p70
I20
sS'energy'
p71
F0.5
sb.(i__main__
Data_mobile
p1
(dp2
S'vel_y'
p3
F-0.1867791214186767
sS'vel_x'
p4
F-0.37029946488235943
sS'pos_x'
p5
F127.58829496212024
sS'pos_y'
p6
F16.931509254088564
sS'isAlive'
p7
I01
sS'geno'
p8
(lp9
S'POINT.*'
p10
a(lp11
S'POINT.-'
p12
aS'target'
p13
aa(lp14
S'POINT./'
p15
aS'POINT.-'
p16
aa(lp17
S'currentVelocity'
p18
aS'POINT./'
p19
a(lp20
(lp21
(lp22
S'cohesion'
p23
aaS'alignment'
p24
a(lp25
S'currentVelocity'
p26
aS'currentVelocity'
p27
aS'alignment'
p28
aaS'POINT.*'
p29
a(lp30
S'separation'
p31
aaa(lp32
S'alignment'
p33
aaS'target'
p34
aS'randV'
p35
aS'cohesion'
p36
aS'POINT.-'
p37
a(lp38
S'POINT.*'
p39
aaaaS'POINT./'
p40
a(lp41
S'cohesion'
p42
aasS'accel_x'
p43
F0
sS'accel_y'
p44
F0
sS'visionAngle'
p45
I130
sS'maxAccel'
p46
I2
sS'maxVel'
p47
F0.72999999999999998
sS'age'
p48
I0
sS'lastScale'
p49
F5.5
sS'maxSteering'
p50
I20
sS'energy'
p51
F0.5
sb.(i__main__
Data_mobile
p1
(dp2
S'vel_y'
p3
F-0.15806265354250693
sS'vel_x'
p4
F0.69881264186160719
sS'pos_x'
p5
F-15.331834496116425
sS'pos_y'
p6
F11.886247411524835
sS'isAlive'
p7
I01
sS'geno'
p8
(lp9
S'POINT.*'
p10
a(lp11
S'POINT.-'
p12
aS'target'
p13
aa(lp14
S'POINT./'
p15
aS'POINT.-'
p16
aa(lp17
S'currentVelocity'
p18
aS'POINT./'
p19
a(lp20
(lp21
(lp22
S'cohesion'
p23
aaS'alignment'
p24
a(lp25
S'currentVelocity'
p26
aS'currentVelocity'
p27
aS'alignment'
p28
aaS'POINT.*'
p29
a(lp30
S'separation'
p31
aaa(lp32
S'alignment'
p33
aaS'target'
p34
aS'randV'
p35
aS'cohesion'
p36
aS'POINT.-'
p37
a(lp38
S'POINT.*'
p39
aaaa(lp40
S'alignment'
p41
a(lp42
(lp43
S'target'
p44
aaS'POINT.*'
p45
aS'currentEnergy'
p46
a(lp47
S'POINT./'
p48
aaS'randV'
p49
aS'separation'
p50
a(lp51
S'alignment'
p52
aaa(lp53
S'randV'
p54
a(lp55
(lp56
S'POINT.*'
p57
aaS'cohesion'
p58
aaS'separation'
p59
aS'alignment'
p60
aaa(lp61
S'cohesion'
p62
aasS'accel_x'
p63
F0
sS'accel_y'
p64
F0
sS'visionAngle'
p65
I130
sS'maxAccel'
p66
I2
sS'maxVel'
p67
F0.72999999999999998
sS'age'
p68
I0
sS'lastScale'
p69
F5.5
sS'maxSteering'
p70
I20
sS'energy'
p71
F0.5
sb.(i__main__
Data_mobile
p1
(dp2
S'vel_y'
p3
F-0.44960646492076461
sS'vel_x'
p4
F0.50389409283438003
sS'pos_x'
p5
F-35.14942688310439
sS'pos_y'
p6
F5.6093772049963864
sS'isAlive'
p7
I01
sS'geno'
p8
(lp9
S'POINT.*'
p10
a(lp11
S'POINT.-'
p12
aS'target'
p13
aa(lp14
S'POINT./'
p15
aS'POINT.-'
p16
aa(lp17
S'currentVelocity'
p18
aS'POINT./'
p19
a(lp20
(lp21
(lp22
S'cohesion'
p23
aaS'alignment'
p24
a(lp25
S'currentVelocity'
p26
aS'currentVelocity'
p27
aS'alignment'
p28
aaS'POINT.*'
p29
a(lp30
S'separation'
p31
aaa(lp32
S'alignment'
p33
aaS'target'
p34
aS'randV'
p35
aS'cohesion'
p36
aS'POINT.-'
p37
a(lp38
S'POINT.*'
p39
aaaa(lp40
S'alignment'
p41
a(lp42
(lp43
S'target'
p44
aaS'POINT.*'
p45
aS'currentEnergy'
p46
a(lp47
S'POINT./'
p48
aaS'randV'
p49
aS'separation'
p50
a(lp51
S'alignment'
p52
aaa(lp53
S'randV'
p54
a(lp55
(lp56
S'POINT.*'
p57
aaS'cohesion'
p58
aaS'separation'
p59
aS'alignment'
p60
aaa(lp61
S'cohesion'
p62
aasS'accel_x'
p63
F0
sS'accel_y'
p64
F0
sS'visionAngle'
p65
I130
sS'maxAccel'
p66
I2
sS'maxVel'
p67
F0.72999999999999998
sS'age'
p68
I0
sS'lastScale'
p69
F5.5
sS'maxSteering'
p70
I20
sS'energy'
p71
F0.5
sb.(i__main__
Data_mobile
p1
(dp2
S'vel_y'
p3
F-0.29535450053899204
sS'vel_x'
p4
F0.6146492926983439
sS'pos_x'
p5
F-7.6029255482717302
sS'pos_y'
p6
F17.163368466575882
sS'isAlive'
p7
I01
sS'geno'
p8
(lp9
S'POINT.*'
p10
a(lp11
S'POINT.-'
p12
aS'target'
p13
aa(lp14
S'POINT./'
p15
aS'POINT.-'
p16
aa(lp17
S'currentVelocity'
p18
aS'POINT./'
p19
a(lp20
(lp21
(lp22
S'cohesion'
p23
aaS'alignment'
p24
a(lp25
S'currentVelocity'
p26
aS'currentVelocity'
p27
aS'alignment'
p28
aaS'POINT.*'
p29
a(lp30
S'separation'
p31
aaa(lp32
S'alignment'
p33
aaS'target'
p34
aS'randV'
p35
aS'cohesion'
p36
aS'POINT.-'
p37
a(lp38
S'POINT.*'
p39
aaaa(lp40
S'alignment'
p41
a(lp42
(lp43
S'target'
p44
aaS'POINT.*'
p45
aS'currentEnergy'
p46
a(lp47
S'POINT./'
p48
aaS'randV'
p49
aS'separation'
p50
a(lp51
S'alignment'
p52
aaa(lp53
S'randV'
p54
a(lp55
(lp56
S'POINT.*'
p57
aaS'cohesion'
p58
aaS'separation'
p59
aS'alignment'
p60
aaa(lp61
S'cohesion'
p62
aasS'accel_x'
p63
F0
sS'accel_y'
p64
F0
sS'visionAngle'
p65
I130
sS'maxAccel'
p66
I2
sS'maxVel'
p67
F0.72999999999999998
sS'age'
p68
I0
sS'lastScale'
p69
F5.5
sS'maxSteering'
p70
I20
sS'energy'
p71
F0.5
sb.(i__main__
Data_mobile
p1
(dp2
S'vel_y'
p3
F-0.32997546401656869
sS'vel_x'
p4
F0.64545414206274443
sS'pos_x'
p5
F76.941007184237904
sS'pos_y'
p6
F-12.052576883859562
sS'isAlive'
p7
I01
sS'geno'
p8
(lp9
S'POINT.*'
p10
a(lp11
S'POINT.-'
p12
aS'target'
p13
aa(lp14
S'POINT./'
p15
aS'POINT.-'
p16
aa(lp17
S'currentVelocity'
p18
aS'POINT./'
p19
a(lp20
(lp21
(lp22
S'cohesion'
p23
aaS'alignment'
p24
a(lp25
S'currentVelocity'
p26
aS'currentVelocity'
p27
aS'alignment'
p28
aaS'POINT.*'
p29
a(lp30
S'separation'
p31
aaa(lp32
S'alignment'
p33
aaS'target'
p34
aS'randV'
p35
aS'cohesion'
p36
aS'POINT.-'
p37
a(lp38
S'POINT.*'
p39
aaaa(lp40
S'alignment'
p41
a(lp42
(lp43
S'target'
p44
aaS'POINT.*'
p45
aS'currentEnergy'
p46
a(lp47
S'POINT./'
p48
aaS'randV'
p49
aS'separation'
p50
a(lp51
S'alignment'
p52
aaa(lp53
S'randV'
p54
a(lp55
(lp56
S'POINT.*'
p57
aaS'cohesion'
p58
aaS'separation'
p59
aS'alignment'
p60
aaa(lp61
S'cohesion'
p62
aasS'accel_x'
p63
F0
sS'accel_y'
p64
F0
sS'visionAngle'
p65
I130
sS'maxAccel'
p66
I2
sS'maxVel'
p67
F0.72999999999999998
sS'age'
p68
I0
sS'lastScale'
p69
F5.5
sS'maxSteering'
p70
I20
sS'energy'
p71
F0.5
sb.(i__main__
Data_mobile
p1
(dp2
S'vel_y'
p3
F0.013939757185033458
sS'vel_x'
p4
F0.31840471915136959
sS'pos_x'
p5
F55.111473470038874
sS'pos_y'
p6
F20.316669531525768
sS'isAlive'
p7
I01
sS'geno'
p8
(lp9
S'POINT.*'
p10
a(lp11
S'POINT.-'
p12
aS'target'
p13
aa(lp14
S'POINT./'
p15
aS'POINT.-'
p16
aa(lp17
S'currentVelocity'
p18
aS'POINT./'
p19
a(lp20
S'alignment'
p21
a(lp22
S'alignment'
p23
aaS'target'
p24
aS'randV'
p25
aS'cohesion'
p26
aS'POINT.-'
p27
a(lp28
S'POINT.*'
p29
aaaa(lp30
S'alignment'
p31
a(lp32
(lp33
S'target'
p34
aaS'POINT.*'
p35
aS'currentEnergy'
p36
a(lp37
S'POINT./'
p38
aaS'randV'
p39
aS'separation'
p40
a(lp41
S'alignment'
p42
aaa(lp43
S'randV'
p44
a(lp45
(lp46
S'POINT.*'
p47
aaS'cohesion'
p48
aaS'separation'
p49
aS'alignment'
p50
aaa(lp51
S'cohesion'
p52
aasS'accel_x'
p53
F0
sS'accel_y'
p54
F0
sS'visionAngle'
p55
I130
sS'maxAccel'
p56
I2
sS'maxVel'
p57
F0.72999999999999998
sS'age'
p58
I0
sS'lastScale'
p59
F5.5
sS'maxSteering'
p60
I20
sS'energy'
p61
F0.5
sb.(i__main__
Data_mobile
p1
(dp2
S'vel_y'
p3
F-0.28372106225527388
sS'vel_x'
p4
F0.66185969128648836
sS'pos_x'
p5
F151.39622587301636
sS'pos_y'
p6
F-39.912279261056149
sS'isAlive'
p7
I01
sS'geno'
p8
(lp9
S'POINT.*'
p10
a(lp11
S'POINT.-'
p12
aS'target'
p13
aa(lp14
S'POINT./'
p15
aS'POINT.-'
p16
aa(lp17
S'currentVelocity'
p18
aS'POINT./'
p19
a(lp20
(lp21
(lp22
S'cohesion'
p23
aaS'alignment'
p24
a(lp25
S'currentVelocity'
p26
aS'currentVelocity'
p27
aS'alignment'
p28
aaS'POINT.*'
p29
a(lp30
S'separation'
p31
aaa(lp32
S'alignment'
p33
aaS'target'
p34
aS'randV'
p35
aS'cohesion'
p36
aS'POINT.-'
p37
a(lp38
S'POINT.*'
p39
aaaa(lp40
S'alignment'
p41
a(lp42
(lp43
S'target'
p44
aaS'POINT.*'
p45
aS'currentEnergy'
p46
a(lp47
S'POINT./'
p48
aaS'randV'
p49
aS'separation'
p50
a(lp51
S'alignment'
p52
aaa(lp53
S'randV'
p54
a(lp55
(lp56
S'POINT.*'
p57
aaS'cohesion'
p58
aaS'separation'
p59
aS'alignment'
p60
aaa(lp61
S'cohesion'
p62
aasS'accel_x'
p63
F0
sS'accel_y'
p64
F0
sS'visionAngle'
p65
I130
sS'maxAccel'
p66
I2
sS'maxVel'
p67
F0.72999999999999998
sS'age'
p68
I0
sS'lastScale'
p69
F5.5
sS'maxSteering'
p70
I20
sS'energy'
p71
F0.5
sb.(i__main__
Data_mobile
p1
(dp2
S'vel_y'
p3
F-0.096725440035007271
sS'vel_x'
p4
F0.098695112937299476
sS'pos_x'
p5
F-69.864918727854075
sS'pos_y'
p6
F-30.726091390471513
sS'isAlive'
p7
I01
sS'geno'
p8
(lp9
S'POINT.*'
p10
a(lp11
S'POINT.-'
p12
aS'target'
p13
aa(lp14
S'POINT./'
p15
aS'POINT.-'
p16
aa(lp17
S'currentVelocity'
p18
aS'POINT./'
p19
a(lp20
(lp21
(lp22
S'cohesion'
p23
aaS'alignment'
p24
a(lp25
S'currentVelocity'
p26
aS'currentVelocity'
p27
aS'alignment'
p28
aaS'POINT.*'
p29
a(lp30
S'separation'
p31
aaa(lp32
S'alignment'
p33
aaS'target'
p34
aS'randV'
p35
aS'cohesion'
p36
aS'POINT.-'
p37
a(lp38
S'POINT.*'
p39
aaaa(lp40
S'alignment'
p41
a(lp42
(lp43
S'target'
p44
aaS'POINT.*'
p45
aS'currentEnergy'
p46
a(lp47
S'POINT./'
p48
aaS'randV'
p49
aS'separation'
p50
a(lp51
S'alignment'
p52
aaa(lp53
S'randV'
p54
a(lp55
(lp56
S'POINT.*'
p57
aaS'cohesion'
p58
aaS'separation'
p59
aS'alignment'
p60
aaa(lp61
S'cohesion'
p62
aasS'accel_x'
p63
F0
sS'accel_y'
p64
F0
sS'visionAngle'
p65
I130
sS'maxAccel'
p66
I2
sS'maxVel'
p67
F0.72999999999999998
sS'age'
p68
I0
sS'lastScale'
p69
F5.5
sS'maxSteering'
p70
I20
sS'energy'
p71
F0.5
sb.(i__main__
Data_mobile
p1
(dp2
S'vel_y'
p3
F-0.20868484430722337
sS'vel_x'
p4
F-0.24411316546421444
sS'pos_x'
p5
F90.017422066917391
sS'pos_y'
p6
F66.916010001608754
sS'isAlive'
p7
I01
sS'geno'
p8
(lp9
S'POINT.*'
p10
a(lp11
S'POINT.-'
p12
aS'target'
p13
aa(lp14
S'POINT./'
p15
aS'POINT.-'
p16
aa(lp17
S'currentVelocity'
p18
aS'POINT./'
p19
a(lp20
(lp21
(lp22
S'cohesion'
p23
aaS'alignment'
p24
a(lp25
S'currentVelocity'
p26
aS'currentVelocity'
p27
aS'alignment'
p28
aaS'POINT.*'
p29
a(lp30
S'separation'
p31
aaa(lp32
S'alignment'
p33
aaS'target'
p34
aS'randV'
p35
aS'cohesion'
p36
aS'POINT.-'
p37
a(lp38
S'POINT.*'
p39
aaaa(lp40
S'alignment'
p41
a(lp42
(lp43
S'target'
p44
aaS'POINT.*'
p45
aS'currentEnergy'
p46
a(lp47
S'POINT./'
p48
aaS'randV'
p49
aS'separation'
p50
a(lp51
S'alignment'
p52
aaa(lp53
S'randV'
p54
a(lp55
(lp56
S'POINT.*'
p57
aaS'cohesion'
p58
aaS'separation'
p59
aS'alignment'
p60
aaa(lp61
S'cohesion'
p62
aasS'accel_x'
p63
F0
sS'accel_y'
p64
F0
sS'visionAngle'
p65
I130
sS'maxAccel'
p66
I2
sS'maxVel'
p67
F0.72999999999999998
sS'age'
p68
I0
sS'lastScale'
p69
F5.5
sS'maxSteering'
p70
I20
sS'energy'
p71
F0.5
sb.(i__main__
Data_mobile
p1
(dp2
S'vel_y'
p3
F0.36207374525807173
sS'vel_x'
p4
F0.089417882862983328
sS'pos_x'
p5
F48.239811672303965
sS'pos_y'
p6
F-46.036787733049202
sS'isAlive'
p7
I01
sS'geno'
p8
(lp9
S'POINT.*'
p10
a(lp11
S'POINT.-'
p12
aS'target'
p13
aa(lp14
S'POINT./'
p15
aS'POINT.-'
p16
aa(lp17
S'currentVelocity'
p18
aS'POINT./'
p19
a(lp20
(lp21
(lp22
S'cohesion'
p23
aaS'alignment'
p24
a(lp25
S'currentVelocity'
p26
aS'currentVelocity'
p27
aS'alignment'
p28
aaS'POINT.*'
p29
a(lp30
S'separation'
p31
aaa(lp32
S'alignment'
p33
aaS'target'
p34
aS'randV'
p35
aS'cohesion'
p36
aS'POINT.-'
p37
a(lp38
S'POINT.*'
p39
aaaa(lp40
S'alignment'
p41
a(lp42
(lp43
S'target'
p44
aaS'POINT.*'
p45
aS'currentEnergy'
p46
a(lp47
S'POINT./'
p48
aaS'randV'
p49
aS'separation'
p50
a(lp51
S'alignment'
p52
aaa(lp53
S'randV'
p54
a(lp55
(lp56
S'POINT.*'
p57
aaS'cohesion'
p58
aaS'separation'
p59
aS'alignment'
p60
aaa(lp61
S'cohesion'
p62
aasS'accel_x'
p63
F0
sS'accel_y'
p64
F0
sS'visionAngle'
p65
I130
sS'maxAccel'
p66
I2
sS'maxVel'
p67
F0.72999999999999998
sS'age'
p68
I50
sS'lastScale'
p69
F5.5
sS'maxSteering'
p70
I20
sS'energy'
p71
I0
sb.(i__main__
Data_mobile
p1
(dp2
S'vel_y'
p3
F0.078831428855269114
sS'vel_x'
p4
F0.66591560234937919
sS'pos_x'
p5
F83.361709315763349
sS'pos_y'
p6
F-66.810041304317394
sS'isAlive'
p7
I01
sS'geno'
p8
(lp9
S'POINT.*'
p10
a(lp11
S'POINT.-'
p12
aS'target'
p13
aa(lp14
S'POINT./'
p15
aS'POINT.-'
p16
aa(lp17
S'currentVelocity'
p18
aS'POINT./'
p19
a(lp20
(lp21
(lp22
S'cohesion'
p23
aaS'alignment'
p24
a(lp25
S'currentVelocity'
p26
aS'currentVelocity'
p27
aS'alignment'
p28
aaS'POINT.*'
p29
a(lp30
S'separation'
p31
aaa(lp32
S'alignment'
p33
aaS'target'
p34
aS'randV'
p35
aS'cohesion'
p36
aS'POINT.-'
p37
a(lp38
S'POINT.*'
p39
aaaa(lp40
S'alignment'
p41
a(lp42
(lp43
S'target'
p44
aaS'POINT.*'
p45
aS'currentEnergy'
p46
a(lp47
S'POINT./'
p48
aaS'randV'
p49
aS'separation'
p50
a(lp51
S'alignment'
p52
aaa(lp53
S'randV'
p54
a(lp55
(lp56
S'POINT.*'
p57
aaS'cohesion'
p58
aaS'separation'
p59
aS'alignment'
p60
aaa(lp61
S'cohesion'
p62
aasS'accel_x'
p63
F0
sS'accel_y'
p64
F0
sS'visionAngle'
p65
I130
sS'maxAccel'
p66
I2
sS'maxVel'
p67
F0.72999999999999998
sS'age'
p68
I50
sS'lastScale'
p69
F5.5
sS'maxSteering'
p70
I20
sS'energy'
p71
I0
sb.(i__main__
Data_mobile
p1
(dp2
S'vel_y'
p3
F0.65322699031066866
sS'vel_x'
p4
F0.32587497469070198
sS'pos_x'
p5
F-4.0090979077355851
sS'pos_y'
p6
F46.359295123693926
sS'isAlive'
p7
I01
sS'geno'
p8
(lp9
S'POINT.*'
p10
a(lp11
S'POINT.-'
p12
aS'target'
p13
aa(lp14
S'POINT./'
p15
aS'POINT.-'
p16
aa(lp17
S'currentVelocity'
p18
aS'POINT./'
p19
a(lp20
(lp21
(lp22
S'cohesion'
p23
aaS'alignment'
p24
a(lp25
S'currentVelocity'
p26
aS'currentVelocity'
p27
aS'alignment'
p28
aaS'POINT.*'
p29
a(lp30
S'separation'
p31
aaa(lp32
S'alignment'
p33
aaS'target'
p34
aS'randV'
p35
aS'cohesion'
p36
aS'POINT.-'
p37
a(lp38
S'POINT.*'
p39
aaaa(lp40
S'randV'
p41
a(lp42
(lp43
S'POINT.*'
p44
aaS'cohesion'
p45
aaS'separation'
p46
aS'alignment'
p47
aa(lp48
S'cohesion'
p49
aasS'accel_x'
p50
F0.35046255115090841
sS'accel_y'
p51
F1.9690545955459937
sS'visionAngle'
p52
I130
sS'maxAccel'
p53
I2
sS'maxVel'
p54
F0.72999999999999998
sS'age'
p55
I50
sS'lastScale'
p56
F5.5
sS'maxSteering'
p57
I20
sS'energy'
p58
I0
sb.(i__main__
Data_mobile
p1
(dp2
S'vel_y'
p3
F-0.043242919526392087
sS'vel_x'
p4
F0.7164571714027862
sS'pos_x'
p5
F58.273284906674284
sS'pos_y'
p6
F-77.755073178381821
sS'isAlive'
p7
I01
sS'geno'
p8
(lp9
S'POINT.*'
p10
a(lp11
S'POINT.-'
p12
aS'target'
p13
aa(lp14
S'POINT./'
p15
aS'POINT.-'
p16
aa(lp17
S'currentVelocity'
p18
aS'POINT./'
p19
a(lp20
(lp21
(lp22
S'cohesion'
p23
aaS'alignment'
p24
a(lp25
S'currentVelocity'
p26
aS'currentVelocity'
p27
aS'alignment'
p28
aaS'POINT.*'
p29
a(lp30
S'separation'
p31
aaa(lp32
S'alignment'
p33
aaS'target'
p34
aS'randV'
p35
aS'cohesion'
p36
aS'POINT.-'
p37
a(lp38
S'POINT.*'
p39
aaaa(lp40
S'alignment'
p41
a(lp42
(lp43
S'target'
p44
aaS'POINT.*'
p45
aS'currentEnergy'
p46
a(lp47
S'POINT./'
p48
aaS'randV'
p49
aS'separation'
p50
a(lp51
S'alignment'
p52
aaa(lp53
S'randV'
p54
a(lp55
(lp56
S'POINT.*'
p57
aaS'cohesion'
p58
aaS'separation'
p59
aS'alignment'
p60
aaa(lp61
S'cohesion'
p62
aasS'accel_x'
p63
F0
sS'accel_y'
p64
F0
sS'visionAngle'
p65
I130
sS'maxAccel'
p66
I2
sS'maxVel'
p67
F0.72999999999999998
sS'age'
p68
I50
sS'lastScale'
p69
F5.5
sS'maxSteering'
p70
I20
sS'energy'
p71
I0
sb.(i__main__
Data_mobile
p1
(dp2
S'vel_y'
p3
F0.064241074164166814
sS'vel_x'
p4
F-0.72716785159290009
sS'pos_x'
p5
F-55.380072027114721
sS'pos_y'
p6
F-5.7991372850164931
sS'isAlive'
p7
I01
sS'geno'
p8
(lp9
S'POINT.*'
p10
a(lp11
S'POINT.-'
p12
aS'target'
p13
aa(lp14
S'POINT./'
p15
aS'POINT.-'
p16
aa(lp17
S'currentVelocity'
p18
aS'POINT./'
p19
a(lp20
S'target'
p21
aaa(lp22
S'alignment'
p23
a(lp24
(lp25
S'target'
p26
aaS'POINT.*'
p27
aS'currentEnergy'
p28
a(lp29
S'POINT./'
p30
aaS'randV'
p31
aS'separation'
p32
a(lp33
S'alignment'
p34
aaa(lp35
S'randV'
p36
a(lp37
(lp38
S'POINT.*'
p39
aaS'cohesion'
p40
aaS'separation'
p41
aS'alignment'
p42
aaa(lp43
S'cohesion'
p44
aasS'accel_x'
p45
F-1.9997759294364388
sS'accel_y'
p46
F0.02993713491012288
sS'visionAngle'
p47
I130
sS'maxAccel'
p48
I2
sS'maxVel'
p49
F0.72999999999999998
sS'age'
p50
I50
sS'lastScale'
p51
F5.5
sS'maxSteering'
p52
I20
sS'energy'
p53
I0
sb.(i__main__
Data_mobile
p1
(dp2
S'vel_y'
p3
F-0.71066100058388015
sS'vel_x'
p4
F-0.16691597361881888
sS'pos_x'
p5
F-2.6108839404253832
sS'pos_y'
p6
F-54.171742360833413
sS'isAlive'
p7
I01
sS'geno'
p8
(lp9
S'POINT.*'
p10
a(lp11
S'POINT.-'
p12
aS'target'
p13
aa(lp14
S'POINT./'
p15
aS'POINT.-'
p16
aa(lp17
S'currentVelocity'
p18
aS'POINT./'
p19
aS'cohesion'
p20
aa(lp21
S'alignment'
p22
a(lp23
(lp24
S'target'
p25
aaS'POINT.*'
p26
aS'currentEnergy'
p27
a(lp28
S'POINT./'
p29
aaS'randV'
p30
aS'separation'
p31
a(lp32
S'alignment'
p33
aaa(lp34
S'randV'
p35
a(lp36
(lp37
S'POINT.*'
p38
aaS'cohesion'
p39
aaS'separation'
p40
aS'alignment'
p41
aaa(lp42
S'cohesion'
p43
aasS'accel_x'
p44
F0
sS'accel_y'
p45
F0
sS'visionAngle'
p46
I130
sS'maxAccel'
p47
I2
sS'maxVel'
p48
F0.72999999999999998
sS'age'
p49
I50
sS'lastScale'
p50
F5.5
sS'maxSteering'
p51
I20
sS'energy'
p52
I0
sb.(i__main__
Data_mobile
p1
(dp2
S'vel_y'
p3
F0.66216384011719198
sS'vel_x'
p4
F0.30730936992101915
sS'pos_x'
p5
F-99.98913611424021
sS'pos_y'
p6
F0.10571231522568654
sS'isAlive'
p7
I01
sS'geno'
p8
(lp9
S'POINT.*'
p10
a(lp11
S'POINT.-'
p12
aS'target'
p13
aa(lp14
S'POINT./'
p15
aS'POINT.-'
p16
aa(lp17
S'currentVelocity'
p18
aS'POINT./'
p19
a(lp20
(lp21
(lp22
S'cohesion'
p23
aaS'alignment'
p24
a(lp25
S'currentVelocity'
p26
aS'currentVelocity'
p27
aS'alignment'
p28
aaS'POINT.*'
p29
a(lp30
S'separation'
p31
aaa(lp32
S'alignment'
p33
aaS'target'
p34
aS'randV'
p35
aS'cohesion'
p36
aS'POINT.-'
p37
a(lp38
S'POINT.*'
p39
aaaa(lp40
S'alignment'
p41
a(lp42
(lp43
S'target'
p44
aaS'POINT.*'
p45
aS'currentEnergy'
p46
a(lp47
S'POINT./'
p48
aaS'randV'
p49
aS'separation'
p50
a(lp51
S'alignment'
p52
aaa(lp53
S'randV'
p54
a(lp55
(lp56
S'POINT.*'
p57
aaS'cohesion'
p58
aaS'separation'
p59
aS'alignment'
p60
aaa(lp61
S'cohesion'
p62
aasS'accel_x'
p63
F0
sS'accel_y'
p64
F0
sS'visionAngle'
p65
I130
sS'maxAccel'
p66
I2
sS'maxVel'
p67
F0.72999999999999998
sS'age'
p68
I50
sS'lastScale'
p69
F5.5
sS'maxSteering'
p70
I20
sS'energy'
p71
I0
sb.(i__main__
Data_mobile
p1
(dp2
S'vel_y'
p3
I0
sS'vel_x'
p4
I0
sS'pos_x'
p5
I-9579
sS'pos_y'
p6
I9779
sS'isAlive'
p7
I00
sS'geno'
p8
(lp9
S'POINT.*'
p10
a(lp11
S'POINT.-'
p12
aS'target'
p13
aa(lp14
S'POINT./'
p15
aS'POINT.-'
p16
aa(lp17
S'currentVelocity'
p18
aS'POINT./'
p19
a(lp20
(lp21
(lp22
S'cohesion'
p23
aaS'alignment'
p24
a(lp25
S'currentVelocity'
p26
aS'currentVelocity'
p27
aS'alignment'
p28
aaS'POINT.*'
p29
a(lp30
S'separation'
p31
aaa(lp32
S'alignment'
p33
aaS'target'
p34
aS'randV'
p35
aS'cohesion'
p36
aS'POINT.-'
p37
a(lp38
S'POINT.*'
p39
aaaa(lp40
S'alignment'
p41
a(lp42
(lp43
S'target'
p44
aaS'POINT.*'
p45
aS'currentEnergy'
p46
a(lp47
S'POINT./'
p48
aaS'randV'
p49
aS'separation'
p50
a(lp51
S'alignment'
p52
aaa(lp53
S'randV'
p54
a(lp55
(lp56
S'POINT.*'
p57
aaS'cohesion'
p58
aaS'separation'
p59
aS'alignment'
p60
aaa(lp61
S'cohesion'
p62
aasS'accel_x'
p63
F0
sS'accel_y'
p64
F0
sS'visionAngle'
p65
I130
sS'maxAccel'
p66
I2
sS'maxVel'
p67
F0.72999999999999998
sS'age'
p68
I0
sS'lastScale'
p69
F5.5
sS'maxSteering'
p70
I20
sS'energy'
p71
F0.5
sb.(i__main__
Data_mobile
p1
(dp2
S'vel_y'
p3
I0
sS'vel_x'
p4
I0
sS'pos_x'
p5
I-9579
sS'pos_y'
p6
I9779
sS'isAlive'
p7
I00
sS'geno'
p8
(lp9
S'POINT.*'
p10
a(lp11
S'POINT.-'
p12
aS'target'
p13
aa(lp14
S'POINT./'
p15
aS'POINT.-'
p16
aa(lp17
S'currentVelocity'
p18
aS'POINT./'
p19
a(lp20
(lp21
(lp22
S'cohesion'
p23
aaS'alignment'
p24
a(lp25
S'currentVelocity'
p26
aS'currentVelocity'
p27
aS'alignment'
p28
aaS'POINT.*'
p29
a(lp30
S'separation'
p31
aaa(lp32
S'alignment'
p33
aaS'target'
p34
aS'randV'
p35
aS'cohesion'
p36
aS'POINT.-'
p37
a(lp38
S'POINT.*'
p39
aaaa(lp40
S'alignment'
p41
a(lp42
(lp43
S'target'
p44
aaS'POINT.*'
p45
aS'currentEnergy'
p46
a(lp47
S'POINT./'
p48
aaS'randV'
p49
aS'separation'
p50
a(lp51
S'alignment'
p52
aaa(lp53
S'randV'
p54
a(lp55
(lp56
S'POINT.*'
p57
aaS'cohesion'
p58
aaS'separation'
p59
aS'alignment'
p60
aaa(lp61
S'cohesion'
p62
aasS'accel_x'
p63
F0
sS'accel_y'
p64
F0
sS'visionAngle'
p65
I130
sS'maxAccel'
p66
I2
sS'maxVel'
p67
F0.72999999999999998
sS'age'
p68
I0
sS'lastScale'
p69
F5.5
sS'maxSteering'
p70
I20
sS'energy'
p71
F0.5
sb.(i__main__
Data_mobile
p1
(dp2
S'vel_y'
p3
I0
sS'vel_x'
p4
I0
sS'pos_x'
p5
I-9579
sS'pos_y'
p6
I9779
sS'isAlive'
p7
I00
sS'geno'
p8
(lp9
S'POINT.*'
p10
a(lp11
S'POINT.-'
p12
aS'target'
p13
aa(lp14
S'POINT./'
p15
aS'POINT.-'
p16
aa(lp17
S'currentVelocity'
p18
aS'POINT./'
p19
a(lp20
(lp21
(lp22
S'cohesion'
p23
aaS'alignment'
p24
a(lp25
S'currentVelocity'
p26
aS'currentVelocity'
p27
aS'alignment'
p28
aaS'POINT.*'
p29
a(lp30
S'separation'
p31
aaa(lp32
S'alignment'
p33
aaS'target'
p34
aS'randV'
p35
aS'cohesion'
p36
aS'POINT.-'
p37
a(lp38
S'POINT.*'
p39
aaaa(lp40
S'alignment'
p41
a(lp42
(lp43
S'target'
p44
aaS'POINT.*'
p45
aS'currentEnergy'
p46
a(lp47
S'POINT./'
p48
aaS'randV'
p49
aS'separation'
p50
a(lp51
S'alignment'
p52
aaa(lp53
S'randV'
p54
a(lp55
(lp56
S'POINT.*'
p57
aaS'cohesion'
p58
aaS'separation'
p59
aS'alignment'
p60
aaa(lp61
S'cohesion'
p62
aasS'accel_x'
p63
F0
sS'accel_y'
p64
F0
sS'visionAngle'
p65
I130
sS'maxAccel'
p66
I2
sS'maxVel'
p67
F0.72999999999999998
sS'age'
p68
I0
sS'lastScale'
p69
F5.5
sS'maxSteering'
p70
I20
sS'energy'
p71
F0.5
sb.(i__main__
Data_mobile
p1
(dp2
S'vel_y'
p3
I0
sS'vel_x'
p4
I0
sS'pos_x'
p5
I-9579
sS'pos_y'
p6
I9779
sS'isAlive'
p7
I00
sS'geno'
p8
(lp9
S'POINT.*'
p10
a(lp11
S'POINT.-'
p12
aS'target'
p13
aa(lp14
S'POINT./'
p15
aS'POINT.-'
p16
aa(lp17
S'currentVelocity'
p18
aS'POINT./'
p19
a(lp20
(lp21
(lp22
S'cohesion'
p23
aaS'alignment'
p24
a(lp25
S'currentVelocity'
p26
aS'currentVelocity'
p27
aS'alignment'
p28
aaS'POINT.*'
p29
a(lp30
S'separation'
p31
aaa(lp32
S'alignment'
p33
aaS'target'
p34
aS'randV'
p35
aS'cohesion'
p36
aS'POINT.-'
p37
a(lp38
S'POINT.*'
p39
aaaa(lp40
S'alignment'
p41
a(lp42
(lp43
S'target'
p44
aaS'POINT.*'
p45
aS'currentEnergy'
p46
a(lp47
S'POINT./'
p48
aaS'randV'
p49
aS'separation'
p50
a(lp51
S'alignment'
p52
aaa(lp53
S'randV'
p54
a(lp55
(lp56
S'POINT.*'
p57
aaS'cohesion'
p58
aaS'separation'
p59
aS'alignment'
p60
aaa(lp61
S'cohesion'
p62
aasS'accel_x'
p63
F0
sS'accel_y'
p64
F0
sS'visionAngle'
p65
I130
sS'maxAccel'
p66
I2
sS'maxVel'
p67
F0.72999999999999998
sS'age'
p68
I0
sS'lastScale'
p69
F5.5
sS'maxSteering'
p70
I20
sS'energy'
p71
F0.5
sb.(i__main__
Data_mobile
p1
(dp2
S'vel_y'
p3
I0
sS'vel_x'
p4
I0
sS'pos_x'
p5
I-9579
sS'pos_y'
p6
I9779
sS'isAlive'
p7
I00
sS'geno'
p8
(lp9
S'POINT.*'
p10
a(lp11
S'POINT.-'
p12
aS'target'
p13
aa(lp14
S'POINT./'
p15
aS'POINT.-'
p16
aa(lp17
S'currentVelocity'
p18
aS'POINT./'
p19
a(lp20
(lp21
(lp22
S'cohesion'
p23
aaS'alignment'
p24
a(lp25
S'currentVelocity'
p26
aS'currentVelocity'
p27
aS'alignment'
p28
aaS'POINT.*'
p29
a(lp30
S'separation'
p31
aaa(lp32
S'alignment'
p33
aaS'target'
p34
aS'randV'
p35
aS'cohesion'
p36
aS'POINT.-'
p37
a(lp38
S'POINT.*'
p39
aaaa(lp40
S'alignment'
p41
a(lp42
(lp43
S'target'
p44
aaS'POINT.*'
p45
aS'currentEnergy'
p46
a(lp47
S'POINT./'
p48
aaS'randV'
p49
aS'separation'
p50
a(lp51
S'alignment'
p52
aaa(lp53
S'randV'
p54
a(lp55
(lp56
S'POINT.*'
p57
aaS'cohesion'
p58
aaS'separation'
p59
aS'alignment'
p60
aaa(lp61
S'cohesion'
p62
aasS'accel_x'
p63
F0
sS'accel_y'
p64
F0
sS'visionAngle'
p65
I130
sS'maxAccel'
p66
I2
sS'maxVel'
p67
F0.72999999999999998
sS'age'
p68
I0
sS'lastScale'
p69
F5.5
sS'maxSteering'
p70
I20
sS'energy'
p71
F0.5
sb.(i__main__
Data_mobile
p1
(dp2
S'vel_y'
p3
I0
sS'vel_x'
p4
I0
sS'pos_x'
p5
I-9579
sS'pos_y'
p6
I9779
sS'isAlive'
p7
I00
sS'geno'
p8
(lp9
S'POINT.*'
p10
a(lp11
S'POINT.-'
p12
aS'target'
p13
aa(lp14
S'POINT./'
p15
aS'POINT.-'
p16
aa(lp17
S'currentVelocity'
p18
aS'POINT./'
p19
a(lp20
(lp21
(lp22
S'cohesion'
p23
aaS'alignment'
p24
a(lp25
S'currentVelocity'
p26
aS'currentVelocity'
p27
aS'alignment'
p28
aaS'POINT.*'
p29
a(lp30
S'separation'
p31
aaa(lp32
S'alignment'
p33
aaS'target'
p34
aS'randV'
p35
aS'cohesion'
p36
aS'POINT.-'
p37
a(lp38
S'POINT.*'
p39
aaaa(lp40
S'alignment'
p41
a(lp42
(lp43
S'target'
p44
aaS'POINT.*'
p45
aS'currentEnergy'
p46
a(lp47
S'POINT./'
p48
aaS'randV'
p49
aS'separation'
p50
a(lp51
S'alignment'
p52
aaa(lp53
S'randV'
p54
a(lp55
(lp56
S'POINT.*'
p57
aaS'cohesion'
p58
aaS'separation'
p59
aS'alignment'
p60
aaa(lp61
S'cohesion'
p62
aasS'accel_x'
p63
F0
sS'accel_y'
p64
F0
sS'visionAngle'
p65
I130
sS'maxAccel'
p66
I2
sS'maxVel'
p67
F0.72999999999999998
sS'age'
p68
I0
sS'lastScale'
p69
F5.5
sS'maxSteering'
p70
I20
sS'energy'
p71
F0.5
sb.(i__main__
Data_mobile
p1
(dp2
S'vel_y'
p3
I0
sS'vel_x'
p4
I0
sS'pos_x'
p5
I-9579
sS'pos_y'
p6
I9779
sS'isAlive'
p7
I00
sS'geno'
p8
(lp9
S'POINT.*'
p10
a(lp11
S'POINT.-'
p12
aS'target'
p13
aa(lp14
S'POINT./'
p15
aS'POINT.-'
p16
aa(lp17
S'currentVelocity'
p18
aS'POINT./'
p19
a(lp20
(lp21
(lp22
S'cohesion'
p23
aaS'alignment'
p24
a(lp25
S'currentVelocity'
p26
aS'currentVelocity'
p27
aS'alignment'
p28
aaS'POINT.*'
p29
a(lp30
S'separation'
p31
aaa(lp32
S'alignment'
p33
aaS'target'
p34
aS'randV'
p35
aS'cohesion'
p36
aS'POINT.-'
p37
a(lp38
S'POINT.*'
p39
aaaa(lp40
S'alignment'
p41
a(lp42
(lp43
S'target'
p44
aaS'POINT.*'
p45
aS'currentEnergy'
p46
a(lp47
S'POINT./'
p48
aaS'randV'
p49
aS'separation'
p50
a(lp51
S'alignment'
p52
aaa(lp53
S'randV'
p54
a(lp55
(lp56
S'POINT.*'
p57
aaS'cohesion'
p58
aaS'separation'
p59
aS'alignment'
p60
aaa(lp61
S'cohesion'
p62
aasS'accel_x'
p63
F0
sS'accel_y'
p64
F0
sS'visionAngle'
p65
I130
sS'maxAccel'
p66
I2
sS'maxVel'
p67
F0.72999999999999998
sS'age'
p68
I0
sS'lastScale'
p69
F5.5
sS'maxSteering'
p70
I20
sS'energy'
p71
F0.5
sb.(i__main__
Data_mobile
p1
(dp2
S'vel_y'
p3
I0
sS'vel_x'
p4
I0
sS'pos_x'
p5
I-9579
sS'pos_y'
p6
I9779
sS'isAlive'
p7
I00
sS'geno'
p8
(lp9
S'POINT.*'
p10
a(lp11
S'POINT.-'
p12
aS'target'
p13
aa(lp14
S'POINT./'
p15
aS'POINT.-'
p16
aa(lp17
S'currentVelocity'
p18
aS'POINT./'
p19
a(lp20
(lp21
(lp22
S'cohesion'
p23
aaS'alignment'
p24
a(lp25
S'currentVelocity'
p26
aS'currentVelocity'
p27
aS'alignment'
p28
aaS'POINT.*'
p29
a(lp30
S'separation'
p31
aaa(lp32
S'alignment'
p33
aaS'target'
p34
aS'randV'
p35
aS'cohesion'
p36
aS'POINT.-'
p37
a(lp38
S'POINT.*'
p39
aaaa(lp40
S'alignment'
p41
a(lp42
(lp43
S'target'
p44
aaS'POINT.*'
p45
aS'currentEnergy'
p46
a(lp47
S'POINT./'
p48
aaS'randV'
p49
aS'separation'
p50
a(lp51
S'alignment'
p52
aaa(lp53
S'randV'
p54
a(lp55
(lp56
S'POINT.*'
p57
aaS'cohesion'
p58
aaS'separation'
p59
aS'alignment'
p60
aaa(lp61
S'cohesion'
p62
aasS'accel_x'
p63
F0
sS'accel_y'
p64
F0
sS'visionAngle'
p65
I130
sS'maxAccel'
p66
I2
sS'maxVel'
p67
F0.72999999999999998
sS'age'
p68
I0
sS'lastScale'
p69
F5.5
sS'maxSteering'
p70
I20
sS'energy'
p71
F0.5
sb.(i__main__
Data_mobile
p1
(dp2
S'vel_y'
p3
I0
sS'vel_x'
p4
I0
sS'pos_x'
p5
I-9579
sS'pos_y'
p6
I9779
sS'isAlive'
p7
I00
sS'geno'
p8
(lp9
S'POINT.*'
p10
a(lp11
S'POINT.-'
p12
aS'target'
p13
aa(lp14
S'POINT./'
p15
aS'POINT.-'
p16
aa(lp17
S'currentVelocity'
p18
aS'POINT./'
p19
a(lp20
(lp21
(lp22
S'cohesion'
p23
aaS'alignment'
p24
a(lp25
S'currentVelocity'
p26
aS'currentVelocity'
p27
aS'alignment'
p28
aaS'POINT.*'
p29
a(lp30
S'separation'
p31
aaa(lp32
S'alignment'
p33
aaS'target'
p34
aS'randV'
p35
aS'cohesion'
p36
aS'POINT.-'
p37
a(lp38
S'POINT.*'
p39
aaaa(lp40
S'alignment'
p41
a(lp42
(lp43
S'target'
p44
aaS'POINT.*'
p45
aS'currentEnergy'
p46
a(lp47
S'POINT./'
p48
aaS'randV'
p49
aS'separation'
p50
a(lp51
S'alignment'
p52
aaa(lp53
S'randV'
p54
a(lp55
(lp56
S'POINT.*'
p57
aaS'cohesion'
p58
aaS'separation'
p59
aS'alignment'
p60
aaa(lp61
S'cohesion'
p62
aasS'accel_x'
p63
F0
sS'accel_y'
p64
F0
sS'visionAngle'
p65
I130
sS'maxAccel'
p66
I2
sS'maxVel'
p67
F0.72999999999999998
sS'age'
p68
I0
sS'lastScale'
p69
F5.5
sS'maxSteering'
p70
I20
sS'energy'
p71
F0.5
sb.(i__main__
Data_mobile
p1
(dp2
S'vel_y'
p3
I0
sS'vel_x'
p4
I0
sS'pos_x'
p5
I-9579
sS'pos_y'
p6
I9779
sS'isAlive'
p7
I00
sS'geno'
p8
(lp9
S'POINT.*'
p10
a(lp11
S'POINT.-'
p12
aS'target'
p13
aa(lp14
S'POINT./'
p15
aS'POINT.-'
p16
aa(lp17
S'currentVelocity'
p18
aS'POINT./'
p19
a(lp20
(lp21
(lp22
S'cohesion'
p23
aaS'alignment'
p24
a(lp25
S'currentVelocity'
p26
aS'currentVelocity'
p27
aS'alignment'
p28
aaS'POINT.*'
p29
a(lp30
S'separation'
p31
aaa(lp32
S'alignment'
p33
aaS'target'
p34
aS'randV'
p35
aS'cohesion'
p36
aS'POINT.-'
p37
a(lp38
S'POINT.*'
p39
aaaa(lp40
S'alignment'
p41
a(lp42
(lp43
S'target'
p44
aaS'POINT.*'
p45
aS'currentEnergy'
p46
a(lp47
S'POINT./'
p48
aaS'randV'
p49
aS'separation'
p50
a(lp51
S'alignment'
p52
aaa(lp53
S'randV'
p54
a(lp55
(lp56
S'POINT.*'
p57
aaS'cohesion'
p58
aaS'separation'
p59
aS'alignment'
p60
aaa(lp61
S'cohesion'
p62
aasS'accel_x'
p63
F0
sS'accel_y'
p64
F0
sS'visionAngle'
p65
I130
sS'maxAccel'
p66
I2
sS'maxVel'
p67
F0.72999999999999998
sS'age'
p68
I0
sS'lastScale'
p69
F5.5
sS'maxSteering'
p70
I20
sS'energy'
p71
F0.5
sb.(i__main__
Data_mobile
p1
(dp2
S'vel_y'
p3
I0
sS'vel_x'
p4
I0
sS'pos_x'
p5
I-9579
sS'pos_y'
p6
I9779
sS'isAlive'
p7
I00
sS'geno'
p8
(lp9
S'POINT.*'
p10
a(lp11
S'POINT.-'
p12
aS'target'
p13
aa(lp14
S'POINT./'
p15
aS'POINT.-'
p16
aa(lp17
S'currentVelocity'
p18
aS'POINT./'
p19
a(lp20
(lp21
(lp22
S'cohesion'
p23
aaS'alignment'
p24
a(lp25
S'currentVelocity'
p26
aS'currentVelocity'
p27
aS'alignment'
p28
aaS'POINT.*'
p29
a(lp30
S'separation'
p31
aaa(lp32
S'alignment'
p33
aaS'target'
p34
aS'randV'
p35
aS'cohesion'
p36
aS'POINT.-'
p37
a(lp38
S'POINT.*'
p39
aaaa(lp40
S'alignment'
p41
a(lp42
(lp43
S'target'
p44
aaS'POINT.*'
p45
aS'currentEnergy'
p46
a(lp47
S'POINT./'
p48
aaS'randV'
p49
aS'separation'
p50
a(lp51
S'alignment'
p52
aaa(lp53
S'randV'
p54
a(lp55
(lp56
S'POINT.*'
p57
aaS'cohesion'
p58
aaS'separation'
p59
aS'alignment'
p60
aaa(lp61
S'cohesion'
p62
aasS'accel_x'
p63
F0
sS'accel_y'
p64
F0
sS'visionAngle'
p65
I130
sS'maxAccel'
p66
I2
sS'maxVel'
p67
F0.72999999999999998
sS'age'
p68
I0
sS'lastScale'
p69
F5.5
sS'maxSteering'
p70
I20
sS'energy'
p71
F0.5
sb.(i__main__
Data_mobile
p1
(dp2
S'vel_y'
p3
I0
sS'vel_x'
p4
I0
sS'pos_x'
p5
I-9579
sS'pos_y'
p6
I9779
sS'isAlive'
p7
I00
sS'geno'
p8
(lp9
S'POINT.*'
p10
a(lp11
S'POINT.-'
p12
aS'target'
p13
aa(lp14
S'POINT./'
p15
aS'POINT.-'
p16
aa(lp17
S'currentVelocity'
p18
aS'POINT./'
p19
a(lp20
(lp21
(lp22
S'cohesion'
p23
aaS'alignment'
p24
a(lp25
S'currentVelocity'
p26
aS'currentVelocity'
p27
aS'alignment'
p28
aaS'POINT.*'
p29
a(lp30
S'separation'
p31
aaa(lp32
S'alignment'
p33
aaS'target'
p34
aS'randV'
p35
aS'cohesion'
p36
aS'POINT.-'
p37
a(lp38
S'POINT.*'
p39
aaaa(lp40
S'alignment'
p41
a(lp42
(lp43
S'target'
p44
aaS'POINT.*'
p45
aS'currentEnergy'
p46
a(lp47
S'POINT./'
p48
aaS'randV'
p49
aS'separation'
p50
a(lp51
S'alignment'
p52
aaa(lp53
S'randV'
p54
a(lp55
(lp56
S'POINT.*'
p57
aaS'cohesion'
p58
aaS'separation'
p59
aS'alignment'
p60
aaa(lp61
S'cohesion'
p62
aasS'accel_x'
p63
F0
sS'accel_y'
p64
F0
sS'visionAngle'
p65
I130
sS'maxAccel'
p66
I2
sS'maxVel'
p67
F0.72999999999999998
sS'age'
p68
I0
sS'lastScale'
p69
F5.5
sS'maxSteering'
p70
I20
sS'energy'
p71
F0.5
sb.(i__main__
Data_mobile
p1
(dp2
S'vel_y'
p3
I0
sS'vel_x'
p4
I0
sS'pos_x'
p5
I-9579
sS'pos_y'
p6
I9779
sS'isAlive'
p7
I00
sS'geno'
p8
(lp9
S'POINT.*'
p10
a(lp11
S'POINT.-'
p12
aS'target'
p13
aa(lp14
S'alignment'
p15
aaS'currentEnergy'
p16
a(lp17
S'alignment'
p18
a(lp19
(lp20
S'target'
p21
aaS'POINT.*'
p22
aS'currentEnergy'
p23
a(lp24
S'POINT./'
p25
aaS'randV'
p26
aS'separation'
p27
a(lp28
S'alignment'
p29
aaa(lp30
S'randV'
p31
a(lp32
(lp33
S'POINT.*'
p34
aaS'cohesion'
p35
aaS'separation'
p36
aS'alignment'
p37
aaa(lp38
S'cohesion'
p39
aasS'accel_x'
p40
F0
sS'accel_y'
p41
F0
sS'visionAngle'
p42
I130
sS'maxAccel'
p43
I2
sS'maxVel'
p44
F0.72999999999999998
sS'age'
p45
I0
sS'lastScale'
p46
F5.5
sS'maxSteering'
p47
I20
sS'energy'
p48
F0.5
sb.(i__main__
Data_mobile
p1
(dp2
S'vel_y'
p3
I0
sS'vel_x'
p4
I0
sS'pos_x'
p5
I-9579
sS'pos_y'
p6
I9779
sS'isAlive'
p7
I00
sS'geno'
p8
(lp9
S'POINT.*'
p10
a(lp11
S'POINT.-'
p12
aS'target'
p13
aa(lp14
S'POINT./'
p15
aS'POINT.-'
p16
aa(lp17
S'currentVelocity'
p18
aS'POINT./'
p19
a(lp20
(lp21
(lp22
S'cohesion'
p23
aaS'alignment'
p24
a(lp25
S'currentVelocity'
p26
aS'currentVelocity'
p27
aS'alignment'
p28
aaS'POINT.*'
p29
a(lp30
S'separation'
p31
aaa(lp32
S'alignment'
p33
aaS'target'
p34
aS'randV'
p35
aS'cohesion'
p36
aS'POINT.-'
p37
a(lp38
S'POINT.*'
p39
aaaa(lp40
S'alignment'
p41
a(lp42
(lp43
S'target'
p44
aaS'POINT.*'
p45
aS'currentEnergy'
p46
a(lp47
S'POINT./'
p48
aaS'randV'
p49
aS'separation'
p50
a(lp51
S'alignment'
p52
aaa(lp53
S'randV'
p54
a(lp55
(lp56
S'POINT.*'
p57
aaS'cohesion'
p58
aaS'separation'
p59
aS'alignment'
p60
aaa(lp61
S'cohesion'
p62
aasS'accel_x'
p63
F0
sS'accel_y'
p64
F0
sS'visionAngle'
p65
I130
sS'maxAccel'
p66
I2
sS'maxVel'
p67
F0.72999999999999998
sS'age'
p68
I0
sS'lastScale'
p69
F5.5
sS'maxSteering'
p70
I20
sS'energy'
p71
F0.5
sb.(i__main__
Data_mobile
p1
(dp2
S'vel_y'
p3
I0
sS'vel_x'
p4
I0
sS'pos_x'
p5
I-9579
sS'pos_y'
p6
I9779
sS'isAlive'
p7
I00
sS'geno'
p8
(lp9
S'POINT.*'
p10
a(lp11
S'POINT.-'
p12
aS'target'
p13
aa(lp14
S'POINT./'
p15
aS'POINT.-'
p16
aa(lp17
S'currentVelocity'
p18
aS'POINT./'
p19
a(lp20
(lp21
(lp22
S'cohesion'
p23
aaS'alignment'
p24
a(lp25
S'currentVelocity'
p26
aS'currentVelocity'
p27
aS'alignment'
p28
aaS'POINT.*'
p29
a(lp30
S'separation'
p31
aaa(lp32
S'alignment'
p33
aaS'target'
p34
aS'randV'
p35
aS'cohesion'
p36
aS'POINT.-'
p37
a(lp38
S'POINT.*'
p39
aaaa(lp40
S'alignment'
p41
a(lp42
(lp43
S'target'
p44
aaS'POINT.*'
p45
aS'currentEnergy'
p46
a(lp47
S'POINT./'
p48
aaS'randV'
p49
aS'separation'
p50
a(lp51
S'alignment'
p52
aaa(lp53
S'randV'
p54
a(lp55
(lp56
S'POINT.*'
p57
aaS'cohesion'
p58
aaS'separation'
p59
aS'alignment'
p60
aaa(lp61
S'cohesion'
p62
aasS'accel_x'
p63
F0
sS'accel_y'
p64
F0
sS'visionAngle'
p65
I130
sS'maxAccel'
p66
I2
sS'maxVel'
p67
F0.72999999999999998
sS'age'
p68
I0
sS'lastScale'
p69
F5.5
sS'maxSteering'
p70
I20
sS'energy'
p71
F0.5
sb.(i__main__
Data_mobile
p1
(dp2
S'vel_y'
p3
I0
sS'vel_x'
p4
I0
sS'pos_x'
p5
I-9579
sS'pos_y'
p6
I9779
sS'isAlive'
p7
I00
sS'geno'
p8
(lp9
S'POINT.*'
p10
a(lp11
S'POINT.-'
p12
aS'target'
p13
aa(lp14
S'POINT./'
p15
aS'POINT.-'
p16
aa(lp17
S'currentVelocity'
p18
aS'POINT./'
p19
a(lp20
(lp21
(lp22
S'cohesion'
p23
aaS'alignment'
p24
a(lp25
S'currentVelocity'
p26
aS'currentVelocity'
p27
aS'alignment'
p28
aaS'POINT.*'
p29
a(lp30
S'separation'
p31
aaa(lp32
S'alignment'
p33
aaS'target'
p34
aS'randV'
p35
aS'cohesion'
p36
aS'POINT.-'
p37
a(lp38
S'POINT.*'
p39
aaaa(lp40
S'alignment'
p41
a(lp42
(lp43
S'target'
p44
aaS'POINT.*'
p45
aS'currentEnergy'
p46
a(lp47
S'POINT./'
p48
aaS'randV'
p49
aS'separation'
p50
a(lp51
S'alignment'
p52
aaa(lp53
S'randV'
p54
a(lp55
(lp56
S'POINT.*'
p57
aaS'cohesion'
p58
aaS'separation'
p59
aS'alignment'
p60
aaa(lp61
S'cohesion'
p62
aasS'accel_x'
p63
F0
sS'accel_y'
p64
F0
sS'visionAngle'
p65
I130
sS'maxAccel'
p66
I2
sS'maxVel'
p67
F0.72999999999999998
sS'age'
p68
I0
sS'lastScale'
p69
F5.5
sS'maxSteering'
p70
I20
sS'energy'
p71
F0.5
sb.(i__main__
Data_mobile
p1
(dp2
S'vel_y'
p3
I0
sS'vel_x'
p4
I0
sS'pos_x'
p5
I-9579
sS'pos_y'
p6
I9779
sS'isAlive'
p7
I00
sS'geno'
p8
(lp9
S'POINT.*'
p10
a(lp11
S'POINT.-'
p12
aS'target'
p13
aa(lp14
S'POINT./'
p15
aS'POINT.-'
p16
aa(lp17
S'currentVelocity'
p18
aS'POINT./'
p19
a(lp20
(lp21
(lp22
S'cohesion'
p23
aaS'alignment'
p24
a(lp25
S'currentVelocity'
p26
aS'currentVelocity'
p27
aS'alignment'
p28
aaS'POINT.*'
p29
a(lp30
S'separation'
p31
aaa(lp32
S'alignment'
p33
aaS'target'
p34
aS'randV'
p35
aS'cohesion'
p36
aS'POINT.-'
p37
a(lp38
S'POINT.*'
p39
aaaa(lp40
S'randV'
p41
a(lp42
(lp43
S'POINT.*'
p44
aaS'cohesion'
p45
aaS'separation'
p46
aS'alignment'
p47
aa(lp48
S'cohesion'
p49
aasS'accel_x'
p50
F0
sS'accel_y'
p51
F0
sS'visionAngle'
p52
I130
sS'maxAccel'
p53
I2
sS'maxVel'
p54
F0.72999999999999998
sS'age'
p55
I0
sS'lastScale'
p56
F5.5
sS'maxSteering'
p57
I20
sS'energy'
p58
F0.5
sb.(i__main__
Data_mobile
p1
(dp2
S'vel_y'
p3
I0
sS'vel_x'
p4
I0
sS'pos_x'
p5
I-9579
sS'pos_y'
p6
I9779
sS'isAlive'
p7
I00
sS'geno'
p8
(lp9
S'POINT.*'
p10
a(lp11
S'POINT.-'
p12
aS'target'
p13
aa(lp14
S'POINT./'
p15
aS'POINT.-'
p16
aa(lp17
S'currentVelocity'
p18
aS'POINT./'
p19
a(lp20
S'alignment'
p21
a(lp22
S'alignment'
p23
aaS'target'
p24
aS'randV'
p25
aS'cohesion'
p26
aS'POINT.-'
p27
a(lp28
S'POINT.*'
p29
aaaa(lp30
S'alignment'
p31
a(lp32
(lp33
S'target'
p34
aaS'POINT.*'
p35
aS'currentEnergy'
p36
a(lp37
S'POINT./'
p38
aaS'randV'
p39
aS'separation'
p40
a(lp41
S'alignment'
p42
aaa(lp43
S'randV'
p44
a(lp45
(lp46
S'POINT.*'
p47
aaS'cohesion'
p48
aaS'separation'
p49
aS'alignment'
p50
aaa(lp51
S'cohesion'
p52
aasS'accel_x'
p53
F0
sS'accel_y'
p54
F0
sS'visionAngle'
p55
I130
sS'maxAccel'
p56
I2
sS'maxVel'
p57
F0.72999999999999998
sS'age'
p58
I0
sS'lastScale'
p59
F5.5
sS'maxSteering'
p60
I20
sS'energy'
p61
F0.5
sb.(i__main__
Data_mobile
p1
(dp2
S'vel_y'
p3
I0
sS'vel_x'
p4
I0
sS'pos_x'
p5
I-9579
sS'pos_y'
p6
I9779
sS'isAlive'
p7
I00
sS'geno'
p8
(lp9
S'POINT.*'
p10
a(lp11
S'POINT.-'
p12
aS'target'
p13
aa(lp14
S'POINT./'
p15
aS'POINT.-'
p16
aa(lp17
S'currentVelocity'
p18
aS'POINT./'
p19
a(lp20
(lp21
(lp22
S'cohesion'
p23
aaS'alignment'
p24
a(lp25
S'currentVelocity'
p26
aS'currentVelocity'
p27
aS'alignment'
p28
aaS'POINT.*'
p29
a(lp30
S'separation'
p31
aaa(lp32
S'alignment'
p33
aaS'target'
p34
aS'randV'
p35
aS'cohesion'
p36
aS'POINT.-'
p37
a(lp38
S'POINT.*'
p39
aaaa(lp40
S'alignment'
p41
a(lp42
(lp43
S'target'
p44
aaS'POINT.*'
p45
aS'currentEnergy'
p46
a(lp47
S'POINT./'
p48
aaS'randV'
p49
aS'separation'
p50
a(lp51
S'alignment'
p52
aaa(lp53
S'randV'
p54
a(lp55
(lp56
S'POINT.*'
p57
aaS'cohesion'
p58
aaS'separation'
p59
aS'alignment'
p60
aaa(lp61
S'cohesion'
p62
aasS'accel_x'
p63
F0
sS'accel_y'
p64
F0
sS'visionAngle'
p65
I130
sS'maxAccel'
p66
I2
sS'maxVel'
p67
F0.72999999999999998
sS'age'
p68
I0
sS'lastScale'
p69
F5.5
sS'maxSteering'
p70
I20
sS'energy'
p71
F0.5
sb.(i__main__
Data_mobile
p1
(dp2
S'vel_y'
p3
I0
sS'vel_x'
p4
I0
sS'pos_x'
p5
I-9579
sS'pos_y'
p6
I9779
sS'isAlive'
p7
I00
sS'geno'
p8
(lp9
S'POINT.*'
p10
a(lp11
S'POINT.-'
p12
aS'target'
p13
aa(lp14
S'POINT./'
p15
aS'POINT.-'
p16
aa(lp17
S'currentVelocity'
p18
aS'POINT./'
p19
a(lp20
(lp21
(lp22
S'cohesion'
p23
aaS'alignment'
p24
a(lp25
S'currentVelocity'
p26
aS'currentVelocity'
p27
aS'alignment'
p28
aaS'POINT.*'
p29
a(lp30
S'separation'
p31
aaa(lp32
S'alignment'
p33
aaS'target'
p34
aS'randV'
p35
aS'cohesion'
p36
aS'POINT.-'
p37
a(lp38
S'POINT.*'
p39
aaaa(lp40
S'alignment'
p41
a(lp42
(lp43
S'target'
p44
aaS'POINT.*'
p45
aS'currentEnergy'
p46
a(lp47
S'POINT./'
p48
aaS'randV'
p49
aS'separation'
p50
a(lp51
S'alignment'
p52
aaa(lp53
S'randV'
p54
a(lp55
(lp56
S'POINT.*'
p57
aaS'cohesion'
p58
aaS'separation'
p59
aS'alignment'
p60
aaa(lp61
S'cohesion'
p62
aasS'accel_x'
p63
F0
sS'accel_y'
p64
F0
sS'visionAngle'
p65
I130
sS'maxAccel'
p66
I2
sS'maxVel'
p67
F0.72999999999999998
sS'age'
p68
I0
sS'lastScale'
p69
F5.5
sS'maxSteering'
p70
I20
sS'energy'
p71
F0.5
sb.(i__main__
Data_mobile
p1
(dp2
S'vel_y'
p3
I0
sS'vel_x'
p4
I0
sS'pos_x'
p5
I-9579
sS'pos_y'
p6
I9779
sS'isAlive'
p7
I00
sS'geno'
p8
(lp9
S'POINT.*'
p10
a(lp11
S'POINT.-'
p12
aS'target'
p13
aa(lp14
S'POINT./'
p15
aS'POINT.-'
p16
aa(lp17
S'currentVelocity'
p18
aS'POINT./'
p19
a(lp20
(lp21
(lp22
S'cohesion'
p23
aaS'alignment'
p24
a(lp25
S'currentVelocity'
p26
aS'currentVelocity'
p27
aS'alignment'
p28
aaS'POINT.*'
p29
a(lp30
S'separation'
p31
aaa(lp32
S'alignment'
p33
aaS'target'
p34
aS'randV'
p35
aS'cohesion'
p36
aS'POINT.-'
p37
a(lp38
S'POINT.*'
p39
aaaa(lp40
S'alignment'
p41
a(lp42
(lp43
S'target'
p44
aaS'POINT.*'
p45
aS'currentEnergy'
p46
a(lp47
S'POINT./'
p48
aaS'randV'
p49
aS'separation'
p50
a(lp51
S'alignment'
p52
aaa(lp53
S'randV'
p54
a(lp55
(lp56
S'POINT.*'
p57
aaS'cohesion'
p58
aaS'separation'
p59
aS'alignment'
p60
aaa(lp61
S'cohesion'
p62
aasS'accel_x'
p63
F0
sS'accel_y'
p64
F0
sS'visionAngle'
p65
I130
sS'maxAccel'
p66
I2
sS'maxVel'
p67
F0.72999999999999998
sS'age'
p68
I0
sS'lastScale'
p69
F5.5
sS'maxSteering'
p70
I20
sS'energy'
p71
F0.5
sb.(i__main__
Data_mobile
p1
(dp2
S'vel_y'
p3
I0
sS'vel_x'
p4
I0
sS'pos_x'
p5
I-9579
sS'pos_y'
p6
I9779
sS'isAlive'
p7
I00
sS'geno'
p8
(lp9
S'POINT.*'
p10
a(lp11
S'POINT.-'
p12
aS'target'
p13
aa(lp14
S'POINT./'
p15
aS'POINT.-'
p16
aa(lp17
S'currentVelocity'
p18
aS'POINT./'
p19
a(lp20
(lp21
(lp22
S'cohesion'
p23
aaS'alignment'
p24
a(lp25
S'currentVelocity'
p26
aS'currentVelocity'
p27
aS'alignment'
p28
aaS'POINT.*'
p29
a(lp30
S'separation'
p31
aaa(lp32
S'alignment'
p33
aaS'target'
p34
aS'randV'
p35
aS'cohesion'
p36
aS'POINT.-'
p37
a(lp38
S'POINT.*'
p39
aaaa(lp40
S'alignment'
p41
a(lp42
(lp43
S'target'
p44
aaS'POINT.*'
p45
aS'currentEnergy'
p46
a(lp47
S'POINT./'
p48
aaS'randV'
p49
aS'separation'
p50
a(lp51
S'alignment'
p52
aaa(lp53
S'randV'
p54
a(lp55
(lp56
S'POINT.*'
p57
aaS'cohesion'
p58
aaS'separation'
p59
aS'alignment'
p60
aaa(lp61
S'cohesion'
p62
aasS'accel_x'
p63
F0
sS'accel_y'
p64
F0
sS'visionAngle'
p65
I130
sS'maxAccel'
p66
I2
sS'maxVel'
p67
F0.72999999999999998
sS'age'
p68
I0
sS'lastScale'
p69
F5.5
sS'maxSteering'
p70
I20
sS'energy'
p71
F0.5
sb.(i__main__
Data_mobile
p1
(dp2
S'vel_y'
p3
I0
sS'vel_x'
p4
I0
sS'pos_x'
p5
I-9579
sS'pos_y'
p6
I9779
sS'isAlive'
p7
I00
sS'geno'
p8
(lp9
S'POINT.*'
p10
a(lp11
S'POINT.-'
p12
aS'target'
p13
aa(lp14
S'POINT./'
p15
aS'POINT.-'
p16
aa(lp17
S'currentVelocity'
p18
aS'POINT./'
p19
a(lp20
(lp21
(lp22
S'cohesion'
p23
aaS'alignment'
p24
a(lp25
S'currentVelocity'
p26
aS'currentVelocity'
p27
aS'alignment'
p28
aaS'POINT.*'
p29
a(lp30
S'separation'
p31
aaa(lp32
S'alignment'
p33
aaS'target'
p34
aS'randV'
p35
aS'cohesion'
p36
aS'POINT.-'
p37
a(lp38
S'POINT.*'
p39
aaaa(lp40
S'alignment'
p41
a(lp42
(lp43
S'target'
p44
aaS'POINT.*'
p45
aS'currentEnergy'
p46
a(lp47
S'POINT./'
p48
aaS'randV'
p49
aS'separation'
p50
a(lp51
S'alignment'
p52
aaa(lp53
S'randV'
p54
a(lp55
(lp56
S'POINT.*'
p57
aaS'cohesion'
p58
aaS'separation'
p59
aS'alignment'
p60
aaa(lp61
S'cohesion'
p62
aasS'accel_x'
p63
F0
sS'accel_y'
p64
F0
sS'visionAngle'
p65
I130
sS'maxAccel'
p66
I2
sS'maxVel'
p67
F0.72999999999999998
sS'age'
p68
I0
sS'lastScale'
p69
F5.5
sS'maxSteering'
p70
I20
sS'energy'
p71
F0.5
sb.(i__main__
Data_mobile
p1
(dp2
S'vel_y'
p3
I0
sS'vel_x'
p4
I0
sS'pos_x'
p5
I-9579
sS'pos_y'
p6
I9779
sS'isAlive'
p7
I00
sS'geno'
p8
(lp9
S'POINT.*'
p10
a(lp11
S'POINT.-'
p12
aS'target'
p13
aa(lp14
S'POINT./'
p15
aS'POINT.-'
p16
aa(lp17
S'currentVelocity'
p18
aS'POINT./'
p19
a(lp20
(lp21
(lp22
S'cohesion'
p23
aaS'alignment'
p24
a(lp25
S'currentVelocity'
p26
aS'currentVelocity'
p27
aS'alignment'
p28
aaS'POINT.*'
p29
a(lp30
S'separation'
p31
aaa(lp32
S'alignment'
p33
aaS'target'
p34
aS'randV'
p35
aS'cohesion'
p36
aS'POINT.-'
p37
a(lp38
S'POINT.*'
p39
aaaa(lp40
S'alignment'
p41
a(lp42
(lp43
S'target'
p44
aaS'POINT.*'
p45
aS'currentEnergy'
p46
a(lp47
S'POINT./'
p48
aaS'randV'
p49
aS'separation'
p50
a(lp51
S'alignment'
p52
aaa(lp53
S'randV'
p54
a(lp55
(lp56
S'POINT.*'
p57
aaS'cohesion'
p58
aaS'separation'
p59
aS'alignment'
p60
aaa(lp61
S'cohesion'
p62
aasS'accel_x'
p63
F0
sS'accel_y'
p64
F0
sS'visionAngle'
p65
I130
sS'maxAccel'
p66
I2
sS'maxVel'
p67
F0.72999999999999998
sS'age'
p68
I0
sS'lastScale'
p69
F5.5
sS'maxSteering'
p70
I20
sS'energy'
p71
F0.5
sb.(i__main__
Data_mobile
p1
(dp2
S'vel_y'
p3
I0
sS'vel_x'
p4
I0
sS'pos_x'
p5
I-9579
sS'pos_y'
p6
I9779
sS'isAlive'
p7
I00
sS'geno'
p8
(lp9
S'POINT.*'
p10
a(lp11
S'POINT.-'
p12
aS'target'
p13
aa(lp14
S'POINT./'
p15
aS'POINT.-'
p16
aa(lp17
S'currentVelocity'
p18
aS'POINT./'
p19
a(lp20
(lp21
(lp22
S'cohesion'
p23
aaS'alignment'
p24
a(lp25
S'currentVelocity'
p26
aS'currentVelocity'
p27
aS'alignment'
p28
aaS'POINT.*'
p29
a(lp30
S'separation'
p31
aaa(lp32
S'alignment'
p33
aaS'target'
p34
aS'randV'
p35
aS'cohesion'
p36
aS'POINT.-'
p37
a(lp38
S'POINT.*'
p39
aaaa(lp40
S'alignment'
p41
a(lp42
(lp43
S'target'
p44
aaS'POINT.*'
p45
aS'currentEnergy'
p46
a(lp47
S'POINT./'
p48
aaS'randV'
p49
aS'separation'
p50
a(lp51
S'alignment'
p52
aaa(lp53
S'randV'
p54
a(lp55
(lp56
S'POINT.*'
p57
aaS'cohesion'
p58
aaS'separation'
p59
aS'alignment'
p60
aaa(lp61
S'cohesion'
p62
aasS'accel_x'
p63
F0
sS'accel_y'
p64
F0
sS'visionAngle'
p65
I130
sS'maxAccel'
p66
I2
sS'maxVel'
p67
F0.72999999999999998
sS'age'
p68
I0
sS'lastScale'
p69
F5.5
sS'maxSteering'
p70
I20
sS'energy'
p71
F0.5
sb.(i__main__
Data_mobile
p1
(dp2
S'vel_y'
p3
I0
sS'vel_x'
p4
I0
sS'pos_x'
p5
I-9579
sS'pos_y'
p6
I9779
sS'isAlive'
p7
I00
sS'geno'
p8
(lp9
S'POINT.*'
p10
a(lp11
S'POINT.-'
p12
aS'target'
p13
aa(lp14
S'POINT./'
p15
aS'POINT.-'
p16
aa(lp17
S'currentVelocity'
p18
aS'POINT./'
p19
a(lp20
(lp21
(lp22
S'cohesion'
p23
aaS'alignment'
p24
a(lp25
S'currentVelocity'
p26
aS'currentVelocity'
p27
aS'alignment'
p28
aaS'POINT.*'
p29
a(lp30
S'separation'
p31
aaa(lp32
S'alignment'
p33
aaS'target'
p34
aS'randV'
p35
aS'cohesion'
p36
aS'POINT.-'
p37
a(lp38
S'POINT.*'
p39
aaaa(lp40
S'alignment'
p41
a(lp42
(lp43
S'target'
p44
aaS'POINT.*'
p45
aS'currentEnergy'
p46
a(lp47
S'POINT./'
p48
aaS'randV'
p49
aS'separation'
p50
a(lp51
S'alignment'
p52
aaa(lp53
S'randV'
p54
a(lp55
(lp56
S'POINT.*'
p57
aaS'cohesion'
p58
aaS'separation'
p59
aS'alignment'
p60
aaa(lp61
S'cohesion'
p62
aasS'accel_x'
p63
F0
sS'accel_y'
p64
F0
sS'visionAngle'
p65
I130
sS'maxAccel'
p66
I2
sS'maxVel'
p67
F0.72999999999999998
sS'age'
p68
I0
sS'lastScale'
p69
F5.5
sS'maxSteering'
p70
I20
sS'energy'
p71
F0.5
sb.(i__main__
Data_mobile
p1
(dp2
S'vel_y'
p3
I0
sS'vel_x'
p4
I0
sS'pos_x'
p5
I-9579
sS'pos_y'
p6
I9779
sS'isAlive'
p7
I00
sS'geno'
p8
(lp9
S'POINT.*'
p10
a(lp11
S'POINT.-'
p12
aS'target'
p13
aa(lp14
S'POINT./'
p15
aS'POINT.-'
p16
aa(lp17
S'currentVelocity'
p18
aS'POINT./'
p19
a(lp20
(lp21
(lp22
S'cohesion'
p23
aaS'alignment'
p24
a(lp25
S'currentVelocity'
p26
aS'currentVelocity'
p27
aS'alignment'
p28
aaS'POINT.*'
p29
a(lp30
S'separation'
p31
aaa(lp32
S'alignment'
p33
aaS'target'
p34
aS'randV'
p35
aS'cohesion'
p36
aS'POINT.-'
p37
a(lp38
S'POINT.*'
p39
aaaa(lp40
S'alignment'
p41
a(lp42
(lp43
S'target'
p44
aaS'POINT.*'
p45
aS'currentEnergy'
p46
a(lp47
S'POINT./'
p48
aaS'randV'
p49
aS'separation'
p50
a(lp51
S'alignment'
p52
aaa(lp53
S'randV'
p54
a(lp55
(lp56
S'POINT.*'
p57
aaS'cohesion'
p58
aaS'separation'
p59
aS'alignment'
p60
aaa(lp61
S'cohesion'
p62
aasS'accel_x'
p63
F0
sS'accel_y'
p64
F0
sS'visionAngle'
p65
I130
sS'maxAccel'
p66
I2
sS'maxVel'
p67
F0.72999999999999998
sS'age'
p68
I0
sS'lastScale'
p69
F5.5
sS'maxSteering'
p70
I20
sS'energy'
p71
F0.5
sb.(i__main__
Data_mobile
p1
(dp2
S'vel_y'
p3
I0
sS'vel_x'
p4
I0
sS'pos_x'
p5
I-9579
sS'pos_y'
p6
I9779
sS'isAlive'
p7
I00
sS'geno'
p8
(lp9
S'POINT.*'
p10
a(lp11
S'POINT.-'
p12
aS'target'
p13
aa(lp14
S'POINT./'
p15
aS'POINT.-'
p16
aa(lp17
S'currentVelocity'
p18
aS'POINT./'
p19
a(lp20
(lp21
(lp22
S'cohesion'
p23
aaS'alignment'
p24
a(lp25
S'currentVelocity'
p26
aS'currentVelocity'
p27
aS'alignment'
p28
aaS'POINT.*'
p29
a(lp30
S'separation'
p31
aaa(lp32
S'alignment'
p33
aaS'target'
p34
aS'randV'
p35
aS'cohesion'
p36
aS'POINT.-'
p37
a(lp38
S'POINT.*'
p39
aaaa(lp40
S'alignment'
p41
a(lp42
(lp43
S'target'
p44
aaS'POINT.*'
p45
aS'currentEnergy'
p46
a(lp47
S'POINT./'
p48
aaS'randV'
p49
aS'separation'
p50
a(lp51
S'alignment'
p52
aaa(lp53
S'randV'
p54
a(lp55
(lp56
S'POINT.*'
p57
aaS'cohesion'
p58
aaS'separation'
p59
aS'alignment'
p60
aaa(lp61
S'cohesion'
p62
aasS'accel_x'
p63
F0
sS'accel_y'
p64
F0
sS'visionAngle'
p65
I130
sS'maxAccel'
p66
I2
sS'maxVel'
p67
F0.72999999999999998
sS'age'
p68
I0
sS'lastScale'
p69
F5.5
sS'maxSteering'
p70
I20
sS'energy'
p71
F0.5
sb.(i__main__
Data_mobile
p1
(dp2
S'vel_y'
p3
I0
sS'vel_x'
p4
I0
sS'pos_x'
p5
I-9579
sS'pos_y'
p6
I9779
sS'isAlive'
p7
I00
sS'geno'
p8
(lp9
S'POINT.*'
p10
a(lp11
S'POINT.-'
p12
aS'target'
p13
aa(lp14
S'POINT./'
p15
aS'POINT.-'
p16
aa(lp17
S'currentVelocity'
p18
aS'POINT./'
p19
a(lp20
(lp21
(lp22
S'cohesion'
p23
aaS'alignment'
p24
a(lp25
S'currentVelocity'
p26
aS'currentVelocity'
p27
aS'alignment'
p28
aaS'POINT.*'
p29
a(lp30
S'separation'
p31
aaa(lp32
S'alignment'
p33
aaS'target'
p34
aS'randV'
p35
aS'cohesion'
p36
aS'POINT.-'
p37
a(lp38
S'POINT.*'
p39
aaaa(lp40
S'alignment'
p41
a(lp42
(lp43
S'target'
p44
aaS'POINT.*'
p45
aS'currentEnergy'
p46
a(lp47
S'POINT./'
p48
aaS'randV'
p49
aS'separation'
p50
a(lp51
S'alignment'
p52
aaa(lp53
S'randV'
p54
a(lp55
(lp56
S'POINT.*'
p57
aaS'cohesion'
p58
aaS'separation'
p59
aS'alignment'
p60
aaa(lp61
S'cohesion'
p62
aasS'accel_x'
p63
F0
sS'accel_y'
p64
F0
sS'visionAngle'
p65
I130
sS'maxAccel'
p66
I2
sS'maxVel'
p67
F0.72999999999999998
sS'age'
p68
I0
sS'lastScale'
p69
F5.5
sS'maxSteering'
p70
I20
sS'energy'
p71
F0.5
sb.(i__main__
Data_mobile
p1
(dp2
S'vel_y'
p3
I0
sS'vel_x'
p4
I0
sS'pos_x'
p5
I-9579
sS'pos_y'
p6
I9779
sS'isAlive'
p7
I00
sS'geno'
p8
(lp9
S'POINT.*'
p10
a(lp11
S'POINT.-'
p12
aS'target'
p13
aa(lp14
S'POINT./'
p15
aS'POINT.-'
p16
aa(lp17
S'currentVelocity'
p18
aS'POINT./'
p19
a(lp20
(lp21
(lp22
S'cohesion'
p23
aaS'alignment'
p24
a(lp25
S'currentVelocity'
p26
aS'currentVelocity'
p27
aS'alignment'
p28
aaS'POINT.*'
p29
a(lp30
S'separation'
p31
aaa(lp32
S'alignment'
p33
aaS'target'
p34
aS'randV'
p35
aS'cohesion'
p36
aS'POINT.-'
p37
a(lp38
S'POINT.*'
p39
aaaa(lp40
S'alignment'
p41
a(lp42
(lp43
S'target'
p44
aaS'POINT.*'
p45
aS'currentEnergy'
p46
a(lp47
S'POINT./'
p48
aaS'randV'
p49
aS'separation'
p50
a(lp51
S'alignment'
p52
aaa(lp53
S'randV'
p54
a(lp55
(lp56
S'POINT.*'
p57
aaS'cohesion'
p58
aaS'separation'
p59
aS'alignment'
p60
aaa(lp61
S'cohesion'
p62
aasS'accel_x'
p63
F0
sS'accel_y'
p64
F0
sS'visionAngle'
p65
I130
sS'maxAccel'
p66
I2
sS'maxVel'
p67
F0.72999999999999998
sS'age'
p68
I0
sS'lastScale'
p69
F5.5
sS'maxSteering'
p70
I20
sS'energy'
p71
F0.5
sb.(i__main__
Data_mobile
p1
(dp2
S'vel_y'
p3
I0
sS'vel_x'
p4
I0
sS'pos_x'
p5
I-9579
sS'pos_y'
p6
I9779
sS'isAlive'
p7
I00
sS'geno'
p8
(lp9
S'POINT.*'
p10
a(lp11
S'POINT.-'
p12
aS'target'
p13
aa(lp14
S'POINT./'
p15
aS'POINT.-'
p16
aa(lp17
S'currentVelocity'
p18
aS'POINT./'
p19
a(lp20
(lp21
(lp22
S'cohesion'
p23
aaS'alignment'
p24
a(lp25
S'currentVelocity'
p26
aS'currentVelocity'
p27
aS'alignment'
p28
aaS'POINT.*'
p29
a(lp30
S'separation'
p31
aaa(lp32
S'alignment'
p33
aaS'target'
p34
aS'randV'
p35
aS'cohesion'
p36
aS'POINT.-'
p37
a(lp38
S'POINT.*'
p39
aaaa(lp40
S'alignment'
p41
a(lp42
(lp43
S'target'
p44
aaS'POINT.*'
p45
aS'currentEnergy'
p46
a(lp47
S'POINT./'
p48
aaS'randV'
p49
aS'separation'
p50
a(lp51
S'alignment'
p52
aaa(lp53
S'randV'
p54
a(lp55
(lp56
S'POINT.*'
p57
aaS'cohesion'
p58
aaS'separation'
p59
aS'alignment'
p60
aaa(lp61
S'cohesion'
p62
aasS'accel_x'
p63
F0
sS'accel_y'
p64
F0
sS'visionAngle'
p65
I130
sS'maxAccel'
p66
I2
sS'maxVel'
p67
F0.72999999999999998
sS'age'
p68
I0
sS'lastScale'
p69
F5.5
sS'maxSteering'
p70
I20
sS'energy'
p71
F0.5
sb.(i__main__
Data_mobile
p1
(dp2
S'vel_y'
p3
I0
sS'vel_x'
p4
I0
sS'pos_x'
p5
I-9579
sS'pos_y'
p6
I9779
sS'isAlive'
p7
I00
sS'geno'
p8
(lp9
S'POINT.*'
p10
a(lp11
S'POINT.-'
p12
aS'target'
p13
aa(lp14
S'POINT./'
p15
aS'POINT.-'
p16
aa(lp17
S'currentVelocity'
p18
aS'POINT./'
p19
a(lp20
(lp21
(lp22
S'cohesion'
p23
aaS'alignment'
p24
a(lp25
S'currentVelocity'
p26
aS'currentVelocity'
p27
aS'alignment'
p28
aaS'POINT.*'
p29
a(lp30
S'separation'
p31
aaa(lp32
S'alignment'
p33
aaS'target'
p34
aS'randV'
p35
aS'cohesion'
p36
aS'POINT.-'
p37
a(lp38
S'POINT.*'
p39
aaaa(lp40
S'alignment'
p41
a(lp42
(lp43
S'target'
p44
aaS'POINT.*'
p45
aS'currentEnergy'
p46
a(lp47
S'POINT./'
p48
aaS'randV'
p49
aS'separation'
p50
a(lp51
S'alignment'
p52
aaa(lp53
S'randV'
p54
a(lp55
(lp56
S'POINT.*'
p57
aaS'cohesion'
p58
aaS'separation'
p59
aS'alignment'
p60
aaa(lp61
S'cohesion'
p62
aasS'accel_x'
p63
F0
sS'accel_y'
p64
F0
sS'visionAngle'
p65
I130
sS'maxAccel'
p66
I2
sS'maxVel'
p67
F0.72999999999999998
sS'age'
p68
I0
sS'lastScale'
p69
F5.5
sS'maxSteering'
p70
I20
sS'energy'
p71
F0.5
sb.(i__main__
Data_mobile
p1
(dp2
S'vel_y'
p3
I0
sS'vel_x'
p4
I0
sS'pos_x'
p5
I-9579
sS'pos_y'
p6
I9779
sS'isAlive'
p7
I00
sS'geno'
p8
(lp9
S'POINT.*'
p10
a(lp11
S'POINT.-'
p12
aS'target'
p13
aa(lp14
S'POINT./'
p15
aS'POINT.-'
p16
aa(lp17
S'currentVelocity'
p18
aS'POINT./'
p19
a(lp20
(lp21
(lp22
S'cohesion'
p23
aaS'alignment'
p24
a(lp25
S'currentVelocity'
p26
aS'currentVelocity'
p27
aS'alignment'
p28
aaS'POINT.*'
p29
a(lp30
S'separation'
p31
aaa(lp32
S'alignment'
p33
aaS'target'
p34
aS'randV'
p35
aS'cohesion'
p36
aS'POINT.-'
p37
a(lp38
S'POINT.*'
p39
aaaa(lp40
S'alignment'
p41
a(lp42
(lp43
S'target'
p44
aaS'POINT.*'
p45
aS'currentEnergy'
p46
a(lp47
S'POINT./'
p48
aaS'randV'
p49
aS'separation'
p50
a(lp51
S'alignment'
p52
aaa(lp53
S'randV'
p54
a(lp55
(lp56
S'POINT.*'
p57
aaS'cohesion'
p58
aaS'separation'
p59
aS'alignment'
p60
aaa(lp61
S'cohesion'
p62
aasS'accel_x'
p63
F0
sS'accel_y'
p64
F0
sS'visionAngle'
p65
I130
sS'maxAccel'
p66
I2
sS'maxVel'
p67
F0.72999999999999998
sS'age'
p68
I0
sS'lastScale'
p69
F5.5
sS'maxSteering'
p70
I20
sS'energy'
p71
F0.5
sb.(i__main__
Data_mobile
p1
(dp2
S'vel_y'
p3
I0
sS'vel_x'
p4
I0
sS'pos_x'
p5
I-9579
sS'pos_y'
p6
I9779
sS'isAlive'
p7
I00
sS'geno'
p8
(lp9
S'POINT.*'
p10
a(lp11
S'POINT.-'
p12
aS'target'
p13
aa(lp14
S'POINT./'
p15
aS'POINT.-'
p16
aa(lp17
S'currentVelocity'
p18
aS'POINT./'
p19
a(lp20
(lp21
(lp22
S'cohesion'
p23
aaS'alignment'
p24
a(lp25
S'currentVelocity'
p26
aS'currentVelocity'
p27
aS'alignment'
p28
aaS'POINT.*'
p29
a(lp30
S'separation'
p31
aaa(lp32
S'alignment'
p33
aaS'target'
p34
aS'randV'
p35
aS'cohesion'
p36
aS'POINT.-'
p37
a(lp38
S'POINT.*'
p39
aaaa(lp40
S'alignment'
p41
a(lp42
(lp43
S'target'
p44
aaS'POINT.*'
p45
aS'currentEnergy'
p46
a(lp47
S'POINT./'
p48
aaS'randV'
p49
aS'separation'
p50
a(lp51
S'alignment'
p52
aaa(lp53
S'randV'
p54
a(lp55
(lp56
S'POINT.*'
p57
aaS'cohesion'
p58
aaS'separation'
p59
aS'alignment'
p60
aaa(lp61
S'cohesion'
p62
aasS'accel_x'
p63
F0
sS'accel_y'
p64
F0
sS'visionAngle'
p65
I130
sS'maxAccel'
p66
I2
sS'maxVel'
p67
F0.72999999999999998
sS'age'
p68
I0
sS'lastScale'
p69
F5.5
sS'maxSteering'
p70
I20
sS'energy'
p71
F0.5
sb.(i__main__
Data_mobile
p1
(dp2
S'vel_y'
p3
I0
sS'vel_x'
p4
I0
sS'pos_x'
p5
I-9579
sS'pos_y'
p6
I9779
sS'isAlive'
p7
I00
sS'geno'
p8
(lp9
S'POINT.*'
p10
a(lp11
S'POINT.-'
p12
aS'target'
p13
aa(lp14
S'POINT./'
p15
aS'POINT.-'
p16
aa(lp17
S'currentVelocity'
p18
aS'POINT./'
p19
a(lp20
(lp21
(lp22
S'cohesion'
p23
aaS'alignment'
p24
a(lp25
S'currentVelocity'
p26
aS'currentVelocity'
p27
aS'alignment'
p28
aaS'POINT.*'
p29
a(lp30
S'separation'
p31
aaa(lp32
S'alignment'
p33
aaS'target'
p34
aS'randV'
p35
aS'cohesion'
p36
aS'POINT.-'
p37
a(lp38
S'POINT.*'
p39
aaaa(lp40
S'alignment'
p41
a(lp42
(lp43
S'target'
p44
aaS'POINT.*'
p45
aS'currentEnergy'
p46
a(lp47
S'POINT./'
p48
aaS'randV'
p49
aS'separation'
p50
a(lp51
S'alignment'
p52
aaa(lp53
S'randV'
p54
a(lp55
(lp56
S'POINT.*'
p57
aaS'cohesion'
p58
aaS'separation'
p59
aS'alignment'
p60
aaa(lp61
S'cohesion'
p62
aasS'accel_x'
p63
F0
sS'accel_y'
p64
F0
sS'visionAngle'
p65
I130
sS'maxAccel'
p66
I2
sS'maxVel'
p67
F0.72999999999999998
sS'age'
p68
I0
sS'lastScale'
p69
F5.5
sS'maxSteering'
p70
I20
sS'energy'
p71
F0.5
sb.(i__main__
Data_mobile
p1
(dp2
S'vel_y'
p3
I0
sS'vel_x'
p4
I0
sS'pos_x'
p5
I-9579
sS'pos_y'
p6
I9779
sS'isAlive'
p7
I00
sS'geno'
p8
(lp9
S'POINT.*'
p10
a(lp11
S'POINT.-'
p12
aS'target'
p13
aa(lp14
S'POINT./'
p15
aS'POINT.-'
p16
aa(lp17
S'currentVelocity'
p18
aS'POINT./'
p19
a(lp20
(lp21
(lp22
S'cohesion'
p23
aaS'alignment'
p24
a(lp25
S'currentVelocity'
p26
aS'currentVelocity'
p27
aS'alignment'
p28
aaS'POINT.*'
p29
a(lp30
S'separation'
p31
aaa(lp32
S'alignment'
p33
aaS'target'
p34
aS'randV'
p35
aS'cohesion'
p36
aS'POINT.-'
p37
a(lp38
S'POINT.*'
p39
aaaa(lp40
S'alignment'
p41
a(lp42
(lp43
S'target'
p44
aaS'POINT.*'
p45
aS'currentEnergy'
p46
a(lp47
S'POINT./'
p48
aaS'randV'
p49
aS'separation'
p50
a(lp51
S'alignment'
p52
aaa(lp53
S'randV'
p54
a(lp55
(lp56
S'POINT.*'
p57
aaS'cohesion'
p58
aaS'separation'
p59
aS'alignment'
p60
aaa(lp61
S'cohesion'
p62
aasS'accel_x'
p63
F0
sS'accel_y'
p64
F0
sS'visionAngle'
p65
I130
sS'maxAccel'
p66
I2
sS'maxVel'
p67
F0.72999999999999998
sS'age'
p68
I0
sS'lastScale'
p69
F5.5
sS'maxSteering'
p70
I20
sS'energy'
p71
F0.5
sb.