(i__main__
Data_mobile
p1
(dp2
S'vel_y'
p3
F-0.3573020917563392
sS'vel_x'
p4
F-0.7157759532329544
sS'pos_x'
p5
F52.017711363430728
sS'pos_y'
p6
F71.036582902335184
sS'isAlive'
p7
I01
sS'geno'
p8
(lp9
(lp10
(lp11
S'randV'
p12
aS'target'
p13
aaS'randV'
p14
aa(lp15
(lp16
(lp17
S'randV'
p18
aS'currentVelocity'
p19
aa(lp20
(lp21
S'target'
p22
a(lp23
S'POINT.-'
p24
aS'target'
p25
aaaS'target'
p26
aaaS'target'
p27
aasS'accel_x'
p28
F0.050023598496693467
sS'accel_y'
p29
F-1.145183548631465
sS'maxAccel'
p30
I2
sS'maxVel'
p31
F0.80000000000000004
sS'age'
p32
I250
sS'gener'
p33
S'm'
sS'lastScale'
p34
F15.300000405049802
sS'energy'
p35
F0.98000004050498013
sb.(i__main__
Data_mobile
p1
(dp2
S'vel_y'
p3
F0.70028866649036792
sS'vel_x'
p4
F0.38677614143732075
sS'pos_x'
p5
F-14.775163620848755
sS'pos_y'
p6
F50.027050212095553
sS'isAlive'
p7
I01
sS'geno'
p8
(lp9
(lp10
(lp11
(lp12
(lp13
S'target'
p14
aS'randV'
p15
aa(lp16
S'currentVelocity'
p17
aS'target'
p18
aaaS'target'
p19
aaS'target'
p20
aa(lp21
(lp22
S'target'
p23
a(lp24
(lp25
(lp26
S'target'
p27
aS'randV'
p28
aaS'target'
p29
aaS'target'
p30
aaaS'POINT.*'
p31
aasS'accel_x'
p32
F-0.96703952399272453
sS'accel_y'
p33
F1.5736008104983767
sS'maxAccel'
p34
I2
sS'maxVel'
p35
F0.80000000000000004
sS'age'
p36
I100
sS'gener'
p37
S'm'
sS'lastScale'
p38
F15.352082128537274
sS'energy'
p39
F0.98520821285372739
sb.(i__main__
Data_mobile
p1
(dp2
S'vel_y'
p3
F-0.40238490778784164
sS'vel_x'
p4
F0.69143791187970771
sS'pos_x'
p5
F-19.889890470830462
sS'pos_y'
p6
F-81.323636744050916
sS'isAlive'
p7
I01
sS'geno'
p8
(lp9
(lp10
(lp11
(lp12
S'target'
p13
a(lp14
S'currentVelocity'
p15
aS'target'
p16
aaaS'target'
p17
aa(lp18
S'target'
p19
aS'target'
p20
aaa(lp21
(lp22
S'target'
p23
a(lp24
(lp25
(lp26
S'target'
p27
aS'randV'
p28
aaS'target'
p29
aaS'target'
p30
aaaS'target'
p31
aasS'accel_x'
p32
F-0.61292918577555966
sS'accel_y'
p33
F0.7586918930362998
sS'maxAccel'
p34
I2
sS'maxVel'
p35
F0.80000000000000004
sS'age'
p36
I100
sS'gener'
p37
S'm'
sS'lastScale'
p38
F15.352082128537274
sS'energy'
p39
F0.98520821285372739
sb.(i__main__
Data_mobile
p1
(dp2
S'vel_y'
p3
F0.70028866649036792
sS'vel_x'
p4
F0.38677614143732075
sS'pos_x'
p5
F-14.775163620848755
sS'pos_y'
p6
F50.027050212095553
sS'isAlive'
p7
I01
sS'geno'
p8
(lp9
(lp10
(lp11
(lp12
(lp13
S'target'
p14
aS'randV'
p15
aaS'target'
p16
aaS'target'
p17
aaS'target'
p18
aa(lp19
(lp20
S'target'
p21
a(lp22
(lp23
(lp24
S'target'
p25
aS'randV'
p26
aaS'target'
p27
aaS'target'
p28
aaaS'target'
p29
aasS'accel_x'
p30
F-0.96703952399272453
sS'accel_y'
p31
F1.5736008104983767
sS'maxAccel'
p32
I2
sS'maxVel'
p33
F0.80000000000000004
sS'age'
p34
I100
sS'gener'
p35
S'm'
sS'lastScale'
p36
F15.352082128537274
sS'energy'
p37
F0.98520821285372739
sb.(i__main__
Data_mobile
p1
(dp2
S'vel_y'
p3
F0.35223091171306936
sS'vel_x'
p4
F0.71828503035618108
sS'pos_x'
p5
F-186.43049584577184
sS'pos_y'
p6
F-93.55834688231397
sS'isAlive'
p7
I01
sS'geno'
p8
(lp9
(lp10
S'randV'
p11
aS'target'
p12
aa(lp13
(lp14
S'target'
p15
a(lp16
(lp17
(lp18
(lp19
(lp20
S'randV'
p21
aS'target'
p22
aaS'randV'
p23
aa(lp24
(lp25
(lp26
S'randV'
p27
aS'currentVelocity'
p28
aa(lp29
(lp30
(lp31
(lp32
(lp33
S'target'
p34
a(lp35
S'currentVelocity'
p36
aS'target'
p37
aaaS'target'
p38
aaS'target'
p39
aa(lp40
S'POINT.-'
p41
aS'POINT.-'
p42
aaaS'target'
p43
aaaS'target'
p44
aaaS'target'
p45
aaS'target'
p46
aaaS'target'
p47
aasS'accel_x'
p48
F0
sS'accel_y'
p49
F0
sS'maxAccel'
p50
I2
sS'maxVel'
p51
F0.80000000000000004
sS'age'
p52
I100
sS'gener'
p53
S'm'
sS'lastScale'
p54
F14.920713847593767
sS'energy'
p55
F0.94207138475937657
sb.(i__main__
Data_mobile
p1
(dp2
S'vel_y'
p3
F0.35223083143276024
sS'vel_x'
p4
F0.71828506972384332
sS'pos_x'
p5
F-186.43049595080558
sS'pos_y'
p6
F-93.558347027568331
sS'isAlive'
p7
I01
sS'geno'
p8
(lp9
(lp10
(lp11
S'randV'
p12
aS'target'
p13
aaS'randV'
p14
aa(lp15
(lp16
(lp17
S'randV'
p18
aS'currentVelocity'
p19
aaS'randV'
p20
aaS'target'
p21
aasS'accel_x'
p22
F0
sS'accel_y'
p23
F0
sS'maxAccel'
p24
I2
sS'maxVel'
p25
F0.80000000000000004
sS'age'
p26
I100
sS'gener'
p27
S'm'
sS'lastScale'
p28
F14.920713847593767
sS'energy'
p29
F0.94207138475937657
sb.(i__main__
Data_mobile
p1
(dp2
S'vel_y'
p3
F0.76138781079659124
sS'vel_x'
p4
F-0.24553737306237966
sS'pos_x'
p5
F-117.4511531672737
sS'pos_y'
p6
F39.290704311222612
sS'isAlive'
p7
I01
sS'geno'
p8
(lp9
(lp10
(lp11
S'randV'
p12
aS'target'
p13
aaS'randV'
p14
aa(lp15
(lp16
(lp17
S'randV'
p18
aS'target'
p19
aaS'target'
p20
aaS'target'
p21
aasS'accel_x'
p22
F-1.7806377212134477
sS'accel_y'
p23
F0.91067519225670157
sS'maxAccel'
p24
I2
sS'maxVel'
p25
F0.80000000000000004
sS'age'
p26
I100
sS'gener'
p27
S'm'
sS'lastScale'
p28
F12.778003970063317
sS'energy'
p29
F0.7278003970063317
sb.(i__main__
Data_mobile
p1
(dp2
S'vel_y'
p3
F0.083178863585530949
sS'vel_x'
p4
F0.79566404760590992
sS'pos_x'
p5
F-186.8900704556379
sS'pos_y'
p6
F-94.117320096063565
sS'isAlive'
p7
I01
sS'geno'
p8
(lp9
(lp10
(lp11
(lp12
S'randV'
p13
aS'currentVelocity'
p14
aa(lp15
(lp16
S'target'
p17
aS'target'
p18
aaS'target'
p19
aaaS'target'
p20
aa(lp21
(lp22
S'target'
p23
a(lp24
(lp25
(lp26
S'currentVelocity'
p27
aS'randV'
p28
aaS'target'
p29
aaS'target'
p30
aaaS'target'
p31
aasS'accel_x'
p32
F0
sS'accel_y'
p33
F0
sS'maxAccel'
p34
I2
sS'maxVel'
p35
F0.80000000000000004
sS'age'
p36
I150
sS'gener'
p37
S'm'
sS'lastScale'
p38
F9.1897966932776676
sS'energy'
p39
F0.36897966932776682
sb.(i__main__
Data_mobile
p1
(dp2
S'vel_y'
p3
F0.085144040257097806
sS'vel_x'
p4
F0.79545615366825695
sS'pos_x'
p5
F-186.88816490383925
sS'pos_y'
p6
F-94.116421767465667
sS'isAlive'
p7
I01
sS'geno'
p8
(lp9
S'target'
p10
a(lp11
(lp12
S'target'
p13
a(lp14
(lp15
(lp16
S'target'
p17
aS'randV'
p18
aaS'target'
p19
aa(lp20
S'target'
p21
a(lp22
(lp23
(lp24
S'target'
p25
aS'randV'
p26
aaS'target'
p27
aaS'target'
p28
aaaaaS'target'
p29
aasS'accel_x'
p30
F0
sS'accel_y'
p31
F0
sS'maxAccel'
p32
I2
sS'maxVel'
p33
F0.80000000000000004
sS'age'
p34
I150
sS'gener'
p35
S'm'
sS'lastScale'
p36
F9.0439537415993474
sS'energy'
p37
F0.35439537415993472
sb.(i__main__
Data_mobile
p1
(dp2
S'vel_y'
p3
F-0.25680994536304408
sS'vel_x'
p4
F0.75765998440107052
sS'pos_x'
p5
F-186.75037242996021
sS'pos_y'
p6
F-94.227482183658694
sS'isAlive'
p7
I01
sS'geno'
p8
(lp9
(lp10
S'randV'
p11
aS'target'
p12
aa(lp13
(lp14
S'target'
p15
a(lp16
(lp17
(lp18
S'target'
p19
aS'randV'
p20
aaS'target'
p21
aaS'target'
p22
aaaS'target'
p23
aasS'accel_x'
p24
F0
sS'accel_y'
p25
F0
sS'maxAccel'
p26
I2
sS'maxVel'
p27
F0.80000000000000004
sS'age'
p28
I100
sS'gener'
p29
S'm'
sS'lastScale'
p30
F8.3935453129045303
sS'energy'
p31
F0.28935453129045302
sb.(i__main__
Data_mobile
p1
(dp2
S'vel_y'
p3
F-0.25680994536304408
sS'vel_x'
p4
F0.75765998440107052
sS'pos_x'
p5
F-186.75037242996021
sS'pos_y'
p6
F-94.227482183658694
sS'isAlive'
p7
I01
sS'geno'
p8
(lp9
S'target'
p10
a(lp11
(lp12
(lp13
S'target'
p14
a(lp15
S'target'
p16
aS'target'
p17
aaaS'target'
p18
aaS'target'
p19
aasS'accel_x'
p20
F0
sS'accel_y'
p21
F0
sS'maxAccel'
p22
I2
sS'maxVel'
p23
F0.80000000000000004
sS'age'
p24
I100
sS'gener'
p25
S'm'
sS'lastScale'
p26
F7.6933263221155652
sS'energy'
p27
F0.21933263221155647
sb.(i__main__
Data_mobile
p1
(dp2
S'vel_y'
p3
F0.79769579236375698
sS'vel_x'
p4
F-0.060674729872970269
sS'pos_x'
p5
F-114.20852652513533
sS'pos_y'
p6
F40.139157209681443
sS'isAlive'
p7
I01
sS'geno'
p8
(lp9
(lp10
S'target'
p11
a(lp12
S'currentVelocity'
p13
aS'target'
p14
aaaS'target'
p15
asS'accel_x'
p16
F0
sS'accel_y'
p17
F0
sS'maxAccel'
p18
I2
sS'maxVel'
p19
F0.80000000000000004
sS'age'
p20
I100
sS'gener'
p21
S'm'
sS'lastScale'
p22
F6.6933263221155634
sS'energy'
p23
F0.11933263221155635
sb.(i__main__
Data_mobile
p1
(dp2
S'vel_y'
p3
F0.78503168369888476
sS'vel_x'
p4
F-0.15403004768191894
sS'pos_x'
p5
F-115.98044046522118
sS'pos_y'
p6
F39.850791746242571
sS'isAlive'
p7
I01
sS'geno'
p8
(lp9
S'target'
p10
a(lp11
(lp12
(lp13
(lp14
(lp15
S'target'
p16
a(lp17
(lp18
(lp19
(lp20
(lp21
S'randV'
p22
aS'target'
p23
aaS'randV'
p24
aa(lp25
(lp26
(lp27
(lp28
(lp29
S'target'
p30
aS'target'
p31
aaS'target'
p32
aaS'currentVelocity'
p33
aa(lp34
(lp35
S'target'
p36
a(lp37
S'POINT.-'
p38
aS'POINT.-'
p39
aaaS'target'
p40
aaaS'target'
p41
aaaS'target'
p42
aaS'target'
p43
aaaS'target'
p44
aa(lp45
S'currentVelocity'
p46
aS'target'
p47
aaaS'target'
p48
aaS'target'
p49
aasS'accel_x'
p50
F0
sS'accel_y'
p51
F0
sS'maxAccel'
p52
I2
sS'maxVel'
p53
F0.80000000000000004
sS'age'
p54
I150
sS'gener'
p55
S'm'
sS'lastScale'
p56
F6.0816851093399897
sS'energy'
p57
F0.058168510933998968
sb.(i__main__
Data_mobile
p1
(dp2
S'vel_y'
p3
F-0.35725217762001943
sS'vel_x'
p4
F-0.7158008672708871
sS'pos_x'
p5
F52.017794505105442
sS'pos_y'
p6
F71.03665138119645
sS'isAlive'
p7
I01
sS'geno'
p8
(lp9
(lp10
(lp11
S'randV'
p12
aS'target'
p13
aaS'randV'
p14
aa(lp15
(lp16
(lp17
S'randV'
p18
aS'currentVelocity'
p19
aa(lp20
(lp21
S'target'
p22
aS'randV'
p23
aaS'target'
p24
aaaS'target'
p25
aasS'accel_x'
p26
F0.049940456821978785
sS'accel_y'
p27
F-1.1452520274927309
sS'maxAccel'
p28
I2
sS'maxVel'
p29
F0.80000000000000004
sS'age'
p30
I50
sS'gener'
p31
S'm'
sS'lastScale'
p32
F15.398593637295674
sS'energy'
p33
F0.98985936372956751
sb.(i__main__
Data_mobile
p1
(dp2
S'vel_y'
p3
F0.49523869703238699
sS'vel_x'
p4
F-0.62828228763961169
sS'pos_x'
p5
F-125.99173289029156
sS'pos_y'
p6
F36.765264436571634
sS'isAlive'
p7
I01
sS'geno'
p8
(lp9
S'target'
p10
a(lp11
(lp12
(lp13
S'target'
p14
a(lp15
S'currentVelocity'
p16
aS'target'
p17
aaaS'target'
p18
aaS'target'
p19
aasS'accel_x'
p20
F-1.5664189896528726
sS'accel_y'
p21
F1.2435158016104475
sS'maxAccel'
p22
I2
sS'maxVel'
p23
F0.80000000000000004
sS'age'
p24
I50
sS'gener'
p25
S'm'
sS'lastScale'
p26
F12.482567602243996
sS'energy'
p27
F0.69825676022439964
sb.(i__main__
Data_mobile
p1
(dp2
S'vel_y'
p3
F0.071726960779163615
sS'vel_x'
p4
F0.7967780387895893
sS'pos_x'
p5
F-186.90086673320579
sS'pos_y'
p6
F-94.122418933540246
sS'isAlive'
p7
I01
sS'geno'
p8
(lp9
(lp10
(lp11
(lp12
S'randV'
p13
aS'currentVelocity'
p14
aa(lp15
(lp16
S'target'
p17
aS'target'
p18
aaS'target'
p19
aaaS'target'
p20
aa(lp21
(lp22
S'target'
p23
a(lp24
(lp25
(lp26
S'currentVelocity'
p27
aS'randV'
p28
aaS'target'
p29
aaS'target'
p30
aaaS'target'
p31
aasS'accel_x'
p32
F0
sS'accel_y'
p33
F0
sS'maxAccel'
p34
I2
sS'maxVel'
p35
F0.80000000000000004
sS'age'
p36
I50
sS'gener'
p37
S'm'
sS'lastScale'
p38
F11.482567602243996
sS'energy'
p39
F0.59825676022439955
sb.(i__main__
Data_mobile
p1
(dp2
S'vel_y'
p3
F0.011787114539822376
sS'vel_x'
p4
F0.79991316024355119
sS'pos_x'
p5
F-186.94999142335587
sS'pos_y'
p6
F-94.146620127787898
sS'isAlive'
p7
I01
sS'geno'
p8
(lp9
(lp10
S'randV'
p11
aS'target'
p12
aa(lp13
(lp14
S'target'
p15
a(lp16
(lp17
(lp18
S'target'
p19
aS'randV'
p20
aaS'target'
p21
aaS'target'
p22
aaaS'target'
p23
aasS'accel_x'
p24
F0
sS'accel_y'
p25
F0
sS'maxAccel'
p26
I2
sS'maxVel'
p27
F0.80000000000000004
sS'age'
p28
I50
sS'gener'
p29
S'm'
sS'lastScale'
p30
F9.4825676022439964
sS'energy'
p31
F0.39825676022439971
sb.(i__main__
Data_mobile
p1
(dp2
S'vel_y'
p3
F-0.5480630603526685
sS'vel_x'
p4
F-0.58277515550756565
sS'pos_x'
p5
F-70.714175094891104
sS'pos_y'
p6
F-14.926922713454701
sS'isAlive'
p7
I01
sS'geno'
p8
(lp9
(lp10
(lp11
S'randV'
p12
aS'target'
p13
aaS'randV'
p14
aa(lp15
(lp16
(lp17
(lp18
S'randV'
p19
aS'target'
p20
aaS'randV'
p21
aa(lp22
S'mostEnergizedNeighbor'
p23
aS'target'
p24
aaaS'target'
p25
aasS'accel_x'
p26
F0
sS'accel_y'
p27
F0
sS'maxAccel'
p28
I2
sS'maxVel'
p29
F0.80000000000000004
sS'age'
p30
I50
sS'gener'
p31
S'm'
sS'lastScale'
p32
F8.4825676022439964
sS'energy'
p33
F0.29825676022439962
sb.(i__main__
Data_mobile
p1
(dp2
S'vel_y'
p3
F-0.1632636333755503
sS'vel_x'
p4
F0.78316344783002612
sS'pos_x'
p5
F-186.67165519822896
sS'pos_y'
p6
F-94.158001564820893
sS'isAlive'
p7
I01
sS'geno'
p8
(lp9
(lp10
S'randV'
p11
aS'target'
p12
aa(lp13
(lp14
S'target'
p15
a(lp16
(lp17
(lp18
S'currentVelocity'
p19
aS'randV'
p20
aaS'target'
p21
aaS'target'
p22
aaaS'target'
p23
aasS'accel_x'
p24
F0
sS'accel_y'
p25
F0
sS'maxAccel'
p26
I2
sS'maxVel'
p27
F0.80000000000000004
sS'age'
p28
I50
sS'gener'
p29
S'm'
sS'lastScale'
p30
F7.4825676022439973
sS'energy'
p31
F0.19825676022439973
sb.(i__main__
Data_mobile
p1
(dp2
S'vel_y'
p3
F-0.14050253060529969
sS'vel_x'
p4
F0.78756526008547822
sS'pos_x'
p5
F-186.65257888622654
sS'pos_y'
p6
F-94.139872993958832
sS'isAlive'
p7
I01
sS'geno'
p8
(lp9
S'target'
p10
a(lp11
(lp12
S'target'
p13
a(lp14
(lp15
(lp16
S'target'
p17
aS'randV'
p18
aaS'target'
p19
aa(lp20
(lp21
S'POINT.+'
p22
aa(lp23
S'POINT.-'
p24
aS'mostEnergizedNeighbor'
p25
aaS'currentVelocity'
p26
aaaaS'target'
p27
aasS'accel_x'
p28
F0
sS'accel_y'
p29
F0
sS'maxAccel'
p30
I2
sS'maxVel'
p31
F0.80000000000000004
sS'age'
p32
I50
sS'gener'
p33
S'm'
sS'lastScale'
p34
F7.4825676022439973
sS'energy'
p35
F0.19825676022439973
sb.(i__main__
Data_mobile
p1
(dp2
S'vel_y'
p3
F-0.22721656522323785
sS'vel_x'
p4
F0.76705451728554086
sS'pos_x'
p5
F-186.72526333882163
sS'pos_y'
p6
F-94.20626374921595
sS'isAlive'
p7
I01
sS'geno'
p8
(lp9
S'target'
p10
a(lp11
(lp12
S'target'
p13
a(lp14
S'target'
p15
a(lp16
S'target'
p17
a(lp18
(lp19
(lp20
S'target'
p21
aS'randV'
p22
aaS'target'
p23
aaS'target'
p24
aaaaaS'target'
p25
aasS'accel_x'
p26
F0
sS'accel_y'
p27
F0
sS'maxAccel'
p28
I2
sS'maxVel'
p29
F0.80000000000000004
sS'age'
p30
I50
sS'gener'
p31
S'm'
sS'lastScale'
p32
F7.4825676022439973
sS'energy'
p33
F0.19825676022439973
sb.(i__main__
Data_mobile
p1
(dp2
S'vel_y'
p3
F-0.79615990204845433
sS'vel_x'
p4
F0.078290550963673711
sS'pos_x'
p5
F-49.389179413706593
sS'pos_y'
p6
F-22.089687171407551
sS'isAlive'
p7
I01
sS'geno'
p8
(lp9
(lp10
S'target'
p11
aS'target'
p12
aaS'target'
p13
asS'accel_x'
p14
F0
sS'accel_y'
p15
F0
sS'maxAccel'
p16
I2
sS'maxVel'
p17
F0.80000000000000004
sS'age'
p18
I50
sS'gener'
p19
S'm'
sS'lastScale'
p20
F6.4825676022439964
sS'energy'
p21
F0.098256760224399664
sb.(i__main__
Data_mobile
p1
(dp2
S'vel_y'
p3
F0.76384894624612476
sS'vel_x'
p4
F-0.2330064642976977
sS'pos_x'
p5
F-115.7863557022055
sS'pos_y'
p6
F39.726308650071978
sS'isAlive'
p7
I01
sS'geno'
p8
(lp9
(lp10
S'randV'
p11
a(lp12
S'currentVelocity'
p13
aS'target'
p14
aaaS'target'
p15
asS'accel_x'
p16
F0
sS'accel_y'
p17
F0
sS'maxAccel'
p18
I2
sS'maxVel'
p19
F0.80000000000000004
sS'age'
p20
I0
sS'gener'
p21
S'm'
sS'lastScale'
p22
F5.5
sS'energy'
p23
F0.5
sb.(i__main__
Data_mobile
p1
(dp2
S'vel_y'
p3
F0.62085918073650936
sS'vel_x'
p4
F0.46242904733653312
sS'pos_x'
p5
F-108.12827376834512
sS'pos_y'
p6
F-28.060494268973791
sS'isAlive'
p7
I01
sS'geno'
p8
(lp9
(lp10
S'randV'
p11
aS'target'
p12
aa(lp13
(lp14
S'target'
p15
a(lp16
(lp17
(lp18
(lp19
S'randV'
p20
aS'randV'
p21
aa(lp22
(lp23
(lp24
S'randV'
p25
aS'currentVelocity'
p26
aa(lp27
(lp28
(lp29
(lp30
(lp31
S'target'
p32
a(lp33
S'currentVelocity'
p34
aS'target'
p35
aaaS'target'
p36
aaS'target'
p37
aa(lp38
S'POINT.-'
p39
aS'POINT.-'
p40
aaaS'target'
p41
aaaS'target'
p42
aaaS'target'
p43
aaS'target'
p44
aaaS'target'
p45
aasS'accel_x'
p46
F0
sS'accel_y'
p47
F0
sS'maxAccel'
p48
I2
sS'maxVel'
p49
F0.80000000000000004
sS'age'
p50
I0
sS'gener'
p51
S'm'
sS'lastScale'
p52
F5.5
sS'energy'
p53
F0.5
sb.(i__main__
Data_mobile
p1
(dp2
S'vel_y'
p3
F0.080137817820020704
sS'vel_x'
p4
F0.78768812140660105
sS'pos_x'
p5
F-174.73487407242814
sS'pos_y'
p6
F-74.592129947170207
sS'isAlive'
p7
I01
sS'geno'
p8
(lp9
S'target'
p10
a(lp11
(lp12
S'target'
p13
a(lp14
(lp15
(lp16
S'target'
p17
aS'randV'
p18
aaS'target'
p19
aa(lp20
S'target'
p21
a(lp22
(lp23
(lp24
S'target'
p25
aS'randV'
p26
aaS'target'
p27
aa(lp28
S'target'
p29
a(lp30
(lp31
(lp32
S'target'
p33
aS'randV'
p34
aaS'target'
p35
aaS'target'
p36
aaaaaaaS'target'
p37
aasS'accel_x'
p38
F0
sS'accel_y'
p39
F0
sS'maxAccel'
p40
I2
sS'maxVel'
p41
F0.80000000000000004
sS'age'
p42
I0
sS'gener'
p43
S'm'
sS'lastScale'
p44
F5.5
sS'energy'
p45
F0.5
sb.(i__main__
Data_mobile
p1
(dp2
S'vel_y'
p3
F0.7902495915129446
sS'vel_x'
p4
F-0.098587175334968385
sS'pos_x'
p5
F-115.96785576854381
sS'pos_y'
p6
F39.678818058539164
sS'isAlive'
p7
I01
sS'geno'
p8
(lp9
(lp10
(lp11
S'randV'
p12
aS'target'
p13
aaS'randV'
p14
aa(lp15
(lp16
(lp17
(lp18
S'target'
p19
a(lp20
S'currentVelocity'
p21
aS'target'
p22
aaaS'target'
p23
aaS'target'
p24
aaS'target'
p25
aasS'accel_x'
p26
F0
sS'accel_y'
p27
F0
sS'maxAccel'
p28
I2
sS'maxVel'
p29
F0.80000000000000004
sS'age'
p30
I0
sS'gener'
p31
S'm'
sS'lastScale'
p32
F5.5
sS'energy'
p33
F0.5
sb.(i__main__
Data_mobile
p1
(dp2
S'vel_y'
p3
F0.50054871665939582
sS'vel_x'
p4
F0.41934865869918886
sS'pos_x'
p5
F-159.46267005957304
sS'pos_y'
p6
F-42.490190984914989
sS'isAlive'
p7
I01
sS'geno'
p8
(lp9
S'target'
p10
a(lp11
(lp12
(lp13
(lp14
(lp15
S'target'
p16
a(lp17
(lp18
(lp19
(lp20
(lp21
S'randV'
p22
aS'target'
p23
aaS'randV'
p24
aa(lp25
(lp26
(lp27
(lp28
(lp29
S'target'
p30
aS'target'
p31
aaS'target'
p32
aaS'currentVelocity'
p33
aa(lp34
(lp35
S'target'
p36
a(lp37
S'POINT.-'
p38
aS'POINT.-'
p39
aaaS'target'
p40
aaaS'target'
p41
aaaS'target'
p42
aaS'target'
p43
aaaS'target'
p44
aa(lp45
S'currentVelocity'
p46
a(lp47
(lp48
S'randV'
p49
aS'currentVelocity'
p50
aaS'randV'
p51
aaaaS'target'
p52
aaS'target'
p53
aasS'accel_x'
p54
F0
sS'accel_y'
p55
F0
sS'maxAccel'
p56
I2
sS'maxVel'
p57
F0.80000000000000004
sS'age'
p58
I0
sS'gener'
p59
S'm'
sS'lastScale'
p60
F5.5
sS'energy'
p61
F0.5
sb.(i__main__
Data_mobile
p1
(dp2
S'vel_y'
p3
F0.078718151148651952
sS'vel_x'
p4
F0.7854852595396743
sS'pos_x'
p5
F-171.76077995342885
sS'pos_y'
p6
F-69.814240379162158
sS'isAlive'
p7
I01
sS'geno'
p8
(lp9
(lp10
(lp11
S'randV'
p12
aS'target'
p13
aa(lp14
S'target'
p15
aS'currentVelocity'
p16
aaa(lp17
(lp18
S'target'
p19
a(lp20
(lp21
(lp22
S'target'
p23
aS'randV'
p24
aaS'target'
p25
aaS'target'
p26
aaaS'target'
p27
aasS'accel_x'
p28
F0
sS'accel_y'
p29
F0
sS'maxAccel'
p30
I2
sS'maxVel'
p31
F0.80000000000000004
sS'age'
p32
I0
sS'gener'
p33
S'm'
sS'lastScale'
p34
F5.5
sS'energy'
p35
F0.5
sb.(i__main__
Data_mobile
p1
(dp2
S'vel_y'
p3
F0.70351186008937905
sS'vel_x'
p4
F-0.0016479276715939337
sS'pos_x'
p5
F-81.798216118676265
sS'pos_y'
p6
F-1.5985843391857664
sS'isAlive'
p7
I01
sS'geno'
p8
(lp9
(lp10
S'target'
p11
a(lp12
S'currentVelocity'
p13
aS'target'
p14
aaaS'target'
p15
asS'accel_x'
p16
F0
sS'accel_y'
p17
F0
sS'maxAccel'
p18
I2
sS'maxVel'
p19
F0.80000000000000004
sS'age'
p20
I0
sS'gener'
p21
S'm'
sS'lastScale'
p22
F5.5
sS'energy'
p23
F0.5
sb.(i__main__
Data_mobile
p1
(dp2
S'vel_y'
p3
F0.385926232795825
sS'vel_x'
p4
F0.68619179783775675
sS'pos_x'
p5
F-48.57852299828027
sS'pos_y'
p6
F21.75138457198782
sS'isAlive'
p7
I01
sS'geno'
p8
(lp9
(lp10
(lp11
(lp12
S'POINT.-'
p13
aS'POINT.-'
p14
aaS'target'
p15
aaS'target'
p16
aa(lp17
(lp18
S'target'
p19
a(lp20
(lp21
(lp22
S'target'
p23
aS'randV'
p24
aaS'target'
p25
aaS'target'
p26
aaaS'target'
p27
aasS'accel_x'
p28
F0
sS'accel_y'
p29
F0
sS'maxAccel'
p30
I2
sS'maxVel'
p31
F0.80000000000000004
sS'age'
p32
I0
sS'gener'
p33
S'm'
sS'lastScale'
p34
F5.5
sS'energy'
p35
F0.5
sb.(i__main__
Data_mobile
p1
(dp2
S'vel_y'
p3
F0.65316482852781321
sS'vel_x'
p4
F0.43165941425666798
sS'pos_x'
p5
F-146.80605234264468
sS'pos_y'
p6
F-60.413489794003624
sS'isAlive'
p7
I01
sS'geno'
p8
(lp9
(lp10
S'randV'
p11
aS'target'
p12
aa(lp13
(lp14
S'target'
p15
a(lp16
(lp17
(lp18
(lp19
(lp20
S'randV'
p21
aS'target'
p22
aaS'randV'
p23
aa(lp24
(lp25
(lp26
S'randV'
p27
aS'currentVelocity'
p28
aa(lp29
S'POINT.*'
p30
aS'target'
p31
aaaS'target'
p32
aaaS'target'
p33
aaS'target'
p34
aaaS'separation'
p35
aasS'accel_x'
p36
F0
sS'accel_y'
p37
F0
sS'maxAccel'
p38
I2
sS'maxVel'
p39
F0.80000000000000004
sS'age'
p40
I0
sS'gener'
p41
S'm'
sS'lastScale'
p42
F5.5
sS'energy'
p43
F0.5
sb.(i__main__
Data_mobile
p1
(dp2
S'vel_y'
p3
F-0.098446900858371725
sS'vel_x'
p4
F0.78165207571429263
sS'pos_x'
p5
F-186.56700560659502
sS'pos_y'
p6
F-93.915798717674917
sS'isAlive'
p7
I01
sS'geno'
p8
(lp9
S'target'
p10
a(lp11
(lp12
S'target'
p13
a(lp14
(lp15
(lp16
S'target'
p17
aS'randV'
p18
aaS'target'
p19
aa(lp20
S'target'
p21
a(lp22
S'POINT.-'
p23
aS'mostEnergizedNeighbor'
p24
aaS'currentVelocity'
p25
aaaaS'target'
p26
aasS'accel_x'
p27
F0
sS'accel_y'
p28
F0
sS'maxAccel'
p29
I2
sS'maxVel'
p30
F0.80000000000000004
sS'age'
p31
I0
sS'gener'
p32
S'm'
sS'lastScale'
p33
F5.5
sS'energy'
p34
F0.5
sb.(i__main__
Data_mobile
p1
(dp2
S'vel_y'
p3
F-0.10286677680344758
sS'vel_x'
p4
F0.50372439168140759
sS'pos_x'
p5
F-108.1636822691768
sS'pos_y'
p6
F32.354654559312799
sS'isAlive'
p7
I01
sS'geno'
p8
(lp9
(lp10
(lp11
(lp12
S'target'
p13
a(lp14
S'currentVelocity'
p15
aS'target'
p16
aaaS'target'
p17
aa(lp18
S'target'
p19
aS'currentVelocity'
p20
aaa(lp21
(lp22
S'target'
p23
a(lp24
(lp25
(lp26
S'target'
p27
aS'randV'
p28
aaS'target'
p29
aaS'target'
p30
aaaS'target'
p31
aasS'accel_x'
p32
F0
sS'accel_y'
p33
F0
sS'maxAccel'
p34
I2
sS'maxVel'
p35
F0.80000000000000004
sS'age'
p36
I0
sS'gener'
p37
S'm'
sS'lastScale'
p38
F5.5
sS'energy'
p39
F0.5
sb.(i__main__
Data_mobile
p1
(dp2
S'vel_y'
p3
F0.27626697296891972
sS'vel_x'
p4
F0.72896585425677696
sS'pos_x'
p5
F-186.60301809686916
sS'pos_y'
p6
F-94.010097694295979
sS'isAlive'
p7
I01
sS'geno'
p8
(lp9
(lp10
S'randV'
p11
aS'target'
p12
aa(lp13
(lp14
S'target'
p15
a(lp16
(lp17
(lp18
(lp19
(lp20
S'randV'
p21
aS'target'
p22
aaS'randV'
p23
aa(lp24
(lp25
(lp26
S'randV'
p27
aS'currentVelocity'
p28
aa(lp29
(lp30
(lp31
(lp32
(lp33
S'target'
p34
a(lp35
S'currentVelocity'
p36
aS'target'
p37
aaaS'target'
p38
aaS'target'
p39
aa(lp40
S'POINT.-'
p41
aS'POINT.-'
p42
aaaS'target'
p43
aaaS'target'
p44
aaaS'target'
p45
aaS'target'
p46
aaaS'target'
p47
aasS'accel_x'
p48
F0
sS'accel_y'
p49
F0
sS'maxAccel'
p50
I2
sS'maxVel'
p51
F0.80000000000000004
sS'age'
p52
I0
sS'gener'
p53
S'm'
sS'lastScale'
p54
F5.5
sS'energy'
p55
F0.5
sb.(i__main__
Data_mobile
p1
(dp2
S'vel_y'
p3
F-0.20959038071228039
sS'vel_x'
p4
F-0.56178457693826223
sS'pos_x'
p5
F35.141503961694511
sS'pos_y'
p6
F65.728213840852334
sS'isAlive'
p7
I01
sS'geno'
p8
(lp9
(lp10
(lp11
(lp12
(lp13
S'target'
p14
aS'randV'
p15
aaS'target'
p16
aaS'target'
p17
aaS'target'
p18
aa(lp19
(lp20
S'target'
p21
aS'currentVelocity'
p22
aaS'target'
p23
aasS'accel_x'
p24
F0
sS'accel_y'
p25
F0
sS'maxAccel'
p26
I2
sS'maxVel'
p27
F0.80000000000000004
sS'age'
p28
I0
sS'gener'
p29
S'm'
sS'lastScale'
p30
F5.5
sS'energy'
p31
F0.5
sb.(i__main__
Data_mobile
p1
(dp2
S'vel_y'
p3
F0.29406516257263376
sS'vel_x'
p4
F-0.03671713481946523
sS'pos_x'
p5
F13.921548075391989
sS'pos_y'
p6
F59.053529497894417
sS'isAlive'
p7
I01
sS'geno'
p8
(lp9
S'target'
p10
a(lp11
(lp12
(lp13
S'randV'
p14
aS'currentVelocity'
p15
aa(lp16
(lp17
S'target'
p18
a(lp19
S'POINT.-'
p20
aS'target'
p21
aaaS'target'
p22
aaaS'target'
p23
aasS'accel_x'
p24
F0
sS'accel_y'
p25
F0
sS'maxAccel'
p26
I2
sS'maxVel'
p27
F0.80000000000000004
sS'age'
p28
I0
sS'gener'
p29
S'm'
sS'lastScale'
p30
F5.5
sS'energy'
p31
F0.5
sb.(i__main__
Data_mobile
p1
(dp2
S'vel_y'
p3
F0.47727684858058783
sS'vel_x'
p4
F0.46625337764584712
sS'pos_x'
p5
F-123.92058006854785
sS'pos_y'
p6
F24.814789589503405
sS'isAlive'
p7
I01
sS'geno'
p8
(lp9
(lp10
(lp11
S'randV'
p12
aS'target'
p13
aaS'randV'
p14
aa(lp15
(lp16
(lp17
(lp18
(lp19
(lp20
(lp21
(lp22
S'target'
p23
aS'target'
p24
aaS'target'
p25
aaS'currentVelocity'
p26
aa(lp27
(lp28
S'target'
p29
a(lp30
S'POINT.-'
p31
aS'POINT.-'
p32
aaaS'target'
p33
aaaS'target'
p34
aaS'currentVelocity'
p35
aaS'randV'
p36
aaS'target'
p37
aasS'accel_x'
p38
F0
sS'accel_y'
p39
F0
sS'maxAccel'
p40
I2
sS'maxVel'
p41
F0.80000000000000004
sS'age'
p42
I0
sS'gener'
p43
S'm'
sS'lastScale'
p44
F5.5
sS'energy'
p45
F0.5
sb.(i__main__
Data_mobile
p1
(dp2
S'vel_y'
p3
F0.4903838368228608
sS'vel_x'
p4
F0.5867007686196728
sS'pos_x'
p5
F-147.22339349704265
sS'pos_y'
p6
F-60.76258524359649
sS'isAlive'
p7
I01
sS'geno'
p8
(lp9
(lp10
(lp11
(lp12
(lp13
S'target'
p14
aS'randV'
p15
aa(lp16
S'currentVelocity'
p17
aS'target'
p18
aaaS'target'
p19
aaS'target'
p20
aa(lp21
(lp22
S'currentVelocity'
p23
aS'target'
p24
aaS'POINT.*'
p25
aasS'accel_x'
p26
F0
sS'accel_y'
p27
F0
sS'maxAccel'
p28
I2
sS'maxVel'
p29
F0.80000000000000004
sS'age'
p30
I0
sS'gener'
p31
S'm'
sS'lastScale'
p32
F5.5
sS'energy'
p33
F0.5
sb.(i__main__
Data_mobile
p1
(dp2
S'vel_y'
p3
F-0.14365147914714188
sS'vel_x'
p4
F0.42832474254703728
sS'pos_x'
p5
F-41.441230321877939
sS'pos_y'
p6
F-40.577656331660634
sS'isAlive'
p7
I01
sS'geno'
p8
(lp9
(lp10
(lp11
S'randV'
p12
aS'target'
p13
aaS'randV'
p14
aa(lp15
(lp16
(lp17
(lp18
(lp19
S'target'
p20
a(lp21
S'currentVelocity'
p22
aS'target'
p23
aaaS'target'
p24
aaS'target'
p25
aa(lp26
S'mostEnergizedNeighbor'
p27
aS'target'
p28
aaaS'target'
p29
aasS'accel_x'
p30
F0
sS'accel_y'
p31
F0
sS'maxAccel'
p32
I2
sS'maxVel'
p33
F0.80000000000000004
sS'age'
p34
I50
sS'gener'
p35
S'm'
sS'lastScale'
p36
F5.5
sS'energy'
p37
I0
sb.(i__main__
Data_mobile
p1
(dp2
S'vel_y'
p3
F0.011252998102876277
sS'vel_x'
p4
F0.44794028225239557
sS'pos_x'
p5
F-80.517436898122554
sS'pos_y'
p6
F-68.445307681311476
sS'isAlive'
p7
I01
sS'geno'
p8
(lp9
S'target'
p10
a(lp11
(lp12
(lp13
S'target'
p14
a(lp15
(lp16
(lp17
(lp18
S'randV'
p19
aS'target'
p20
aaS'randV'
p21
aa(lp22
(lp23
(lp24
S'randV'
p25
aS'target'
p26
aa(lp27
S'mostEnergizedNeighbor'
p28
aS'target'
p29
aaaS'target'
p30
aaaS'target'
p31
aaaS'target'
p32
aaS'target'
p33
aasS'accel_x'
p34
F0
sS'accel_y'
p35
F0
sS'maxAccel'
p36
I2
sS'maxVel'
p37
F0.80000000000000004
sS'age'
p38
I50
sS'gener'
p39
S'm'
sS'lastScale'
p40
F5.5
sS'energy'
p41
I0
sb.(i__main__
Data_mobile
p1
(dp2
S'vel_y'
p3
F0.61443173352066638
sS'vel_x'
p4
F-0.51232181765252671
sS'pos_x'
p5
F-116.43447061965637
sS'pos_y'
p6
F29.861140330447871
sS'isAlive'
p7
I01
sS'geno'
p8
(lp9
S'target'
p10
a(lp11
(lp12
(lp13
S'target'
p14
a(lp15
S'currentVelocity'
p16
aS'target'
p17
aaaS'target'
p18
aa(lp19
S'target'
p20
aS'target'
p21
aaasS'accel_x'
p22
F0
sS'accel_y'
p23
F0
sS'maxAccel'
p24
I2
sS'maxVel'
p25
F0.80000000000000004
sS'age'
p26
I50
sS'gener'
p27
S'm'
sS'lastScale'
p28
F5.5
sS'energy'
p29
I0
sb.(i__main__
Data_mobile
p1
(dp2
S'vel_y'
p3
F-0.22239875580725174
sS'vel_x'
p4
F0.76846521939212475
sS'pos_x'
p5
F-34.627123342559088
sS'pos_y'
p6
F-3.1635166257683491
sS'isAlive'
p7
I01
sS'geno'
p8
(lp9
(lp10
S'target'
p11
aS'target'
p12
aaS'target'
p13
asS'accel_x'
p14
F0
sS'accel_y'
p15
F0
sS'maxAccel'
p16
I2
sS'maxVel'
p17
F0.80000000000000004
sS'age'
p18
I50
sS'gener'
p19
S'm'
sS'lastScale'
p20
F5.5
sS'energy'
p21
I0
sb.(i__main__
Data_mobile
p1
(dp2
S'vel_y'
p3
F0.74018188574137189
sS'vel_x'
p4
F0.3035305190921449
sS'pos_x'
p5
F-70.949922284877161
sS'pos_y'
p6
F-29.886879982025139
sS'isAlive'
p7
I01
sS'geno'
p8
(lp9
S'target'
p10
a(lp11
(lp12
(lp13
S'target'
p14
a(lp15
S'target'
p16
aS'target'
p17
aaaS'target'
p18
aaS'randV'
p19
aasS'accel_x'
p20
F1.2281905376181723
sS'accel_y'
p21
F1.5784638112117697
sS'maxAccel'
p22
I2
sS'maxVel'
p23
F0.80000000000000004
sS'age'
p24
I50
sS'gener'
p25
S'm'
sS'lastScale'
p26
F5.5
sS'energy'
p27
I0
sb.(i__main__
Data_mobile
p1
(dp2
S'vel_y'
p3
F0.78719114202306284
sS'vel_x'
p4
F-0.14258368041408584
sS'pos_x'
p5
F-55.865003238729223
sS'pos_y'
p6
F21.351017094275335
sS'isAlive'
p7
I01
sS'geno'
p8
(lp9
(lp10
(lp11
S'randV'
p12
aS'target'
p13
aaS'randV'
p14
aa(lp15
(lp16
(lp17
S'randV'
p18
aS'currentVelocity'
p19
aa(lp20
(lp21
(lp22
(lp23
S'target'
p24
aS'target'
p25
aaS'target'
p26
aa(lp27
S'POINT.-'
p28
aS'target'
p29
aaaS'target'
p30
aaaS'target'
p31
aasS'accel_x'
p32
F0
sS'accel_y'
p33
F0
sS'maxAccel'
p34
I2
sS'maxVel'
p35
F0.80000000000000004
sS'age'
p36
I50
sS'gener'
p37
S'm'
sS'lastScale'
p38
F5.5
sS'energy'
p39
I0
sb.(i__main__
Data_mobile
p1
(dp2
S'vel_y'
p3
F0.037383305003566514
sS'vel_x'
p4
F0.45124916061164666
sS'pos_x'
p5
F-71.56559594819494
sS'pos_y'
p6
F-59.327199119795139
sS'isAlive'
p7
I01
sS'geno'
p8
(lp9
(lp10
(lp11
S'randV'
p12
aS'target'
p13
aaS'randV'
p14
aa(lp15
(lp16
(lp17
S'randV'
p18
aS'target'
p19
aa(lp20
S'mostEnergizedNeighbor'
p21
aS'target'
p22
aaaS'target'
p23
aasS'accel_x'
p24
F0
sS'accel_y'
p25
F0
sS'maxAccel'
p26
I2
sS'maxVel'
p27
F0.80000000000000004
sS'age'
p28
I50
sS'gener'
p29
S'm'
sS'lastScale'
p30
F5.5
sS'energy'
p31
I0
sb.(i__main__
Data_mobile
p1
(dp2
S'vel_y'
p3
I0
sS'vel_x'
p4
I0
sS'pos_x'
p5
I-9579
sS'pos_y'
p6
I9779
sS'isAlive'
p7
I00
sS'geno'
p8
(lp9
(lp10
(lp11
S'randV'
p12
aS'target'
p13
aaS'randV'
p14
aa(lp15
(lp16
(lp17
S'randV'
p18
aS'target'
p19
aa(lp20
S'mostEnergizedNeighbor'
p21
aS'target'
p22
aaaS'target'
p23
aasS'accel_x'
p24
F0
sS'accel_y'
p25
F0
sS'maxAccel'
p26
I2
sS'maxVel'
p27
F0.80000000000000004
sS'age'
p28
I0
sS'gener'
p29
S'm'
sS'lastScale'
p30
F5.5
sS'energy'
p31
F0.5
sb.(i__main__
Data_mobile
p1
(dp2
S'vel_y'
p3
I0
sS'vel_x'
p4
I0
sS'pos_x'
p5
I-9579
sS'pos_y'
p6
I9779
sS'isAlive'
p7
I00
sS'geno'
p8
(lp9
(lp10
S'target'
p11
aS'target'
p12
aaS'target'
p13
asS'accel_x'
p14
F0
sS'accel_y'
p15
F0
sS'maxAccel'
p16
I2
sS'maxVel'
p17
F0.80000000000000004
sS'age'
p18
I0
sS'gener'
p19
S'm'
sS'lastScale'
p20
F5.5
sS'energy'
p21
F0.5
sb.(i__main__
Data_mobile
p1
(dp2
S'vel_y'
p3
I0
sS'vel_x'
p4
I0
sS'pos_x'
p5
I-9579
sS'pos_y'
p6
I9779
sS'isAlive'
p7
I00
sS'geno'
p8
(lp9
S'target'
p10
a(lp11
(lp12
(lp13
S'target'
p14
a(lp15
S'currentVelocity'
p16
aS'target'
p17
aaaS'target'
p18
aaS'target'
p19
aasS'accel_x'
p20
F0
sS'accel_y'
p21
F0
sS'maxAccel'
p22
I2
sS'maxVel'
p23
F0.80000000000000004
sS'age'
p24
I0
sS'gener'
p25
S'm'
sS'lastScale'
p26
F5.5
sS'energy'
p27
F0.5
sb.(i__main__
Data_mobile
p1
(dp2
S'vel_y'
p3
I0
sS'vel_x'
p4
I0
sS'pos_x'
p5
I-9579
sS'pos_y'
p6
I9779
sS'isAlive'
p7
I00
sS'geno'
p8
(lp9
(lp10
S'randV'
p11
aS'target'
p12
aa(lp13
(lp14
S'target'
p15
a(lp16
(lp17
(lp18
S'target'
p19
aS'randV'
p20
aaS'target'
p21
aaS'target'
p22
aaaS'target'
p23
aasS'accel_x'
p24
F0
sS'accel_y'
p25
F0
sS'maxAccel'
p26
I2
sS'maxVel'
p27
F0.80000000000000004
sS'age'
p28
I0
sS'gener'
p29
S'm'
sS'lastScale'
p30
F5.5
sS'energy'
p31
F0.5
sb.(i__main__
Data_mobile
p1
(dp2
S'vel_y'
p3
I0
sS'vel_x'
p4
I0
sS'pos_x'
p5
I-9579
sS'pos_y'
p6
I9779
sS'isAlive'
p7
I00
sS'geno'
p8
(lp9
(lp10
(lp11
S'randV'
p12
aS'target'
p13
aaS'randV'
p14
aa(lp15
(lp16
(lp17
S'randV'
p18
aS'currentVelocity'
p19
aa(lp20
(lp21
(lp22
(lp23
S'target'
p24
a(lp25
S'currentVelocity'
p26
aS'target'
p27
aaaS'target'
p28
aa(lp29
S'POINT.-'
p30
aS'target'
p31
aaaS'target'
p32
aaaS'target'
p33
aasS'accel_x'
p34
F0
sS'accel_y'
p35
F0
sS'maxAccel'
p36
I2
sS'maxVel'
p37
F0.80000000000000004
sS'age'
p38
I0
sS'gener'
p39
S'm'
sS'lastScale'
p40
F5.5
sS'energy'
p41
F0.5
sb.(i__main__
Data_mobile
p1
(dp2
S'vel_y'
p3
I0
sS'vel_x'
p4
I0
sS'pos_x'
p5
I-9579
sS'pos_y'
p6
I9779
sS'isAlive'
p7
I00
sS'geno'
p8
(lp9
(lp10
S'target'
p11
aS'target'
p12
aaS'target'
p13
asS'accel_x'
p14
F0
sS'accel_y'
p15
F0
sS'maxAccel'
p16
I2
sS'maxVel'
p17
F0.80000000000000004
sS'age'
p18
I0
sS'gener'
p19
S'm'
sS'lastScale'
p20
F5.5
sS'energy'
p21
F0.5
sb.(i__main__
Data_mobile
p1
(dp2
S'vel_y'
p3
I0
sS'vel_x'
p4
I0
sS'pos_x'
p5
I-9579
sS'pos_y'
p6
I9779
sS'isAlive'
p7
I00
sS'geno'
p8
(lp9
S'target'
p10
a(lp11
(lp12
(lp13
(lp14
S'target'
p15
aS'target'
p16
aaS'target'
p17
aaS'target'
p18
aa(lp19
(lp20
S'randV'
p21
aS'currentVelocity'
p22
aa(lp23
(lp24
S'target'
p25
a(lp26
S'POINT.-'
p27
aS'target'
p28
aaaS'target'
p29
aaaasS'accel_x'
p30
F0
sS'accel_y'
p31
F0
sS'maxAccel'
p32
I2
sS'maxVel'
p33
F0.80000000000000004
sS'age'
p34
I0
sS'gener'
p35
S'm'
sS'lastScale'
p36
F5.5
sS'energy'
p37
F0.5
sb.(i__main__
Data_mobile
p1
(dp2
S'vel_y'
p3
I0
sS'vel_x'
p4
I0
sS'pos_x'
p5
I-9579
sS'pos_y'
p6
I9779
sS'isAlive'
p7
I00
sS'geno'
p8
(lp9
(lp10
(lp11
S'randV'
p12
aS'target'
p13
aaS'randV'
p14
aa(lp15
S'target'
p16
a(lp17
(lp18
(lp19
S'target'
p20
a(lp21
S'currentVelocity'
p22
aS'target'
p23
aaaS'target'
p24
aaS'target'
p25
aaasS'accel_x'
p26
F0
sS'accel_y'
p27
F0
sS'maxAccel'
p28
I2
sS'maxVel'
p29
F0.80000000000000004
sS'age'
p30
I0
sS'gener'
p31
S'm'
sS'lastScale'
p32
F5.5
sS'energy'
p33
F0.5
sb.