(i__main__
Data_mobile
p1
(dp2
S'vel_y'
p3
F0.61756941564474621
sS'vel_x'
p4
F0.38924030734265769
sS'pos_x'
p5
F103.0277380576332
sS'pos_y'
p6
F14.017000122473693
sS'isAlive'
p7
I01
sS'cumulativeEnergy'
p8
F43.895581967047377
sS'geno'
p9
(lp10
F1.5410705317429043
aF-2.486087641458667
aF-3.6799058757595633
aF4.4447765057629702
aF0.94198050807173139
asS'accel_x'
p11
F0.94149683645147531
sS'accel_y'
p12
F0.030182520420616418
sS'visionAngle'
p13
I130
sS'maxAccel'
p14
I2
sS'maxVel'
p15
F0.72999999999999998
sS'age'
p16
I100
sS'tailSize'
p17
I0
sS'sexualgeno'
p18
NsS'tailBrigh'
p19
I0
sS'maxSteering'
p20
I20
sS'energy'
p21
F0.62839732141881244
sS'lastScale'
p22
F11.783973214188126
sb.(i__main__
Data_mobile
p1
(dp2
S'vel_y'
p3
F0.33162930113576689
sS'vel_x'
p4
F0.65032453946333824
sS'pos_x'
p5
F187.19587287338769
sS'pos_y'
p6
F87.466723427046134
sS'isAlive'
p7
I01
sS'cumulativeEnergy'
p8
F38.137978275368376
sS'geno'
p9
(lp10
F1.5410705317429043
aF-2.4776608229318651
aF-3.6799058757595633
aF4.389012646770853
aF0.94198050807173139
asS'accel_x'
p11
F-1.9551252130468295
sS'accel_y'
p12
F-0.42129016284336623
sS'visionAngle'
p13
I130
sS'maxAccel'
p14
I2
sS'maxVel'
p15
F0.72999999999999998
sS'age'
p16
I100
sS'tailSize'
p17
I0
sS'sexualgeno'
p18
NsS'tailBrigh'
p19
I0
sS'maxSteering'
p20
I20
sS'energy'
p21
F0.47198110392251963
sS'lastScale'
p22
F10.219811039225197
sb.(i__main__
Data_mobile
p1
(dp2
S'vel_y'
p3
F0.090632341337818653
sS'vel_x'
p4
F0.72435197156052877
sS'pos_x'
p5
F162.77188255799504
sS'pos_y'
p6
F-40.39180127397254
sS'isAlive'
p7
I01
sS'cumulativeEnergy'
p8
F35.777589276646218
sS'geno'
p9
(lp10
F1.5410705317429043
aF-2.4776608229318651
aF-3.6799058757595633
aF4.4447765057629702
aF0.94198050807173139
asS'accel_x'
p11
F0.48588693634477143
sS'accel_y'
p12
F-1.9400808965322791
sS'visionAngle'
p13
I130
sS'maxAccel'
p14
I2
sS'maxVel'
p15
F0.72999999999999998
sS'age'
p16
I150
sS'tailSize'
p17
I0
sS'sexualgeno'
p18
NsS'tailBrigh'
p19
I0
sS'maxSteering'
p20
I20
sS'energy'
p21
F0.41964101650949726
sS'lastScale'
p22
F9.6964101650949726
sb.(i__main__
Data_mobile
p1
(dp2
S'vel_y'
p3
F-0.33115507869945582
sS'vel_x'
p4
F0.65056614871322438
sS'pos_x'
p5
F162.44136611226727
sS'pos_y'
p6
F-41.508887141666861
sS'isAlive'
p7
I01
sS'cumulativeEnergy'
p8
F32.881245061703297
sS'geno'
p9
(lp10
F1.5410705317429043
aF-2.3149560781994918
aF-3.6799058757595633
aF4.2572003286336884
aF0.94198050807173139
asS'accel_x'
p11
F0.089916287734583766
sS'accel_y'
p12
F1.9979777429190826
sS'visionAngle'
p13
I130
sS'maxAccel'
p14
I2
sS'maxVel'
p15
F0.72999999999999998
sS'age'
p16
I50
sS'tailSize'
p17
I0
sS'sexualgeno'
p18
NsS'tailBrigh'
p19
I0
sS'maxSteering'
p20
I20
sS'energy'
p21
F0.64825676022440015
sS'lastScale'
p22
F11.982567602244004
sb.(i__main__
Data_mobile
p1
(dp2
S'vel_y'
p3
F-0.022208264827187466
sS'vel_x'
p4
F0.7296621087690971
sS'pos_x'
p5
F163.06679957268585
sS'pos_y'
p6
F-40.755827148592758
sS'isAlive'
p7
I01
sS'cumulativeEnergy'
p8
F29.681245061703308
sS'geno'
p9
(lp10
F1.5410705317429043
aF-2.4776608229318651
aF-3.6799058757595633
aF4.389012646770853
aF0.94198050807173139
asS'accel_x'
p11
F-1.614187984023798
sS'accel_y'
p12
F1.1808459477142594
sS'visionAngle'
p13
I130
sS'maxAccel'
p14
I2
sS'maxVel'
p15
F0.72999999999999998
sS'age'
p16
I50
sS'tailSize'
p17
I0
sS'sexualgeno'
p18
NsS'tailBrigh'
p19
I0
sS'maxSteering'
p20
I20
sS'energy'
p21
F0.54825676022440006
sS'lastScale'
p22
F10.982567602244002
sb.(i__main__
Data_mobile
p1
(dp2
S'vel_y'
p3
F0.60404009421627136
sS'vel_x'
p4
F0.4099214126868686
sS'pos_x'
p5
F92.425483358975626
sS'pos_y'
p6
F-17.416749035370859
sS'isAlive'
p7
I01
sS'cumulativeEnergy'
p8
F29.469442596209021
sS'geno'
p9
(lp10
F1.5410705317429043
aF-2.4776608229318651
aF-3.6799058757595633
aF4.4447765057629702
aF0.94198050807173139
asS'accel_x'
p11
F0.61720299388849031
sS'accel_y'
p12
F0.71160926211099973
sS'visionAngle'
p13
I130
sS'maxAccel'
p14
I2
sS'maxVel'
p15
F0.72999999999999998
sS'age'
p16
I150
sS'tailSize'
p17
I0
sS'sexualgeno'
p18
NsS'tailBrigh'
p19
I0
sS'maxSteering'
p20
I20
sS'energy'
p21
F0.39867292251701519
sS'lastScale'
p22
F9.4867292251701514
sb.(i__main__
Data_mobile
p1
(dp2
S'vel_y'
p3
F0.5226635206110537
sS'vel_x'
p4
F0.50963010529447594
sS'pos_x'
p5
F161.99846884948295
sS'pos_y'
p6
F-39.50324167703922
sS'isAlive'
p7
I01
sS'cumulativeEnergy'
p8
F26.878836839113642
sS'geno'
p9
(lp10
F1.5410705317429043
aF-2.4776608229318651
aF-3.6799058757595633
aF4.4447765057629702
aF0.94198050807173139
asS'accel_x'
p11
F1.4561127347227079
sS'accel_y'
p12
F-1.3710345377773516
sS'visionAngle'
p13
I130
sS'maxAccel'
p14
I2
sS'maxVel'
p15
F0.72999999999999998
sS'age'
p16
I249
sS'tailSize'
p17
I0
sS'sexualgeno'
p18
NsS'tailBrigh'
p19
I0
sS'maxSteering'
p20
I20
sS'energy'
p21
F0.28018738061630055
sS'lastScale'
p22
F8.3018738061630053
sb.(i__main__
Data_mobile
p1
(dp2
S'vel_y'
p3
F0.42227984686154646
sS'vel_x'
p4
F0.59546597798244438
sS'pos_x'
p5
F137.20724531191445
sS'pos_y'
p6
F-1.5001402032323394
sS'isAlive'
p7
I01
sS'cumulativeEnergy'
p8
F25.17034119494356
sS'geno'
p9
(lp10
F1.5410705317429043
aF-2.4776608229318651
aF-2.9313005138998873
aF4.6299691410372485
aF0.94198050807173139
asS'accel_x'
p11
F0.13583729057581498
sS'accel_y'
p12
F0.93213491945967708
sS'visionAngle'
p13
I130
sS'maxAccel'
p14
I2
sS'maxVel'
p15
F0.72999999999999998
sS'age'
p16
I100
sS'tailSize'
p17
I0
sS'sexualgeno'
p18
NsS'tailBrigh'
p19
I0
sS'maxSteering'
p20
I20
sS'energy'
p21
F0.26933263221155729
sS'lastScale'
p22
F8.1933263221155723
sb.(i__main__
Data_mobile
p1
(dp2
S'vel_y'
p3
F0.40855416061071698
sS'vel_x'
p4
F0.60496569972823455
sS'pos_x'
p5
F145.39745216704387
sS'pos_y'
p6
F68.161863619221364
sS'isAlive'
p7
I01
sS'cumulativeEnergy'
p8
F21.957456945216872
sS'geno'
p9
(lp10
F1.9775426072308808
aF-2.4776608229318651
aF-3.6799058757595633
aF4.4447765057629702
aF0.94198050807173139
asS'accel_x'
p11
F0.46158340241160256
sS'accel_y'
p12
F0.82113825888531444
sS'visionAngle'
p13
I130
sS'maxAccel'
p14
I2
sS'maxVel'
p15
F0.72999999999999998
sS'age'
p16
I100
sS'tailSize'
p17
I0
sS'sexualgeno'
p18
NsS'tailBrigh'
p19
I0
sS'maxSteering'
p20
I20
sS'energy'
p21
F0.13947785160488976
sS'lastScale'
p22
F6.8947785160488984
sb.(i__main__
Data_mobile
p1
(dp2
S'vel_y'
p3
F0.4362017660007933
sS'vel_x'
p4
F0.58534435961901032
sS'pos_x'
p5
F187.63415736701589
sS'pos_y'
p6
F87.29156608602446
sS'isAlive'
p7
I01
sS'cumulativeEnergy'
p8
F16.781245061703295
sS'geno'
p9
(lp10
F1.5410705317429043
aF-2.4776608229318651
aF-3.6799058757595633
aF4.4447765057629702
aF0.94198050807173139
asS'accel_x'
p11
F-1.9336459264098238
sS'accel_y'
p12
F0.51089473600605229
sS'visionAngle'
p13
I130
sS'maxAccel'
p14
I2
sS'maxVel'
p15
F0.72999999999999998
sS'age'
p16
I50
sS'tailSize'
p17
I0
sS'sexualgeno'
p18
NsS'tailBrigh'
p19
I0
sS'maxSteering'
p20
I20
sS'energy'
p21
F0.098256760224399775
sS'lastScale'
p22
F6.4825676022439982
sb.(i__main__
Data_mobile
p1
(dp2
S'vel_y'
p3
F0.3181490838001354
sS'vel_x'
p4
F0.65702447479308879
sS'pos_x'
p5
F188.31609922621425
sS'pos_y'
p6
F87.60753355932593
sS'isAlive'
p7
I01
sS'cumulativeEnergy'
p8
F14.481245061703293
sS'geno'
p9
(lp10
F1.5410705317429043
aF-2.4776608229318651
aF-3.6799058757595633
aF4.4447765057629702
aF0.94198050807173139
asS'accel_x'
p11
F-1.9795888357609566
sS'accel_y'
p12
F0.28500533561774044
sS'visionAngle'
p13
I130
sS'maxAccel'
p14
I2
sS'maxVel'
p15
F0.72999999999999998
sS'age'
p16
I50
sS'tailSize'
p17
I0
sS'sexualgeno'
p18
NsS'tailBrigh'
p19
I0
sS'maxSteering'
p20
I20
sS'energy'
p21
F0.048256760224399717
sS'lastScale'
p22
F5.9825676022439973
sb.(i__main__
Data_mobile
p1
(dp2
S'vel_y'
p3
F0.67846391783477134
sS'vel_x'
p4
F0.2694192127452919
sS'pos_x'
p5
F180.16323400767411
sS'pos_y'
p6
F84.001270678730705
sS'isAlive'
p7
I01
sS'cumulativeEnergy'
p8
F12.231245061703294
sS'geno'
p9
(lp10
F1.5410705317429043
aF-2.486087641458667
aF-2.9709380637758747
aF4.5027158057317749
aF0.94198050807173139
asS'accel_x'
p11
F1.9948873209263203
sS'accel_y'
p12
F0.14291457870843069
sS'visionAngle'
p13
I130
sS'maxAccel'
p14
I2
sS'maxVel'
p15
F0.72999999999999998
sS'age'
p16
I50
sS'tailSize'
p17
I0
sS'sexualgeno'
p18
NsS'tailBrigh'
p19
I0
sS'maxSteering'
p20
I20
sS'energy'
p21
I0
sS'lastScale'
p22
F5.5
sb.(i__main__
Data_mobile
p1
(dp2
S'vel_y'
p3
F0.45902777347942481
sS'vel_x'
p4
F0.025422123906193292
sS'pos_x'
p5
F177.88225324521665
sS'pos_y'
p6
F75.216291208033041
sS'isAlive'
p7
I01
sS'cumulativeEnergy'
p8
F12.231245061703294
sS'geno'
p9
(lp10
F1.5410705317429043
aF-2.4776608229318651
aF-3.6799058757595633
aF4.389012646770853
aF0.94198050807173139
asS'accel_x'
p11
F0.6110719570031633
sS'accel_y'
p12
F-0.95896783427443455
sS'visionAngle'
p13
I130
sS'maxAccel'
p14
I2
sS'maxVel'
p15
F0.72999999999999998
sS'age'
p16
I50
sS'tailSize'
p17
I0
sS'sexualgeno'
p18
NsS'tailBrigh'
p19
I0
sS'maxSteering'
p20
I20
sS'energy'
p21
I0
sS'lastScale'
p22
F5.5
sb.(i__main__
Data_mobile
p1
(dp2
S'vel_y'
p3
F0.63555705964078124
sS'vel_x'
p4
F-0.3591200689752167
sS'pos_x'
p5
F160.75430472178195
sS'pos_y'
p6
F108.49789562841019
sS'isAlive'
p7
I01
sS'cumulativeEnergy'
p8
F12.231245061703294
sS'geno'
p9
(lp10
F1.5410705317429043
aF-2.4776608229318651
aF-3.6799058757595633
aF4.4447765057629702
aF0.94198050807173139
asS'accel_x'
p11
F0.54146263344481094
sS'accel_y'
p12
F0.77080833815552841
sS'visionAngle'
p13
I130
sS'maxAccel'
p14
I2
sS'maxVel'
p15
F0.72999999999999998
sS'age'
p16
I50
sS'tailSize'
p17
I0
sS'sexualgeno'
p18
NsS'tailBrigh'
p19
I0
sS'maxSteering'
p20
I20
sS'energy'
p21
I0
sS'lastScale'
p22
F5.5
sb.(i__main__
Data_mobile
p1
(dp2
S'vel_y'
p3
F0.22699368192516534
sS'vel_x'
p4
F0.6938111186526611
sS'pos_x'
p5
F187.93585059969072
sS'pos_y'
p6
F87.705281383792212
sS'isAlive'
p7
I01
sS'cumulativeEnergy'
p8
F12.231245061703294
sS'geno'
p9
(lp10
F1.5410705317429043
aF-2.4776608229318651
aF-3.7669324994329685
aF4.389012646770853
aF0.94198050807173139
asS'accel_x'
p11
F-1.8498920191917982
sS'accel_y'
p12
F-0.76019702533651923
sS'visionAngle'
p13
I130
sS'maxAccel'
p14
I2
sS'maxVel'
p15
F0.72999999999999998
sS'age'
p16
I50
sS'tailSize'
p17
I0
sS'sexualgeno'
p18
NsS'tailBrigh'
p19
I0
sS'maxSteering'
p20
I20
sS'energy'
p21
I0
sS'lastScale'
p22
F5.5
sb.(i__main__
Data_mobile
p1
(dp2
S'vel_y'
p3
F0.51051014931965466
sS'vel_x'
p4
F0.52180397415276936
sS'pos_x'
p5
F181.24095605893712
sS'pos_y'
p6
F84.447059819370295
sS'isAlive'
p7
I01
sS'cumulativeEnergy'
p8
F12.231245061703294
sS'geno'
p9
(lp10
F1.5410705317429043
aF-1.9959804368136014
aF-3.6799058757595633
aF4.4447765057629702
aF0.94198050807173139
asS'accel_x'
p11
F-1.8431210041299824
sS'accel_y'
p12
F-0.77646955132502515
sS'visionAngle'
p13
I130
sS'maxAccel'
p14
I2
sS'maxVel'
p15
F0.72999999999999998
sS'age'
p16
I50
sS'tailSize'
p17
I0
sS'sexualgeno'
p18
NsS'tailBrigh'
p19
I0
sS'maxSteering'
p20
I20
sS'energy'
p21
I0
sS'lastScale'
p22
F5.5
sb.(i__main__
Data_mobile
p1
(dp2
S'vel_y'
p3
F0.34721332593437548
sS'vel_x'
p4
F0.64213932000274598
sS'pos_x'
p5
F187.72315033955991
sS'pos_y'
p6
F88.102532953420479
sS'isAlive'
p7
I01
sS'cumulativeEnergy'
p8
F12.231245061703294
sS'geno'
p9
(lp10
F1.5410705317429043
aF-2.1205655034050221
aF-3.6799058757595633
aF4.4447765057629702
aF0.94198050807173139
asS'accel_x'
p11
F0.63760205193243735
sS'accel_y'
p12
F-1.8956433270453452
sS'visionAngle'
p13
I130
sS'maxAccel'
p14
I2
sS'maxVel'
p15
F0.72999999999999998
sS'age'
p16
I50
sS'tailSize'
p17
I0
sS'sexualgeno'
p18
NsS'tailBrigh'
p19
I0
sS'maxSteering'
p20
I20
sS'energy'
p21
I0
sS'lastScale'
p22
F5.5
sb.(i__main__
Data_mobile
p1
(dp2
S'vel_y'
p3
F0.50007749564287729
sS'vel_x'
p4
F0.52940860789749689
sS'pos_x'
p5
F173.24960948564637
sS'pos_y'
p6
F16.145203774381233
sS'isAlive'
p7
I01
sS'cumulativeEnergy'
p8
F0.5
sS'geno'
p9
(lp10
F1.5410705317429043
aF-2.4776608229318651
aF-3.6799058757595633
aF4.4447765057629702
aF1.0878097845856498
asS'accel_x'
p11
F0
sS'accel_y'
p12
F0
sS'visionAngle'
p13
I130
sS'maxAccel'
p14
I2
sS'maxVel'
p15
F0.72999999999999998
sS'age'
p16
I0
sS'tailSize'
p17
I0
sS'sexualgeno'
p18
NsS'tailBrigh'
p19
I0
sS'maxSteering'
p20
I20
sS'energy'
p21
F0.5
sS'lastScale'
p22
F5.5
sb.(i__main__
Data_mobile
p1
(dp2
S'vel_y'
p3
F0.47206511578866539
sS'vel_x'
p4
F0.53941581570510388
sS'pos_x'
p5
F138.14299849915091
sS'pos_y'
p6
F58.891293546993701
sS'isAlive'
p7
I01
sS'cumulativeEnergy'
p8
F0.5
sS'geno'
p9
(lp10
F1.9775426072308808
aF-2.4776608229318651
aF-3.6799058757595633
aF3.9790894852604528
aF0.94198050807173139
asS'accel_x'
p11
F0
sS'accel_y'
p12
F0
sS'visionAngle'
p13
I130
sS'maxAccel'
p14
I2
sS'maxVel'
p15
F0.72999999999999998
sS'age'
p16
I0
sS'tailSize'
p17
I0
sS'sexualgeno'
p18
NsS'tailBrigh'
p19
I0
sS'maxSteering'
p20
I20
sS'energy'
p21
F0.5
sS'lastScale'
p22
F5.5
sb.(i__main__
Data_mobile
p1
(dp2
S'vel_y'
p3
F0.61612381357519674
sS'vel_x'
p4
F0.39145007439152379
sS'pos_x'
p5
F100.55365090484742
sS'pos_y'
p6
F6.6817834949047681
sS'isAlive'
p7
I01
sS'cumulativeEnergy'
p8
F0.5
sS'geno'
p9
(lp10
F1.5410705317429043
aF-2.486087641458667
aF-3.6799058757595633
aF4.4447765057629702
aF0.94198050807173139
asS'accel_x'
p11
F0
sS'accel_y'
p12
F0
sS'visionAngle'
p13
I130
sS'maxAccel'
p14
I2
sS'maxVel'
p15
F0.72999999999999998
sS'age'
p16
I0
sS'tailSize'
p17
I0
sS'sexualgeno'
p18
NsS'tailBrigh'
p19
I0
sS'maxSteering'
p20
I20
sS'energy'
p21
F0.5
sS'lastScale'
p22
F5.5
sb.(i__main__
Data_mobile
p1
(dp2
S'vel_y'
p3
F0.46074491679465845
sS'vel_x'
p4
F0.5404039910830204
sS'pos_x'
p5
F162.32167010400525
sS'pos_y'
p6
F-39.874561157526799
sS'isAlive'
p7
I01
sS'cumulativeEnergy'
p8
F0.5
sS'geno'
p9
(lp10
F1.5410705317429043
aF-2.4776608229318651
aF-3.6799058757595633
aF4.4447765057629702
aF0.94198050807173139
asS'accel_x'
p11
F0
sS'accel_y'
p12
F0
sS'visionAngle'
p13
I130
sS'maxAccel'
p14
I2
sS'maxVel'
p15
F0.72999999999999998
sS'age'
p16
I0
sS'tailSize'
p17
I0
sS'sexualgeno'
p18
NsS'tailBrigh'
p19
I0
sS'maxSteering'
p20
I20
sS'energy'
p21
F0.5
sS'lastScale'
p22
F5.5
sb.(i__main__
Data_mobile
p1
(dp2
S'vel_y'
p3
F0.61076724374207902
sS'vel_x'
p4
F0.39963820012924001
sS'pos_x'
p5
F98.893098832448118
sS'pos_y'
p6
F1.758549825188485
sS'isAlive'
p7
I01
sS'cumulativeEnergy'
p8
F0.5
sS'geno'
p9
(lp10
F1.5410705317429043
aF-2.4776608229318651
aF-3.6799058757595633
aF4.4447765057629702
aF0.94198050807173139
asS'accel_x'
p11
F0
sS'accel_y'
p12
F0
sS'visionAngle'
p13
I130
sS'maxAccel'
p14
I2
sS'maxVel'
p15
F0.72999999999999998
sS'age'
p16
I0
sS'tailSize'
p17
I0
sS'sexualgeno'
p18
NsS'tailBrigh'
p19
I0
sS'maxSteering'
p20
I20
sS'energy'
p21
F0.5
sS'lastScale'
p22
F5.5
sb.(i__main__
Data_mobile
p1
(dp2
S'vel_y'
p3
F0.13174214050924743
sS'vel_x'
p4
F0.70392017583976407
sS'pos_x'
p5
F162.03882271538578
sS'pos_y'
p6
F-39.549603429393322
sS'isAlive'
p7
I01
sS'cumulativeEnergy'
p8
F0.5
sS'geno'
p9
(lp10
F1.9227838479094461
aF-2.4776608229318651
aF-3.6799058757595633
aF4.4447765057629702
aF0.94198050807173139
asS'accel_x'
p11
F0
sS'accel_y'
p12
F0
sS'visionAngle'
p13
I130
sS'maxAccel'
p14
I2
sS'maxVel'
p15
F0.72999999999999998
sS'age'
p16
I0
sS'tailSize'
p17
I0
sS'sexualgeno'
p18
NsS'tailBrigh'
p19
I0
sS'maxSteering'
p20
I20
sS'energy'
p21
F0.5
sS'lastScale'
p22
F5.5
sb.(i__main__
Data_mobile
p1
(dp2
S'vel_y'
p3
F0.61333250292585262
sS'vel_x'
p4
F0.39371448470062037
sS'pos_x'
p5
F129.62585306069022
sS'pos_y'
p6
F1.9417329212472849
sS'isAlive'
p7
I01
sS'cumulativeEnergy'
p8
F0.5
sS'geno'
p9
(lp10
F1.5410705317429043
aF-2.486087641458667
aF-3.6799058757595633
aF4.4447765057629702
aF0.94198050807173139
asS'accel_x'
p11
F0
sS'accel_y'
p12
F0
sS'visionAngle'
p13
I130
sS'maxAccel'
p14
I2
sS'maxVel'
p15
F0.72999999999999998
sS'age'
p16
I0
sS'tailSize'
p17
I0
sS'sexualgeno'
p18
NsS'tailBrigh'
p19
I0
sS'maxSteering'
p20
I20
sS'energy'
p21
F0.5
sS'lastScale'
p22
F5.5
sb.(i__main__
Data_mobile
p1
(dp2
S'vel_y'
p3
F0.48721245401481472
sS'vel_x'
p4
F0.54067447958971049
sS'pos_x'
p5
F174.1849899636984
sS'pos_y'
p6
F20.771620881096119
sS'isAlive'
p7
I01
sS'cumulativeEnergy'
p8
F0.5
sS'geno'
p9
(lp10
F1.5410705317429043
aF-2.4776608229318651
aF-3.6799058757595633
aF4.4447765057629702
aF0.94198050807173139
asS'accel_x'
p11
F0
sS'accel_y'
p12
F0
sS'visionAngle'
p13
I130
sS'maxAccel'
p14
I2
sS'maxVel'
p15
F0.72999999999999998
sS'age'
p16
I0
sS'tailSize'
p17
I0
sS'sexualgeno'
p18
NsS'tailBrigh'
p19
I0
sS'maxSteering'
p20
I20
sS'energy'
p21
F0.5
sS'lastScale'
p22
F5.5
sb.(i__main__
Data_mobile
p1
(dp2
S'vel_y'
p3
F0.57989106514742728
sS'vel_x'
p4
F0.42902862347405668
sS'pos_x'
p5
F103.39502223900901
sS'pos_y'
p6
F13.850256929266695
sS'isAlive'
p7
I01
sS'cumulativeEnergy'
p8
F0.5
sS'geno'
p9
(lp10
F1.5410705317429043
aF-2.4776608229318651
aF-2.9313005138998873
aF4.6299691410372485
aF0.94198050807173139
asS'accel_x'
p11
F0
sS'accel_y'
p12
F0
sS'visionAngle'
p13
I130
sS'maxAccel'
p14
I2
sS'maxVel'
p15
F0.72999999999999998
sS'age'
p16
I0
sS'tailSize'
p17
I0
sS'sexualgeno'
p18
NsS'tailBrigh'
p19
I0
sS'maxSteering'
p20
I20
sS'energy'
p21
F0.5
sS'lastScale'
p22
F5.5
sb.(i__main__
Data_mobile
p1
(dp2
S'vel_y'
p3
F0.5422045006631423
sS'vel_x'
p4
F0.46702470568174159
sS'pos_x'
p5
F119.84475855898003
sS'pos_y'
p6
F35.507711084462223
sS'isAlive'
p7
I01
sS'cumulativeEnergy'
p8
F0.5
sS'geno'
p9
(lp10
F1.5410705317429043
aF-2.486087641458667
aF-3.6799058757595633
aF4.4447765057629702
aF0.94198050807173139
asS'accel_x'
p11
F0
sS'accel_y'
p12
F0
sS'visionAngle'
p13
I130
sS'maxAccel'
p14
I2
sS'maxVel'
p15
F0.72999999999999998
sS'age'
p16
I0
sS'tailSize'
p17
I0
sS'sexualgeno'
p18
NsS'tailBrigh'
p19
I0
sS'maxSteering'
p20
I20
sS'energy'
p21
F0.5
sS'lastScale'
p22
F5.5
sb.(i__main__
Data_mobile
p1
(dp2
S'vel_y'
p3
I0
sS'vel_x'
p4
I0
sS'pos_x'
p5
I-9579
sS'pos_y'
p6
I9779
sS'isAlive'
p7
I00
sS'cumulativeEnergy'
p8
F0.5
sS'geno'
p9
(lp10
F1.5410705317429043
aF-2.4776608229318651
aF-3.6799058757595633
aF4.4447765057629702
aF0.94198050807173139
asS'accel_x'
p11
F0
sS'accel_y'
p12
F0
sS'visionAngle'
p13
I130
sS'maxAccel'
p14
I2
sS'maxVel'
p15
F0.72999999999999998
sS'age'
p16
I0
sS'tailSize'
p17
I0
sS'sexualgeno'
p18
NsS'tailBrigh'
p19
I0
sS'maxSteering'
p20
I20
sS'energy'
p21
F0.5
sS'lastScale'
p22
F5.5
sb.(i__main__
Data_mobile
p1
(dp2
S'vel_y'
p3
I0
sS'vel_x'
p4
I0
sS'pos_x'
p5
I-9579
sS'pos_y'
p6
I9779
sS'isAlive'
p7
I00
sS'cumulativeEnergy'
p8
F0.5
sS'geno'
p9
(lp10
F1.5410705317429043
aF-2.4776608229318651
aF-3.6799058757595633
aF4.4447765057629702
aF0.94198050807173139
asS'accel_x'
p11
F0
sS'accel_y'
p12
F0
sS'visionAngle'
p13
I130
sS'maxAccel'
p14
I2
sS'maxVel'
p15
F0.72999999999999998
sS'age'
p16
I0
sS'tailSize'
p17
I0
sS'sexualgeno'
p18
NsS'tailBrigh'
p19
I0
sS'maxSteering'
p20
I20
sS'energy'
p21
F0.5
sS'lastScale'
p22
F5.5
sb.(i__main__
Data_mobile
p1
(dp2
S'vel_y'
p3
I0
sS'vel_x'
p4
I0
sS'pos_x'
p5
I-9579
sS'pos_y'
p6
I9779
sS'isAlive'
p7
I00
sS'cumulativeEnergy'
p8
F0.5
sS'geno'
p9
(lp10
F1.5410705317429043
aF-2.486087641458667
aF-2.9709380637758747
aF4.6299691410372485
aF0.94198050807173139
asS'accel_x'
p11
F0
sS'accel_y'
p12
F0
sS'visionAngle'
p13
I130
sS'maxAccel'
p14
I2
sS'maxVel'
p15
F0.72999999999999998
sS'age'
p16
I0
sS'tailSize'
p17
I0
sS'sexualgeno'
p18
NsS'tailBrigh'
p19
I0
sS'maxSteering'
p20
I20
sS'energy'
p21
F0.5
sS'lastScale'
p22
F5.5
sb.(i__main__
Data_mobile
p1
(dp2
S'vel_y'
p3
I0
sS'vel_x'
p4
I0
sS'pos_x'
p5
I-9579
sS'pos_y'
p6
I9779
sS'isAlive'
p7
I00
sS'cumulativeEnergy'
p8
F0.5
sS'geno'
p9
(lp10
F1.5410705317429043
aF-2.4776608229318651
aF-3.6799058757595633
aF4.4447765057629702
aF0.94198050807173139
asS'accel_x'
p11
F0
sS'accel_y'
p12
F0
sS'visionAngle'
p13
I130
sS'maxAccel'
p14
I2
sS'maxVel'
p15
F0.72999999999999998
sS'age'
p16
I0
sS'tailSize'
p17
I0
sS'sexualgeno'
p18
NsS'tailBrigh'
p19
I0
sS'maxSteering'
p20
I20
sS'energy'
p21
F0.5
sS'lastScale'
p22
F5.5
sb.(i__main__
Data_mobile
p1
(dp2
S'vel_y'
p3
I0
sS'vel_x'
p4
I0
sS'pos_x'
p5
I-9579
sS'pos_y'
p6
I9779
sS'isAlive'
p7
I00
sS'cumulativeEnergy'
p8
F0.5
sS'geno'
p9
(lp10
F1.5410705317429043
aF-2.486087641458667
aF-2.9709380637758747
aF4.6299691410372485
aF0.94198050807173139
asS'accel_x'
p11
F0
sS'accel_y'
p12
F0
sS'visionAngle'
p13
I130
sS'maxAccel'
p14
I2
sS'maxVel'
p15
F0.72999999999999998
sS'age'
p16
I0
sS'tailSize'
p17
I0
sS'sexualgeno'
p18
NsS'tailBrigh'
p19
I0
sS'maxSteering'
p20
I20
sS'energy'
p21
F0.5
sS'lastScale'
p22
F5.5
sb.(i__main__
Data_mobile
p1
(dp2
S'vel_y'
p3
I0
sS'vel_x'
p4
I0
sS'pos_x'
p5
I-9579
sS'pos_y'
p6
I9779
sS'isAlive'
p7
I00
sS'cumulativeEnergy'
p8
F0.5
sS'geno'
p9
(lp10
F2.0409661279159699
aF-2.4776608229318651
aF-3.6799058757595633
aF4.4447765057629702
aF0.94198050807173139
asS'accel_x'
p11
F0
sS'accel_y'
p12
F0
sS'visionAngle'
p13
I130
sS'maxAccel'
p14
I2
sS'maxVel'
p15
F0.72999999999999998
sS'age'
p16
I0
sS'tailSize'
p17
I0
sS'sexualgeno'
p18
NsS'tailBrigh'
p19
I0
sS'maxSteering'
p20
I20
sS'energy'
p21
F0.5
sS'lastScale'
p22
F5.5
sb.(i__main__
Data_mobile
p1
(dp2
S'vel_y'
p3
I0
sS'vel_x'
p4
I0
sS'pos_x'
p5
I-9579
sS'pos_y'
p6
I9779
sS'isAlive'
p7
I00
sS'cumulativeEnergy'
p8
F0.5
sS'geno'
p9
(lp10
F1.5410705317429043
aF-1.9959804368136014
aF-3.6799058757595633
aF4.4447765057629702
aF0.94198050807173139
asS'accel_x'
p11
F0
sS'accel_y'
p12
F0
sS'visionAngle'
p13
I130
sS'maxAccel'
p14
I2
sS'maxVel'
p15
F0.72999999999999998
sS'age'
p16
I0
sS'tailSize'
p17
I0
sS'sexualgeno'
p18
NsS'tailBrigh'
p19
I0
sS'maxSteering'
p20
I20
sS'energy'
p21
F0.5
sS'lastScale'
p22
F5.5
sb.(i__main__
Data_mobile
p1
(dp2
S'vel_y'
p3
I0
sS'vel_x'
p4
I0
sS'pos_x'
p5
I-9579
sS'pos_y'
p6
I9779
sS'isAlive'
p7
I00
sS'cumulativeEnergy'
p8
F0.5
sS'geno'
p9
(lp10
F1.5410705317429043
aF-2.4776608229318651
aF-3.6799058757595633
aF4.4447765057629702
aF0.94198050807173139
asS'accel_x'
p11
F0
sS'accel_y'
p12
F0
sS'visionAngle'
p13
I130
sS'maxAccel'
p14
I2
sS'maxVel'
p15
F0.72999999999999998
sS'age'
p16
I0
sS'tailSize'
p17
I0
sS'sexualgeno'
p18
NsS'tailBrigh'
p19
I0
sS'maxSteering'
p20
I20
sS'energy'
p21
F0.5
sS'lastScale'
p22
F5.5
sb.(i__main__
Data_mobile
p1
(dp2
S'vel_y'
p3
I0
sS'vel_x'
p4
I0
sS'pos_x'
p5
I-9579
sS'pos_y'
p6
I9779
sS'isAlive'
p7
I00
sS'cumulativeEnergy'
p8
F0.5
sS'geno'
p9
(lp10
F1.5410705317429043
aF-2.4776608229318651
aF-2.9709380637758747
aF4.6299691410372485
aF0.94198050807173139
asS'accel_x'
p11
F0
sS'accel_y'
p12
F0
sS'visionAngle'
p13
I130
sS'maxAccel'
p14
I2
sS'maxVel'
p15
F0.72999999999999998
sS'age'
p16
I0
sS'tailSize'
p17
I0
sS'sexualgeno'
p18
NsS'tailBrigh'
p19
I0
sS'maxSteering'
p20
I20
sS'energy'
p21
F0.5
sS'lastScale'
p22
F5.5
sb.(i__main__
Data_mobile
p1
(dp2
S'vel_y'
p3
I0
sS'vel_x'
p4
I0
sS'pos_x'
p5
I-9579
sS'pos_y'
p6
I9779
sS'isAlive'
p7
I00
sS'cumulativeEnergy'
p8
F0.5
sS'geno'
p9
(lp10
F1.5410705317429043
aF-2.4776608229318651
aF-3.6799058757595633
aF4.4447765057629702
aF0.94198050807173139
asS'accel_x'
p11
F0
sS'accel_y'
p12
F0
sS'visionAngle'
p13
I130
sS'maxAccel'
p14
I2
sS'maxVel'
p15
F0.72999999999999998
sS'age'
p16
I0
sS'tailSize'
p17
I0
sS'sexualgeno'
p18
NsS'tailBrigh'
p19
I0
sS'maxSteering'
p20
I20
sS'energy'
p21
F0.5
sS'lastScale'
p22
F5.5
sb.(i__main__
Data_mobile
p1
(dp2
S'vel_y'
p3
I0
sS'vel_x'
p4
I0
sS'pos_x'
p5
I-9579
sS'pos_y'
p6
I9779
sS'isAlive'
p7
I00
sS'cumulativeEnergy'
p8
F0.5
sS'geno'
p9
(lp10
F1.5410705317429043
aF-1.9959804368136014
aF-3.6799058757595633
aF4.4447765057629702
aF0.94198050807173139
asS'accel_x'
p11
F0
sS'accel_y'
p12
F0
sS'visionAngle'
p13
I130
sS'maxAccel'
p14
I2
sS'maxVel'
p15
F0.72999999999999998
sS'age'
p16
I0
sS'tailSize'
p17
I0
sS'sexualgeno'
p18
NsS'tailBrigh'
p19
I0
sS'maxSteering'
p20
I20
sS'energy'
p21
F0.5
sS'lastScale'
p22
F5.5
sb.(i__main__
Data_mobile
p1
(dp2
S'vel_y'
p3
I0
sS'vel_x'
p4
I0
sS'pos_x'
p5
I-9579
sS'pos_y'
p6
I9779
sS'isAlive'
p7
I00
sS'cumulativeEnergy'
p8
F0.5
sS'geno'
p9
(lp10
F1.5410705317429043
aF-2.4776608229318651
aF-3.6799058757595633
aF4.4447765057629702
aF0.94198050807173139
asS'accel_x'
p11
F0
sS'accel_y'
p12
F0
sS'visionAngle'
p13
I130
sS'maxAccel'
p14
I2
sS'maxVel'
p15
F0.72999999999999998
sS'age'
p16
I0
sS'tailSize'
p17
I0
sS'sexualgeno'
p18
NsS'tailBrigh'
p19
I0
sS'maxSteering'
p20
I20
sS'energy'
p21
F0.5
sS'lastScale'
p22
F5.5
sb.(i__main__
Data_mobile
p1
(dp2
S'vel_y'
p3
I0
sS'vel_x'
p4
I0
sS'pos_x'
p5
I-9579
sS'pos_y'
p6
I9779
sS'isAlive'
p7
I00
sS'cumulativeEnergy'
p8
F0.5
sS'geno'
p9
(lp10
F1.5410705317429043
aF-2.486087641458667
aF-2.9709380637758747
aF5.0313335643052861
aF0.94198050807173139
asS'accel_x'
p11
F0
sS'accel_y'
p12
F0
sS'visionAngle'
p13
I130
sS'maxAccel'
p14
I2
sS'maxVel'
p15
F0.72999999999999998
sS'age'
p16
I0
sS'tailSize'
p17
I0
sS'sexualgeno'
p18
NsS'tailBrigh'
p19
I0
sS'maxSteering'
p20
I20
sS'energy'
p21
F0.5
sS'lastScale'
p22
F5.5
sb.(i__main__
Data_mobile
p1
(dp2
S'vel_y'
p3
I0
sS'vel_x'
p4
I0
sS'pos_x'
p5
I-9579
sS'pos_y'
p6
I9779
sS'isAlive'
p7
I00
sS'cumulativeEnergy'
p8
F0.5
sS'geno'
p9
(lp10
F1.5410705317429043
aF-1.9959804368136014
aF-3.6799058757595633
aF4.4447765057629702
aF0.94198050807173139
asS'accel_x'
p11
F0
sS'accel_y'
p12
F0
sS'visionAngle'
p13
I130
sS'maxAccel'
p14
I2
sS'maxVel'
p15
F0.72999999999999998
sS'age'
p16
I0
sS'tailSize'
p17
I0
sS'sexualgeno'
p18
NsS'tailBrigh'
p19
I0
sS'maxSteering'
p20
I20
sS'energy'
p21
F0.5
sS'lastScale'
p22
F5.5
sb.(i__main__
Data_mobile
p1
(dp2
S'vel_y'
p3
I0
sS'vel_x'
p4
I0
sS'pos_x'
p5
I-9579
sS'pos_y'
p6
I9779
sS'isAlive'
p7
I00
sS'cumulativeEnergy'
p8
F0.5
sS'geno'
p9
(lp10
F1.5410705317429043
aF-1.9959804368136014
aF-3.6799058757595633
aF4.4031907280902276
aF0.94198050807173139
asS'accel_x'
p11
F0
sS'accel_y'
p12
F0
sS'visionAngle'
p13
I130
sS'maxAccel'
p14
I2
sS'maxVel'
p15
F0.72999999999999998
sS'age'
p16
I0
sS'tailSize'
p17
I0
sS'sexualgeno'
p18
NsS'tailBrigh'
p19
I0
sS'maxSteering'
p20
I20
sS'energy'
p21
F0.5
sS'lastScale'
p22
F5.5
sb.(i__main__
Data_mobile
p1
(dp2
S'vel_y'
p3
I0
sS'vel_x'
p4
I0
sS'pos_x'
p5
I-9579
sS'pos_y'
p6
I9779
sS'isAlive'
p7
I00
sS'cumulativeEnergy'
p8
F0.5
sS'geno'
p9
(lp10
F2.0409661279159699
aF-2.8411067408754866
aF-2.9709380637758747
aF4.6299691410372485
aF0.94198050807173139
asS'accel_x'
p11
F0
sS'accel_y'
p12
F0
sS'visionAngle'
p13
I130
sS'maxAccel'
p14
I2
sS'maxVel'
p15
F0.72999999999999998
sS'age'
p16
I0
sS'tailSize'
p17
I0
sS'sexualgeno'
p18
NsS'tailBrigh'
p19
I0
sS'maxSteering'
p20
I20
sS'energy'
p21
F0.5
sS'lastScale'
p22
F5.5
sb.(i__main__
Data_mobile
p1
(dp2
S'vel_y'
p3
I0
sS'vel_x'
p4
I0
sS'pos_x'
p5
I-9579
sS'pos_y'
p6
I9779
sS'isAlive'
p7
I00
sS'cumulativeEnergy'
p8
F0.5
sS'geno'
p9
(lp10
F1.5410705317429043
aF-2.4776608229318651
aF-3.6799058757595633
aF4.4447765057629702
aF0.94198050807173139
asS'accel_x'
p11
F0
sS'accel_y'
p12
F0
sS'visionAngle'
p13
I130
sS'maxAccel'
p14
I2
sS'maxVel'
p15
F0.72999999999999998
sS'age'
p16
I0
sS'tailSize'
p17
I0
sS'sexualgeno'
p18
NsS'tailBrigh'
p19
I0
sS'maxSteering'
p20
I20
sS'energy'
p21
F0.5
sS'lastScale'
p22
F5.5
sb.(i__main__
Data_mobile
p1
(dp2
S'vel_y'
p3
I0
sS'vel_x'
p4
I0
sS'pos_x'
p5
I-9579
sS'pos_y'
p6
I9779
sS'isAlive'
p7
I00
sS'cumulativeEnergy'
p8
F0.5
sS'geno'
p9
(lp10
F1.5410705317429043
aF-2.4776608229318651
aF-2.9709380637758747
aF4.6299691410372485
aF0.94198050807173139
asS'accel_x'
p11
F0
sS'accel_y'
p12
F0
sS'visionAngle'
p13
I130
sS'maxAccel'
p14
I2
sS'maxVel'
p15
F0.72999999999999998
sS'age'
p16
I0
sS'tailSize'
p17
I0
sS'sexualgeno'
p18
NsS'tailBrigh'
p19
I0
sS'maxSteering'
p20
I20
sS'energy'
p21
F0.5
sS'lastScale'
p22
F5.5
sb.(i__main__
Data_mobile
p1
(dp2
S'vel_y'
p3
I0
sS'vel_x'
p4
I0
sS'pos_x'
p5
I-9579
sS'pos_y'
p6
I9779
sS'isAlive'
p7
I00
sS'cumulativeEnergy'
p8
F0.5
sS'geno'
p9
(lp10
F1.5410705317429043
aF-2.9459243149318102
aF-3.6799058757595633
aF4.4447765057629702
aF0.94198050807173139
asS'accel_x'
p11
F0
sS'accel_y'
p12
F0
sS'visionAngle'
p13
I130
sS'maxAccel'
p14
I2
sS'maxVel'
p15
F0.72999999999999998
sS'age'
p16
I0
sS'tailSize'
p17
I0
sS'sexualgeno'
p18
NsS'tailBrigh'
p19
I0
sS'maxSteering'
p20
I20
sS'energy'
p21
F0.5
sS'lastScale'
p22
F5.5
sb.(i__main__
Data_mobile
p1
(dp2
S'vel_y'
p3
I0
sS'vel_x'
p4
I0
sS'pos_x'
p5
I-9579
sS'pos_y'
p6
I9779
sS'isAlive'
p7
I00
sS'cumulativeEnergy'
p8
F0.5
sS'geno'
p9
(lp10
F1.5410705317429043
aF-1.9959804368136014
aF-3.6799058757595633
aF4.4447765057629702
aF0.94198050807173139
asS'accel_x'
p11
F0
sS'accel_y'
p12
F0
sS'visionAngle'
p13
I130
sS'maxAccel'
p14
I2
sS'maxVel'
p15
F0.72999999999999998
sS'age'
p16
I0
sS'tailSize'
p17
I0
sS'sexualgeno'
p18
NsS'tailBrigh'
p19
I0
sS'maxSteering'
p20
I20
sS'energy'
p21
F0.5
sS'lastScale'
p22
F5.5
sb.(i__main__
Data_mobile
p1
(dp2
S'vel_y'
p3
I0
sS'vel_x'
p4
I0
sS'pos_x'
p5
I-9579
sS'pos_y'
p6
I9779
sS'isAlive'
p7
I00
sS'cumulativeEnergy'
p8
F0.5
sS'geno'
p9
(lp10
F2.0409661279159699
aF-2.5308014433925257
aF-2.9709380637758747
aF4.6299691410372485
aF1.3058980910838227
asS'accel_x'
p11
F0
sS'accel_y'
p12
F0
sS'visionAngle'
p13
I130
sS'maxAccel'
p14
I2
sS'maxVel'
p15
F0.72999999999999998
sS'age'
p16
I0
sS'tailSize'
p17
I0
sS'sexualgeno'
p18
NsS'tailBrigh'
p19
I0
sS'maxSteering'
p20
I20
sS'energy'
p21
F0.5
sS'lastScale'
p22
F5.5
sb.(i__main__
Data_mobile
p1
(dp2
S'vel_y'
p3
I0
sS'vel_x'
p4
I0
sS'pos_x'
p5
I-9579
sS'pos_y'
p6
I9779
sS'isAlive'
p7
I00
sS'cumulativeEnergy'
p8
F0.5
sS'geno'
p9
(lp10
F1.5410705317429043
aF-2.9459243149318102
aF-3.6799058757595633
aF4.4447765057629702
aF0.94198050807173139
asS'accel_x'
p11
F0
sS'accel_y'
p12
F0
sS'visionAngle'
p13
I130
sS'maxAccel'
p14
I2
sS'maxVel'
p15
F0.72999999999999998
sS'age'
p16
I0
sS'tailSize'
p17
I0
sS'sexualgeno'
p18
NsS'tailBrigh'
p19
I0
sS'maxSteering'
p20
I20
sS'energy'
p21
F0.5
sS'lastScale'
p22
F5.5
sb.(i__main__
Data_mobile
p1
(dp2
S'vel_y'
p3
I0
sS'vel_x'
p4
I0
sS'pos_x'
p5
I-9579
sS'pos_y'
p6
I9779
sS'isAlive'
p7
I00
sS'cumulativeEnergy'
p8
F0.5
sS'geno'
p9
(lp10
F1.5410705317429043
aF-3.2301400876242106
aF-3.6799058757595633
aF4.9393301001507925
aF0.94198050807173139
asS'accel_x'
p11
F0
sS'accel_y'
p12
F0
sS'visionAngle'
p13
I130
sS'maxAccel'
p14
I2
sS'maxVel'
p15
F0.72999999999999998
sS'age'
p16
I0
sS'tailSize'
p17
I0
sS'sexualgeno'
p18
NsS'tailBrigh'
p19
I0
sS'maxSteering'
p20
I20
sS'energy'
p21
F0.5
sS'lastScale'
p22
F5.5
sb.(i__main__
Data_mobile
p1
(dp2
S'vel_y'
p3
I0
sS'vel_x'
p4
I0
sS'pos_x'
p5
I-9579
sS'pos_y'
p6
I9779
sS'isAlive'
p7
I00
sS'cumulativeEnergy'
p8
F0.5
sS'geno'
p9
(lp10
F1.5410705317429043
aF-2.4776608229318651
aF-3.6799058757595633
aF4.4447765057629702
aF0.94198050807173139
asS'accel_x'
p11
F0
sS'accel_y'
p12
F0
sS'visionAngle'
p13
I130
sS'maxAccel'
p14
I2
sS'maxVel'
p15
F0.72999999999999998
sS'age'
p16
I0
sS'tailSize'
p17
I0
sS'sexualgeno'
p18
NsS'tailBrigh'
p19
I0
sS'maxSteering'
p20
I20
sS'energy'
p21
F0.5
sS'lastScale'
p22
F5.5
sb.(i__main__
Data_mobile
p1
(dp2
S'vel_y'
p3
I0
sS'vel_x'
p4
I0
sS'pos_x'
p5
I-9579
sS'pos_y'
p6
I9779
sS'isAlive'
p7
I00
sS'cumulativeEnergy'
p8
F0.5
sS'geno'
p9
(lp10
F1.5410705317429043
aF-1.9959804368136014
aF-3.6799058757595633
aF4.4447765057629702
aF0.98008935580288459
asS'accel_x'
p11
F0
sS'accel_y'
p12
F0
sS'visionAngle'
p13
I130
sS'maxAccel'
p14
I2
sS'maxVel'
p15
F0.72999999999999998
sS'age'
p16
I0
sS'tailSize'
p17
I0
sS'sexualgeno'
p18
NsS'tailBrigh'
p19
I0
sS'maxSteering'
p20
I20
sS'energy'
p21
F0.5
sS'lastScale'
p22
F5.5
sb.(i__main__
Data_mobile
p1
(dp2
S'vel_y'
p3
I0
sS'vel_x'
p4
I0
sS'pos_x'
p5
I-9579
sS'pos_y'
p6
I9779
sS'isAlive'
p7
I00
sS'cumulativeEnergy'
p8
F0.5
sS'geno'
p9
(lp10
F-0.5773539597664179
aF-0.9285587866074323
aF-3.1920934123243194
aF1.1162300398866503
aF-0.38874843408352433
asS'accel_x'
p11
F0
sS'accel_y'
p12
F0
sS'visionAngle'
p13
I130
sS'maxAccel'
p14
I2
sS'maxVel'
p15
F0.72999999999999998
sS'age'
p16
I0
sS'tailSize'
p17
I0
sS'sexualgeno'
p18
NsS'tailBrigh'
p19
I0
sS'maxSteering'
p20
I20
sS'energy'
p21
F0.5
sS'lastScale'
p22
F5.5
sb.(i__main__
Data_mobile
p1
(dp2
S'vel_y'
p3
I0
sS'vel_x'
p4
I0
sS'pos_x'
p5
I-9579
sS'pos_y'
p6
I9779
sS'isAlive'
p7
I00
sS'cumulativeEnergy'
p8
F0.5
sS'geno'
p9
(lp10
F1.5410705317429043
aF-2.9459243149318102
aF-3.6799058757595633
aF4.8825008635133047
aF0.94198050807173139
asS'accel_x'
p11
F0
sS'accel_y'
p12
F0
sS'visionAngle'
p13
I130
sS'maxAccel'
p14
I2
sS'maxVel'
p15
F0.72999999999999998
sS'age'
p16
I0
sS'tailSize'
p17
I0
sS'sexualgeno'
p18
NsS'tailBrigh'
p19
I0
sS'maxSteering'
p20
I20
sS'energy'
p21
F0.5
sS'lastScale'
p22
F5.5
sb.(i__main__
Data_mobile
p1
(dp2
S'vel_y'
p3
I0
sS'vel_x'
p4
I0
sS'pos_x'
p5
I-9579
sS'pos_y'
p6
I9779
sS'isAlive'
p7
I00
sS'cumulativeEnergy'
p8
F0.5
sS'geno'
p9
(lp10
F1.5410705317429043
aF-1.9959804368136014
aF-3.6799058757595633
aF4.4447765057629702
aF0.94198050807173139
asS'accel_x'
p11
F0
sS'accel_y'
p12
F0
sS'visionAngle'
p13
I130
sS'maxAccel'
p14
I2
sS'maxVel'
p15
F0.72999999999999998
sS'age'
p16
I0
sS'tailSize'
p17
I0
sS'sexualgeno'
p18
NsS'tailBrigh'
p19
I0
sS'maxSteering'
p20
I20
sS'energy'
p21
F0.5
sS'lastScale'
p22
F5.5
sb.(i__main__
Data_mobile
p1
(dp2
S'vel_y'
p3
I0
sS'vel_x'
p4
I0
sS'pos_x'
p5
I-9579
sS'pos_y'
p6
I9779
sS'isAlive'
p7
I00
sS'cumulativeEnergy'
p8
F0.5
sS'geno'
p9
(lp10
F2.0409661279159699
aF-1.9959804368136014
aF-3.6799058757595633
aF4.4447765057629702
aF0.94198050807173139
asS'accel_x'
p11
F0
sS'accel_y'
p12
F0
sS'visionAngle'
p13
I130
sS'maxAccel'
p14
I2
sS'maxVel'
p15
F0.72999999999999998
sS'age'
p16
I0
sS'tailSize'
p17
I0
sS'sexualgeno'
p18
NsS'tailBrigh'
p19
I0
sS'maxSteering'
p20
I20
sS'energy'
p21
F0.5
sS'lastScale'
p22
F5.5
sb.