(i__main__
Data_mobile
p1
(dp2
S'vel_y'
p3
F-0.26650102379769919
sS'vel_x'
p4
F0.65736281420247433
sS'pos_x'
p5
F-193.82020492265596
sS'pos_y'
p6
F6.2763160945137288
sS'isAlive'
p7
I01
sS'cumulativeEnergy'
p8
F27.154320731438315
sS'geno'
p9
(lp10
S'currentVelocity'
p11
aS'POINT./'
p12
a(lp13
(lp14
(lp15
S'currentVelocity'
p16
aS'POINT.*'
p17
aS'alignment'
p18
a(lp19
S'POINT.*'
p20
aaa(lp21
S'POINT./'
p22
aaS'target'
p23
aaS'alignment'
p24
aaS'currentEnergy'
p25
a(lp26
(lp27
S'POINT./'
p28
aa(lp29
S'target'
p30
aS'randV'
p31
aS'currentVelocity'
p32
aS'target'
p33
a(lp34
S'POINT.+'
p35
aS'POINT./'
p36
aaS'separation'
p37
aS'target'
p38
aa(lp39
S'target'
p40
aaS'POINT.*'
p41
aasS'accel_x'
p42
F-0.078656286263850461
sS'accel_y'
p43
F0.61106651228097508
sS'visionAngle'
p44
I130
sS'maxAccel'
p45
I2
sS'maxVel'
p46
F0.72999999999999998
sS'age'
p47
I49
sS'tailSize'
p48
I0
sS'sexualgeno'
p49
NsS'tailBrigh'
p50
I0
sS'maxSteering'
p51
I20
sS'energy'
p52
F1
sS'lastScale'
p53
F15.5
sb.(i__main__
Data_mobile
p1
(dp2
S'vel_y'
p3
F0.48234372029297273
sS'vel_x'
p4
F-0.54794574137767915
sS'pos_x'
p5
F-57.99980832002511
sS'pos_y'
p6
F19.562591251166726
sS'isAlive'
p7
I01
sS'cumulativeEnergy'
p8
F20.722847665208452
sS'geno'
p9
(lp10
S'currentVelocity'
p11
aS'POINT./'
p12
a(lp13
(lp14
(lp15
S'currentVelocity'
p16
aS'POINT.*'
p17
aS'alignment'
p18
a(lp19
S'POINT.*'
p20
aaa(lp21
S'POINT./'
p22
aaS'target'
p23
aaS'alignment'
p24
aaS'currentEnergy'
p25
a(lp26
(lp27
S'POINT./'
p28
aa(lp29
S'target'
p30
aS'randV'
p31
aS'currentVelocity'
p32
aS'target'
p33
a(lp34
S'POINT.+'
p35
aS'POINT./'
p36
aa(lp37
S'POINT.+'
p38
aaS'target'
p39
aa(lp40
(lp41
S'POINT.+'
p42
aaaS'POINT.*'
p43
aasS'accel_x'
p44
F-1.6342236388745703
sS'accel_y'
p45
F1.1529584112809788
sS'visionAngle'
p46
I130
sS'maxAccel'
p47
I2
sS'maxVel'
p48
F0.72999999999999998
sS'age'
p49
I49
sS'tailSize'
p50
I0
sS'sexualgeno'
p51
NsS'tailBrigh'
p52
I0
sS'maxSteering'
p53
I20
sS'energy'
p54
F0.40839739649483203
sS'lastScale'
p55
F9.5839739649483207
sb.(i__main__
Data_mobile
p1
(dp2
S'vel_y'
p3
F0.10035487857049041
sS'vel_x'
p4
F-0.41983393941545283
sS'pos_x'
p5
F173.78065859274054
sS'pos_y'
p6
F-26.552098374191999
sS'isAlive'
p7
I01
sS'cumulativeEnergy'
p8
F12.722847665208461
sS'geno'
p9
(lp10
S'currentVelocity'
p11
aS'POINT./'
p12
a(lp13
(lp14
(lp15
S'currentVelocity'
p16
aS'POINT.*'
p17
aS'alignment'
p18
a(lp19
S'POINT.*'
p20
aaa(lp21
S'POINT./'
p22
aaS'target'
p23
aaS'alignment'
p24
aaS'currentEnergy'
p25
a(lp26
(lp27
S'POINT./'
p28
aa(lp29
S'target'
p30
aS'randV'
p31
aS'currentVelocity'
p32
aS'target'
p33
a(lp34
S'POINT.+'
p35
aS'POINT./'
p36
aaS'separation'
p37
aS'target'
p38
aa(lp39
(lp40
S'POINT.+'
p41
aaaS'POINT.*'
p42
aasS'accel_x'
p43
F0
sS'accel_y'
p44
F0
sS'visionAngle'
p45
I130
sS'maxAccel'
p46
I2
sS'maxVel'
p47
F0.72999999999999998
sS'age'
p48
I49
sS'tailSize'
p49
I0
sS'sexualgeno'
p50
NsS'tailBrigh'
p51
I0
sS'maxSteering'
p52
I20
sS'energy'
p53
F0.0083973964948321628
sS'lastScale'
p54
F5.5839739649483215
sb.(i__main__
Data_mobile
p1
(dp2
S'vel_y'
p3
F0.51618797588680199
sS'vel_x'
p4
F0.51618792464555607
sS'pos_x'
p5
F99.860852836231942
sS'pos_y'
p6
F-64.638671866347906
sS'isAlive'
p7
I01
sS'cumulativeEnergy'
p8
F12.722847665208461
sS'geno'
p9
(lp10
S'POINT./'
p11
a(lp12
S'cohesion'
p13
a(lp14
S'POINT.-'
p15
aa(lp16
S'alignment'
p17
aaS'currentEnergy'
p18
aa(lp19
S'currentEnergy'
p20
aS'cohesion'
p21
a(lp22
S'currentEnergy'
p23
aS'POINT./'
p24
aa(lp25
S'POINT./'
p26
aS'target'
p27
a(lp28
S'separation'
p29
aS'randV'
p30
a(lp31
S'POINT.-'
p32
aaS'randV'
p33
aaa(lp34
(lp35
S'POINT.*'
p36
aS'alignment'
p37
aaS'separation'
p38
a(lp39
(lp40
S'target'
p41
a(lp42
S'currentEnergy'
p43
aa(lp44
S'target'
p45
aS'POINT./'
p46
a(lp47
S'currentVelocity'
p48
aaS'randV'
p49
aS'POINT.+'
p50
aaa(lp51
S'currentEnergy'
p52
aaS'POINT./'
p53
aaa(lp54
(lp55
S'POINT./'
p56
aa(lp57
S'POINT.+'
p58
aaS'POINT.-'
p59
aS'randV'
p60
a(lp61
S'currentVelocity'
p62
a(lp63
S'POINT.*'
p64
aaaa(lp65
S'separation'
p66
aS'alignment'
p67
aaa(lp68
S'currentEnergy'
p69
a(lp70
(lp71
S'target'
p72
a(lp73
S'currentEnergy'
p74
aaS'POINT.*'
p75
aaS'separation'
p76
aaS'POINT./'
p77
aasS'accel_x'
p78
F0.0083973964948321628
sS'accel_y'
p79
F0.0083973964948321628
sS'visionAngle'
p80
I130
sS'maxAccel'
p81
I2
sS'maxVel'
p82
F0.72999999999999998
sS'age'
p83
I49
sS'tailSize'
p84
I0
sS'sexualgeno'
p85
NsS'tailBrigh'
p86
I0
sS'maxSteering'
p87
I20
sS'energy'
p88
F0.0083973964948321628
sS'lastScale'
p89
F5.5839739649483215
sb.(i__main__
Data_mobile
p1
(dp2
S'vel_y'
p3
F-0.30979385710440954
sS'vel_x'
p4
F0.60872146065855715
sS'pos_x'
p5
F112.68414603651114
sS'pos_y'
p6
F3.5742278885157721
sS'isAlive'
p7
I01
sS'cumulativeEnergy'
p8
F12.231245061703294
sS'geno'
p9
(lp10
S'currentVelocity'
p11
aS'POINT./'
p12
aS'alignment'
p13
aS'currentEnergy'
p14
a(lp15
S'currentVelocity'
p16
aS'POINT./'
p17
a(lp18
(lp19
(lp20
S'currentVelocity'
p21
aS'POINT.*'
p22
aS'alignment'
p23
a(lp24
S'POINT.*'
p25
aaa(lp26
S'POINT./'
p27
aaS'target'
p28
aaS'alignment'
p29
aaS'currentEnergy'
p30
a(lp31
(lp32
S'POINT./'
p33
aa(lp34
S'target'
p35
aS'randV'
p36
a(lp37
(lp38
S'POINT.+'
p39
aaaS'target'
p40
a(lp41
S'POINT./'
p42
aaS'target'
p43
aS'target'
p44
aa(lp45
(lp46
S'POINT./'
p47
aaaS'POINT.*'
p48
aaasS'accel_x'
p49
F0
sS'accel_y'
p50
F0
sS'visionAngle'
p51
I130
sS'maxAccel'
p52
I2
sS'maxVel'
p53
F0.72999999999999998
sS'age'
p54
I50
sS'tailSize'
p55
I0
sS'sexualgeno'
p56
NsS'tailBrigh'
p57
I0
sS'maxSteering'
p58
I20
sS'energy'
p59
I0
sS'lastScale'
p60
F5.5
sb.(i__main__
Data_mobile
p1
(dp2
S'vel_y'
p3
F-0.29496282217131709
sS'vel_x'
p4
F0.66775514489723842
sS'pos_x'
p5
F131.14968809112179
sS'pos_y'
p6
F4.8013305796039463
sS'isAlive'
p7
I01
sS'cumulativeEnergy'
p8
F12.231245061703294
sS'geno'
p9
(lp10
S'currentVelocity'
p11
aS'POINT./'
p12
a(lp13
(lp14
(lp15
S'currentVelocity'
p16
aS'POINT.*'
p17
aS'alignment'
p18
a(lp19
S'POINT.*'
p20
aaa(lp21
S'POINT./'
p22
aaS'target'
p23
aaS'alignment'
p24
aaS'currentEnergy'
p25
a(lp26
(lp27
S'target'
p28
aS'randV'
p29
aS'currentVelocity'
p30
aS'target'
p31
a(lp32
S'POINT./'
p33
aaS'target'
p34
aS'target'
p35
aa(lp36
S'target'
p37
aS'randV'
p38
aS'currentVelocity'
p39
aS'target'
p40
a(lp41
S'POINT.+'
p42
aS'POINT./'
p43
aaS'separation'
p44
aS'target'
p45
aa(lp46
(lp47
S'POINT.+'
p48
aaaS'POINT.*'
p49
aasS'accel_x'
p50
F0.66775514489723842
sS'accel_y'
p51
F-0.29496282217131709
sS'visionAngle'
p52
I130
sS'maxAccel'
p53
I2
sS'maxVel'
p54
F0.72999999999999998
sS'age'
p55
I50
sS'tailSize'
p56
I0
sS'sexualgeno'
p57
NsS'tailBrigh'
p58
I0
sS'maxSteering'
p59
I20
sS'energy'
p60
I0
sS'lastScale'
p61
F5.5
sb.(i__main__
Data_mobile
p1
(dp2
S'vel_y'
p3
F-0.060586355409901732
sS'vel_x'
p4
F0.32593134795289497
sS'pos_x'
p5
F-89.980329558659832
sS'pos_y'
p6
F16.434180383152402
sS'isAlive'
p7
I01
sS'cumulativeEnergy'
p8
F0.5
sS'geno'
p9
(lp10
S'currentVelocity'
p11
aS'POINT./'
p12
a(lp13
(lp14
(lp15
S'currentVelocity'
p16
aS'POINT.*'
p17
aS'alignment'
p18
aS'POINT./'
p19
aa(lp20
S'POINT./'
p21
aaS'target'
p22
aaS'alignment'
p23
aaS'currentEnergy'
p24
a(lp25
(lp26
S'POINT./'
p27
aa(lp28
S'target'
p29
aS'randV'
p30
aS'currentVelocity'
p31
aS'target'
p32
a(lp33
S'POINT.+'
p34
aS'POINT./'
p35
aaS'separation'
p36
aS'target'
p37
aa(lp38
S'target'
p39
aaS'POINT.*'
p40
aasS'accel_x'
p41
F0
sS'accel_y'
p42
F0
sS'visionAngle'
p43
I130
sS'maxAccel'
p44
I2
sS'maxVel'
p45
F0.72999999999999998
sS'age'
p46
I0
sS'tailSize'
p47
I0
sS'sexualgeno'
p48
NsS'tailBrigh'
p49
I0
sS'maxSteering'
p50
I20
sS'energy'
p51
F0.5
sS'lastScale'
p52
F5.5
sb.(i__main__
Data_mobile
p1
(dp2
S'vel_y'
p3
F-0.046618962144340192
sS'vel_x'
p4
F0.30345002757910128
sS'pos_x'
p5
F-182.82482842184103
sS'pos_y'
p6
F7.3519100501714458
sS'isAlive'
p7
I01
sS'cumulativeEnergy'
p8
F0.5
sS'geno'
p9
(lp10
S'currentVelocity'
p11
aS'POINT./'
p12
a(lp13
(lp14
(lp15
S'currentVelocity'
p16
aS'POINT.*'
p17
aS'alignment'
p18
a(lp19
S'POINT.*'
p20
aaa(lp21
S'POINT./'
p22
aaS'target'
p23
aaS'alignment'
p24
aaS'currentEnergy'
p25
a(lp26
(lp27
S'POINT./'
p28
aa(lp29
S'target'
p30
aS'randV'
p31
aS'currentVelocity'
p32
aS'target'
p33
a(lp34
S'POINT.+'
p35
aS'POINT./'
p36
aaS'POINT./'
p37
aS'target'
p38
aa(lp39
(lp40
S'POINT.+'
p41
aaaS'POINT.*'
p42
aasS'accel_x'
p43
F0
sS'accel_y'
p44
F0
sS'visionAngle'
p45
I130
sS'maxAccel'
p46
I2
sS'maxVel'
p47
F0.72999999999999998
sS'age'
p48
I0
sS'tailSize'
p49
I0
sS'sexualgeno'
p50
NsS'tailBrigh'
p51
I0
sS'maxSteering'
p52
I20
sS'energy'
p53
F0.5
sS'lastScale'
p54
F5.5
sb.(i__main__
Data_mobile
p1
(dp2
S'vel_y'
p3
F-0.2105191246025831
sS'vel_x'
p4
F0.56725673735548365
sS'pos_x'
p5
F-134.46484201071084
sS'pos_y'
p6
F12.082599269921744
sS'isAlive'
p7
I01
sS'cumulativeEnergy'
p8
F0.5
sS'geno'
p9
(lp10
S'currentVelocity'
p11
aS'POINT./'
p12
a(lp13
(lp14
(lp15
S'currentVelocity'
p16
aS'POINT.*'
p17
aS'alignment'
p18
a(lp19
S'POINT.*'
p20
aaa(lp21
S'POINT./'
p22
aaS'target'
p23
aaS'alignment'
p24
aaS'currentEnergy'
p25
a(lp26
(lp27
S'POINT./'
p28
aa(lp29
S'target'
p30
aS'randV'
p31
aS'target'
p32
aS'target'
p33
a(lp34
S'POINT.+'
p35
aS'POINT./'
p36
aa(lp37
S'POINT.+'
p38
aaS'target'
p39
aa(lp40
(lp41
S'POINT.+'
p42
aaaS'POINT.*'
p43
aasS'accel_x'
p44
F0
sS'accel_y'
p45
F0
sS'visionAngle'
p46
I130
sS'maxAccel'
p47
I2
sS'maxVel'
p48
F0.72999999999999998
sS'age'
p49
I0
sS'tailSize'
p50
I0
sS'sexualgeno'
p51
NsS'tailBrigh'
p52
I0
sS'maxSteering'
p53
I20
sS'energy'
p54
F0.5
sS'lastScale'
p55
F5.5
sb.(i__main__
Data_mobile
p1
(dp2
S'vel_y'
p3
F0.17465938754991506
sS'vel_x'
p4
F-0.052710164711504137
sS'pos_x'
p5
F-165.60780909824229
sS'pos_y'
p6
F9.036119946715905
sS'isAlive'
p7
I01
sS'cumulativeEnergy'
p8
F0.5
sS'geno'
p9
(lp10
S'currentVelocity'
p11
aS'POINT./'
p12
a(lp13
(lp14
(lp15
S'currentVelocity'
p16
aS'POINT.*'
p17
aS'alignment'
p18
a(lp19
S'POINT.*'
p20
aaa(lp21
S'POINT./'
p22
aaS'target'
p23
aaS'alignment'
p24
aaS'currentEnergy'
p25
a(lp26
(lp27
S'POINT./'
p28
aa(lp29
S'POINT.+'
p30
aS'randV'
p31
aS'currentVelocity'
p32
aS'target'
p33
a(lp34
S'POINT.+'
p35
aS'POINT./'
p36
aaS'separation'
p37
aS'target'
p38
aa(lp39
S'target'
p40
aaS'POINT.*'
p41
aasS'accel_x'
p42
F0
sS'accel_y'
p43
F0
sS'visionAngle'
p44
I130
sS'maxAccel'
p45
I2
sS'maxVel'
p46
F0.72999999999999998
sS'age'
p47
I0
sS'tailSize'
p48
I0
sS'sexualgeno'
p49
NsS'tailBrigh'
p50
I0
sS'maxSteering'
p51
I20
sS'energy'
p52
F0.5
sS'lastScale'
p53
F5.5
sb.(i__main__
Data_mobile
p1
(dp2
S'vel_y'
p3
I0
sS'vel_x'
p4
I0
sS'pos_x'
p5
I-9579
sS'pos_y'
p6
I9779
sS'isAlive'
p7
I00
sS'cumulativeEnergy'
p8
F0.5
sS'geno'
p9
(lp10
S'currentVelocity'
p11
aS'POINT./'
p12
aS'alignment'
p13
aS'currentEnergy'
p14
a(lp15
S'currentVelocity'
p16
aS'POINT./'
p17
a(lp18
(lp19
(lp20
S'currentVelocity'
p21
aS'POINT.*'
p22
aS'alignment'
p23
a(lp24
S'POINT.*'
p25
aaa(lp26
S'POINT./'
p27
aaS'target'
p28
aaS'alignment'
p29
aaS'currentEnergy'
p30
a(lp31
(lp32
S'POINT./'
p33
aa(lp34
S'target'
p35
aS'randV'
p36
aS'currentVelocity'
p37
aS'target'
p38
a(lp39
S'POINT./'
p40
aaS'target'
p41
aS'target'
p42
aa(lp43
(lp44
S'POINT./'
p45
aaaS'POINT.*'
p46
aaasS'accel_x'
p47
F0
sS'accel_y'
p48
F0
sS'visionAngle'
p49
I130
sS'maxAccel'
p50
I2
sS'maxVel'
p51
F0.72999999999999998
sS'age'
p52
I0
sS'tailSize'
p53
I0
sS'sexualgeno'
p54
NsS'tailBrigh'
p55
I0
sS'maxSteering'
p56
I20
sS'energy'
p57
F0.5
sS'lastScale'
p58
F5.5
sb.(i__main__
Data_mobile
p1
(dp2
S'vel_y'
p3
I0
sS'vel_x'
p4
I0
sS'pos_x'
p5
I-9579
sS'pos_y'
p6
I9779
sS'isAlive'
p7
I00
sS'cumulativeEnergy'
p8
F0.5
sS'geno'
p9
(lp10
S'currentVelocity'
p11
aS'POINT./'
p12
aS'alignment'
p13
aS'currentEnergy'
p14
a(lp15
S'currentVelocity'
p16
aS'POINT./'
p17
a(lp18
(lp19
(lp20
S'currentVelocity'
p21
aS'POINT.*'
p22
aS'alignment'
p23
a(lp24
S'POINT.*'
p25
aaa(lp26
S'POINT./'
p27
aaS'target'
p28
aaS'alignment'
p29
aaS'currentEnergy'
p30
a(lp31
(lp32
S'POINT./'
p33
aa(lp34
S'target'
p35
aS'randV'
p36
aS'currentVelocity'
p37
aS'target'
p38
a(lp39
S'POINT.+'
p40
aS'POINT./'
p41
aaS'target'
p42
aS'target'
p43
aa(lp44
(lp45
S'POINT./'
p46
aaaS'POINT.*'
p47
aaasS'accel_x'
p48
F0
sS'accel_y'
p49
F0
sS'visionAngle'
p50
I130
sS'maxAccel'
p51
I2
sS'maxVel'
p52
F0.72999999999999998
sS'age'
p53
I0
sS'tailSize'
p54
I0
sS'sexualgeno'
p55
NsS'tailBrigh'
p56
I0
sS'maxSteering'
p57
I20
sS'energy'
p58
F0.5
sS'lastScale'
p59
F5.5
sb.(i__main__
Data_mobile
p1
(dp2
S'vel_y'
p3
I0
sS'vel_x'
p4
I0
sS'pos_x'
p5
I-9579
sS'pos_y'
p6
I9779
sS'isAlive'
p7
I00
sS'cumulativeEnergy'
p8
F0.5
sS'geno'
p9
(lp10
S'currentVelocity'
p11
aS'POINT./'
p12
a(lp13
S'currentVelocity'
p14
aS'POINT.*'
p15
aS'alignment'
p16
a(lp17
S'POINT.*'
p18
aaaS'currentEnergy'
p19
a(lp20
(lp21
S'POINT./'
p22
aa(lp23
S'target'
p24
aS'randV'
p25
aS'currentVelocity'
p26
aS'target'
p27
a(lp28
S'POINT.+'
p29
aS'POINT./'
p30
aaS'separation'
p31
aS'target'
p32
aa(lp33
(lp34
S'POINT.+'
p35
aaaS'POINT.*'
p36
aasS'accel_x'
p37
F0
sS'accel_y'
p38
F0
sS'visionAngle'
p39
I130
sS'maxAccel'
p40
I2
sS'maxVel'
p41
F0.72999999999999998
sS'age'
p42
I0
sS'tailSize'
p43
I0
sS'sexualgeno'
p44
NsS'tailBrigh'
p45
I0
sS'maxSteering'
p46
I20
sS'energy'
p47
F0.5
sS'lastScale'
p48
F5.5
sb.(i__main__
Data_mobile
p1
(dp2
S'vel_y'
p3
I0
sS'vel_x'
p4
I0
sS'pos_x'
p5
I-9579
sS'pos_y'
p6
I9779
sS'isAlive'
p7
I00
sS'cumulativeEnergy'
p8
F0.5
sS'geno'
p9
(lp10
S'currentVelocity'
p11
aS'POINT./'
p12
a(lp13
(lp14
(lp15
S'currentVelocity'
p16
aS'POINT.*'
p17
aS'alignment'
p18
a(lp19
S'POINT.*'
p20
aaa(lp21
S'POINT./'
p22
aaS'target'
p23
aaS'alignment'
p24
aaS'currentEnergy'
p25
a(lp26
(lp27
S'POINT./'
p28
aa(lp29
S'target'
p30
aS'randV'
p31
aS'currentVelocity'
p32
aS'target'
p33
a(lp34
S'POINT.+'
p35
aS'POINT./'
p36
aaS'separation'
p37
aS'target'
p38
aa(lp39
(lp40
S'POINT.+'
p41
aaaS'POINT.*'
p42
aasS'accel_x'
p43
F0
sS'accel_y'
p44
F0
sS'visionAngle'
p45
I130
sS'maxAccel'
p46
I2
sS'maxVel'
p47
F0.72999999999999998
sS'age'
p48
I0
sS'tailSize'
p49
I0
sS'sexualgeno'
p50
NsS'tailBrigh'
p51
I0
sS'maxSteering'
p52
I20
sS'energy'
p53
F0.5
sS'lastScale'
p54
F5.5
sb.(i__main__
Data_mobile
p1
(dp2
S'vel_y'
p3
I0
sS'vel_x'
p4
I0
sS'pos_x'
p5
I-9579
sS'pos_y'
p6
I9779
sS'isAlive'
p7
I00
sS'cumulativeEnergy'
p8
F0.5
sS'geno'
p9
(lp10
S'currentVelocity'
p11
aS'POINT./'
p12
a(lp13
(lp14
(lp15
S'currentVelocity'
p16
aS'POINT.*'
p17
aS'alignment'
p18
a(lp19
S'POINT.*'
p20
aaa(lp21
S'POINT./'
p22
aaS'target'
p23
aaS'alignment'
p24
aaS'currentEnergy'
p25
a(lp26
(lp27
S'POINT./'
p28
aa(lp29
S'target'
p30
aS'randV'
p31
aS'currentVelocity'
p32
aS'target'
p33
a(lp34
S'POINT.+'
p35
aS'POINT./'
p36
aaS'separation'
p37
aS'target'
p38
aa(lp39
(lp40
S'POINT.+'
p41
aaaS'POINT.*'
p42
aasS'accel_x'
p43
F0
sS'accel_y'
p44
F0
sS'visionAngle'
p45
I130
sS'maxAccel'
p46
I2
sS'maxVel'
p47
F0.72999999999999998
sS'age'
p48
I0
sS'tailSize'
p49
I0
sS'sexualgeno'
p50
NsS'tailBrigh'
p51
I0
sS'maxSteering'
p52
I20
sS'energy'
p53
F0.5
sS'lastScale'
p54
F5.5
sb.(i__main__
Data_mobile
p1
(dp2
S'vel_y'
p3
I0
sS'vel_x'
p4
I0
sS'pos_x'
p5
I-9579
sS'pos_y'
p6
I9779
sS'isAlive'
p7
I00
sS'cumulativeEnergy'
p8
F0.5
sS'geno'
p9
(lp10
S'currentVelocity'
p11
aS'POINT./'
p12
aS'alignment'
p13
aS'currentEnergy'
p14
a(lp15
S'currentVelocity'
p16
aS'POINT./'
p17
a(lp18
(lp19
(lp20
S'currentVelocity'
p21
aS'POINT.*'
p22
aS'alignment'
p23
a(lp24
S'POINT.*'
p25
aaa(lp26
S'currentVelocity'
p27
aaS'target'
p28
aaS'alignment'
p29
aaS'currentEnergy'
p30
a(lp31
(lp32
S'POINT./'
p33
aa(lp34
S'target'
p35
aS'randV'
p36
aS'currentVelocity'
p37
aS'target'
p38
a(lp39
S'POINT.+'
p40
aS'POINT./'
p41
aaS'separation'
p42
aS'target'
p43
aa(lp44
(lp45
S'POINT./'
p46
aaaS'POINT.*'
p47
aaasS'accel_x'
p48
F0
sS'accel_y'
p49
F0
sS'visionAngle'
p50
I130
sS'maxAccel'
p51
I2
sS'maxVel'
p52
F0.72999999999999998
sS'age'
p53
I0
sS'tailSize'
p54
I0
sS'sexualgeno'
p55
NsS'tailBrigh'
p56
I0
sS'maxSteering'
p57
I20
sS'energy'
p58
F0.5
sS'lastScale'
p59
F5.5
sb.(i__main__
Data_mobile
p1
(dp2
S'vel_y'
p3
I0
sS'vel_x'
p4
I0
sS'pos_x'
p5
I-9579
sS'pos_y'
p6
I9779
sS'isAlive'
p7
I00
sS'cumulativeEnergy'
p8
F0.5
sS'geno'
p9
(lp10
S'currentVelocity'
p11
aS'POINT./'
p12
aS'alignment'
p13
aS'currentEnergy'
p14
a(lp15
S'currentVelocity'
p16
aS'POINT./'
p17
a(lp18
(lp19
(lp20
S'currentVelocity'
p21
aS'POINT.*'
p22
aS'alignment'
p23
a(lp24
S'POINT.*'
p25
aaa(lp26
S'POINT./'
p27
aaS'target'
p28
aaS'alignment'
p29
aaS'currentEnergy'
p30
a(lp31
(lp32
S'POINT./'
p33
aa(lp34
S'target'
p35
aS'randV'
p36
aS'currentVelocity'
p37
aS'target'
p38
a(lp39
S'POINT.+'
p40
aS'POINT./'
p41
aaS'separation'
p42
aS'target'
p43
aa(lp44
(lp45
S'POINT./'
p46
aaaS'POINT.*'
p47
aaasS'accel_x'
p48
F0
sS'accel_y'
p49
F0
sS'visionAngle'
p50
I130
sS'maxAccel'
p51
I2
sS'maxVel'
p52
F0.72999999999999998
sS'age'
p53
I0
sS'tailSize'
p54
I0
sS'sexualgeno'
p55
NsS'tailBrigh'
p56
I0
sS'maxSteering'
p57
I20
sS'energy'
p58
F0.5
sS'lastScale'
p59
F5.5
sb.(i__main__
Data_mobile
p1
(dp2
S'vel_y'
p3
I0
sS'vel_x'
p4
I0
sS'pos_x'
p5
I-9579
sS'pos_y'
p6
I9779
sS'isAlive'
p7
I00
sS'cumulativeEnergy'
p8
F0.5
sS'geno'
p9
(lp10
S'currentVelocity'
p11
aS'POINT./'
p12
aS'alignment'
p13
aS'currentEnergy'
p14
a(lp15
(lp16
S'POINT./'
p17
aa(lp18
S'target'
p19
aS'POINT.+'
p20
aS'currentVelocity'
p21
aS'target'
p22
a(lp23
S'POINT.+'
p24
aS'POINT./'
p25
aa(lp26
S'POINT./'
p27
aaS'target'
p28
aa(lp29
S'POINT./'
p30
aaS'POINT.*'
p31
aasS'accel_x'
p32
F0
sS'accel_y'
p33
F0
sS'visionAngle'
p34
I130
sS'maxAccel'
p35
I2
sS'maxVel'
p36
F0.72999999999999998
sS'age'
p37
I0
sS'tailSize'
p38
I0
sS'sexualgeno'
p39
NsS'tailBrigh'
p40
I0
sS'maxSteering'
p41
I20
sS'energy'
p42
F0.5
sS'lastScale'
p43
F5.5
sb.(i__main__
Data_mobile
p1
(dp2
S'vel_y'
p3
I0
sS'vel_x'
p4
I0
sS'pos_x'
p5
I-9579
sS'pos_y'
p6
I9779
sS'isAlive'
p7
I00
sS'cumulativeEnergy'
p8
F0.5
sS'geno'
p9
(lp10
S'currentVelocity'
p11
aS'POINT.*'
p12
aS'alignment'
p13
aS'currentEnergy'
p14
a(lp15
S'currentVelocity'
p16
aS'POINT./'
p17
a(lp18
(lp19
(lp20
S'currentVelocity'
p21
aS'POINT.*'
p22
aS'alignment'
p23
a(lp24
S'POINT.*'
p25
aaa(lp26
S'POINT./'
p27
aaS'target'
p28
aaS'alignment'
p29
aaS'currentEnergy'
p30
a(lp31
(lp32
S'POINT./'
p33
aa(lp34
S'target'
p35
aS'randV'
p36
aS'currentVelocity'
p37
aS'target'
p38
a(lp39
S'POINT.+'
p40
aS'POINT./'
p41
aaS'separation'
p42
aS'target'
p43
aa(lp44
(lp45
S'POINT./'
p46
aaaS'POINT.*'
p47
aaasS'accel_x'
p48
F0
sS'accel_y'
p49
F0
sS'visionAngle'
p50
I130
sS'maxAccel'
p51
I2
sS'maxVel'
p52
F0.72999999999999998
sS'age'
p53
I0
sS'tailSize'
p54
I0
sS'sexualgeno'
p55
NsS'tailBrigh'
p56
I0
sS'maxSteering'
p57
I20
sS'energy'
p58
F0.5
sS'lastScale'
p59
F5.5
sb.(i__main__
Data_mobile
p1
(dp2
S'vel_y'
p3
I0
sS'vel_x'
p4
I0
sS'pos_x'
p5
I-9579
sS'pos_y'
p6
I9779
sS'isAlive'
p7
I00
sS'cumulativeEnergy'
p8
F0.5
sS'geno'
p9
(lp10
S'currentVelocity'
p11
aS'POINT./'
p12
aS'currentVelocity'
p13
aS'currentEnergy'
p14
a(lp15
S'currentVelocity'
p16
aS'POINT./'
p17
a(lp18
(lp19
(lp20
S'currentVelocity'
p21
aS'POINT.*'
p22
aS'alignment'
p23
a(lp24
S'POINT.*'
p25
aaa(lp26
S'POINT./'
p27
aaS'target'
p28
aaS'alignment'
p29
aaS'currentEnergy'
p30
a(lp31
(lp32
S'POINT./'
p33
aa(lp34
S'target'
p35
aS'randV'
p36
aS'currentVelocity'
p37
aS'target'
p38
a(lp39
S'POINT.+'
p40
aS'POINT./'
p41
aaS'separation'
p42
aS'target'
p43
aa(lp44
(lp45
S'POINT./'
p46
aaaS'POINT.*'
p47
aaasS'accel_x'
p48
F0
sS'accel_y'
p49
F0
sS'visionAngle'
p50
I130
sS'maxAccel'
p51
I2
sS'maxVel'
p52
F0.72999999999999998
sS'age'
p53
I0
sS'tailSize'
p54
I0
sS'sexualgeno'
p55
NsS'tailBrigh'
p56
I0
sS'maxSteering'
p57
I20
sS'energy'
p58
F0.5
sS'lastScale'
p59
F5.5
sb.(i__main__
Data_mobile
p1
(dp2
S'vel_y'
p3
I0
sS'vel_x'
p4
I0
sS'pos_x'
p5
I-9579
sS'pos_y'
p6
I9779
sS'isAlive'
p7
I00
sS'cumulativeEnergy'
p8
F0.5
sS'geno'
p9
(lp10
S'currentVelocity'
p11
aS'POINT./'
p12
a(lp13
(lp14
(lp15
S'currentVelocity'
p16
aS'POINT.*'
p17
aS'separation'
p18
a(lp19
S'POINT.*'
p20
aaa(lp21
S'POINT./'
p22
aaS'target'
p23
aaS'alignment'
p24
aaS'currentEnergy'
p25
a(lp26
(lp27
S'POINT./'
p28
aa(lp29
S'target'
p30
aS'randV'
p31
aS'currentVelocity'
p32
aS'target'
p33
a(lp34
S'POINT.+'
p35
aS'POINT./'
p36
aaS'separation'
p37
aS'target'
p38
aa(lp39
(lp40
S'POINT./'
p41
aaaS'POINT.*'
p42
aasS'accel_x'
p43
F0
sS'accel_y'
p44
F0
sS'visionAngle'
p45
I130
sS'maxAccel'
p46
I2
sS'maxVel'
p47
F0.72999999999999998
sS'age'
p48
I0
sS'tailSize'
p49
I0
sS'sexualgeno'
p50
NsS'tailBrigh'
p51
I0
sS'maxSteering'
p52
I20
sS'energy'
p53
F0.5
sS'lastScale'
p54
F5.5
sb.(i__main__
Data_mobile
p1
(dp2
S'vel_y'
p3
I0
sS'vel_x'
p4
I0
sS'pos_x'
p5
I-9579
sS'pos_y'
p6
I9779
sS'isAlive'
p7
I00
sS'cumulativeEnergy'
p8
F0.5
sS'geno'
p9
(lp10
S'currentVelocity'
p11
aS'POINT./'
p12
a(lp13
(lp14
(lp15
S'currentVelocity'
p16
aS'POINT.*'
p17
aS'separation'
p18
a(lp19
S'POINT.*'
p20
aaa(lp21
S'POINT./'
p22
aaS'target'
p23
aaS'alignment'
p24
aaS'currentEnergy'
p25
a(lp26
(lp27
S'POINT./'
p28
aa(lp29
S'target'
p30
aS'randV'
p31
aS'currentVelocity'
p32
aS'target'
p33
a(lp34
S'POINT.+'
p35
aS'POINT./'
p36
aaS'separation'
p37
aS'target'
p38
aa(lp39
(lp40
S'POINT./'
p41
aaaS'POINT.*'
p42
aasS'accel_x'
p43
F0
sS'accel_y'
p44
F0
sS'visionAngle'
p45
I130
sS'maxAccel'
p46
I2
sS'maxVel'
p47
F0.72999999999999998
sS'age'
p48
I0
sS'tailSize'
p49
I0
sS'sexualgeno'
p50
NsS'tailBrigh'
p51
I0
sS'maxSteering'
p52
I20
sS'energy'
p53
F0.5
sS'lastScale'
p54
F5.5
sb.(i__main__
Data_mobile
p1
(dp2
S'vel_y'
p3
I0
sS'vel_x'
p4
I0
sS'pos_x'
p5
I-9579
sS'pos_y'
p6
I9779
sS'isAlive'
p7
I00
sS'cumulativeEnergy'
p8
F0.5
sS'geno'
p9
(lp10
S'currentVelocity'
p11
aS'POINT./'
p12
a(lp13
(lp14
(lp15
S'currentVelocity'
p16
aS'POINT.*'
p17
aS'alignment'
p18
a(lp19
S'POINT.*'
p20
aaa(lp21
S'POINT./'
p22
aaS'target'
p23
aaS'alignment'
p24
aaS'currentEnergy'
p25
a(lp26
(lp27
S'POINT./'
p28
aa(lp29
S'target'
p30
aS'randV'
p31
aS'currentVelocity'
p32
aS'target'
p33
a(lp34
S'POINT.+'
p35
aS'POINT./'
p36
aaS'separation'
p37
aS'target'
p38
aa(lp39
(lp40
S'POINT./'
p41
aaaS'POINT.*'
p42
aasS'accel_x'
p43
F0
sS'accel_y'
p44
F0
sS'visionAngle'
p45
I130
sS'maxAccel'
p46
I2
sS'maxVel'
p47
F0.72999999999999998
sS'age'
p48
I0
sS'tailSize'
p49
I0
sS'sexualgeno'
p50
NsS'tailBrigh'
p51
I0
sS'maxSteering'
p52
I20
sS'energy'
p53
F0.5
sS'lastScale'
p54
F5.5
sb.(i__main__
Data_mobile
p1
(dp2
S'vel_y'
p3
I0
sS'vel_x'
p4
I0
sS'pos_x'
p5
I-9579
sS'pos_y'
p6
I9779
sS'isAlive'
p7
I00
sS'cumulativeEnergy'
p8
F0.5
sS'geno'
p9
(lp10
S'currentVelocity'
p11
aS'POINT./'
p12
a(lp13
(lp14
(lp15
S'currentVelocity'
p16
aS'POINT.*'
p17
aS'alignment'
p18
a(lp19
S'POINT.*'
p20
aaa(lp21
S'POINT./'
p22
aaS'target'
p23
aaS'alignment'
p24
aaS'currentEnergy'
p25
a(lp26
(lp27
(lp28
S'target'
p29
aS'randV'
p30
aS'currentVelocity'
p31
aS'target'
p32
a(lp33
S'POINT.+'
p34
aS'POINT./'
p35
aa(lp36
S'POINT./'
p37
aaS'target'
p38
aaa(lp39
S'target'
p40
aS'randV'
p41
aS'currentVelocity'
p42
aS'target'
p43
a(lp44
S'POINT.+'
p45
aS'POINT./'
p46
aaS'separation'
p47
aS'target'
p48
aa(lp49
(lp50
S'POINT./'
p51
aaaS'POINT.*'
p52
aasS'accel_x'
p53
F0
sS'accel_y'
p54
F0
sS'visionAngle'
p55
I130
sS'maxAccel'
p56
I2
sS'maxVel'
p57
F0.72999999999999998
sS'age'
p58
I0
sS'tailSize'
p59
I0
sS'sexualgeno'
p60
NsS'tailBrigh'
p61
I0
sS'maxSteering'
p62
I20
sS'energy'
p63
F0.5
sS'lastScale'
p64
F5.5
sb.(i__main__
Data_mobile
p1
(dp2
S'vel_y'
p3
I0
sS'vel_x'
p4
I0
sS'pos_x'
p5
I-9579
sS'pos_y'
p6
I9779
sS'isAlive'
p7
I00
sS'cumulativeEnergy'
p8
F0.5
sS'geno'
p9
(lp10
S'currentVelocity'
p11
aS'POINT./'
p12
aS'alignment'
p13
aS'currentEnergy'
p14
a(lp15
(lp16
S'POINT./'
p17
aa(lp18
S'target'
p19
aS'randV'
p20
aS'currentVelocity'
p21
aS'target'
p22
a(lp23
S'POINT.+'
p24
aS'POINT./'
p25
aa(lp26
S'POINT./'
p27
aaS'target'
p28
aa(lp29
S'POINT./'
p30
aaS'POINT.*'
p31
aasS'accel_x'
p32
F0
sS'accel_y'
p33
F0
sS'visionAngle'
p34
I130
sS'maxAccel'
p35
I2
sS'maxVel'
p36
F0.72999999999999998
sS'age'
p37
I0
sS'tailSize'
p38
I0
sS'sexualgeno'
p39
NsS'tailBrigh'
p40
I0
sS'maxSteering'
p41
I20
sS'energy'
p42
F0.5
sS'lastScale'
p43
F5.5
sb.(i__main__
Data_mobile
p1
(dp2
S'vel_y'
p3
I0
sS'vel_x'
p4
I0
sS'pos_x'
p5
I-9579
sS'pos_y'
p6
I9779
sS'isAlive'
p7
I00
sS'cumulativeEnergy'
p8
F0.5
sS'geno'
p9
(lp10
S'currentVelocity'
p11
aS'POINT./'
p12
aS'alignment'
p13
aS'currentEnergy'
p14
a(lp15
(lp16
S'POINT./'
p17
aa(lp18
S'target'
p19
aS'randV'
p20
aS'currentVelocity'
p21
aS'target'
p22
a(lp23
S'POINT.+'
p24
aS'POINT./'
p25
aa(lp26
S'POINT./'
p27
aaS'target'
p28
aa(lp29
S'POINT./'
p30
aaS'POINT.*'
p31
aasS'accel_x'
p32
F0
sS'accel_y'
p33
F0
sS'visionAngle'
p34
I130
sS'maxAccel'
p35
I2
sS'maxVel'
p36
F0.72999999999999998
sS'age'
p37
I0
sS'tailSize'
p38
I0
sS'sexualgeno'
p39
NsS'tailBrigh'
p40
I0
sS'maxSteering'
p41
I20
sS'energy'
p42
F0.5
sS'lastScale'
p43
F5.5
sb.(i__main__
Data_mobile
p1
(dp2
S'vel_y'
p3
I0
sS'vel_x'
p4
I0
sS'pos_x'
p5
I-9579
sS'pos_y'
p6
I9779
sS'isAlive'
p7
I00
sS'cumulativeEnergy'
p8
F0.5
sS'geno'
p9
(lp10
S'currentVelocity'
p11
aS'POINT./'
p12
a(lp13
(lp14
(lp15
S'currentVelocity'
p16
aS'POINT.*'
p17
aS'alignment'
p18
a(lp19
S'POINT.*'
p20
aaa(lp21
S'POINT./'
p22
aaS'target'
p23
aaS'alignment'
p24
aaS'currentEnergy'
p25
a(lp26
(lp27
S'POINT./'
p28
aa(lp29
S'target'
p30
aS'randV'
p31
aS'currentVelocity'
p32
aS'target'
p33
a(lp34
S'POINT.+'
p35
aS'POINT./'
p36
aaS'separation'
p37
aS'target'
p38
aa(lp39
(lp40
S'POINT./'
p41
aaaS'POINT.*'
p42
aasS'accel_x'
p43
F0
sS'accel_y'
p44
F0
sS'visionAngle'
p45
I130
sS'maxAccel'
p46
I2
sS'maxVel'
p47
F0.72999999999999998
sS'age'
p48
I0
sS'tailSize'
p49
I0
sS'sexualgeno'
p50
NsS'tailBrigh'
p51
I0
sS'maxSteering'
p52
I20
sS'energy'
p53
F0.5
sS'lastScale'
p54
F5.5
sb.(i__main__
Data_mobile
p1
(dp2
S'vel_y'
p3
I0
sS'vel_x'
p4
I0
sS'pos_x'
p5
I-9579
sS'pos_y'
p6
I9779
sS'isAlive'
p7
I00
sS'cumulativeEnergy'
p8
F0.5
sS'geno'
p9
(lp10
S'currentVelocity'
p11
aS'POINT./'
p12
aS'alignment'
p13
aS'currentEnergy'
p14
a(lp15
(lp16
S'POINT./'
p17
aa(lp18
S'target'
p19
aS'randV'
p20
aS'currentVelocity'
p21
aS'target'
p22
aS'alignment'
p23
a(lp24
S'POINT./'
p25
aaS'target'
p26
aa(lp27
S'POINT./'
p28
aaS'POINT.*'
p29
aasS'accel_x'
p30
F0
sS'accel_y'
p31
F0
sS'visionAngle'
p32
I130
sS'maxAccel'
p33
I2
sS'maxVel'
p34
F0.72999999999999998
sS'age'
p35
I0
sS'tailSize'
p36
I0
sS'sexualgeno'
p37
NsS'tailBrigh'
p38
I0
sS'maxSteering'
p39
I20
sS'energy'
p40
F0.5
sS'lastScale'
p41
F5.5
sb.(i__main__
Data_mobile
p1
(dp2
S'vel_y'
p3
I0
sS'vel_x'
p4
I0
sS'pos_x'
p5
I-9579
sS'pos_y'
p6
I9779
sS'isAlive'
p7
I00
sS'cumulativeEnergy'
p8
F0.5
sS'geno'
p9
(lp10
S'currentVelocity'
p11
aS'POINT./'
p12
a(lp13
(lp14
(lp15
S'currentVelocity'
p16
aS'POINT.*'
p17
aS'alignment'
p18
a(lp19
S'POINT.*'
p20
aaa(lp21
S'POINT./'
p22
aaS'target'
p23
aaS'alignment'
p24
aaS'currentEnergy'
p25
a(lp26
(lp27
S'POINT./'
p28
aa(lp29
S'target'
p30
aS'randV'
p31
aS'currentVelocity'
p32
aS'target'
p33
a(lp34
S'POINT.+'
p35
aS'POINT./'
p36
aaS'separation'
p37
aS'target'
p38
aa(lp39
(lp40
S'POINT./'
p41
aaaS'POINT.*'
p42
aasS'accel_x'
p43
F0
sS'accel_y'
p44
F0
sS'visionAngle'
p45
I130
sS'maxAccel'
p46
I2
sS'maxVel'
p47
F0.72999999999999998
sS'age'
p48
I0
sS'tailSize'
p49
I0
sS'sexualgeno'
p50
NsS'tailBrigh'
p51
I0
sS'maxSteering'
p52
I20
sS'energy'
p53
F0.5
sS'lastScale'
p54
F5.5
sb.(i__main__
Data_mobile
p1
(dp2
S'vel_y'
p3
I0
sS'vel_x'
p4
I0
sS'pos_x'
p5
I-9579
sS'pos_y'
p6
I9779
sS'isAlive'
p7
I00
sS'cumulativeEnergy'
p8
F0.5
sS'geno'
p9
(lp10
S'currentVelocity'
p11
aS'POINT./'
p12
aS'alignment'
p13
a(lp14
S'POINT./'
p15
aa(lp16
(lp17
S'POINT./'
p18
aa(lp19
S'target'
p20
aS'randV'
p21
aS'currentVelocity'
p22
aS'target'
p23
a(lp24
S'POINT.+'
p25
aS'POINT./'
p26
aa(lp27
S'POINT./'
p28
aaS'target'
p29
aa(lp30
S'POINT./'
p31
aaS'POINT.*'
p32
aasS'accel_x'
p33
F0
sS'accel_y'
p34
F0
sS'visionAngle'
p35
I130
sS'maxAccel'
p36
I2
sS'maxVel'
p37
F0.72999999999999998
sS'age'
p38
I0
sS'tailSize'
p39
I0
sS'sexualgeno'
p40
NsS'tailBrigh'
p41
I0
sS'maxSteering'
p42
I20
sS'energy'
p43
F0.5
sS'lastScale'
p44
F5.5
sb.