(i__main__
Data_mobile
p1
(dp2
S'vel_y'
p3
F0.049190243571468339
sS'vel_x'
p4
F-0.72834079930852391
sS'pos_x'
p5
F3.3898480699597289
sS'pos_y'
p6
F29.820942473360542
sS'isAlive'
p7
I01
sS'cumulativeEnergy'
p8
F49
sS'geno'
p9
(lp10
F1.6154870269540411
aF2.0620656799942125
aF0.30045506142640943
aF5.0266352771871379
aF1.1753155868229439
asS'accel_x'
p11
F1.6319377421793604
sS'accel_y'
p12
F1.1561916820538585
sS'visionAngle'
p13
I130
sS'maxAccel'
p14
I2
sS'maxVel'
p15
F0.72999999999999998
sS'age'
p16
I100
sS'tailSize'
p17
I0
sS'sexualgeno'
p18
NsS'tailBrigh'
p19
I0
sS'maxSteering'
p20
I20
sS'energy'
p21
F1
sS'lastScale'
p22
F15.5
sb.(i__main__
Data_mobile
p1
(dp2
S'vel_y'
p3
F-0.47439310294389953
sS'vel_x'
p4
F-0.55484338680321199
sS'pos_x'
p5
F5.6127410877069499
sS'pos_y'
p6
F29.037207229347118
sS'isAlive'
p7
I01
sS'cumulativeEnergy'
p8
F48.124479943055633
sS'geno'
p9
(lp10
F1.6154870269540411
aF2.0620656799942125
aF0.30045506142640943
aF5.0266352771871379
aF1.1753155868229439
asS'accel_x'
p11
F-0.63258035274289492
sS'accel_y'
p12
F1.897324984635915
sS'visionAngle'
p13
I130
sS'maxAccel'
p14
I2
sS'maxVel'
p15
F0.72999999999999998
sS'age'
p16
I100
sS'tailSize'
p17
I0
sS'sexualgeno'
p18
NsS'tailBrigh'
p19
I0
sS'maxSteering'
p20
I20
sS'energy'
p21
F1
sS'lastScale'
p22
F15.5
sb.(i__main__
Data_mobile
p1
(dp2
S'vel_y'
p3
F0.64559532084226323
sS'vel_x'
p4
F-0.34074430546463308
sS'pos_x'
p5
F4.916886175352893
sS'pos_y'
p6
F39.944335862143262
sS'isAlive'
p7
I01
sS'cumulativeEnergy'
p8
F47.22182164987484
sS'geno'
p9
(lp10
F1.1946801139740435
aF2.0620656799942125
aF0.30045506142640943
aF4.7483390367099183
aF1.1753155868229439
asS'accel_x'
p11
F-0.93276352330532364
sS'accel_y'
p12
F1.7691670948757325
sS'visionAngle'
p13
I130
sS'maxAccel'
p14
I2
sS'maxVel'
p15
F0.72999999999999998
sS'age'
p16
I100
sS'tailSize'
p17
I0
sS'sexualgeno'
p18
NsS'tailBrigh'
p19
I0
sS'maxSteering'
p20
I20
sS'energy'
p21
F0.91432283145117998
sS'lastScale'
p22
F14.6432283145118
sb.(i__main__
Data_mobile
p1
(dp2
S'vel_y'
p3
F0.35147462339994062
sS'vel_x'
p4
F-0.63981684027998975
sS'pos_x'
p5
F-48.714621306367057
sS'pos_y'
p6
F11.371695542883552
sS'isAlive'
p7
I01
sS'cumulativeEnergy'
p8
F47.171501031018074
sS'geno'
p9
(lp10
F2.1024073672631065
aF2.2043841911954889
aF0.6085183465256494
aF5.0266352771871379
aF1.1753155868229439
asS'accel_x'
p11
F-1.6233476478848166
sS'accel_y'
p12
F1.1682219027679779
sS'visionAngle'
p13
I130
sS'maxAccel'
p14
I2
sS'maxVel'
p15
F0.72999999999999998
sS'age'
p16
I100
sS'tailSize'
p17
I0
sS'sexualgeno'
p18
NsS'tailBrigh'
p19
I0
sS'maxSteering'
p20
I20
sS'energy'
p21
F0.86257279922189622
sS'lastScale'
p22
F14.125727992218962
sb.(i__main__
Data_mobile
p1
(dp2
S'vel_y'
p3
F0.62001135271233687
sS'vel_x'
p4
F-0.38533871140571674
sS'pos_x'
p5
F3.2221260683150881
sS'pos_y'
p6
F42.598325578459004
sS'isAlive'
p7
I01
sS'cumulativeEnergy'
p8
F45.935786522455636
sS'geno'
p9
(lp10
F1.7589223080105301
aF2.0620656799942125
aF0.30045506142640943
aF5.0266352771871379
aF1.1753155868229439
asS'accel_x'
p11
F-0.97791893576294209
sS'accel_y'
p12
F1.7446130101189417
sS'visionAngle'
p13
I130
sS'maxAccel'
p14
I2
sS'maxVel'
p15
F0.72999999999999998
sS'age'
p16
I50
sS'tailSize'
p17
I0
sS'sexualgeno'
p18
NsS'tailBrigh'
p19
I0
sS'maxSteering'
p20
I20
sS'energy'
p21
F0.91914157450343126
sS'lastScale'
p22
F14.691415745034313
sb.(i__main__
Data_mobile
p1
(dp2
S'vel_y'
p3
F0.61205958491458978
sS'vel_x'
p4
F0.39784804198862145
sS'pos_x'
p5
F60.547577939430568
sS'pos_y'
p6
F61.802976202266976
sS'isAlive'
p7
I01
sS'cumulativeEnergy'
p8
F40.39826818022842
sS'geno'
p9
(lp10
F1.8474181588797003
aF2.3586182363461567
aF0.6085183465256494
aF4.7483390367099183
aF1.1753155868229439
asS'accel_x'
p11
F0.9838843330657594
sS'accel_y'
p12
F1.7412557592575955
sS'visionAngle'
p13
I130
sS'maxAccel'
p14
I2
sS'maxVel'
p15
F0.72999999999999998
sS'age'
p16
I100
sS'tailSize'
p17
I0
sS'sexualgeno'
p18
NsS'tailBrigh'
p19
I0
sS'maxSteering'
p20
I20
sS'energy'
p21
F0.53221087762161989
sS'lastScale'
p22
F10.822108776216199
sb.(i__main__
Data_mobile
p1
(dp2
S'vel_y'
p3
F0.55139294164215436
sS'vel_x'
p4
F0.47839923067163453
sS'pos_x'
p5
F-36.455495799735289
sS'pos_y'
p6
F13.824727768706673
sS'isAlive'
p7
I01
sS'cumulativeEnergy'
p8
F39.737319092701938
sS'geno'
p9
(lp10
F2.1024073672631065
aF2.2943983671889447
aF0.6085183465256494
aF4.9989964186817861
aF1.1753155868229439
asS'accel_x'
p11
F-1.4234839282007024
sS'accel_y'
p12
F-1.404882025706891
sS'visionAngle'
p13
I130
sS'maxAccel'
p14
I2
sS'maxVel'
p15
F0.72999999999999998
sS'age'
p16
I150
sS'tailSize'
p17
I0
sS'sexualgeno'
p18
NsS'tailBrigh'
p19
I0
sS'maxSteering'
p20
I20
sS'energy'
p21
F0.66180802464909061
sS'lastScale'
p22
F12.118080246490905
sb.(i__main__
Data_mobile
p1
(dp2
S'vel_y'
p3
F0.43143674088842715
sS'vel_x'
p4
F0.58886529751002659
sS'pos_x'
p5
F-15.208637792270045
sS'pos_y'
p6
F104.8536138807204
sS'isAlive'
p7
I01
sS'cumulativeEnergy'
p8
F39.087370827916345
sS'geno'
p9
(lp10
F1.6154870269540411
aF2.0620656799942125
aF0.30045506142640943
aF5.0266352771871379
aF1.1753155868229439
asS'accel_x'
p11
F1.730415723607043
sS'accel_y'
p12
F-1.0028267165834357
sS'visionAngle'
p13
I130
sS'maxAccel'
p14
I2
sS'maxVel'
p15
F0.72999999999999998
sS'age'
p16
I200
sS'tailSize'
p17
I0
sS'sexualgeno'
p18
NsS'tailBrigh'
p19
I0
sS'maxSteering'
p20
I20
sS'energy'
p21
F1
sS'lastScale'
p22
F15.5
sb.(i__main__
Data_mobile
p1
(dp2
S'vel_y'
p3
F0.63607970065910979
sS'vel_x'
p4
F-0.35819354322686658
sS'pos_x'
p5
F-2.2986606899889215
sS'pos_y'
p6
F44.158242978547342
sS'isAlive'
p7
I01
sS'cumulativeEnergy'
p8
F31.77118434390783
sS'geno'
p9
(lp10
F1.6154870269540411
aF2.0620656799942125
aF0.30045506142640943
aF4.9989964186817861
aF1.1753155868229439
asS'accel_x'
p11
F-0.71395401100072953
sS'accel_y'
p12
F1.8682263434005981
sS'visionAngle'
p13
I130
sS'maxAccel'
p14
I2
sS'maxVel'
p15
F0.72999999999999998
sS'age'
p16
I50
sS'tailSize'
p17
I0
sS'sexualgeno'
p18
NsS'tailBrigh'
p19
I0
sS'maxSteering'
p20
I20
sS'energy'
p21
F0.90906887192213437
sS'lastScale'
p22
F14.590688719221344
sb.(i__main__
Data_mobile
p1
(dp2
S'vel_y'
p3
F0.70633145513691631
sS'vel_x'
p4
F0.18437970464280073
sS'pos_x'
p5
F-3.9319065732074048
sS'pos_y'
p6
F-4.5242474665239483
sS'isAlive'
p7
I01
sS'cumulativeEnergy'
p8
F25.081245061703299
sS'geno'
p9
(lp10
F1.8474181588797003
aF2.3586182363461567
aF0.6085183465256494
aF4.7483390367099183
aF1.1753155868229439
asS'accel_x'
p11
F0.86904361248225015
sS'accel_y'
p12
F0.79128372170338601
sS'visionAngle'
p13
I130
sS'maxAccel'
p14
I2
sS'maxVel'
p15
F0.72999999999999998
sS'age'
p16
I50
sS'tailSize'
p17
I0
sS'sexualgeno'
p18
NsS'tailBrigh'
p19
I0
sS'maxSteering'
p20
I20
sS'energy'
p21
F0.64825676022440004
sS'lastScale'
p22
F11.982567602244
sb.(i__main__
Data_mobile
p1
(dp2
S'vel_y'
p3
F0.62718969340531827
sS'vel_x'
p4
F-0.37354128083271187
sS'pos_x'
p5
F3.4849894159044701
sS'pos_y'
p6
F44.628205115197076
sS'isAlive'
p7
I01
sS'cumulativeEnergy'
p8
F21.879299250171396
sS'geno'
p9
(lp10
F2.1024073672631065
aF2.2043841911954889
aF0.6085183465256494
aF4.7483390367099183
aF1.1753155868229439
asS'accel_x'
p11
F-1.0281833086035201
sS'accel_y'
p12
F1.715470513855927
sS'visionAngle'
p13
I130
sS'maxAccel'
p14
I2
sS'maxVel'
p15
F0.72999999999999998
sS'age'
p16
I50
sS'tailSize'
p17
I0
sS'sexualgeno'
p18
NsS'tailBrigh'
p19
I0
sS'maxSteering'
p20
I20
sS'energy'
p21
F0.90906887192213437
sS'lastScale'
p22
F14.590688719221344
sb.(i__main__
Data_mobile
p1
(dp2
S'vel_y'
p3
F0.50748360072597287
sS'vel_x'
p4
F0.52474793472123471
sS'pos_x'
p5
F-31.058453203077015
sS'pos_y'
p6
F-38.059206383872549
sS'isAlive'
p7
I01
sS'cumulativeEnergy'
p8
F16.481245061703291
sS'geno'
p9
(lp10
F2.1024073672631065
aF2.2043841911954889
aF0.6085183465256494
aF4.7483390367099183
aF1.1753155868229439
asS'accel_x'
p11
F0.80391320190808768
sS'accel_y'
p12
F0.85737406796966231
sS'visionAngle'
p13
I130
sS'maxAccel'
p14
I2
sS'maxVel'
p15
F0.72999999999999998
sS'age'
p16
I50
sS'tailSize'
p17
I0
sS'sexualgeno'
p18
NsS'tailBrigh'
p19
I0
sS'maxSteering'
p20
I20
sS'energy'
p21
F0.098256760224399664
sS'lastScale'
p22
F6.4825676022439964
sb.(i__main__
Data_mobile
p1
(dp2
S'vel_y'
p3
F0.41605882449885867
sS'vel_x'
p4
F-0.5998291878165215
sS'pos_x'
p5
F-50.304686053448606
sS'pos_y'
p6
F10.447914315919181
sS'isAlive'
p7
I01
sS'cumulativeEnergy'
p8
F13.981245061703293
sS'geno'
p9
(lp10
F2.1024073672631065
aF2.2943983671889447
aF0.6085183465256494
aF4.9989964186817861
aF1.1753155868229439
asS'accel_x'
p11
F-1.421381765313519
sS'accel_y'
p12
F1.4070088404961161
sS'visionAngle'
p13
I130
sS'maxAccel'
p14
I2
sS'maxVel'
p15
F0.72999999999999998
sS'age'
p16
I50
sS'tailSize'
p17
I0
sS'sexualgeno'
p18
NsS'tailBrigh'
p19
I0
sS'maxSteering'
p20
I20
sS'energy'
p21
F0.048256760224399717
sS'lastScale'
p22
F5.9825676022439973
sb.(i__main__
Data_mobile
p1
(dp2
S'vel_y'
p3
F0.71996827516134843
sS'vel_x'
p4
F0.12060548395986312
sS'pos_x'
p5
F-40.260010524199878
sS'pos_y'
p6
F10.736412280847198
sS'isAlive'
p7
I01
sS'cumulativeEnergy'
p8
F13.381245061703295
sS'geno'
p9
(lp10
F2.1024073672631065
aF2.2943983671889447
aF0.6085183465256494
aF4.9989964186817861
aF1.1753155868229439
asS'accel_x'
p11
F0.28858194782418339
sS'accel_y'
p12
F1.9790706049532443
sS'visionAngle'
p13
I130
sS'maxAccel'
p14
I2
sS'maxVel'
p15
F0.72999999999999998
sS'age'
p16
I50
sS'tailSize'
p17
I0
sS'sexualgeno'
p18
NsS'tailBrigh'
p19
I0
sS'maxSteering'
p20
I20
sS'energy'
p21
F0.09825676022439972
sS'lastScale'
p22
F6.4825676022439982
sb.(i__main__
Data_mobile
p1
(dp2
S'vel_y'
p3
F0.66609937427695354
sS'vel_x'
p4
F-0.29868314915282856
sS'pos_x'
p5
F8.767123839199126
sS'pos_y'
p6
F-25.798216579137812
sS'isAlive'
p7
I01
sS'cumulativeEnergy'
p8
F12.231245061703294
sS'geno'
p9
(lp10
F1.6154870269540411
aF2.0620656799942125
aF0.30045506142640943
aF4.9989964186817861
aF1.1753155868229439
asS'accel_x'
p11
F-0.95766769308517841
sS'accel_y'
p12
F1.7558110916670144
sS'visionAngle'
p13
I130
sS'maxAccel'
p14
I2
sS'maxVel'
p15
F0.72999999999999998
sS'age'
p16
I50
sS'tailSize'
p17
I0
sS'sexualgeno'
p18
NsS'tailBrigh'
p19
I0
sS'maxSteering'
p20
I20
sS'energy'
p21
I0
sS'lastScale'
p22
F5.5
sb.(i__main__
Data_mobile
p1
(dp2
S'vel_y'
p3
F0.0056013681698000028
sS'vel_x'
p4
F-0.46308674617148604
sS'pos_x'
p5
F5.2508419947645582
sS'pos_y'
p6
F34.709768978550528
sS'isAlive'
p7
I01
sS'cumulativeEnergy'
p8
F0.5
sS'geno'
p9
(lp10
F1.1946801139740435
aF2.0620656799942125
aF0.40283788745052829
aF4.7483390367099183
aF1.1753155868229439
asS'accel_x'
p11
F0
sS'accel_y'
p12
F0
sS'visionAngle'
p13
I130
sS'maxAccel'
p14
I2
sS'maxVel'
p15
F0.72999999999999998
sS'age'
p16
I0
sS'tailSize'
p17
I0
sS'sexualgeno'
p18
NsS'tailBrigh'
p19
I0
sS'maxSteering'
p20
I20
sS'energy'
p21
F0.5
sS'lastScale'
p22
F5.5
sb.(i__main__
Data_mobile
p1
(dp2
S'vel_y'
p3
F-0.41547297625752955
sS'vel_x'
p4
F-0.4804503194618458
sS'pos_x'
p5
F-8.4459881009533433
sS'pos_y'
p6
F80.228933546474565
sS'isAlive'
p7
I01
sS'cumulativeEnergy'
p8
F0.5
sS'geno'
p9
(lp10
F1.6154870269540411
aF2.0620656799942125
aF0.05643441922785819
aF5.0266352771871379
aF0.72941297768219582
asS'accel_x'
p11
F0
sS'accel_y'
p12
F0
sS'visionAngle'
p13
I130
sS'maxAccel'
p14
I2
sS'maxVel'
p15
F0.72999999999999998
sS'age'
p16
I0
sS'tailSize'
p17
I0
sS'sexualgeno'
p18
NsS'tailBrigh'
p19
I0
sS'maxSteering'
p20
I20
sS'energy'
p21
F0.5
sS'lastScale'
p22
F5.5
sb.(i__main__
Data_mobile
p1
(dp2
S'vel_y'
p3
F-0.35330949263629469
sS'vel_x'
p4
F-0.401962161284171
sS'pos_x'
p5
F-9.6463912610039131
sS'pos_y'
p6
F84.599933884761882
sS'isAlive'
p7
I01
sS'cumulativeEnergy'
p8
F0.5
sS'geno'
p9
(lp10
F1.6154870269540411
aF2.3220999675162988
aF0.30045506142640943
aF5.0266352771871379
aF1.1753155868229439
asS'accel_x'
p11
F0
sS'accel_y'
p12
F0
sS'visionAngle'
p13
I130
sS'maxAccel'
p14
I2
sS'maxVel'
p15
F0.72999999999999998
sS'age'
p16
I0
sS'tailSize'
p17
I0
sS'sexualgeno'
p18
NsS'tailBrigh'
p19
I0
sS'maxSteering'
p20
I20
sS'energy'
p21
F0.5
sS'lastScale'
p22
F5.5
sb.(i__main__
Data_mobile
p1
(dp2
S'vel_y'
p3
F-0.053293426499008728
sS'vel_x'
p4
F-0.69438125552316021
sS'pos_x'
p5
F4.4208879933242535
sS'pos_y'
p6
F29.457424157600748
sS'isAlive'
p7
I01
sS'cumulativeEnergy'
p8
F0.5
sS'geno'
p9
(lp10
F1.6154870269540411
aF2.0620656799942125
aF0.33503166571832155
aF5.0266352771871379
aF1.1753155868229439
asS'accel_x'
p11
F0
sS'accel_y'
p12
F0
sS'visionAngle'
p13
I130
sS'maxAccel'
p14
I2
sS'maxVel'
p15
F0.72999999999999998
sS'age'
p16
I0
sS'tailSize'
p17
I0
sS'sexualgeno'
p18
NsS'tailBrigh'
p19
I0
sS'maxSteering'
p20
I20
sS'energy'
p21
F0.5
sS'lastScale'
p22
F5.5
sb.(i__main__
Data_mobile
p1
(dp2
S'vel_y'
p3
F0.11346552193248922
sS'vel_x'
p4
F-0.68656906817642926
sS'pos_x'
p5
F4.131785769140313
sS'pos_y'
p6
F34.739567078893586
sS'isAlive'
p7
I01
sS'cumulativeEnergy'
p8
F0.5
sS'geno'
p9
(lp10
F1.1946801139740435
aF2.0620656799942125
aF0.30045506142640943
aF5.0266352771871379
aF1.1753155868229439
asS'accel_x'
p11
F0
sS'accel_y'
p12
F0
sS'visionAngle'
p13
I130
sS'maxAccel'
p14
I2
sS'maxVel'
p15
F0.72999999999999998
sS'age'
p16
I0
sS'tailSize'
p17
I0
sS'sexualgeno'
p18
NsS'tailBrigh'
p19
I0
sS'maxSteering'
p20
I20
sS'energy'
p21
F0.5
sS'lastScale'
p22
F5.5
sb.(i__main__
Data_mobile
p1
(dp2
S'vel_y'
p3
F0.015776097322143176
sS'vel_x'
p4
F-0.71726850689526267
sS'pos_x'
p5
F3.533403211250977
sS'pos_y'
p6
F29.770328600901983
sS'isAlive'
p7
I01
sS'cumulativeEnergy'
p8
F0.5
sS'geno'
p9
(lp10
F1.6154870269540411
aF2.20701996969684
aF0.30045506142640943
aF5.0266352771871379
aF1.1753155868229439
asS'accel_x'
p11
F0
sS'accel_y'
p12
F0
sS'visionAngle'
p13
I130
sS'maxAccel'
p14
I2
sS'maxVel'
p15
F0.72999999999999998
sS'age'
p16
I0
sS'tailSize'
p17
I0
sS'sexualgeno'
p18
NsS'tailBrigh'
p19
I0
sS'maxSteering'
p20
I20
sS'energy'
p21
F0.5
sS'lastScale'
p22
F5.5
sb.(i__main__
Data_mobile
p1
(dp2
S'vel_y'
p3
F0.64239504150973703
sS'vel_x'
p4
F-0.34282412855112399
sS'pos_x'
p5
F3.4074311466249694
sS'pos_y'
p6
F29.93750826267431
sS'isAlive'
p7
I01
sS'cumulativeEnergy'
p8
F0.5
sS'geno'
p9
(lp10
F1.6154870269540411
aF2.0620656799942125
aF0.30045506142640943
aF4.7483390367099183
aF0.71951631291116602
asS'accel_x'
p11
F0
sS'accel_y'
p12
F0
sS'visionAngle'
p13
I130
sS'maxAccel'
p14
I2
sS'maxVel'
p15
F0.72999999999999998
sS'age'
p16
I0
sS'tailSize'
p17
I0
sS'sexualgeno'
p18
NsS'tailBrigh'
p19
I0
sS'maxSteering'
p20
I20
sS'energy'
p21
F0.5
sS'lastScale'
p22
F5.5
sb.(i__main__
Data_mobile
p1
(dp2
S'vel_y'
p3
F-0.47022156868802334
sS'vel_x'
p4
F-0.55404594851457656
sS'pos_x'
p5
F4.9502907650229959
sS'pos_y'
p6
F39.420737982773545
sS'isAlive'
p7
I01
sS'cumulativeEnergy'
p8
F0.5
sS'geno'
p9
(lp10
F1.6154870269540411
aF2.0620656799942125
aF0.30045506142640943
aF5.0266352771871379
aF1.1753155868229439
asS'accel_x'
p11
F0
sS'accel_y'
p12
F0
sS'visionAngle'
p13
I130
sS'maxAccel'
p14
I2
sS'maxVel'
p15
F0.72999999999999998
sS'age'
p16
I0
sS'tailSize'
p17
I0
sS'sexualgeno'
p18
NsS'tailBrigh'
p19
I0
sS'maxSteering'
p20
I20
sS'energy'
p21
F0.5
sS'lastScale'
p22
F5.5
sb.(i__main__
Data_mobile
p1
(dp2
S'vel_y'
p3
I0
sS'vel_x'
p4
I0
sS'pos_x'
p5
I-9579
sS'pos_y'
p6
I9779
sS'isAlive'
p7
I00
sS'cumulativeEnergy'
p8
F0.5
sS'geno'
p9
(lp10
F1.6154870269540411
aF2.0620656799942125
aF0.30045506142640943
aF4.9989964186817861
aF1.1753155868229439
asS'accel_x'
p11
F0
sS'accel_y'
p12
F0
sS'visionAngle'
p13
I130
sS'maxAccel'
p14
I2
sS'maxVel'
p15
F0.72999999999999998
sS'age'
p16
I0
sS'tailSize'
p17
I0
sS'sexualgeno'
p18
NsS'tailBrigh'
p19
I0
sS'maxSteering'
p20
I20
sS'energy'
p21
F0.5
sS'lastScale'
p22
F5.5
sb.(i__main__
Data_mobile
p1
(dp2
S'vel_y'
p3
I0
sS'vel_x'
p4
I0
sS'pos_x'
p5
I-9579
sS'pos_y'
p6
I9779
sS'isAlive'
p7
I00
sS'cumulativeEnergy'
p8
F0.5
sS'geno'
p9
(lp10
F1.9626586274628464
aF2.3977975601041761
aF0.24525711903350422
aF5.1392005313540823
aF0.98774251916157707
asS'accel_x'
p11
F0
sS'accel_y'
p12
F0
sS'visionAngle'
p13
I130
sS'maxAccel'
p14
I2
sS'maxVel'
p15
F0.72999999999999998
sS'age'
p16
I0
sS'tailSize'
p17
I0
sS'sexualgeno'
p18
NsS'tailBrigh'
p19
I0
sS'maxSteering'
p20
I20
sS'energy'
p21
F0.5
sS'lastScale'
p22
F5.5
sb.(i__main__
Data_mobile
p1
(dp2
S'vel_y'
p3
I0
sS'vel_x'
p4
I0
sS'pos_x'
p5
I-9579
sS'pos_y'
p6
I9779
sS'isAlive'
p7
I00
sS'cumulativeEnergy'
p8
F0.5
sS'geno'
p9
(lp10
F2.1024073672631065
aF2.2043841911954889
aF0.6085183465256494
aF4.7483390367099183
aF1.1753155868229439
asS'accel_x'
p11
F0
sS'accel_y'
p12
F0
sS'visionAngle'
p13
I130
sS'maxAccel'
p14
I2
sS'maxVel'
p15
F0.72999999999999998
sS'age'
p16
I0
sS'tailSize'
p17
I0
sS'sexualgeno'
p18
NsS'tailBrigh'
p19
I0
sS'maxSteering'
p20
I20
sS'energy'
p21
F0.5
sS'lastScale'
p22
F5.5
sb.(i__main__
Data_mobile
p1
(dp2
S'vel_y'
p3
I0
sS'vel_x'
p4
I0
sS'pos_x'
p5
I-9579
sS'pos_y'
p6
I9779
sS'isAlive'
p7
I00
sS'cumulativeEnergy'
p8
F0.5
sS'geno'
p9
(lp10
F2.1024073672631065
aF2.0620656799942125
aF0.6085183465256494
aF4.9989964186817861
aF1.1753155868229439
asS'accel_x'
p11
F0
sS'accel_y'
p12
F0
sS'visionAngle'
p13
I130
sS'maxAccel'
p14
I2
sS'maxVel'
p15
F0.72999999999999998
sS'age'
p16
I0
sS'tailSize'
p17
I0
sS'sexualgeno'
p18
NsS'tailBrigh'
p19
I0
sS'maxSteering'
p20
I20
sS'energy'
p21
F0.5
sS'lastScale'
p22
F5.5
sb.(i__main__
Data_mobile
p1
(dp2
S'vel_y'
p3
I0
sS'vel_x'
p4
I0
sS'pos_x'
p5
I-9579
sS'pos_y'
p6
I9779
sS'isAlive'
p7
I00
sS'cumulativeEnergy'
p8
F0.5
sS'geno'
p9
(lp10
F1.6154870269540411
aF2.3977975601041761
aF0.24525711903350422
aF5.1392005313540823
aF0.98774251916157707
asS'accel_x'
p11
F0
sS'accel_y'
p12
F0
sS'visionAngle'
p13
I130
sS'maxAccel'
p14
I2
sS'maxVel'
p15
F0.72999999999999998
sS'age'
p16
I0
sS'tailSize'
p17
I0
sS'sexualgeno'
p18
NsS'tailBrigh'
p19
I0
sS'maxSteering'
p20
I20
sS'energy'
p21
F0.5
sS'lastScale'
p22
F5.5
sb.(i__main__
Data_mobile
p1
(dp2
S'vel_y'
p3
I0
sS'vel_x'
p4
I0
sS'pos_x'
p5
I-9579
sS'pos_y'
p6
I9779
sS'isAlive'
p7
I00
sS'cumulativeEnergy'
p8
F0.5
sS'geno'
p9
(lp10
F1.6154870269540411
aF2.3977975601041761
aF0.24525711903350422
aF5.1392005313540823
aF0.98774251916157707
asS'accel_x'
p11
F0
sS'accel_y'
p12
F0
sS'visionAngle'
p13
I130
sS'maxAccel'
p14
I2
sS'maxVel'
p15
F0.72999999999999998
sS'age'
p16
I0
sS'tailSize'
p17
I0
sS'sexualgeno'
p18
NsS'tailBrigh'
p19
I0
sS'maxSteering'
p20
I20
sS'energy'
p21
F0.5
sS'lastScale'
p22
F5.5
sb.(i__main__
Data_mobile
p1
(dp2
S'vel_y'
p3
I0
sS'vel_x'
p4
I0
sS'pos_x'
p5
I-9579
sS'pos_y'
p6
I9779
sS'isAlive'
p7
I00
sS'cumulativeEnergy'
p8
F0.5
sS'geno'
p9
(lp10
F1.6154870269540411
aF2.0620656799942125
aF0.30045506142640943
aF4.9989964186817861
aF1.1753155868229439
asS'accel_x'
p11
F0
sS'accel_y'
p12
F0
sS'visionAngle'
p13
I130
sS'maxAccel'
p14
I2
sS'maxVel'
p15
F0.72999999999999998
sS'age'
p16
I0
sS'tailSize'
p17
I0
sS'sexualgeno'
p18
NsS'tailBrigh'
p19
I0
sS'maxSteering'
p20
I20
sS'energy'
p21
F0.5
sS'lastScale'
p22
F5.5
sb.(i__main__
Data_mobile
p1
(dp2
S'vel_y'
p3
I0
sS'vel_x'
p4
I0
sS'pos_x'
p5
I-9579
sS'pos_y'
p6
I9779
sS'isAlive'
p7
I00
sS'cumulativeEnergy'
p8
F0.5
sS'geno'
p9
(lp10
F1.6154870269540411
aF2.3977975601041761
aF0.24525711903350422
aF5.1392005313540823
aF0.98774251916157707
asS'accel_x'
p11
F0
sS'accel_y'
p12
F0
sS'visionAngle'
p13
I130
sS'maxAccel'
p14
I2
sS'maxVel'
p15
F0.72999999999999998
sS'age'
p16
I0
sS'tailSize'
p17
I0
sS'sexualgeno'
p18
NsS'tailBrigh'
p19
I0
sS'maxSteering'
p20
I20
sS'energy'
p21
F0.5
sS'lastScale'
p22
F5.5
sb.(i__main__
Data_mobile
p1
(dp2
S'vel_y'
p3
I0
sS'vel_x'
p4
I0
sS'pos_x'
p5
I-9579
sS'pos_y'
p6
I9779
sS'isAlive'
p7
I00
sS'cumulativeEnergy'
p8
F0.5
sS'geno'
p9
(lp10
F2.1024073672631065
aF2.0620656799942125
aF0.6085183465256494
aF4.9989964186817861
aF1.1753155868229439
asS'accel_x'
p11
F0
sS'accel_y'
p12
F0
sS'visionAngle'
p13
I130
sS'maxAccel'
p14
I2
sS'maxVel'
p15
F0.72999999999999998
sS'age'
p16
I0
sS'tailSize'
p17
I0
sS'sexualgeno'
p18
NsS'tailBrigh'
p19
I0
sS'maxSteering'
p20
I20
sS'energy'
p21
F0.5
sS'lastScale'
p22
F5.5
sb.(i__main__
Data_mobile
p1
(dp2
S'vel_y'
p3
I0
sS'vel_x'
p4
I0
sS'pos_x'
p5
I-9579
sS'pos_y'
p6
I9779
sS'isAlive'
p7
I00
sS'cumulativeEnergy'
p8
F0.5
sS'geno'
p9
(lp10
F1.6154870269540411
aF2.3977975601041761
aF0.24525711903350422
aF4.9989964186817861
aF0.81271700980319972
asS'accel_x'
p11
F0
sS'accel_y'
p12
F0
sS'visionAngle'
p13
I130
sS'maxAccel'
p14
I2
sS'maxVel'
p15
F0.72999999999999998
sS'age'
p16
I0
sS'tailSize'
p17
I0
sS'sexualgeno'
p18
NsS'tailBrigh'
p19
I0
sS'maxSteering'
p20
I20
sS'energy'
p21
F0.5
sS'lastScale'
p22
F5.5
sb.(i__main__
Data_mobile
p1
(dp2
S'vel_y'
p3
I0
sS'vel_x'
p4
I0
sS'pos_x'
p5
I-9579
sS'pos_y'
p6
I9779
sS'isAlive'
p7
I00
sS'cumulativeEnergy'
p8
F0.5
sS'geno'
p9
(lp10
F1.6154870269540411
aF2.3977975601041761
aF0.24525711903350422
aF5.1501092634815882
aF1.5967640888790324
asS'accel_x'
p11
F0
sS'accel_y'
p12
F0
sS'visionAngle'
p13
I130
sS'maxAccel'
p14
I2
sS'maxVel'
p15
F0.72999999999999998
sS'age'
p16
I0
sS'tailSize'
p17
I0
sS'sexualgeno'
p18
NsS'tailBrigh'
p19
I0
sS'maxSteering'
p20
I20
sS'energy'
p21
F0.5
sS'lastScale'
p22
F5.5
sb.(i__main__
Data_mobile
p1
(dp2
S'vel_y'
p3
I0
sS'vel_x'
p4
I0
sS'pos_x'
p5
I-9579
sS'pos_y'
p6
I9779
sS'isAlive'
p7
I00
sS'cumulativeEnergy'
p8
F0.5
sS'geno'
p9
(lp10
F2.1024073672631065
aF2.0620656799942125
aF0.6085183465256494
aF4.7483390367099183
aF1.1753155868229439
asS'accel_x'
p11
F0
sS'accel_y'
p12
F0
sS'visionAngle'
p13
I130
sS'maxAccel'
p14
I2
sS'maxVel'
p15
F0.72999999999999998
sS'age'
p16
I0
sS'tailSize'
p17
I0
sS'sexualgeno'
p18
NsS'tailBrigh'
p19
I0
sS'maxSteering'
p20
I20
sS'energy'
p21
F0.5
sS'lastScale'
p22
F5.5
sb.(i__main__
Data_mobile
p1
(dp2
S'vel_y'
p3
I0
sS'vel_x'
p4
I0
sS'pos_x'
p5
I-9579
sS'pos_y'
p6
I9779
sS'isAlive'
p7
I00
sS'cumulativeEnergy'
p8
F0.5
sS'geno'
p9
(lp10
F1.6154870269540411
aF2.3977975601041761
aF0.24525711903350422
aF4.9989964186817861
aF0.98774251916157707
asS'accel_x'
p11
F0
sS'accel_y'
p12
F0
sS'visionAngle'
p13
I130
sS'maxAccel'
p14
I2
sS'maxVel'
p15
F0.72999999999999998
sS'age'
p16
I0
sS'tailSize'
p17
I0
sS'sexualgeno'
p18
NsS'tailBrigh'
p19
I0
sS'maxSteering'
p20
I20
sS'energy'
p21
F0.5
sS'lastScale'
p22
F5.5
sb.(i__main__
Data_mobile
p1
(dp2
S'vel_y'
p3
I0
sS'vel_x'
p4
I0
sS'pos_x'
p5
I-9579
sS'pos_y'
p6
I9779
sS'isAlive'
p7
I00
sS'cumulativeEnergy'
p8
F0.5
sS'geno'
p9
(lp10
F1.6154870269540411
aF2.0620656799942125
aF0.30045506142640943
aF4.9989964186817861
aF1.1753155868229439
asS'accel_x'
p11
F0
sS'accel_y'
p12
F0
sS'visionAngle'
p13
I130
sS'maxAccel'
p14
I2
sS'maxVel'
p15
F0.72999999999999998
sS'age'
p16
I0
sS'tailSize'
p17
I0
sS'sexualgeno'
p18
NsS'tailBrigh'
p19
I0
sS'maxSteering'
p20
I20
sS'energy'
p21
F0.5
sS'lastScale'
p22
F5.5
sb.(i__main__
Data_mobile
p1
(dp2
S'vel_y'
p3
I0
sS'vel_x'
p4
I0
sS'pos_x'
p5
I-9579
sS'pos_y'
p6
I9779
sS'isAlive'
p7
I00
sS'cumulativeEnergy'
p8
F0.5
sS'geno'
p9
(lp10
F2.1024073672631065
aF2.0620656799942125
aF0.6085183465256494
aF4.9989964186817861
aF1.1753155868229439
asS'accel_x'
p11
F0
sS'accel_y'
p12
F0
sS'visionAngle'
p13
I130
sS'maxAccel'
p14
I2
sS'maxVel'
p15
F0.72999999999999998
sS'age'
p16
I0
sS'tailSize'
p17
I0
sS'sexualgeno'
p18
NsS'tailBrigh'
p19
I0
sS'maxSteering'
p20
I20
sS'energy'
p21
F0.5
sS'lastScale'
p22
F5.5
sb.(i__main__
Data_mobile
p1
(dp2
S'vel_y'
p3
I0
sS'vel_x'
p4
I0
sS'pos_x'
p5
I-9579
sS'pos_y'
p6
I9779
sS'isAlive'
p7
I00
sS'cumulativeEnergy'
p8
F0.5
sS'geno'
p9
(lp10
F1.6154870269540411
aF2.3977975601041761
aF0.24525711903350422
aF5.0266352771871379
aF1.1753155868229439
asS'accel_x'
p11
F0
sS'accel_y'
p12
F0
sS'visionAngle'
p13
I130
sS'maxAccel'
p14
I2
sS'maxVel'
p15
F0.72999999999999998
sS'age'
p16
I0
sS'tailSize'
p17
I0
sS'sexualgeno'
p18
NsS'tailBrigh'
p19
I0
sS'maxSteering'
p20
I20
sS'energy'
p21
F0.5
sS'lastScale'
p22
F5.5
sb.(i__main__
Data_mobile
p1
(dp2
S'vel_y'
p3
I0
sS'vel_x'
p4
I0
sS'pos_x'
p5
I-9579
sS'pos_y'
p6
I9779
sS'isAlive'
p7
I00
sS'cumulativeEnergy'
p8
F0.5
sS'geno'
p9
(lp10
F1.6154870269540411
aF2.0620656799942125
aF0.6085183465256494
aF4.9989964186817861
aF1.1753155868229439
asS'accel_x'
p11
F0
sS'accel_y'
p12
F0
sS'visionAngle'
p13
I130
sS'maxAccel'
p14
I2
sS'maxVel'
p15
F0.72999999999999998
sS'age'
p16
I0
sS'tailSize'
p17
I0
sS'sexualgeno'
p18
NsS'tailBrigh'
p19
I0
sS'maxSteering'
p20
I20
sS'energy'
p21
F0.5
sS'lastScale'
p22
F5.5
sb.(i__main__
Data_mobile
p1
(dp2
S'vel_y'
p3
I0
sS'vel_x'
p4
I0
sS'pos_x'
p5
I-9579
sS'pos_y'
p6
I9779
sS'isAlive'
p7
I00
sS'cumulativeEnergy'
p8
F0.5
sS'geno'
p9
(lp10
F2.1024073672631065
aF2.0620656799942125
aF0.6085183465256494
aF4.9989964186817861
aF1.1753155868229439
asS'accel_x'
p11
F0
sS'accel_y'
p12
F0
sS'visionAngle'
p13
I130
sS'maxAccel'
p14
I2
sS'maxVel'
p15
F0.72999999999999998
sS'age'
p16
I0
sS'tailSize'
p17
I0
sS'sexualgeno'
p18
NsS'tailBrigh'
p19
I0
sS'maxSteering'
p20
I20
sS'energy'
p21
F0.5
sS'lastScale'
p22
F5.5
sb.(i__main__
Data_mobile
p1
(dp2
S'vel_y'
p3
I0
sS'vel_x'
p4
I0
sS'pos_x'
p5
I-9579
sS'pos_y'
p6
I9779
sS'isAlive'
p7
I00
sS'cumulativeEnergy'
p8
F0.5
sS'geno'
p9
(lp10
F2.1024073672631065
aF2.0620656799942125
aF0.67152066369693608
aF4.4359257278407291
aF1.1753155868229439
asS'accel_x'
p11
F0
sS'accel_y'
p12
F0
sS'visionAngle'
p13
I130
sS'maxAccel'
p14
I2
sS'maxVel'
p15
F0.72999999999999998
sS'age'
p16
I0
sS'tailSize'
p17
I0
sS'sexualgeno'
p18
NsS'tailBrigh'
p19
I0
sS'maxSteering'
p20
I20
sS'energy'
p21
F0.5
sS'lastScale'
p22
F5.5
sb.(i__main__
Data_mobile
p1
(dp2
S'vel_y'
p3
I0
sS'vel_x'
p4
I0
sS'pos_x'
p5
I-9579
sS'pos_y'
p6
I9779
sS'isAlive'
p7
I00
sS'cumulativeEnergy'
p8
F0.5
sS'geno'
p9
(lp10
F2.3904234630514916
aF2.3977975601041761
aF0.24525711903350422
aF4.4359257278407291
aF0.79975506523579964
asS'accel_x'
p11
F0
sS'accel_y'
p12
F0
sS'visionAngle'
p13
I130
sS'maxAccel'
p14
I2
sS'maxVel'
p15
F0.72999999999999998
sS'age'
p16
I0
sS'tailSize'
p17
I0
sS'sexualgeno'
p18
NsS'tailBrigh'
p19
I0
sS'maxSteering'
p20
I20
sS'energy'
p21
F0.5
sS'lastScale'
p22
F5.5
sb.(i__main__
Data_mobile
p1
(dp2
S'vel_y'
p3
I0
sS'vel_x'
p4
I0
sS'pos_x'
p5
I-9579
sS'pos_y'
p6
I9779
sS'isAlive'
p7
I00
sS'cumulativeEnergy'
p8
F0.5
sS'geno'
p9
(lp10
F1.3092182051252195
aF2.3977975601041761
aF0.24525711903350422
aF4.9989964186817861
aF1.1753155868229439
asS'accel_x'
p11
F0
sS'accel_y'
p12
F0
sS'visionAngle'
p13
I130
sS'maxAccel'
p14
I2
sS'maxVel'
p15
F0.72999999999999998
sS'age'
p16
I0
sS'tailSize'
p17
I0
sS'sexualgeno'
p18
NsS'tailBrigh'
p19
I0
sS'maxSteering'
p20
I20
sS'energy'
p21
F0.5
sS'lastScale'
p22
F5.5
sb.(i__main__
Data_mobile
p1
(dp2
S'vel_y'
p3
I0
sS'vel_x'
p4
I0
sS'pos_x'
p5
I-9579
sS'pos_y'
p6
I9779
sS'isAlive'
p7
I00
sS'cumulativeEnergy'
p8
F0.5
sS'geno'
p9
(lp10
F1.6154870269540411
aF2.0620656799942125
aF0.6085183465256494
aF4.9989964186817861
aF1.1753155868229439
asS'accel_x'
p11
F0
sS'accel_y'
p12
F0
sS'visionAngle'
p13
I130
sS'maxAccel'
p14
I2
sS'maxVel'
p15
F0.72999999999999998
sS'age'
p16
I0
sS'tailSize'
p17
I0
sS'sexualgeno'
p18
NsS'tailBrigh'
p19
I0
sS'maxSteering'
p20
I20
sS'energy'
p21
F0.5
sS'lastScale'
p22
F5.5
sb.(i__main__
Data_mobile
p1
(dp2
S'vel_y'
p3
I0
sS'vel_x'
p4
I0
sS'pos_x'
p5
I-9579
sS'pos_y'
p6
I9779
sS'isAlive'
p7
I00
sS'cumulativeEnergy'
p8
F0.5
sS'geno'
p9
(lp10
F1.6154870269540411
aF2.0620656799942125
aF0.6085183465256494
aF4.9989964186817861
aF1.1753155868229439
asS'accel_x'
p11
F0
sS'accel_y'
p12
F0
sS'visionAngle'
p13
I130
sS'maxAccel'
p14
I2
sS'maxVel'
p15
F0.72999999999999998
sS'age'
p16
I0
sS'tailSize'
p17
I0
sS'sexualgeno'
p18
NsS'tailBrigh'
p19
I0
sS'maxSteering'
p20
I20
sS'energy'
p21
F0.5
sS'lastScale'
p22
F5.5
sb.(i__main__
Data_mobile
p1
(dp2
S'vel_y'
p3
I0
sS'vel_x'
p4
I0
sS'pos_x'
p5
I-9579
sS'pos_y'
p6
I9779
sS'isAlive'
p7
I00
sS'cumulativeEnergy'
p8
F0.5
sS'geno'
p9
(lp10
F1.6154870269540411
aF2.0620656799942125
aF0.6085183465256494
aF4.4359257278407291
aF1.1753155868229439
asS'accel_x'
p11
F0
sS'accel_y'
p12
F0
sS'visionAngle'
p13
I130
sS'maxAccel'
p14
I2
sS'maxVel'
p15
F0.72999999999999998
sS'age'
p16
I0
sS'tailSize'
p17
I0
sS'sexualgeno'
p18
NsS'tailBrigh'
p19
I0
sS'maxSteering'
p20
I20
sS'energy'
p21
F0.5
sS'lastScale'
p22
F5.5
sb.(i__main__
Data_mobile
p1
(dp2
S'vel_y'
p3
I0
sS'vel_x'
p4
I0
sS'pos_x'
p5
I-9579
sS'pos_y'
p6
I9779
sS'isAlive'
p7
I00
sS'cumulativeEnergy'
p8
F0.5
sS'geno'
p9
(lp10
F2.1024073672631065
aF2.3977975601041761
aF0.24525711903350422
aF4.9989964186817861
aF1.1753155868229439
asS'accel_x'
p11
F0
sS'accel_y'
p12
F0
sS'visionAngle'
p13
I130
sS'maxAccel'
p14
I2
sS'maxVel'
p15
F0.72999999999999998
sS'age'
p16
I0
sS'tailSize'
p17
I0
sS'sexualgeno'
p18
NsS'tailBrigh'
p19
I0
sS'maxSteering'
p20
I20
sS'energy'
p21
F0.5
sS'lastScale'
p22
F5.5
sb.(i__main__
Data_mobile
p1
(dp2
S'vel_y'
p3
I0
sS'vel_x'
p4
I0
sS'pos_x'
p5
I-9579
sS'pos_y'
p6
I9779
sS'isAlive'
p7
I00
sS'cumulativeEnergy'
p8
F0.5
sS'geno'
p9
(lp10
F2.1024073672631065
aF2.0620656799942125
aF0.6085183465256494
aF4.9989964186817861
aF1.1753155868229439
asS'accel_x'
p11
F0
sS'accel_y'
p12
F0
sS'visionAngle'
p13
I130
sS'maxAccel'
p14
I2
sS'maxVel'
p15
F0.72999999999999998
sS'age'
p16
I0
sS'tailSize'
p17
I0
sS'sexualgeno'
p18
NsS'tailBrigh'
p19
I0
sS'maxSteering'
p20
I20
sS'energy'
p21
F0.5
sS'lastScale'
p22
F5.5
sb.(i__main__
Data_mobile
p1
(dp2
S'vel_y'
p3
I0
sS'vel_x'
p4
I0
sS'pos_x'
p5
I-9579
sS'pos_y'
p6
I9779
sS'isAlive'
p7
I00
sS'cumulativeEnergy'
p8
F0.5
sS'geno'
p9
(lp10
F2.1024073672631065
aF2.0620656799942125
aF0.6085183465256494
aF4.4359257278407291
aF1.1753155868229439
asS'accel_x'
p11
F0
sS'accel_y'
p12
F0
sS'visionAngle'
p13
I130
sS'maxAccel'
p14
I2
sS'maxVel'
p15
F0.72999999999999998
sS'age'
p16
I0
sS'tailSize'
p17
I0
sS'sexualgeno'
p18
NsS'tailBrigh'
p19
I0
sS'maxSteering'
p20
I20
sS'energy'
p21
F0.5
sS'lastScale'
p22
F5.5
sb.(i__main__
Data_mobile
p1
(dp2
S'vel_y'
p3
I0
sS'vel_x'
p4
I0
sS'pos_x'
p5
I-9579
sS'pos_y'
p6
I9779
sS'isAlive'
p7
I00
sS'cumulativeEnergy'
p8
F0.5
sS'geno'
p9
(lp10
F1.6154870269540411
aF2.0620656799942125
aF0.6085183465256494
aF4.7483390367099183
aF1.1753155868229439
asS'accel_x'
p11
F0
sS'accel_y'
p12
F0
sS'visionAngle'
p13
I130
sS'maxAccel'
p14
I2
sS'maxVel'
p15
F0.72999999999999998
sS'age'
p16
I0
sS'tailSize'
p17
I0
sS'sexualgeno'
p18
NsS'tailBrigh'
p19
I0
sS'maxSteering'
p20
I20
sS'energy'
p21
F0.5
sS'lastScale'
p22
F5.5
sb.(i__main__
Data_mobile
p1
(dp2
S'vel_y'
p3
I0
sS'vel_x'
p4
I0
sS'pos_x'
p5
I-9579
sS'pos_y'
p6
I9779
sS'isAlive'
p7
I00
sS'cumulativeEnergy'
p8
F0.5
sS'geno'
p9
(lp10
F1.6154870269540411
aF2.0620656799942125
aF0.6085183465256494
aF4.9989964186817861
aF1.1753155868229439
asS'accel_x'
p11
F0
sS'accel_y'
p12
F0
sS'visionAngle'
p13
I130
sS'maxAccel'
p14
I2
sS'maxVel'
p15
F0.72999999999999998
sS'age'
p16
I0
sS'tailSize'
p17
I0
sS'sexualgeno'
p18
NsS'tailBrigh'
p19
I0
sS'maxSteering'
p20
I20
sS'energy'
p21
F0.5
sS'lastScale'
p22
F5.5
sb.(i__main__
Data_mobile
p1
(dp2
S'vel_y'
p3
I0
sS'vel_x'
p4
I0
sS'pos_x'
p5
I-9579
sS'pos_y'
p6
I9779
sS'isAlive'
p7
I00
sS'cumulativeEnergy'
p8
F0.5
sS'geno'
p9
(lp10
F2.2692515473430448
aF2.3977975601041761
aF0.87009424363402488
aF5.3659199458915499
aF1.1753155868229439
asS'accel_x'
p11
F0
sS'accel_y'
p12
F0
sS'visionAngle'
p13
I130
sS'maxAccel'
p14
I2
sS'maxVel'
p15
F0.72999999999999998
sS'age'
p16
I0
sS'tailSize'
p17
I0
sS'sexualgeno'
p18
NsS'tailBrigh'
p19
I0
sS'maxSteering'
p20
I20
sS'energy'
p21
F0.5
sS'lastScale'
p22
F5.5
sb.(i__main__
Data_mobile
p1
(dp2
S'vel_y'
p3
I0
sS'vel_x'
p4
I0
sS'pos_x'
p5
I-9579
sS'pos_y'
p6
I9779
sS'isAlive'
p7
I00
sS'cumulativeEnergy'
p8
F0.5
sS'geno'
p9
(lp10
F1.6154870269540411
aF2.0620656799942125
aF0.18054760271777603
aF5.1098590419806662
aF1.1753155868229439
asS'accel_x'
p11
F0
sS'accel_y'
p12
F0
sS'visionAngle'
p13
I130
sS'maxAccel'
p14
I2
sS'maxVel'
p15
F0.72999999999999998
sS'age'
p16
I0
sS'tailSize'
p17
I0
sS'sexualgeno'
p18
NsS'tailBrigh'
p19
I0
sS'maxSteering'
p20
I20
sS'energy'
p21
F0.5
sS'lastScale'
p22
F5.5
sb.(i__main__
Data_mobile
p1
(dp2
S'vel_y'
p3
I0
sS'vel_x'
p4
I0
sS'pos_x'
p5
I-9579
sS'pos_y'
p6
I9779
sS'isAlive'
p7
I00
sS'cumulativeEnergy'
p8
F0.5
sS'geno'
p9
(lp10
F2.2692515473430448
aF2.3977975601041761
aF0.87009424363402488
aF5.3659199458915499
aF0.84414851276467417
asS'accel_x'
p11
F0
sS'accel_y'
p12
F0
sS'visionAngle'
p13
I130
sS'maxAccel'
p14
I2
sS'maxVel'
p15
F0.72999999999999998
sS'age'
p16
I0
sS'tailSize'
p17
I0
sS'sexualgeno'
p18
NsS'tailBrigh'
p19
I0
sS'maxSteering'
p20
I20
sS'energy'
p21
F0.5
sS'lastScale'
p22
F5.5
sb.(i__main__
Data_mobile
p1
(dp2
S'vel_y'
p3
I0
sS'vel_x'
p4
I0
sS'pos_x'
p5
I-9579
sS'pos_y'
p6
I9779
sS'isAlive'
p7
I00
sS'cumulativeEnergy'
p8
F0.5
sS'geno'
p9
(lp10
F1.9854129787554333
aF2.3977975601041761
aF0.24525711903350422
aF4.9989964186817861
aF1.1753155868229439
asS'accel_x'
p11
F0
sS'accel_y'
p12
F0
sS'visionAngle'
p13
I130
sS'maxAccel'
p14
I2
sS'maxVel'
p15
F0.72999999999999998
sS'age'
p16
I0
sS'tailSize'
p17
I0
sS'sexualgeno'
p18
NsS'tailBrigh'
p19
I0
sS'maxSteering'
p20
I20
sS'energy'
p21
F0.5
sS'lastScale'
p22
F5.5
sb.(i__main__
Data_mobile
p1
(dp2
S'vel_y'
p3
I0
sS'vel_x'
p4
I0
sS'pos_x'
p5
I-9579
sS'pos_y'
p6
I9779
sS'isAlive'
p7
I00
sS'cumulativeEnergy'
p8
F0.5
sS'geno'
p9
(lp10
F1.6154870269540411
aF2.0620656799942125
aF0.6085183465256494
aF4.4359257278407291
aF1.1753155868229439
asS'accel_x'
p11
F0
sS'accel_y'
p12
F0
sS'visionAngle'
p13
I130
sS'maxAccel'
p14
I2
sS'maxVel'
p15
F0.72999999999999998
sS'age'
p16
I0
sS'tailSize'
p17
I0
sS'sexualgeno'
p18
NsS'tailBrigh'
p19
I0
sS'maxSteering'
p20
I20
sS'energy'
p21
F0.5
sS'lastScale'
p22
F5.5
sb.(i__main__
Data_mobile
p1
(dp2
S'vel_y'
p3
I0
sS'vel_x'
p4
I0
sS'pos_x'
p5
I-9579
sS'pos_y'
p6
I9779
sS'isAlive'
p7
I00
sS'cumulativeEnergy'
p8
F0.5
sS'geno'
p9
(lp10
F2.2692515473430448
aF2.3977975601041761
aF0.87009424363402488
aF5.3659199458915499
aF1.1753155868229439
asS'accel_x'
p11
F0
sS'accel_y'
p12
F0
sS'visionAngle'
p13
I130
sS'maxAccel'
p14
I2
sS'maxVel'
p15
F0.72999999999999998
sS'age'
p16
I0
sS'tailSize'
p17
I0
sS'sexualgeno'
p18
NsS'tailBrigh'
p19
I0
sS'maxSteering'
p20
I20
sS'energy'
p21
F0.5
sS'lastScale'
p22
F5.5
sb.(i__main__
Data_mobile
p1
(dp2
S'vel_y'
p3
I0
sS'vel_x'
p4
I0
sS'pos_x'
p5
I-9579
sS'pos_y'
p6
I9779
sS'isAlive'
p7
I00
sS'cumulativeEnergy'
p8
F0.5
sS'geno'
p9
(lp10
F2.5789210936928963
aF2.3977975601041761
aF0.24525711903350422
aF4.9989964186817861
aF1.1753155868229439
asS'accel_x'
p11
F0
sS'accel_y'
p12
F0
sS'visionAngle'
p13
I130
sS'maxAccel'
p14
I2
sS'maxVel'
p15
F0.72999999999999998
sS'age'
p16
I0
sS'tailSize'
p17
I0
sS'sexualgeno'
p18
NsS'tailBrigh'
p19
I0
sS'maxSteering'
p20
I20
sS'energy'
p21
F0.5
sS'lastScale'
p22
F5.5
sb.(i__main__
Data_mobile
p1
(dp2
S'vel_y'
p3
I0
sS'vel_x'
p4
I0
sS'pos_x'
p5
I-9579
sS'pos_y'
p6
I9779
sS'isAlive'
p7
I00
sS'cumulativeEnergy'
p8
F0.5
sS'geno'
p9
(lp10
F2.2692515473430448
aF1.9361199811633085
aF0.87009424363402488
aF4.4359257278407291
aF1.1753155868229439
asS'accel_x'
p11
F0
sS'accel_y'
p12
F0
sS'visionAngle'
p13
I130
sS'maxAccel'
p14
I2
sS'maxVel'
p15
F0.72999999999999998
sS'age'
p16
I0
sS'tailSize'
p17
I0
sS'sexualgeno'
p18
NsS'tailBrigh'
p19
I0
sS'maxSteering'
p20
I20
sS'energy'
p21
F0.5
sS'lastScale'
p22
F5.5
sb.(i__main__
Data_mobile
p1
(dp2
S'vel_y'
p3
I0
sS'vel_x'
p4
I0
sS'pos_x'
p5
I-9579
sS'pos_y'
p6
I9779
sS'isAlive'
p7
I00
sS'cumulativeEnergy'
p8
F0.5
sS'geno'
p9
(lp10
F2.1024073672631065
aF2.3977975601041761
aF0.24525711903350422
aF4.4359257278407291
aF1.1753155868229439
asS'accel_x'
p11
F0
sS'accel_y'
p12
F0
sS'visionAngle'
p13
I130
sS'maxAccel'
p14
I2
sS'maxVel'
p15
F0.72999999999999998
sS'age'
p16
I0
sS'tailSize'
p17
I0
sS'sexualgeno'
p18
NsS'tailBrigh'
p19
I0
sS'maxSteering'
p20
I20
sS'energy'
p21
F0.5
sS'lastScale'
p22
F5.5
sb.(i__main__
Data_mobile
p1
(dp2
S'vel_y'
p3
I0
sS'vel_x'
p4
I0
sS'pos_x'
p5
I-9579
sS'pos_y'
p6
I9779
sS'isAlive'
p7
I00
sS'cumulativeEnergy'
p8
F0.5
sS'geno'
p9
(lp10
F2.2692515473430448
aF1.9361199811633085
aF0.87009424363402488
aF4.4359257278407291
aF1.1753155868229439
asS'accel_x'
p11
F0
sS'accel_y'
p12
F0
sS'visionAngle'
p13
I130
sS'maxAccel'
p14
I2
sS'maxVel'
p15
F0.72999999999999998
sS'age'
p16
I0
sS'tailSize'
p17
I0
sS'sexualgeno'
p18
NsS'tailBrigh'
p19
I0
sS'maxSteering'
p20
I20
sS'energy'
p21
F0.5
sS'lastScale'
p22
F5.5
sb.(i__main__
Data_mobile
p1
(dp2
S'vel_y'
p3
I0
sS'vel_x'
p4
I0
sS'pos_x'
p5
I-9579
sS'pos_y'
p6
I9779
sS'isAlive'
p7
I00
sS'cumulativeEnergy'
p8
F0.5
sS'geno'
p9
(lp10
F2.2692515473430448
aF2.3977975601041761
aF0.87009424363402488
aF5.3659199458915499
aF1.1753155868229439
asS'accel_x'
p11
F0
sS'accel_y'
p12
F0
sS'visionAngle'
p13
I130
sS'maxAccel'
p14
I2
sS'maxVel'
p15
F0.72999999999999998
sS'age'
p16
I0
sS'tailSize'
p17
I0
sS'sexualgeno'
p18
NsS'tailBrigh'
p19
I0
sS'maxSteering'
p20
I20
sS'energy'
p21
F0.5
sS'lastScale'
p22
F5.5
sb.(i__main__
Data_mobile
p1
(dp2
S'vel_y'
p3
I0
sS'vel_x'
p4
I0
sS'pos_x'
p5
I-9579
sS'pos_y'
p6
I9779
sS'isAlive'
p7
I00
sS'cumulativeEnergy'
p8
F0.5
sS'geno'
p9
(lp10
F2.2692515473430448
aF2.3977975601041761
aF0.24525711903350422
aF4.9148741089547361
aF1.1753155868229439
asS'accel_x'
p11
F0
sS'accel_y'
p12
F0
sS'visionAngle'
p13
I130
sS'maxAccel'
p14
I2
sS'maxVel'
p15
F0.72999999999999998
sS'age'
p16
I0
sS'tailSize'
p17
I0
sS'sexualgeno'
p18
NsS'tailBrigh'
p19
I0
sS'maxSteering'
p20
I20
sS'energy'
p21
F0.5
sS'lastScale'
p22
F5.5
sb.(i__main__
Data_mobile
p1
(dp2
S'vel_y'
p3
I0
sS'vel_x'
p4
I0
sS'pos_x'
p5
I-9579
sS'pos_y'
p6
I9779
sS'isAlive'
p7
I00
sS'cumulativeEnergy'
p8
F0.5
sS'geno'
p9
(lp10
F2.2692515473430448
aF1.9361199811633085
aF0.24525711903350422
aF5.3661730007824939
aF0.79851480083988358
asS'accel_x'
p11
F0
sS'accel_y'
p12
F0
sS'visionAngle'
p13
I130
sS'maxAccel'
p14
I2
sS'maxVel'
p15
F0.72999999999999998
sS'age'
p16
I0
sS'tailSize'
p17
I0
sS'sexualgeno'
p18
NsS'tailBrigh'
p19
I0
sS'maxSteering'
p20
I20
sS'energy'
p21
F0.5
sS'lastScale'
p22
F5.5
sb.(i__main__
Data_mobile
p1
(dp2
S'vel_y'
p3
I0
sS'vel_x'
p4
I0
sS'pos_x'
p5
I-9579
sS'pos_y'
p6
I9779
sS'isAlive'
p7
I00
sS'cumulativeEnergy'
p8
F0.5
sS'geno'
p9
(lp10
F2.1024073672631065
aF2.1597686410870662
aF0.87009424363402488
aF5.3659199458915499
aF1.1753155868229439
asS'accel_x'
p11
F0
sS'accel_y'
p12
F0
sS'visionAngle'
p13
I130
sS'maxAccel'
p14
I2
sS'maxVel'
p15
F0.72999999999999998
sS'age'
p16
I0
sS'tailSize'
p17
I0
sS'sexualgeno'
p18
NsS'tailBrigh'
p19
I0
sS'maxSteering'
p20
I20
sS'energy'
p21
F0.5
sS'lastScale'
p22
F5.5
sb.(i__main__
Data_mobile
p1
(dp2
S'vel_y'
p3
I0
sS'vel_x'
p4
I0
sS'pos_x'
p5
I-9579
sS'pos_y'
p6
I9779
sS'isAlive'
p7
I00
sS'cumulativeEnergy'
p8
F0.5
sS'geno'
p9
(lp10
F2.1024073672631065
aF2.3977975601041761
aF0.24525711903350422
aF4.9989964186817861
aF1.1753155868229439
asS'accel_x'
p11
F0
sS'accel_y'
p12
F0
sS'visionAngle'
p13
I130
sS'maxAccel'
p14
I2
sS'maxVel'
p15
F0.72999999999999998
sS'age'
p16
I0
sS'tailSize'
p17
I0
sS'sexualgeno'
p18
NsS'tailBrigh'
p19
I0
sS'maxSteering'
p20
I20
sS'energy'
p21
F0.5
sS'lastScale'
p22
F5.5
sb.(i__main__
Data_mobile
p1
(dp2
S'vel_y'
p3
I0
sS'vel_x'
p4
I0
sS'pos_x'
p5
I-9579
sS'pos_y'
p6
I9779
sS'isAlive'
p7
I00
sS'cumulativeEnergy'
p8
F0.5
sS'geno'
p9
(lp10
F2.1024073672631065
aF2.0620656799942125
aF0.24525711903350422
aF4.9989964186817861
aF1.1753155868229439
asS'accel_x'
p11
F0
sS'accel_y'
p12
F0
sS'visionAngle'
p13
I130
sS'maxAccel'
p14
I2
sS'maxVel'
p15
F0.72999999999999998
sS'age'
p16
I0
sS'tailSize'
p17
I0
sS'sexualgeno'
p18
NsS'tailBrigh'
p19
I0
sS'maxSteering'
p20
I20
sS'energy'
p21
F0.5
sS'lastScale'
p22
F5.5
sb.(i__main__
Data_mobile
p1
(dp2
S'vel_y'
p3
I0
sS'vel_x'
p4
I0
sS'pos_x'
p5
I-9579
sS'pos_y'
p6
I9779
sS'isAlive'
p7
I00
sS'cumulativeEnergy'
p8
F0.5
sS'geno'
p9
(lp10
F2.1024073672631065
aF2.0620656799942125
aF0.24525711903350422
aF5.6057826874248811
aF1.1753155868229439
asS'accel_x'
p11
F0
sS'accel_y'
p12
F0
sS'visionAngle'
p13
I130
sS'maxAccel'
p14
I2
sS'maxVel'
p15
F0.72999999999999998
sS'age'
p16
I0
sS'tailSize'
p17
I0
sS'sexualgeno'
p18
NsS'tailBrigh'
p19
I0
sS'maxSteering'
p20
I20
sS'energy'
p21
F0.5
sS'lastScale'
p22
F5.5
sb.(i__main__
Data_mobile
p1
(dp2
S'vel_y'
p3
I0
sS'vel_x'
p4
I0
sS'pos_x'
p5
I-9579
sS'pos_y'
p6
I9779
sS'isAlive'
p7
I00
sS'cumulativeEnergy'
p8
F0.5
sS'geno'
p9
(lp10
F1.6154870269540411
aF2.164384313595487
aF-0.18598408528946264
aF5.4182172276473626
aF1.1753155868229439
asS'accel_x'
p11
F0
sS'accel_y'
p12
F0
sS'visionAngle'
p13
I130
sS'maxAccel'
p14
I2
sS'maxVel'
p15
F0.72999999999999998
sS'age'
p16
I0
sS'tailSize'
p17
I0
sS'sexualgeno'
p18
NsS'tailBrigh'
p19
I0
sS'maxSteering'
p20
I20
sS'energy'
p21
F0.5
sS'lastScale'
p22
F5.5
sb.(i__main__
Data_mobile
p1
(dp2
S'vel_y'
p3
I0
sS'vel_x'
p4
I0
sS'pos_x'
p5
I-9579
sS'pos_y'
p6
I9779
sS'isAlive'
p7
I00
sS'cumulativeEnergy'
p8
F0.5
sS'geno'
p9
(lp10
F1.6154870269540411
aF2.0620656799942125
aF0.6085183465256494
aF4.4359257278407291
aF1.1753155868229439
asS'accel_x'
p11
F0
sS'accel_y'
p12
F0
sS'visionAngle'
p13
I130
sS'maxAccel'
p14
I2
sS'maxVel'
p15
F0.72999999999999998
sS'age'
p16
I0
sS'tailSize'
p17
I0
sS'sexualgeno'
p18
NsS'tailBrigh'
p19
I0
sS'maxSteering'
p20
I20
sS'energy'
p21
F0.5
sS'lastScale'
p22
F5.5
sb.(i__main__
Data_mobile
p1
(dp2
S'vel_y'
p3
I0
sS'vel_x'
p4
I0
sS'pos_x'
p5
I-9579
sS'pos_y'
p6
I9779
sS'isAlive'
p7
I00
sS'cumulativeEnergy'
p8
F0.5
sS'geno'
p9
(lp10
F1.629145358384732
aF2.0620656799942125
aF0.6085183465256494
aF4.4359257278407291
aF1.1753155868229439
asS'accel_x'
p11
F0
sS'accel_y'
p12
F0
sS'visionAngle'
p13
I130
sS'maxAccel'
p14
I2
sS'maxVel'
p15
F0.72999999999999998
sS'age'
p16
I0
sS'tailSize'
p17
I0
sS'sexualgeno'
p18
NsS'tailBrigh'
p19
I0
sS'maxSteering'
p20
I20
sS'energy'
p21
F0.5
sS'lastScale'
p22
F5.5
sb.(i__main__
Data_mobile
p1
(dp2
S'vel_y'
p3
I0
sS'vel_x'
p4
I0
sS'pos_x'
p5
I-9579
sS'pos_y'
p6
I9779
sS'isAlive'
p7
I00
sS'cumulativeEnergy'
p8
F0.5
sS'geno'
p9
(lp10
F1.629145358384732
aF2.164384313595487
aF-0.18598408528946264
aF5.4182172276473626
aF1.1753155868229439
asS'accel_x'
p11
F0
sS'accel_y'
p12
F0
sS'visionAngle'
p13
I130
sS'maxAccel'
p14
I2
sS'maxVel'
p15
F0.72999999999999998
sS'age'
p16
I0
sS'tailSize'
p17
I0
sS'sexualgeno'
p18
NsS'tailBrigh'
p19
I0
sS'maxSteering'
p20
I20
sS'energy'
p21
F0.5
sS'lastScale'
p22
F5.5
sb.(i__main__
Data_mobile
p1
(dp2
S'vel_y'
p3
I0
sS'vel_x'
p4
I0
sS'pos_x'
p5
I-9579
sS'pos_y'
p6
I9779
sS'isAlive'
p7
I00
sS'cumulativeEnergy'
p8
F0.5
sS'geno'
p9
(lp10
F2.2692515473430448
aF2.3977975601041761
aF0.24525711903350422
aF4.9148741089547361
aF1.1753155868229439
asS'accel_x'
p11
F0
sS'accel_y'
p12
F0
sS'visionAngle'
p13
I130
sS'maxAccel'
p14
I2
sS'maxVel'
p15
F0.72999999999999998
sS'age'
p16
I0
sS'tailSize'
p17
I0
sS'sexualgeno'
p18
NsS'tailBrigh'
p19
I0
sS'maxSteering'
p20
I20
sS'energy'
p21
F0.5
sS'lastScale'
p22
F5.5
sb.(i__main__
Data_mobile
p1
(dp2
S'vel_y'
p3
I0
sS'vel_x'
p4
I0
sS'pos_x'
p5
I-9579
sS'pos_y'
p6
I9779
sS'isAlive'
p7
I00
sS'cumulativeEnergy'
p8
F0.5
sS'geno'
p9
(lp10
F2.2692515473430448
aF1.9361199811633085
aF0.24525711903350422
aF4.9148741089547361
aF1.1753155868229439
asS'accel_x'
p11
F0
sS'accel_y'
p12
F0
sS'visionAngle'
p13
I130
sS'maxAccel'
p14
I2
sS'maxVel'
p15
F0.72999999999999998
sS'age'
p16
I0
sS'tailSize'
p17
I0
sS'sexualgeno'
p18
NsS'tailBrigh'
p19
I0
sS'maxSteering'
p20
I20
sS'energy'
p21
F0.5
sS'lastScale'
p22
F5.5
sb.(i__main__
Data_mobile
p1
(dp2
S'vel_y'
p3
I0
sS'vel_x'
p4
I0
sS'pos_x'
p5
I-9579
sS'pos_y'
p6
I9779
sS'isAlive'
p7
I00
sS'cumulativeEnergy'
p8
F0.5
sS'geno'
p9
(lp10
F1.6154870269540411
aF2.0620656799942125
aF0.6085183465256494
aF5.3659199458915499
aF0.72279873115356097
asS'accel_x'
p11
F0
sS'accel_y'
p12
F0
sS'visionAngle'
p13
I130
sS'maxAccel'
p14
I2
sS'maxVel'
p15
F0.72999999999999998
sS'age'
p16
I0
sS'tailSize'
p17
I0
sS'sexualgeno'
p18
NsS'tailBrigh'
p19
I0
sS'maxSteering'
p20
I20
sS'energy'
p21
F0.5
sS'lastScale'
p22
F5.5
sb.(i__main__
Data_mobile
p1
(dp2
S'vel_y'
p3
I0
sS'vel_x'
p4
I0
sS'pos_x'
p5
I-9579
sS'pos_y'
p6
I9779
sS'isAlive'
p7
I00
sS'cumulativeEnergy'
p8
F0.5
sS'geno'
p9
(lp10
F2.1024073672631065
aF1.9361199811633085
aF0.87009424363402488
aF5.3659199458915499
aF1.1032142708428809
asS'accel_x'
p11
F0
sS'accel_y'
p12
F0
sS'visionAngle'
p13
I130
sS'maxAccel'
p14
I2
sS'maxVel'
p15
F0.72999999999999998
sS'age'
p16
I0
sS'tailSize'
p17
I0
sS'sexualgeno'
p18
NsS'tailBrigh'
p19
I0
sS'maxSteering'
p20
I20
sS'energy'
p21
F0.5
sS'lastScale'
p22
F5.5
sb.(i__main__
Data_mobile
p1
(dp2
S'vel_y'
p3
I0
sS'vel_x'
p4
I0
sS'pos_x'
p5
I-9579
sS'pos_y'
p6
I9779
sS'isAlive'
p7
I00
sS'cumulativeEnergy'
p8
F0.5
sS'geno'
p9
(lp10
F1.629145358384732
aF2.164384313595487
aF-0.18598408528946264
aF5.4182172276473626
aF1.1753155868229439
asS'accel_x'
p11
F0
sS'accel_y'
p12
F0
sS'visionAngle'
p13
I130
sS'maxAccel'
p14
I2
sS'maxVel'
p15
F0.72999999999999998
sS'age'
p16
I0
sS'tailSize'
p17
I0
sS'sexualgeno'
p18
NsS'tailBrigh'
p19
I0
sS'maxSteering'
p20
I20
sS'energy'
p21
F0.5
sS'lastScale'
p22
F5.5
sb.(i__main__
Data_mobile
p1
(dp2
S'vel_y'
p3
I0
sS'vel_x'
p4
I0
sS'pos_x'
p5
I-9579
sS'pos_y'
p6
I9779
sS'isAlive'
p7
I00
sS'cumulativeEnergy'
p8
F0.5
sS'geno'
p9
(lp10
F2.1024073672631065
aF2.0620656799942125
aF0.24525711903350422
aF4.9989964186817861
aF0.81120099256645761
asS'accel_x'
p11
F0
sS'accel_y'
p12
F0
sS'visionAngle'
p13
I130
sS'maxAccel'
p14
I2
sS'maxVel'
p15
F0.72999999999999998
sS'age'
p16
I0
sS'tailSize'
p17
I0
sS'sexualgeno'
p18
NsS'tailBrigh'
p19
I0
sS'maxSteering'
p20
I20
sS'energy'
p21
F0.5
sS'lastScale'
p22
F5.5
sb.(i__main__
Data_mobile
p1
(dp2
S'vel_y'
p3
I0
sS'vel_x'
p4
I0
sS'pos_x'
p5
I-9579
sS'pos_y'
p6
I9779
sS'isAlive'
p7
I00
sS'cumulativeEnergy'
p8
F0.5
sS'geno'
p9
(lp10
F2.1024073672631065
aF2.2766322303723481
aF0.24525711903350422
aF5.6057826874248811
aF1.1753155868229439
asS'accel_x'
p11
F0
sS'accel_y'
p12
F0
sS'visionAngle'
p13
I130
sS'maxAccel'
p14
I2
sS'maxVel'
p15
F0.72999999999999998
sS'age'
p16
I0
sS'tailSize'
p17
I0
sS'sexualgeno'
p18
NsS'tailBrigh'
p19
I0
sS'maxSteering'
p20
I20
sS'energy'
p21
F0.5
sS'lastScale'
p22
F5.5
sb.(i__main__
Data_mobile
p1
(dp2
S'vel_y'
p3
I0
sS'vel_x'
p4
I0
sS'pos_x'
p5
I-9579
sS'pos_y'
p6
I9779
sS'isAlive'
p7
I00
sS'cumulativeEnergy'
p8
F0.5
sS'geno'
p9
(lp10
F2.2692515473430448
aF1.9361199811633085
aF0.87009424363402488
aF5.3659199458915499
aF1.1753155868229439
asS'accel_x'
p11
F0
sS'accel_y'
p12
F0
sS'visionAngle'
p13
I130
sS'maxAccel'
p14
I2
sS'maxVel'
p15
F0.72999999999999998
sS'age'
p16
I0
sS'tailSize'
p17
I0
sS'sexualgeno'
p18
NsS'tailBrigh'
p19
I0
sS'maxSteering'
p20
I20
sS'energy'
p21
F0.5
sS'lastScale'
p22
F5.5
sb.(i__main__
Data_mobile
p1
(dp2
S'vel_y'
p3
I0
sS'vel_x'
p4
I0
sS'pos_x'
p5
I-9579
sS'pos_y'
p6
I9779
sS'isAlive'
p7
I00
sS'cumulativeEnergy'
p8
F0.5
sS'geno'
p9
(lp10
F1.8914758350957233
aF2.0620656799942125
aF0.24525711903350422
aF5.3659199458915499
aF1.1753155868229439
asS'accel_x'
p11
F0
sS'accel_y'
p12
F0
sS'visionAngle'
p13
I130
sS'maxAccel'
p14
I2
sS'maxVel'
p15
F0.72999999999999998
sS'age'
p16
I0
sS'tailSize'
p17
I0
sS'sexualgeno'
p18
NsS'tailBrigh'
p19
I0
sS'maxSteering'
p20
I20
sS'energy'
p21
F0.5
sS'lastScale'
p22
F5.5
sb.(i__main__
Data_mobile
p1
(dp2
S'vel_y'
p3
I0
sS'vel_x'
p4
I0
sS'pos_x'
p5
I-9579
sS'pos_y'
p6
I9779
sS'isAlive'
p7
I00
sS'cumulativeEnergy'
p8
F0.5
sS'geno'
p9
(lp10
F2.1024073672631065
aF2.0620656799942125
aF0.24525711903350422
aF4.9989964186817861
aF0.81120099256645761
asS'accel_x'
p11
F0
sS'accel_y'
p12
F0
sS'visionAngle'
p13
I130
sS'maxAccel'
p14
I2
sS'maxVel'
p15
F0.72999999999999998
sS'age'
p16
I0
sS'tailSize'
p17
I0
sS'sexualgeno'
p18
NsS'tailBrigh'
p19
I0
sS'maxSteering'
p20
I20
sS'energy'
p21
F0.5
sS'lastScale'
p22
F5.5
sb.(i__main__
Data_mobile
p1
(dp2
S'vel_y'
p3
I0
sS'vel_x'
p4
I0
sS'pos_x'
p5
I-9579
sS'pos_y'
p6
I9779
sS'isAlive'
p7
I00
sS'cumulativeEnergy'
p8
F0.5
sS'geno'
p9
(lp10
F2.1024073672631065
aF2.0620656799942125
aF0.24525711903350422
aF4.9989964186817861
aF1.1753155868229439
asS'accel_x'
p11
F0
sS'accel_y'
p12
F0
sS'visionAngle'
p13
I130
sS'maxAccel'
p14
I2
sS'maxVel'
p15
F0.72999999999999998
sS'age'
p16
I0
sS'tailSize'
p17
I0
sS'sexualgeno'
p18
NsS'tailBrigh'
p19
I0
sS'maxSteering'
p20
I20
sS'energy'
p21
F0.5
sS'lastScale'
p22
F5.5
sb.(i__main__
Data_mobile
p1
(dp2
S'vel_y'
p3
I0
sS'vel_x'
p4
I0
sS'pos_x'
p5
I-9579
sS'pos_y'
p6
I9779
sS'isAlive'
p7
I00
sS'cumulativeEnergy'
p8
F0.5
sS'geno'
p9
(lp10
F2.1024073672631065
aF2.0620656799942125
aF0.24525711903350422
aF5.6057826874248811
aF1.1753155868229439
asS'accel_x'
p11
F0
sS'accel_y'
p12
F0
sS'visionAngle'
p13
I130
sS'maxAccel'
p14
I2
sS'maxVel'
p15
F0.72999999999999998
sS'age'
p16
I0
sS'tailSize'
p17
I0
sS'sexualgeno'
p18
NsS'tailBrigh'
p19
I0
sS'maxSteering'
p20
I20
sS'energy'
p21
F0.5
sS'lastScale'
p22
F5.5
sb.(i__main__
Data_mobile
p1
(dp2
S'vel_y'
p3
I0
sS'vel_x'
p4
I0
sS'pos_x'
p5
I-9579
sS'pos_y'
p6
I9779
sS'isAlive'
p7
I00
sS'cumulativeEnergy'
p8
F0.5
sS'geno'
p9
(lp10
F2.1024073672631065
aF2.2033173224485614
aF0.24525711903350422
aF5.3832278260529431
aF1.1753155868229439
asS'accel_x'
p11
F0
sS'accel_y'
p12
F0
sS'visionAngle'
p13
I130
sS'maxAccel'
p14
I2
sS'maxVel'
p15
F0.72999999999999998
sS'age'
p16
I0
sS'tailSize'
p17
I0
sS'sexualgeno'
p18
NsS'tailBrigh'
p19
I0
sS'maxSteering'
p20
I20
sS'energy'
p21
F0.5
sS'lastScale'
p22
F5.5
sb.(i__main__
Data_mobile
p1
(dp2
S'vel_y'
p3
I0
sS'vel_x'
p4
I0
sS'pos_x'
p5
I-9579
sS'pos_y'
p6
I9779
sS'isAlive'
p7
I00
sS'cumulativeEnergy'
p8
F0.5
sS'geno'
p9
(lp10
F2.1024073672631065
aF2.0620656799942125
aF0.24525711903350422
aF4.5940041909431963
aF1.1753155868229439
asS'accel_x'
p11
F0
sS'accel_y'
p12
F0
sS'visionAngle'
p13
I130
sS'maxAccel'
p14
I2
sS'maxVel'
p15
F0.72999999999999998
sS'age'
p16
I0
sS'tailSize'
p17
I0
sS'sexualgeno'
p18
NsS'tailBrigh'
p19
I0
sS'maxSteering'
p20
I20
sS'energy'
p21
F0.5
sS'lastScale'
p22
F5.5
sb.(i__main__
Data_mobile
p1
(dp2
S'vel_y'
p3
I0
sS'vel_x'
p4
I0
sS'pos_x'
p5
I-9579
sS'pos_y'
p6
I9779
sS'isAlive'
p7
I00
sS'cumulativeEnergy'
p8
F0.5
sS'geno'
p9
(lp10
F2.1024073672631065
aF2.0620656799942125
aF0.24525711903350422
aF5.3661730007824939
aF0.79851480083988358
asS'accel_x'
p11
F0
sS'accel_y'
p12
F0
sS'visionAngle'
p13
I130
sS'maxAccel'
p14
I2
sS'maxVel'
p15
F0.72999999999999998
sS'age'
p16
I0
sS'tailSize'
p17
I0
sS'sexualgeno'
p18
NsS'tailBrigh'
p19
I0
sS'maxSteering'
p20
I20
sS'energy'
p21
F0.5
sS'lastScale'
p22
F5.5
sb.