(i__main__
Data_mobile
p1
(dp2
S'vel_y'
p3
F0.35584271703138931
sS'vel_x'
p4
F-0.71650258948291223
sS'pos_x'
p5
F-5.0538434733869497
sS'pos_y'
p6
F-30.843572521442994
sS'isAlive'
p7
I01
sS'geno'
p8
(lp9
F-0.5443742373087388
aF0.30576287943871006
aF2.7417254938411855
aF4.2611741371192755
aF-0.53362485987388986
asS'accel_x'
p10
F-1.9479061047862491
sS'accel_y'
p11
F0.45349951150631052
sS'maxAccel'
p12
I2
sS'maxVel'
p13
F0.80000000000000004
sS'age'
p14
I100
sS'gener'
p15
S'm'
sS'lastScale'
p16
F15.373105857863001
sS'energy'
p17
F0.98731058578630004
sb.(i__main__
Data_mobile
p1
(dp2
S'vel_y'
p3
F-0.67491393659655197
sS'vel_x'
p4
F-0.42952436274063149
sS'pos_x'
p5
F191.40852855054652
sS'pos_y'
p6
F99.252629767384491
sS'isAlive'
p7
I01
sS'geno'
p8
(lp9
F0.029507134398061075
aF0.30576287943871006
aF2.9136126342056761
aF4.6945108748936661
aF-0.57757366022986878
asS'accel_x'
p10
F-1.0869756011071641
sS'accel_y'
p11
F-0.39095955617305367
sS'maxAccel'
p12
I2
sS'maxVel'
p13
F0.80000000000000004
sS'age'
p14
I100
sS'gener'
p15
S'm'
sS'lastScale'
p16
F12.766524014139122
sS'energy'
p17
F0.72665240141391219
sb.(i__main__
Data_mobile
p1
(dp2
S'vel_y'
p3
F-0.36829697012549939
sS'vel_x'
p4
F-0.71018120349413438
sS'pos_x'
p5
F179.44328573370228
sS'pos_y'
p6
F99.283748033868918
sS'isAlive'
p7
I01
sS'geno'
p8
(lp9
F-0.5443742373087388
aF0.30576287943871006
aF2.8144962905058759
aF4.3462156575072148
aF-0.57757366022986878
asS'accel_x'
p10
F-0.41876463516994583
sS'accel_y'
p11
F-1.0765693253554522
sS'maxAccel'
p12
I2
sS'maxVel'
p13
F0.80000000000000004
sS'age'
p14
I100
sS'gener'
p15
S'm'
sS'lastScale'
p16
F10.766524014139122
sS'energy'
p17
F0.52665240141391223
sb.(i__main__
Data_mobile
p1
(dp2
S'vel_y'
p3
F-0.41372074852508878
sS'vel_x'
p4
F0.68471537315868725
sS'pos_x'
p5
F-99.312245092621851
sS'pos_y'
p6
F39.54107675421654
sS'isAlive'
p7
I01
sS'geno'
p8
(lp9
F-0.5443742373087388
aF0.30576287943871006
aF1.9474174078145339
aF3.8011596416360964
aF-0.26586548072852934
asS'accel_x'
p10
F1.7233845604389977
sS'accel_y'
p11
F-1.0148623832030053
sS'maxAccel'
p12
I2
sS'maxVel'
p13
F0.80000000000000004
sS'age'
p14
I150
sS'gener'
p15
S'm'
sS'lastScale'
p16
F7.2262815018760334
sS'energy'
p17
F0.17262815018760336
sb.(i__main__
Data_mobile
p1
(dp2
S'vel_y'
p3
F-0.78549920378803317
sS'vel_x'
p4
F-0.15162783665397953
sS'pos_x'
p5
F-139.61378489399979
sS'pos_y'
p6
F44.190907347058875
sS'isAlive'
p7
I01
sS'geno'
p8
(lp9
F-0.13721298194826015
aF0.30576287943871006
aF1.9474174078145339
aF3.8011596416360964
aF-0.26586548072852934
asS'accel_x'
p10
F-0.27997650296730753
sS'accel_y'
p11
F-1.0096531364122776
sS'maxAccel'
p12
I2
sS'maxVel'
p13
F0.80000000000000004
sS'age'
p14
I150
sS'gener'
p15
S'm'
sS'lastScale'
p16
F7.096269166412128
sS'energy'
p17
F0.15962691664121273
sb.(i__main__
Data_mobile
p1
(dp2
S'vel_y'
p3
F0.79518363052313878
sS'vel_x'
p4
F-0.08765268819631318
sS'pos_x'
p5
F-81.190526603653964
sS'pos_y'
p6
F30.848254688145701
sS'isAlive'
p7
I01
sS'geno'
p8
(lp9
F-0.5443742373087388
aF0.30576287943871006
aF2.8144962905058759
aF4.6083802711323312
aF-0.57757366022986878
asS'accel_x'
p10
F1.0188114505572528
sS'accel_y'
p11
F-1.7210529417230103
sS'maxAccel'
p12
I2
sS'maxVel'
p13
F0.80000000000000004
sS'age'
p14
I50
sS'gener'
p15
S'm'
sS'lastScale'
p16
F15.39933071490757
sS'energy'
p17
F0.98993307149075715
sb.(i__main__
Data_mobile
p1
(dp2
S'vel_y'
p3
F-0.50065160677652798
sS'vel_x'
p4
F0.6239775385637536
sS'pos_x'
p5
F13.504813349846858
sS'pos_y'
p6
F-6.8376424931104749
sS'isAlive'
p7
I01
sS'geno'
p8
(lp9
F-0.13721298194826015
aF0.30576287943871006
aF1.9474174078145339
aF3.8011596416360964
aF-0.26586548072852934
asS'accel_x'
p10
F1.7645458736988995
sS'accel_y'
p11
F-0.9414764254149901
sS'maxAccel'
p12
I2
sS'maxVel'
p13
F0.80000000000000004
sS'age'
p14
I50
sS'gener'
p15
S'm'
sS'lastScale'
p16
F15.39933071490757
sS'energy'
p17
F0.98993307149075715
sb.(i__main__
Data_mobile
p1
(dp2
S'vel_y'
p3
F-0.77855439439671403
sS'vel_x'
p4
F-0.18399199701499525
sS'pos_x'
p5
F-136.79148589074882
sS'pos_y'
p6
F45.35360014060997
sS'isAlive'
p7
I01
sS'geno'
p8
(lp9
F-0.13721298194826015
aF0.30576287943871006
aF1.9474174078145339
aF3.8011596416360964
aF-0.26586548072852934
asS'accel_x'
p10
F0.0046818511497501714
sS'accel_y'
p11
F-1.2007278326440021
sS'maxAccel'
p12
I2
sS'maxVel'
p13
F0.80000000000000004
sS'age'
p14
I50
sS'gener'
p15
S'm'
sS'lastScale'
p16
F8.4887949618675194
sS'energy'
p17
F0.29887949618675203
sb.(i__main__
Data_mobile
p1
(dp2
S'vel_y'
p3
F0.10162912535982123
sS'vel_x'
p4
F0.79351844394355309
sS'pos_x'
p5
F-89.456578981186524
sS'pos_y'
p6
F57.545228441155807
sS'isAlive'
p7
I01
sS'geno'
p8
(lp9
F-0.5443742373087388
aF0.30576287943871006
aF1.9474174078145339
aF3.8011596416360964
aF-0.26586548072852934
asS'accel_x'
p10
F1.9765436529844103
sS'accel_y'
p11
F0.30540986861436448
sS'maxAccel'
p12
I2
sS'maxVel'
p13
F0.80000000000000004
sS'age'
p14
I50
sS'gener'
p15
S'm'
sS'lastScale'
p16
F7.4887949618675176
sS'energy'
p17
F0.19887949618675166
sb.(i__main__
Data_mobile
p1
(dp2
S'vel_y'
p3
F-0.78508459069494363
sS'vel_x'
p4
F-0.15376015561045978
sS'pos_x'
p5
F-122.43972758656217
sS'pos_y'
p6
F41.482414626342248
sS'isAlive'
p7
I01
sS'geno'
p8
(lp9
F-0.13721298194826015
aF0.30576287943871006
aF1.9474174078145339
aF3.8011596416360964
aF-0.26586548072852934
asS'accel_x'
p10
F-0.29704785981391857
sS'accel_y'
p11
F-0.4410219771757623
sS'maxAccel'
p12
I2
sS'maxVel'
p13
F0.80000000000000004
sS'age'
p14
I50
sS'gener'
p15
S'm'
sS'lastScale'
p16
F7.4887949618675176
sS'energy'
p17
F0.19887949618675166
sb.(i__main__
Data_mobile
p1
(dp2
S'vel_y'
p3
F-0.79976390864657376
sS'vel_x'
p4
F-0.01943425908942624
sS'pos_x'
p5
F-132.09443540303235
sS'pos_y'
p6
F44.591658155906579
sS'isAlive'
p7
I01
sS'geno'
p8
(lp9
F-0.13721298194826015
aF0.30576287943871006
aF1.9474174078145339
aF3.8011596416360964
aF-0.26586548072852934
asS'accel_x'
p10
F-0.25926617673258179
sS'accel_y'
p11
F-1.0417246146791823
sS'maxAccel'
p12
I2
sS'maxVel'
p13
F0.80000000000000004
sS'age'
p14
I50
sS'gener'
p15
S'm'
sS'lastScale'
p16
F6.4887949618675149
sS'energy'
p17
F0.098879496186751514
sb.(i__main__
Data_mobile
p1
(dp2
S'vel_y'
p3
F-0.52439535766888989
sS'vel_x'
p4
F0.21258189918229456
sS'pos_x'
p5
F-64.025320310120122
sS'pos_y'
p6
F46.788708402336077
sS'isAlive'
p7
I01
sS'geno'
p8
(lp9
F-0.5443742373087388
aF0.77641234170738171
aF1.9474174078145339
aF3.8011596416360964
aF-0.26586548072852934
asS'accel_x'
p10
F0
sS'accel_y'
p11
F0
sS'maxAccel'
p12
I2
sS'maxVel'
p13
F0.80000000000000004
sS'age'
p14
I0
sS'gener'
p15
S'm'
sS'lastScale'
p16
F5.5
sS'energy'
p17
F0.5
sb.(i__main__
Data_mobile
p1
(dp2
S'vel_y'
p3
F-0.19656059041438229
sS'vel_x'
p4
F-0.56270516206938026
sS'pos_x'
p5
F31.592181588822406
sS'pos_y'
p6
F-6.5767949168549649
sS'isAlive'
p7
I01
sS'geno'
p8
(lp9
F0.029507134398061075
aF0.30576287943871006
aF2.9136126342056761
aF4.2611741371192755
aF-0.53362485987388986
asS'accel_x'
p10
F0
sS'accel_y'
p11
F0
sS'maxAccel'
p12
I2
sS'maxVel'
p13
F0.80000000000000004
sS'age'
p14
I0
sS'gener'
p15
S'm'
sS'lastScale'
p16
F5.5
sS'energy'
p17
F0.5
sb.(i__main__
Data_mobile
p1
(dp2
S'vel_y'
p3
F-0.063915197061148787
sS'vel_x'
p4
F-0.71283830779267499
sS'pos_x'
p5
F16.517342234502095
sS'pos_y'
p6
F-15.629240409977367
sS'isAlive'
p7
I01
sS'geno'
p8
(lp9
F-0.5443742373087388
aF0.30576287943871006
aF2.7417254938411855
aF4.2611741371192755
aF-0.57757366022986878
asS'accel_x'
p10
F0
sS'accel_y'
p11
F0
sS'maxAccel'
p12
I2
sS'maxVel'
p13
F0.80000000000000004
sS'age'
p14
I0
sS'gener'
p15
S'm'
sS'lastScale'
p16
F5.5
sS'energy'
p17
F0.5
sb.(i__main__
Data_mobile
p1
(dp2
S'vel_y'
p3
F0.0096284845976921385
sS'vel_x'
p4
F-0.71348030823409059
sS'pos_x'
p5
F10.801495410207782
sS'pos_y'
p6
F-19.660673501357024
sS'isAlive'
p7
I01
sS'geno'
p8
(lp9
F-0.5443742373087388
aF0.30576287943871006
aF2.8144962905058759
aF4.329871549686942
aF-0.59179001251095198
asS'accel_x'
p10
F0
sS'accel_y'
p11
F0
sS'maxAccel'
p12
I2
sS'maxVel'
p13
F0.80000000000000004
sS'age'
p14
I0
sS'gener'
p15
S'm'
sS'lastScale'
p16
F5.5
sS'energy'
p17
F0.5
sb.(i__main__
Data_mobile
p1
(dp2
S'vel_y'
p3
F-0.65381679155816008
sS'vel_x'
p4
F-0.33952478239408856
sS'pos_x'
p5
F136.6691290836927
sS'pos_y'
p6
F88.009626688471798
sS'isAlive'
p7
I01
sS'geno'
p8
(lp9
F0.029507134398061075
aF0.30576287943871006
aF2.9136126342056761
aF4.6945108748936661
aF-0.57757366022986878
asS'accel_x'
p10
F0
sS'accel_y'
p11
F0
sS'maxAccel'
p12
I2
sS'maxVel'
p13
F0.80000000000000004
sS'age'
p14
I0
sS'gener'
p15
S'm'
sS'lastScale'
p16
F5.5
sS'energy'
p17
F0.5
sb.(i__main__
Data_mobile
p1
(dp2
S'vel_y'
p3
F-0.42516435033162747
sS'vel_x'
p4
F0.63589742369835911
sS'pos_x'
p5
F122.68229419053657
sS'pos_y'
p6
F85.136850784833712
sS'isAlive'
p7
I01
sS'geno'
p8
(lp9
F0.029507134398061075
aF0.30576287943871006
aF1.9474174078145339
aF3.8011596416360964
aF-0.14134061933843278
asS'accel_x'
p10
F0
sS'accel_y'
p11
F0
sS'maxAccel'
p12
I2
sS'maxVel'
p13
F0.80000000000000004
sS'age'
p14
I0
sS'gener'
p15
S'm'
sS'lastScale'
p16
F5.5
sS'energy'
p17
F0.5
sb.(i__main__
Data_mobile
p1
(dp2
S'vel_y'
p3
F-0.47312258886256181
sS'vel_x'
p4
F0.43130948850196227
sS'pos_x'
p5
F183.97714607002459
sS'pos_y'
p6
F97.72628755459354
sS'isAlive'
p7
I01
sS'geno'
p8
(lp9
F-0.5443742373087388
aF0.30576287943871006
aF2.9136126342056761
aF5.1149469027696366
aF-0.57757366022986878
asS'accel_x'
p10
F0
sS'accel_y'
p11
F0
sS'maxAccel'
p12
I2
sS'maxVel'
p13
F0.80000000000000004
sS'age'
p14
I0
sS'gener'
p15
S'm'
sS'lastScale'
p16
F5.5
sS'energy'
p17
F0.5
sb.(i__main__
Data_mobile
p1
(dp2
S'vel_y'
p3
F0.068193979806274119
sS'vel_x'
p4
F-0.63641683476770039
sS'pos_x'
p5
F131.42190419227234
sS'pos_y'
p6
F59.529847553458879
sS'isAlive'
p7
I01
sS'geno'
p8
(lp9
F-0.5443742373087388
aF0.30576287943871006
aF2.7417254938411855
aF4.6945108748936661
aF-0.36069720760841073
asS'accel_x'
p10
F0
sS'accel_y'
p11
F0
sS'maxAccel'
p12
I2
sS'maxVel'
p13
F0.80000000000000004
sS'age'
p14
I0
sS'gener'
p15
S'm'
sS'lastScale'
p16
F5.5
sS'energy'
p17
F0.5
sb.(i__main__
Data_mobile
p1
(dp2
S'vel_y'
p3
F-0.32060362287331312
sS'vel_x'
p4
F-0.73294837267061763
sS'pos_x'
p5
F-121.27715384667904
sS'pos_y'
p6
F-58.775140358229585
sS'isAlive'
p7
I01
sS'geno'
p8
(lp9
F-0.5443742373087388
aF0.30576287943871006
aF1.9474174078145339
aF3.8011596416360964
aF-0.62917199413285274
asS'accel_x'
p10
F-1.1677360026059149
sS'accel_y'
p11
F-0.46885202465426212
sS'maxAccel'
p12
I2
sS'maxVel'
p13
F0.80000000000000004
sS'age'
p14
I50
sS'gener'
p15
S'm'
sS'lastScale'
p16
F5.5
sS'energy'
p17
I0
sb.(i__main__
Data_mobile
p1
(dp2
S'vel_y'
p3
F-0.384905994368064
sS'vel_x'
p4
F0.70131831253684795
sS'pos_x'
p5
F-87.592682645006647
sS'pos_y'
p6
F33.313704091055996
sS'isAlive'
p7
I01
sS'geno'
p8
(lp9
F-0.74601137330304457
aF0.30576287943871006
aF2.9029944524948648
aF4.3903436065708403
aF-0.30369412431722276
asS'accel_x'
p10
F1.8191258412609033
sS'accel_y'
p11
F-0.8311324645667566
sS'maxAccel'
p12
I2
sS'maxVel'
p13
F0.80000000000000004
sS'age'
p14
I50
sS'gener'
p15
S'm'
sS'lastScale'
p16
F5.5
sS'energy'
p17
I0
sb.(i__main__
Data_mobile
p1
(dp2
S'vel_y'
p3
I0
sS'vel_x'
p4
I0
sS'pos_x'
p5
I-9579
sS'pos_y'
p6
I9779
sS'isAlive'
p7
I00
sS'geno'
p8
(lp9
F-0.49994309713069829
aF0.30576287943871006
aF2.3901177728630341
aF4.3903436065708403
aF-0.26586548072852934
asS'accel_x'
p10
F0
sS'accel_y'
p11
F0
sS'maxAccel'
p12
I2
sS'maxVel'
p13
F0.80000000000000004
sS'age'
p14
I0
sS'gener'
p15
S'm'
sS'lastScale'
p16
F5.5
sS'energy'
p17
F0.5
sb.(i__main__
Data_mobile
p1
(dp2
S'vel_y'
p3
I0
sS'vel_x'
p4
I0
sS'pos_x'
p5
I-9579
sS'pos_y'
p6
I9779
sS'isAlive'
p7
I00
sS'geno'
p8
(lp9
F-0.5443742373087388
aF0.30576287943871006
aF2.9029944524948648
aF4.3903436065708403
aF-0.26586548072852934
asS'accel_x'
p10
F0
sS'accel_y'
p11
F0
sS'maxAccel'
p12
I2
sS'maxVel'
p13
F0.80000000000000004
sS'age'
p14
I0
sS'gener'
p15
S'm'
sS'lastScale'
p16
F5.5
sS'energy'
p17
F0.5
sb.(i__main__
Data_mobile
p1
(dp2
S'vel_y'
p3
I0
sS'vel_x'
p4
I0
sS'pos_x'
p5
I-9579
sS'pos_y'
p6
I9779
sS'isAlive'
p7
I00
sS'geno'
p8
(lp9
F0.029507134398061075
aF-0.079579121505586992
aF2.8144962905058759
aF4.3903436065708403
aF-0.26586548072852934
asS'accel_x'
p10
F0
sS'accel_y'
p11
F0
sS'maxAccel'
p12
I2
sS'maxVel'
p13
F0.80000000000000004
sS'age'
p14
I0
sS'gener'
p15
S'm'
sS'lastScale'
p16
F5.5
sS'energy'
p17
F0.5
sb.(i__main__
Data_mobile
p1
(dp2
S'vel_y'
p3
I0
sS'vel_x'
p4
I0
sS'pos_x'
p5
I-9579
sS'pos_y'
p6
I9779
sS'isAlive'
p7
I00
sS'geno'
p8
(lp9
F-0.5443742373087388
aF0.0074856682966406574
aF1.9474174078145339
aF3.6685366153125827
aF-0.26586548072852934
asS'accel_x'
p10
F0
sS'accel_y'
p11
F0
sS'maxAccel'
p12
I2
sS'maxVel'
p13
F0.80000000000000004
sS'age'
p14
I0
sS'gener'
p15
S'm'
sS'lastScale'
p16
F5.5
sS'energy'
p17
F0.5
sb.(i__main__
Data_mobile
p1
(dp2
S'vel_y'
p3
I0
sS'vel_x'
p4
I0
sS'pos_x'
p5
I-9579
sS'pos_y'
p6
I9779
sS'isAlive'
p7
I00
sS'geno'
p8
(lp9
F-0.3743539221624963
aF0.58889673987254232
aF2.8007149927640729
aF4.3903436065708403
aF-0.57757366022986878
asS'accel_x'
p10
F0
sS'accel_y'
p11
F0
sS'maxAccel'
p12
I2
sS'maxVel'
p13
F0.80000000000000004
sS'age'
p14
I0
sS'gener'
p15
S'm'
sS'lastScale'
p16
F5.5
sS'energy'
p17
F0.5
sb.(i__main__
Data_mobile
p1
(dp2
S'vel_y'
p3
I0
sS'vel_x'
p4
I0
sS'pos_x'
p5
I-9579
sS'pos_y'
p6
I9779
sS'isAlive'
p7
I00
sS'geno'
p8
(lp9
F0.029507134398061075
aF0.30576287943871006
aF2.7417254938411855
aF4.2611741371192755
aF-0.26586548072852934
asS'accel_x'
p10
F0
sS'accel_y'
p11
F0
sS'maxAccel'
p12
I2
sS'maxVel'
p13
F0.80000000000000004
sS'age'
p14
I0
sS'gener'
p15
S'm'
sS'lastScale'
p16
F5.5
sS'energy'
p17
F0.5
sb.(i__main__
Data_mobile
p1
(dp2
S'vel_y'
p3
I0
sS'vel_x'
p4
I0
sS'pos_x'
p5
I-9579
sS'pos_y'
p6
I9779
sS'isAlive'
p7
I00
sS'geno'
p8
(lp9
F-0.5443742373087388
aF0.30576287943871006
aF2.8144962905058759
aF4.3903436065708403
aF-0.57757366022986878
asS'accel_x'
p10
F0
sS'accel_y'
p11
F0
sS'maxAccel'
p12
I2
sS'maxVel'
p13
F0.80000000000000004
sS'age'
p14
I0
sS'gener'
p15
S'm'
sS'lastScale'
p16
F5.5
sS'energy'
p17
F0.5
sb.(i__main__
Data_mobile
p1
(dp2
S'vel_y'
p3
I0
sS'vel_x'
p4
I0
sS'pos_x'
p5
I-9579
sS'pos_y'
p6
I9779
sS'isAlive'
p7
I00
sS'geno'
p8
(lp9
F-0.5443742373087388
aF0.30576287943871006
aF2.9199133643962121
aF4.3903436065708403
aF-0.57757366022986878
asS'accel_x'
p10
F0
sS'accel_y'
p11
F0
sS'maxAccel'
p12
I2
sS'maxVel'
p13
F0.80000000000000004
sS'age'
p14
I0
sS'gener'
p15
S'm'
sS'lastScale'
p16
F5.5
sS'energy'
p17
F0.5
sb.(i__main__
Data_mobile
p1
(dp2
S'vel_y'
p3
I0
sS'vel_x'
p4
I0
sS'pos_x'
p5
I-9579
sS'pos_y'
p6
I9779
sS'isAlive'
p7
I00
sS'geno'
p8
(lp9
F0.029507134398061075
aF0.30576287943871006
aF1.9474174078145339
aF3.8011596416360964
aF-0.26586548072852934
asS'accel_x'
p10
F0
sS'accel_y'
p11
F0
sS'maxAccel'
p12
I2
sS'maxVel'
p13
F0.80000000000000004
sS'age'
p14
I0
sS'gener'
p15
S'm'
sS'lastScale'
p16
F5.5
sS'energy'
p17
F0.5
sb.(i__main__
Data_mobile
p1
(dp2
S'vel_y'
p3
I0
sS'vel_x'
p4
I0
sS'pos_x'
p5
I-9579
sS'pos_y'
p6
I9779
sS'isAlive'
p7
I00
sS'geno'
p8
(lp9
F-0.5443742373087388
aF0.0074856682966406574
aF2.8144962905058759
aF4.3903436065708403
aF-0.57757366022986878
asS'accel_x'
p10
F0
sS'accel_y'
p11
F0
sS'maxAccel'
p12
I2
sS'maxVel'
p13
F0.80000000000000004
sS'age'
p14
I0
sS'gener'
p15
S'm'
sS'lastScale'
p16
F5.5
sS'energy'
p17
F0.5
sb.(i__main__
Data_mobile
p1
(dp2
S'vel_y'
p3
I0
sS'vel_x'
p4
I0
sS'pos_x'
p5
I-9579
sS'pos_y'
p6
I9779
sS'isAlive'
p7
I00
sS'geno'
p8
(lp9
F0.029507134398061075
aF0.30576287943871006
aF2.7417254938411855
aF4.2611741371192755
aF-0.57757366022986878
asS'accel_x'
p10
F0
sS'accel_y'
p11
F0
sS'maxAccel'
p12
I2
sS'maxVel'
p13
F0.80000000000000004
sS'age'
p14
I0
sS'gener'
p15
S'm'
sS'lastScale'
p16
F5.5
sS'energy'
p17
F0.5
sb.(i__main__
Data_mobile
p1
(dp2
S'vel_y'
p3
I0
sS'vel_x'
p4
I0
sS'pos_x'
p5
I-9579
sS'pos_y'
p6
I9779
sS'isAlive'
p7
I00
sS'geno'
p8
(lp9
F0.029507134398061075
aF0.30576287943871006
aF1.9474174078145339
aF3.8011596416360964
aF-0.26586548072852934
asS'accel_x'
p10
F0
sS'accel_y'
p11
F0
sS'maxAccel'
p12
I2
sS'maxVel'
p13
F0.80000000000000004
sS'age'
p14
I0
sS'gener'
p15
S'm'
sS'lastScale'
p16
F5.5
sS'energy'
p17
F0.5
sb.(i__main__
Data_mobile
p1
(dp2
S'vel_y'
p3
I0
sS'vel_x'
p4
I0
sS'pos_x'
p5
I-9579
sS'pos_y'
p6
I9779
sS'isAlive'
p7
I00
sS'geno'
p8
(lp9
F-0.5443742373087388
aF0.30576287943871006
aF1.9474174078145339
aF3.769912960815466
aF-0.26586548072852934
asS'accel_x'
p10
F0
sS'accel_y'
p11
F0
sS'maxAccel'
p12
I2
sS'maxVel'
p13
F0.80000000000000004
sS'age'
p14
I0
sS'gener'
p15
S'm'
sS'lastScale'
p16
F5.5
sS'energy'
p17
F0.5
sb.(i__main__
Data_mobile
p1
(dp2
S'vel_y'
p3
I0
sS'vel_x'
p4
I0
sS'pos_x'
p5
I-9579
sS'pos_y'
p6
I9779
sS'isAlive'
p7
I00
sS'geno'
p8
(lp9
F0.029507134398061075
aF0.30576287943871006
aF2.8144962905058759
aF4.3903436065708403
aF-0.57757366022986878
asS'accel_x'
p10
F0
sS'accel_y'
p11
F0
sS'maxAccel'
p12
I2
sS'maxVel'
p13
F0.80000000000000004
sS'age'
p14
I0
sS'gener'
p15
S'm'
sS'lastScale'
p16
F5.5
sS'energy'
p17
F0.5
sb.(i__main__
Data_mobile
p1
(dp2
S'vel_y'
p3
I0
sS'vel_x'
p4
I0
sS'pos_x'
p5
I-9579
sS'pos_y'
p6
I9779
sS'isAlive'
p7
I00
sS'geno'
p8
(lp9
F-0.3743539221624963
aF0.58889673987254232
aF1.9474174078145339
aF3.8011596416360964
aF-0.26586548072852934
asS'accel_x'
p10
F0
sS'accel_y'
p11
F0
sS'maxAccel'
p12
I2
sS'maxVel'
p13
F0.80000000000000004
sS'age'
p14
I0
sS'gener'
p15
S'm'
sS'lastScale'
p16
F5.5
sS'energy'
p17
F0.5
sb.(i__main__
Data_mobile
p1
(dp2
S'vel_y'
p3
I0
sS'vel_x'
p4
I0
sS'pos_x'
p5
I-9579
sS'pos_y'
p6
I9779
sS'isAlive'
p7
I00
sS'geno'
p8
(lp9
F-0.5443742373087388
aF0.30576287943871006
aF2.9136126342056761
aF4.3903436065708403
aF-0.57757366022986878
asS'accel_x'
p10
F0
sS'accel_y'
p11
F0
sS'maxAccel'
p12
I2
sS'maxVel'
p13
F0.80000000000000004
sS'age'
p14
I0
sS'gener'
p15
S'm'
sS'lastScale'
p16
F5.5
sS'energy'
p17
F0.5
sb.(i__main__
Data_mobile
p1
(dp2
S'vel_y'
p3
I0
sS'vel_x'
p4
I0
sS'pos_x'
p5
I-9579
sS'pos_y'
p6
I9779
sS'isAlive'
p7
I00
sS'geno'
p8
(lp9
F-0.5443742373087388
aF0.30576287943871006
aF2.8144962905058759
aF4.3903436065708403
aF-0.26586548072852934
asS'accel_x'
p10
F0
sS'accel_y'
p11
F0
sS'maxAccel'
p12
I2
sS'maxVel'
p13
F0.80000000000000004
sS'age'
p14
I0
sS'gener'
p15
S'm'
sS'lastScale'
p16
F5.5
sS'energy'
p17
F0.5
sb.(i__main__
Data_mobile
p1
(dp2
S'vel_y'
p3
I0
sS'vel_x'
p4
I0
sS'pos_x'
p5
I-9579
sS'pos_y'
p6
I9779
sS'isAlive'
p7
I00
sS'geno'
p8
(lp9
F-0.3743539221624963
aF0.0074856682966406574
aF2.8144962905058759
aF4.3903436065708403
aF-0.57757366022986878
asS'accel_x'
p10
F0
sS'accel_y'
p11
F0
sS'maxAccel'
p12
I2
sS'maxVel'
p13
F0.80000000000000004
sS'age'
p14
I0
sS'gener'
p15
S'm'
sS'lastScale'
p16
F5.5
sS'energy'
p17
F0.5
sb.(i__main__
Data_mobile
p1
(dp2
S'vel_y'
p3
I0
sS'vel_x'
p4
I0
sS'pos_x'
p5
I-9579
sS'pos_y'
p6
I9779
sS'isAlive'
p7
I00
sS'geno'
p8
(lp9
F-0.49994309713069829
aF0.30576287943871006
aF2.3901177728630341
aF4.3903436065708403
aF-0.26586548072852934
asS'accel_x'
p10
F0
sS'accel_y'
p11
F0
sS'maxAccel'
p12
I2
sS'maxVel'
p13
F0.80000000000000004
sS'age'
p14
I0
sS'gener'
p15
S'm'
sS'lastScale'
p16
F5.5
sS'energy'
p17
F0.5
sb.(i__main__
Data_mobile
p1
(dp2
S'vel_y'
p3
I0
sS'vel_x'
p4
I0
sS'pos_x'
p5
I-9579
sS'pos_y'
p6
I9779
sS'isAlive'
p7
I00
sS'geno'
p8
(lp9
F-0.5443742373087388
aF0.3240244565961764
aF3.6018142145364647
aF3.753441830374336
aF-0.57757366022986878
asS'accel_x'
p10
F0
sS'accel_y'
p11
F0
sS'maxAccel'
p12
I2
sS'maxVel'
p13
F0.80000000000000004
sS'age'
p14
I0
sS'gener'
p15
S'm'
sS'lastScale'
p16
F5.5
sS'energy'
p17
F0.5
sb.(i__main__
Data_mobile
p1
(dp2
S'vel_y'
p3
I0
sS'vel_x'
p4
I0
sS'pos_x'
p5
I-9579
sS'pos_y'
p6
I9779
sS'isAlive'
p7
I00
sS'geno'
p8
(lp9
F0.029507134398061075
aF0.60963789519305367
aF1.9474174078145339
aF3.769912960815466
aF-0.50944102276604952
asS'accel_x'
p10
F0
sS'accel_y'
p11
F0
sS'maxAccel'
p12
I2
sS'maxVel'
p13
F0.80000000000000004
sS'age'
p14
I0
sS'gener'
p15
S'm'
sS'lastScale'
p16
F5.5
sS'energy'
p17
F0.5
sb.(i__main__
Data_mobile
p1
(dp2
S'vel_y'
p3
I0
sS'vel_x'
p4
I0
sS'pos_x'
p5
I-9579
sS'pos_y'
p6
I9779
sS'isAlive'
p7
I00
sS'geno'
p8
(lp9
F-0.5443742373087388
aF0.30576287943871006
aF2.9136126342056761
aF4.1091024355036279
aF-0.26586548072852934
asS'accel_x'
p10
F0
sS'accel_y'
p11
F0
sS'maxAccel'
p12
I2
sS'maxVel'
p13
F0.80000000000000004
sS'age'
p14
I0
sS'gener'
p15
S'm'
sS'lastScale'
p16
F5.5
sS'energy'
p17
F0.5
sb.(i__main__
Data_mobile
p1
(dp2
S'vel_y'
p3
I0
sS'vel_x'
p4
I0
sS'pos_x'
p5
I-9579
sS'pos_y'
p6
I9779
sS'isAlive'
p7
I00
sS'geno'
p8
(lp9
F-0.5443742373087388
aF0.30576287943871006
aF1.9474174078145339
aF3.769912960815466
aF-0.57757366022986878
asS'accel_x'
p10
F0
sS'accel_y'
p11
F0
sS'maxAccel'
p12
I2
sS'maxVel'
p13
F0.80000000000000004
sS'age'
p14
I0
sS'gener'
p15
S'm'
sS'lastScale'
p16
F5.5
sS'energy'
p17
F0.5
sb.(i__main__
Data_mobile
p1
(dp2
S'vel_y'
p3
I0
sS'vel_x'
p4
I0
sS'pos_x'
p5
I-9579
sS'pos_y'
p6
I9779
sS'isAlive'
p7
I00
sS'geno'
p8
(lp9
F-0.5443742373087388
aF0.30576287943871006
aF2.9136126342056761
aF4.3903436065708403
aF-0.57757366022986878
asS'accel_x'
p10
F0
sS'accel_y'
p11
F0
sS'maxAccel'
p12
I2
sS'maxVel'
p13
F0.80000000000000004
sS'age'
p14
I0
sS'gener'
p15
S'm'
sS'lastScale'
p16
F5.5
sS'energy'
p17
F0.5
sb.(i__main__
Data_mobile
p1
(dp2
S'vel_y'
p3
I0
sS'vel_x'
p4
I0
sS'pos_x'
p5
I-9579
sS'pos_y'
p6
I9779
sS'isAlive'
p7
I00
sS'geno'
p8
(lp9
F-0.91003908072561945
aF0.3240244565961764
aF3.2109018887063554
aF3.753441830374336
aF-1.0758152026882803
asS'accel_x'
p10
F0
sS'accel_y'
p11
F0
sS'maxAccel'
p12
I2
sS'maxVel'
p13
F0.80000000000000004
sS'age'
p14
I0
sS'gener'
p15
S'm'
sS'lastScale'
p16
F5.5
sS'energy'
p17
F0.5
sb.(i__main__
Data_mobile
p1
(dp2
S'vel_y'
p3
I0
sS'vel_x'
p4
I0
sS'pos_x'
p5
I-9579
sS'pos_y'
p6
I9779
sS'isAlive'
p7
I00
sS'geno'
p8
(lp9
F0.029507134398061075
aF0.0074856682966406574
aF2.906319467863042
aF4.3903436065708403
aF-0.57757366022986878
asS'accel_x'
p10
F0
sS'accel_y'
p11
F0
sS'maxAccel'
p12
I2
sS'maxVel'
p13
F0.80000000000000004
sS'age'
p14
I0
sS'gener'
p15
S'm'
sS'lastScale'
p16
F5.5
sS'energy'
p17
F0.5
sb.(i__main__
Data_mobile
p1
(dp2
S'vel_y'
p3
I0
sS'vel_x'
p4
I0
sS'pos_x'
p5
I-9579
sS'pos_y'
p6
I9779
sS'isAlive'
p7
I00
sS'geno'
p8
(lp9
F0.029507134398061075
aF0.0074856682966406574
aF2.8144962905058759
aF4.3903436065708403
aF-0.57757366022986878
asS'accel_x'
p10
F0
sS'accel_y'
p11
F0
sS'maxAccel'
p12
I2
sS'maxVel'
p13
F0.80000000000000004
sS'age'
p14
I0
sS'gener'
p15
S'm'
sS'lastScale'
p16
F5.5
sS'energy'
p17
F0.5
sb.(i__main__
Data_mobile
p1
(dp2
S'vel_y'
p3
I0
sS'vel_x'
p4
I0
sS'pos_x'
p5
I-9579
sS'pos_y'
p6
I9779
sS'isAlive'
p7
I00
sS'geno'
p8
(lp9
F0.029507134398061075
aF0.0074856682966406574
aF2.8144962905058759
aF4.3903436065708403
aF-0.57757366022986878
asS'accel_x'
p10
F0
sS'accel_y'
p11
F0
sS'maxAccel'
p12
I2
sS'maxVel'
p13
F0.80000000000000004
sS'age'
p14
I0
sS'gener'
p15
S'm'
sS'lastScale'
p16
F5.5
sS'energy'
p17
F0.5
sb.(i__main__
Data_mobile
p1
(dp2
S'vel_y'
p3
I0
sS'vel_x'
p4
I0
sS'pos_x'
p5
I-9579
sS'pos_y'
p6
I9779
sS'isAlive'
p7
I00
sS'geno'
p8
(lp9
F0.029507134398061075
aF0.30576287943871006
aF1.9474174078145339
aF3.8011596416360964
aF-0.26586548072852934
asS'accel_x'
p10
F0
sS'accel_y'
p11
F0
sS'maxAccel'
p12
I2
sS'maxVel'
p13
F0.80000000000000004
sS'age'
p14
I0
sS'gener'
p15
S'm'
sS'lastScale'
p16
F5.5
sS'energy'
p17
F0.5
sb.(i__main__
Data_mobile
p1
(dp2
S'vel_y'
p3
I0
sS'vel_x'
p4
I0
sS'pos_x'
p5
I-9579
sS'pos_y'
p6
I9779
sS'isAlive'
p7
I00
sS'geno'
p8
(lp9
F0.029507134398061075
aF0.0074856682966406574
aF2.8144962905058759
aF4.3903436065708403
aF-0.57757366022986878
asS'accel_x'
p10
F0
sS'accel_y'
p11
F0
sS'maxAccel'
p12
I2
sS'maxVel'
p13
F0.80000000000000004
sS'age'
p14
I0
sS'gener'
p15
S'm'
sS'lastScale'
p16
F5.5
sS'energy'
p17
F0.5
sb.(i__main__
Data_mobile
p1
(dp2
S'vel_y'
p3
I0
sS'vel_x'
p4
I0
sS'pos_x'
p5
I-9579
sS'pos_y'
p6
I9779
sS'isAlive'
p7
I00
sS'geno'
p8
(lp9
F-0.3743539221624963
aF0.30576287943871006
aF1.9474174078145339
aF3.8011596416360964
aF0.13345040704193423
asS'accel_x'
p10
F0
sS'accel_y'
p11
F0
sS'maxAccel'
p12
I2
sS'maxVel'
p13
F0.80000000000000004
sS'age'
p14
I0
sS'gener'
p15
S'm'
sS'lastScale'
p16
F5.5
sS'energy'
p17
F0.5
sb.(i__main__
Data_mobile
p1
(dp2
S'vel_y'
p3
I0
sS'vel_x'
p4
I0
sS'pos_x'
p5
I-9579
sS'pos_y'
p6
I9779
sS'isAlive'
p7
I00
sS'geno'
p8
(lp9
F0.029507134398061075
aF0.3240244565961764
aF3.2109018887063554
aF3.8011596416360964
aF-0.26586548072852934
asS'accel_x'
p10
F0
sS'accel_y'
p11
F0
sS'maxAccel'
p12
I2
sS'maxVel'
p13
F0.80000000000000004
sS'age'
p14
I0
sS'gener'
p15
S'm'
sS'lastScale'
p16
F5.5
sS'energy'
p17
F0.5
sb.(i__main__
Data_mobile
p1
(dp2
S'vel_y'
p3
I0
sS'vel_x'
p4
I0
sS'pos_x'
p5
I-9579
sS'pos_y'
p6
I9779
sS'isAlive'
p7
I00
sS'geno'
p8
(lp9
F-0.5443742373087388
aF0.3240244565961764
aF3.2109018887063554
aF3.753441830374336
aF-0.57757366022986878
asS'accel_x'
p10
F0
sS'accel_y'
p11
F0
sS'maxAccel'
p12
I2
sS'maxVel'
p13
F0.80000000000000004
sS'age'
p14
I0
sS'gener'
p15
S'm'
sS'lastScale'
p16
F5.5
sS'energy'
p17
F0.5
sb.(i__main__
Data_mobile
p1
(dp2
S'vel_y'
p3
I0
sS'vel_x'
p4
I0
sS'pos_x'
p5
I-9579
sS'pos_y'
p6
I9779
sS'isAlive'
p7
I00
sS'geno'
p8
(lp9
F-0.13721298194826015
aF0.3240244565961764
aF3.6018142145364647
aF3.753441830374336
aF-0.57757366022986878
asS'accel_x'
p10
F0
sS'accel_y'
p11
F0
sS'maxAccel'
p12
I2
sS'maxVel'
p13
F0.80000000000000004
sS'age'
p14
I0
sS'gener'
p15
S'm'
sS'lastScale'
p16
F5.5
sS'energy'
p17
F0.5
sb.(i__main__
Data_mobile
p1
(dp2
S'vel_y'
p3
I0
sS'vel_x'
p4
I0
sS'pos_x'
p5
I-9579
sS'pos_y'
p6
I9779
sS'isAlive'
p7
I00
sS'geno'
p8
(lp9
F0.029507134398061075
aF0.30576287943871006
aF1.9474174078145339
aF3.8011596416360964
aF-0.26586548072852934
asS'accel_x'
p10
F0
sS'accel_y'
p11
F0
sS'maxAccel'
p12
I2
sS'maxVel'
p13
F0.80000000000000004
sS'age'
p14
I0
sS'gener'
p15
S'm'
sS'lastScale'
p16
F5.5
sS'energy'
p17
F0.5
sb.(i__main__
Data_mobile
p1
(dp2
S'vel_y'
p3
I0
sS'vel_x'
p4
I0
sS'pos_x'
p5
I-9579
sS'pos_y'
p6
I9779
sS'isAlive'
p7
I00
sS'geno'
p8
(lp9
F-0.5443742373087388
aF0.30576287943871006
aF1.9474174078145339
aF3.8011596416360964
aF-0.26586548072852934
asS'accel_x'
p10
F0
sS'accel_y'
p11
F0
sS'maxAccel'
p12
I2
sS'maxVel'
p13
F0.80000000000000004
sS'age'
p14
I0
sS'gener'
p15
S'm'
sS'lastScale'
p16
F5.5
sS'energy'
p17
F0.5
sb.(i__main__
Data_mobile
p1
(dp2
S'vel_y'
p3
I0
sS'vel_x'
p4
I0
sS'pos_x'
p5
I-9579
sS'pos_y'
p6
I9779
sS'isAlive'
p7
I00
sS'geno'
p8
(lp9
F0.029507134398061075
aF0.30576287943871006
aF1.9474174078145339
aF3.8011596416360964
aF-0.26586548072852934
asS'accel_x'
p10
F0
sS'accel_y'
p11
F0
sS'maxAccel'
p12
I2
sS'maxVel'
p13
F0.80000000000000004
sS'age'
p14
I0
sS'gener'
p15
S'm'
sS'lastScale'
p16
F5.5
sS'energy'
p17
F0.5
sb.(i__main__
Data_mobile
p1
(dp2
S'vel_y'
p3
I0
sS'vel_x'
p4
I0
sS'pos_x'
p5
I-9579
sS'pos_y'
p6
I9779
sS'isAlive'
p7
I00
sS'geno'
p8
(lp9
F-0.49994309713069829
aF0.30576287943871006
aF2.8144962905058759
aF4.7574083488795758
aF-0.57757366022986878
asS'accel_x'
p10
F0
sS'accel_y'
p11
F0
sS'maxAccel'
p12
I2
sS'maxVel'
p13
F0.80000000000000004
sS'age'
p14
I0
sS'gener'
p15
S'm'
sS'lastScale'
p16
F5.5
sS'energy'
p17
F0.5
sb.(i__main__
Data_mobile
p1
(dp2
S'vel_y'
p3
I0
sS'vel_x'
p4
I0
sS'pos_x'
p5
I-9579
sS'pos_y'
p6
I9779
sS'isAlive'
p7
I00
sS'geno'
p8
(lp9
F-0.3743539221624963
aF0.58889673987254232
aF2.9742229922793535
aF4.3903436065708403
aF-0.26586548072852934
asS'accel_x'
p10
F0
sS'accel_y'
p11
F0
sS'maxAccel'
p12
I2
sS'maxVel'
p13
F0.80000000000000004
sS'age'
p14
I0
sS'gener'
p15
S'm'
sS'lastScale'
p16
F5.5
sS'energy'
p17
F0.5
sb.(i__main__
Data_mobile
p1
(dp2
S'vel_y'
p3
I0
sS'vel_x'
p4
I0
sS'pos_x'
p5
I-9579
sS'pos_y'
p6
I9779
sS'isAlive'
p7
I00
sS'geno'
p8
(lp9
F0.029507134398061075
aF0.30576287943871006
aF1.9474174078145339
aF3.8011596416360964
aF-0.26586548072852934
asS'accel_x'
p10
F0
sS'accel_y'
p11
F0
sS'maxAccel'
p12
I2
sS'maxVel'
p13
F0.80000000000000004
sS'age'
p14
I0
sS'gener'
p15
S'm'
sS'lastScale'
p16
F5.5
sS'energy'
p17
F0.5
sb.(i__main__
Data_mobile
p1
(dp2
S'vel_y'
p3
I0
sS'vel_x'
p4
I0
sS'pos_x'
p5
I-9579
sS'pos_y'
p6
I9779
sS'isAlive'
p7
I00
sS'geno'
p8
(lp9
F0.029507134398061075
aF0.3240244565961764
aF3.2109018887063554
aF3.8011596416360964
aF-0.26586548072852934
asS'accel_x'
p10
F0
sS'accel_y'
p11
F0
sS'maxAccel'
p12
I2
sS'maxVel'
p13
F0.80000000000000004
sS'age'
p14
I0
sS'gener'
p15
S'm'
sS'lastScale'
p16
F5.5
sS'energy'
p17
F0.5
sb.(i__main__
Data_mobile
p1
(dp2
S'vel_y'
p3
I0
sS'vel_x'
p4
I0
sS'pos_x'
p5
I-9579
sS'pos_y'
p6
I9779
sS'isAlive'
p7
I00
sS'geno'
p8
(lp9
F-0.59527734248695863
aF0.29044742846048488
aF1.9474174078145339
aF4.6846867127500902
aF-0.26586548072852934
asS'accel_x'
p10
F0
sS'accel_y'
p11
F0
sS'maxAccel'
p12
I2
sS'maxVel'
p13
F0.80000000000000004
sS'age'
p14
I0
sS'gener'
p15
S'm'
sS'lastScale'
p16
F5.5
sS'energy'
p17
F0.5
sb.(i__main__
Data_mobile
p1
(dp2
S'vel_y'
p3
I0
sS'vel_x'
p4
I0
sS'pos_x'
p5
I-9579
sS'pos_y'
p6
I9779
sS'isAlive'
p7
I00
sS'geno'
p8
(lp9
F0.029507134398061075
aF0.30576287943871006
aF2.8144962905058759
aF4.3903436065708403
aF-0.26586548072852934
asS'accel_x'
p10
F0
sS'accel_y'
p11
F0
sS'maxAccel'
p12
I2
sS'maxVel'
p13
F0.80000000000000004
sS'age'
p14
I0
sS'gener'
p15
S'm'
sS'lastScale'
p16
F5.5
sS'energy'
p17
F0.5
sb.(i__main__
Data_mobile
p1
(dp2
S'vel_y'
p3
I0
sS'vel_x'
p4
I0
sS'pos_x'
p5
I-9579
sS'pos_y'
p6
I9779
sS'isAlive'
p7
I00
sS'geno'
p8
(lp9
F-0.3743539221624963
aF0.30576287943871006
aF2.8144962905058759
aF3.9977742653644004
aF-0.26586548072852934
asS'accel_x'
p10
F0
sS'accel_y'
p11
F0
sS'maxAccel'
p12
I2
sS'maxVel'
p13
F0.80000000000000004
sS'age'
p14
I0
sS'gener'
p15
S'm'
sS'lastScale'
p16
F5.5
sS'energy'
p17
F0.5
sb.(i__main__
Data_mobile
p1
(dp2
S'vel_y'
p3
I0
sS'vel_x'
p4
I0
sS'pos_x'
p5
I-9579
sS'pos_y'
p6
I9779
sS'isAlive'
p7
I00
sS'geno'
p8
(lp9
F-0.5443742373087388
aF0.30576287943871006
aF1.9474174078145339
aF3.8011596416360964
aF-0.26586548072852934
asS'accel_x'
p10
F0
sS'accel_y'
p11
F0
sS'maxAccel'
p12
I2
sS'maxVel'
p13
F0.80000000000000004
sS'age'
p14
I0
sS'gener'
p15
S'm'
sS'lastScale'
p16
F5.5
sS'energy'
p17
F0.5
sb.(i__main__
Data_mobile
p1
(dp2
S'vel_y'
p3
I0
sS'vel_x'
p4
I0
sS'pos_x'
p5
I-9579
sS'pos_y'
p6
I9779
sS'isAlive'
p7
I00
sS'geno'
p8
(lp9
F-0.3743539221624963
aF0.4476567839972001
aF2.2091569943900025
aF3.8011596416360964
aF-0.26586548072852934
asS'accel_x'
p10
F0
sS'accel_y'
p11
F0
sS'maxAccel'
p12
I2
sS'maxVel'
p13
F0.80000000000000004
sS'age'
p14
I0
sS'gener'
p15
S'm'
sS'lastScale'
p16
F5.5
sS'energy'
p17
F0.5
sb.(i__main__
Data_mobile
p1
(dp2
S'vel_y'
p3
I0
sS'vel_x'
p4
I0
sS'pos_x'
p5
I-9579
sS'pos_y'
p6
I9779
sS'isAlive'
p7
I00
sS'geno'
p8
(lp9
F0.029507134398061075
aF0.30576287943871006
aF2.8144962905058759
aF4.3903436065708403
aF-0.57757366022986878
asS'accel_x'
p10
F0
sS'accel_y'
p11
F0
sS'maxAccel'
p12
I2
sS'maxVel'
p13
F0.80000000000000004
sS'age'
p14
I0
sS'gener'
p15
S'm'
sS'lastScale'
p16
F5.5
sS'energy'
p17
F0.5
sb.(i__main__
Data_mobile
p1
(dp2
S'vel_y'
p3
I0
sS'vel_x'
p4
I0
sS'pos_x'
p5
I-9579
sS'pos_y'
p6
I9779
sS'isAlive'
p7
I00
sS'geno'
p8
(lp9
F-0.49994309713069829
aF0.30576287943871006
aF2.8144962905058759
aF4.3903436065708403
aF-0.57757366022986878
asS'accel_x'
p10
F0
sS'accel_y'
p11
F0
sS'maxAccel'
p12
I2
sS'maxVel'
p13
F0.80000000000000004
sS'age'
p14
I0
sS'gener'
p15
S'm'
sS'lastScale'
p16
F5.5
sS'energy'
p17
F0.5
sb.(i__main__
Data_mobile
p1
(dp2
S'vel_y'
p3
I0
sS'vel_x'
p4
I0
sS'pos_x'
p5
I-9579
sS'pos_y'
p6
I9779
sS'isAlive'
p7
I00
sS'geno'
p8
(lp9
F-0.34705498965195125
aF0.17471532839990322
aF1.9474174078145339
aF3.8011596416360964
aF-0.40261763318518573
asS'accel_x'
p10
F0
sS'accel_y'
p11
F0
sS'maxAccel'
p12
I2
sS'maxVel'
p13
F0.80000000000000004
sS'age'
p14
I0
sS'gener'
p15
S'm'
sS'lastScale'
p16
F5.5
sS'energy'
p17
F0.5
sb.(i__main__
Data_mobile
p1
(dp2
S'vel_y'
p3
I0
sS'vel_x'
p4
I0
sS'pos_x'
p5
I-9579
sS'pos_y'
p6
I9779
sS'isAlive'
p7
I00
sS'geno'
p8
(lp9
F0.029507134398061075
aF0.30576287943871006
aF1.9474174078145339
aF3.8011596416360964
aF-0.26586548072852934
asS'accel_x'
p10
F0
sS'accel_y'
p11
F0
sS'maxAccel'
p12
I2
sS'maxVel'
p13
F0.80000000000000004
sS'age'
p14
I0
sS'gener'
p15
S'm'
sS'lastScale'
p16
F5.5
sS'energy'
p17
F0.5
sb.(i__main__
Data_mobile
p1
(dp2
S'vel_y'
p3
I0
sS'vel_x'
p4
I0
sS'pos_x'
p5
I-9579
sS'pos_y'
p6
I9779
sS'isAlive'
p7
I00
sS'geno'
p8
(lp9
F-0.72270902953115967
aF0.17471532839990322
aF1.9474174078145339
aF4.1692211359895159
aF-0.57757366022986878
asS'accel_x'
p10
F0
sS'accel_y'
p11
F0
sS'maxAccel'
p12
I2
sS'maxVel'
p13
F0.80000000000000004
sS'age'
p14
I0
sS'gener'
p15
S'm'
sS'lastScale'
p16
F5.5
sS'energy'
p17
F0.5
sb.(i__main__
Data_mobile
p1
(dp2
S'vel_y'
p3
I0
sS'vel_x'
p4
I0
sS'pos_x'
p5
I-9579
sS'pos_y'
p6
I9779
sS'isAlive'
p7
I00
sS'geno'
p8
(lp9
F-0.5443742373087388
aF0.3240244565961764
aF3.2109018887063554
aF3.753441830374336
aF-0.26586548072852934
asS'accel_x'
p10
F0
sS'accel_y'
p11
F0
sS'maxAccel'
p12
I2
sS'maxVel'
p13
F0.80000000000000004
sS'age'
p14
I0
sS'gener'
p15
S'm'
sS'lastScale'
p16
F5.5
sS'energy'
p17
F0.5
sb.(i__main__
Data_mobile
p1
(dp2
S'vel_y'
p3
I0
sS'vel_x'
p4
I0
sS'pos_x'
p5
I-9579
sS'pos_y'
p6
I9779
sS'isAlive'
p7
I00
sS'geno'
p8
(lp9
F-0.3743539221624963
aF0.17471532839990322
aF2.2091569943900025
aF3.8011596416360964
aF-0.32845703992404462
asS'accel_x'
p10
F0
sS'accel_y'
p11
F0
sS'maxAccel'
p12
I2
sS'maxVel'
p13
F0.80000000000000004
sS'age'
p14
I0
sS'gener'
p15
S'm'
sS'lastScale'
p16
F5.5
sS'energy'
p17
F0.5
sb.(i__main__
Data_mobile
p1
(dp2
S'vel_y'
p3
I0
sS'vel_x'
p4
I0
sS'pos_x'
p5
I-9579
sS'pos_y'
p6
I9779
sS'isAlive'
p7
I00
sS'geno'
p8
(lp9
F-0.49994309713069829
aF0.03619952230027923
aF1.9474174078145339
aF3.8011596416360964
aF-0.32845703992404462
asS'accel_x'
p10
F0
sS'accel_y'
p11
F0
sS'maxAccel'
p12
I2
sS'maxVel'
p13
F0.80000000000000004
sS'age'
p14
I0
sS'gener'
p15
S'm'
sS'lastScale'
p16
F5.5
sS'energy'
p17
F0.5
sb.(i__main__
Data_mobile
p1
(dp2
S'vel_y'
p3
I0
sS'vel_x'
p4
I0
sS'pos_x'
p5
I-9579
sS'pos_y'
p6
I9779
sS'isAlive'
p7
I00
sS'geno'
p8
(lp9
F-0.5443742373087388
aF0.30576287943871006
aF1.9474174078145339
aF3.8011596416360964
aF-0.32845703992404462
asS'accel_x'
p10
F0
sS'accel_y'
p11
F0
sS'maxAccel'
p12
I2
sS'maxVel'
p13
F0.80000000000000004
sS'age'
p14
I0
sS'gener'
p15
S'm'
sS'lastScale'
p16
F5.5
sS'energy'
p17
F0.5
sb.(i__main__
Data_mobile
p1
(dp2
S'vel_y'
p3
I0
sS'vel_x'
p4
I0
sS'pos_x'
p5
I-9579
sS'pos_y'
p6
I9779
sS'isAlive'
p7
I00
sS'geno'
p8
(lp9
F-0.5443742373087388
aF0.30576287943871006
aF3.0260103676231682
aF4.6846867127500902
aF-0.26586548072852934
asS'accel_x'
p10
F0
sS'accel_y'
p11
F0
sS'maxAccel'
p12
I2
sS'maxVel'
p13
F0.80000000000000004
sS'age'
p14
I0
sS'gener'
p15
S'm'
sS'lastScale'
p16
F5.5
sS'energy'
p17
F0.5
sb.(i__main__
Data_mobile
p1
(dp2
S'vel_y'
p3
I0
sS'vel_x'
p4
I0
sS'pos_x'
p5
I-9579
sS'pos_y'
p6
I9779
sS'isAlive'
p7
I00
sS'geno'
p8
(lp9
F-0.3743539221624963
aF0.30576287943871006
aF2.8144962905058759
aF4.3903436065708403
aF-0.57757366022986878
asS'accel_x'
p10
F0
sS'accel_y'
p11
F0
sS'maxAccel'
p12
I2
sS'maxVel'
p13
F0.80000000000000004
sS'age'
p14
I0
sS'gener'
p15
S'm'
sS'lastScale'
p16
F5.5
sS'energy'
p17
F0.5
sb.(i__main__
Data_mobile
p1
(dp2
S'vel_y'
p3
I0
sS'vel_x'
p4
I0
sS'pos_x'
p5
I-9579
sS'pos_y'
p6
I9779
sS'isAlive'
p7
I00
sS'geno'
p8
(lp9
F-0.5443742373087388
aF0.30576287943871006
aF2.8144962905058759
aF4.2179716025651439
aF-0.57757366022986878
asS'accel_x'
p10
F0
sS'accel_y'
p11
F0
sS'maxAccel'
p12
I2
sS'maxVel'
p13
F0.80000000000000004
sS'age'
p14
I0
sS'gener'
p15
S'm'
sS'lastScale'
p16
F5.5
sS'energy'
p17
F0.5
sb.(i__main__
Data_mobile
p1
(dp2
S'vel_y'
p3
I0
sS'vel_x'
p4
I0
sS'pos_x'
p5
I-9579
sS'pos_y'
p6
I9779
sS'isAlive'
p7
I00
sS'geno'
p8
(lp9
F-0.5443742373087388
aF-0.16470409836127786
aF2.5321490821315846
aF4.6846867127500902
aF-0.26586548072852934
asS'accel_x'
p10
F0
sS'accel_y'
p11
F0
sS'maxAccel'
p12
I2
sS'maxVel'
p13
F0.80000000000000004
sS'age'
p14
I0
sS'gener'
p15
S'm'
sS'lastScale'
p16
F5.5
sS'energy'
p17
F0.5
sb.(i__main__
Data_mobile
p1
(dp2
S'vel_y'
p3
I0
sS'vel_x'
p4
I0
sS'pos_x'
p5
I-9579
sS'pos_y'
p6
I9779
sS'isAlive'
p7
I00
sS'geno'
p8
(lp9
F-0.3743539221624963
aF0.30576287943871006
aF2.8144962905058759
aF4.3903436065708403
aF-0.32845703992404462
asS'accel_x'
p10
F0
sS'accel_y'
p11
F0
sS'maxAccel'
p12
I2
sS'maxVel'
p13
F0.80000000000000004
sS'age'
p14
I0
sS'gener'
p15
S'm'
sS'lastScale'
p16
F5.5
sS'energy'
p17
F0.5
sb.(i__main__
Data_mobile
p1
(dp2
S'vel_y'
p3
I0
sS'vel_x'
p4
I0
sS'pos_x'
p5
I-9579
sS'pos_y'
p6
I9779
sS'isAlive'
p7
I00
sS'geno'
p8
(lp9
F-0.3743539221624963
aF0.58889673987254232
aF2.8144962905058759
aF4.3903436065708403
aF-0.26586548072852934
asS'accel_x'
p10
F0
sS'accel_y'
p11
F0
sS'maxAccel'
p12
I2
sS'maxVel'
p13
F0.80000000000000004
sS'age'
p14
I0
sS'gener'
p15
S'm'
sS'lastScale'
p16
F5.5
sS'energy'
p17
F0.5
sb.(i__main__
Data_mobile
p1
(dp2
S'vel_y'
p3
I0
sS'vel_x'
p4
I0
sS'pos_x'
p5
I-9579
sS'pos_y'
p6
I9779
sS'isAlive'
p7
I00
sS'geno'
p8
(lp9
F-0.5443742373087388
aF0.30576287943871006
aF1.6187237376721835
aF3.8011596416360964
aF0.23073010167537267
asS'accel_x'
p10
F0
sS'accel_y'
p11
F0
sS'maxAccel'
p12
I2
sS'maxVel'
p13
F0.80000000000000004
sS'age'
p14
I0
sS'gener'
p15
S'm'
sS'lastScale'
p16
F5.5
sS'energy'
p17
F0.5
sb.(i__main__
Data_mobile
p1
(dp2
S'vel_y'
p3
I0
sS'vel_x'
p4
I0
sS'pos_x'
p5
I-9579
sS'pos_y'
p6
I9779
sS'isAlive'
p7
I00
sS'geno'
p8
(lp9
F-0.3743539221624963
aF0.30576287943871006
aF2.8144962905058759
aF4.3903436065708403
aF-0.3109027507014368
asS'accel_x'
p10
F0
sS'accel_y'
p11
F0
sS'maxAccel'
p12
I2
sS'maxVel'
p13
F0.80000000000000004
sS'age'
p14
I0
sS'gener'
p15
S'm'
sS'lastScale'
p16
F5.5
sS'energy'
p17
F0.5
sb.(i__main__
Data_mobile
p1
(dp2
S'vel_y'
p3
I0
sS'vel_x'
p4
I0
sS'pos_x'
p5
I-9579
sS'pos_y'
p6
I9779
sS'isAlive'
p7
I00
sS'geno'
p8
(lp9
F-0.3743539221624963
aF0.17471532839990322
aF1.5359575694255216
aF3.8011596416360964
aF-0.32845703992404462
asS'accel_x'
p10
F0
sS'accel_y'
p11
F0
sS'maxAccel'
p12
I2
sS'maxVel'
p13
F0.80000000000000004
sS'age'
p14
I0
sS'gener'
p15
S'm'
sS'lastScale'
p16
F5.5
sS'energy'
p17
F0.5
sb.(i__main__
Data_mobile
p1
(dp2
S'vel_y'
p3
I0
sS'vel_x'
p4
I0
sS'pos_x'
p5
I-9579
sS'pos_y'
p6
I9779
sS'isAlive'
p7
I00
sS'geno'
p8
(lp9
F-0.49994309713069829
aF0.03619952230027923
aF1.9474174078145339
aF3.8011596416360964
aF-0.57757366022986878
asS'accel_x'
p10
F0
sS'accel_y'
p11
F0
sS'maxAccel'
p12
I2
sS'maxVel'
p13
F0.80000000000000004
sS'age'
p14
I0
sS'gener'
p15
S'm'
sS'lastScale'
p16
F5.5
sS'energy'
p17
F0.5
sb.(i__main__
Data_mobile
p1
(dp2
S'vel_y'
p3
I0
sS'vel_x'
p4
I0
sS'pos_x'
p5
I-9579
sS'pos_y'
p6
I9779
sS'isAlive'
p7
I00
sS'geno'
p8
(lp9
F0.029507134398061075
aF-0.16470409836127786
aF2.8144962905058759
aF3.7495542639293498
aF-0.32845703992404462
asS'accel_x'
p10
F0
sS'accel_y'
p11
F0
sS'maxAccel'
p12
I2
sS'maxVel'
p13
F0.80000000000000004
sS'age'
p14
I0
sS'gener'
p15
S'm'
sS'lastScale'
p16
F5.5
sS'energy'
p17
F0.5
sb.(i__main__
Data_mobile
p1
(dp2
S'vel_y'
p3
I0
sS'vel_x'
p4
I0
sS'pos_x'
p5
I-9579
sS'pos_y'
p6
I9779
sS'isAlive'
p7
I00
sS'geno'
p8
(lp9
F-0.22840302324945361
aF-0.16470409836127786
aF2.8144962905058759
aF3.7495542639293498
aF-0.32845703992404462
asS'accel_x'
p10
F0
sS'accel_y'
p11
F0
sS'maxAccel'
p12
I2
sS'maxVel'
p13
F0.80000000000000004
sS'age'
p14
I0
sS'gener'
p15
S'm'
sS'lastScale'
p16
F5.5
sS'energy'
p17
F0.5
sb.(i__main__
Data_mobile
p1
(dp2
S'vel_y'
p3
I0
sS'vel_x'
p4
I0
sS'pos_x'
p5
I-9579
sS'pos_y'
p6
I9779
sS'isAlive'
p7
I00
sS'geno'
p8
(lp9
F-0.49994309713069829
aF0.03619952230027923
aF1.9740429135089137
aF3.8011596416360964
aF-0.26586548072852934
asS'accel_x'
p10
F0
sS'accel_y'
p11
F0
sS'maxAccel'
p12
I2
sS'maxVel'
p13
F0.80000000000000004
sS'age'
p14
I0
sS'gener'
p15
S'm'
sS'lastScale'
p16
F5.5
sS'energy'
p17
F0.5
sb.(i__main__
Data_mobile
p1
(dp2
S'vel_y'
p3
I0
sS'vel_x'
p4
I0
sS'pos_x'
p5
I-9579
sS'pos_y'
p6
I9779
sS'isAlive'
p7
I00
sS'geno'
p8
(lp9
F0.016581831971753891
aF0.17471532839990322
aF2.8144962905058759
aF4.6846867127500902
aF-0.26586548072852934
asS'accel_x'
p10
F0
sS'accel_y'
p11
F0
sS'maxAccel'
p12
I2
sS'maxVel'
p13
F0.80000000000000004
sS'age'
p14
I0
sS'gener'
p15
S'm'
sS'lastScale'
p16
F5.5
sS'energy'
p17
F0.5
sb.(i__main__
Data_mobile
p1
(dp2
S'vel_y'
p3
I0
sS'vel_x'
p4
I0
sS'pos_x'
p5
I-9579
sS'pos_y'
p6
I9779
sS'isAlive'
p7
I00
sS'geno'
p8
(lp9
F0.029507134398061075
aF0.30576287943871006
aF1.9474174078145339
aF3.8011596416360964
aF-0.32845703992404462
asS'accel_x'
p10
F0
sS'accel_y'
p11
F0
sS'maxAccel'
p12
I2
sS'maxVel'
p13
F0.80000000000000004
sS'age'
p14
I0
sS'gener'
p15
S'm'
sS'lastScale'
p16
F5.5
sS'energy'
p17
F0.5
sb.(i__main__
Data_mobile
p1
(dp2
S'vel_y'
p3
I0
sS'vel_x'
p4
I0
sS'pos_x'
p5
I-9579
sS'pos_y'
p6
I9779
sS'isAlive'
p7
I00
sS'geno'
p8
(lp9
F-0.3743539221624963
aF0.30576287943871006
aF2.8144962905058759
aF4.7030477016505907
aF-0.4256543397315381
asS'accel_x'
p10
F0
sS'accel_y'
p11
F0
sS'maxAccel'
p12
I2
sS'maxVel'
p13
F0.80000000000000004
sS'age'
p14
I0
sS'gener'
p15
S'm'
sS'lastScale'
p16
F5.5
sS'energy'
p17
F0.5
sb.(i__main__
Data_mobile
p1
(dp2
S'vel_y'
p3
I0
sS'vel_x'
p4
I0
sS'pos_x'
p5
I-9579
sS'pos_y'
p6
I9779
sS'isAlive'
p7
I00
sS'geno'
p8
(lp9
F0.029507134398061075
aF0.30576287943871006
aF2.8144962905058759
aF4.3903436065708403
aF-0.57757366022986878
asS'accel_x'
p10
F0
sS'accel_y'
p11
F0
sS'maxAccel'
p12
I2
sS'maxVel'
p13
F0.80000000000000004
sS'age'
p14
I0
sS'gener'
p15
S'm'
sS'lastScale'
p16
F5.5
sS'energy'
p17
F0.5
sb.(i__main__
Data_mobile
p1
(dp2
S'vel_y'
p3
I0
sS'vel_x'
p4
I0
sS'pos_x'
p5
I-9579
sS'pos_y'
p6
I9779
sS'isAlive'
p7
I00
sS'geno'
p8
(lp9
F0.029507134398061075
aF0.0074856682966406574
aF2.8144962905058759
aF4.3903436065708403
aF-0.57757366022986878
asS'accel_x'
p10
F0
sS'accel_y'
p11
F0
sS'maxAccel'
p12
I2
sS'maxVel'
p13
F0.80000000000000004
sS'age'
p14
I0
sS'gener'
p15
S'm'
sS'lastScale'
p16
F5.5
sS'energy'
p17
F0.5
sb.(i__main__
Data_mobile
p1
(dp2
S'vel_y'
p3
I0
sS'vel_x'
p4
I0
sS'pos_x'
p5
I-9579
sS'pos_y'
p6
I9779
sS'isAlive'
p7
I00
sS'geno'
p8
(lp9
F-0.59527734248695863
aF0.30576287943871006
aF1.9474174078145339
aF4.6846867127500902
aF-0.26586548072852934
asS'accel_x'
p10
F0
sS'accel_y'
p11
F0
sS'maxAccel'
p12
I2
sS'maxVel'
p13
F0.80000000000000004
sS'age'
p14
I0
sS'gener'
p15
S'm'
sS'lastScale'
p16
F5.5
sS'energy'
p17
F0.5
sb.(i__main__
Data_mobile
p1
(dp2
S'vel_y'
p3
I0
sS'vel_x'
p4
I0
sS'pos_x'
p5
I-9579
sS'pos_y'
p6
I9779
sS'isAlive'
p7
I00
sS'geno'
p8
(lp9
F0.029507134398061075
aF0.30576287943871006
aF2.8144962905058759
aF4.6846867127500902
aF-0.26586548072852934
asS'accel_x'
p10
F0
sS'accel_y'
p11
F0
sS'maxAccel'
p12
I2
sS'maxVel'
p13
F0.80000000000000004
sS'age'
p14
I0
sS'gener'
p15
S'm'
sS'lastScale'
p16
F5.5
sS'energy'
p17
F0.5
sb.(i__main__
Data_mobile
p1
(dp2
S'vel_y'
p3
I0
sS'vel_x'
p4
I0
sS'pos_x'
p5
I-9579
sS'pos_y'
p6
I9779
sS'isAlive'
p7
I00
sS'geno'
p8
(lp9
F-0.49994309713069829
aF0.03619952230027923
aF1.9474174078145339
aF3.8011596416360964
aF-0.26586548072852934
asS'accel_x'
p10
F0
sS'accel_y'
p11
F0
sS'maxAccel'
p12
I2
sS'maxVel'
p13
F0.80000000000000004
sS'age'
p14
I0
sS'gener'
p15
S'm'
sS'lastScale'
p16
F5.5
sS'energy'
p17
F0.5
sb.(i__main__
Data_mobile
p1
(dp2
S'vel_y'
p3
I0
sS'vel_x'
p4
I0
sS'pos_x'
p5
I-9579
sS'pos_y'
p6
I9779
sS'isAlive'
p7
I00
sS'geno'
p8
(lp9
F-0.3743539221624963
aF0.30576287943871006
aF2.8144962905058759
aF4.3903436065708403
aF-0.57757366022986878
asS'accel_x'
p10
F0
sS'accel_y'
p11
F0
sS'maxAccel'
p12
I2
sS'maxVel'
p13
F0.80000000000000004
sS'age'
p14
I0
sS'gener'
p15
S'm'
sS'lastScale'
p16
F5.5
sS'energy'
p17
F0.5
sb.(i__main__
Data_mobile
p1
(dp2
S'vel_y'
p3
I0
sS'vel_x'
p4
I0
sS'pos_x'
p5
I-9579
sS'pos_y'
p6
I9779
sS'isAlive'
p7
I00
sS'geno'
p8
(lp9
F-0.5443742373087388
aF0.30576287943871006
aF1.9474174078145339
aF3.8011596416360964
aF-0.26586548072852934
asS'accel_x'
p10
F0
sS'accel_y'
p11
F0
sS'maxAccel'
p12
I2
sS'maxVel'
p13
F0.80000000000000004
sS'age'
p14
I0
sS'gener'
p15
S'm'
sS'lastScale'
p16
F5.5
sS'energy'
p17
F0.5
sb.(i__main__
Data_mobile
p1
(dp2
S'vel_y'
p3
I0
sS'vel_x'
p4
I0
sS'pos_x'
p5
I-9579
sS'pos_y'
p6
I9779
sS'isAlive'
p7
I00
sS'geno'
p8
(lp9
F-0.3743539221624963
aF0.17471532839990322
aF1.9474174078145339
aF3.8011596416360964
aF-0.32845703992404462
asS'accel_x'
p10
F0
sS'accel_y'
p11
F0
sS'maxAccel'
p12
I2
sS'maxVel'
p13
F0.80000000000000004
sS'age'
p14
I0
sS'gener'
p15
S'm'
sS'lastScale'
p16
F5.5
sS'energy'
p17
F0.5
sb.(i__main__
Data_mobile
p1
(dp2
S'vel_y'
p3
I0
sS'vel_x'
p4
I0
sS'pos_x'
p5
I-9579
sS'pos_y'
p6
I9779
sS'isAlive'
p7
I00
sS'geno'
p8
(lp9
F0.029507134398061075
aF-0.16470409836127786
aF2.8144962905058759
aF3.7495542639293498
aF-0.32845703992404462
asS'accel_x'
p10
F0
sS'accel_y'
p11
F0
sS'maxAccel'
p12
I2
sS'maxVel'
p13
F0.80000000000000004
sS'age'
p14
I0
sS'gener'
p15
S'm'
sS'lastScale'
p16
F5.5
sS'energy'
p17
F0.5
sb.(i__main__
Data_mobile
p1
(dp2
S'vel_y'
p3
I0
sS'vel_x'
p4
I0
sS'pos_x'
p5
I-9579
sS'pos_y'
p6
I9779
sS'isAlive'
p7
I00
sS'geno'
p8
(lp9
F-0.5443742373087388
aF0.3240244565961764
aF3.2109018887063554
aF3.8011596416360964
aF-0.26586548072852934
asS'accel_x'
p10
F0
sS'accel_y'
p11
F0
sS'maxAccel'
p12
I2
sS'maxVel'
p13
F0.80000000000000004
sS'age'
p14
I0
sS'gener'
p15
S'm'
sS'lastScale'
p16
F5.5
sS'energy'
p17
F0.5
sb.(i__main__
Data_mobile
p1
(dp2
S'vel_y'
p3
I0
sS'vel_x'
p4
I0
sS'pos_x'
p5
I-9579
sS'pos_y'
p6
I9779
sS'isAlive'
p7
I00
sS'geno'
p8
(lp9
F-0.3743539221624963
aF0.17471532839990322
aF2.8144962905058759
aF4.6846867127500902
aF-0.26586548072852934
asS'accel_x'
p10
F0
sS'accel_y'
p11
F0
sS'maxAccel'
p12
I2
sS'maxVel'
p13
F0.80000000000000004
sS'age'
p14
I0
sS'gener'
p15
S'm'
sS'lastScale'
p16
F5.5
sS'energy'
p17
F0.5
sb.(i__main__
Data_mobile
p1
(dp2
S'vel_y'
p3
I0
sS'vel_x'
p4
I0
sS'pos_x'
p5
I-9579
sS'pos_y'
p6
I9779
sS'isAlive'
p7
I00
sS'geno'
p8
(lp9
F-0.49994309713069829
aF-0.34571801774861266
aF1.9474174078145339
aF4.6846867127500902
aF0.22536265367857922
asS'accel_x'
p10
F0
sS'accel_y'
p11
F0
sS'maxAccel'
p12
I2
sS'maxVel'
p13
F0.80000000000000004
sS'age'
p14
I0
sS'gener'
p15
S'm'
sS'lastScale'
p16
F5.5
sS'energy'
p17
F0.5
sb.