(i__main__
Data_mobile
p1
(dp2
S'vel_y'
p3
F0.74709240550096423
sS'vel_x'
p4
F0.28609952401705047
sS'pos_x'
p5
F155.31612350886013
sS'pos_y'
p6
F66.846081386040893
sS'isAlive'
p7
I01
sS'geno'
p8
(lp9
S'alignment'
p10
aS'target'
p11
a(lp12
S'separation'
p13
aaS'target'
p14
asS'accel_x'
p15
F1.2917306821625232
sS'accel_y'
p16
F0.3038692700416874
sS'maxAccel'
p17
I2
sS'maxVel'
p18
F0.80000000000000004
sS'age'
p19
I250
sS'gener'
p20
S'm'
sS'lastScale'
p21
F15.300000405049802
sS'energy'
p22
F0.98000004050498013
sb.(i__main__
Data_mobile
p1
(dp2
S'vel_y'
p3
F0.74709283564813211
sS'vel_x'
p4
F0.28609840077014259
sS'pos_x'
p5
F155.31612082627061
sS'pos_y'
p6
F66.846084564241991
sS'isAlive'
p7
I01
sS'geno'
p8
(lp9
S'cohesion'
p10
a(lp11
S'separation'
p12
aS'separation'
p13
a(lp14
S'alignment'
p15
aS'target'
p16
a(lp17
S'separation'
p18
aaS'target'
p19
aaa(lp20
S'separation'
p21
aaS'target'
p22
asS'accel_x'
p23
F1.2917333647520479
sS'accel_y'
p24
F0.30386609184058955
sS'maxAccel'
p25
I2
sS'maxVel'
p26
F0.80000000000000004
sS'age'
p27
I250
sS'gener'
p28
S'm'
sS'lastScale'
p29
F15.300000405049802
sS'energy'
p30
F0.98000004050498013
sb.(i__main__
Data_mobile
p1
(dp2
S'vel_y'
p3
F0.7470935713895942
sS'vel_x'
p4
F0.28609647951056916
sS'pos_x'
p5
F155.3161162363138
sS'pos_y'
p6
F66.846090004242654
sS'isAlive'
p7
I01
sS'geno'
p8
(lp9
S'alignment'
p10
aS'alignment'
p11
a(lp12
S'target'
p13
aS'POINT.+'
p14
a(lp15
(lp16
S'alignment'
p17
aS'target'
p18
a(lp19
S'alignment'
p20
aS'separation'
p21
aS'target'
p22
aaaS'alignment'
p23
aS'target'
p24
aaasS'accel_x'
p25
F1.2917379547088501
sS'accel_y'
p26
F0.30386065183992628
sS'maxAccel'
p27
I2
sS'maxVel'
p28
F0.80000000000000004
sS'age'
p29
I200
sS'gener'
p30
S'm'
sS'lastScale'
p31
F15.30002611903191
sS'energy'
p32
F0.98000261190319093
sb.(i__main__
Data_mobile
p1
(dp2
S'vel_y'
p3
F0.74709293940984867
sS'vel_x'
p4
F0.28609812981554444
sS'pos_x'
p5
F155.31612017923678
sS'pos_y'
p6
F66.846085330727874
sS'isAlive'
p7
I01
sS'geno'
p8
(lp9
S'target'
p10
aS'alignment'
p11
a(lp12
S'mostEnergizedNeighbor'
p13
aS'alignment'
p14
aS'target'
p15
aasS'accel_x'
p16
F1.2917340117858771
sS'accel_y'
p17
F0.30386532535470678
sS'maxAccel'
p18
I2
sS'maxVel'
p19
F0.80000000000000004
sS'age'
p20
I200
sS'gener'
p21
S'm'
sS'lastScale'
p22
F15.30002611903191
sS'energy'
p23
F0.98000261190319093
sb.(i__main__
Data_mobile
p1
(dp2
S'vel_y'
p3
F0.74707629251299401
sS'vel_x'
p4
F0.28614159635578934
sS'pos_x'
p5
F155.31622368767262
sS'pos_y'
p6
F66.845963112394145
sS'isAlive'
p7
I01
sS'geno'
p8
(lp9
S'cohesion'
p10
a(lp11
S'separation'
p12
aS'separation'
p13
aS'alignment'
p14
aa(lp15
S'separation'
p16
aaS'target'
p17
asS'accel_x'
p18
F1.291630503350035
sS'accel_y'
p19
F0.30398754368843584
sS'maxAccel'
p20
I2
sS'maxVel'
p21
F0.80000000000000004
sS'age'
p22
I150
sS'gener'
p23
S'm'
sS'lastScale'
p24
F15.301657194409474
sS'energy'
p25
F0.98016571944094744
sb.(i__main__
Data_mobile
p1
(dp2
S'vel_y'
p3
F-0.1995320856964109
sS'vel_x'
p4
F0.72572040633028934
sS'pos_x'
p5
F156.1274808328744
sS'pos_y'
p6
F65.81601661888989
sS'isAlive'
p7
I01
sS'geno'
p8
(lp9
(lp10
S'separation'
p11
aaS'target'
p12
a(lp13
S'separation'
p14
aaS'POINT.+'
p15
asS'accel_x'
p16
F0.0024228693465652151
sS'accel_y'
p17
F0.0067279915387328248
sS'maxAccel'
p18
I2
sS'maxVel'
p19
F0.80000000000000004
sS'age'
p20
I150
sS'gener'
p21
S'm'
sS'lastScale'
p22
F15.301657194409474
sS'energy'
p23
F0.98016571944094744
sb.(i__main__
Data_mobile
p1
(dp2
S'vel_y'
p3
F-0.47627141966359005
sS'vel_x'
p4
F-0.64277953826458145
sS'pos_x'
p5
F-15.535820222086432
sS'pos_y'
p6
F81.44724944937407
sS'isAlive'
p7
I01
sS'geno'
p8
(lp9
S'randV'
p10
aS'target'
p11
aS'alignment'
p12
aS'target'
p13
asS'accel_x'
p14
F-1.6407722076415778
sS'accel_y'
p15
F-1.1436199380174268
sS'maxAccel'
p16
I2
sS'maxVel'
p17
F0.80000000000000004
sS'age'
p18
I200
sS'gener'
p19
S'm'
sS'lastScale'
p20
F13.500390949199726
sS'energy'
p21
F0.8000390949199726
sb.(i__main__
Data_mobile
p1
(dp2
S'vel_y'
p3
F-0.78737377088594018
sS'vel_x'
p4
F-0.14157169533792782
sS'pos_x'
p5
F-108.83712879255425
sS'pos_y'
p6
F19.372896611234665
sS'isAlive'
p7
I01
sS'geno'
p8
(lp9
S'alignment'
p10
aS'target'
p11
a(lp12
S'alignment'
p13
aS'alignment'
p14
a(lp15
S'alignment'
p16
aS'alignment'
p17
a(lp18
S'alignment'
p19
aS'alignment'
p20
aS'target'
p21
aaaasS'accel_x'
p22
F-0.27718410051005093
sS'accel_y'
p23
F-1.9806991125419413
sS'maxAccel'
p24
I2
sS'maxVel'
p25
F0.80000000000000004
sS'age'
p26
I200
sS'gener'
p27
S'm'
sS'lastScale'
p28
F10.704799862352827
sS'energy'
p29
F0.52047998623528258
sb.(i__main__
Data_mobile
p1
(dp2
S'vel_y'
p3
F-0.78737377088456495
sS'vel_x'
p4
F-0.14157169534557651
sS'pos_x'
p5
F-108.83712879224734
sS'pos_y'
p6
F19.372896612199554
sS'isAlive'
p7
I01
sS'geno'
p8
(lp9
S'alignment'
p10
aS'target'
p11
aS'target'
p12
aS'target'
p13
asS'accel_x'
p14
F-0.2771841005347544
sS'accel_y'
p15
F-1.9806991125384843
sS'maxAccel'
p16
I2
sS'maxVel'
p17
F0.80000000000000004
sS'age'
p18
I350
sS'gener'
p19
S'm'
sS'lastScale'
p20
F10.700000017927708
sS'energy'
p21
F0.52000000179277084
sb.(i__main__
Data_mobile
p1
(dp2
S'vel_y'
p3
F0.74763753017669798
sS'vel_x'
p4
F0.28467195764824987
sS'pos_x'
p5
F155.31117413916729
sS'pos_y'
p6
F66.85105331521433
sS'isAlive'
p7
I01
sS'geno'
p8
(lp9
S'target'
p10
aS'alignment'
p11
a(lp12
S'alignment'
p13
aS'alignment'
p14
aS'target'
p15
aasS'accel_x'
p16
F1.2966800518553612
sS'accel_y'
p17
F0.29889734086825115
sS'maxAccel'
p18
I2
sS'maxVel'
p19
F0.80000000000000004
sS'age'
p20
I100
sS'gener'
p21
S'm'
sS'lastScale'
p22
F15.352082128537274
sS'energy'
p23
F0.98520821285372739
sb.(i__main__
Data_mobile
p1
(dp2
S'vel_y'
p3
F-0.55158298291673613
sS'vel_x'
p4
F-0.5794447453870607
sS'pos_x'
p5
F-66.755918925409048
sS'pos_y'
p6
F74.503691258270806
sS'isAlive'
p7
I01
sS'geno'
p8
(lp9
S'alignment'
p10
aS'target'
p11
aS'POINT.*'
p12
a(lp13
S'alignment'
p14
aS'target'
p15
aS'target'
p16
aasS'accel_x'
p17
F-0.33922159083981285
sS'accel_y'
p18
F-0.20197354066637274
sS'maxAccel'
p19
I2
sS'maxVel'
p20
F0.80000000000000004
sS'age'
p21
I100
sS'gener'
p22
S'm'
sS'lastScale'
p23
F13.999750089905779
sS'energy'
p24
F0.84997500899057798
sb.(i__main__
Data_mobile
p1
(dp2
S'vel_y'
p3
F-0.47627702146538475
sS'vel_x'
p4
F-0.64277538753756081
sS'pos_x'
p5
F-15.536825482018962
sS'pos_y'
p6
F81.446741600530032
sS'isAlive'
p7
I01
sS'geno'
p8
(lp9
S'alignment'
p10
aS'target'
p11
a(lp12
S'separation'
p13
aaS'target'
p14
asS'accel_x'
p15
F-1.6407639521506314
sS'accel_y'
p16
F-1.1436317822284583
sS'maxAccel'
p17
I2
sS'maxVel'
p18
F0.80000000000000004
sS'age'
p19
I100
sS'gener'
p20
S'm'
sS'lastScale'
p21
F13.982547397160438
sS'energy'
p22
F0.84825473971604393
sb.(i__main__
Data_mobile
p1
(dp2
S'vel_y'
p3
F0.77997863360616826
sS'vel_x'
p4
F0.17785761473115158
sS'pos_x'
p5
F-96.916560225761657
sS'pos_y'
p6
F54.974971131073481
sS'isAlive'
p7
I01
sS'geno'
p8
(lp9
S'target'
p10
aS'target'
p11
a(lp12
S'alignment'
p13
aS'alignment'
p14
aS'target'
p15
aasS'accel_x'
p16
F0.51331699623100946
sS'accel_y'
p17
F1.9330043097159342
sS'maxAccel'
p18
I2
sS'maxVel'
p19
F0.80000000000000004
sS'age'
p20
I100
sS'gener'
p21
S'm'
sS'lastScale'
p22
F13.982547397160438
sS'energy'
p23
F0.84825473971604393
sb.(i__main__
Data_mobile
p1
(dp2
S'vel_y'
p3
F0.71178540946952507
sS'vel_x'
p4
F0.36518698069112565
sS'pos_x'
p5
F10.533244588006401
sS'pos_y'
p6
F23.28831094607197
sS'isAlive'
p7
I01
sS'geno'
p8
(lp9
S'alignment'
p10
aS'target'
p11
a(lp12
S'alignment'
p13
a(lp14
S'alignment'
p15
aS'alignment'
p16
aS'target'
p17
aa(lp18
S'alignment'
p19
aS'alignment'
p20
a(lp21
S'alignment'
p22
aS'alignment'
p23
aS'target'
p24
aaaasS'accel_x'
p25
F0
sS'accel_y'
p26
F0
sS'maxAccel'
p27
I2
sS'maxVel'
p28
F0.80000000000000004
sS'age'
p29
I100
sS'gener'
p30
S'm'
sS'lastScale'
p31
F10.11769312817969
sS'energy'
p32
F0.4617693128179689
sb.(i__main__
Data_mobile
p1
(dp2
S'vel_y'
p3
F-0.69886897715937024
sS'vel_x'
p4
F0.38933552723096782
sS'pos_x'
p5
F22.198013828572279
sS'pos_y'
p6
F-65.696940246556522
sS'isAlive'
p7
I01
sS'geno'
p8
(lp9
S'alignment'
p10
aS'target'
p11
aS'target'
p12
aS'target'
p13
asS'accel_x'
p14
F0
sS'accel_y'
p15
F0
sS'maxAccel'
p16
I2
sS'maxVel'
p17
F0.80000000000000004
sS'age'
p18
I100
sS'gener'
p19
S'm'
sS'lastScale'
p20
F9.710758719871567
sS'energy'
p21
F0.42107587198715685
sb.(i__main__
Data_mobile
p1
(dp2
S'vel_y'
p3
F-0.64397899150434335
sS'vel_x'
p4
F-0.47464835246848686
sS'pos_x'
p5
F-7.0962127801722925
sS'pos_y'
p6
F-74.94911426687915
sS'isAlive'
p7
I01
sS'geno'
p8
(lp9
S'alignment'
p10
aS'target'
p11
a(lp12
S'alignment'
p13
aS'alignment'
p14
aS'target'
p15
aasS'accel_x'
p16
F0
sS'accel_y'
p17
F0
sS'maxAccel'
p18
I2
sS'maxVel'
p19
F0.80000000000000004
sS'age'
p20
I250
sS'gener'
p21
S'm'
sS'lastScale'
p22
F6.7001776658147092
sS'energy'
p23
F0.12001776658147088
sb.(i__main__
Data_mobile
p1
(dp2
S'vel_y'
p3
F0.47074660110274807
sS'vel_x'
p4
F0.64683663899798549
sS'pos_x'
p5
F156.65731928807952
sS'pos_y'
p6
F65.839905317772164
sS'isAlive'
p7
I01
sS'geno'
p8
(lp9
S'cohesion'
p10
aS'randV'
p11
a(lp12
S'separation'
p13
aaS'target'
p14
asS'accel_x'
p15
F-0.04946509705686708
sS'accel_y'
p16
F1.3100453383104167
sS'maxAccel'
p17
I2
sS'maxVel'
p18
F0.80000000000000004
sS'age'
p19
I50
sS'gener'
p20
S'm'
sS'lastScale'
p21
F15.398593637295674
sS'energy'
p22
F0.98985936372956751
sb.(i__main__
Data_mobile
p1
(dp2
S'vel_y'
p3
F-0.046548865308114376
sS'vel_x'
p4
F0.18560028784540358
sS'pos_x'
p5
F-47.037128621891128
sS'pos_y'
p6
F-53.194544692079056
sS'isAlive'
p7
I01
sS'geno'
p8
(lp9
S'alignment'
p10
aS'target'
p11
a(lp12
S'alignment'
p13
aS'alignment'
p14
a(lp15
S'alignment'
p16
aS'alignment'
p17
a(lp18
S'alignment'
p19
aS'alignment'
p20
aS'target'
p21
aaaasS'accel_x'
p22
F-1.1271743118723094
sS'accel_y'
p23
F0.2070360472304742
sS'maxAccel'
p24
I2
sS'maxVel'
p25
F0.80000000000000004
sS'age'
p26
I50
sS'gener'
p27
S'm'
sS'lastScale'
p28
F15.398593637295674
sS'energy'
p29
F0.98985936372956751
sb.(i__main__
Data_mobile
p1
(dp2
S'vel_y'
p3
F0.77780567295877656
sS'vel_x'
p4
F-0.18713186557383804
sS'pos_x'
p5
F-77.183868180210823
sS'pos_y'
p6
F-7.7460011643420668
sS'isAlive'
p7
I01
sS'geno'
p8
(lp9
S'target'
p10
a(lp11
S'alignment'
p12
aS'alignment'
p13
a(lp14
S'alignment'
p15
aS'alignment'
p16
aS'target'
p17
aaa(lp18
S'target'
p19
aS'separation'
p20
aS'target'
p21
aasS'accel_x'
p22
F-1.7608319800942382
sS'accel_y'
p23
F0.21801721225572379
sS'maxAccel'
p24
I2
sS'maxVel'
p25
F0.80000000000000004
sS'age'
p26
I50
sS'gener'
p27
S'm'
sS'lastScale'
p28
F15.398593637295674
sS'energy'
p29
F0.98985936372956751
sb.(i__main__
Data_mobile
p1
(dp2
S'vel_y'
p3
F0.77779991325498354
sS'vel_x'
p4
F-0.18715580391892775
sS'pos_x'
p5
F-77.183876973578137
sS'pos_y'
p6
F-7.745958461253645
sS'isAlive'
p7
I01
sS'geno'
p8
(lp9
(lp10
S'target'
p11
aS'alignment'
p12
a(lp13
S'alignment'
p14
aS'alignment'
p15
aS'target'
p16
aaaS'alignment'
p17
aS'target'
p18
asS'accel_x'
p19
F-1.760823186726924
sS'accel_y'
p20
F0.21797450916730199
sS'maxAccel'
p21
I2
sS'maxVel'
p22
F0.80000000000000004
sS'age'
p23
I50
sS'gener'
p24
S'm'
sS'lastScale'
p25
F15.398593637295674
sS'energy'
p26
F0.98985936372956751
sb.(i__main__
Data_mobile
p1
(dp2
S'vel_y'
p3
F0.77778860011402629
sS'vel_x'
p4
F-0.18720281390156307
sS'pos_x'
p5
F-77.183894248108984
sS'pos_y'
p6
F-7.7458745945504459
sS'isAlive'
p7
I01
sS'geno'
p8
(lp9
S'alignment'
p10
aS'alignment'
p11
aS'target'
p12
aS'target'
p13
asS'accel_x'
p14
F-1.7608059121960764
sS'accel_y'
p15
F0.21789064246410295
sS'maxAccel'
p16
I2
sS'maxVel'
p17
F0.80000000000000004
sS'age'
p18
I50
sS'gener'
p19
S'm'
sS'lastScale'
p20
F15.398593637295674
sS'energy'
p21
F0.98985936372956751
sb.(i__main__
Data_mobile
p1
(dp2
S'vel_y'
p3
F0.30376045851827654
sS'vel_x'
p4
F0.24448432191559366
sS'pos_x'
p5
F-47.132030383676941
sS'pos_y'
p6
F-53.228323548919334
sS'isAlive'
p7
I01
sS'geno'
p8
(lp9
S'alignment'
p10
aS'target'
p11
a(lp12
S'alignment'
p13
aS'alignment'
p14
a(lp15
S'alignment'
p16
aS'alignment'
p17
a(lp18
S'alignment'
p19
aS'alignment'
p20
aS'target'
p21
aaaasS'accel_x'
p22
F-1.0322725500864962
sS'accel_y'
p23
F0.24081490407075279
sS'maxAccel'
p24
I2
sS'maxVel'
p25
F0.80000000000000004
sS'age'
p26
I50
sS'gener'
p27
S'm'
sS'lastScale'
p28
F15.398593637295674
sS'energy'
p29
F0.98985936372956751
sb.(i__main__
Data_mobile
p1
(dp2
S'vel_y'
p3
F0.77781168013404123
sS'vel_x'
p4
F-0.18710689524189128
sS'pos_x'
p5
F-77.183859009765456
sS'pos_y'
p6
F-7.7460457080631073
sS'isAlive'
p7
I01
sS'geno'
p8
(lp9
S'alignment'
p10
aS'target'
p11
aS'target'
p12
asS'accel_x'
p13
F-1.7608411505396049
sS'accel_y'
p14
F0.21806175597676436
sS'maxAccel'
p15
I2
sS'maxVel'
p16
F0.80000000000000004
sS'age'
p17
I50
sS'gener'
p18
S'm'
sS'lastScale'
p19
F15.398593637295674
sS'energy'
p20
F0.98985936372956751
sb.(i__main__
Data_mobile
p1
(dp2
S'vel_y'
p3
F-0.48552994027786794
sS'vel_x'
p4
F-0.63581497080028715
sS'pos_x'
p5
F-16.097876981760887
sS'pos_y'
p6
F81.418660794610588
sS'isAlive'
p7
I01
sS'geno'
p8
(lp9
S'alignment'
p10
aS'target'
p11
aS'target'
p12
aS'target'
p13
asS'accel_x'
p14
F-1.6247210024026091
sS'accel_y'
p15
F-1.166311135311612
sS'maxAccel'
p16
I2
sS'maxVel'
p17
F0.80000000000000004
sS'age'
p18
I50
sS'gener'
p19
S'm'
sS'lastScale'
p20
F14.383637611509753
sS'energy'
p21
F0.88836376115097537
sb.(i__main__
Data_mobile
p1
(dp2
S'vel_y'
p3
F-0.7873795421190164
sS'vel_x'
p4
F-0.14153959393911006
sS'pos_x'
p5
F-108.83983751260708
sS'pos_y'
p6
F19.361004457616314
sS'isAlive'
p7
I01
sS'geno'
p8
(lp9
S'alignment'
p10
aS'target'
p11
a(lp12
S'alignment'
p13
aS'alignment'
p14
a(lp15
S'alignment'
p16
aS'alignment'
p17
a(lp18
S'target'
p19
aS'alignment'
p20
aS'target'
p21
aaaasS'accel_x'
p22
F-0.27703384765173178
sS'accel_y'
p23
F-1.9807201335007623
sS'maxAccel'
p24
I2
sS'maxVel'
p25
F0.80000000000000004
sS'age'
p26
I50
sS'gener'
p27
S'm'
sS'lastScale'
p28
F12.083339881505225
sS'energy'
p29
F0.65833398815052246
sb.(i__main__
Data_mobile
p1
(dp2
S'vel_y'
p3
F-0.48598287283330993
sS'vel_x'
p4
F-0.63546884055214148
sS'pos_x'
p5
F-16.117278109264916
sS'pos_y'
p6
F81.423201628167647
sS'isAlive'
p7
I01
sS'geno'
p8
(lp9
S'target'
p10
aS'target'
p11
a(lp12
S'target'
p13
aS'alignment'
p14
aS'target'
p15
aasS'accel_x'
p16
F-1.6239039402350346
sS'accel_y'
p17
F-1.1674484968893184
sS'maxAccel'
p18
I2
sS'maxVel'
p19
F0.80000000000000004
sS'age'
p20
I50
sS'gener'
p21
S'm'
sS'lastScale'
p22
F11.482567602243996
sS'energy'
p23
F0.59825676022439966
sb.(i__main__
Data_mobile
p1
(dp2
S'vel_y'
p3
F-0.48747816785074449
sS'vel_x'
p4
F-0.63432250146820546
sS'pos_x'
p5
F-16.139588062403568
sS'pos_y'
p6
F81.470257640145931
sS'isAlive'
p7
I01
sS'geno'
p8
(lp9
S'target'
p10
a(lp11
S'target'
p12
aS'alignment'
p13
a(lp14
S'target'
p15
aS'alignment'
p16
aS'target'
p17
aaa(lp18
S'target'
p19
aS'alignment'
p20
aS'target'
p21
aasS'accel_x'
p22
F-1.6211091213032014
sS'accel_y'
p23
F-1.1713262640390003
sS'maxAccel'
p24
I2
sS'maxVel'
p25
F0.80000000000000004
sS'age'
p26
I50
sS'gener'
p27
S'm'
sS'lastScale'
p28
F9.4825676022439964
sS'energy'
p29
F0.3982567602243996
sb.(i__main__
Data_mobile
p1
(dp2
S'vel_y'
p3
F-0.48747632827461046
sS'vel_x'
p4
F-0.63432391518206555
sS'pos_x'
p5
F-16.13951617637024
sS'pos_y'
p6
F81.470234520393731
sS'isAlive'
p7
I01
sS'geno'
p8
(lp9
S'target'
p10
a(lp11
S'target'
p12
aS'alignment'
p13
aS'target'
p14
aa(lp15
S'target'
p16
aS'alignment'
p17
aS'target'
p18
aasS'accel_x'
p19
F-1.6211124459137711
sS'accel_y'
p20
F-1.1713216627824616
sS'maxAccel'
p21
I2
sS'maxVel'
p22
F0.80000000000000004
sS'age'
p23
I50
sS'gener'
p24
S'm'
sS'lastScale'
p25
F8.4825676022439964
sS'energy'
p26
F0.29825676022439962
sb.(i__main__
Data_mobile
p1
(dp2
S'vel_y'
p3
F0.28581143207155629
sS'vel_x'
p4
F0.74720266681617664
sS'pos_x'
p5
F154.08382342224476
sS'pos_y'
p6
F65.843679167635813
sS'isAlive'
p7
I01
sS'geno'
p8
(lp9
S'target'
p10
aS'alignment'
p11
aS'target'
p12
asS'accel_x'
p13
F1.7762232141758443
sS'accel_y'
p14
F0.91925572797934374
sS'maxAccel'
p15
I2
sS'maxVel'
p16
F0.80000000000000004
sS'age'
p17
I50
sS'gener'
p18
S'm'
sS'lastScale'
p19
F8.4825676022439946
sS'energy'
p20
F0.29825676022439951
sb.(i__main__
Data_mobile
p1
(dp2
S'vel_y'
p3
F-0.53852532510701989
sS'vel_x'
p4
F-0.12519007188635944
sS'pos_x'
p5
F5.9953784160177523
sS'pos_y'
p6
F-69.215294670691847
sS'isAlive'
p7
I01
sS'geno'
p8
(lp9
S'randV'
p10
aS'alignment'
p11
aS'alignment'
p12
aS'target'
p13
asS'accel_x'
p14
F0
sS'accel_y'
p15
F0
sS'maxAccel'
p16
I2
sS'maxVel'
p17
F0.80000000000000004
sS'age'
p18
I50
sS'gener'
p19
S'm'
sS'lastScale'
p20
F7.4825676022439964
sS'energy'
p21
F0.19825676022439959
sb.(i__main__
Data_mobile
p1
(dp2
S'vel_y'
p3
F0.33776355444984391
sS'vel_x'
p4
F-0.72520051109014494
sS'pos_x'
p5
F-105.30144631174841
sS'pos_y'
p6
F28.220221479910961
sS'isAlive'
p7
I01
sS'geno'
p8
(lp9
S'alignment'
p10
aS'target'
p11
aS'target'
p12
aS'alignment'
p13
asS'accel_x'
p14
F0
sS'accel_y'
p15
F0
sS'maxAccel'
p16
I2
sS'maxVel'
p17
F0.80000000000000004
sS'age'
p18
I50
sS'gener'
p19
S'm'
sS'lastScale'
p20
F6.4825676022439982
sS'energy'
p21
F0.09825676022439972
sb.(i__main__
Data_mobile
p1
(dp2
S'vel_y'
p3
F-0.056154944200612969
sS'vel_x'
p4
F0.64552628548664859
sS'pos_x'
p5
F48.796728605262636
sS'pos_y'
p6
F61.217696254287965
sS'isAlive'
p7
I01
sS'geno'
p8
(lp9
(lp10
S'separation'
p11
aaS'alignment'
p12
a(lp13
S'separation'
p14
aaS'target'
p15
asS'accel_x'
p16
F0
sS'accel_y'
p17
F0
sS'maxAccel'
p18
I2
sS'maxVel'
p19
F0.80000000000000004
sS'age'
p20
I0
sS'gener'
p21
S'm'
sS'lastScale'
p22
F5.5
sS'energy'
p23
F0.5
sb.(i__main__
Data_mobile
p1
(dp2
S'vel_y'
p3
F-0.28422221608711079
sS'vel_x'
p4
F-0.49696017132644704
sS'pos_x'
p5
F125.65956115958407
sS'pos_y'
p6
F69.380562167356842
sS'isAlive'
p7
I01
sS'geno'
p8
(lp9
S'target'
p10
aS'alignment'
p11
a(lp12
S'mostEnergizedNeighbor'
p13
aS'target'
p14
aS'target'
p15
aasS'accel_x'
p16
F0
sS'accel_y'
p17
F0
sS'maxAccel'
p18
I2
sS'maxVel'
p19
F0.80000000000000004
sS'age'
p20
I0
sS'gener'
p21
S'm'
sS'lastScale'
p22
F5.5
sS'energy'
p23
F0.5
sb.(i__main__
Data_mobile
p1
(dp2
S'vel_y'
p3
F0.32508753027098258
sS'vel_x'
p4
F0.0048397567809039532
sS'pos_x'
p5
F-65.09553906389452
sS'pos_y'
p6
F74.44643715299766
sS'isAlive'
p7
I01
sS'geno'
p8
(lp9
S'cohesion'
p10
a(lp11
S'separation'
p12
aS'separation'
p13
a(lp14
S'alignment'
p15
aS'target'
p16
a(lp17
S'separation'
p18
aaS'target'
p19
aaa(lp20
S'separation'
p21
aaS'target'
p22
asS'accel_x'
p23
F0
sS'accel_y'
p24
F0
sS'maxAccel'
p25
I2
sS'maxVel'
p26
F0.80000000000000004
sS'age'
p27
I0
sS'gener'
p28
S'm'
sS'lastScale'
p29
F5.5
sS'energy'
p30
F0.5
sb.(i__main__
Data_mobile
p1
(dp2
S'vel_y'
p3
F0.70568497781012074
sS'vel_x'
p4
F0.25465783933672254
sS'pos_x'
p5
F147.12812129928804
sS'pos_y'
p6
F67.545839253150959
sS'isAlive'
p7
I01
sS'geno'
p8
(lp9
S'randV'
p10
aS'target'
p11
aS'alignment'
p12
aS'target'
p13
asS'accel_x'
p14
F0
sS'accel_y'
p15
F0
sS'maxAccel'
p16
I2
sS'maxVel'
p17
F0.80000000000000004
sS'age'
p18
I0
sS'gener'
p19
S'm'
sS'lastScale'
p20
F5.5
sS'energy'
p21
F0.5
sb.(i__main__
Data_mobile
p1
(dp2
S'vel_y'
p3
F0.64417339227291326
sS'vel_x'
p4
F0.25381659829756631
sS'pos_x'
p5
F-73.02329011753227
sS'pos_y'
p6
F55.998619137216323
sS'isAlive'
p7
I01
sS'geno'
p8
(lp9
S'target'
p10
aS'target'
p11
a(lp12
S'mostEnergizedNeighbor'
p13
aS'separation'
p14
aS'target'
p15
aasS'accel_x'
p16
F0
sS'accel_y'
p17
F0
sS'maxAccel'
p18
I2
sS'maxVel'
p19
F0.80000000000000004
sS'age'
p20
I0
sS'gener'
p21
S'm'
sS'lastScale'
p22
F5.5
sS'energy'
p23
F0.5
sb.(i__main__
Data_mobile
p1
(dp2
S'vel_y'
p3
F0.24820349021108001
sS'vel_x'
p4
F0.30748695470649845
sS'pos_x'
p5
F-19.946214927255816
sS'pos_y'
p6
F10.300874896548725
sS'isAlive'
p7
I01
sS'geno'
p8
(lp9
S'alignment'
p10
aS'alignment'
p11
aS'target'
p12
aS'target'
p13
asS'accel_x'
p14
F0
sS'accel_y'
p15
F0
sS'maxAccel'
p16
I2
sS'maxVel'
p17
F0.80000000000000004
sS'age'
p18
I0
sS'gener'
p19
S'm'
sS'lastScale'
p20
F5.5
sS'energy'
p21
F0.5
sb.(i__main__
Data_mobile
p1
(dp2
S'vel_y'
p3
F-0.15186101523262957
sS'vel_x'
p4
F-0.099979399217993092
sS'pos_x'
p5
F131.43426560380365
sS'pos_y'
p6
F66.818035081405299
sS'isAlive'
p7
I01
sS'geno'
p8
(lp9
S'cohesion'
p10
aS'randV'
p11
a(lp12
S'separation'
p13
aaS'target'
p14
asS'accel_x'
p15
F0
sS'accel_y'
p16
F0
sS'maxAccel'
p17
I2
sS'maxVel'
p18
F0.80000000000000004
sS'age'
p19
I0
sS'gener'
p20
S'm'
sS'lastScale'
p21
F5.5
sS'energy'
p22
F0.5
sb.(i__main__
Data_mobile
p1
(dp2
S'vel_y'
p3
F0.31867238804367526
sS'vel_x'
p4
F0.46442405949877757
sS'pos_x'
p5
F118.52034729591078
sS'pos_y'
p6
F67.318826461393968
sS'isAlive'
p7
I01
sS'geno'
p8
(lp9
S'randV'
p10
aS'target'
p11
aS'POINT.*'
p12
a(lp13
S'alignment'
p14
aS'target'
p15
aS'target'
p16
aasS'accel_x'
p17
F0
sS'accel_y'
p18
F0
sS'maxAccel'
p19
I2
sS'maxVel'
p20
F0.80000000000000004
sS'age'
p21
I0
sS'gener'
p22
S'm'
sS'lastScale'
p23
F5.5
sS'energy'
p24
F0.5
sb.(i__main__
Data_mobile
p1
(dp2
S'vel_y'
p3
F-0.060547053530773581
sS'vel_x'
p4
F0.66117437843075533
sS'pos_x'
p5
F155.9271900393569
sS'pos_y'
p6
F66.070297239665251
sS'isAlive'
p7
I01
sS'geno'
p8
(lp9
S'cohesion'
p10
a(lp11
S'separation'
p12
aS'separation'
p13
a(lp14
S'alignment'
p15
aS'target'
p16
a(lp17
S'separation'
p18
aaS'target'
p19
aaa(lp20
S'separation'
p21
aaS'target'
p22
asS'accel_x'
p23
F0
sS'accel_y'
p24
F0
sS'maxAccel'
p25
I2
sS'maxVel'
p26
F0.80000000000000004
sS'age'
p27
I0
sS'gener'
p28
S'm'
sS'lastScale'
p29
F5.5
sS'energy'
p30
F0.5
sb.(i__main__
Data_mobile
p1
(dp2
S'vel_y'
p3
F-0.59170307052786331
sS'vel_x'
p4
F-0.31555305892203395
sS'pos_x'
p5
F-63.796859100665955
sS'pos_y'
p6
F69.839905821859318
sS'isAlive'
p7
I01
sS'geno'
p8
(lp9
S'alignment'
p10
aS'target'
p11
aS'POINT.*'
p12
a(lp13
S'alignment'
p14
aS'target'
p15
aS'target'
p16
aasS'accel_x'
p17
F0
sS'accel_y'
p18
F0
sS'maxAccel'
p19
I2
sS'maxVel'
p20
F0.80000000000000004
sS'age'
p21
I0
sS'gener'
p22
S'm'
sS'lastScale'
p23
F5.5
sS'energy'
p24
F0.5
sb.(i__main__
Data_mobile
p1
(dp2
S'vel_y'
p3
F-0.48787223073568181
sS'vel_x'
p4
F-0.05303291040946545
sS'pos_x'
p5
F2.8570440053904136
sS'pos_y'
p6
F-66.365363567786929
sS'isAlive'
p7
I01
sS'geno'
p8
(lp9
S'alignment'
p10
a(lp11
S'separation'
p12
aa(lp13
S'alignment'
p14
aS'alignment'
p15
aS'target'
p16
aasS'accel_x'
p17
F0
sS'accel_y'
p18
F0
sS'maxAccel'
p19
I2
sS'maxVel'
p20
F0.80000000000000004
sS'age'
p21
I0
sS'gener'
p22
S'm'
sS'lastScale'
p23
F5.5
sS'energy'
p24
F0.5
sb.(i__main__
Data_mobile
p1
(dp2
S'vel_y'
p3
F0.25820298811367792
sS'vel_x'
p4
F0.51314369656250247
sS'pos_x'
p5
F155.69852659768497
sS'pos_y'
p6
F66.360598560439058
sS'isAlive'
p7
I01
sS'geno'
p8
(lp9
(lp10
S'separation'
p11
aaS'separation'
p12
a(lp13
S'separation'
p14
aaS'POINT.+'
p15
asS'accel_x'
p16
F0
sS'accel_y'
p17
F0
sS'maxAccel'
p18
I2
sS'maxVel'
p19
F0.80000000000000004
sS'age'
p20
I0
sS'gener'
p21
S'm'
sS'lastScale'
p22
F5.5
sS'energy'
p23
F0.5
sb.(i__main__
Data_mobile
p1
(dp2
S'vel_y'
p3
F0.16869238329952924
sS'vel_x'
p4
F-0.099394683884188373
sS'pos_x'
p5
F104.17379594568776
sS'pos_y'
p6
F68.609601528339155
sS'isAlive'
p7
I01
sS'geno'
p8
(lp9
S'alignment'
p10
aS'target'
p11
aS'POINT.*'
p12
a(lp13
S'alignment'
p14
aS'target'
p15
aS'separation'
p16
aasS'accel_x'
p17
F0
sS'accel_y'
p18
F0
sS'maxAccel'
p19
I2
sS'maxVel'
p20
F0.80000000000000004
sS'age'
p21
I0
sS'gener'
p22
S'm'
sS'lastScale'
p23
F5.5
sS'energy'
p24
F0.5
sb.(i__main__
Data_mobile
p1
(dp2
S'vel_y'
p3
F0.66025091278909187
sS'vel_x'
p4
F-0.33088623952583485
sS'pos_x'
p5
F-90.980488802693571
sS'pos_y'
p6
F9.9017769335248538
sS'isAlive'
p7
I01
sS'geno'
p8
(lp9
(lp10
S'target'
p11
aS'alignment'
p12
a(lp13
(lp14
S'alignment'
p15
aS'target'
p16
aS'target'
p17
aS'alignment'
p18
aaS'alignment'
p19
aS'target'
p20
aaaS'alignment'
p21
aS'target'
p22
asS'accel_x'
p23
F0
sS'accel_y'
p24
F0
sS'maxAccel'
p25
I2
sS'maxVel'
p26
F0.80000000000000004
sS'age'
p27
I0
sS'gener'
p28
S'm'
sS'lastScale'
p29
F5.5
sS'energy'
p30
F0.5
sb.(i__main__
Data_mobile
p1
(dp2
S'vel_y'
p3
F-0.47627141966359005
sS'vel_x'
p4
F-0.64277953826458145
sS'pos_x'
p5
F-15.535820222086432
sS'pos_y'
p6
F81.44724944937407
sS'isAlive'
p7
I01
sS'geno'
p8
(lp9
S'randV'
p10
aS'target'
p11
aS'alignment'
p12
aS'target'
p13
asS'accel_x'
p14
F0
sS'accel_y'
p15
F0
sS'maxAccel'
p16
I2
sS'maxVel'
p17
F0.80000000000000004
sS'age'
p18
I0
sS'gener'
p19
S'm'
sS'lastScale'
p20
F5.5
sS'energy'
p21
F0.5
sb.(i__main__
Data_mobile
p1
(dp2
S'vel_y'
p3
F-0.47627141966359005
sS'vel_x'
p4
F-0.64277953826458145
sS'pos_x'
p5
F-15.535820222086432
sS'pos_y'
p6
F81.44724944937407
sS'isAlive'
p7
I01
sS'geno'
p8
(lp9
S'randV'
p10
aS'target'
p11
aS'alignment'
p12
aS'target'
p13
asS'accel_x'
p14
F0
sS'accel_y'
p15
F0
sS'maxAccel'
p16
I2
sS'maxVel'
p17
F0.80000000000000004
sS'age'
p18
I0
sS'gener'
p19
S'm'
sS'lastScale'
p20
F5.5
sS'energy'
p21
F0.5
sb.(i__main__
Data_mobile
p1
(dp2
S'vel_y'
p3
F0.066367162851671602
sS'vel_x'
p4
F0.47734175051533551
sS'pos_x'
p5
F93.100718067050138
sS'pos_y'
p6
F45.943998529306505
sS'isAlive'
p7
I01
sS'geno'
p8
(lp9
(lp10
S'alignment'
p11
aaS'target'
p12
a(lp13
S'separation'
p14
aaS'POINT.+'
p15
asS'accel_x'
p16
F0
sS'accel_y'
p17
F0
sS'maxAccel'
p18
I2
sS'maxVel'
p19
F0.80000000000000004
sS'age'
p20
I0
sS'gener'
p21
S'm'
sS'lastScale'
p22
F5.5
sS'energy'
p23
F0.5
sb.(i__main__
Data_mobile
p1
(dp2
S'vel_y'
p3
F-0.32341514729812759
sS'vel_x'
p4
F0.26644631793214291
sS'pos_x'
p5
F-65.621766893946045
sS'pos_y'
p6
F74.459483641859578
sS'isAlive'
p7
I01
sS'geno'
p8
(lp9
(lp10
S'separation'
p11
aaS'target'
p12
a(lp13
S'separation'
p14
aaS'POINT.+'
p15
asS'accel_x'
p16
F0
sS'accel_y'
p17
F0
sS'maxAccel'
p18
I2
sS'maxVel'
p19
F0.80000000000000004
sS'age'
p20
I0
sS'gener'
p21
S'm'
sS'lastScale'
p22
F5.5
sS'energy'
p23
F0.5
sb.(i__main__
Data_mobile
p1
(dp2
S'vel_y'
p3
F-0.38260653505640208
sS'vel_x'
p4
F0.04700493262716432
sS'pos_x'
p5
F32.330367478983938
sS'pos_y'
p6
F70.641450201110658
sS'isAlive'
p7
I01
sS'geno'
p8
(lp9
S'alignment'
p10
aS'target'
p11
aS'POINT.*'
p12
aS'POINT.+'
p13
asS'accel_x'
p14
F0
sS'accel_y'
p15
F0
sS'maxAccel'
p16
I2
sS'maxVel'
p17
F0.80000000000000004
sS'age'
p18
I0
sS'gener'
p19
S'm'
sS'lastScale'
p20
F5.5
sS'energy'
p21
F0.5
sb.(i__main__
Data_mobile
p1
(dp2
S'vel_y'
p3
F-0.58152802661155423
sS'vel_x'
p4
F-0.38247986937560347
sS'pos_x'
p5
F-6.4665959355506732
sS'pos_y'
p6
F-20.518539850430052
sS'isAlive'
p7
I01
sS'geno'
p8
(lp9
S'alignment'
p10
aS'target'
p11
aS'target'
p12
aS'target'
p13
asS'accel_x'
p14
F0
sS'accel_y'
p15
F0
sS'maxAccel'
p16
I2
sS'maxVel'
p17
F0.80000000000000004
sS'age'
p18
I0
sS'gener'
p19
S'm'
sS'lastScale'
p20
F5.5
sS'energy'
p21
F0.5
sb.(i__main__
Data_mobile
p1
(dp2
S'vel_y'
p3
F0.41849358760484318
sS'vel_x'
p4
F0.43872633755039481
sS'pos_x'
p5
F155.82375681546324
sS'pos_y'
p6
F66.201615055311478
sS'isAlive'
p7
I01
sS'geno'
p8
(lp9
S'cohesion'
p10
a(lp11
S'separation'
p12
aS'POINT.+'
p13
aS'alignment'
p14
aa(lp15
S'separation'
p16
aaS'target'
p17
asS'accel_x'
p18
F0
sS'accel_y'
p19
F0
sS'maxAccel'
p20
I2
sS'maxVel'
p21
F0.80000000000000004
sS'age'
p22
I0
sS'gener'
p23
S'm'
sS'lastScale'
p24
F5.5
sS'energy'
p25
F0.5
sb.(i__main__
Data_mobile
p1
(dp2
S'vel_y'
p3
F-0.10134159393748796
sS'vel_x'
p4
F0.68012345144188657
sS'pos_x'
p5
F155.79726349032254
sS'pos_y'
p6
F66.235250145604766
sS'isAlive'
p7
I01
sS'geno'
p8
(lp9
(lp10
S'separation'
p11
aaS'target'
p12
aS'separation'
p13
aS'POINT.+'
p14
asS'accel_x'
p15
F0
sS'accel_y'
p16
F0
sS'maxAccel'
p17
I2
sS'maxVel'
p18
F0.80000000000000004
sS'age'
p19
I0
sS'gener'
p20
S'm'
sS'lastScale'
p21
F5.5
sS'energy'
p22
F0.5
sb.(i__main__
Data_mobile
p1
(dp2
S'vel_y'
p3
F-0.36111600490517259
sS'vel_x'
p4
F0.28931217396814779
sS'pos_x'
p5
F129.52590574860034
sS'pos_y'
p6
F42.874652435680773
sS'isAlive'
p7
I01
sS'geno'
p8
(lp9
(lp10
S'separation'
p11
aaS'target'
p12
a(lp13
S'alignment'
p14
aaS'POINT.+'
p15
asS'accel_x'
p16
F0
sS'accel_y'
p17
F0
sS'maxAccel'
p18
I2
sS'maxVel'
p19
F0.80000000000000004
sS'age'
p20
I0
sS'gener'
p21
S'm'
sS'lastScale'
p22
F5.5
sS'energy'
p23
F0.5
sb.(i__main__
Data_mobile
p1
(dp2
S'vel_y'
p3
F0.55982408534970796
sS'vel_x'
p4
F-0.45368091746672173
sS'pos_x'
p5
F-86.047701369293605
sS'pos_y'
p6
F3.5920736192936493
sS'isAlive'
p7
I01
sS'geno'
p8
(lp9
S'alignment'
p10
aS'alignment'
p11
aS'target'
p12
aS'alignment'
p13
asS'accel_x'
p14
F0
sS'accel_y'
p15
F0
sS'maxAccel'
p16
I2
sS'maxVel'
p17
F0.80000000000000004
sS'age'
p18
I0
sS'gener'
p19
S'm'
sS'lastScale'
p20
F5.5
sS'energy'
p21
F0.5
sb.(i__main__
Data_mobile
p1
(dp2
S'vel_y'
p3
F0.11805713722925298
sS'vel_x'
p4
F0.79124112149788661
sS'pos_x'
p5
F6.9994288674859355
sS'pos_y'
p6
F-6.0092554182796833
sS'isAlive'
p7
I01
sS'geno'
p8
(lp9
S'target'
p10
aS'target'
p11
aS'target'
p12
asS'accel_x'
p13
F0
sS'accel_y'
p14
F0
sS'maxAccel'
p15
I2
sS'maxVel'
p16
F0.80000000000000004
sS'age'
p17
I50
sS'gener'
p18
S'm'
sS'lastScale'
p19
F5.5
sS'energy'
p20
I0
sb.(i__main__
Data_mobile
p1
(dp2
S'vel_y'
p3
F0.54053249254918956
sS'vel_x'
p4
F0.5879067430349052
sS'pos_x'
p5
F101.2394752645106
sS'pos_y'
p6
F92.332136785085112
sS'isAlive'
p7
I01
sS'geno'
p8
(lp9
S'alignment'
p10
aS'target'
p11
aS'alignment'
p12
aS'target'
p13
asS'accel_x'
p14
F0
sS'accel_y'
p15
F0
sS'maxAccel'
p16
I2
sS'maxVel'
p17
F0.80000000000000004
sS'age'
p18
I50
sS'gener'
p19
S'm'
sS'lastScale'
p20
F5.5
sS'energy'
p21
I0
sb.(i__main__
Data_mobile
p1
(dp2
S'vel_y'
p3
F-0.79396349417545875
sS'vel_x'
p4
F-0.098091640401698987
sS'pos_x'
p5
F8.0801573877874109
sS'pos_y'
p6
F-79.45370500895288
sS'isAlive'
p7
I01
sS'geno'
p8
(lp9
S'target'
p10
aS'alignment'
p11
a(lp12
S'target'
p13
aS'separation'
p14
aS'target'
p15
aasS'accel_x'
p16
F0
sS'accel_y'
p17
F0
sS'maxAccel'
p18
I2
sS'maxVel'
p19
F0.80000000000000004
sS'age'
p20
I50
sS'gener'
p21
S'm'
sS'lastScale'
p22
F5.5
sS'energy'
p23
I0
sb.(i__main__
Data_mobile
p1
(dp2
S'vel_y'
p3
F-0.013347477204082858
sS'vel_x'
p4
F0.2465120309969458
sS'pos_x'
p5
F86.900016547274859
sS'pos_y'
p6
F75.927739058978418
sS'isAlive'
p7
I01
sS'geno'
p8
(lp9
S'alignment'
p10
aS'alignment'
p11
a(lp12
S'target'
p13
aS'POINT.+'
p14
a(lp15
(lp16
S'alignment'
p17
aS'target'
p18
a(lp19
S'alignment'
p20
aS'separation'
p21
aS'target'
p22
aaaS'alignment'
p23
aS'target'
p24
aaasS'accel_x'
p25
F0
sS'accel_y'
p26
F0
sS'maxAccel'
p27
I2
sS'maxVel'
p28
F0.80000000000000004
sS'age'
p29
I50
sS'gener'
p30
S'm'
sS'lastScale'
p31
F5.5
sS'energy'
p32
I0
sb.(i__main__
Data_mobile
p1
(dp2
S'vel_y'
p3
F0.43303805081191388
sS'vel_x'
p4
F0.67266488428415705
sS'pos_x'
p5
F13.400307910644399
sS'pos_y'
p6
F4.3567180560026664
sS'isAlive'
p7
I01
sS'geno'
p8
(lp9
S'alignment'
p10
aS'target'
p11
aS'target'
p12
aS'target'
p13
asS'accel_x'
p14
F0
sS'accel_y'
p15
F0
sS'maxAccel'
p16
I2
sS'maxVel'
p17
F0.80000000000000004
sS'age'
p18
I50
sS'gener'
p19
S'm'
sS'lastScale'
p20
F5.5
sS'energy'
p21
I0
sb.(i__main__
Data_mobile
p1
(dp2
S'vel_y'
p3
F-0.48548394975294606
sS'vel_x'
p4
F-0.63585008809646237
sS'pos_x'
p5
F-16.08369258823533
sS'pos_y'
p6
F81.427530988160996
sS'isAlive'
p7
I01
sS'geno'
p8
(lp9
S'target'
p10
aS'alignment'
p11
a(lp12
S'target'
p13
aS'alignment'
p14
aS'target'
p15
aasS'accel_x'
p16
F-1.6247789423283876
sS'accel_y'
p17
F-1.1662304182991652
sS'maxAccel'
p18
I2
sS'maxVel'
p19
F0.80000000000000004
sS'age'
p20
I150
sS'gener'
p21
S'm'
sS'lastScale'
p22
F5.5
sS'energy'
p23
I0
sb.(i__main__
Data_mobile
p1
(dp2
S'vel_y'
p3
F0.32752388794792914
sS'vel_x'
p4
F-0.72988225271167706
sS'pos_x'
p5
F-8.5190175635673899
sS'pos_y'
p6
F-38.362136508538377
sS'isAlive'
p7
I01
sS'geno'
p8
(lp9
S'target'
p10
aS'alignment'
p11
a(lp12
S'target'
p13
aS'alignment'
p14
aS'target'
p15
aasS'accel_x'
p16
F0
sS'accel_y'
p17
F0
sS'maxAccel'
p18
I2
sS'maxVel'
p19
F0.80000000000000004
sS'age'
p20
I50
sS'gener'
p21
S'm'
sS'lastScale'
p22
F5.5
sS'energy'
p23
I0
sb.(i__main__
Data_mobile
p1
(dp2
S'vel_y'
p3
F-0.48549319498204424
sS'vel_x'
p4
F-0.63584302907724544
sS'pos_x'
p5
F-16.083969006766814
sS'pos_y'
p6
F81.427715482872884
sS'isAlive'
p7
I01
sS'geno'
p8
(lp9
S'alignment'
p10
aS'alignment'
p11
a(lp12
S'alignment'
p13
aS'POINT.+'
p14
a(lp15
(lp16
S'alignment'
p17
aS'target'
p18
aS'alignment'
p19
aaS'alignment'
p20
aS'target'
p21
aaasS'accel_x'
p22
F-1.6247620340437772
sS'accel_y'
p23
F-1.1662539743683316
sS'maxAccel'
p24
I2
sS'maxVel'
p25
F0.80000000000000004
sS'age'
p26
I150
sS'gener'
p27
S'm'
sS'lastScale'
p28
F5.5
sS'energy'
p29
I0
sb.(i__main__
Data_mobile
p1
(dp2
S'vel_y'
p3
F-0.60352575218147353
sS'vel_x'
p4
F-0.52512538165069367
sS'pos_x'
p5
F-13.314482805970107
sS'pos_y'
p6
F-16.700488962215751
sS'isAlive'
p7
I01
sS'geno'
p8
(lp9
S'randV'
p10
aS'target'
p11
aS'alignment'
p12
aS'target'
p13
asS'accel_x'
p14
F0
sS'accel_y'
p15
F0
sS'maxAccel'
p16
I2
sS'maxVel'
p17
F0.80000000000000004
sS'age'
p18
I50
sS'gener'
p19
S'm'
sS'lastScale'
p20
F5.5
sS'energy'
p21
I0
sb.(i__main__
Data_mobile
p1
(dp2
S'vel_y'
p3
F-0.62929182143671702
sS'vel_x'
p4
F0.49395526464737599
sS'pos_x'
p5
F28.011401603367872
sS'pos_y'
p6
F-67.845604148160831
sS'isAlive'
p7
I01
sS'geno'
p8
(lp9
S'alignment'
p10
aS'target'
p11
aS'target'
p12
asS'accel_x'
p13
F0
sS'accel_y'
p14
F0
sS'maxAccel'
p15
I2
sS'maxVel'
p16
F0.80000000000000004
sS'age'
p17
I50
sS'gener'
p18
S'm'
sS'lastScale'
p19
F5.5
sS'energy'
p20
I0
sb.(i__main__
Data_mobile
p1
(dp2
S'vel_y'
p3
F-0.15878457159512227
sS'vel_x'
p4
F-0.78408383469075149
sS'pos_x'
p5
F-19.441183741430528
sS'pos_y'
p6
F-46.763882599311799
sS'isAlive'
p7
I01
sS'geno'
p8
(lp9
S'randV'
p10
aS'target'
p11
aS'alignment'
p12
aS'target'
p13
asS'accel_x'
p14
F-1.9677617598123123
sS'accel_y'
p15
F-0.35765018750219008
sS'maxAccel'
p16
I2
sS'maxVel'
p17
F0.80000000000000004
sS'age'
p18
I50
sS'gener'
p19
S'm'
sS'lastScale'
p20
F5.5
sS'energy'
p21
I0
sb.(i__main__
Data_mobile
p1
(dp2
S'vel_y'
p3
F-0.71843963083591866
sS'vel_x'
p4
F0.35191546832208015
sS'pos_x'
p5
F6.9217094920498257
sS'pos_y'
p6
F-33.647103081685849
sS'isAlive'
p7
I01
sS'geno'
p8
(lp9
S'alignment'
p10
aS'target'
p11
aS'POINT.*'
p12
a(lp13
S'alignment'
p14
aS'target'
p15
aS'target'
p16
aasS'accel_x'
p17
F0
sS'accel_y'
p18
F0
sS'maxAccel'
p19
I2
sS'maxVel'
p20
F0.80000000000000004
sS'age'
p21
I50
sS'gener'
p22
S'm'
sS'lastScale'
p23
F5.5
sS'energy'
p24
I0
sb.(i__main__
Data_mobile
p1
(dp2
S'vel_y'
p3
F0.14608477235658174
sS'vel_x'
p4
F0.35411502190346722
sS'pos_x'
p5
F10.5678420284914
sS'pos_y'
p6
F-26.527950495561669
sS'isAlive'
p7
I01
sS'geno'
p8
(lp9
S'alignment'
p10
aS'target'
p11
aS'target'
p12
aS'alignment'
p13
asS'accel_x'
p14
F0
sS'accel_y'
p15
F0
sS'maxAccel'
p16
I2
sS'maxVel'
p17
F0.80000000000000004
sS'age'
p18
I50
sS'gener'
p19
S'm'
sS'lastScale'
p20
F5.5
sS'energy'
p21
I0
sb.(i__main__
Data_mobile
p1
(dp2
S'vel_y'
p3
F-0.21464089402610795
sS'vel_x'
p4
F0.13890144363024493
sS'pos_x'
p5
F26.902814402183385
sS'pos_y'
p6
F-95.265195922613927
sS'isAlive'
p7
I01
sS'geno'
p8
(lp9
S'POINT.*'
p10
aS'alignment'
p11
aS'target'
p12
asS'accel_x'
p13
F0
sS'accel_y'
p14
F0
sS'maxAccel'
p15
I2
sS'maxVel'
p16
F0.80000000000000004
sS'age'
p17
I50
sS'gener'
p18
S'm'
sS'lastScale'
p19
F5.5
sS'energy'
p20
I0
sb.(i__main__
Data_mobile
p1
(dp2
S'vel_y'
p3
F0.22150568059357745
sS'vel_x'
p4
F-0.76872311885670253
sS'pos_x'
p5
F-0.46479725414819012
sS'pos_y'
p6
F-43.997701896162994
sS'isAlive'
p7
I01
sS'geno'
p8
(lp9
S'alignment'
p10
aS'target'
p11
aS'target'
p12
asS'accel_x'
p13
F0
sS'accel_y'
p14
F0
sS'maxAccel'
p15
I2
sS'maxVel'
p16
F0.80000000000000004
sS'age'
p17
I50
sS'gener'
p18
S'm'
sS'lastScale'
p19
F5.5
sS'energy'
p20
I0
sb.(i__main__
Data_mobile
p1
(dp2
S'vel_y'
p3
I0
sS'vel_x'
p4
I0
sS'pos_x'
p5
I-9579
sS'pos_y'
p6
I9779
sS'isAlive'
p7
I00
sS'geno'
p8
(lp9
S'target'
p10
aS'alignment'
p11
a(lp12
S'target'
p13
aS'alignment'
p14
aS'target'
p15
aasS'accel_x'
p16
F0
sS'accel_y'
p17
F0
sS'maxAccel'
p18
I2
sS'maxVel'
p19
F0.80000000000000004
sS'age'
p20
I0
sS'gener'
p21
S'm'
sS'lastScale'
p22
F5.5
sS'energy'
p23
F0.5
sb.(i__main__
Data_mobile
p1
(dp2
S'vel_y'
p3
I0
sS'vel_x'
p4
I0
sS'pos_x'
p5
I-9579
sS'pos_y'
p6
I9779
sS'isAlive'
p7
I00
sS'geno'
p8
(lp9
S'alignment'
p10
aS'alignment'
p11
a(lp12
S'target'
p13
aS'alignment'
p14
aS'target'
p15
aasS'accel_x'
p16
F0
sS'accel_y'
p17
F0
sS'maxAccel'
p18
I2
sS'maxVel'
p19
F0.80000000000000004
sS'age'
p20
I0
sS'gener'
p21
S'm'
sS'lastScale'
p22
F5.5
sS'energy'
p23
F0.5
sb.(i__main__
Data_mobile
p1
(dp2
S'vel_y'
p3
I0
sS'vel_x'
p4
I0
sS'pos_x'
p5
I-9579
sS'pos_y'
p6
I9779
sS'isAlive'
p7
I00
sS'geno'
p8
(lp9
S'alignment'
p10
aS'target'
p11
a(lp12
S'alignment'
p13
aS'target'
p14
aS'target'
p15
aasS'accel_x'
p16
F0
sS'accel_y'
p17
F0
sS'maxAccel'
p18
I2
sS'maxVel'
p19
F0.80000000000000004
sS'age'
p20
I0
sS'gener'
p21
S'm'
sS'lastScale'
p22
F5.5
sS'energy'
p23
F0.5
sb.(i__main__
Data_mobile
p1
(dp2
S'vel_y'
p3
I0
sS'vel_x'
p4
I0
sS'pos_x'
p5
I-9579
sS'pos_y'
p6
I9779
sS'isAlive'
p7
I00
sS'geno'
p8
(lp9
S'target'
p10
aS'alignment'
p11
a(lp12
S'target'
p13
aS'separation'
p14
aS'target'
p15
aasS'accel_x'
p16
F0
sS'accel_y'
p17
F0
sS'maxAccel'
p18
I2
sS'maxVel'
p19
F0.80000000000000004
sS'age'
p20
I0
sS'gener'
p21
S'm'
sS'lastScale'
p22
F5.5
sS'energy'
p23
F0.5
sb.(i__main__
Data_mobile
p1
(dp2
S'vel_y'
p3
I0
sS'vel_x'
p4
I0
sS'pos_x'
p5
I-9579
sS'pos_y'
p6
I9779
sS'isAlive'
p7
I00
sS'geno'
p8
(lp9
S'alignment'
p10
aS'target'
p11
aS'target'
p12
asS'accel_x'
p13
F0
sS'accel_y'
p14
F0
sS'maxAccel'
p15
I2
sS'maxVel'
p16
F0.80000000000000004
sS'age'
p17
I0
sS'gener'
p18
S'm'
sS'lastScale'
p19
F5.5
sS'energy'
p20
F0.5
sb.(i__main__
Data_mobile
p1
(dp2
S'vel_y'
p3
I0
sS'vel_x'
p4
I0
sS'pos_x'
p5
I-9579
sS'pos_y'
p6
I9779
sS'isAlive'
p7
I00
sS'geno'
p8
(lp9
(lp10
S'alignment'
p11
aS'target'
p12
aS'target'
p13
aaS'target'
p14
a(lp15
S'alignment'
p16
aS'alignment'
p17
a(lp18
S'alignment'
p19
aS'alignment'
p20
a(lp21
S'alignment'
p22
aS'alignment'
p23
aS'target'
p24
aaaasS'accel_x'
p25
F0
sS'accel_y'
p26
F0
sS'maxAccel'
p27
I2
sS'maxVel'
p28
F0.80000000000000004
sS'age'
p29
I0
sS'gener'
p30
S'm'
sS'lastScale'
p31
F5.5
sS'energy'
p32
F0.5
sb.(i__main__
Data_mobile
p1
(dp2
S'vel_y'
p3
I0
sS'vel_x'
p4
I0
sS'pos_x'
p5
I-9579
sS'pos_y'
p6
I9779
sS'isAlive'
p7
I00
sS'geno'
p8
(lp9
S'target'
p10
aS'target'
p11
a(lp12
S'alignment'
p13
aS'target'
p14
a(lp15
(lp16
S'alignment'
p17
aS'alignment'
p18
a(lp19
S'mostEnergizedNeighbor'
p20
aS'alignment'
p21
aS'target'
p22
aaaS'alignment'
p23
a(lp24
S'alignment'
p25
aS'alignment'
p26
a(lp27
S'alignment'
p28
aS'alignment'
p29
aS'target'
p30
aaaaaS'target'
p31
asS'accel_x'
p32
F0
sS'accel_y'
p33
F0
sS'maxAccel'
p34
I2
sS'maxVel'
p35
F0.80000000000000004
sS'age'
p36
I0
sS'gener'
p37
S'm'
sS'lastScale'
p38
F5.5
sS'energy'
p39
F0.5
sb.(i__main__
Data_mobile
p1
(dp2
S'vel_y'
p3
I0
sS'vel_x'
p4
I0
sS'pos_x'
p5
I-9579
sS'pos_y'
p6
I9779
sS'isAlive'
p7
I00
sS'geno'
p8
(lp9
S'target'
p10
aS'alignment'
p11
aS'target'
p12
asS'accel_x'
p13
F0
sS'accel_y'
p14
F0
sS'maxAccel'
p15
I2
sS'maxVel'
p16
F0.80000000000000004
sS'age'
p17
I0
sS'gener'
p18
S'm'
sS'lastScale'
p19
F5.5
sS'energy'
p20
F0.5
sb.(i__main__
Data_mobile
p1
(dp2
S'vel_y'
p3
I0
sS'vel_x'
p4
I0
sS'pos_x'
p5
I-9579
sS'pos_y'
p6
I9779
sS'isAlive'
p7
I00
sS'geno'
p8
(lp9
S'target'
p10
aS'alignment'
p11
aS'target'
p12
asS'accel_x'
p13
F0
sS'accel_y'
p14
F0
sS'maxAccel'
p15
I2
sS'maxVel'
p16
F0.80000000000000004
sS'age'
p17
I0
sS'gener'
p18
S'm'
sS'lastScale'
p19
F5.5
sS'energy'
p20
F0.5
sb.(i__main__
Data_mobile
p1
(dp2
S'vel_y'
p3
I0
sS'vel_x'
p4
I0
sS'pos_x'
p5
I-9579
sS'pos_y'
p6
I9779
sS'isAlive'
p7
I00
sS'geno'
p8
(lp9
S'target'
p10
aS'alignment'
p11
a(lp12
S'target'
p13
aS'alignment'
p14
aS'target'
p15
aasS'accel_x'
p16
F0
sS'accel_y'
p17
F0
sS'maxAccel'
p18
I2
sS'maxVel'
p19
F0.80000000000000004
sS'age'
p20
I0
sS'gener'
p21
S'm'
sS'lastScale'
p22
F5.5
sS'energy'
p23
F0.5
sb.(i__main__
Data_mobile
p1
(dp2
S'vel_y'
p3
I0
sS'vel_x'
p4
I0
sS'pos_x'
p5
I-9579
sS'pos_y'
p6
I9779
sS'isAlive'
p7
I00
sS'geno'
p8
(lp9
(lp10
S'target'
p11
aS'alignment'
p12
aS'target'
p13
aaS'alignment'
p14
aS'target'
p15
asS'accel_x'
p16
F0
sS'accel_y'
p17
F0
sS'maxAccel'
p18
I2
sS'maxVel'
p19
F0.80000000000000004
sS'age'
p20
I0
sS'gener'
p21
S'm'
sS'lastScale'
p22
F5.5
sS'energy'
p23
F0.5
sb.(i__main__
Data_mobile
p1
(dp2
S'vel_y'
p3
I0
sS'vel_x'
p4
I0
sS'pos_x'
p5
I-9579
sS'pos_y'
p6
I9779
sS'isAlive'
p7
I00
sS'geno'
p8
(lp9
(lp10
S'alignment'
p11
aS'target'
p12
aS'alignment'
p13
aaS'target'
p14
aS'POINT./'
p15
asS'accel_x'
p16
F0
sS'accel_y'
p17
F0
sS'maxAccel'
p18
I2
sS'maxVel'
p19
F0.80000000000000004
sS'age'
p20
I0
sS'gener'
p21
S'm'
sS'lastScale'
p22
F5.5
sS'energy'
p23
F0.5
sb.(i__main__
Data_mobile
p1
(dp2
S'vel_y'
p3
I0
sS'vel_x'
p4
I0
sS'pos_x'
p5
I-9579
sS'pos_y'
p6
I9779
sS'isAlive'
p7
I00
sS'geno'
p8
(lp9
S'target'
p10
aS'alignment'
p11
a(lp12
S'target'
p13
aS'alignment'
p14
aS'target'
p15
aasS'accel_x'
p16
F0
sS'accel_y'
p17
F0
sS'maxAccel'
p18
I2
sS'maxVel'
p19
F0.80000000000000004
sS'age'
p20
I0
sS'gener'
p21
S'm'
sS'lastScale'
p22
F5.5
sS'energy'
p23
F0.5
sb.(i__main__
Data_mobile
p1
(dp2
S'vel_y'
p3
I0
sS'vel_x'
p4
I0
sS'pos_x'
p5
I-9579
sS'pos_y'
p6
I9779
sS'isAlive'
p7
I00
sS'geno'
p8
(lp9
S'alignment'
p10
aS'target'
p11
a(lp12
S'alignment'
p13
aS'alignment'
p14
aS'target'
p15
aasS'accel_x'
p16
F0
sS'accel_y'
p17
F0
sS'maxAccel'
p18
I2
sS'maxVel'
p19
F0.80000000000000004
sS'age'
p20
I0
sS'gener'
p21
S'm'
sS'lastScale'
p22
F5.5
sS'energy'
p23
F0.5
sb.(i__main__
Data_mobile
p1
(dp2
S'vel_y'
p3
I0
sS'vel_x'
p4
I0
sS'pos_x'
p5
I-9579
sS'pos_y'
p6
I9779
sS'isAlive'
p7
I00
sS'geno'
p8
(lp9
S'target'
p10
aS'alignment'
p11
a(lp12
S'target'
p13
aS'alignment'
p14
aS'target'
p15
aasS'accel_x'
p16
F0
sS'accel_y'
p17
F0
sS'maxAccel'
p18
I2
sS'maxVel'
p19
F0.80000000000000004
sS'age'
p20
I0
sS'gener'
p21
S'm'
sS'lastScale'
p22
F5.5
sS'energy'
p23
F0.5
sb.(i__main__
Data_mobile
p1
(dp2
S'vel_y'
p3
I0
sS'vel_x'
p4
I0
sS'pos_x'
p5
I-9579
sS'pos_y'
p6
I9779
sS'isAlive'
p7
I00
sS'geno'
p8
(lp9
S'alignment'
p10
aS'target'
p11
a(lp12
S'alignment'
p13
aS'alignment'
p14
a(lp15
S'alignment'
p16
aS'alignment'
p17
a(lp18
(lp19
S'separation'
p20
aaS'alignment'
p21
aS'target'
p22
aaaasS'accel_x'
p23
F0
sS'accel_y'
p24
F0
sS'maxAccel'
p25
I2
sS'maxVel'
p26
F0.80000000000000004
sS'age'
p27
I0
sS'gener'
p28
S'm'
sS'lastScale'
p29
F5.5
sS'energy'
p30
F0.5
sb.(i__main__
Data_mobile
p1
(dp2
S'vel_y'
p3
I0
sS'vel_x'
p4
I0
sS'pos_x'
p5
I-9579
sS'pos_y'
p6
I9779
sS'isAlive'
p7
I00
sS'geno'
p8
(lp9
S'target'
p10
aS'alignment'
p11
a(lp12
(lp13
S'alignment'
p14
aS'target'
p15
a(lp16
S'separation'
p17
aaS'target'
p18
aaS'alignment'
p19
aS'target'
p20
aasS'accel_x'
p21
F0
sS'accel_y'
p22
F0
sS'maxAccel'
p23
I2
sS'maxVel'
p24
F0.80000000000000004
sS'age'
p25
I0
sS'gener'
p26
S'm'
sS'lastScale'
p27
F5.5
sS'energy'
p28
F0.5
sb.(i__main__
Data_mobile
p1
(dp2
S'vel_y'
p3
I0
sS'vel_x'
p4
I0
sS'pos_x'
p5
I-9579
sS'pos_y'
p6
I9779
sS'isAlive'
p7
I00
sS'geno'
p8
(lp9
S'target'
p10
aS'target'
p11
a(lp12
S'separation'
p13
aaS'target'
p14
asS'accel_x'
p15
F0
sS'accel_y'
p16
F0
sS'maxAccel'
p17
I2
sS'maxVel'
p18
F0.80000000000000004
sS'age'
p19
I0
sS'gener'
p20
S'm'
sS'lastScale'
p21
F5.5
sS'energy'
p22
F0.5
sb.(i__main__
Data_mobile
p1
(dp2
S'vel_y'
p3
I0
sS'vel_x'
p4
I0
sS'pos_x'
p5
I-9579
sS'pos_y'
p6
I9779
sS'isAlive'
p7
I00
sS'geno'
p8
(lp9
(lp10
S'alignment'
p11
aS'target'
p12
a(lp13
S'alignment'
p14
aS'separation'
p15
aS'target'
p16
aaaS'target'
p17
a(lp18
S'alignment'
p19
aS'alignment'
p20
aS'target'
p21
aasS'accel_x'
p22
F0
sS'accel_y'
p23
F0
sS'maxAccel'
p24
I2
sS'maxVel'
p25
F0.80000000000000004
sS'age'
p26
I0
sS'gener'
p27
S'm'
sS'lastScale'
p28
F5.5
sS'energy'
p29
F0.5
sb.(i__main__
Data_mobile
p1
(dp2
S'vel_y'
p3
I0
sS'vel_x'
p4
I0
sS'pos_x'
p5
I-9579
sS'pos_y'
p6
I9779
sS'isAlive'
p7
I00
sS'geno'
p8
(lp9
S'alignment'
p10
aS'target'
p11
a(lp12
(lp13
S'alignment'
p14
aS'alignment'
p15
a(lp16
S'mostEnergizedNeighbor'
p17
aS'alignment'
p18
aS'target'
p19
aaaS'alignment'
p20
a(lp21
S'alignment'
p22
aS'alignment'
p23
aS'target'
p24
aaasS'accel_x'
p25
F0
sS'accel_y'
p26
F0
sS'maxAccel'
p27
I2
sS'maxVel'
p28
F0.80000000000000004
sS'age'
p29
I0
sS'gener'
p30
S'm'
sS'lastScale'
p31
F5.5
sS'energy'
p32
F0.5
sb.(i__main__
Data_mobile
p1
(dp2
S'vel_y'
p3
I0
sS'vel_x'
p4
I0
sS'pos_x'
p5
I-9579
sS'pos_y'
p6
I9779
sS'isAlive'
p7
I00
sS'geno'
p8
(lp9
S'target'
p10
aS'alignment'
p11
aS'target'
p12
asS'accel_x'
p13
F0
sS'accel_y'
p14
F0
sS'maxAccel'
p15
I2
sS'maxVel'
p16
F0.80000000000000004
sS'age'
p17
I0
sS'gener'
p18
S'm'
sS'lastScale'
p19
F5.5
sS'energy'
p20
F0.5
sb.(i__main__
Data_mobile
p1
(dp2
S'vel_y'
p3
I0
sS'vel_x'
p4
I0
sS'pos_x'
p5
I-9579
sS'pos_y'
p6
I9779
sS'isAlive'
p7
I00
sS'geno'
p8
(lp9
S'alignment'
p10
aS'alignment'
p11
aS'target'
p12
asS'accel_x'
p13
F0
sS'accel_y'
p14
F0
sS'maxAccel'
p15
I2
sS'maxVel'
p16
F0.80000000000000004
sS'age'
p17
I0
sS'gener'
p18
S'm'
sS'lastScale'
p19
F5.5
sS'energy'
p20
F0.5
sb.(i__main__
Data_mobile
p1
(dp2
S'vel_y'
p3
I0
sS'vel_x'
p4
I0
sS'pos_x'
p5
I-9579
sS'pos_y'
p6
I9779
sS'isAlive'
p7
I00
sS'geno'
p8
(lp9
S'alignment'
p10
a(lp11
S'alignment'
p12
aS'target'
p13
a(lp14
S'separation'
p15
aaS'target'
p16
aa(lp17
S'target'
p18
aS'POINT.+'
p19
a(lp20
(lp21
S'alignment'
p22
aS'target'
p23
a(lp24
S'alignment'
p25
aS'separation'
p26
aS'target'
p27
aaaS'alignment'
p28
aS'target'
p29
aaasS'accel_x'
p30
F0
sS'accel_y'
p31
F0
sS'maxAccel'
p32
I2
sS'maxVel'
p33
F0.80000000000000004
sS'age'
p34
I0
sS'gener'
p35
S'm'
sS'lastScale'
p36
F5.5
sS'energy'
p37
F0.5
sb.(i__main__
Data_mobile
p1
(dp2
S'vel_y'
p3
I0
sS'vel_x'
p4
I0
sS'pos_x'
p5
I-9579
sS'pos_y'
p6
I9779
sS'isAlive'
p7
I00
sS'geno'
p8
(lp9
S'alignment'
p10
aS'target'
p11
aS'target'
p12
aS'target'
p13
asS'accel_x'
p14
F0
sS'accel_y'
p15
F0
sS'maxAccel'
p16
I2
sS'maxVel'
p17
F0.80000000000000004
sS'age'
p18
I0
sS'gener'
p19
S'm'
sS'lastScale'
p20
F5.5
sS'energy'
p21
F0.5
sb.(i__main__
Data_mobile
p1
(dp2
S'vel_y'
p3
I0
sS'vel_x'
p4
I0
sS'pos_x'
p5
I-9579
sS'pos_y'
p6
I9779
sS'isAlive'
p7
I00
sS'geno'
p8
(lp9
S'alignment'
p10
aS'target'
p11
a(lp12
S'cohesion'
p13
aS'alignment'
p14
aS'target'
p15
aS'target'
p16
aasS'accel_x'
p17
F0
sS'accel_y'
p18
F0
sS'maxAccel'
p19
I2
sS'maxVel'
p20
F0.80000000000000004
sS'age'
p21
I0
sS'gener'
p22
S'm'
sS'lastScale'
p23
F5.5
sS'energy'
p24
F0.5
sb.(i__main__
Data_mobile
p1
(dp2
S'vel_y'
p3
I0
sS'vel_x'
p4
I0
sS'pos_x'
p5
I-9579
sS'pos_y'
p6
I9779
sS'isAlive'
p7
I00
sS'geno'
p8
(lp9
S'alignment'
p10
aS'target'
p11
aS'target'
p12
asS'accel_x'
p13
F0
sS'accel_y'
p14
F0
sS'maxAccel'
p15
I2
sS'maxVel'
p16
F0.80000000000000004
sS'age'
p17
I0
sS'gener'
p18
S'm'
sS'lastScale'
p19
F5.5
sS'energy'
p20
F0.5
sb.(i__main__
Data_mobile
p1
(dp2
S'vel_y'
p3
I0
sS'vel_x'
p4
I0
sS'pos_x'
p5
I-9579
sS'pos_y'
p6
I9779
sS'isAlive'
p7
I00
sS'geno'
p8
(lp9
S'target'
p10
aS'alignment'
p11
a(lp12
(lp13
S'target'
p14
aS'alignment'
p15
aS'target'
p16
aaS'alignment'
p17
aS'target'
p18
aasS'accel_x'
p19
F0
sS'accel_y'
p20
F0
sS'maxAccel'
p21
I2
sS'maxVel'
p22
F0.80000000000000004
sS'age'
p23
I0
sS'gener'
p24
S'm'
sS'lastScale'
p25
F5.5
sS'energy'
p26
F0.5
sb.(i__main__
Data_mobile
p1
(dp2
S'vel_y'
p3
I0
sS'vel_x'
p4
I0
sS'pos_x'
p5
I-9579
sS'pos_y'
p6
I9779
sS'isAlive'
p7
I00
sS'geno'
p8
(lp9
S'alignment'
p10
aS'target'
p11
a(lp12
S'separation'
p13
aaS'randV'
p14
asS'accel_x'
p15
F0
sS'accel_y'
p16
F0
sS'maxAccel'
p17
I2
sS'maxVel'
p18
F0.80000000000000004
sS'age'
p19
I0
sS'gener'
p20
S'm'
sS'lastScale'
p21
F5.5
sS'energy'
p22
F0.5
sb.(i__main__
Data_mobile
p1
(dp2
S'vel_y'
p3
I0
sS'vel_x'
p4
I0
sS'pos_x'
p5
I-9579
sS'pos_y'
p6
I9779
sS'isAlive'
p7
I00
sS'geno'
p8
(lp9
S'alignment'
p10
aS'target'
p11
a(lp12
S'separation'
p13
aaS'target'
p14
asS'accel_x'
p15
F0
sS'accel_y'
p16
F0
sS'maxAccel'
p17
I2
sS'maxVel'
p18
F0.80000000000000004
sS'age'
p19
I0
sS'gener'
p20
S'm'
sS'lastScale'
p21
F5.5
sS'energy'
p22
F0.5
sb.(i__main__
Data_mobile
p1
(dp2
S'vel_y'
p3
I0
sS'vel_x'
p4
I0
sS'pos_x'
p5
I-9579
sS'pos_y'
p6
I9779
sS'isAlive'
p7
I00
sS'geno'
p8
(lp9
S'cohesion'
p10
a(lp11
S'alignment'
p12
aS'target'
p13
a(lp14
S'alignment'
p15
aS'target'
p16
aS'target'
p17
aaaS'target'
p18
a(lp19
S'alignment'
p20
aS'target'
p21
a(lp22
S'separation'
p23
aaS'target'
p24
aasS'accel_x'
p25
F0
sS'accel_y'
p26
F0
sS'maxAccel'
p27
I2
sS'maxVel'
p28
F0.80000000000000004
sS'age'
p29
I0
sS'gener'
p30
S'm'
sS'lastScale'
p31
F5.5
sS'energy'
p32
F0.5
sb.(i__main__
Data_mobile
p1
(dp2
S'vel_y'
p3
I0
sS'vel_x'
p4
I0
sS'pos_x'
p5
I-9579
sS'pos_y'
p6
I9779
sS'isAlive'
p7
I00
sS'geno'
p8
(lp9
S'alignment'
p10
aS'alignment'
p11
aS'target'
p12
aS'target'
p13
asS'accel_x'
p14
F0
sS'accel_y'
p15
F0
sS'maxAccel'
p16
I2
sS'maxVel'
p17
F0.80000000000000004
sS'age'
p18
I0
sS'gener'
p19
S'm'
sS'lastScale'
p20
F5.5
sS'energy'
p21
F0.5
sb.(i__main__
Data_mobile
p1
(dp2
S'vel_y'
p3
I0
sS'vel_x'
p4
I0
sS'pos_x'
p5
I-9579
sS'pos_y'
p6
I9779
sS'isAlive'
p7
I00
sS'geno'
p8
(lp9
S'target'
p10
aS'target'
p11
a(lp12
S'target'
p13
aaS'target'
p14
asS'accel_x'
p15
F0
sS'accel_y'
p16
F0
sS'maxAccel'
p17
I2
sS'maxVel'
p18
F0.80000000000000004
sS'age'
p19
I0
sS'gener'
p20
S'm'
sS'lastScale'
p21
F5.5
sS'energy'
p22
F0.5
sb.(i__main__
Data_mobile
p1
(dp2
S'vel_y'
p3
I0
sS'vel_x'
p4
I0
sS'pos_x'
p5
I-9579
sS'pos_y'
p6
I9779
sS'isAlive'
p7
I00
sS'geno'
p8
(lp9
S'alignment'
p10
aS'alignment'
p11
aS'target'
p12
asS'accel_x'
p13
F0
sS'accel_y'
p14
F0
sS'maxAccel'
p15
I2
sS'maxVel'
p16
F0.80000000000000004
sS'age'
p17
I0
sS'gener'
p18
S'm'
sS'lastScale'
p19
F5.5
sS'energy'
p20
F0.5
sb.(i__main__
Data_mobile
p1
(dp2
S'vel_y'
p3
I0
sS'vel_x'
p4
I0
sS'pos_x'
p5
I-9579
sS'pos_y'
p6
I9779
sS'isAlive'
p7
I00
sS'geno'
p8
(lp9
S'target'
p10
aS'alignment'
p11
aS'target'
p12
asS'accel_x'
p13
F0
sS'accel_y'
p14
F0
sS'maxAccel'
p15
I2
sS'maxVel'
p16
F0.80000000000000004
sS'age'
p17
I0
sS'gener'
p18
S'm'
sS'lastScale'
p19
F5.5
sS'energy'
p20
F0.5
sb.(i__main__
Data_mobile
p1
(dp2
S'vel_y'
p3
I0
sS'vel_x'
p4
I0
sS'pos_x'
p5
I-9579
sS'pos_y'
p6
I9779
sS'isAlive'
p7
I00
sS'geno'
p8
(lp9
S'alignment'
p10
aS'alignment'
p11
a(lp12
S'alignment'
p13
aS'POINT.+'
p14
a(lp15
(lp16
S'target'
p17
aS'target'
p18
aS'alignment'
p19
aaS'alignment'
p20
aS'target'
p21
aaasS'accel_x'
p22
F0
sS'accel_y'
p23
F0
sS'maxAccel'
p24
I2
sS'maxVel'
p25
F0.80000000000000004
sS'age'
p26
I0
sS'gener'
p27
S'm'
sS'lastScale'
p28
F5.5
sS'energy'
p29
F0.5
sb.(i__main__
Data_mobile
p1
(dp2
S'vel_y'
p3
I0
sS'vel_x'
p4
I0
sS'pos_x'
p5
I-9579
sS'pos_y'
p6
I9779
sS'isAlive'
p7
I00
sS'geno'
p8
(lp9
S'separation'
p10
aS'POINT.+'
p11
aS'target'
p12
asS'accel_x'
p13
F0
sS'accel_y'
p14
F0
sS'maxAccel'
p15
I2
sS'maxVel'
p16
F0.80000000000000004
sS'age'
p17
I0
sS'gener'
p18
S'm'
sS'lastScale'
p19
F5.5
sS'energy'
p20
F0.5
sb.(i__main__
Data_mobile
p1
(dp2
S'vel_y'
p3
I0
sS'vel_x'
p4
I0
sS'pos_x'
p5
I-9579
sS'pos_y'
p6
I9779
sS'isAlive'
p7
I00
sS'geno'
p8
(lp9
S'separation'
p10
aS'alignment'
p11
a(lp12
S'target'
p13
aS'alignment'
p14
aS'target'
p15
aasS'accel_x'
p16
F0
sS'accel_y'
p17
F0
sS'maxAccel'
p18
I2
sS'maxVel'
p19
F0.80000000000000004
sS'age'
p20
I0
sS'gener'
p21
S'm'
sS'lastScale'
p22
F5.5
sS'energy'
p23
F0.5
sb.(i__main__
Data_mobile
p1
(dp2
S'vel_y'
p3
I0
sS'vel_x'
p4
I0
sS'pos_x'
p5
I-9579
sS'pos_y'
p6
I9779
sS'isAlive'
p7
I00
sS'geno'
p8
(lp9
S'cohesion'
p10
a(lp11
S'separation'
p12
aS'separation'
p13
a(lp14
S'alignment'
p15
aaa(lp16
S'separation'
p17
aaS'target'
p18
asS'accel_x'
p19
F0
sS'accel_y'
p20
F0
sS'maxAccel'
p21
I2
sS'maxVel'
p22
F0.80000000000000004
sS'age'
p23
I0
sS'gener'
p24
S'm'
sS'lastScale'
p25
F5.5
sS'energy'
p26
F0.5
sb.(i__main__
Data_mobile
p1
(dp2
S'vel_y'
p3
I0
sS'vel_x'
p4
I0
sS'pos_x'
p5
I-9579
sS'pos_y'
p6
I9779
sS'isAlive'
p7
I00
sS'geno'
p8
(lp9
S'alignment'
p10
aS'target'
p11
a(lp12
S'alignment'
p13
aS'alignment'
p14
a(lp15
S'alignment'
p16
aS'target'
p17
a(lp18
S'alignment'
p19
aS'alignment'
p20
aS'target'
p21
aaaasS'accel_x'
p22
F0
sS'accel_y'
p23
F0
sS'maxAccel'
p24
I2
sS'maxVel'
p25
F0.80000000000000004
sS'age'
p26
I0
sS'gener'
p27
S'm'
sS'lastScale'
p28
F5.5
sS'energy'
p29
F0.5
sb.(i__main__
Data_mobile
p1
(dp2
S'vel_y'
p3
I0
sS'vel_x'
p4
I0
sS'pos_x'
p5
I-9579
sS'pos_y'
p6
I9779
sS'isAlive'
p7
I00
sS'geno'
p8
(lp9
(lp10
S'alignment'
p11
aS'target'
p12
a(lp13
S'separation'
p14
aaS'target'
p15
aaS'alignment'
p16
a(lp17
S'target'
p18
aS'alignment'
p19
aS'target'
p20
aasS'accel_x'
p21
F0
sS'accel_y'
p22
F0
sS'maxAccel'
p23
I2
sS'maxVel'
p24
F0.80000000000000004
sS'age'
p25
I0
sS'gener'
p26
S'm'
sS'lastScale'
p27
F5.5
sS'energy'
p28
F0.5
sb.(i__main__
Data_mobile
p1
(dp2
S'vel_y'
p3
I0
sS'vel_x'
p4
I0
sS'pos_x'
p5
I-9579
sS'pos_y'
p6
I9779
sS'isAlive'
p7
I00
sS'geno'
p8
(lp9
S'alignment'
p10
aS'target'
p11
a(lp12
S'separation'
p13
aaS'target'
p14
asS'accel_x'
p15
F0
sS'accel_y'
p16
F0
sS'maxAccel'
p17
I2
sS'maxVel'
p18
F0.80000000000000004
sS'age'
p19
I0
sS'gener'
p20
S'm'
sS'lastScale'
p21
F5.5
sS'energy'
p22
F0.5
sb.(i__main__
Data_mobile
p1
(dp2
S'vel_y'
p3
I0
sS'vel_x'
p4
I0
sS'pos_x'
p5
I-9579
sS'pos_y'
p6
I9779
sS'isAlive'
p7
I00
sS'geno'
p8
(lp9
S'alignment'
p10
aS'target'
p11
a(lp12
S'alignment'
p13
aS'target'
p14
aS'target'
p15
aasS'accel_x'
p16
F0
sS'accel_y'
p17
F0
sS'maxAccel'
p18
I2
sS'maxVel'
p19
F0.80000000000000004
sS'age'
p20
I0
sS'gener'
p21
S'm'
sS'lastScale'
p22
F5.5
sS'energy'
p23
F0.5
sb.(i__main__
Data_mobile
p1
(dp2
S'vel_y'
p3
I0
sS'vel_x'
p4
I0
sS'pos_x'
p5
I-9579
sS'pos_y'
p6
I9779
sS'isAlive'
p7
I00
sS'geno'
p8
(lp9
S'cohesion'
p10
a(lp11
S'separation'
p12
aS'separation'
p13
a(lp14
S'alignment'
p15
aS'target'
p16
a(lp17
S'separation'
p18
aaS'target'
p19
aaa(lp20
S'separation'
p21
aaS'target'
p22
asS'accel_x'
p23
F0
sS'accel_y'
p24
F0
sS'maxAccel'
p25
I2
sS'maxVel'
p26
F0.80000000000000004
sS'age'
p27
I0
sS'gener'
p28
S'm'
sS'lastScale'
p29
F5.5
sS'energy'
p30
F0.5
sb.(i__main__
Data_mobile
p1
(dp2
S'vel_y'
p3
I0
sS'vel_x'
p4
I0
sS'pos_x'
p5
I-9579
sS'pos_y'
p6
I9779
sS'isAlive'
p7
I00
sS'geno'
p8
(lp9
S'separation'
p10
aS'alignment'
p11
a(lp12
S'mostEnergizedNeighbor'
p13
aS'alignment'
p14
aS'target'
p15
aasS'accel_x'
p16
F0
sS'accel_y'
p17
F0
sS'maxAccel'
p18
I2
sS'maxVel'
p19
F0.80000000000000004
sS'age'
p20
I0
sS'gener'
p21
S'm'
sS'lastScale'
p22
F5.5
sS'energy'
p23
F0.5
sb.(i__main__
Data_mobile
p1
(dp2
S'vel_y'
p3
I0
sS'vel_x'
p4
I0
sS'pos_x'
p5
I-9579
sS'pos_y'
p6
I9779
sS'isAlive'
p7
I00
sS'geno'
p8
(lp9
S'target'
p10
aS'alignment'
p11
aS'target'
p12
asS'accel_x'
p13
F0
sS'accel_y'
p14
F0
sS'maxAccel'
p15
I2
sS'maxVel'
p16
F0.80000000000000004
sS'age'
p17
I0
sS'gener'
p18
S'm'
sS'lastScale'
p19
F5.5
sS'energy'
p20
F0.5
sb.(i__main__
Data_mobile
p1
(dp2
S'vel_y'
p3
I0
sS'vel_x'
p4
I0
sS'pos_x'
p5
I-9579
sS'pos_y'
p6
I9779
sS'isAlive'
p7
I00
sS'geno'
p8
(lp9
S'target'
p10
aS'target'
p11
a(lp12
S'separation'
p13
aaS'target'
p14
asS'accel_x'
p15
F0
sS'accel_y'
p16
F0
sS'maxAccel'
p17
I2
sS'maxVel'
p18
F0.80000000000000004
sS'age'
p19
I0
sS'gener'
p20
S'm'
sS'lastScale'
p21
F5.5
sS'energy'
p22
F0.5
sb.(i__main__
Data_mobile
p1
(dp2
S'vel_y'
p3
I0
sS'vel_x'
p4
I0
sS'pos_x'
p5
I-9579
sS'pos_y'
p6
I9779
sS'isAlive'
p7
I00
sS'geno'
p8
(lp9
S'alignment'
p10
aS'target'
p11
a(lp12
S'alignment'
p13
aS'target'
p14
aS'target'
p15
aasS'accel_x'
p16
F0
sS'accel_y'
p17
F0
sS'maxAccel'
p18
I2
sS'maxVel'
p19
F0.80000000000000004
sS'age'
p20
I0
sS'gener'
p21
S'm'
sS'lastScale'
p22
F5.5
sS'energy'
p23
F0.5
sb.(i__main__
Data_mobile
p1
(dp2
S'vel_y'
p3
I0
sS'vel_x'
p4
I0
sS'pos_x'
p5
I-9579
sS'pos_y'
p6
I9779
sS'isAlive'
p7
I00
sS'geno'
p8
(lp9
S'alignment'
p10
aS'target'
p11
a(lp12
(lp13
S'target'
p14
aS'alignment'
p15
a(lp16
S'mostEnergizedNeighbor'
p17
aS'alignment'
p18
aS'target'
p19
aaaS'target'
p20
aS'target'
p21
aasS'accel_x'
p22
F0
sS'accel_y'
p23
F0
sS'maxAccel'
p24
I2
sS'maxVel'
p25
F0.80000000000000004
sS'age'
p26
I0
sS'gener'
p27
S'm'
sS'lastScale'
p28
F5.5
sS'energy'
p29
F0.5
sb.(i__main__
Data_mobile
p1
(dp2
S'vel_y'
p3
I0
sS'vel_x'
p4
I0
sS'pos_x'
p5
I-9579
sS'pos_y'
p6
I9779
sS'isAlive'
p7
I00
sS'geno'
p8
(lp9
S'target'
p10
aS'alignment'
p11
a(lp12
(lp13
S'alignment'
p14
aS'alignment'
p15
aS'target'
p16
aaS'alignment'
p17
aS'target'
p18
aasS'accel_x'
p19
F0
sS'accel_y'
p20
F0
sS'maxAccel'
p21
I2
sS'maxVel'
p22
F0.80000000000000004
sS'age'
p23
I0
sS'gener'
p24
S'm'
sS'lastScale'
p25
F5.5
sS'energy'
p26
F0.5
sb.(i__main__
Data_mobile
p1
(dp2
S'vel_y'
p3
I0
sS'vel_x'
p4
I0
sS'pos_x'
p5
I-9579
sS'pos_y'
p6
I9779
sS'isAlive'
p7
I00
sS'geno'
p8
(lp9
S'alignment'
p10
aS'target'
p11
aS'POINT./'
p12
asS'accel_x'
p13
F0
sS'accel_y'
p14
F0
sS'maxAccel'
p15
I2
sS'maxVel'
p16
F0.80000000000000004
sS'age'
p17
I0
sS'gener'
p18
S'm'
sS'lastScale'
p19
F5.5
sS'energy'
p20
F0.5
sb.(i__main__
Data_mobile
p1
(dp2
S'vel_y'
p3
I0
sS'vel_x'
p4
I0
sS'pos_x'
p5
I-9579
sS'pos_y'
p6
I9779
sS'isAlive'
p7
I00
sS'geno'
p8
(lp9
S'cohesion'
p10
aS'alignment'
p11
aS'target'
p12
aS'target'
p13
asS'accel_x'
p14
F0
sS'accel_y'
p15
F0
sS'maxAccel'
p16
I2
sS'maxVel'
p17
F0.80000000000000004
sS'age'
p18
I0
sS'gener'
p19
S'm'
sS'lastScale'
p20
F5.5
sS'energy'
p21
F0.5
sb.(i__main__
Data_mobile
p1
(dp2
S'vel_y'
p3
I0
sS'vel_x'
p4
I0
sS'pos_x'
p5
I-9579
sS'pos_y'
p6
I9779
sS'isAlive'
p7
I00
sS'geno'
p8
(lp9
S'alignment'
p10
aS'target'
p11
a(lp12
S'alignment'
p13
aS'target'
p14
aS'target'
p15
aasS'accel_x'
p16
F0
sS'accel_y'
p17
F0
sS'maxAccel'
p18
I2
sS'maxVel'
p19
F0.80000000000000004
sS'age'
p20
I0
sS'gener'
p21
S'm'
sS'lastScale'
p22
F5.5
sS'energy'
p23
F0.5
sb.(i__main__
Data_mobile
p1
(dp2
S'vel_y'
p3
I0
sS'vel_x'
p4
I0
sS'pos_x'
p5
I-9579
sS'pos_y'
p6
I9779
sS'isAlive'
p7
I00
sS'geno'
p8
(lp9
S'alignment'
p10
aS'target'
p11
a(lp12
S'alignment'
p13
aS'alignment'
p14
a(lp15
S'alignment'
p16
aS'alignment'
p17
a(lp18
S'alignment'
p19
aS'alignment'
p20
aS'target'
p21
aaaasS'accel_x'
p22
F0
sS'accel_y'
p23
F0
sS'maxAccel'
p24
I2
sS'maxVel'
p25
F0.80000000000000004
sS'age'
p26
I0
sS'gener'
p27
S'm'
sS'lastScale'
p28
F5.5
sS'energy'
p29
F0.5
sb.(i__main__
Data_mobile
p1
(dp2
S'vel_y'
p3
I0
sS'vel_x'
p4
I0
sS'pos_x'
p5
I-9579
sS'pos_y'
p6
I9779
sS'isAlive'
p7
I00
sS'geno'
p8
(lp9
S'target'
p10
aS'alignment'
p11
a(lp12
S'target'
p13
aS'alignment'
p14
aS'target'
p15
aasS'accel_x'
p16
F0
sS'accel_y'
p17
F0
sS'maxAccel'
p18
I2
sS'maxVel'
p19
F0.80000000000000004
sS'age'
p20
I0
sS'gener'
p21
S'm'
sS'lastScale'
p22
F5.5
sS'energy'
p23
F0.5
sb.(i__main__
Data_mobile
p1
(dp2
S'vel_y'
p3
I0
sS'vel_x'
p4
I0
sS'pos_x'
p5
I-9579
sS'pos_y'
p6
I9779
sS'isAlive'
p7
I00
sS'geno'
p8
(lp9
S'cohesion'
p10
aS'target'
p11
a(lp12
(lp13
S'alignment'
p14
aS'alignment'
p15
aS'target'
p16
aaS'alignment'
p17
a(lp18
S'target'
p19
aS'alignment'
p20
a(lp21
S'separation'
p22
aS'alignment'
p23
aS'target'
p24
aaaaS'target'
p25
asS'accel_x'
p26
F0
sS'accel_y'
p27
F0
sS'maxAccel'
p28
I2
sS'maxVel'
p29
F0.80000000000000004
sS'age'
p30
I0
sS'gener'
p31
S'm'
sS'lastScale'
p32
F5.5
sS'energy'
p33
F0.5
sb.(i__main__
Data_mobile
p1
(dp2
S'vel_y'
p3
I0
sS'vel_x'
p4
I0
sS'pos_x'
p5
I-9579
sS'pos_y'
p6
I9779
sS'isAlive'
p7
I00
sS'geno'
p8
(lp9
S'alignment'
p10
aS'target'
p11
a(lp12
S'alignment'
p13
aS'target'
p14
aS'target'
p15
aasS'accel_x'
p16
F0
sS'accel_y'
p17
F0
sS'maxAccel'
p18
I2
sS'maxVel'
p19
F0.80000000000000004
sS'age'
p20
I0
sS'gener'
p21
S'm'
sS'lastScale'
p22
F5.5
sS'energy'
p23
F0.5
sb.(i__main__
Data_mobile
p1
(dp2
S'vel_y'
p3
I0
sS'vel_x'
p4
I0
sS'pos_x'
p5
I-9579
sS'pos_y'
p6
I9779
sS'isAlive'
p7
I00
sS'geno'
p8
(lp9
S'alignment'
p10
aS'target'
p11
a(lp12
(lp13
S'alignment'
p14
aS'alignment'
p15
a(lp16
S'mostEnergizedNeighbor'
p17
aS'alignment'
p18
aS'target'
p19
aaaS'alignment'
p20
a(lp21
S'alignment'
p22
aS'alignment'
p23
a(lp24
S'alignment'
p25
aS'alignment'
p26
a(lp27
S'alignment'
p28
aS'target'
p29
aS'target'
p30
aaaaasS'accel_x'
p31
F0
sS'accel_y'
p32
F0
sS'maxAccel'
p33
I2
sS'maxVel'
p34
F0.80000000000000004
sS'age'
p35
I0
sS'gener'
p36
S'm'
sS'lastScale'
p37
F5.5
sS'energy'
p38
F0.5
sb.(i__main__
Data_mobile
p1
(dp2
S'vel_y'
p3
I0
sS'vel_x'
p4
I0
sS'pos_x'
p5
I-9579
sS'pos_y'
p6
I9779
sS'isAlive'
p7
I00
sS'geno'
p8
(lp9
(lp10
S'alignment'
p11
aS'target'
p12
a(lp13
S'alignment'
p14
aS'separation'
p15
aS'target'
p16
aaaS'alignment'
p17
aS'target'
p18
asS'accel_x'
p19
F0
sS'accel_y'
p20
F0
sS'maxAccel'
p21
I2
sS'maxVel'
p22
F0.80000000000000004
sS'age'
p23
I0
sS'gener'
p24
S'm'
sS'lastScale'
p25
F5.5
sS'energy'
p26
F0.5
sb.(i__main__
Data_mobile
p1
(dp2
S'vel_y'
p3
I0
sS'vel_x'
p4
I0
sS'pos_x'
p5
I-9579
sS'pos_y'
p6
I9779
sS'isAlive'
p7
I00
sS'geno'
p8
(lp9
S'alignment'
p10
aS'target'
p11
aS'target'
p12
aS'target'
p13
asS'accel_x'
p14
F0
sS'accel_y'
p15
F0
sS'maxAccel'
p16
I2
sS'maxVel'
p17
F0.80000000000000004
sS'age'
p18
I0
sS'gener'
p19
S'm'
sS'lastScale'
p20
F5.5
sS'energy'
p21
F0.5
sb.(i__main__
Data_mobile
p1
(dp2
S'vel_y'
p3
I0
sS'vel_x'
p4
I0
sS'pos_x'
p5
I-9579
sS'pos_y'
p6
I9779
sS'isAlive'
p7
I00
sS'geno'
p8
(lp9
S'cohesion'
p10
aS'target'
p11
aS'target'
p12
a(lp13
S'alignment'
p14
aS'target'
p15
a(lp16
S'separation'
p17
aaS'target'
p18
aasS'accel_x'
p19
F0
sS'accel_y'
p20
F0
sS'maxAccel'
p21
I2
sS'maxVel'
p22
F0.80000000000000004
sS'age'
p23
I0
sS'gener'
p24
S'm'
sS'lastScale'
p25
F5.5
sS'energy'
p26
F0.5
sb.(i__main__
Data_mobile
p1
(dp2
S'vel_y'
p3
I0
sS'vel_x'
p4
I0
sS'pos_x'
p5
I-9579
sS'pos_y'
p6
I9779
sS'isAlive'
p7
I00
sS'geno'
p8
(lp9
S'alignment'
p10
aS'target'
p11
a(lp12
S'separation'
p13
aaS'target'
p14
asS'accel_x'
p15
F0
sS'accel_y'
p16
F0
sS'maxAccel'
p17
I2
sS'maxVel'
p18
F0.80000000000000004
sS'age'
p19
I0
sS'gener'
p20
S'm'
sS'lastScale'
p21
F5.5
sS'energy'
p22
F0.5
sb.(i__main__
Data_mobile
p1
(dp2
S'vel_y'
p3
I0
sS'vel_x'
p4
I0
sS'pos_x'
p5
I-9579
sS'pos_y'
p6
I9779
sS'isAlive'
p7
I00
sS'geno'
p8
(lp9
S'target'
p10
aS'alignment'
p11
a(lp12
(lp13
S'alignment'
p14
aS'alignment'
p15
aS'target'
p16
aa(lp17
S'separation'
p18
aa(lp19
S'target'
p20
aS'alignment'
p21
a(lp22
S'separation'
p23
aS'alignment'
p24
aS'target'
p25
aaaasS'accel_x'
p26
F0
sS'accel_y'
p27
F0
sS'maxAccel'
p28
I2
sS'maxVel'
p29
F0.80000000000000004
sS'age'
p30
I0
sS'gener'
p31
S'm'
sS'lastScale'
p32
F5.5
sS'energy'
p33
F0.5
sb.(i__main__
Data_mobile
p1
(dp2
S'vel_y'
p3
I0
sS'vel_x'
p4
I0
sS'pos_x'
p5
I-9579
sS'pos_y'
p6
I9779
sS'isAlive'
p7
I00
sS'geno'
p8
(lp9
S'target'
p10
aS'alignment'
p11
aS'target'
p12
asS'accel_x'
p13
F0
sS'accel_y'
p14
F0
sS'maxAccel'
p15
I2
sS'maxVel'
p16
F0.80000000000000004
sS'age'
p17
I0
sS'gener'
p18
S'm'
sS'lastScale'
p19
F5.5
sS'energy'
p20
F0.5
sb.(i__main__
Data_mobile
p1
(dp2
S'vel_y'
p3
I0
sS'vel_x'
p4
I0
sS'pos_x'
p5
I-9579
sS'pos_y'
p6
I9779
sS'isAlive'
p7
I00
sS'geno'
p8
(lp9
S'alignment'
p10
aS'target'
p11
a(lp12
(lp13
S'alignment'
p14
aS'alignment'
p15
a(lp16
S'mostEnergizedNeighbor'
p17
aS'alignment'
p18
aS'target'
p19
aaaS'alignment'
p20
a(lp21
S'alignment'
p22
aS'alignment'
p23
a(lp24
S'alignment'
p25
aS'alignment'
p26
aS'target'
p27
aaaasS'accel_x'
p28
F0
sS'accel_y'
p29
F0
sS'maxAccel'
p30
I2
sS'maxVel'
p31
F0.80000000000000004
sS'age'
p32
I0
sS'gener'
p33
S'm'
sS'lastScale'
p34
F5.5
sS'energy'
p35
F0.5
sb.(i__main__
Data_mobile
p1
(dp2
S'vel_y'
p3
I0
sS'vel_x'
p4
I0
sS'pos_x'
p5
I-9579
sS'pos_y'
p6
I9779
sS'isAlive'
p7
I00
sS'geno'
p8
(lp9
S'alignment'
p10
aS'alignment'
p11
a(lp12
S'alignment'
p13
aS'POINT.+'
p14
a(lp15
(lp16
S'alignment'
p17
aS'target'
p18
a(lp19
S'alignment'
p20
aS'separation'
p21
aS'target'
p22
aaaS'alignment'
p23
aS'target'
p24
aaasS'accel_x'
p25
F0
sS'accel_y'
p26
F0
sS'maxAccel'
p27
I2
sS'maxVel'
p28
F0.80000000000000004
sS'age'
p29
I0
sS'gener'
p30
S'm'
sS'lastScale'
p31
F5.5
sS'energy'
p32
F0.5
sb.(i__main__
Data_mobile
p1
(dp2
S'vel_y'
p3
I0
sS'vel_x'
p4
I0
sS'pos_x'
p5
I-9579
sS'pos_y'
p6
I9779
sS'isAlive'
p7
I00
sS'geno'
p8
(lp9
S'alignment'
p10
aS'alignment'
p11
a(lp12
S'mostEnergizedNeighbor'
p13
aS'alignment'
p14
a(lp15
S'alignment'
p16
aS'alignment'
p17
a(lp18
S'alignment'
p19
aS'alignment'
p20
aS'target'
p21
aaaasS'accel_x'
p22
F0
sS'accel_y'
p23
F0
sS'maxAccel'
p24
I2
sS'maxVel'
p25
F0.80000000000000004
sS'age'
p26
I0
sS'gener'
p27
S'm'
sS'lastScale'
p28
F5.5
sS'energy'
p29
F0.5
sb.(i__main__
Data_mobile
p1
(dp2
S'vel_y'
p3
I0
sS'vel_x'
p4
I0
sS'pos_x'
p5
I-9579
sS'pos_y'
p6
I9779
sS'isAlive'
p7
I00
sS'geno'
p8
(lp9
S'alignment'
p10
aS'alignment'
p11
a(lp12
S'mostEnergizedNeighbor'
p13
aS'alignment'
p14
a(lp15
S'alignment'
p16
aS'alignment'
p17
a(lp18
S'alignment'
p19
aS'alignment'
p20
aS'target'
p21
aaaasS'accel_x'
p22
F0
sS'accel_y'
p23
F0
sS'maxAccel'
p24
I2
sS'maxVel'
p25
F0.80000000000000004
sS'age'
p26
I0
sS'gener'
p27
S'm'
sS'lastScale'
p28
F5.5
sS'energy'
p29
F0.5
sb.(i__main__
Data_mobile
p1
(dp2
S'vel_y'
p3
I0
sS'vel_x'
p4
I0
sS'pos_x'
p5
I-9579
sS'pos_y'
p6
I9779
sS'isAlive'
p7
I00
sS'geno'
p8
(lp9
S'target'
p10
aS'target'
p11
a(lp12
S'alignment'
p13
aS'alignment'
p14
aS'target'
p15
aasS'accel_x'
p16
F0
sS'accel_y'
p17
F0
sS'maxAccel'
p18
I2
sS'maxVel'
p19
F0.80000000000000004
sS'age'
p20
I0
sS'gener'
p21
S'm'
sS'lastScale'
p22
F5.5
sS'energy'
p23
F0.5
sb.(i__main__
Data_mobile
p1
(dp2
S'vel_y'
p3
I0
sS'vel_x'
p4
I0
sS'pos_x'
p5
I-9579
sS'pos_y'
p6
I9779
sS'isAlive'
p7
I00
sS'geno'
p8
(lp9
S'target'
p10
aS'alignment'
p11
a(lp12
S'alignment'
p13
aS'POINT.+'
p14
a(lp15
(lp16
S'alignment'
p17
aS'target'
p18
a(lp19
S'alignment'
p20
aS'separation'
p21
aS'target'
p22
aaaS'alignment'
p23
aS'target'
p24
aaasS'accel_x'
p25
F0
sS'accel_y'
p26
F0
sS'maxAccel'
p27
I2
sS'maxVel'
p28
F0.80000000000000004
sS'age'
p29
I0
sS'gener'
p30
S'm'
sS'lastScale'
p31
F5.5
sS'energy'
p32
F0.5
sb.(i__main__
Data_mobile
p1
(dp2
S'vel_y'
p3
I0
sS'vel_x'
p4
I0
sS'pos_x'
p5
I-9579
sS'pos_y'
p6
I9779
sS'isAlive'
p7
I00
sS'geno'
p8
(lp9
S'alignment'
p10
aS'target'
p11
aS'alignment'
p12
aS'target'
p13
asS'accel_x'
p14
F0
sS'accel_y'
p15
F0
sS'maxAccel'
p16
I2
sS'maxVel'
p17
F0.80000000000000004
sS'age'
p18
I0
sS'gener'
p19
S'm'
sS'lastScale'
p20
F5.5
sS'energy'
p21
F0.5
sb.(i__main__
Data_mobile
p1
(dp2
S'vel_y'
p3
I0
sS'vel_x'
p4
I0
sS'pos_x'
p5
I-9579
sS'pos_y'
p6
I9779
sS'isAlive'
p7
I00
sS'geno'
p8
(lp9
S'alignment'
p10
aS'target'
p11
a(lp12
(lp13
S'target'
p14
aS'alignment'
p15
a(lp16
S'target'
p17
aS'alignment'
p18
aS'target'
p19
aaaS'target'
p20
aS'target'
p21
aasS'accel_x'
p22
F0
sS'accel_y'
p23
F0
sS'maxAccel'
p24
I2
sS'maxVel'
p25
F0.80000000000000004
sS'age'
p26
I0
sS'gener'
p27
S'm'
sS'lastScale'
p28
F5.5
sS'energy'
p29
F0.5
sb.(i__main__
Data_mobile
p1
(dp2
S'vel_y'
p3
I0
sS'vel_x'
p4
I0
sS'pos_x'
p5
I-9579
sS'pos_y'
p6
I9779
sS'isAlive'
p7
I00
sS'geno'
p8
(lp9
S'cohesion'
p10
aS'target'
p11
aS'target'
p12
aS'target'
p13
asS'accel_x'
p14
F0
sS'accel_y'
p15
F0
sS'maxAccel'
p16
I2
sS'maxVel'
p17
F0.80000000000000004
sS'age'
p18
I0
sS'gener'
p19
S'm'
sS'lastScale'
p20
F5.5
sS'energy'
p21
F0.5
sb.(i__main__
Data_mobile
p1
(dp2
S'vel_y'
p3
I0
sS'vel_x'
p4
I0
sS'pos_x'
p5
I-9579
sS'pos_y'
p6
I9779
sS'isAlive'
p7
I00
sS'geno'
p8
(lp9
S'cohesion'
p10
aS'target'
p11
aS'target'
p12
aS'target'
p13
asS'accel_x'
p14
F0
sS'accel_y'
p15
F0
sS'maxAccel'
p16
I2
sS'maxVel'
p17
F0.80000000000000004
sS'age'
p18
I0
sS'gener'
p19
S'm'
sS'lastScale'
p20
F5.5
sS'energy'
p21
F0.5
sb.