(i__main__
Data_mobile
p1
(dp2
S'vel_y'
p3
F0.72903045957827828
sS'vel_x'
p4
F-0.037611022414771406
sS'pos_x'
p5
F-118.6133091028443
sS'pos_y'
p6
F-85.026936289844855
sS'isAlive'
p7
I01
sS'cumulativeEnergy'
p8
F49
sS'geno'
p9
(lp10
S'POINT.+'
p11
aS'target'
p12
a(lp13
S'currentEnergy'
p14
aa(lp15
S'separation'
p16
a(lp17
S'target'
p18
a(lp19
S'POINT.+'
p20
a(lp21
S'target'
p22
aS'POINT.-'
p23
aa(lp24
S'POINT./'
p25
a(lp26
S'separation'
p27
a(lp28
S'target'
p29
a(lp30
S'POINT.+'
p31
a(lp32
S'target'
p33
aS'POINT.-'
p34
aa(lp35
S'target'
p36
aS'POINT.+'
p37
aaS'target'
p38
aaaS'currentVelocity'
p39
aS'target'
p40
aaaS'target'
p41
aaa(lp42
S'currentEnergy'
p43
aS'target'
p44
aS'currentVelocity'
p45
aS'target'
p46
aaS'target'
p47
aasS'accel_x'
p48
F0.96750454957387433
sS'accel_y'
p49
F-0.57178945238526069
sS'visionAngle'
p50
I130
sS'maxAccel'
p51
I2
sS'maxVel'
p52
F0.72999999999999998
sS'age'
p53
I100
sS'tailSize'
p54
I0
sS'sexualgeno'
p55
NsS'tailBrigh'
p56
I0
sS'maxSteering'
p57
I20
sS'energy'
p58
F1
sS'lastScale'
p59
F15.5
sb.(i__main__
Data_mobile
p1
(dp2
S'vel_y'
p3
F-0.72160600498001959
sS'vel_x'
p4
F-0.11038466187281666
sS'pos_x'
p5
F-53.510218121376433
sS'pos_y'
p6
F-85.617859308606995
sS'isAlive'
p7
I01
sS'cumulativeEnergy'
p8
F46.325395602875332
sS'geno'
p9
(lp10
S'POINT.+'
p11
aS'target'
p12
a(lp13
S'currentEnergy'
p14
aa(lp15
S'separation'
p16
a(lp17
S'POINT.+'
p18
a(lp19
S'POINT.+'
p20
a(lp21
S'target'
p22
aS'POINT.-'
p23
aa(lp24
S'POINT./'
p25
a(lp26
S'currentEnergy'
p27
aS'POINT.+'
p28
aaaS'target'
p29
aaaS'currentVelocity'
p30
aS'target'
p31
aasS'accel_x'
p32
F0.87566113510739285
sS'accel_y'
p33
F1.1896222394479565
sS'visionAngle'
p34
I130
sS'maxAccel'
p35
I2
sS'maxVel'
p36
F0.72999999999999998
sS'age'
p37
I200
sS'tailSize'
p38
I0
sS'sexualgeno'
p39
NsS'tailBrigh'
p40
I0
sS'maxSteering'
p41
I20
sS'energy'
p42
F1
sS'lastScale'
p43
F15.5
sb.(i__main__
Data_mobile
p1
(dp2
S'vel_y'
p3
F-0.42702080129815922
sS'vel_x'
p4
F0.59207536282020545
sS'pos_x'
p5
F27.13439728556088
sS'pos_y'
p6
F29.789090449200053
sS'isAlive'
p7
I01
sS'cumulativeEnergy'
p8
F41.786497775119457
sS'geno'
p9
(lp10
S'POINT.+'
p11
a(lp12
S'separation'
p13
a(lp14
(lp15
S'POINT.+'
p16
aaS'currentEnergy'
p17
aa(lp18
(lp19
S'alignment'
p20
aa(lp21
S'POINT.+'
p22
a(lp23
S'separation'
p24
a(lp25
(lp26
S'currentEnergy'
p27
aa(lp28
S'separation'
p29
aaa(lp30
(lp31
S'alignment'
p32
aaS'target'
p33
aaS'target'
p34
aaS'currentVelocity'
p35
aS'target'
p36
aaaS'currentVelocity'
p37
aa(lp38
S'currentEnergy'
p39
aS'target'
p40
aS'currentVelocity'
p41
aS'target'
p42
aa(lp43
S'POINT.+'
p44
a(lp45
S'separation'
p46
aaS'currentVelocity'
p47
aS'target'
p48
aasS'accel_x'
p49
F1.2684645784804189
sS'accel_y'
p50
F-0.78964012426821029
sS'visionAngle'
p51
I130
sS'maxAccel'
p52
I2
sS'maxVel'
p53
F0.72999999999999998
sS'age'
p54
I150
sS'tailSize'
p55
I0
sS'sexualgeno'
p56
NsS'tailBrigh'
p57
I0
sS'maxSteering'
p58
I20
sS'energy'
p59
F0.6771687778928519
sS'lastScale'
p60
F12.27168777892852
sb.(i__main__
Data_mobile
p1
(dp2
S'vel_y'
p3
F-0.25500075359751462
sS'vel_x'
p4
F0.68401360780667186
sS'pos_x'
p5
F47.632093850306298
sS'pos_y'
p6
F-37.115879727152645
sS'isAlive'
p7
I01
sS'cumulativeEnergy'
p8
F41.102686395636894
sS'geno'
p9
(lp10
S'POINT.+'
p11
a(lp12
S'separation'
p13
a(lp14
(lp15
S'POINT.+'
p16
aaS'currentEnergy'
p17
aa(lp18
(lp19
S'alignment'
p20
aa(lp21
S'POINT.+'
p22
a(lp23
S'separation'
p24
a(lp25
(lp26
(lp27
S'separation'
p28
aaa(lp29
S'separation'
p30
aaa(lp31
(lp32
S'alignment'
p33
aaS'POINT./'
p34
aaS'target'
p35
aaS'currentVelocity'
p36
aS'target'
p37
aaaS'currentVelocity'
p38
aa(lp39
S'currentEnergy'
p40
aS'target'
p41
aS'currentVelocity'
p42
aS'target'
p43
aa(lp44
S'POINT.+'
p45
aS'target'
p46
aS'currentVelocity'
p47
aS'target'
p48
aasS'accel_x'
p49
F0
sS'accel_y'
p50
F0
sS'visionAngle'
p51
I130
sS'maxAccel'
p52
I2
sS'maxVel'
p53
F0.72999999999999998
sS'age'
p54
I100
sS'tailSize'
p55
I0
sS'sexualgeno'
p56
NsS'tailBrigh'
p57
I0
sS'maxSteering'
p58
I20
sS'energy'
p59
F0.54405907041763057
sS'lastScale'
p60
F10.940590704176307
sb.(i__main__
Data_mobile
p1
(dp2
S'vel_y'
p3
F0.5359396456392016
sS'vel_x'
p4
F0.49564977174626745
sS'pos_x'
p5
F42.312683818782112
sS'pos_y'
p6
F-21.75847626801567
sS'isAlive'
p7
I01
sS'cumulativeEnergy'
p8
F40.708502178446139
sS'geno'
p9
(lp10
S'POINT.+'
p11
a(lp12
S'separation'
p13
a(lp14
(lp15
S'POINT.+'
p16
aaS'currentEnergy'
p17
aa(lp18
(lp19
S'alignment'
p20
aa(lp21
S'POINT.+'
p22
a(lp23
S'separation'
p24
a(lp25
(lp26
(lp27
S'separation'
p28
aaa(lp29
S'separation'
p30
aaa(lp31
(lp32
S'alignment'
p33
aaS'POINT./'
p34
aaS'target'
p35
aaS'currentVelocity'
p36
aS'target'
p37
aaaS'currentVelocity'
p38
aa(lp39
S'currentEnergy'
p40
aS'target'
p41
aS'currentVelocity'
p42
aS'target'
p43
aa(lp44
S'currentEnergy'
p45
a(lp46
S'POINT.-'
p47
a(lp48
S'POINT.+'
p49
aS'POINT.+'
p50
a(lp51
S'target'
p52
aS'POINT.-'
p53
aaS'target'
p54
aaaS'currentVelocity'
p55
aS'target'
p56
aasS'accel_x'
p57
F1.3302539449123032
sS'accel_y'
p58
F1.4934605592533248
sS'visionAngle'
p59
I130
sS'maxAccel'
p60
I2
sS'maxVel'
p61
F0.72999999999999998
sS'age'
p62
I100
sS'tailSize'
p63
I0
sS'sexualgeno'
p64
NsS'tailBrigh'
p65
I0
sS'maxSteering'
p66
I20
sS'energy'
p67
F0.53368580154418932
sS'lastScale'
p68
F10.836858015441894
sb.(i__main__
Data_mobile
p1
(dp2
S'vel_y'
p3
F-0.71732004698174956
sS'vel_x'
p4
F-0.13546936996273554
sS'pos_x'
p5
F15.925176153293032
sS'pos_y'
p6
F-54.331162708214194
sS'isAlive'
p7
I01
sS'cumulativeEnergy'
p8
F38.663291883909601
sS'geno'
p9
(lp10
S'POINT.+'
p11
a(lp12
S'separation'
p13
a(lp14
(lp15
S'POINT.+'
p16
aaS'currentEnergy'
p17
aa(lp18
(lp19
S'alignment'
p20
aa(lp21
S'POINT.+'
p22
a(lp23
S'separation'
p24
a(lp25
(lp26
(lp27
S'separation'
p28
aaa(lp29
S'separation'
p30
aaa(lp31
(lp32
S'alignment'
p33
aaS'POINT./'
p34
aaS'target'
p35
aaS'currentVelocity'
p36
aS'target'
p37
aaaS'currentVelocity'
p38
aa(lp39
S'currentEnergy'
p40
aS'target'
p41
aS'currentVelocity'
p42
aS'target'
p43
aa(lp44
S'POINT.+'
p45
a(lp46
S'target'
p47
a(lp48
S'POINT.+'
p49
aS'POINT.+'
p50
a(lp51
S'target'
p52
aS'POINT.-'
p53
aaS'target'
p54
aaaS'currentVelocity'
p55
aS'target'
p56
aasS'accel_x'
p57
F0
sS'accel_y'
p58
F0
sS'visionAngle'
p59
I130
sS'maxAccel'
p60
I2
sS'maxVel'
p61
F0.72999999999999998
sS'age'
p62
I50
sS'tailSize'
p63
I0
sS'sexualgeno'
p64
NsS'tailBrigh'
p65
I0
sS'maxSteering'
p66
I20
sS'energy'
p67
F0.62831079579965476
sS'lastScale'
p68
F11.783107957996547
sb.(i__main__
Data_mobile
p1
(dp2
S'vel_y'
p3
F-0.40540307362734296
sS'vel_x'
p4
F-0.048534992366894819
sS'pos_x'
p5
F-20.325078476599515
sS'pos_y'
p6
F-43.972625792127786
sS'isAlive'
p7
I01
sS'cumulativeEnergy'
p8
F36.937555145072906
sS'geno'
p9
(lp10
S'POINT.+'
p11
aS'target'
p12
aS'separation'
p13
a(lp14
S'separation'
p15
a(lp16
S'currentVelocity'
p17
a(lp18
S'alignment'
p19
a(lp20
S'target'
p21
aS'POINT.-'
p22
aa(lp23
S'POINT./'
p24
aS'POINT.-'
p25
aaS'target'
p26
aaaS'currentVelocity'
p27
aS'target'
p28
aasS'accel_x'
p29
F0.36820536621313238
sS'accel_y'
p30
F1.251281689212135
sS'visionAngle'
p31
I130
sS'maxAccel'
p32
I2
sS'maxVel'
p33
F0.72999999999999998
sS'age'
p34
I50
sS'tailSize'
p35
I0
sS'sexualgeno'
p36
NsS'tailBrigh'
p37
I0
sS'maxSteering'
p38
I20
sS'energy'
p39
F1
sS'lastScale'
p40
F15.5
sb.(i__main__
Data_mobile
p1
(dp2
S'vel_y'
p3
F0.71393321163540546
sS'vel_x'
p4
F-0.15231339180766534
sS'pos_x'
p5
F-10.344902049073918
sS'pos_y'
p6
F1.1897386203470453
sS'isAlive'
p7
I01
sS'cumulativeEnergy'
p8
F35.644191194163021
sS'geno'
p9
(lp10
S'POINT.+'
p11
a(lp12
S'separation'
p13
a(lp14
(lp15
S'POINT.+'
p16
aaS'currentEnergy'
p17
aa(lp18
(lp19
S'alignment'
p20
aa(lp21
S'POINT.+'
p22
a(lp23
S'separation'
p24
a(lp25
(lp26
(lp27
S'separation'
p28
aaa(lp29
S'separation'
p30
aaa(lp31
(lp32
S'alignment'
p33
aaS'POINT./'
p34
aaS'target'
p35
aaS'currentVelocity'
p36
aS'target'
p37
aaaS'currentVelocity'
p38
aa(lp39
S'currentEnergy'
p40
aS'target'
p41
aS'currentVelocity'
p42
aS'target'
p43
aa(lp44
S'currentEnergy'
p45
a(lp46
S'POINT.-'
p47
a(lp48
S'POINT.+'
p49
aS'POINT.+'
p50
a(lp51
S'target'
p52
aS'POINT.-'
p53
aaS'target'
p54
aaaS'currentVelocity'
p55
aS'target'
p56
aasS'accel_x'
p57
F1.9139999048796894
sS'accel_y'
p58
F0.58017614921723537
sS'visionAngle'
p59
I130
sS'maxAccel'
p60
I2
sS'maxVel'
p61
F0.72999999999999998
sS'age'
p62
I50
sS'tailSize'
p63
I0
sS'sexualgeno'
p64
NsS'tailBrigh'
p65
I0
sS'maxSteering'
p66
I20
sS'energy'
p67
F0.97972982645426054
sS'lastScale'
p68
F15.297298264542604
sb.(i__main__
Data_mobile
p1
(dp2
S'vel_y'
p3
F0.63681891257793466
sS'vel_x'
p4
F-0.35687767173508761
sS'pos_x'
p5
F47.746081747070903
sS'pos_y'
p6
F26.117466170241766
sS'isAlive'
p7
I01
sS'cumulativeEnergy'
p8
F31.507423468743504
sS'geno'
p9
(lp10
S'POINT.+'
p11
a(lp12
S'separation'
p13
a(lp14
(lp15
S'POINT.+'
p16
aaS'currentEnergy'
p17
aa(lp18
(lp19
S'alignment'
p20
aa(lp21
(lp22
(lp23
S'alignment'
p24
aaS'POINT./'
p25
aa(lp26
S'separation'
p27
a(lp28
(lp29
S'currentEnergy'
p30
aa(lp31
S'separation'
p32
aaa(lp33
(lp34
S'alignment'
p35
aaS'target'
p36
aaS'target'
p37
aaS'currentVelocity'
p38
aS'target'
p39
aaaS'currentVelocity'
p40
aa(lp41
S'currentEnergy'
p42
aS'target'
p43
aS'currentVelocity'
p44
aS'target'
p45
aa(lp46
S'POINT.+'
p47
a(lp48
S'separation'
p49
aaS'currentVelocity'
p50
aS'target'
p51
aasS'accel_x'
p52
F-1.9781642740247452
sS'accel_y'
p53
F0.29473056334922859
sS'visionAngle'
p54
I130
sS'maxAccel'
p55
I2
sS'maxVel'
p56
F0.72999999999999998
sS'age'
p57
I50
sS'tailSize'
p58
I0
sS'sexualgeno'
p59
NsS'tailBrigh'
p60
I0
sS'maxSteering'
p61
I20
sS'energy'
p62
F0.83853872082766223
sS'lastScale'
p63
F13.885387208276622
sb.(i__main__
Data_mobile
p1
(dp2
S'vel_y'
p3
F0.055523879541130999
sS'vel_x'
p4
F-0.019027557975664036
sS'pos_x'
p5
F-19.792441745239685
sS'pos_y'
p6
F-42.447277588919391
sS'isAlive'
p7
I01
sS'cumulativeEnergy'
p8
F29.341771377868316
sS'geno'
p9
(lp10
S'POINT.+'
p11
a(lp12
S'separation'
p13
a(lp14
(lp15
S'POINT.+'
p16
aaS'currentEnergy'
p17
aa(lp18
(lp19
S'alignment'
p20
aa(lp21
S'POINT.+'
p22
a(lp23
S'separation'
p24
a(lp25
(lp26
(lp27
S'separation'
p28
aaa(lp29
S'separation'
p30
aaa(lp31
(lp32
S'alignment'
p33
aaS'POINT./'
p34
aaS'target'
p35
aaS'currentVelocity'
p36
aS'target'
p37
aaaS'currentVelocity'
p38
aa(lp39
S'currentEnergy'
p40
aS'target'
p41
aS'currentVelocity'
p42
aS'target'
p43
aa(lp44
S'POINT.+'
p45
a(lp46
S'target'
p47
a(lp48
S'POINT.+'
p49
aS'POINT.+'
p50
a(lp51
S'target'
p52
aS'POINT.-'
p53
aaS'target'
p54
aaaS'currentVelocity'
p55
aS'target'
p56
aasS'accel_x'
p57
F-0.16443136514669732
sS'accel_y'
p58
F-0.27406651399626014
sS'visionAngle'
p59
I130
sS'maxAccel'
p60
I2
sS'maxVel'
p61
F0.72999999999999998
sS'age'
p62
I50
sS'tailSize'
p63
I0
sS'sexualgeno'
p64
NsS'tailBrigh'
p65
I0
sS'maxSteering'
p66
I20
sS'energy'
p67
F1
sS'lastScale'
p68
F15.5
sb.(i__main__
Data_mobile
p1
(dp2
S'vel_y'
p3
F-0.53127936595186165
sS'vel_x'
p4
F0.50064182337654117
sS'pos_x'
p5
F-34.854522019267463
sS'pos_y'
p6
F-102.58755121195377
sS'isAlive'
p7
I01
sS'cumulativeEnergy'
p8
F29.281245061703295
sS'geno'
p9
(lp10
S'POINT.+'
p11
a(lp12
S'separation'
p13
a(lp14
(lp15
S'POINT.+'
p16
aaS'currentEnergy'
p17
aaS'target'
p18
aS'currentVelocity'
p19
aa(lp20
S'currentEnergy'
p21
aS'target'
p22
aS'currentVelocity'
p23
aS'target'
p24
aa(lp25
S'POINT.+'
p26
a(lp27
S'separation'
p28
aaS'currentVelocity'
p29
aS'target'
p30
aasS'accel_x'
p31
F0
sS'accel_y'
p32
F0
sS'visionAngle'
p33
I130
sS'maxAccel'
p34
I2
sS'maxVel'
p35
F0.72999999999999998
sS'age'
p36
I50
sS'tailSize'
p37
I0
sS'sexualgeno'
p38
NsS'tailBrigh'
p39
I0
sS'maxSteering'
p40
I20
sS'energy'
p41
F0.44825676022440009
sS'lastScale'
p42
F9.982567602244
sb.(i__main__
Data_mobile
p1
(dp2
S'vel_y'
p3
F-0.68397003045690907
sS'vel_x'
p4
F0.25511761490883966
sS'pos_x'
p5
F-2.9732256358379909
sS'pos_y'
p6
F-6.6715891531611105
sS'isAlive'
p7
I01
sS'cumulativeEnergy'
p8
F29.131245061703293
sS'geno'
p9
(lp10
S'POINT.+'
p11
aS'target'
p12
a(lp13
S'currentEnergy'
p14
aa(lp15
S'separation'
p16
a(lp17
S'POINT.+'
p18
aS'target'
p19
aaS'currentVelocity'
p20
aS'target'
p21
aasS'accel_x'
p22
F-1.7266243915455464
sS'accel_y'
p23
F-1.0093404829491244
sS'visionAngle'
p24
I130
sS'maxAccel'
p25
I2
sS'maxVel'
p26
F0.72999999999999998
sS'age'
p27
I50
sS'tailSize'
p28
I0
sS'sexualgeno'
p29
NsS'tailBrigh'
p30
I0
sS'maxSteering'
p31
I20
sS'energy'
p32
F0.64825676022440004
sS'lastScale'
p33
F11.982567602244
sb.(i__main__
Data_mobile
p1
(dp2
S'vel_y'
p3
F-0.68236312386287457
sS'vel_x'
p4
F0.25938497873257671
sS'pos_x'
p5
F-3.0306491657083883
sS'pos_y'
p6
F-6.5653541653408727
sS'isAlive'
p7
I01
sS'cumulativeEnergy'
p8
F27.8812450617033
sS'geno'
p9
(lp10
S'POINT.+'
p11
aS'target'
p12
a(lp13
S'currentEnergy'
p14
aa(lp15
S'separation'
p16
a(lp17
S'POINT.+'
p18
a(lp19
S'POINT.+'
p20
a(lp21
S'target'
p22
aS'POINT.-'
p23
aa(lp24
S'POINT./'
p25
a(lp26
S'currentEnergy'
p27
aS'POINT.+'
p28
aaaS'target'
p29
aaaS'target'
p30
aS'target'
p31
aasS'accel_x'
p32
F-1.7222910696915079
sS'accel_y'
p33
F-1.0167170064776541
sS'visionAngle'
p34
I130
sS'maxAccel'
p35
I2
sS'maxVel'
p36
F0.72999999999999998
sS'age'
p37
I50
sS'tailSize'
p38
I0
sS'sexualgeno'
p39
NsS'tailBrigh'
p40
I0
sS'maxSteering'
p41
I20
sS'energy'
p42
F0.5982567602244
sS'lastScale'
p43
F11.482567602244
sb.(i__main__
Data_mobile
p1
(dp2
S'vel_y'
p3
F-0.42977349690276878
sS'vel_x'
p4
F0.59008028382582456
sS'pos_x'
p5
F27.086745199533521
sS'pos_y'
p6
F29.824079327272482
sS'isAlive'
p7
I01
sS'cumulativeEnergy'
p8
F26.986569738469512
sS'geno'
p9
(lp10
S'POINT.+'
p11
aS'target'
p12
aS'separation'
p13
a(lp14
S'separation'
p15
a(lp16
S'currentVelocity'
p17
a(lp18
S'POINT.+'
p19
a(lp20
S'target'
p21
aS'POINT.-'
p22
aa(lp23
S'POINT./'
p24
aS'POINT.-'
p25
aaS'target'
p26
aaaS'currentVelocity'
p27
aS'target'
p28
aasS'accel_x'
p29
F1.3161166645077778
sS'accel_y'
p30
F-0.82462900234063952
sS'visionAngle'
p31
I130
sS'maxAccel'
p32
I2
sS'maxVel'
p33
F0.72999999999999998
sS'age'
p34
I150
sS'tailSize'
p35
I0
sS'sexualgeno'
p36
NsS'tailBrigh'
p37
I0
sS'maxSteering'
p38
I20
sS'energy'
p39
F0.40310408868559672
sS'lastScale'
p40
F9.5310408868559673
sb.(i__main__
Data_mobile
p1
(dp2
S'vel_y'
p3
F0.007035125186649966
sS'vel_x'
p4
F0.7299660999071178
sS'pos_x'
p5
F103.33167017961976
sS'pos_y'
p6
F-59.817489365152085
sS'isAlive'
p7
I01
sS'cumulativeEnergy'
p8
F25.270341194943551
sS'geno'
p9
(lp10
S'POINT.+'
p11
aS'target'
p12
aS'separation'
p13
a(lp14
S'separation'
p15
a(lp16
S'currentVelocity'
p17
a(lp18
S'POINT.+'
p19
a(lp20
S'POINT.+'
p21
aS'POINT.-'
p22
aa(lp23
S'POINT./'
p24
aS'POINT.-'
p25
aaS'target'
p26
aaaS'currentVelocity'
p27
aS'target'
p28
aasS'accel_x'
p29
F-0.78759679433074914
sS'accel_y'
p30
F1.8383936709964837
sS'visionAngle'
p31
I130
sS'maxAccel'
p32
I2
sS'maxVel'
p33
F0.72999999999999998
sS'age'
p34
I100
sS'tailSize'
p35
I0
sS'sexualgeno'
p36
NsS'tailBrigh'
p37
I0
sS'maxSteering'
p38
I20
sS'energy'
p39
F0.46933263221155713
sS'lastScale'
p40
F10.193326322115572
sb.(i__main__
Data_mobile
p1
(dp2
S'vel_y'
p3
F0.59965941785871224
sS'vel_x'
p4
F-0.23266849392730929
sS'pos_x'
p5
F-165.24148816265378
sS'pos_y'
p6
F-33.943558832531807
sS'isAlive'
p7
I01
sS'cumulativeEnergy'
p8
F21.020341194943526
sS'geno'
p9
(lp10
S'POINT.+'
p11
aS'target'
p12
a(lp13
S'currentEnergy'
p14
aa(lp15
S'separation'
p16
a(lp17
S'target'
p18
a(lp19
S'POINT.+'
p20
a(lp21
S'target'
p22
aS'POINT.-'
p23
aa(lp24
S'POINT./'
p25
aS'separation'
p26
aaS'target'
p27
aaa(lp28
S'currentEnergy'
p29
aS'target'
p30
aS'currentVelocity'
p31
aS'target'
p32
aaS'target'
p33
aasS'accel_x'
p34
F0.8480387964638112
sS'accel_y'
p35
F-0.92491662563059407
sS'visionAngle'
p36
I130
sS'maxAccel'
p37
I2
sS'maxVel'
p38
F0.72999999999999998
sS'age'
p39
I100
sS'tailSize'
p40
I0
sS'sexualgeno'
p41
NsS'tailBrigh'
p42
I0
sS'maxSteering'
p43
I20
sS'energy'
p44
F1
sS'lastScale'
p45
F15.5
sb.(i__main__
Data_mobile
p1
(dp2
S'vel_y'
p3
F0.52698056269871185
sS'vel_x'
p4
F-0.50516481126237289
sS'pos_x'
p5
F-32.253147969395293
sS'pos_y'
p6
F8.844536221172751
sS'isAlive'
p7
I01
sS'cumulativeEnergy'
p8
F15.220341194943542
sS'geno'
p9
(lp10
S'POINT.+'
p11
a(lp12
S'separation'
p13
a(lp14
(lp15
S'POINT.+'
p16
aaS'currentEnergy'
p17
aa(lp18
(lp19
S'alignment'
p20
aa(lp21
S'POINT.+'
p22
a(lp23
S'separation'
p24
a(lp25
(lp26
(lp27
S'separation'
p28
aaa(lp29
S'separation'
p30
aaa(lp31
(lp32
S'alignment'
p33
aaS'POINT./'
p34
aaS'target'
p35
aaS'currentVelocity'
p36
aS'target'
p37
aaaS'currentVelocity'
p38
aa(lp39
S'currentEnergy'
p40
aS'target'
p41
aS'currentVelocity'
p42
aS'target'
p43
aa(lp44
S'POINT.+'
p45
a(lp46
S'target'
p47
a(lp48
S'POINT.+'
p49
aS'target'
p50
a(lp51
S'target'
p52
aS'POINT.-'
p53
aaS'target'
p54
aaaS'currentVelocity'
p55
aS'target'
p56
aasS'accel_x'
p57
F-0.37669390620815008
sS'accel_y'
p58
F-1.9642051066590895
sS'visionAngle'
p59
I130
sS'maxAccel'
p60
I2
sS'maxVel'
p61
F0.72999999999999998
sS'age'
p62
I100
sS'tailSize'
p63
I0
sS'sexualgeno'
p64
NsS'tailBrigh'
p65
I0
sS'maxSteering'
p66
I20
sS'energy'
p67
F0.31933263221155689
sS'lastScale'
p68
F8.6933263221155688
sb.(i__main__
Data_mobile
p1
(dp2
S'vel_y'
p3
F0.72925385524869102
sS'vel_x'
p4
F-0.032997190864090122
sS'pos_x'
p5
F106.82874442907575
sS'pos_y'
p6
F-24.455466628106517
sS'isAlive'
p7
I01
sS'cumulativeEnergy'
p8
F14.681245061703292
sS'geno'
p9
(lp10
S'POINT.+'
p11
aS'target'
p12
a(lp13
S'POINT./'
p14
aa(lp15
S'separation'
p16
a(lp17
S'POINT.+'
p18
a(lp19
S'currentVelocity'
p20
a(lp21
S'target'
p22
aS'POINT.-'
p23
aa(lp24
S'POINT./'
p25
a(lp26
S'currentEnergy'
p27
aS'POINT.+'
p28
aaaS'target'
p29
aaaS'currentVelocity'
p30
aS'target'
p31
aasS'accel_x'
p32
F-0.01036188899323065
sS'accel_y'
p33
F1.2718525896045172
sS'visionAngle'
p34
I130
sS'maxAccel'
p35
I2
sS'maxVel'
p36
F0.72999999999999998
sS'age'
p37
I50
sS'tailSize'
p38
I0
sS'sexualgeno'
p39
NsS'tailBrigh'
p40
I0
sS'maxSteering'
p41
I20
sS'energy'
p42
F0.14825676022439965
sS'lastScale'
p43
F6.9825676022439964
sb.(i__main__
Data_mobile
p1
(dp2
S'vel_y'
p3
F-0.28438463076704684
sS'vel_x'
p4
F0.67232832885688398
sS'pos_x'
p5
F-137.66939142760677
sS'pos_y'
p6
F-77.712842760750192
sS'isAlive'
p7
I01
sS'cumulativeEnergy'
p8
F13.520341194943519
sS'geno'
p9
(lp10
S'POINT.+'
p11
aS'target'
p12
a(lp13
S'currentEnergy'
p14
aa(lp15
S'separation'
p16
a(lp17
S'POINT.+'
p18
a(lp19
S'POINT.+'
p20
a(lp21
S'target'
p22
aS'POINT.-'
p23
aa(lp24
S'target'
p25
a(lp26
S'POINT.+'
p27
a(lp28
S'target'
p29
aS'POINT.-'
p30
aa(lp31
S'POINT./'
p32
aS'separation'
p33
aaS'target'
p34
aaaS'target'
p35
aaaS'currentVelocity'
p36
aS'target'
p37
aasS'accel_x'
p38
F1.8608863957407868
sS'accel_y'
p39
F-0.7328723095784585
sS'visionAngle'
p40
I130
sS'maxAccel'
p41
I2
sS'maxVel'
p42
F0.72999999999999998
sS'age'
p43
I100
sS'tailSize'
p44
I0
sS'sexualgeno'
p45
NsS'tailBrigh'
p46
I0
sS'maxSteering'
p47
I20
sS'energy'
p48
F0.019332632211556441
sS'lastScale'
p49
F5.6933263221155643
sb.(i__main__
Data_mobile
p1
(dp2
S'vel_y'
p3
F0.65095666374735406
sS'vel_x'
p4
F-0.33038677625309737
sS'pos_x'
p5
F-10.375394068565321
sS'pos_y'
p6
F99.57103787244877
sS'isAlive'
p7
I01
sS'cumulativeEnergy'
p8
F12.231245061703294
sS'geno'
p9
(lp10
S'POINT.+'
p11
a(lp12
(lp13
(lp14
S'POINT.+'
p15
aaS'currentEnergy'
p16
aa(lp17
(lp18
S'POINT.+'
p19
aaS'currentEnergy'
p20
aa(lp21
(lp22
S'alignment'
p23
aa(lp24
S'POINT.+'
p25
a(lp26
S'separation'
p27
a(lp28
(lp29
(lp30
S'separation'
p31
aaa(lp32
S'separation'
p33
aaa(lp34
(lp35
S'alignment'
p36
aaS'POINT./'
p37
aaS'target'
p38
aaS'currentVelocity'
p39
aS'target'
p40
aaaS'currentVelocity'
p41
aa(lp42
S'currentEnergy'
p43
aS'target'
p44
aS'currentVelocity'
p45
aS'target'
p46
aa(lp47
S'POINT.+'
p48
aS'target'
p49
aS'currentVelocity'
p50
aS'target'
p51
aasS'accel_x'
p52
F-0.33038677625309737
sS'accel_y'
p53
F0.65095666374735406
sS'visionAngle'
p54
I130
sS'maxAccel'
p55
I2
sS'maxVel'
p56
F0.72999999999999998
sS'age'
p57
I50
sS'tailSize'
p58
I0
sS'sexualgeno'
p59
NsS'tailBrigh'
p60
I0
sS'maxSteering'
p61
I20
sS'energy'
p62
I0
sS'lastScale'
p63
F5.5
sb.(i__main__
Data_mobile
p1
(dp2
S'vel_y'
p3
F0.32707074283569215
sS'vel_x'
p4
F0.51656476101072624
sS'pos_x'
p5
F28.107808235435492
sS'pos_y'
p6
F26.483251824260012
sS'isAlive'
p7
I01
sS'cumulativeEnergy'
p8
F0.5
sS'geno'
p9
(lp10
S'POINT.+'
p11
a(lp12
S'separation'
p13
a(lp14
(lp15
S'POINT.+'
p16
aaS'currentEnergy'
p17
aa(lp18
(lp19
S'alignment'
p20
aa(lp21
S'POINT.+'
p22
aS'separation'
p23
aS'currentVelocity'
p24
aS'target'
p25
aaaS'currentVelocity'
p26
aa(lp27
S'currentEnergy'
p28
aS'target'
p29
aS'currentVelocity'
p30
aS'target'
p31
aa(lp32
S'POINT.+'
p33
a(lp34
S'separation'
p35
aaS'currentVelocity'
p36
aS'target'
p37
aasS'accel_x'
p38
F0
sS'accel_y'
p39
F0
sS'visionAngle'
p40
I130
sS'maxAccel'
p41
I2
sS'maxVel'
p42
F0.72999999999999998
sS'age'
p43
I0
sS'tailSize'
p44
I0
sS'sexualgeno'
p45
NsS'tailBrigh'
p46
I0
sS'maxSteering'
p47
I20
sS'energy'
p48
F0.5
sS'lastScale'
p49
F5.5
sb.(i__main__
Data_mobile
p1
(dp2
S'vel_y'
p3
F0.56484745939696057
sS'vel_x'
p4
F0.05181736488946382
sS'pos_x'
p5
F-71.461016563518982
sS'pos_y'
p6
F-47.881659597976878
sS'isAlive'
p7
I01
sS'cumulativeEnergy'
p8
F0.5
sS'geno'
p9
(lp10
(lp11
S'target'
p12
a(lp13
S'POINT.+'
p14
a(lp15
S'target'
p16
aS'POINT.-'
p17
aa(lp18
S'target'
p19
aS'POINT.+'
p20
aaS'target'
p21
aaa(lp22
S'separation'
p23
a(lp24
(lp25
S'POINT.+'
p26
aaS'currentEnergy'
p27
aa(lp28
(lp29
S'alignment'
p30
aa(lp31
S'POINT.+'
p32
a(lp33
S'separation'
p34
a(lp35
(lp36
S'currentEnergy'
p37
aa(lp38
S'separation'
p39
aaa(lp40
(lp41
S'alignment'
p42
aaS'target'
p43
aaS'target'
p44
aaS'currentVelocity'
p45
aS'target'
p46
aaaS'currentVelocity'
p47
aa(lp48
S'currentEnergy'
p49
aS'target'
p50
aS'currentVelocity'
p51
aS'target'
p52
aa(lp53
S'POINT.+'
p54
a(lp55
S'separation'
p56
aaS'currentVelocity'
p57
aS'target'
p58
aasS'accel_x'
p59
F0
sS'accel_y'
p60
F0
sS'visionAngle'
p61
I130
sS'maxAccel'
p62
I2
sS'maxVel'
p63
F0.72999999999999998
sS'age'
p64
I0
sS'tailSize'
p65
I0
sS'sexualgeno'
p66
NsS'tailBrigh'
p67
I0
sS'maxSteering'
p68
I20
sS'energy'
p69
F0.5
sS'lastScale'
p70
F5.5
sb.(i__main__
Data_mobile
p1
(dp2
S'vel_y'
p3
F0.22418863558166441
sS'vel_x'
p4
F0.52686681239243494
sS'pos_x'
p5
F28.678216524405475
sS'pos_y'
p6
F24.546066143427247
sS'isAlive'
p7
I01
sS'cumulativeEnergy'
p8
F0.5
sS'geno'
p9
(lp10
S'POINT.+'
p11
a(lp12
S'target'
p13
a(lp14
(lp15
S'POINT.+'
p16
aaS'currentEnergy'
p17
aa(lp18
(lp19
S'alignment'
p20
aa(lp21
S'POINT.+'
p22
a(lp23
S'separation'
p24
a(lp25
(lp26
(lp27
S'separation'
p28
aaa(lp29
S'separation'
p30
aaa(lp31
(lp32
S'alignment'
p33
aaS'POINT./'
p34
aaS'target'
p35
aaS'currentVelocity'
p36
aS'target'
p37
aaaS'currentVelocity'
p38
aa(lp39
S'currentEnergy'
p40
aS'target'
p41
aS'currentVelocity'
p42
aS'target'
p43
aa(lp44
S'currentEnergy'
p45
a(lp46
S'POINT.-'
p47
a(lp48
S'POINT.+'
p49
aS'POINT.+'
p50
a(lp51
S'target'
p52
aS'POINT.-'
p53
aaS'target'
p54
aaaS'currentVelocity'
p55
aS'target'
p56
aasS'accel_x'
p57
F0
sS'accel_y'
p58
F0
sS'visionAngle'
p59
I130
sS'maxAccel'
p60
I2
sS'maxVel'
p61
F0.72999999999999998
sS'age'
p62
I0
sS'tailSize'
p63
I0
sS'sexualgeno'
p64
NsS'tailBrigh'
p65
I0
sS'maxSteering'
p66
I20
sS'energy'
p67
F0.5
sS'lastScale'
p68
F5.5
sb.(i__main__
Data_mobile
p1
(dp2
S'vel_y'
p3
F-0.47404927724152401
sS'vel_x'
p4
F0.53040322084312408
sS'pos_x'
p5
F8.6866445679207427
sS'pos_y'
p6
F7.4486485293099172
sS'isAlive'
p7
I01
sS'cumulativeEnergy'
p8
F0.5
sS'geno'
p9
(lp10
S'POINT.+'
p11
aS'target'
p12
a(lp13
S'currentEnergy'
p14
aS'target'
p15
aS'currentVelocity'
p16
aS'target'
p17
aa(lp18
S'POINT.+'
p19
a(lp20
S'separation'
p21
aaS'currentVelocity'
p22
aS'target'
p23
aasS'accel_x'
p24
F0
sS'accel_y'
p25
F0
sS'visionAngle'
p26
I130
sS'maxAccel'
p27
I2
sS'maxVel'
p28
F0.72999999999999998
sS'age'
p29
I0
sS'tailSize'
p30
I0
sS'sexualgeno'
p31
NsS'tailBrigh'
p32
I0
sS'maxSteering'
p33
I20
sS'energy'
p34
F0.5
sS'lastScale'
p35
F5.5
sb.(i__main__
Data_mobile
p1
(dp2
S'vel_y'
p3
F-0.58208035718447948
sS'vel_x'
p4
F0.38873356290645456
sS'pos_x'
p5
F26.719778261157039
sS'pos_y'
p6
F29.286982014890963
sS'isAlive'
p7
I01
sS'cumulativeEnergy'
p8
F0.5
sS'geno'
p9
(lp10
S'POINT.+'
p11
aS'target'
p12
a(lp13
S'currentEnergy'
p14
aa(lp15
S'separation'
p16
a(lp17
S'POINT.+'
p18
aS'target'
p19
aa(lp20
S'POINT.+'
p21
a(lp22
S'separation'
p23
aaS'currentVelocity'
p24
aS'target'
p25
aaS'target'
p26
aasS'accel_x'
p27
F0
sS'accel_y'
p28
F0
sS'visionAngle'
p29
I130
sS'maxAccel'
p30
I2
sS'maxVel'
p31
F0.72999999999999998
sS'age'
p32
I0
sS'tailSize'
p33
I0
sS'sexualgeno'
p34
NsS'tailBrigh'
p35
I0
sS'maxSteering'
p36
I20
sS'energy'
p37
F0.5
sS'lastScale'
p38
F5.5
sb.(i__main__
Data_mobile
p1
(dp2
S'vel_y'
p3
F-0.71117729228610127
sS'vel_x'
p4
F-0.10834479326460429
sS'pos_x'
p5
F-44.005928414300818
sS'pos_y'
p6
F-73.690581964100446
sS'isAlive'
p7
I01
sS'cumulativeEnergy'
p8
F0.5
sS'geno'
p9
(lp10
S'POINT.+'
p11
aS'target'
p12
a(lp13
S'currentEnergy'
p14
aa(lp15
S'separation'
p16
a(lp17
S'POINT.+'
p18
a(lp19
S'currentEnergy'
p20
aS'target'
p21
a(lp22
S'POINT./'
p23
a(lp24
S'currentEnergy'
p25
aS'POINT.+'
p26
aaaS'target'
p27
aaaS'currentVelocity'
p28
aS'target'
p29
aasS'accel_x'
p30
F0
sS'accel_y'
p31
F0
sS'visionAngle'
p32
I130
sS'maxAccel'
p33
I2
sS'maxVel'
p34
F0.72999999999999998
sS'age'
p35
I0
sS'tailSize'
p36
I0
sS'sexualgeno'
p37
NsS'tailBrigh'
p38
I0
sS'maxSteering'
p39
I20
sS'energy'
p40
F0.5
sS'lastScale'
p41
F5.5
sb.(i__main__
Data_mobile
p1
(dp2
S'vel_y'
p3
F-0.63863888168806471
sS'vel_x'
p4
F-0.094156193864906007
sS'pos_x'
p5
F-36.284406811640167
sS'pos_y'
p6
F-64.000564875504182
sS'isAlive'
p7
I01
sS'cumulativeEnergy'
p8
F0.5
sS'geno'
p9
(lp10
S'POINT.+'
p11
aS'target'
p12
aS'separation'
p13
a(lp14
S'target'
p15
a(lp16
S'currentVelocity'
p17
a(lp18
S'alignment'
p19
a(lp20
S'target'
p21
aS'POINT.-'
p22
aa(lp23
S'POINT./'
p24
aS'POINT.-'
p25
aaS'target'
p26
aaaS'currentVelocity'
p27
aS'target'
p28
aasS'accel_x'
p29
F0
sS'accel_y'
p30
F0
sS'visionAngle'
p31
I130
sS'maxAccel'
p32
I2
sS'maxVel'
p33
F0.72999999999999998
sS'age'
p34
I0
sS'tailSize'
p35
I0
sS'sexualgeno'
p36
NsS'tailBrigh'
p37
I0
sS'maxSteering'
p38
I20
sS'energy'
p39
F0.5
sS'lastScale'
p40
F5.5
sb.(i__main__
Data_mobile
p1
(dp2
S'vel_y'
p3
F-0.14739473498690137
sS'vel_x'
p4
F0.56407513829437184
sS'pos_x'
p5
F27.89986963307819
sS'pos_y'
p6
F27.189440164731597
sS'isAlive'
p7
I01
sS'cumulativeEnergy'
p8
F0.5
sS'geno'
p9
(lp10
S'POINT.+'
p11
a(lp12
S'POINT.+'
p13
a(lp14
(lp15
S'POINT.+'
p16
aaS'currentEnergy'
p17
aa(lp18
(lp19
S'alignment'
p20
aa(lp21
S'POINT.+'
p22
a(lp23
S'separation'
p24
a(lp25
(lp26
S'currentEnergy'
p27
aa(lp28
S'separation'
p29
aaa(lp30
(lp31
S'alignment'
p32
aaS'target'
p33
aaS'target'
p34
aaS'currentVelocity'
p35
aS'target'
p36
aaaS'currentVelocity'
p37
aa(lp38
S'currentEnergy'
p39
aS'target'
p40
aS'currentVelocity'
p41
aS'target'
p42
aa(lp43
S'POINT.+'
p44
a(lp45
S'separation'
p46
aaS'currentVelocity'
p47
aS'target'
p48
aasS'accel_x'
p49
F0
sS'accel_y'
p50
F0
sS'visionAngle'
p51
I130
sS'maxAccel'
p52
I2
sS'maxVel'
p53
F0.72999999999999998
sS'age'
p54
I0
sS'tailSize'
p55
I0
sS'sexualgeno'
p56
NsS'tailBrigh'
p57
I0
sS'maxSteering'
p58
I20
sS'energy'
p59
F0.5
sS'lastScale'
p60
F5.5
sb.(i__main__
Data_mobile
p1
(dp2
S'vel_y'
p3
F-0.32058614584645795
sS'vel_x'
p4
F0.53410176275311005
sS'pos_x'
p5
F-42.222182340639904
sS'pos_y'
p6
F-24.848111728576892
sS'isAlive'
p7
I01
sS'cumulativeEnergy'
p8
F0.5
sS'geno'
p9
(lp10
S'POINT.+'
p11
aS'target'
p12
a(lp13
S'currentEnergy'
p14
aa(lp15
S'separation'
p16
a(lp17
S'target'
p18
a(lp19
S'POINT.+'
p20
a(lp21
S'target'
p22
aS'POINT.-'
p23
aa(lp24
S'POINT./'
p25
a(lp26
S'separation'
p27
a(lp28
S'target'
p29
a(lp30
S'POINT.+'
p31
a(lp32
S'currentEnergy'
p33
aa(lp34
S'target'
p35
aS'POINT.+'
p36
aaS'target'
p37
aaaS'currentVelocity'
p38
aS'target'
p39
aaaS'target'
p40
aaa(lp41
S'currentEnergy'
p42
aS'target'
p43
aS'currentVelocity'
p44
aS'target'
p45
aaS'target'
p46
aasS'accel_x'
p47
F0
sS'accel_y'
p48
F0
sS'visionAngle'
p49
I130
sS'maxAccel'
p50
I2
sS'maxVel'
p51
F0.72999999999999998
sS'age'
p52
I0
sS'tailSize'
p53
I0
sS'sexualgeno'
p54
NsS'tailBrigh'
p55
I0
sS'maxSteering'
p56
I20
sS'energy'
p57
F0.5
sS'lastScale'
p58
F5.5
sb.(i__main__
Data_mobile
p1
(dp2
S'vel_y'
p3
F-0.20219315953226275
sS'vel_x'
p4
F0.56956235274176936
sS'pos_x'
p5
F34.972263622703622
sS'pos_y'
p6
F3.170609038259089
sS'isAlive'
p7
I01
sS'cumulativeEnergy'
p8
F0.5
sS'geno'
p9
(lp10
S'POINT.+'
p11
a(lp12
S'separation'
p13
a(lp14
(lp15
S'POINT.+'
p16
aaS'currentEnergy'
p17
aa(lp18
(lp19
S'alignment'
p20
aa(lp21
S'POINT.+'
p22
a(lp23
S'separation'
p24
a(lp25
(lp26
(lp27
S'separation'
p28
aaa(lp29
S'separation'
p30
aaa(lp31
(lp32
S'alignment'
p33
aaS'POINT./'
p34
aaS'target'
p35
aaS'currentVelocity'
p36
aS'target'
p37
aaaS'currentVelocity'
p38
aa(lp39
S'currentEnergy'
p40
aS'target'
p41
aS'currentVelocity'
p42
aS'target'
p43
aa(lp44
S'currentEnergy'
p45
a(lp46
S'POINT.-'
p47
a(lp48
S'POINT.+'
p49
aS'currentVelocity'
p50
a(lp51
S'currentEnergy'
p52
aS'POINT.-'
p53
aaS'target'
p54
aaaS'currentVelocity'
p55
aS'target'
p56
aasS'accel_x'
p57
F0
sS'accel_y'
p58
F0
sS'visionAngle'
p59
I130
sS'maxAccel'
p60
I2
sS'maxVel'
p61
F0.72999999999999998
sS'age'
p62
I0
sS'tailSize'
p63
I0
sS'sexualgeno'
p64
NsS'tailBrigh'
p65
I0
sS'maxSteering'
p66
I20
sS'energy'
p67
F0.5
sS'lastScale'
p68
F5.5
sb.(i__main__
Data_mobile
p1
(dp2
S'vel_y'
p3
I0
sS'vel_x'
p4
I0
sS'pos_x'
p5
I-9579
sS'pos_y'
p6
I9779
sS'isAlive'
p7
I00
sS'cumulativeEnergy'
p8
F0.5
sS'geno'
p9
(lp10
S'POINT.+'
p11
a(lp12
S'separation'
p13
a(lp14
(lp15
S'POINT.+'
p16
aaS'currentEnergy'
p17
aa(lp18
(lp19
S'alignment'
p20
aa(lp21
S'POINT.+'
p22
a(lp23
S'separation'
p24
a(lp25
(lp26
(lp27
S'separation'
p28
aaa(lp29
S'separation'
p30
aaa(lp31
(lp32
S'alignment'
p33
aaS'POINT./'
p34
aaS'target'
p35
aaS'currentVelocity'
p36
aS'target'
p37
aaaS'currentVelocity'
p38
aa(lp39
S'currentEnergy'
p40
aS'target'
p41
aS'currentVelocity'
p42
aS'target'
p43
aa(lp44
S'POINT.+'
p45
a(lp46
S'target'
p47
a(lp48
S'POINT.+'
p49
aS'POINT.+'
p50
a(lp51
S'target'
p52
aS'POINT.-'
p53
aaS'target'
p54
aaaS'currentVelocity'
p55
aS'target'
p56
aasS'accel_x'
p57
F0
sS'accel_y'
p58
F0
sS'visionAngle'
p59
I130
sS'maxAccel'
p60
I2
sS'maxVel'
p61
F0.72999999999999998
sS'age'
p62
I0
sS'tailSize'
p63
I0
sS'sexualgeno'
p64
NsS'tailBrigh'
p65
I0
sS'maxSteering'
p66
I20
sS'energy'
p67
F0.5
sS'lastScale'
p68
F5.5
sb.(i__main__
Data_mobile
p1
(dp2
S'vel_y'
p3
I0
sS'vel_x'
p4
I0
sS'pos_x'
p5
I-9579
sS'pos_y'
p6
I9779
sS'isAlive'
p7
I00
sS'cumulativeEnergy'
p8
F0.5
sS'geno'
p9
(lp10
S'POINT.+'
p11
aS'target'
p12
a(lp13
S'currentEnergy'
p14
aa(lp15
S'separation'
p16
a(lp17
S'target'
p18
a(lp19
S'POINT.+'
p20
a(lp21
S'target'
p22
aS'POINT.-'
p23
aa(lp24
S'POINT./'
p25
aS'separation'
p26
aaS'target'
p27
aaa(lp28
S'currentEnergy'
p29
aS'target'
p30
aS'currentVelocity'
p31
aS'currentVelocity'
p32
aaS'target'
p33
aasS'accel_x'
p34
F0
sS'accel_y'
p35
F0
sS'visionAngle'
p36
I130
sS'maxAccel'
p37
I2
sS'maxVel'
p38
F0.72999999999999998
sS'age'
p39
I0
sS'tailSize'
p40
I0
sS'sexualgeno'
p41
NsS'tailBrigh'
p42
I0
sS'maxSteering'
p43
I20
sS'energy'
p44
F0.5
sS'lastScale'
p45
F5.5
sb.(i__main__
Data_mobile
p1
(dp2
S'vel_y'
p3
I0
sS'vel_x'
p4
I0
sS'pos_x'
p5
I-9579
sS'pos_y'
p6
I9779
sS'isAlive'
p7
I00
sS'cumulativeEnergy'
p8
F0.5
sS'geno'
p9
(lp10
S'POINT.+'
p11
a(lp12
S'cohesion'
p13
a(lp14
(lp15
(lp16
S'separation'
p17
aaaS'currentEnergy'
p18
aa(lp19
(lp20
S'alignment'
p21
aa(lp22
S'POINT.+'
p23
a(lp24
S'separation'
p25
a(lp26
(lp27
S'currentEnergy'
p28
aaS'target'
p29
aa(lp30
(lp31
S'alignment'
p32
aaS'POINT./'
p33
aaS'alignment'
p34
aaS'currentVelocity'
p35
aS'target'
p36
aaaS'target'
p37
aa(lp38
S'currentEnergy'
p39
aS'target'
p40
aS'currentVelocity'
p41
aS'target'
p42
aa(lp43
S'separation'
p44
a(lp45
S'target'
p46
a(lp47
S'separation'
p48
a(lp49
S'target'
p50
aS'POINT.-'
p51
aa(lp52
S'target'
p53
aS'POINT.+'
p54
aaS'target'
p55
aaaS'currentVelocity'
p56
aS'target'
p57
aasS'accel_x'
p58
F0
sS'accel_y'
p59
F0
sS'visionAngle'
p60
I130
sS'maxAccel'
p61
I2
sS'maxVel'
p62
F0.72999999999999998
sS'age'
p63
I0
sS'tailSize'
p64
I0
sS'sexualgeno'
p65
NsS'tailBrigh'
p66
I0
sS'maxSteering'
p67
I20
sS'energy'
p68
F0.5
sS'lastScale'
p69
F5.5
sb.(i__main__
Data_mobile
p1
(dp2
S'vel_y'
p3
I0
sS'vel_x'
p4
I0
sS'pos_x'
p5
I-9579
sS'pos_y'
p6
I9779
sS'isAlive'
p7
I00
sS'cumulativeEnergy'
p8
F0.5
sS'geno'
p9
(lp10
S'POINT.+'
p11
aS'target'
p12
a(lp13
S'currentEnergy'
p14
aa(lp15
S'separation'
p16
a(lp17
S'currentVelocity'
p18
aS'separation'
p19
aaS'currentVelocity'
p20
aS'target'
p21
aasS'accel_x'
p22
F0
sS'accel_y'
p23
F0
sS'visionAngle'
p24
I130
sS'maxAccel'
p25
I2
sS'maxVel'
p26
F0.72999999999999998
sS'age'
p27
I0
sS'tailSize'
p28
I0
sS'sexualgeno'
p29
NsS'tailBrigh'
p30
I0
sS'maxSteering'
p31
I20
sS'energy'
p32
F0.5
sS'lastScale'
p33
F5.5
sb.(i__main__
Data_mobile
p1
(dp2
S'vel_y'
p3
I0
sS'vel_x'
p4
I0
sS'pos_x'
p5
I-9579
sS'pos_y'
p6
I9779
sS'isAlive'
p7
I00
sS'cumulativeEnergy'
p8
F0.5
sS'geno'
p9
(lp10
S'POINT.+'
p11
a(lp12
S'separation'
p13
a(lp14
(lp15
(lp16
S'separation'
p17
aaaS'currentEnergy'
p18
aa(lp19
(lp20
S'alignment'
p21
aa(lp22
S'POINT.+'
p23
a(lp24
S'currentVelocity'
p25
a(lp26
(lp27
S'currentEnergy'
p28
aa(lp29
S'separation'
p30
aaa(lp31
(lp32
S'alignment'
p33
aaS'POINT./'
p34
aaS'target'
p35
aaS'currentVelocity'
p36
aS'target'
p37
aaaS'target'
p38
aaS'currentVelocity'
p39
a(lp40
S'separation'
p41
a(lp42
S'target'
p43
a(lp44
S'POINT.+'
p45
a(lp46
S'target'
p47
aS'POINT.-'
p48
aa(lp49
S'target'
p50
aS'POINT.+'
p51
aaS'target'
p52
aaaS'currentVelocity'
p53
aS'target'
p54
aasS'accel_x'
p55
F0
sS'accel_y'
p56
F0
sS'visionAngle'
p57
I130
sS'maxAccel'
p58
I2
sS'maxVel'
p59
F0.72999999999999998
sS'age'
p60
I0
sS'tailSize'
p61
I0
sS'sexualgeno'
p62
NsS'tailBrigh'
p63
I0
sS'maxSteering'
p64
I20
sS'energy'
p65
F0.5
sS'lastScale'
p66
F5.5
sb.(i__main__
Data_mobile
p1
(dp2
S'vel_y'
p3
I0
sS'vel_x'
p4
I0
sS'pos_x'
p5
I-9579
sS'pos_y'
p6
I9779
sS'isAlive'
p7
I00
sS'cumulativeEnergy'
p8
F0.5
sS'geno'
p9
(lp10
S'POINT.+'
p11
a(lp12
S'separation'
p13
a(lp14
(lp15
S'POINT.+'
p16
aaS'currentEnergy'
p17
aa(lp18
(lp19
S'alignment'
p20
aa(lp21
S'POINT.+'
p22
a(lp23
S'separation'
p24
a(lp25
S'POINT.+'
p26
a(lp27
S'separation'
p28
aaa(lp29
(lp30
S'alignment'
p31
aaS'POINT./'
p32
aaS'target'
p33
aaS'currentVelocity'
p34
aS'target'
p35
aaaS'currentVelocity'
p36
aa(lp37
S'currentEnergy'
p38
aS'target'
p39
aS'currentVelocity'
p40
aS'target'
p41
aa(lp42
S'POINT.+'
p43
a(lp44
S'target'
p45
a(lp46
S'POINT.+'
p47
aS'POINT.+'
p48
a(lp49
S'target'
p50
aS'POINT.-'
p51
aaS'target'
p52
aaaS'currentVelocity'
p53
aS'target'
p54
aasS'accel_x'
p55
F0
sS'accel_y'
p56
F0
sS'visionAngle'
p57
I130
sS'maxAccel'
p58
I2
sS'maxVel'
p59
F0.72999999999999998
sS'age'
p60
I0
sS'tailSize'
p61
I0
sS'sexualgeno'
p62
NsS'tailBrigh'
p63
I0
sS'maxSteering'
p64
I20
sS'energy'
p65
F0.5
sS'lastScale'
p66
F5.5
sb.(i__main__
Data_mobile
p1
(dp2
S'vel_y'
p3
I0
sS'vel_x'
p4
I0
sS'pos_x'
p5
I-9579
sS'pos_y'
p6
I9779
sS'isAlive'
p7
I00
sS'cumulativeEnergy'
p8
F0.5
sS'geno'
p9
(lp10
S'POINT.+'
p11
a(lp12
S'cohesion'
p13
a(lp14
(lp15
(lp16
S'separation'
p17
aaaS'currentEnergy'
p18
aa(lp19
(lp20
S'alignment'
p21
aa(lp22
S'POINT.+'
p23
a(lp24
S'separation'
p25
a(lp26
(lp27
S'currentEnergy'
p28
aaS'target'
p29
aa(lp30
(lp31
S'alignment'
p32
aaS'POINT./'
p33
aaS'target'
p34
aaS'currentVelocity'
p35
aS'target'
p36
aaaS'target'
p37
aa(lp38
S'currentEnergy'
p39
aS'target'
p40
aS'currentVelocity'
p41
aS'target'
p42
aa(lp43
S'separation'
p44
a(lp45
S'target'
p46
a(lp47
S'separation'
p48
a(lp49
S'target'
p50
aS'POINT.-'
p51
aa(lp52
S'target'
p53
aS'POINT.+'
p54
aaS'target'
p55
aaaS'currentVelocity'
p56
aS'target'
p57
aasS'accel_x'
p58
F0
sS'accel_y'
p59
F0
sS'visionAngle'
p60
I130
sS'maxAccel'
p61
I2
sS'maxVel'
p62
F0.72999999999999998
sS'age'
p63
I0
sS'tailSize'
p64
I0
sS'sexualgeno'
p65
NsS'tailBrigh'
p66
I0
sS'maxSteering'
p67
I20
sS'energy'
p68
F0.5
sS'lastScale'
p69
F5.5
sb.(i__main__
Data_mobile
p1
(dp2
S'vel_y'
p3
I0
sS'vel_x'
p4
I0
sS'pos_x'
p5
I-9579
sS'pos_y'
p6
I9779
sS'isAlive'
p7
I00
sS'cumulativeEnergy'
p8
F0.5
sS'geno'
p9
(lp10
S'POINT.+'
p11
a(lp12
S'cohesion'
p13
a(lp14
(lp15
(lp16
S'separation'
p17
aaaS'currentEnergy'
p18
aa(lp19
(lp20
S'alignment'
p21
aa(lp22
S'POINT.+'
p23
a(lp24
S'separation'
p25
a(lp26
S'currentEnergy'
p27
aS'target'
p28
aS'currentVelocity'
p29
aS'target'
p30
aa(lp31
(lp32
S'alignment'
p33
aaS'POINT./'
p34
aaS'target'
p35
aaS'currentVelocity'
p36
aS'target'
p37
aaaS'target'
p38
aa(lp39
S'currentEnergy'
p40
aS'target'
p41
aS'currentVelocity'
p42
aS'target'
p43
aa(lp44
S'separation'
p45
a(lp46
S'target'
p47
a(lp48
S'separation'
p49
a(lp50
S'target'
p51
aS'POINT.-'
p52
aa(lp53
S'target'
p54
aS'POINT.+'
p55
aaS'target'
p56
aaaS'currentVelocity'
p57
aS'target'
p58
aasS'accel_x'
p59
F0
sS'accel_y'
p60
F0
sS'visionAngle'
p61
I130
sS'maxAccel'
p62
I2
sS'maxVel'
p63
F0.72999999999999998
sS'age'
p64
I0
sS'tailSize'
p65
I0
sS'sexualgeno'
p66
NsS'tailBrigh'
p67
I0
sS'maxSteering'
p68
I20
sS'energy'
p69
F0.5
sS'lastScale'
p70
F5.5
sb.(i__main__
Data_mobile
p1
(dp2
S'vel_y'
p3
I0
sS'vel_x'
p4
I0
sS'pos_x'
p5
I-9579
sS'pos_y'
p6
I9779
sS'isAlive'
p7
I00
sS'cumulativeEnergy'
p8
F0.5
sS'geno'
p9
(lp10
S'POINT.+'
p11
a(lp12
S'separation'
p13
a(lp14
(lp15
(lp16
S'separation'
p17
aaaS'currentEnergy'
p18
aa(lp19
(lp20
S'alignment'
p21
aa(lp22
S'POINT.+'
p23
a(lp24
S'target'
p25
a(lp26
(lp27
S'currentEnergy'
p28
aa(lp29
S'separation'
p30
aaa(lp31
(lp32
S'alignment'
p33
aaS'POINT./'
p34
aaS'target'
p35
aaS'currentVelocity'
p36
aS'target'
p37
aaaS'target'
p38
aa(lp39
S'currentEnergy'
p40
aa(lp41
S'separation'
p42
aS'currentVelocity'
p43
aS'currentVelocity'
p44
aS'target'
p45
aasS'accel_x'
p46
F0
sS'accel_y'
p47
F0
sS'visionAngle'
p48
I130
sS'maxAccel'
p49
I2
sS'maxVel'
p50
F0.72999999999999998
sS'age'
p51
I0
sS'tailSize'
p52
I0
sS'sexualgeno'
p53
NsS'tailBrigh'
p54
I0
sS'maxSteering'
p55
I20
sS'energy'
p56
F0.5
sS'lastScale'
p57
F5.5
sb.(i__main__
Data_mobile
p1
(dp2
S'vel_y'
p3
I0
sS'vel_x'
p4
I0
sS'pos_x'
p5
I-9579
sS'pos_y'
p6
I9779
sS'isAlive'
p7
I00
sS'cumulativeEnergy'
p8
F0.5
sS'geno'
p9
(lp10
S'POINT.+'
p11
aS'target'
p12
a(lp13
S'currentEnergy'
p14
aa(lp15
S'separation'
p16
a(lp17
S'target'
p18
a(lp19
S'POINT.+'
p20
a(lp21
S'target'
p22
aS'POINT.-'
p23
aa(lp24
S'POINT./'
p25
aS'separation'
p26
aaS'target'
p27
aaa(lp28
S'currentEnergy'
p29
aS'target'
p30
aS'currentVelocity'
p31
aS'target'
p32
aaS'target'
p33
aasS'accel_x'
p34
F0
sS'accel_y'
p35
F0
sS'visionAngle'
p36
I130
sS'maxAccel'
p37
I2
sS'maxVel'
p38
F0.72999999999999998
sS'age'
p39
I0
sS'tailSize'
p40
I0
sS'sexualgeno'
p41
NsS'tailBrigh'
p42
I0
sS'maxSteering'
p43
I20
sS'energy'
p44
F0.5
sS'lastScale'
p45
F5.5
sb.(i__main__
Data_mobile
p1
(dp2
S'vel_y'
p3
I0
sS'vel_x'
p4
I0
sS'pos_x'
p5
I-9579
sS'pos_y'
p6
I9779
sS'isAlive'
p7
I00
sS'cumulativeEnergy'
p8
F0.5
sS'geno'
p9
(lp10
(lp11
S'separation'
p12
a(lp13
S'target'
p14
a(lp15
S'POINT.+'
p16
a(lp17
S'target'
p18
aS'POINT.-'
p19
aa(lp20
S'POINT./'
p21
aS'separation'
p22
aaS'target'
p23
aaaS'currentVelocity'
p24
aS'target'
p25
aaS'target'
p26
a(lp27
S'currentEnergy'
p28
aa(lp29
S'separation'
p30
a(lp31
S'target'
p32
a(lp33
S'POINT.+'
p34
a(lp35
S'target'
p36
aS'POINT.-'
p37
aaS'separation'
p38
aS'target'
p39
aaaS'currentVelocity'
p40
aS'target'
p41
aasS'accel_x'
p42
F0
sS'accel_y'
p43
F0
sS'visionAngle'
p44
I130
sS'maxAccel'
p45
I2
sS'maxVel'
p46
F0.72999999999999998
sS'age'
p47
I0
sS'tailSize'
p48
I0
sS'sexualgeno'
p49
NsS'tailBrigh'
p50
I0
sS'maxSteering'
p51
I20
sS'energy'
p52
F0.5
sS'lastScale'
p53
F5.5
sb.(i__main__
Data_mobile
p1
(dp2
S'vel_y'
p3
I0
sS'vel_x'
p4
I0
sS'pos_x'
p5
I-9579
sS'pos_y'
p6
I9779
sS'isAlive'
p7
I00
sS'cumulativeEnergy'
p8
F0.5
sS'geno'
p9
(lp10
S'POINT.+'
p11
aS'target'
p12
a(lp13
S'currentEnergy'
p14
aa(lp15
S'separation'
p16
a(lp17
S'target'
p18
a(lp19
S'POINT.+'
p20
a(lp21
S'target'
p22
aS'POINT.-'
p23
aa(lp24
S'POINT./'
p25
aS'currentVelocity'
p26
aaS'target'
p27
aaa(lp28
S'currentEnergy'
p29
aS'target'
p30
aS'currentVelocity'
p31
aS'target'
p32
aaS'target'
p33
aasS'accel_x'
p34
F0
sS'accel_y'
p35
F0
sS'visionAngle'
p36
I130
sS'maxAccel'
p37
I2
sS'maxVel'
p38
F0.72999999999999998
sS'age'
p39
I0
sS'tailSize'
p40
I0
sS'sexualgeno'
p41
NsS'tailBrigh'
p42
I0
sS'maxSteering'
p43
I20
sS'energy'
p44
F0.5
sS'lastScale'
p45
F5.5
sb.(i__main__
Data_mobile
p1
(dp2
S'vel_y'
p3
I0
sS'vel_x'
p4
I0
sS'pos_x'
p5
I-9579
sS'pos_y'
p6
I9779
sS'isAlive'
p7
I00
sS'cumulativeEnergy'
p8
F0.5
sS'geno'
p9
(lp10
S'POINT.+'
p11
a(lp12
S'separation'
p13
a(lp14
(lp15
(lp16
S'separation'
p17
aaaS'currentEnergy'
p18
aa(lp19
(lp20
S'alignment'
p21
aa(lp22
S'POINT.+'
p23
a(lp24
S'separation'
p25
a(lp26
(lp27
S'POINT./'
p28
aS'separation'
p29
aaS'currentVelocity'
p30
aa(lp31
(lp32
S'alignment'
p33
aaS'POINT./'
p34
aaS'target'
p35
aaS'currentVelocity'
p36
aS'target'
p37
aaaS'target'
p38
aa(lp39
S'currentEnergy'
p40
aS'target'
p41
aS'currentVelocity'
p42
aS'target'
p43
aa(lp44
S'separation'
p45
a(lp46
S'target'
p47
a(lp48
S'POINT.+'
p49
a(lp50
S'target'
p51
aS'POINT.-'
p52
aa(lp53
S'target'
p54
aS'POINT.+'
p55
aaS'target'
p56
aaaS'currentVelocity'
p57
aS'target'
p58
aasS'accel_x'
p59
F0
sS'accel_y'
p60
F0
sS'visionAngle'
p61
I130
sS'maxAccel'
p62
I2
sS'maxVel'
p63
F0.72999999999999998
sS'age'
p64
I0
sS'tailSize'
p65
I0
sS'sexualgeno'
p66
NsS'tailBrigh'
p67
I0
sS'maxSteering'
p68
I20
sS'energy'
p69
F0.5
sS'lastScale'
p70
F5.5
sb.(i__main__
Data_mobile
p1
(dp2
S'vel_y'
p3
I0
sS'vel_x'
p4
I0
sS'pos_x'
p5
I-9579
sS'pos_y'
p6
I9779
sS'isAlive'
p7
I00
sS'cumulativeEnergy'
p8
F0.5
sS'geno'
p9
(lp10
S'POINT.+'
p11
a(lp12
S'separation'
p13
a(lp14
(lp15
(lp16
S'separation'
p17
aaaS'currentEnergy'
p18
aa(lp19
(lp20
S'alignment'
p21
aa(lp22
S'POINT.+'
p23
a(lp24
S'target'
p25
a(lp26
(lp27
S'currentEnergy'
p28
aa(lp29
S'separation'
p30
aaa(lp31
(lp32
S'alignment'
p33
aaS'POINT./'
p34
aaS'target'
p35
aaS'currentVelocity'
p36
aS'target'
p37
aaaS'target'
p38
aa(lp39
S'currentEnergy'
p40
aa(lp41
S'separation'
p42
a(lp43
S'target'
p44
a(lp45
S'POINT.+'
p46
a(lp47
S'target'
p48
aS'POINT.-'
p49
aa(lp50
S'target'
p51
aS'POINT.+'
p52
aaS'target'
p53
aaaS'currentVelocity'
p54
aS'target'
p55
aasS'accel_x'
p56
F0
sS'accel_y'
p57
F0
sS'visionAngle'
p58
I130
sS'maxAccel'
p59
I2
sS'maxVel'
p60
F0.72999999999999998
sS'age'
p61
I0
sS'tailSize'
p62
I0
sS'sexualgeno'
p63
NsS'tailBrigh'
p64
I0
sS'maxSteering'
p65
I20
sS'energy'
p66
F0.5
sS'lastScale'
p67
F5.5
sb.(i__main__
Data_mobile
p1
(dp2
S'vel_y'
p3
I0
sS'vel_x'
p4
I0
sS'pos_x'
p5
I-9579
sS'pos_y'
p6
I9779
sS'isAlive'
p7
I00
sS'cumulativeEnergy'
p8
F0.5
sS'geno'
p9
(lp10
S'POINT.+'
p11
aS'target'
p12
a(lp13
S'currentEnergy'
p14
aa(lp15
S'separation'
p16
a(lp17
S'target'
p18
a(lp19
S'POINT.+'
p20
a(lp21
S'target'
p22
aS'POINT.-'
p23
aaS'separation'
p24
aS'target'
p25
aaaS'currentVelocity'
p26
aS'target'
p27
aasS'accel_x'
p28
F0
sS'accel_y'
p29
F0
sS'visionAngle'
p30
I130
sS'maxAccel'
p31
I2
sS'maxVel'
p32
F0.72999999999999998
sS'age'
p33
I0
sS'tailSize'
p34
I0
sS'sexualgeno'
p35
NsS'tailBrigh'
p36
I0
sS'maxSteering'
p37
I20
sS'energy'
p38
F0.5
sS'lastScale'
p39
F5.5
sb.(i__main__
Data_mobile
p1
(dp2
S'vel_y'
p3
I0
sS'vel_x'
p4
I0
sS'pos_x'
p5
I-9579
sS'pos_y'
p6
I9779
sS'isAlive'
p7
I00
sS'cumulativeEnergy'
p8
F0.5
sS'geno'
p9
(lp10
S'POINT.+'
p11
aS'target'
p12
a(lp13
S'separation'
p14
a(lp15
(lp16
S'currentEnergy'
p17
aa(lp18
S'separation'
p19
aaa(lp20
(lp21
S'alignment'
p22
aaS'target'
p23
aaS'target'
p24
aaS'POINT.+'
p25
asS'accel_x'
p26
F0
sS'accel_y'
p27
F0
sS'visionAngle'
p28
I130
sS'maxAccel'
p29
I2
sS'maxVel'
p30
F0.72999999999999998
sS'age'
p31
I0
sS'tailSize'
p32
I0
sS'sexualgeno'
p33
NsS'tailBrigh'
p34
I0
sS'maxSteering'
p35
I20
sS'energy'
p36
F0.5
sS'lastScale'
p37
F5.5
sb.(i__main__
Data_mobile
p1
(dp2
S'vel_y'
p3
I0
sS'vel_x'
p4
I0
sS'pos_x'
p5
I-9579
sS'pos_y'
p6
I9779
sS'isAlive'
p7
I00
sS'cumulativeEnergy'
p8
F0.5
sS'geno'
p9
(lp10
S'POINT.+'
p11
aS'target'
p12
a(lp13
S'currentEnergy'
p14
aa(lp15
S'currentEnergy'
p16
a(lp17
S'target'
p18
a(lp19
S'POINT.*'
p20
a(lp21
S'separation'
p22
aa(lp23
S'POINT.*'
p24
aS'currentEnergy'
p25
aS'target'
p26
aaaaS'currentVelocity'
p27
aS'target'
p28
aasS'accel_x'
p29
F0
sS'accel_y'
p30
F0
sS'visionAngle'
p31
I130
sS'maxAccel'
p32
I2
sS'maxVel'
p33
F0.72999999999999998
sS'age'
p34
I0
sS'tailSize'
p35
I0
sS'sexualgeno'
p36
NsS'tailBrigh'
p37
I0
sS'maxSteering'
p38
I20
sS'energy'
p39
F0.5
sS'lastScale'
p40
F5.5
sb.(i__main__
Data_mobile
p1
(dp2
S'vel_y'
p3
I0
sS'vel_x'
p4
I0
sS'pos_x'
p5
I-9579
sS'pos_y'
p6
I9779
sS'isAlive'
p7
I00
sS'cumulativeEnergy'
p8
F0.5
sS'geno'
p9
(lp10
S'POINT.+'
p11
a(lp12
S'separation'
p13
a(lp14
(lp15
S'POINT.+'
p16
aaS'currentEnergy'
p17
aa(lp18
(lp19
S'alignment'
p20
aa(lp21
S'POINT.+'
p22
a(lp23
S'POINT.+'
p24
aS'target'
p25
a(lp26
S'currentEnergy'
p27
aaS'POINT.+'
p28
aaS'currentVelocity'
p29
aS'target'
p30
aaaS'currentVelocity'
p31
aa(lp32
S'currentEnergy'
p33
aS'target'
p34
aS'currentVelocity'
p35
aS'target'
p36
aa(lp37
S'POINT.+'
p38
a(lp39
S'target'
p40
a(lp41
S'POINT.+'
p42
aS'POINT.+'
p43
a(lp44
S'target'
p45
aS'POINT.-'
p46
aaS'target'
p47
aaaS'currentVelocity'
p48
aS'target'
p49
aasS'accel_x'
p50
F0
sS'accel_y'
p51
F0
sS'visionAngle'
p52
I130
sS'maxAccel'
p53
I2
sS'maxVel'
p54
F0.72999999999999998
sS'age'
p55
I0
sS'tailSize'
p56
I0
sS'sexualgeno'
p57
NsS'tailBrigh'
p58
I0
sS'maxSteering'
p59
I20
sS'energy'
p60
F0.5
sS'lastScale'
p61
F5.5
sb.(i__main__
Data_mobile
p1
(dp2
S'vel_y'
p3
I0
sS'vel_x'
p4
I0
sS'pos_x'
p5
I-9579
sS'pos_y'
p6
I9779
sS'isAlive'
p7
I00
sS'cumulativeEnergy'
p8
F0.5
sS'geno'
p9
(lp10
S'POINT.+'
p11
a(lp12
S'separation'
p13
a(lp14
(lp15
(lp16
S'separation'
p17
aaaS'currentEnergy'
p18
aa(lp19
(lp20
S'alignment'
p21
aa(lp22
S'POINT.+'
p23
a(lp24
S'target'
p25
a(lp26
(lp27
S'currentEnergy'
p28
aa(lp29
S'separation'
p30
aaa(lp31
(lp32
S'alignment'
p33
aaS'POINT./'
p34
aaS'target'
p35
aaS'currentVelocity'
p36
aS'target'
p37
aaaS'target'
p38
aaS'POINT.-'
p39
a(lp40
S'separation'
p41
a(lp42
S'target'
p43
a(lp44
S'POINT.+'
p45
a(lp46
S'target'
p47
aS'POINT.-'
p48
aa(lp49
S'target'
p50
aS'POINT.+'
p51
aaS'target'
p52
aaaS'currentVelocity'
p53
aS'target'
p54
aasS'accel_x'
p55
F0
sS'accel_y'
p56
F0
sS'visionAngle'
p57
I130
sS'maxAccel'
p58
I2
sS'maxVel'
p59
F0.72999999999999998
sS'age'
p60
I0
sS'tailSize'
p61
I0
sS'sexualgeno'
p62
NsS'tailBrigh'
p63
I0
sS'maxSteering'
p64
I20
sS'energy'
p65
F0.5
sS'lastScale'
p66
F5.5
sb.(i__main__
Data_mobile
p1
(dp2
S'vel_y'
p3
I0
sS'vel_x'
p4
I0
sS'pos_x'
p5
I-9579
sS'pos_y'
p6
I9779
sS'isAlive'
p7
I00
sS'cumulativeEnergy'
p8
F0.5
sS'geno'
p9
(lp10
S'POINT.+'
p11
a(lp12
S'separation'
p13
a(lp14
(lp15
(lp16
S'separation'
p17
aaaS'currentEnergy'
p18
aa(lp19
(lp20
S'alignment'
p21
aa(lp22
S'POINT.+'
p23
a(lp24
S'separation'
p25
a(lp26
(lp27
S'POINT./'
p28
aS'separation'
p29
aaS'currentVelocity'
p30
aa(lp31
(lp32
S'alignment'
p33
aaS'POINT./'
p34
aaS'target'
p35
aaS'currentVelocity'
p36
aS'target'
p37
aaaS'target'
p38
aa(lp39
S'currentEnergy'
p40
aS'target'
p41
aS'currentVelocity'
p42
aS'target'
p43
aa(lp44
S'separation'
p45
a(lp46
S'target'
p47
a(lp48
S'POINT.+'
p49
a(lp50
S'target'
p51
aS'POINT.-'
p52
aa(lp53
S'target'
p54
aS'POINT.+'
p55
aaS'target'
p56
aaaS'currentVelocity'
p57
aS'target'
p58
aasS'accel_x'
p59
F0
sS'accel_y'
p60
F0
sS'visionAngle'
p61
I130
sS'maxAccel'
p62
I2
sS'maxVel'
p63
F0.72999999999999998
sS'age'
p64
I0
sS'tailSize'
p65
I0
sS'sexualgeno'
p66
NsS'tailBrigh'
p67
I0
sS'maxSteering'
p68
I20
sS'energy'
p69
F0.5
sS'lastScale'
p70
F5.5
sb.(i__main__
Data_mobile
p1
(dp2
S'vel_y'
p3
I0
sS'vel_x'
p4
I0
sS'pos_x'
p5
I-9579
sS'pos_y'
p6
I9779
sS'isAlive'
p7
I00
sS'cumulativeEnergy'
p8
F0.5
sS'geno'
p9
(lp10
S'POINT.+'
p11
a(lp12
S'cohesion'
p13
a(lp14
(lp15
(lp16
S'separation'
p17
aaaS'currentEnergy'
p18
aa(lp19
(lp20
S'alignment'
p21
aa(lp22
S'POINT.+'
p23
a(lp24
S'separation'
p25
a(lp26
(lp27
S'currentEnergy'
p28
aaS'target'
p29
aaS'target'
p30
aS'target'
p31
aaS'currentVelocity'
p32
aS'target'
p33
aaaS'target'
p34
aa(lp35
S'currentEnergy'
p36
aS'target'
p37
aS'currentVelocity'
p38
aS'target'
p39
aa(lp40
S'separation'
p41
a(lp42
S'target'
p43
a(lp44
S'separation'
p45
a(lp46
S'target'
p47
aS'POINT.-'
p48
aa(lp49
S'target'
p50
aS'POINT.+'
p51
aaS'target'
p52
aaaS'currentVelocity'
p53
aS'target'
p54
aasS'accel_x'
p55
F0
sS'accel_y'
p56
F0
sS'visionAngle'
p57
I130
sS'maxAccel'
p58
I2
sS'maxVel'
p59
F0.72999999999999998
sS'age'
p60
I0
sS'tailSize'
p61
I0
sS'sexualgeno'
p62
NsS'tailBrigh'
p63
I0
sS'maxSteering'
p64
I20
sS'energy'
p65
F0.5
sS'lastScale'
p66
F5.5
sb.(i__main__
Data_mobile
p1
(dp2
S'vel_y'
p3
I0
sS'vel_x'
p4
I0
sS'pos_x'
p5
I-9579
sS'pos_y'
p6
I9779
sS'isAlive'
p7
I00
sS'cumulativeEnergy'
p8
F0.5
sS'geno'
p9
(lp10
S'POINT.+'
p11
a(lp12
S'separation'
p13
a(lp14
(lp15
S'POINT.+'
p16
aaS'currentEnergy'
p17
aa(lp18
(lp19
S'alignment'
p20
aa(lp21
S'POINT.+'
p22
a(lp23
S'separation'
p24
a(lp25
(lp26
S'currentEnergy'
p27
aa(lp28
S'separation'
p29
aaa(lp30
(lp31
S'alignment'
p32
aaS'target'
p33
aaS'target'
p34
aaS'currentVelocity'
p35
aS'target'
p36
aaaS'currentVelocity'
p37
aa(lp38
S'currentEnergy'
p39
aS'target'
p40
aS'currentVelocity'
p41
aS'POINT.+'
p42
aa(lp43
S'POINT.+'
p44
a(lp45
S'target'
p46
a(lp47
S'POINT.+'
p48
aS'POINT.+'
p49
a(lp50
S'target'
p51
aS'POINT.-'
p52
aaS'target'
p53
aaaS'currentVelocity'
p54
aS'target'
p55
aasS'accel_x'
p56
F0
sS'accel_y'
p57
F0
sS'visionAngle'
p58
I130
sS'maxAccel'
p59
I2
sS'maxVel'
p60
F0.72999999999999998
sS'age'
p61
I0
sS'tailSize'
p62
I0
sS'sexualgeno'
p63
NsS'tailBrigh'
p64
I0
sS'maxSteering'
p65
I20
sS'energy'
p66
F0.5
sS'lastScale'
p67
F5.5
sb.(i__main__
Data_mobile
p1
(dp2
S'vel_y'
p3
I0
sS'vel_x'
p4
I0
sS'pos_x'
p5
I-9579
sS'pos_y'
p6
I9779
sS'isAlive'
p7
I00
sS'cumulativeEnergy'
p8
F0.5
sS'geno'
p9
(lp10
S'POINT.+'
p11
aS'target'
p12
a(lp13
(lp14
S'separation'
p15
a(lp16
(lp17
S'currentEnergy'
p18
aa(lp19
S'separation'
p20
aaa(lp21
(lp22
S'alignment'
p23
aaS'target'
p24
aaS'target'
p25
aaaS'POINT.+'
p26
asS'accel_x'
p27
F0
sS'accel_y'
p28
F0
sS'visionAngle'
p29
I130
sS'maxAccel'
p30
I2
sS'maxVel'
p31
F0.72999999999999998
sS'age'
p32
I0
sS'tailSize'
p33
I0
sS'sexualgeno'
p34
NsS'tailBrigh'
p35
I0
sS'maxSteering'
p36
I20
sS'energy'
p37
F0.5
sS'lastScale'
p38
F5.5
sb.(i__main__
Data_mobile
p1
(dp2
S'vel_y'
p3
I0
sS'vel_x'
p4
I0
sS'pos_x'
p5
I-9579
sS'pos_y'
p6
I9779
sS'isAlive'
p7
I00
sS'cumulativeEnergy'
p8
F0.5
sS'geno'
p9
(lp10
S'POINT.+'
p11
a(lp12
S'separation'
p13
a(lp14
(lp15
(lp16
S'separation'
p17
aaaS'currentEnergy'
p18
aa(lp19
(lp20
S'alignment'
p21
aa(lp22
S'POINT.+'
p23
a(lp24
S'separation'
p25
a(lp26
(lp27
S'POINT./'
p28
aS'separation'
p29
aaS'currentVelocity'
p30
aa(lp31
(lp32
S'alignment'
p33
aaS'POINT./'
p34
aaS'target'
p35
aaS'currentVelocity'
p36
aS'target'
p37
aaaS'target'
p38
aa(lp39
S'currentEnergy'
p40
aS'target'
p41
aS'currentVelocity'
p42
aS'target'
p43
aa(lp44
S'separation'
p45
a(lp46
S'target'
p47
a(lp48
S'POINT.+'
p49
a(lp50
S'target'
p51
aS'POINT.-'
p52
aa(lp53
S'target'
p54
aS'POINT.+'
p55
aaS'target'
p56
aaaS'currentVelocity'
p57
aS'target'
p58
aasS'accel_x'
p59
F0
sS'accel_y'
p60
F0
sS'visionAngle'
p61
I130
sS'maxAccel'
p62
I2
sS'maxVel'
p63
F0.72999999999999998
sS'age'
p64
I0
sS'tailSize'
p65
I0
sS'sexualgeno'
p66
NsS'tailBrigh'
p67
I0
sS'maxSteering'
p68
I20
sS'energy'
p69
F0.5
sS'lastScale'
p70
F5.5
sb.(i__main__
Data_mobile
p1
(dp2
S'vel_y'
p3
I0
sS'vel_x'
p4
I0
sS'pos_x'
p5
I-9579
sS'pos_y'
p6
I9779
sS'isAlive'
p7
I00
sS'cumulativeEnergy'
p8
F0.5
sS'geno'
p9
(lp10
S'POINT.+'
p11
aS'target'
p12
a(lp13
S'currentEnergy'
p14
aaS'POINT.+'
p15
asS'accel_x'
p16
F0
sS'accel_y'
p17
F0
sS'visionAngle'
p18
I130
sS'maxAccel'
p19
I2
sS'maxVel'
p20
F0.72999999999999998
sS'age'
p21
I0
sS'tailSize'
p22
I0
sS'sexualgeno'
p23
NsS'tailBrigh'
p24
I0
sS'maxSteering'
p25
I20
sS'energy'
p26
F0.5
sS'lastScale'
p27
F5.5
sb.(i__main__
Data_mobile
p1
(dp2
S'vel_y'
p3
I0
sS'vel_x'
p4
I0
sS'pos_x'
p5
I-9579
sS'pos_y'
p6
I9779
sS'isAlive'
p7
I00
sS'cumulativeEnergy'
p8
F0.5
sS'geno'
p9
(lp10
S'POINT.+'
p11
aS'target'
p12
a(lp13
S'currentEnergy'
p14
aa(lp15
S'separation'
p16
a(lp17
S'target'
p18
a(lp19
S'POINT.+'
p20
a(lp21
S'target'
p22
aS'POINT.-'
p23
aa(lp24
S'POINT.+'
p25
aS'separation'
p26
aaS'POINT.+'
p27
aaaS'currentVelocity'
p28
aS'target'
p29
aasS'accel_x'
p30
F0
sS'accel_y'
p31
F0
sS'visionAngle'
p32
I130
sS'maxAccel'
p33
I2
sS'maxVel'
p34
F0.72999999999999998
sS'age'
p35
I0
sS'tailSize'
p36
I0
sS'sexualgeno'
p37
NsS'tailBrigh'
p38
I0
sS'maxSteering'
p39
I20
sS'energy'
p40
F0.5
sS'lastScale'
p41
F5.5
sb.(i__main__
Data_mobile
p1
(dp2
S'vel_y'
p3
I0
sS'vel_x'
p4
I0
sS'pos_x'
p5
I-9579
sS'pos_y'
p6
I9779
sS'isAlive'
p7
I00
sS'cumulativeEnergy'
p8
F0.5
sS'geno'
p9
(lp10
S'POINT.+'
p11
aS'target'
p12
a(lp13
S'currentEnergy'
p14
aa(lp15
S'separation'
p16
a(lp17
S'currentVelocity'
p18
a(lp19
S'POINT.+'
p20
a(lp21
S'target'
p22
aS'POINT.-'
p23
aa(lp24
S'POINT./'
p25
aS'POINT.-'
p26
aaS'target'
p27
aaaS'currentVelocity'
p28
aS'target'
p29
aasS'accel_x'
p30
F0
sS'accel_y'
p31
F0
sS'visionAngle'
p32
I130
sS'maxAccel'
p33
I2
sS'maxVel'
p34
F0.72999999999999998
sS'age'
p35
I0
sS'tailSize'
p36
I0
sS'sexualgeno'
p37
NsS'tailBrigh'
p38
I0
sS'maxSteering'
p39
I20
sS'energy'
p40
F0.5
sS'lastScale'
p41
F5.5
sb.(i__main__
Data_mobile
p1
(dp2
S'vel_y'
p3
I0
sS'vel_x'
p4
I0
sS'pos_x'
p5
I-9579
sS'pos_y'
p6
I9779
sS'isAlive'
p7
I00
sS'cumulativeEnergy'
p8
F0.5
sS'geno'
p9
(lp10
S'POINT.+'
p11
aS'target'
p12
a(lp13
S'currentEnergy'
p14
aa(lp15
S'separation'
p16
a(lp17
S'target'
p18
a(lp19
S'separation'
p20
a(lp21
S'target'
p22
aS'POINT.-'
p23
aa(lp24
S'target'
p25
aS'POINT.+'
p26
aaS'target'
p27
aaaS'currentVelocity'
p28
aS'target'
p29
aasS'accel_x'
p30
F0
sS'accel_y'
p31
F0
sS'visionAngle'
p32
I130
sS'maxAccel'
p33
I2
sS'maxVel'
p34
F0.72999999999999998
sS'age'
p35
I0
sS'tailSize'
p36
I0
sS'sexualgeno'
p37
NsS'tailBrigh'
p38
I0
sS'maxSteering'
p39
I20
sS'energy'
p40
F0.5
sS'lastScale'
p41
F5.5
sb.(i__main__
Data_mobile
p1
(dp2
S'vel_y'
p3
I0
sS'vel_x'
p4
I0
sS'pos_x'
p5
I-9579
sS'pos_y'
p6
I9779
sS'isAlive'
p7
I00
sS'cumulativeEnergy'
p8
F0.5
sS'geno'
p9
(lp10
S'POINT.+'
p11
aS'target'
p12
a(lp13
S'currentEnergy'
p14
aa(lp15
S'separation'
p16
a(lp17
S'target'
p18
a(lp19
S'POINT.*'
p20
a(lp21
S'separation'
p22
aa(lp23
S'POINT.*'
p24
aS'currentEnergy'
p25
aS'target'
p26
aaaaS'currentVelocity'
p27
aS'target'
p28
aasS'accel_x'
p29
F0
sS'accel_y'
p30
F0
sS'visionAngle'
p31
I130
sS'maxAccel'
p32
I2
sS'maxVel'
p33
F0.72999999999999998
sS'age'
p34
I0
sS'tailSize'
p35
I0
sS'sexualgeno'
p36
NsS'tailBrigh'
p37
I0
sS'maxSteering'
p38
I20
sS'energy'
p39
F0.5
sS'lastScale'
p40
F5.5
sb.(i__main__
Data_mobile
p1
(dp2
S'vel_y'
p3
I0
sS'vel_x'
p4
I0
sS'pos_x'
p5
I-9579
sS'pos_y'
p6
I9779
sS'isAlive'
p7
I00
sS'cumulativeEnergy'
p8
F0.5
sS'geno'
p9
(lp10
S'POINT.+'
p11
a(lp12
S'separation'
p13
a(lp14
(lp15
S'POINT.+'
p16
aaS'currentEnergy'
p17
aa(lp18
(lp19
S'alignment'
p20
aa(lp21
S'POINT.+'
p22
a(lp23
S'separation'
p24
a(lp25
(lp26
S'currentEnergy'
p27
aa(lp28
S'separation'
p29
aaa(lp30
(lp31
S'alignment'
p32
aaS'target'
p33
aaS'target'
p34
aaS'currentVelocity'
p35
aS'target'
p36
aaaS'currentVelocity'
p37
aa(lp38
S'currentEnergy'
p39
aS'target'
p40
aS'currentVelocity'
p41
aS'target'
p42
aa(lp43
S'POINT.+'
p44
a(lp45
S'target'
p46
a(lp47
S'POINT.+'
p48
aS'POINT.+'
p49
a(lp50
S'target'
p51
aS'POINT.-'
p52
aaS'target'
p53
aaaS'currentVelocity'
p54
aS'target'
p55
aasS'accel_x'
p56
F0
sS'accel_y'
p57
F0
sS'visionAngle'
p58
I130
sS'maxAccel'
p59
I2
sS'maxVel'
p60
F0.72999999999999998
sS'age'
p61
I0
sS'tailSize'
p62
I0
sS'sexualgeno'
p63
NsS'tailBrigh'
p64
I0
sS'maxSteering'
p65
I20
sS'energy'
p66
F0.5
sS'lastScale'
p67
F5.5
sb.