(i__main__
Data_mobile
p1
(dp2
S'vel_y'
p3
F0.28268846782974449
sS'vel_x'
p4
F-0.67304326024117611
sS'pos_x'
p5
F90.936878998442339
sS'pos_y'
p6
F33.54425558859532
sS'isAlive'
p7
I01
sS'cumulativeEnergy'
p8
F45.420578353541401
sS'geno'
p9
(i__main__
Node
p10
(dp11
S'depth'
p12
I1
sS'vector'
p13
S'+'
sS'right'
p14
(i__main__
Node
p15
(dp16
g12
I2
sg13
S'/'
sg14
(i__main__
Node
p17
(dp18
g12
I3
sg13
S'+'
sg14
(i__main__
Node
p19
(dp20
g12
I4
sg13
S'/'
sg14
(i__main__
Node
p21
(dp22
g12
I5
sg13
S'/'
sg14
(i__main__
Node
p23
(dp24
g12
I6
sg13
S'indiv.alignment()'
p25
sg14
NsS'parent'
p26
g21
sS'left'
p27
Nsbsg26
g19
sg27
(i__main__
Node
p28
(dp29
g12
I6
sg13
S'indiv.currentEnergy()'
p30
sg14
Nsg26
g21
sg27
Nsbsbsg26
g17
sg27
(i__main__
Node
p31
(dp32
g12
I5
sg13
S'/'
sg14
(i__main__
Node
p33
(dp34
g12
I6
sg13
S'+'
sg14
(i__main__
Node
p35
(dp36
g12
I7
sg13
g30
sg14
Nsg26
g33
sg27
Nsbsg26
g31
sg27
(i__main__
Node
p37
(dp38
g12
I7
sg13
S'indiv.target()'
p39
sg14
Nsg26
g33
sg27
Nsbsbsg26
g19
sg27
(i__main__
Node
p40
(dp41
g12
I6
sg13
S'+'
sg14
(i__main__
Node
p42
(dp43
g12
I7
sg13
g30
sg14
Nsg26
g40
sg27
Nsbsg26
g31
sg27
(i__main__
Node
p44
(dp45
g12
I7
sg13
g39
sg14
Nsg26
g40
sg27
Nsbsbsbsbsg26
g15
sg27
(i__main__
Node
p46
(dp47
g12
I4
sg13
S'+'
sg14
(i__main__
Node
p48
(dp49
g12
I5
sg13
S'indiv.cohesion()'
p50
sg14
Nsg26
g46
sg27
Nsbsg26
g17
sg27
(i__main__
Node
p51
(dp52
g12
I5
sg13
g50
sg14
Nsg26
g46
sg27
Nsbsbsbsg26
g10
sg27
(i__main__
Node
p53
(dp54
g12
I3
sg13
S'+'
sg14
(i__main__
Node
p55
(dp56
g12
I4
sg13
g30
sg14
Nsg26
g53
sg27
Nsbsg26
g15
sg27
(i__main__
Node
p57
(dp58
g12
I4
sg13
g39
sg14
Nsg26
g53
sg27
Nsbsbsbsg26
Nsg27
(i__main__
Node
p59
(dp60
g12
I2
sg13
S'+'
sg14
(i__main__
Node
p61
(dp62
g12
I3
sg13
g30
sg14
Nsg26
g59
sg27
Nsbsg26
g10
sg27
(i__main__
Node
p63
(dp64
g12
I3
sg13
g39
sg14
Nsg26
g59
sg27
NsbsbsbsS'accel_x'
p65
F-0.38312474827404014
sS'accel_y'
p66
F0.73071651792031322
sS'visionAngle'
p67
I130
sS'maxAccel'
p68
I2
sS'maxVel'
p69
F0.72999999999999998
sS'age'
p70
I100
sS'tailSize'
p71
I0
sS'sexualgeno'
p72
NsS'tailBrigh'
p73
I0
sS'maxSteering'
p74
I20
sS'energy'
p75
F1
sS'lastScale'
p76
F15.5
sb.(i__main__
Data_mobile
p1
(dp2
S'vel_y'
p3
F-0.2365264726298531
sS'vel_x'
p4
F-0.69061945219149412
sS'pos_x'
p5
F-37.32976457414987
sS'pos_y'
p6
F28.859993453922005
sS'isAlive'
p7
I01
sS'cumulativeEnergy'
p8
F44.890325051158655
sS'geno'
p9
(i__main__
Node
p10
(dp11
S'depth'
p12
I1
sS'vector'
p13
S'+'
sS'right'
p14
(i__main__
Node
p15
(dp16
g12
I2
sg13
S'+'
sg14
(i__main__
Node
p17
(dp18
g12
I3
sg13
S'indiv.target()'
p19
sg14
NsS'parent'
p20
g15
sS'left'
p21
Nsbsg20
g10
sg21
(i__main__
Node
p22
(dp23
g12
I3
sg13
S'indiv.currentEnergy()'
p24
sg14
Nsg20
g15
sg21
Nsbsbsg20
Nsg21
(i__main__
Node
p25
(dp26
g12
I2
sg13
S'+'
sg14
(i__main__
Node
p27
(dp28
g12
I3
sg13
g24
sg14
Nsg20
g25
sg21
Nsbsg20
g10
sg21
(i__main__
Node
p29
(dp30
g12
I3
sg13
g19
sg14
Nsg20
g25
sg21
NsbsbsbsS'accel_x'
p31
F1.2047375891422245
sS'accel_y'
p32
F-1.596435824362439
sS'visionAngle'
p33
I130
sS'maxAccel'
p34
I2
sS'maxVel'
p35
F0.72999999999999998
sS'age'
p36
I100
sS'tailSize'
p37
I0
sS'sexualgeno'
p38
NsS'tailBrigh'
p39
I0
sS'maxSteering'
p40
I20
sS'energy'
p41
F0.84405907041763084
sS'lastScale'
p42
F13.940590704176309
sb.(i__main__
Data_mobile
p1
(dp2
S'vel_y'
p3
F-0.072641802047245421
sS'vel_x'
p4
F-0.7263767401254867
sS'pos_x'
p5
F-36.483191795826507
sS'pos_y'
p6
F27.980322662871355
sS'isAlive'
p7
I01
sS'cumulativeEnergy'
p8
F39.220804772096628
sS'geno'
p9
(i__main__
Node
p10
(dp11
S'depth'
p12
I1
sS'vector'
p13
S'+'
sS'right'
p14
(i__main__
Node
p15
(dp16
g12
I2
sg13
S'/'
sg14
(i__main__
Node
p17
(dp18
g12
I3
sg13
S'/'
sg14
(i__main__
Node
p19
(dp20
g12
I4
sg13
S'indiv.alignment()'
p21
sg14
NsS'parent'
p22
g17
sS'left'
p23
Nsbsg22
g15
sg23
(i__main__
Node
p24
(dp25
g12
I4
sg13
S'indiv.currentEnergy()'
p26
sg14
Nsg22
g17
sg23
Nsbsbsg22
g10
sg23
(i__main__
Node
p27
(dp28
g12
I3
sg13
S'+'
sg14
(i__main__
Node
p29
(dp30
g12
I4
sg13
g21
sg14
Nsg22
g27
sg23
Nsbsg22
g15
sg23
(i__main__
Node
p31
(dp32
g12
I4
sg13
g26
sg14
Nsg22
g27
sg23
Nsbsbsbsg22
Nsg23
(i__main__
Node
p33
(dp34
g12
I2
sg13
S'+'
sg14
(i__main__
Node
p35
(dp36
g12
I3
sg13
g26
sg14
Nsg22
g33
sg23
Nsbsg22
g10
sg23
(i__main__
Node
p37
(dp38
g12
I3
sg13
S'indiv.target()'
p39
sg14
Nsg22
g33
sg23
NsbsbsbsS'accel_x'
p40
F-0.074459035309239002
sS'accel_y'
p41
F-0.68956199748585112
sS'visionAngle'
p42
I130
sS'maxAccel'
p43
I2
sS'maxVel'
p44
F0.72999999999999998
sS'age'
p45
I100
sS'tailSize'
p46
I0
sS'sexualgeno'
p47
NsS'tailBrigh'
p48
I0
sS'maxSteering'
p49
I20
sS'energy'
p50
F0.67954617460243594
sS'lastScale'
p51
F12.295461746024358
sb.(i__main__
Data_mobile
p1
(dp2
S'vel_y'
p3
F0.048969862809278633
sS'vel_x'
p4
F0.4508214717141914
sS'pos_x'
p5
F63.236305950725566
sS'pos_y'
p6
F-12.148594564197717
sS'isAlive'
p7
I01
sS'cumulativeEnergy'
p8
F39.011288498470421
sS'geno'
p9
(i__main__
Node
p10
(dp11
S'depth'
p12
I1
sS'vector'
p13
S'+'
sS'right'
p14
(i__main__
Node
p15
(dp16
g12
I2
sg13
S'/'
sg14
(i__main__
Node
p17
(dp18
g12
I3
sg13
S'/'
sg14
(i__main__
Node
p19
(dp20
g12
I4
sg13
S'indiv.alignment()'
p21
sg14
NsS'parent'
p22
g17
sS'left'
p23
Nsbsg22
g15
sg23
(i__main__
Node
p24
(dp25
g12
I4
sg13
S'indiv.currentEnergy()'
p26
sg14
Nsg22
g17
sg23
Nsbsbsg22
g10
sg23
(i__main__
Node
p27
(dp28
g12
I3
sg13
S'+'
sg14
(i__main__
Node
p29
(dp30
g12
I4
sg13
g26
sg14
Nsg22
g27
sg23
Nsbsg22
g15
sg23
(i__main__
Node
p31
(dp32
g12
I4
sg13
S'indiv.target()'
p33
sg14
Nsg22
g27
sg23
Nsbsbsbsg22
Nsg23
(i__main__
Node
p34
(dp35
g12
I2
sg13
S'+'
sg14
(i__main__
Node
p36
(dp37
g12
I3
sg13
g26
sg14
Nsg22
g34
sg23
Nsbsg22
g10
sg23
(i__main__
Node
p38
(dp39
g12
I3
sg13
g33
sg14
Nsg22
g34
sg23
NsbsbsbsS'accel_x'
p40
F-0.81145337190367373
sS'accel_y'
p41
F0.60040406556475934
sS'visionAngle'
p42
I130
sS'maxAccel'
p43
I2
sS'maxVel'
p44
F0.72999999999999998
sS'age'
p45
I50
sS'tailSize'
p46
I0
sS'sexualgeno'
p47
NsS'tailBrigh'
p48
I0
sS'maxSteering'
p49
I20
sS'energy'
p50
F1
sS'lastScale'
p51
F15.5
sb.(i__main__
Data_mobile
p1
(dp2
S'vel_y'
p3
F-0.23805897506501378
sS'vel_x'
p4
F-0.69009269260802575
sS'pos_x'
p5
F-37.405363160302123
sS'pos_y'
p6
F28.490527380335362
sS'isAlive'
p7
I01
sS'cumulativeEnergy'
p8
F37.288046200641574
sS'geno'
p9
(i__main__
Node
p10
(dp11
S'depth'
p12
I1
sS'vector'
p13
S'+'
sS'right'
p14
(i__main__
Node
p15
(dp16
g12
I2
sg13
S'+'
sg14
(i__main__
Node
p17
(dp18
g12
I3
sg13
S'indiv.currentEnergy()'
p19
sg14
NsS'parent'
p20
g15
sS'left'
p21
Nsbsg20
g10
sg21
(i__main__
Node
p22
(dp23
g12
I3
sg13
S'indiv.target()'
p24
sg14
Nsg20
g15
sg21
Nsbsbsg20
Nsg21
(i__main__
Node
p25
(dp26
g12
I2
sg13
S'/'
sg14
(i__main__
Node
p27
(dp28
g12
I3
sg13
S'/'
sg14
(i__main__
Node
p29
(dp30
g12
I4
sg13
S'indiv.alignment()'
p31
sg14
Nsg20
g27
sg21
Nsbsg20
g25
sg21
(i__main__
Node
p32
(dp33
g12
I4
sg13
g19
sg14
Nsg20
g27
sg21
Nsbsbsg20
g10
sg21
(i__main__
Node
p34
(dp35
g12
I3
sg13
S'/'
sg14
(i__main__
Node
p36
(dp37
g12
I4
sg13
S'+'
sg14
(i__main__
Node
p38
(dp39
g12
I5
sg13
S'+'
sg14
(i__main__
Node
p40
(dp41
g12
I6
sg13
g24
sg14
Nsg20
g38
sg21
Nsbsg20
g36
sg21
(i__main__
Node
p42
(dp43
g12
I6
sg13
g19
sg14
Nsg20
g38
sg21
Nsbsbsg20
g34
sg21
(i__main__
Node
p44
(dp45
g12
I5
sg13
S'+'
sg14
(i__main__
Node
p46
(dp47
g12
I6
sg13
S'indiv.cohesion()'
p48
sg14
Nsg20
g44
sg21
Nsbsg20
g36
sg21
(i__main__
Node
p49
(dp50
g12
I6
sg13
g48
sg14
Nsg20
g44
sg21
Nsbsbsbsg20
g25
sg21
(i__main__
Node
p51
(dp52
g12
I4
sg13
S'+'
sg14
(i__main__
Node
p53
(dp54
g12
I5
sg13
g19
sg14
Nsg20
g51
sg21
Nsbsg20
g34
sg21
(i__main__
Node
p55
(dp56
g12
I5
sg13
g24
sg14
Nsg20
g51
sg21
NsbsbsbsbsbsS'accel_x'
p57
F0.74089694283662288
sS'accel_y'
p58
F-1.2062981790547633
sS'visionAngle'
p59
I130
sS'maxAccel'
p60
I2
sS'maxVel'
p61
F0.72999999999999998
sS'age'
p62
I150
sS'tailSize'
p63
I0
sS'sexualgeno'
p64
NsS'tailBrigh'
p65
I0
sS'maxSteering'
p66
I20
sS'energy'
p67
F0.53374646546461813
sS'lastScale'
p68
F10.837464654646183
sb.(i__main__
Data_mobile
p1
(dp2
S'vel_y'
p3
F0.71466084134536223
sS'vel_x'
p4
F0.14886195567551555
sS'pos_x'
p5
F74.91634288635278
sS'pos_y'
p6
F1.8302524528647981
sS'isAlive'
p7
I01
sS'cumulativeEnergy'
p8
F36.593687629880222
sS'geno'
p9
(i__main__
Node
p10
(dp11
S'depth'
p12
I1
sS'vector'
p13
S'+'
sS'right'
p14
(i__main__
Node
p15
(dp16
g12
I2
sg13
S'+'
sg14
(i__main__
Node
p17
(dp18
g12
I3
sg13
S'indiv.target()'
p19
sg14
NsS'parent'
p20
g15
sS'left'
p21
Nsbsg20
g10
sg21
(i__main__
Node
p22
(dp23
g12
I3
sg13
S'indiv.currentEnergy()'
p24
sg14
Nsg20
g15
sg21
Nsbsbsg20
Nsg21
(i__main__
Node
p25
(dp26
g12
I2
sg13
S'+'
sg14
(i__main__
Node
p27
(dp28
g12
I3
sg13
g24
sg14
Nsg20
g25
sg21
Nsbsg20
g10
sg21
(i__main__
Node
p29
(dp30
g12
I3
sg13
g19
sg14
Nsg20
g25
sg21
NsbsbsbsS'accel_x'
p31
F0.2994409765214881
sS'accel_y'
p32
F1.9774567255896798
sS'visionAngle'
p33
I130
sS'maxAccel'
p34
I2
sS'maxVel'
p35
F0.72999999999999998
sS'age'
p36
I50
sS'tailSize'
p37
I0
sS'sexualgeno'
p38
NsS'tailBrigh'
p39
I0
sS'maxSteering'
p40
I20
sS'energy'
p41
F0.87888362121214514
sS'lastScale'
p42
F14.288836212121451
sb.(i__main__
Data_mobile
p1
(dp2
S'vel_y'
p3
F-0.27811695723048729
sS'vel_x'
p4
F-0.18659851610944581
sS'pos_x'
p5
F90.456091835298906
sS'pos_y'
p6
F33.993699374796321
sS'isAlive'
p7
I01
sS'cumulativeEnergy'
p8
F35.851901239289219
sS'geno'
p9
(i__main__
Node
p10
(dp11
S'depth'
p12
I1
sS'vector'
p13
S'+'
sS'right'
p14
(i__main__
Node
p15
(dp16
g12
I2
sg13
S'+'
sg14
(i__main__
Node
p17
(dp18
g12
I3
sg13
S'indiv.target()'
p19
sg14
NsS'parent'
p20
g15
sS'left'
p21
Nsbsg20
g10
sg21
(i__main__
Node
p22
(dp23
g12
I3
sg13
S'indiv.currentEnergy()'
p24
sg14
Nsg20
g15
sg21
Nsbsbsg20
Nsg21
(i__main__
Node
p25
(dp26
g12
I2
sg13
S'+'
sg14
(i__main__
Node
p27
(dp28
g12
I3
sg13
g24
sg14
Nsg20
g25
sg21
Nsbsg20
g10
sg21
(i__main__
Node
p29
(dp30
g12
I3
sg13
g19
sg14
Nsg20
g25
sg21
NsbsbsbsS'accel_x'
p31
F0.63443151571428813
sS'accel_y'
p32
F0.97464038985650858
sS'visionAngle'
p33
I130
sS'maxAccel'
p34
I2
sS'maxVel'
p35
F0.72999999999999998
sS'age'
p36
I200
sS'tailSize'
p37
I0
sS'sexualgeno'
p38
NsS'tailBrigh'
p39
I0
sS'maxSteering'
p40
I20
sS'energy'
p41
F1
sS'lastScale'
p42
F15.5
sb.(i__main__
Data_mobile
p1
(dp2
S'vel_y'
p3
F-0.58101701495239522
sS'vel_x'
p4
F-0.44194935041903627
sS'pos_x'
p5
F-25.300740013816213
sS'pos_y'
p6
F-16.857719440124782
sS'isAlive'
p7
I01
sS'cumulativeEnergy'
p8
F35.406438714523624
sS'geno'
p9
(i__main__
Node
p10
(dp11
S'depth'
p12
I1
sS'vector'
p13
S'+'
sS'right'
p14
(i__main__
Node
p15
(dp16
g12
I2
sg13
S'+'
sg14
(i__main__
Node
p17
(dp18
g12
I3
sg13
S'indiv.alignment()'
p19
sg14
NsS'parent'
p20
g15
sS'left'
p21
Nsbsg20
g10
sg21
(i__main__
Node
p22
(dp23
g12
I3
sg13
S'indiv.currentEnergy()'
p24
sg14
Nsg20
g15
sg21
Nsbsbsg20
Nsg21
(i__main__
Node
p25
(dp26
g12
I2
sg13
S'+'
sg14
(i__main__
Node
p27
(dp28
g12
I3
sg13
g24
sg14
Nsg20
g25
sg21
Nsbsg20
g10
sg21
(i__main__
Node
p29
(dp30
g12
I3
sg13
S'indiv.target()'
p31
sg14
Nsg20
g25
sg21
NsbsbsbsS'accel_x'
p32
F-1.3243941936580148
sS'accel_y'
p33
F-1.0864578496050561
sS'visionAngle'
p34
I130
sS'maxAccel'
p35
I2
sS'maxVel'
p36
F0.72999999999999998
sS'age'
p37
I50
sS'tailSize'
p38
I0
sS'sexualgeno'
p39
NsS'tailBrigh'
p40
I0
sS'maxSteering'
p41
I20
sS'energy'
p42
F0.74845103526864543
sS'lastScale'
p43
F12.984510352686456
sb.(i__main__
Data_mobile
p1
(dp2
S'vel_y'
p3
F0.51618795026617958
sS'vel_x'
p4
F0.51618795026617958
sS'pos_x'
p5
F195.7083822732364
sS'pos_y'
p6
F-12.030219776803863
sS'isAlive'
p7
I01
sS'cumulativeEnergy'
p8
F35.25886876669675
sS'geno'
p9
(i__main__
Node
p10
(dp11
S'depth'
p12
I1
sS'vector'
p13
S'+'
sS'right'
p14
(i__main__
Node
p15
(dp16
g12
I2
sg13
S'+'
sg14
(i__main__
Node
p17
(dp18
g12
I3
sg13
S'indiv.currentEnergy()'
p19
sg14
NsS'parent'
p20
g15
sS'left'
p21
Nsbsg20
g10
sg21
(i__main__
Node
p22
(dp23
g12
I3
sg13
S'indiv.target()'
p24
sg14
Nsg20
g15
sg21
Nsbsbsg20
Nsg21
(i__main__
Node
p25
(dp26
g12
I2
sg13
S'+'
sg14
(i__main__
Node
p27
(dp28
g12
I3
sg13
g19
sg14
Nsg20
g25
sg21
Nsbsg20
g10
sg21
(i__main__
Node
p29
(dp30
g12
I3
sg13
g24
sg14
Nsg20
g25
sg21
NsbsbsbsS'accel_x'
p31
F0.82187047143344893
sS'accel_y'
p32
F0.82187047143344893
sS'visionAngle'
p33
I130
sS'maxAccel'
p34
I2
sS'maxVel'
p35
F0.72999999999999998
sS'age'
p36
I100
sS'tailSize'
p37
I0
sS'sexualgeno'
p38
NsS'tailBrigh'
p39
I0
sS'maxSteering'
p40
I20
sS'energy'
p41
F0.41093523571672447
sS'lastScale'
p42
F9.6093523571672446
sb.(i__main__
Data_mobile
p1
(dp2
S'vel_y'
p3
F0.03034269185168768
sS'vel_x'
p4
F0.44865867313778685
sS'pos_x'
p5
F63.236604222464827
sS'pos_y'
p6
F-12.175203613469909
sS'isAlive'
p7
I01
sS'cumulativeEnergy'
p8
F34.975674494056079
sS'geno'
p9
(i__main__
Node
p10
(dp11
S'depth'
p12
I1
sS'vector'
p13
S'+'
sS'right'
p14
(i__main__
Node
p15
(dp16
g12
I2
sg13
S'/'
sg14
(i__main__
Node
p17
(dp18
g12
I3
sg13
S'/'
sg14
(i__main__
Node
p19
(dp20
g12
I4
sg13
S'indiv.alignment()'
p21
sg14
NsS'parent'
p22
g17
sS'left'
p23
Nsbsg22
g15
sg23
(i__main__
Node
p24
(dp25
g12
I4
sg13
S'indiv.currentEnergy()'
p26
sg14
Nsg22
g17
sg23
Nsbsbsg22
g10
sg23
(i__main__
Node
p27
(dp28
g12
I3
sg13
S'+'
sg14
(i__main__
Node
p29
(dp30
g12
I4
sg13
g26
sg14
Nsg22
g27
sg23
Nsbsg22
g15
sg23
(i__main__
Node
p31
(dp32
g12
I4
sg13
S'indiv.target()'
p33
sg14
Nsg22
g27
sg23
Nsbsbsbsg22
Nsg23
(i__main__
Node
p34
(dp35
g12
I2
sg13
S'+'
sg14
(i__main__
Node
p36
(dp37
g12
I3
sg13
g26
sg14
Nsg22
g34
sg23
Nsbsg22
g10
sg23
(i__main__
Node
p38
(dp39
g12
I3
sg13
g33
sg14
Nsg22
g34
sg23
NsbsbsbsS'accel_x'
p40
F-0.86108910550848572
sS'accel_y'
p41
F0.68847575891244661
sS'visionAngle'
p42
I130
sS'maxAccel'
p43
I2
sS'maxVel'
p44
F0.72999999999999998
sS'age'
p45
I50
sS'tailSize'
p46
I0
sS'sexualgeno'
p47
NsS'tailBrigh'
p48
I0
sS'maxSteering'
p49
I20
sS'energy'
p50
F1
sS'lastScale'
p51
F15.5
sb.(i__main__
Data_mobile
p1
(dp2
S'vel_y'
p3
F0.51618795026617958
sS'vel_x'
p4
F0.51618795026617958
sS'pos_x'
p5
F197.44802362630298
sS'pos_y'
p6
F-9.7281074477431115
sS'isAlive'
p7
I01
sS'cumulativeEnergy'
p8
F34.266675563213248
sS'geno'
p9
(i__main__
Node
p10
(dp11
S'depth'
p12
I1
sS'vector'
p13
S'+'
sS'right'
p14
(i__main__
Node
p15
(dp16
g12
I2
sg13
S'+'
sg14
(i__main__
Node
p17
(dp18
g12
I3
sg13
S'indiv.currentEnergy()'
p19
sg14
NsS'parent'
p20
g15
sS'left'
p21
Nsbsg20
g10
sg21
(i__main__
Node
p22
(dp23
g12
I3
sg13
S'indiv.target()'
p24
sg14
Nsg20
g15
sg21
Nsbsbsg20
Nsg21
(i__main__
Node
p25
(dp26
g12
I2
sg13
S'+'
sg14
(i__main__
Node
p27
(dp28
g12
I3
sg13
g19
sg14
Nsg20
g25
sg21
Nsbsg20
g10
sg21
(i__main__
Node
p29
(dp30
g12
I3
sg13
g24
sg14
Nsg20
g25
sg21
NsbsbsbsS'accel_x'
p31
F0.78137278965861168
sS'accel_y'
p32
F0.78137278965861168
sS'visionAngle'
p33
I130
sS'maxAccel'
p34
I2
sS'maxVel'
p35
F0.72999999999999998
sS'age'
p36
I100
sS'tailSize'
p37
I0
sS'sexualgeno'
p38
NsS'tailBrigh'
p39
I0
sS'maxSteering'
p40
I20
sS'energy'
p41
F0.39068639482930584
sS'lastScale'
p42
F9.4068639482930578
sb.(i__main__
Data_mobile
p1
(dp2
S'vel_y'
p3
F0.72566833322697544
sS'vel_x'
p4
F0.079406990571254776
sS'pos_x'
p5
F78.130153723921865
sS'pos_y'
p6
F16.00626893733326
sS'isAlive'
p7
I01
sS'cumulativeEnergy'
p8
F33.844157264503401
sS'geno'
p9
(i__main__
Node
p10
(dp11
S'depth'
p12
I1
sS'vector'
p13
S'+'
sS'right'
p14
(i__main__
Node
p15
(dp16
g12
I2
sg13
S'+'
sg14
(i__main__
Node
p17
(dp18
g12
I3
sg13
S'indiv.currentEnergy()'
p19
sg14
NsS'parent'
p20
g15
sS'left'
p21
Nsbsg20
g10
sg21
(i__main__
Node
p22
(dp23
g12
I3
sg13
S'indiv.target()'
p24
sg14
Nsg20
g15
sg21
Nsbsbsg20
Nsg21
(i__main__
Node
p25
(dp26
g12
I2
sg13
S'+'
sg14
(i__main__
Node
p27
(dp28
g12
I3
sg13
g19
sg14
Nsg20
g25
sg21
Nsbsg20
g10
sg21
(i__main__
Node
p29
(dp30
g12
I3
sg13
g24
sg14
Nsg20
g25
sg21
NsbsbsbsS'accel_x'
p31
F-0.027018779497938104
sS'accel_y'
p32
F1.9998174880609585
sS'visionAngle'
p33
I130
sS'maxAccel'
p34
I2
sS'maxVel'
p35
F0.72999999999999998
sS'age'
p36
I100
sS'tailSize'
p37
I0
sS'sexualgeno'
p38
NsS'tailBrigh'
p39
I0
sS'maxSteering'
p40
I20
sS'energy'
p41
F0.60961459281481933
sS'lastScale'
p42
F11.596145928148193
sb.(i__main__
Data_mobile
p1
(dp2
S'vel_y'
p3
F0.51618795026617958
sS'vel_x'
p4
F0.51618795026617958
sS'pos_x'
p5
F201.30508517458716
sS'pos_y'
p6
F-9.9934196492355376
sS'isAlive'
p7
I01
sS'cumulativeEnergy'
p8
F33.276334453466511
sS'geno'
p9
(i__main__
Node
p10
(dp11
S'depth'
p12
I1
sS'vector'
p13
S'+'
sS'right'
p14
(i__main__
Node
p15
(dp16
g12
I2
sg13
S'/'
sg14
(i__main__
Node
p17
(dp18
g12
I3
sg13
S'/'
sg14
(i__main__
Node
p19
(dp20
g12
I4
sg13
S'indiv.alignment()'
p21
sg14
NsS'parent'
p22
g17
sS'left'
p23
Nsbsg22
g15
sg23
(i__main__
Node
p24
(dp25
g12
I4
sg13
S'indiv.currentEnergy()'
p26
sg14
Nsg22
g17
sg23
Nsbsbsg22
g10
sg23
(i__main__
Node
p27
(dp28
g12
I3
sg13
S'/'
sg14
(i__main__
Node
p29
(dp30
g12
I4
sg13
S'+'
sg14
(i__main__
Node
p31
(dp32
g12
I5
sg13
g26
sg14
Nsg22
g29
sg23
Nsbsg22
g27
sg23
(i__main__
Node
p33
(dp34
g12
I5
sg13
S'indiv.target()'
p35
sg14
Nsg22
g29
sg23
Nsbsbsg22
g15
sg23
(i__main__
Node
p36
(dp37
g12
I4
sg13
S'+'
sg14
(i__main__
Node
p38
(dp39
g12
I5
sg13
g26
sg14
Nsg22
g36
sg23
Nsbsg22
g27
sg23
(i__main__
Node
p40
(dp41
g12
I5
sg13
g35
sg14
Nsg22
g36
sg23
Nsbsbsbsbsg22
Nsg23
(i__main__
Node
p42
(dp43
g12
I2
sg13
S'+'
sg14
(i__main__
Node
p44
(dp45
g12
I3
sg13
g26
sg14
Nsg22
g42
sg23
Nsbsg22
g10
sg23
(i__main__
Node
p46
(dp47
g12
I3
sg13
g35
sg14
Nsg22
g42
sg23
NsbsbsbsS'accel_x'
p48
F0.37047535177325014
sS'accel_y'
p49
F0.37047535177325014
sS'visionAngle'
p50
I130
sS'maxAccel'
p51
I2
sS'maxVel'
p52
F0.72999999999999998
sS'age'
p53
I100
sS'tailSize'
p54
I0
sS'sexualgeno'
p55
NsS'tailBrigh'
p56
I0
sS'maxSteering'
p57
I20
sS'energy'
p58
F0.37047535177325014
sS'lastScale'
p59
F9.2047535177325024
sb.(i__main__
Data_mobile
p1
(dp2
S'vel_y'
p3
F-0.49448245549609132
sS'vel_x'
p4
F-0.53701685374535124
sS'pos_x'
p5
F-26.432046739978865
sS'pos_y'
p6
F-18.09469377964491
sS'isAlive'
p7
I01
sS'cumulativeEnergy'
p8
F33.027510922223371
sS'geno'
p9
(i__main__
Node
p10
(dp11
S'depth'
p12
I1
sS'vector'
p13
S'+'
sS'right'
p14
(i__main__
Node
p15
(dp16
g12
I2
sg13
S'+'
sg14
(i__main__
Node
p17
(dp18
g12
I3
sg13
S'indiv.currentEnergy()'
p19
sg14
NsS'parent'
p20
g15
sS'left'
p21
Nsbsg20
g10
sg21
(i__main__
Node
p22
(dp23
g12
I3
sg13
S'indiv.target()'
p24
sg14
Nsg20
g15
sg21
Nsbsbsg20
Nsg21
(i__main__
Node
p25
(dp26
g12
I2
sg13
S'+'
sg14
(i__main__
Node
p27
(dp28
g12
I3
sg13
g19
sg14
Nsg20
g25
sg21
Nsbsg20
g10
sg21
(i__main__
Node
p29
(dp30
g12
I3
sg13
g24
sg14
Nsg20
g25
sg21
NsbsbsbsS'accel_x'
p31
F-0.32622664111546995
sS'accel_y'
p32
F0.27591247720687861
sS'visionAngle'
p33
I130
sS'maxAccel'
p34
I2
sS'maxVel'
p35
F0.72999999999999998
sS'age'
p36
I50
sS'tailSize'
p37
I0
sS'sexualgeno'
p38
NsS'tailBrigh'
p39
I0
sS'maxSteering'
p40
I20
sS'energy'
p41
F1
sS'lastScale'
p42
F15.5
sb.(i__main__
Data_mobile
p1
(dp2
S'vel_y'
p3
F-0.70935715018120826
sS'vel_x'
p4
F0.17237294882548945
sS'pos_x'
p5
F85.151637251179991
sS'pos_y'
p6
F-95.033483962803487
sS'isAlive'
p7
I01
sS'cumulativeEnergy'
p8
F25.666084428922126
sS'geno'
p9
(i__main__
Node
p10
(dp11
S'depth'
p12
I1
sS'vector'
p13
S'+'
sS'right'
p14
(i__main__
Node
p15
(dp16
g12
I2
sg13
S'+'
sg14
(i__main__
Node
p17
(dp18
g12
I3
sg13
S'indiv.currentEnergy()'
p19
sg14
NsS'parent'
p20
g15
sS'left'
p21
Nsbsg20
g10
sg21
(i__main__
Node
p22
(dp23
g12
I3
sg13
S'indiv.target()'
p24
sg14
Nsg20
g15
sg21
Nsbsbsg20
Nsg21
(i__main__
Node
p25
(dp26
g12
I2
sg13
S'/'
sg14
(i__main__
Node
p27
(dp28
g12
I3
sg13
S'indiv.alignment()'
p29
sg14
Nsg20
g25
sg21
Nsbsg20
g10
sg21
(i__main__
Node
p30
(dp31
g12
I3
sg13
g19
sg14
Nsg20
g25
sg21
NsbsbsbsS'accel_x'
p32
F0.85932302822020445
sS'accel_y'
p33
F1.5942243425242013
sS'visionAngle'
p34
I130
sS'maxAccel'
p35
I2
sS'maxVel'
p36
F0.72999999999999998
sS'age'
p37
I150
sS'tailSize'
p38
I0
sS'sexualgeno'
p39
NsS'tailBrigh'
p40
I0
sS'maxSteering'
p41
I20
sS'energy'
p42
F0.56186969461320069
sS'lastScale'
p43
F11.118696946132006
sb.(i__main__
Data_mobile
p1
(dp2
S'vel_y'
p3
F0.71841568862901262
sS'vel_x'
p4
F0.12953338693827782
sS'pos_x'
p5
F75.5533787525723
sS'pos_y'
p6
F5.7635710388203929
sS'isAlive'
p7
I01
sS'cumulativeEnergy'
p8
F25.114033340448998
sS'geno'
p9
(i__main__
Node
p10
(dp11
S'depth'
p12
I1
sS'vector'
p13
S'+'
sS'right'
p14
(i__main__
Node
p15
(dp16
g12
I2
sg13
S'+'
sg14
(i__main__
Node
p17
(dp18
g12
I3
sg13
S'indiv.currentEnergy()'
p19
sg14
NsS'parent'
p20
g15
sS'left'
p21
Nsbsg20
g10
sg21
(i__main__
Node
p22
(dp23
g12
I3
sg13
S'indiv.target()'
p24
sg14
Nsg20
g15
sg21
Nsbsbsg20
Nsg21
(i__main__
Node
p25
(dp26
g12
I2
sg13
S'+'
sg14
(i__main__
Node
p27
(dp28
g12
I3
sg13
g19
sg14
Nsg20
g25
sg21
Nsbsg20
g10
sg21
(i__main__
Node
p29
(dp30
g12
I3
sg13
g24
sg14
Nsg20
g25
sg21
NsbsbsbsS'accel_x'
p31
F0.24822004718012383
sS'accel_y'
p32
F1.9845369253752614
sS'visionAngle'
p33
I130
sS'maxAccel'
p34
I2
sS'maxVel'
p35
F0.72999999999999998
sS'age'
p36
I150
sS'tailSize'
p37
I0
sS'sexualgeno'
p38
NsS'tailBrigh'
p39
I0
sS'maxSteering'
p40
I20
sS'energy'
p41
F0.37305232546068806
sS'lastScale'
p42
F9.2305232546068812
sb.(i__main__
Data_mobile
p1
(dp2
S'vel_y'
p3
F-0.38616856025466756
sS'vel_x'
p4
F0.61949482892986052
sS'pos_x'
p5
F180.05639284783052
sS'pos_y'
p6
F61.531301351816872
sS'isAlive'
p7
I01
sS'cumulativeEnergy'
p8
F24.700768613312661
sS'geno'
p9
(i__main__
Node
p10
(dp11
S'depth'
p12
I1
sS'vector'
p13
S'+'
sS'right'
p14
(i__main__
Node
p15
(dp16
g12
I2
sg13
S'/'
sg14
(i__main__
Node
p17
(dp18
g12
I3
sg13
S'/'
sg14
(i__main__
Node
p19
(dp20
g12
I4
sg13
S'indiv.alignment()'
p21
sg14
NsS'parent'
p22
g17
sS'left'
p23
Nsbsg22
g15
sg23
(i__main__
Node
p24
(dp25
g12
I4
sg13
S'indiv.currentEnergy()'
p26
sg14
Nsg22
g17
sg23
Nsbsbsg22
g10
sg23
(i__main__
Node
p27
(dp28
g12
I3
sg13
S'/'
sg14
(i__main__
Node
p29
(dp30
g12
I4
sg13
S'+'
sg14
(i__main__
Node
p31
(dp32
g12
I5
sg13
g26
sg14
Nsg22
g29
sg23
Nsbsg22
g27
sg23
(i__main__
Node
p33
(dp34
g12
I5
sg13
S'indiv.target()'
p35
sg14
Nsg22
g29
sg23
Nsbsbsg22
g15
sg23
(i__main__
Node
p36
(dp37
g12
I4
sg13
S'+'
sg14
(i__main__
Node
p38
(dp39
g12
I5
sg13
g26
sg14
Nsg22
g36
sg23
Nsbsg22
g27
sg23
(i__main__
Node
p40
(dp41
g12
I5
sg13
g35
sg14
Nsg22
g36
sg23
Nsbsbsbsbsg22
Nsg23
(i__main__
Node
p42
(dp43
g12
I2
sg13
S'+'
sg14
(i__main__
Node
p44
(dp45
g12
I3
sg13
g26
sg14
Nsg22
g42
sg23
Nsbsg22
g10
sg23
(i__main__
Node
p46
(dp47
g12
I3
sg13
g35
sg14
Nsg22
g42
sg23
NsbsbsbsS'accel_x'
p48
F1.6455952524033617
sS'accel_y'
p49
F-1.1366689338886302
sS'visionAngle'
p50
I130
sS'maxAccel'
p51
I2
sS'maxVel'
p52
F0.72999999999999998
sS'age'
p53
I150
sS'tailSize'
p54
I0
sS'sexualgeno'
p55
NsS'tailBrigh'
p56
I0
sS'maxSteering'
p57
I20
sS'energy'
p58
F0.025842841233415691
sS'lastScale'
p59
F5.7584284123341574
sb.(i__main__
Data_mobile
p1
(dp2
S'vel_y'
p3
F0.72499254959830206
sS'vel_x'
p4
F0.085356915519209708
sS'pos_x'
p5
F78.733443818967189
sS'pos_y'
p6
F18.058247975274078
sS'isAlive'
p7
I01
sS'cumulativeEnergy'
p8
F24.581245061703303
sS'geno'
p9
(i__main__
Node
p10
(dp11
S'depth'
p12
I1
sS'vector'
p13
S'+'
sS'right'
p14
(i__main__
Node
p15
(dp16
g12
I2
sg13
S'+'
sg14
(i__main__
Node
p17
(dp18
g12
I3
sg13
S'indiv.alignment()'
p19
sg14
NsS'parent'
p20
g15
sS'left'
p21
Nsbsg20
g10
sg21
(i__main__
Node
p22
(dp23
g12
I3
sg13
S'indiv.currentEnergy()'
p24
sg14
Nsg20
g15
sg21
Nsbsbsg20
Nsg21
(i__main__
Node
p25
(dp26
g12
I2
sg13
S'+'
sg14
(i__main__
Node
p27
(dp28
g12
I3
sg13
g24
sg14
Nsg20
g25
sg21
Nsbsg20
g10
sg21
(i__main__
Node
p29
(dp30
g12
I3
sg13
S'indiv.target()'
p31
sg14
Nsg20
g25
sg21
NsbsbsbsS'accel_x'
p32
F-0.070705900792868662
sS'accel_y'
p33
F1.9987497781345891
sS'visionAngle'
p34
I130
sS'maxAccel'
p35
I2
sS'maxVel'
p36
F0.72999999999999998
sS'age'
p37
I50
sS'tailSize'
p38
I0
sS'sexualgeno'
p39
NsS'tailBrigh'
p40
I0
sS'maxSteering'
p41
I20
sS'energy'
p42
F0.54825676022439984
sS'lastScale'
p43
F10.982567602243996
sb.(i__main__
Data_mobile
p1
(dp2
S'vel_y'
p3
F0.51618734010183864
sS'vel_x'
p4
F0.51618856042979966
sS'pos_x'
p5
F113.59736384368367
sS'pos_y'
p6
F-80.820474135688741
sS'isAlive'
p7
I01
sS'cumulativeEnergy'
p8
F23.331245061703299
sS'geno'
p9
(i__main__
Node
p10
(dp11
S'depth'
p12
I1
sS'vector'
p13
S'+'
sS'right'
p14
(i__main__
Node
p15
(dp16
g12
I2
sg13
S'+'
sg14
(i__main__
Node
p17
(dp18
g12
I3
sg13
S'indiv.currentEnergy()'
p19
sg14
NsS'parent'
p20
g15
sS'left'
p21
Nsbsg20
g10
sg21
(i__main__
Node
p22
(dp23
g12
I3
sg13
S'indiv.target()'
p24
sg14
Nsg20
g15
sg21
Nsbsbsg20
Nsg21
(i__main__
Node
p25
(dp26
g12
I2
sg13
S'+'
sg14
(i__main__
Node
p27
(dp28
g12
I3
sg13
g19
sg14
Nsg20
g25
sg21
Nsbsg20
g10
sg21
(i__main__
Node
p29
(dp30
g12
I3
sg13
g24
sg14
Nsg20
g25
sg21
NsbsbsbsS'accel_x'
p31
F1.0965135204487997
sS'accel_y'
p32
F1.0965135204487997
sS'visionAngle'
p33
I130
sS'maxAccel'
p34
I2
sS'maxVel'
p35
F0.72999999999999998
sS'age'
p36
I50
sS'tailSize'
p37
I0
sS'sexualgeno'
p38
NsS'tailBrigh'
p39
I0
sS'maxSteering'
p40
I20
sS'energy'
p41
F0.54825676022439984
sS'lastScale'
p42
F10.982567602243996
sb.(i__main__
Data_mobile
p1
(dp2
S'vel_y'
p3
F-0.72188568723238056
sS'vel_x'
p4
F0.1085405664672595
sS'pos_x'
p5
F62.789724639260044
sS'pos_y'
p6
F-13.831394024361275
sS'isAlive'
p7
I01
sS'cumulativeEnergy'
p8
F20.731245061703287
sS'geno'
p9
(i__main__
Node
p10
(dp11
S'depth'
p12
I1
sS'vector'
p13
S'+'
sS'right'
p14
(i__main__
Node
p15
(dp16
g12
I2
sg13
S'+'
sg14
(i__main__
Node
p17
(dp18
g12
I3
sg13
S'indiv.currentEnergy()'
p19
sg14
NsS'parent'
p20
g15
sS'left'
p21
Nsbsg20
g10
sg21
(i__main__
Node
p22
(dp23
g12
I3
sg13
S'indiv.target()'
p24
sg14
Nsg20
g15
sg21
Nsbsbsg20
Nsg21
(i__main__
Node
p25
(dp26
g12
I2
sg13
S'/'
sg14
(i__main__
Node
p27
(dp28
g12
I3
sg13
S'indiv.alignment()'
p29
sg14
Nsg20
g25
sg21
Nsbsg20
g10
sg21
(i__main__
Node
p30
(dp31
g12
I3
sg13
g19
sg14
Nsg20
g25
sg21
NsbsbsbsS'accel_x'
p32
F0.70652955728314215
sS'accel_y'
p33
F-1.8710467617580504
sS'visionAngle'
p34
I130
sS'maxAccel'
p35
I2
sS'maxVel'
p36
F0.72999999999999998
sS'age'
p37
I50
sS'tailSize'
p38
I0
sS'sexualgeno'
p39
NsS'tailBrigh'
p40
I0
sS'maxSteering'
p41
I20
sS'energy'
p42
F0.44825676022439948
sS'lastScale'
p43
F9.9825676022439946
sb.(i__main__
Data_mobile
p1
(dp2
S'vel_y'
p3
F0.59840399413804446
sS'vel_x'
p4
F0.41810603894183973
sS'pos_x'
p5
F71.614780305381416
sS'pos_y'
p6
F12.190954731861039
sS'isAlive'
p7
I01
sS'cumulativeEnergy'
p8
F19.531245061703288
sS'geno'
p9
(i__main__
Node
p10
(dp11
S'depth'
p12
I1
sS'vector'
p13
S'+'
sS'right'
p14
(i__main__
Node
p15
(dp16
g12
I2
sg13
S'+'
sg14
(i__main__
Node
p17
(dp18
g12
I3
sg13
S'indiv.currentEnergy()'
p19
sg14
NsS'parent'
p20
g15
sS'left'
p21
Nsbsg20
g10
sg21
(i__main__
Node
p22
(dp23
g12
I3
sg13
S'indiv.target()'
p24
sg14
Nsg20
g15
sg21
Nsbsbsg20
Nsg21
(i__main__
Node
p25
(dp26
g12
I2
sg13
S'/'
sg14
(i__main__
Node
p27
(dp28
g12
I3
sg13
S'indiv.alignment()'
p29
sg14
Nsg20
g25
sg21
Nsbsg20
g10
sg21
(i__main__
Node
p30
(dp31
g12
I3
sg13
g19
sg14
Nsg20
g25
sg21
NsbsbsbsS'accel_x'
p32
F1.1740312966880577
sS'accel_y'
p33
F1.6191511709525326
sS'visionAngle'
p34
I130
sS'maxAccel'
p35
I2
sS'maxVel'
p36
F0.72999999999999998
sS'age'
p37
I50
sS'tailSize'
p38
I0
sS'sexualgeno'
p39
NsS'tailBrigh'
p40
I0
sS'maxSteering'
p41
I20
sS'energy'
p42
F0.34825676022439944
sS'lastScale'
p43
F8.9825676022439946
sb.(i__main__
Data_mobile
p1
(dp2
S'vel_y'
p3
F0.51616230527566209
sS'vel_x'
p4
F0.51621359398267908
sS'pos_x'
p5
F110.53687622296412
sS'pos_y'
p6
F-84.128969140047403
sS'isAlive'
p7
I01
sS'cumulativeEnergy'
p8
F18.131245061703297
sS'geno'
p9
(i__main__
Node
p10
(dp11
S'depth'
p12
I1
sS'vector'
p13
S'+'
sS'right'
p14
(i__main__
Node
p15
(dp16
g12
I2
sg13
S'+'
sg14
(i__main__
Node
p17
(dp18
g12
I3
sg13
S'indiv.currentEnergy()'
p19
sg14
NsS'parent'
p20
g15
sS'left'
p21
Nsbsg20
g10
sg21
(i__main__
Node
p22
(dp23
g12
I3
sg13
S'indiv.target()'
p24
sg14
Nsg20
g15
sg21
Nsbsbsg20
Nsg21
(i__main__
Node
p25
(dp26
g12
I2
sg13
S'+'
sg14
(i__main__
Node
p27
(dp28
g12
I3
sg13
g19
sg14
Nsg20
g25
sg21
Nsbsg20
g10
sg21
(i__main__
Node
p29
(dp30
g12
I3
sg13
g24
sg14
Nsg20
g25
sg21
NsbsbsbsS'accel_x'
p31
F0.59651352044879902
sS'accel_y'
p32
F0.59651352044879902
sS'visionAngle'
p33
I130
sS'maxAccel'
p34
I2
sS'maxVel'
p35
F0.72999999999999998
sS'age'
p36
I50
sS'tailSize'
p37
I0
sS'sexualgeno'
p38
NsS'tailBrigh'
p39
I0
sS'maxSteering'
p40
I20
sS'energy'
p41
F0.29825676022439951
sS'lastScale'
p42
F8.4825676022439946
sb.(i__main__
Data_mobile
p1
(dp2
S'vel_y'
p3
F-0.53740548236051944
sS'vel_x'
p4
F-0.49406006469745922
sS'pos_x'
p5
F-37.056703114721323
sS'pos_y'
p6
F28.198477437929377
sS'isAlive'
p7
I01
sS'cumulativeEnergy'
p8
F16.636569738469479
sS'geno'
p9
(i__main__
Node
p10
(dp11
S'depth'
p12
I1
sS'vector'
p13
S'+'
sS'right'
p14
(i__main__
Node
p15
(dp16
g12
I2
sg13
S'/'
sg14
(i__main__
Node
p17
(dp18
g12
I3
sg13
S'+'
sg14
(i__main__
Node
p19
(dp20
g12
I4
sg13
S'/'
sg14
(i__main__
Node
p21
(dp22
g12
I5
sg13
S'/'
sg14
(i__main__
Node
p23
(dp24
g12
I6
sg13
S'indiv.alignment()'
p25
sg14
NsS'parent'
p26
g21
sS'left'
p27
Nsbsg26
g19
sg27
(i__main__
Node
p28
(dp29
g12
I6
sg13
S'indiv.currentEnergy()'
p30
sg14
Nsg26
g21
sg27
Nsbsbsg26
g17
sg27
(i__main__
Node
p31
(dp32
g12
I5
sg13
S'/'
sg14
(i__main__
Node
p33
(dp34
g12
I6
sg13
S'+'
sg14
(i__main__
Node
p35
(dp36
g12
I7
sg13
g30
sg14
Nsg26
g33
sg27
Nsbsg26
g31
sg27
(i__main__
Node
p37
(dp38
g12
I7
sg13
S'indiv.target()'
p39
sg14
Nsg26
g33
sg27
Nsbsbsg26
g19
sg27
(i__main__
Node
p40
(dp41
g12
I6
sg13
S'+'
sg14
(i__main__
Node
p42
(dp43
g12
I7
sg13
g30
sg14
Nsg26
g40
sg27
Nsbsg26
g31
sg27
(i__main__
Node
p44
(dp45
g12
I7
sg13
g39
sg14
Nsg26
g40
sg27
Nsbsbsbsbsg26
g15
sg27
(i__main__
Node
p46
(dp47
g12
I4
sg13
S'+'
sg14
(i__main__
Node
p48
(dp49
g12
I5
sg13
g30
sg14
Nsg26
g46
sg27
Nsbsg26
g17
sg27
(i__main__
Node
p50
(dp51
g12
I5
sg13
g39
sg14
Nsg26
g46
sg27
Nsbsbsbsg26
g10
sg27
(i__main__
Node
p52
(dp53
g12
I3
sg13
S'+'
sg14
(i__main__
Node
p54
(dp55
g12
I4
sg13
g30
sg14
Nsg26
g52
sg27
Nsbsg26
g15
sg27
(i__main__
Node
p56
(dp57
g12
I4
sg13
g39
sg14
Nsg26
g52
sg27
Nsbsbsbsg26
Nsg27
(i__main__
Node
p58
(dp59
g12
I2
sg13
S'+'
sg14
(i__main__
Node
p60
(dp61
g12
I3
sg13
g30
sg14
Nsg26
g58
sg27
Nsbsg26
g10
sg27
(i__main__
Node
p62
(dp63
g12
I3
sg13
g39
sg14
Nsg26
g58
sg27
NsbsbsbsS'accel_x'
p64
F-0.14964875033717284
sS'accel_y'
p65
F-1.5268183619827465
sS'visionAngle'
p66
I130
sS'maxAccel'
p67
I2
sS'maxVel'
p68
F0.72999999999999998
sS'age'
p69
I150
sS'tailSize'
p70
I0
sS'sexualgeno'
p71
NsS'tailBrigh'
p72
I0
sS'maxSteering'
p73
I20
sS'energy'
p74
F0.0031040886855956719
sS'lastScale'
p75
F5.5310408868559566
sb.(i__main__
Data_mobile
p1
(dp2
S'vel_y'
p3
F0.71544036487340479
sS'vel_x'
p4
F0.14506923970921343
sS'pos_x'
p5
F74.371313397659435
sS'pos_y'
p6
F1.2466754464661709
sS'isAlive'
p7
I01
sS'cumulativeEnergy'
p8
F15.710844504410762
sS'geno'
p9
(i__main__
Node
p10
(dp11
S'depth'
p12
I1
sS'vector'
p13
S'+'
sS'right'
p14
(i__main__
Node
p15
(dp16
g12
I2
sg13
S'+'
sg14
(i__main__
Node
p17
(dp18
g12
I3
sg13
S'indiv.currentEnergy()'
p19
sg14
NsS'parent'
p20
g15
sS'left'
p21
Nsbsg20
g10
sg21
(i__main__
Node
p22
(dp23
g12
I3
sg13
S'indiv.target()'
p24
sg14
Nsg20
g15
sg21
Nsbsbsg20
Nsg21
(i__main__
Node
p25
(dp26
g12
I2
sg13
S'+'
sg14
(i__main__
Node
p27
(dp28
g12
I3
sg13
g19
sg14
Nsg20
g25
sg21
Nsbsg20
g10
sg21
(i__main__
Node
p29
(dp30
g12
I3
sg13
g24
sg14
Nsg20
g25
sg21
NsbsbsbsS'accel_x'
p31
F0.28603179238410148
sS'accel_y'
p32
F1.979440783086359
sS'visionAngle'
p33
I130
sS'maxAccel'
p34
I2
sS'maxVel'
p35
F0.72999999999999998
sS'age'
p36
I200
sS'tailSize'
p37
I0
sS'sexualgeno'
p38
NsS'tailBrigh'
p39
I0
sS'maxSteering'
p40
I20
sS'energy'
p41
F0.15982086789034003
sS'lastScale'
p42
F7.0982086789033998
sb.(i__main__
Data_mobile
p1
(dp2
S'vel_y'
p3
F-0.43801231493182646
sS'vel_x'
p4
F-0.58399076359824609
sS'pos_x'
p5
F89.467944884700046
sS'pos_y'
p6
F29.673185145040765
sS'isAlive'
p7
I01
sS'cumulativeEnergy'
p8
F14.931245061703288
sS'geno'
p9
(i__main__
Node
p10
(dp11
S'depth'
p12
I1
sS'vector'
p13
S'+'
sS'right'
p14
(i__main__
Node
p15
(dp16
g12
I2
sg13
S'/'
sg14
(i__main__
Node
p17
(dp18
g12
I3
sg13
S'/'
sg14
(i__main__
Node
p19
(dp20
g12
I4
sg13
S'indiv.alignment()'
p21
sg14
NsS'parent'
p22
g17
sS'left'
p23
Nsbsg22
g15
sg23
(i__main__
Node
p24
(dp25
g12
I4
sg13
S'indiv.currentEnergy()'
p26
sg14
Nsg22
g17
sg23
Nsbsbsg22
g10
sg23
(i__main__
Node
p27
(dp28
g12
I3
sg13
S'/'
sg14
(i__main__
Node
p29
(dp30
g12
I4
sg13
S'+'
sg14
(i__main__
Node
p31
(dp32
g12
I5
sg13
g26
sg14
Nsg22
g29
sg23
Nsbsg22
g27
sg23
(i__main__
Node
p33
(dp34
g12
I5
sg13
S'indiv.target()'
p35
sg14
Nsg22
g29
sg23
Nsbsbsg22
g15
sg23
(i__main__
Node
p36
(dp37
g12
I4
sg13
S'+'
sg14
(i__main__
Node
p38
(dp39
g12
I5
sg13
g26
sg14
Nsg22
g36
sg23
Nsbsg22
g27
sg23
(i__main__
Node
p40
(dp41
g12
I5
sg13
g35
sg14
Nsg22
g36
sg23
Nsbsbsbsbsg22
Nsg23
(i__main__
Node
p42
(dp43
g12
I2
sg13
S'+'
sg14
(i__main__
Node
p44
(dp45
g12
I3
sg13
g26
sg14
Nsg22
g42
sg23
Nsbsg22
g10
sg23
(i__main__
Node
p46
(dp47
g12
I3
sg13
g35
sg14
Nsg22
g42
sg23
NsbsbsbsS'accel_x'
p48
F0.038127255129943645
sS'accel_y'
p49
F1.9996365450791942
sS'visionAngle'
p50
I130
sS'maxAccel'
p51
I2
sS'maxVel'
p52
F0.72999999999999998
sS'age'
p53
I50
sS'tailSize'
p54
I0
sS'sexualgeno'
p55
NsS'tailBrigh'
p56
I0
sS'maxSteering'
p57
I20
sS'energy'
p58
F0.14825676022439965
sS'lastScale'
p59
F6.9825676022439964
sb.(i__main__
Data_mobile
p1
(dp2
S'vel_y'
p3
F0.5161879502661797
sS'vel_x'
p4
F0.51618795026617958
sS'pos_x'
p5
F157.20808314404263
sS'pos_y'
p6
F57.006100435790032
sS'isAlive'
p7
I01
sS'cumulativeEnergy'
p8
F12.231245061703294
sS'geno'
p9
(i__main__
Node
p10
(dp11
S'depth'
p12
I1
sS'vector'
p13
S'+'
sS'right'
p14
(i__main__
Node
p15
(dp16
g12
I2
sg13
S'+'
sg14
(i__main__
Node
p17
(dp18
g12
I3
sg13
S'indiv.currentEnergy()'
p19
sg14
NsS'parent'
p20
g15
sS'left'
p21
Nsbsg20
g10
sg21
(i__main__
Node
p22
(dp23
g12
I3
sg13
S'indiv.target()'
p24
sg14
Nsg20
g15
sg21
Nsbsbsg20
Nsg21
(i__main__
Node
p25
(dp26
g13
S'-'
sg12
I2
sg14
(i__main__
Node
p27
(dp28
g13
g24
sg12
I3
sg14
Nsg20
g25
sg21
Nsbsg20
g10
sg21
(i__main__
Node
p29
(dp30
g13
g19
sg12
I3
sg14
Nsg20
g25
sg21
NsbsbsbsS'accel_x'
p31
F0
sS'accel_y'
p32
F0
sS'visionAngle'
p33
I130
sS'maxAccel'
p34
I2
sS'maxVel'
p35
F0.72999999999999998
sS'age'
p36
I50
sS'tailSize'
p37
I0
sS'sexualgeno'
p38
NsS'tailBrigh'
p39
I0
sS'maxSteering'
p40
I20
sS'energy'
p41
I0
sS'lastScale'
p42
F5.5
sb.(i__main__
Data_mobile
p1
(dp2
S'vel_y'
p3
F0.034929164313257335
sS'vel_x'
p4
F0.3149078224602595
sS'pos_x'
p5
F32.784291046313548
sS'pos_y'
p6
F0.10584326502686991
sS'isAlive'
p7
I01
sS'cumulativeEnergy'
p8
F0.5
sS'geno'
p9
(i__main__
Node
p10
(dp11
S'depth'
p12
I1
sS'vector'
p13
S'+'
sS'right'
p14
(i__main__
Node
p15
(dp16
g12
I2
sg13
S'/'
sg14
(i__main__
Node
p17
(dp18
g12
I3
sg13
S'+'
sg14
(i__main__
Node
p19
(dp20
g12
I4
sg13
S'indiv.alignment()'
p21
sg14
NsS'parent'
p22
g17
sS'left'
p23
Nsbsg22
g15
sg23
(i__main__
Node
p24
(dp25
g12
I4
sg13
S'indiv.currentEnergy()'
p26
sg14
Nsg22
g17
sg23
Nsbsbsg22
g10
sg23
(i__main__
Node
p27
(dp28
g12
I3
sg13
S'+'
sg14
(i__main__
Node
p29
(dp30
g12
I4
sg13
g26
sg14
Nsg22
g27
sg23
Nsbsg22
g15
sg23
(i__main__
Node
p31
(dp32
g12
I4
sg13
S'indiv.target()'
p33
sg14
Nsg22
g27
sg23
Nsbsbsbsg22
Nsg23
(i__main__
Node
p34
(dp35
g12
I2
sg13
S'+'
sg14
(i__main__
Node
p36
(dp37
g12
I3
sg13
g26
sg14
Nsg22
g34
sg23
Nsbsg22
g10
sg23
(i__main__
Node
p38
(dp39
g12
I3
sg13
g33
sg14
Nsg22
g34
sg23
NsbsbsbsS'accel_x'
p40
F0
sS'accel_y'
p41
F0
sS'visionAngle'
p42
I130
sS'maxAccel'
p43
I2
sS'maxVel'
p44
F0.72999999999999998
sS'age'
p45
I0
sS'tailSize'
p46
I0
sS'sexualgeno'
p47
NsS'tailBrigh'
p48
I0
sS'maxSteering'
p49
I20
sS'energy'
p50
F0.5
sS'lastScale'
p51
F5.5
sb.(i__main__
Data_mobile
p1
(dp2
S'vel_y'
p3
F-0.14870975638489145
sS'vel_x'
p4
F0.079909128965469839
sS'pos_x'
p5
F70.009159469628798
sS'pos_y'
p6
F-0.68779243819281
sS'isAlive'
p7
I01
sS'cumulativeEnergy'
p8
F0.5
sS'geno'
p9
(i__main__
Node
p10
(dp11
S'depth'
p12
I1
sS'vector'
p13
S'+'
sS'right'
p14
(i__main__
Node
p15
(dp16
g12
I2
sg13
S'+'
sg14
(i__main__
Node
p17
(dp18
g12
I3
sg13
S'indiv.target()'
p19
sg14
NsS'parent'
p20
g15
sS'left'
p21
Nsbsg20
g10
sg21
(i__main__
Node
p22
(dp23
g12
I3
sg13
S'indiv.currentEnergy()'
p24
sg14
Nsg20
g15
sg21
Nsbsbsg20
Nsg21
(i__main__
Node
p25
(dp26
g12
I2
sg13
S'/'
sg14
(i__main__
Node
p27
(dp28
g12
I3
sg13
S'indiv.alignment()'
p29
sg14
Nsg20
g25
sg21
Nsbsg20
g10
sg21
(i__main__
Node
p30
(dp31
g12
I3
sg13
g24
sg14
Nsg20
g25
sg21
NsbsbsbsS'accel_x'
p32
F0
sS'accel_y'
p33
F0
sS'visionAngle'
p34
I130
sS'maxAccel'
p35
I2
sS'maxVel'
p36
F0.72999999999999998
sS'age'
p37
I0
sS'tailSize'
p38
I0
sS'sexualgeno'
p39
NsS'tailBrigh'
p40
I0
sS'maxSteering'
p41
I20
sS'energy'
p42
F0.5
sS'lastScale'
p43
F5.5
sb.(i__main__
Data_mobile
p1
(dp2
S'vel_y'
p3
F-0.23106602612583488
sS'vel_x'
p4
F-0.69162658710620506
sS'pos_x'
p5
F-36.580439316506691
sS'pos_y'
p6
F28.034126267845494
sS'isAlive'
p7
I01
sS'cumulativeEnergy'
p8
F0.5
sS'geno'
p9
(i__main__
Node
p10
(dp11
S'depth'
p12
I1
sS'vector'
p13
S'+'
sS'right'
p14
(i__main__
Node
p15
(dp16
g12
I2
sg13
S'+'
sg14
(i__main__
Node
p17
(dp18
g12
I3
sg13
S'indiv.currentEnergy()'
p19
sg14
NsS'parent'
p20
g15
sS'left'
p21
Nsbsg20
g10
sg21
(i__main__
Node
p22
(dp23
g12
I3
sg13
S'indiv.target()'
p24
sg14
Nsg20
g15
sg21
Nsbsbsg20
Nsg21
(i__main__
Node
p25
(dp26
g12
I2
sg13
S'/'
sg14
(i__main__
Node
p27
(dp28
g12
I3
sg13
S'/'
sg14
(i__main__
Node
p29
(dp30
g12
I4
sg13
S'indiv.alignment()'
p31
sg14
Nsg20
g27
sg21
Nsbsg20
g25
sg21
(i__main__
Node
p32
(dp33
g12
I4
sg13
g19
sg14
Nsg20
g27
sg21
Nsbsbsg20
g10
sg21
(i__main__
Node
p34
(dp35
g12
I3
sg13
S'/'
sg14
(i__main__
Node
p36
(dp37
g12
I4
sg13
S'/'
sg14
(i__main__
Node
p38
(dp39
g12
I5
sg13
S'/'
sg14
(i__main__
Node
p40
(dp41
g12
I6
sg13
g31
sg14
Nsg20
g38
sg21
Nsbsg20
g36
sg21
(i__main__
Node
p42
(dp43
g12
I6
sg13
g19
sg14
Nsg20
g38
sg21
Nsbsbsg20
g34
sg21
(i__main__
Node
p44
(dp45
g12
I5
sg13
S'+'
sg14
(i__main__
Node
p46
(dp47
g12
I6
sg13
g31
sg14
Nsg20
g44
sg21
Nsbsg20
g36
sg21
(i__main__
Node
p48
(dp49
g12
I6
sg13
g19
sg14
Nsg20
g44
sg21
Nsbsbsbsg20
g25
sg21
(i__main__
Node
p50
(dp51
g12
I4
sg13
S'+'
sg14
(i__main__
Node
p52
(dp53
g12
I5
sg13
g19
sg14
Nsg20
g50
sg21
Nsbsg20
g34
sg21
(i__main__
Node
p54
(dp55
g12
I5
sg13
g24
sg14
Nsg20
g50
sg21
NsbsbsbsbsbsS'accel_x'
p56
F0
sS'accel_y'
p57
F0
sS'visionAngle'
p58
I130
sS'maxAccel'
p59
I2
sS'maxVel'
p60
F0.72999999999999998
sS'age'
p61
I0
sS'tailSize'
p62
I0
sS'sexualgeno'
p63
NsS'tailBrigh'
p64
I0
sS'maxSteering'
p65
I20
sS'energy'
p66
F0.5
sS'lastScale'
p67
F5.5
sb.(i__main__
Data_mobile
p1
(dp2
S'vel_y'
p3
F-0.19834333293955692
sS'vel_x'
p4
F-0.62940142019200707
sS'pos_x'
p5
F19.867831067235308
sS'pos_y'
p6
F19.458990876719284
sS'isAlive'
p7
I01
sS'cumulativeEnergy'
p8
F0.5
sS'geno'
p9
(i__main__
Node
p10
(dp11
S'depth'
p12
I1
sS'vector'
p13
S'+'
sS'right'
p14
(i__main__
Node
p15
(dp16
g12
I2
sg13
S'+'
sg14
(i__main__
Node
p17
(dp18
g12
I3
sg13
S'indiv.currentEnergy()'
p19
sg14
NsS'parent'
p20
g15
sS'left'
p21
Nsbsg20
g10
sg21
(i__main__
Node
p22
(dp23
g12
I3
sg13
S'indiv.target()'
p24
sg14
Nsg20
g15
sg21
Nsbsbsg20
Nsg21
(i__main__
Node
p25
(dp26
g12
I2
sg13
S'+'
sg14
(i__main__
Node
p27
(dp28
g12
I3
sg13
g19
sg14
Nsg20
g25
sg21
Nsbsg20
g10
sg21
(i__main__
Node
p29
(dp30
g12
I3
sg13
g24
sg14
Nsg20
g25
sg21
NsbsbsbsS'accel_x'
p31
F0
sS'accel_y'
p32
F0
sS'visionAngle'
p33
I130
sS'maxAccel'
p34
I2
sS'maxVel'
p35
F0.72999999999999998
sS'age'
p36
I0
sS'tailSize'
p37
I0
sS'sexualgeno'
p38
NsS'tailBrigh'
p39
I0
sS'maxSteering'
p40
I20
sS'energy'
p41
F0.5
sS'lastScale'
p42
F5.5
sb.(i__main__
Data_mobile
p1
(dp2
S'vel_y'
p3
F-0.014369497288991191
sS'vel_x'
p4
F0.35657616029335504
sS'pos_x'
p5
F73.821293972287691
sS'pos_y'
p6
F5.7782391982181238
sS'isAlive'
p7
I01
sS'cumulativeEnergy'
p8
F0.5
sS'geno'
p9
(i__main__
Node
p10
(dp11
S'depth'
p12
I1
sS'vector'
p13
S'+'
sS'right'
p14
(i__main__
Node
p15
(dp16
g12
I2
sg13
S'/'
sg14
(i__main__
Node
p17
(dp18
g12
I3
sg13
S'+'
sg14
(i__main__
Node
p19
(dp20
g12
I4
sg13
S'indiv.currentEnergy()'
p21
sg14
NsS'parent'
p22
g17
sS'left'
p23
Nsbsg22
g15
sg23
(i__main__
Node
p24
(dp25
g12
I4
sg13
S'indiv.target()'
p26
sg14
Nsg22
g17
sg23
Nsbsbsg22
g10
sg23
(i__main__
Node
p27
(dp28
g12
I3
sg13
S'+'
sg14
(i__main__
Node
p29
(dp30
g12
I4
sg13
g21
sg14
Nsg22
g27
sg23
Nsbsg22
g15
sg23
(i__main__
Node
p31
(dp32
g12
I4
sg13
g26
sg14
Nsg22
g27
sg23
Nsbsbsbsg22
Nsg23
(i__main__
Node
p33
(dp34
g12
I2
sg13
S'+'
sg14
(i__main__
Node
p35
(dp36
g12
I3
sg13
g21
sg14
Nsg22
g33
sg23
Nsbsg22
g10
sg23
(i__main__
Node
p37
(dp38
g12
I3
sg13
g26
sg14
Nsg22
g33
sg23
NsbsbsbsS'accel_x'
p39
F0
sS'accel_y'
p40
F0
sS'visionAngle'
p41
I130
sS'maxAccel'
p42
I2
sS'maxVel'
p43
F0.72999999999999998
sS'age'
p44
I0
sS'tailSize'
p45
I0
sS'sexualgeno'
p46
NsS'tailBrigh'
p47
I0
sS'maxSteering'
p48
I20
sS'energy'
p49
F0.5
sS'lastScale'
p50
F5.5
sb.(i__main__
Data_mobile
p1
(dp2
S'vel_y'
p3
F-0.16162110531246351
sS'vel_x'
p4
F-0.28764745812455678
sS'pos_x'
p5
F90.478638247819262
sS'pos_y'
p6
F33.972622803321023
sS'isAlive'
p7
I01
sS'cumulativeEnergy'
p8
F0.5
sS'geno'
p9
(i__main__
Node
p10
(dp11
S'depth'
p12
I1
sS'vector'
p13
S'+'
sS'right'
p14
(i__main__
Node
p15
(dp16
g12
I2
sg13
S'+'
sg14
(i__main__
Node
p17
(dp18
g12
I3
sg13
S'indiv.target()'
p19
sg14
NsS'parent'
p20
g15
sS'left'
p21
Nsbsg20
g10
sg21
(i__main__
Node
p22
(dp23
g12
I3
sg13
S'indiv.currentEnergy()'
p24
sg14
Nsg20
g15
sg21
Nsbsbsg20
Nsg21
(i__main__
Node
p25
(dp26
g12
I2
sg13
S'+'
sg14
(i__main__
Node
p27
(dp28
g12
I3
sg13
g24
sg14
Nsg20
g25
sg21
Nsbsg20
g10
sg21
(i__main__
Node
p29
(dp30
g12
I3
sg13
g19
sg14
Nsg20
g25
sg21
NsbsbsbsS'accel_x'
p31
F0
sS'accel_y'
p32
F0
sS'visionAngle'
p33
I130
sS'maxAccel'
p34
I2
sS'maxVel'
p35
F0.72999999999999998
sS'age'
p36
I0
sS'tailSize'
p37
I0
sS'sexualgeno'
p38
NsS'tailBrigh'
p39
I0
sS'maxSteering'
p40
I20
sS'energy'
p41
F0.5
sS'lastScale'
p42
F5.5
sb.(i__main__
Data_mobile
p1
(dp2
S'vel_y'
p3
F-0.45667244883114327
sS'vel_x'
p4
F-0.49761560044636222
sS'pos_x'
p5
F31.659966963542995
sS'pos_y'
p6
F-15.923746419081018
sS'isAlive'
p7
I01
sS'cumulativeEnergy'
p8
F0.5
sS'geno'
p9
(i__main__
Node
p10
(dp11
S'depth'
p12
I1
sS'vector'
p13
S'+'
sS'right'
p14
(i__main__
Node
p15
(dp16
g13
S'indiv.target()'
p17
sg12
I2
sg14
NsS'parent'
p18
g10
sS'left'
p19
Nsbsg18
Nsg19
(i__main__
Node
p20
(dp21
g12
I2
sg13
S'+'
sg14
(i__main__
Node
p22
(dp23
g12
I3
sg13
S'indiv.currentEnergy()'
p24
sg14
Nsg18
g20
sg19
Nsbsg18
g10
sg19
(i__main__
Node
p25
(dp26
g12
I3
sg13
g17
sg14
Nsg18
g20
sg19
NsbsbsbsS'accel_x'
p27
F0
sS'accel_y'
p28
F0
sS'visionAngle'
p29
I130
sS'maxAccel'
p30
I2
sS'maxVel'
p31
F0.72999999999999998
sS'age'
p32
I0
sS'tailSize'
p33
I0
sS'sexualgeno'
p34
NsS'tailBrigh'
p35
I0
sS'maxSteering'
p36
I20
sS'energy'
p37
F0.5
sS'lastScale'
p38
F5.5
sb.(i__main__
Data_mobile
p1
(dp2
S'vel_y'
p3
F0.022964093085425241
sS'vel_x'
p4
F-0.44775735648283665
sS'pos_x'
p5
F90.645357413442852
sS'pos_y'
p6
F33.816772358936795
sS'isAlive'
p7
I01
sS'cumulativeEnergy'
p8
F0.5
sS'geno'
p9
(i__main__
Node
p10
(dp11
S'depth'
p12
I1
sS'vector'
p13
S'+'
sS'right'
p14
(i__main__
Node
p15
(dp16
g12
I2
sg13
S'/'
sg14
(i__main__
Node
p17
(dp18
g12
I3
sg13
S'+'
sg14
(i__main__
Node
p19
(dp20
g12
I4
sg13
S'/'
sg14
(i__main__
Node
p21
(dp22
g12
I5
sg13
S'/'
sg14
(i__main__
Node
p23
(dp24
g12
I6
sg13
S'indiv.alignment()'
p25
sg14
NsS'parent'
p26
g21
sS'left'
p27
Nsbsg26
g19
sg27
(i__main__
Node
p28
(dp29
g12
I6
sg13
S'indiv.currentEnergy()'
p30
sg14
Nsg26
g21
sg27
Nsbsbsg26
g17
sg27
(i__main__
Node
p31
(dp32
g12
I5
sg13
S'/'
sg14
(i__main__
Node
p33
(dp34
g12
I6
sg13
S'+'
sg14
(i__main__
Node
p35
(dp36
g12
I7
sg13
g30
sg14
Nsg26
g33
sg27
Nsbsg26
g31
sg27
(i__main__
Node
p37
(dp38
g12
I7
sg13
S'indiv.target()'
p39
sg14
Nsg26
g33
sg27
Nsbsbsg26
g19
sg27
(i__main__
Node
p40
(dp41
g12
I6
sg13
S'+'
sg14
(i__main__
Node
p42
(dp43
g12
I7
sg13
g30
sg14
Nsg26
g40
sg27
Nsbsg26
g31
sg27
(i__main__
Node
p44
(dp45
g12
I7
sg13
g39
sg14
Nsg26
g40
sg27
Nsbsbsbsbsg26
g15
sg27
(i__main__
Node
p46
(dp47
g12
I4
sg13
S'+'
sg14
(i__main__
Node
p48
(dp49
g12
I5
sg13
S'indiv.cohesion()'
p50
sg14
Nsg26
g46
sg27
Nsbsg26
g17
sg27
(i__main__
Node
p51
(dp52
g12
I5
sg13
g50
sg14
Nsg26
g46
sg27
Nsbsbsbsg26
g10
sg27
(i__main__
Node
p53
(dp54
g12
I3
sg13
S'+'
sg14
(i__main__
Node
p55
(dp56
g12
I4
sg13
g30
sg14
Nsg26
g53
sg27
Nsbsg26
g15
sg27
(i__main__
Node
p57
(dp58
g12
I4
sg13
g39
sg14
Nsg26
g53
sg27
Nsbsbsbsg26
Nsg27
(i__main__
Node
p59
(dp60
g12
I2
sg13
S'+'
sg14
(i__main__
Node
p61
(dp62
g12
I3
sg13
g30
sg14
Nsg26
g59
sg27
Nsbsg26
g10
sg27
(i__main__
Node
p63
(dp64
g12
I3
sg13
g39
sg14
Nsg26
g59
sg27
NsbsbsbsS'accel_x'
p65
F0
sS'accel_y'
p66
F0
sS'visionAngle'
p67
I130
sS'maxAccel'
p68
I2
sS'maxVel'
p69
F0.72999999999999998
sS'age'
p70
I0
sS'tailSize'
p71
I0
sS'sexualgeno'
p72
NsS'tailBrigh'
p73
I0
sS'maxSteering'
p74
I20
sS'energy'
p75
F0.5
sS'lastScale'
p76
F5.5
sb.(i__main__
Data_mobile
p1
(dp2
S'vel_y'
p3
F0.090849216575397629
sS'vel_x'
p4
F-0.16574654807265149
sS'pos_x'
p5
F30.708845805236873
sS'pos_y'
p6
F17.67716060311065
sS'isAlive'
p7
I01
sS'cumulativeEnergy'
p8
F0.5
sS'geno'
p9
(i__main__
Node
p10
(dp11
S'depth'
p12
I1
sS'vector'
p13
S'+'
sS'right'
p14
(i__main__
Node
p15
(dp16
g12
I2
sg13
S'+'
sg14
(i__main__
Node
p17
(dp18
g12
I3
sg13
S'indiv.currentEnergy()'
p19
sg14
NsS'parent'
p20
g15
sS'left'
p21
Nsbsg20
g10
sg21
(i__main__
Node
p22
(dp23
g12
I3
sg13
S'indiv.target()'
p24
sg14
Nsg20
g15
sg21
Nsbsbsg20
Nsg21
(i__main__
Node
p25
(dp26
g12
I2
sg13
S'+'
sg14
(i__main__
Node
p27
(dp28
g12
I3
sg13
g24
sg14
Nsg20
g25
sg21
Nsbsg20
g10
sg21
(i__main__
Node
p29
(dp30
g12
I3
sg13
g19
sg14
Nsg20
g25
sg21
NsbsbsbsS'accel_x'
p31
F0
sS'accel_y'
p32
F0
sS'visionAngle'
p33
I130
sS'maxAccel'
p34
I2
sS'maxVel'
p35
F0.72999999999999998
sS'age'
p36
I0
sS'tailSize'
p37
I0
sS'sexualgeno'
p38
NsS'tailBrigh'
p39
I0
sS'maxSteering'
p40
I20
sS'energy'
p41
F0.5
sS'lastScale'
p42
F5.5
sb.(i__main__
Data_mobile
p1
(dp2
S'vel_y'
p3
F-0.45809574665795838
sS'vel_x'
p4
F-0.49909879823289505
sS'pos_x'
p5
F105.2943368813813
sS'pos_y'
p6
F-13.171968148219925
sS'isAlive'
p7
I01
sS'cumulativeEnergy'
p8
F0.5
sS'geno'
p9
(i__main__
Node
p10
(dp11
S'depth'
p12
I1
sS'vector'
p13
S'+'
sS'right'
p14
(i__main__
Node
p15
(dp16
g12
I2
sg13
S'+'
sg14
(i__main__
Node
p17
(dp18
g12
I3
sg13
S'indiv.currentEnergy()'
p19
sg14
NsS'parent'
p20
g15
sS'left'
p21
Nsbsg20
g10
sg21
(i__main__
Node
p22
(dp23
g12
I3
sg13
S'indiv.target()'
p24
sg14
Nsg20
g15
sg21
Nsbsbsg20
Nsg21
(i__main__
Node
p25
(dp26
g12
I2
sg13
S'+'
sg14
(i__main__
Node
p27
(dp28
g12
I3
sg13
g19
sg14
Nsg20
g25
sg21
Nsbsg20
g10
sg21
(i__main__
Node
p29
(dp30
g12
I3
sg13
g24
sg14
Nsg20
g25
sg21
NsbsbsbsS'accel_x'
p31
F0
sS'accel_y'
p32
F0
sS'visionAngle'
p33
I130
sS'maxAccel'
p34
I2
sS'maxVel'
p35
F0.72999999999999998
sS'age'
p36
I0
sS'tailSize'
p37
I0
sS'sexualgeno'
p38
NsS'tailBrigh'
p39
I0
sS'maxSteering'
p40
I20
sS'energy'
p41
F0.5
sS'lastScale'
p42
F5.5
sb.(i__main__
Data_mobile
p1
(dp2
S'vel_y'
p3
F-0.19728564697406401
sS'vel_x'
p4
F-0.69903627051416084
sS'pos_x'
p5
F-37.051015149414702
sS'pos_y'
p6
F28.294479190440036
sS'isAlive'
p7
I01
sS'cumulativeEnergy'
p8
F0.5
sS'geno'
p9
(i__main__
Node
p10
(dp11
S'depth'
p12
I1
sS'vector'
p13
S'+'
sS'right'
p14
(i__main__
Node
p15
(dp16
g12
I2
sg13
S'+'
sg14
(i__main__
Node
p17
(dp18
g12
I3
sg13
S'+'
sg14
(i__main__
Node
p19
(dp20
g12
I4
sg13
S'indiv.target()'
p21
sg14
NsS'parent'
p22
g17
sS'left'
p23
Nsbsg22
g15
sg23
(i__main__
Node
p24
(dp25
g12
I4
sg13
S'indiv.currentEnergy()'
p26
sg14
Nsg22
g17
sg23
Nsbsbsg22
g10
sg23
(i__main__
Node
p27
(dp28
g12
I3
sg13
S'+'
sg14
(i__main__
Node
p29
(dp30
g12
I4
sg13
S'indiv.cohesion()'
p31
sg14
Nsg22
g27
sg23
Nsbsg22
g15
sg23
(i__main__
Node
p32
(dp33
g12
I4
sg13
g31
sg14
Nsg22
g27
sg23
Nsbsbsbsg22
Nsg23
(i__main__
Node
p34
(dp35
g12
I2
sg13
S'+'
sg14
(i__main__
Node
p36
(dp37
g12
I3
sg13
g26
sg14
Nsg22
g34
sg23
Nsbsg22
g10
sg23
(i__main__
Node
p38
(dp39
g12
I3
sg13
g21
sg14
Nsg22
g34
sg23
NsbsbsbsS'accel_x'
p40
F0
sS'accel_y'
p41
F0
sS'visionAngle'
p42
I130
sS'maxAccel'
p43
I2
sS'maxVel'
p44
F0.72999999999999998
sS'age'
p45
I0
sS'tailSize'
p46
I0
sS'sexualgeno'
p47
NsS'tailBrigh'
p48
I0
sS'maxSteering'
p49
I20
sS'energy'
p50
F0.5
sS'lastScale'
p51
F5.5
sb.(i__main__
Data_mobile
p1
(dp2
S'vel_y'
p3
F-0.079500637189034967
sS'vel_x'
p4
F-0.72329788029410047
sS'pos_x'
p5
F-27.000685780521902
sS'pos_y'
p6
F-15.488020311368357
sS'isAlive'
p7
I01
sS'cumulativeEnergy'
p8
F0.5
sS'geno'
p9
(i__main__
Node
p10
(dp11
S'depth'
p12
I1
sS'vector'
p13
S'+'
sS'right'
p14
(i__main__
Node
p15
(dp16
g13
S'-'
sg12
I2
sg14
(i__main__
Node
p17
(dp18
g13
S'+'
sg12
I3
sg14
(i__main__
Node
p19
(dp20
g13
S'indiv.randV()'
p21
sg12
I4
sg14
NsS'parent'
p22
g17
sS'left'
p23
Nsbsg22
g15
sg23
(i__main__
Node
p24
(dp25
g13
S'indiv.currentEnergy()'
p26
sg12
I4
sg14
Nsg22
g17
sg23
Nsbsbsg22
g10
sg23
(i__main__
Node
p27
(dp28
g13
S'/'
sg12
I3
sg14
(i__main__
Node
p29
(dp30
g13
S'indiv.target()'
p31
sg12
I4
sg14
Nsg22
g27
sg23
Nsbsg22
g15
sg23
(i__main__
Node
p32
(dp33
g13
g31
sg12
I4
sg14
Nsg22
g27
sg23
Nsbsbsbsg22
Nsg23
(i__main__
Node
p34
(dp35
g12
I2
sg13
S'+'
sg14
(i__main__
Node
p36
(dp37
g12
I3
sg13
g26
sg14
Nsg22
g34
sg23
Nsbsg22
g10
sg23
(i__main__
Node
p38
(dp39
g12
I3
sg13
g31
sg14
Nsg22
g34
sg23
NsbsbsbsS'accel_x'
p40
F0
sS'accel_y'
p41
F0
sS'visionAngle'
p42
I130
sS'maxAccel'
p43
I2
sS'maxVel'
p44
F0.72999999999999998
sS'age'
p45
I0
sS'tailSize'
p46
I0
sS'sexualgeno'
p47
NsS'tailBrigh'
p48
I0
sS'maxSteering'
p49
I20
sS'energy'
p50
F0.5
sS'lastScale'
p51
F5.5
sb.(i__main__
Data_mobile
p1
(dp2
S'vel_y'
p3
F-0.47514720978899588
sS'vel_x'
p4
F-0.54569624464874977
sS'pos_x'
p5
F-31.899899871613457
sS'pos_y'
p6
F6.9702537010162153
sS'isAlive'
p7
I01
sS'cumulativeEnergy'
p8
F0.5
sS'geno'
p9
(i__main__
Node
p10
(dp11
S'depth'
p12
I1
sS'vector'
p13
S'+'
sS'right'
p14
(i__main__
Node
p15
(dp16
g12
I2
sg13
S'+'
sg14
(i__main__
Node
p17
(dp18
g12
I3
sg13
S'indiv.currentEnergy()'
p19
sg14
NsS'parent'
p20
g15
sS'left'
p21
Nsbsg20
g10
sg21
(i__main__
Node
p22
(dp23
g12
I3
sg13
S'indiv.target()'
p24
sg14
Nsg20
g15
sg21
Nsbsbsg20
Nsg21
(i__main__
Node
p25
(dp26
g13
S'-'
sg12
I2
sg14
(i__main__
Node
p27
(dp28
g13
S'indiv.cohesion()'
p29
sg12
I3
sg14
Nsg20
g25
sg21
Nsbsg20
g10
sg21
(i__main__
Node
p30
(dp31
g13
S'indiv.separation()'
p32
sg12
I3
sg14
Nsg20
g25
sg21
NsbsbsbsS'accel_x'
p33
F0
sS'accel_y'
p34
F0
sS'visionAngle'
p35
I130
sS'maxAccel'
p36
I2
sS'maxVel'
p37
F0.72999999999999998
sS'age'
p38
I0
sS'tailSize'
p39
I0
sS'sexualgeno'
p40
NsS'tailBrigh'
p41
I0
sS'maxSteering'
p42
I20
sS'energy'
p43
F0.5
sS'lastScale'
p44
F5.5
sb.(i__main__
Data_mobile
p1
(dp2
S'vel_y'
p3
F-0.007164455694403906
sS'vel_x'
p4
F-0.092557483284375935
sS'pos_x'
p5
F18.198377180271592
sS'pos_y'
p6
F5.9754770221001667
sS'isAlive'
p7
I01
sS'cumulativeEnergy'
p8
F0.5
sS'geno'
p9
(i__main__
Node
p10
(dp11
S'depth'
p12
I1
sS'vector'
p13
S'+'
sS'right'
p14
(i__main__
Node
p15
(dp16
g12
I2
sg13
S'/'
sg14
(i__main__
Node
p17
(dp18
g12
I3
sg13
S'/'
sg14
(i__main__
Node
p19
(dp20
g12
I4
sg13
S'indiv.alignment()'
p21
sg14
NsS'parent'
p22
g17
sS'left'
p23
Nsbsg22
g15
sg23
(i__main__
Node
p24
(dp25
g12
I4
sg13
S'indiv.currentEnergy()'
p26
sg14
Nsg22
g17
sg23
Nsbsbsg22
g10
sg23
(i__main__
Node
p27
(dp28
g12
I3
sg13
S'/'
sg14
(i__main__
Node
p29
(dp30
g12
I4
sg13
g21
sg14
Nsg22
g27
sg23
Nsbsg22
g15
sg23
(i__main__
Node
p31
(dp32
g12
I4
sg13
g26
sg14
Nsg22
g27
sg23
Nsbsbsbsg22
Nsg23
(i__main__
Node
p33
(dp34
g12
I2
sg13
S'+'
sg14
(i__main__
Node
p35
(dp36
g12
I3
sg13
g26
sg14
Nsg22
g33
sg23
Nsbsg22
g10
sg23
(i__main__
Node
p37
(dp38
g12
I3
sg13
S'indiv.target()'
p39
sg14
Nsg22
g33
sg23
NsbsbsbsS'accel_x'
p40
F0
sS'accel_y'
p41
F0
sS'visionAngle'
p42
I130
sS'maxAccel'
p43
I2
sS'maxVel'
p44
F0.72999999999999998
sS'age'
p45
I0
sS'tailSize'
p46
I0
sS'sexualgeno'
p47
NsS'tailBrigh'
p48
I0
sS'maxSteering'
p49
I20
sS'energy'
p50
F0.5
sS'lastScale'
p51
F5.5
sb.(i__main__
Data_mobile
p1
(dp2
S'vel_y'
p3
I0
sS'vel_x'
p4
I0
sS'pos_x'
p5
I-9579
sS'pos_y'
p6
I9779
sS'isAlive'
p7
I00
sS'cumulativeEnergy'
p8
F0.5
sS'geno'
p9
(i__main__
Node
p10
(dp11
S'depth'
p12
I1
sS'vector'
p13
S'+'
sS'right'
p14
(i__main__
Node
p15
(dp16
g12
I2
sg13
S'+'
sg14
(i__main__
Node
p17
(dp18
g12
I3
sg13
S'indiv.currentEnergy()'
p19
sg14
NsS'parent'
p20
g15
sS'left'
p21
Nsbsg20
g10
sg21
(i__main__
Node
p22
(dp23
g12
I3
sg13
S'indiv.target()'
p24
sg14
Nsg20
g15
sg21
Nsbsbsg20
Nsg21
(i__main__
Node
p25
(dp26
g12
I2
sg13
S'/'
sg14
(i__main__
Node
p27
(dp28
g12
I3
sg13
S'/'
sg14
(i__main__
Node
p29
(dp30
g12
I4
sg13
S'indiv.alignment()'
p31
sg14
Nsg20
g27
sg21
Nsbsg20
g25
sg21
(i__main__
Node
p32
(dp33
g12
I4
sg13
g19
sg14
Nsg20
g27
sg21
Nsbsbsg20
g10
sg21
(i__main__
Node
p34
(dp35
g12
I3
sg13
S'+'
sg14
(i__main__
Node
p36
(dp37
g12
I4
sg13
g31
sg14
Nsg20
g34
sg21
Nsbsg20
g25
sg21
(i__main__
Node
p38
(dp39
g12
I4
sg13
g19
sg14
Nsg20
g34
sg21
NsbsbsbsbsS'accel_x'
p40
F0
sS'accel_y'
p41
F0
sS'visionAngle'
p42
I130
sS'maxAccel'
p43
I2
sS'maxVel'
p44
F0.72999999999999998
sS'age'
p45
I0
sS'tailSize'
p46
I0
sS'sexualgeno'
p47
NsS'tailBrigh'
p48
I0
sS'maxSteering'
p49
I20
sS'energy'
p50
F0.5
sS'lastScale'
p51
F5.5
sb.(i__main__
Data_mobile
p1
(dp2
S'vel_y'
p3
I0
sS'vel_x'
p4
I0
sS'pos_x'
p5
I-9579
sS'pos_y'
p6
I9779
sS'isAlive'
p7
I00
sS'cumulativeEnergy'
p8
F0.5
sS'geno'
p9
(i__main__
Node
p10
(dp11
S'depth'
p12
I1
sS'vector'
p13
S'+'
sS'right'
p14
(i__main__
Node
p15
(dp16
g12
I2
sg13
S'/'
sg14
(i__main__
Node
p17
(dp18
g12
I3
sg13
S'/'
sg14
(i__main__
Node
p19
(dp20
g12
I4
sg13
S'indiv.alignment()'
p21
sg14
NsS'parent'
p22
g17
sS'left'
p23
Nsbsg22
g15
sg23
(i__main__
Node
p24
(dp25
g12
I4
sg13
S'indiv.currentEnergy()'
p26
sg14
Nsg22
g17
sg23
Nsbsbsg22
g10
sg23
(i__main__
Node
p27
(dp28
g12
I3
sg13
S'+'
sg14
(i__main__
Node
p29
(dp30
g12
I4
sg13
g21
sg14
Nsg22
g27
sg23
Nsbsg22
g15
sg23
(i__main__
Node
p31
(dp32
g12
I4
sg13
g26
sg14
Nsg22
g27
sg23
Nsbsbsbsg22
Nsg23
(i__main__
Node
p33
(dp34
g12
I2
sg13
S'+'
sg14
(i__main__
Node
p35
(dp36
g12
I3
sg13
g26
sg14
Nsg22
g33
sg23
Nsbsg22
g10
sg23
(i__main__
Node
p37
(dp38
g12
I3
sg13
S'indiv.target()'
p39
sg14
Nsg22
g33
sg23
NsbsbsbsS'accel_x'
p40
F0
sS'accel_y'
p41
F0
sS'visionAngle'
p42
I130
sS'maxAccel'
p43
I2
sS'maxVel'
p44
F0.72999999999999998
sS'age'
p45
I0
sS'tailSize'
p46
I0
sS'sexualgeno'
p47
NsS'tailBrigh'
p48
I0
sS'maxSteering'
p49
I20
sS'energy'
p50
F0.5
sS'lastScale'
p51
F5.5
sb.(i__main__
Data_mobile
p1
(dp2
S'vel_y'
p3
I0
sS'vel_x'
p4
I0
sS'pos_x'
p5
I-9579
sS'pos_y'
p6
I9779
sS'isAlive'
p7
I00
sS'cumulativeEnergy'
p8
F0.5
sS'geno'
p9
(i__main__
Node
p10
(dp11
S'depth'
p12
I1
sS'vector'
p13
S'+'
sS'right'
p14
(i__main__
Node
p15
(dp16
g12
I2
sg13
S'/'
sg14
(i__main__
Node
p17
(dp18
g12
I3
sg13
S'indiv.alignment()'
p19
sg14
NsS'parent'
p20
g15
sS'left'
p21
Nsbsg20
g10
sg21
(i__main__
Node
p22
(dp23
g12
I3
sg13
S'indiv.currentEnergy()'
p24
sg14
Nsg20
g15
sg21
Nsbsbsg20
Nsg21
(i__main__
Node
p25
(dp26
g12
I2
sg13
S'+'
sg14
(i__main__
Node
p27
(dp28
g12
I3
sg13
g24
sg14
Nsg20
g25
sg21
Nsbsg20
g10
sg21
(i__main__
Node
p29
(dp30
g12
I3
sg13
S'indiv.target()'
p31
sg14
Nsg20
g25
sg21
NsbsbsbsS'accel_x'
p32
F0
sS'accel_y'
p33
F0
sS'visionAngle'
p34
I130
sS'maxAccel'
p35
I2
sS'maxVel'
p36
F0.72999999999999998
sS'age'
p37
I0
sS'tailSize'
p38
I0
sS'sexualgeno'
p39
NsS'tailBrigh'
p40
I0
sS'maxSteering'
p41
I20
sS'energy'
p42
F0.5
sS'lastScale'
p43
F5.5
sb.(i__main__
Data_mobile
p1
(dp2
S'vel_y'
p3
I0
sS'vel_x'
p4
I0
sS'pos_x'
p5
I-9579
sS'pos_y'
p6
I9779
sS'isAlive'
p7
I00
sS'cumulativeEnergy'
p8
F0.5
sS'geno'
p9
(i__main__
Node
p10
(dp11
S'depth'
p12
I1
sS'vector'
p13
S'+'
sS'right'
p14
(i__main__
Node
p15
(dp16
g12
I2
sg13
S'+'
sg14
(i__main__
Node
p17
(dp18
g12
I3
sg13
S'indiv.currentEnergy()'
p19
sg14
NsS'parent'
p20
g15
sS'left'
p21
Nsbsg20
g10
sg21
(i__main__
Node
p22
(dp23
g12
I3
sg13
S'indiv.target()'
p24
sg14
Nsg20
g15
sg21
Nsbsbsg20
Nsg21
(i__main__
Node
p25
(dp26
g12
I2
sg13
S'/'
sg14
(i__main__
Node
p27
(dp28
g12
I3
sg13
S'indiv.alignment()'
p29
sg14
Nsg20
g25
sg21
Nsbsg20
g10
sg21
(i__main__
Node
p30
(dp31
g12
I3
sg13
g19
sg14
Nsg20
g25
sg21
NsbsbsbsS'accel_x'
p32
F0
sS'accel_y'
p33
F0
sS'visionAngle'
p34
I130
sS'maxAccel'
p35
I2
sS'maxVel'
p36
F0.72999999999999998
sS'age'
p37
I0
sS'tailSize'
p38
I0
sS'sexualgeno'
p39
NsS'tailBrigh'
p40
I0
sS'maxSteering'
p41
I20
sS'energy'
p42
F0.5
sS'lastScale'
p43
F5.5
sb.(i__main__
Data_mobile
p1
(dp2
S'vel_y'
p3
I0
sS'vel_x'
p4
I0
sS'pos_x'
p5
I-9579
sS'pos_y'
p6
I9779
sS'isAlive'
p7
I00
sS'cumulativeEnergy'
p8
F0.5
sS'geno'
p9
(i__main__
Node
p10
(dp11
S'depth'
p12
I1
sS'vector'
p13
S'+'
sS'right'
p14
(i__main__
Node
p15
(dp16
g12
I2
sg13
S'+'
sg14
(i__main__
Node
p17
(dp18
g12
I3
sg13
S'indiv.currentEnergy()'
p19
sg14
NsS'parent'
p20
g15
sS'left'
p21
Nsbsg20
g10
sg21
(i__main__
Node
p22
(dp23
g12
I3
sg13
S'indiv.target()'
p24
sg14
Nsg20
g15
sg21
Nsbsbsg20
Nsg21
(i__main__
Node
p25
(dp26
g12
I2
sg13
S'+'
sg14
(i__main__
Node
p27
(dp28
g12
I3
sg13
g19
sg14
Nsg20
g25
sg21
Nsbsg20
g10
sg21
(i__main__
Node
p29
(dp30
g12
I3
sg13
g24
sg14
Nsg20
g25
sg21
NsbsbsbsS'accel_x'
p31
F0
sS'accel_y'
p32
F0
sS'visionAngle'
p33
I130
sS'maxAccel'
p34
I2
sS'maxVel'
p35
F0.72999999999999998
sS'age'
p36
I0
sS'tailSize'
p37
I0
sS'sexualgeno'
p38
NsS'tailBrigh'
p39
I0
sS'maxSteering'
p40
I20
sS'energy'
p41
F0.5
sS'lastScale'
p42
F5.5
sb.(i__main__
Data_mobile
p1
(dp2
S'vel_y'
p3
I0
sS'vel_x'
p4
I0
sS'pos_x'
p5
I-9579
sS'pos_y'
p6
I9779
sS'isAlive'
p7
I00
sS'cumulativeEnergy'
p8
F0.5
sS'geno'
p9
(i__main__
Node
p10
(dp11
S'depth'
p12
I1
sS'vector'
p13
S'+'
sS'right'
p14
(i__main__
Node
p15
(dp16
g12
I2
sg13
S'/'
sg14
(i__main__
Node
p17
(dp18
g12
I3
sg13
S'/'
sg14
(i__main__
Node
p19
(dp20
g12
I4
sg13
S'indiv.alignment()'
p21
sg14
NsS'parent'
p22
g17
sS'left'
p23
Nsbsg22
g15
sg23
(i__main__
Node
p24
(dp25
g12
I4
sg13
S'indiv.currentEnergy()'
p26
sg14
Nsg22
g17
sg23
Nsbsbsg22
g10
sg23
(i__main__
Node
p27
(dp28
g12
I3
sg13
S'+'
sg14
(i__main__
Node
p29
(dp30
g12
I4
sg13
g21
sg14
Nsg22
g27
sg23
Nsbsg22
g15
sg23
(i__main__
Node
p31
(dp32
g12
I4
sg13
g26
sg14
Nsg22
g27
sg23
Nsbsbsbsg22
Nsg23
(i__main__
Node
p33
(dp34
g12
I2
sg13
S'+'
sg14
(i__main__
Node
p35
(dp36
g12
I3
sg13
g26
sg14
Nsg22
g33
sg23
Nsbsg22
g10
sg23
(i__main__
Node
p37
(dp38
g12
I3
sg13
S'indiv.target()'
p39
sg14
Nsg22
g33
sg23
NsbsbsbsS'accel_x'
p40
F0
sS'accel_y'
p41
F0
sS'visionAngle'
p42
I130
sS'maxAccel'
p43
I2
sS'maxVel'
p44
F0.72999999999999998
sS'age'
p45
I0
sS'tailSize'
p46
I0
sS'sexualgeno'
p47
NsS'tailBrigh'
p48
I0
sS'maxSteering'
p49
I20
sS'energy'
p50
F0.5
sS'lastScale'
p51
F5.5
sb.(i__main__
Data_mobile
p1
(dp2
S'vel_y'
p3
I0
sS'vel_x'
p4
I0
sS'pos_x'
p5
I-9579
sS'pos_y'
p6
I9779
sS'isAlive'
p7
I00
sS'cumulativeEnergy'
p8
F0.5
sS'geno'
p9
(i__main__
Node
p10
(dp11
S'depth'
p12
I1
sS'vector'
p13
S'+'
sS'right'
p14
(i__main__
Node
p15
(dp16
g12
I2
sg13
S'+'
sg14
(i__main__
Node
p17
(dp18
g12
I3
sg13
S'indiv.currentEnergy()'
p19
sg14
NsS'parent'
p20
g15
sS'left'
p21
Nsbsg20
g10
sg21
(i__main__
Node
p22
(dp23
g12
I3
sg13
S'indiv.target()'
p24
sg14
Nsg20
g15
sg21
Nsbsbsg20
Nsg21
(i__main__
Node
p25
(dp26
g12
I2
sg13
S'+'
sg14
(i__main__
Node
p27
(dp28
g12
I3
sg13
g19
sg14
Nsg20
g25
sg21
Nsbsg20
g10
sg21
(i__main__
Node
p29
(dp30
g12
I3
sg13
g24
sg14
Nsg20
g25
sg21
NsbsbsbsS'accel_x'
p31
F0
sS'accel_y'
p32
F0
sS'visionAngle'
p33
I130
sS'maxAccel'
p34
I2
sS'maxVel'
p35
F0.72999999999999998
sS'age'
p36
I0
sS'tailSize'
p37
I0
sS'sexualgeno'
p38
NsS'tailBrigh'
p39
I0
sS'maxSteering'
p40
I20
sS'energy'
p41
F0.5
sS'lastScale'
p42
F5.5
sb.(i__main__
Data_mobile
p1
(dp2
S'vel_y'
p3
I0
sS'vel_x'
p4
I0
sS'pos_x'
p5
I-9579
sS'pos_y'
p6
I9779
sS'isAlive'
p7
I00
sS'cumulativeEnergy'
p8
F0.5
sS'geno'
p9
(i__main__
Node
p10
(dp11
S'depth'
p12
I1
sS'vector'
p13
S'+'
sS'right'
p14
(i__main__
Node
p15
(dp16
g12
I2
sg13
S'+'
sg14
(i__main__
Node
p17
(dp18
g12
I3
sg13
S'indiv.currentEnergy()'
p19
sg14
NsS'parent'
p20
g15
sS'left'
p21
Nsbsg20
g10
sg21
(i__main__
Node
p22
(dp23
g12
I3
sg13
S'indiv.target()'
p24
sg14
Nsg20
g15
sg21
Nsbsbsg20
Nsg21
(i__main__
Node
p25
(dp26
g12
I2
sg13
S'+'
sg14
(i__main__
Node
p27
(dp28
g12
I3
sg13
g19
sg14
Nsg20
g25
sg21
Nsbsg20
g10
sg21
(i__main__
Node
p29
(dp30
g12
I3
sg13
g24
sg14
Nsg20
g25
sg21
NsbsbsbsS'accel_x'
p31
F0
sS'accel_y'
p32
F0
sS'visionAngle'
p33
I130
sS'maxAccel'
p34
I2
sS'maxVel'
p35
F0.72999999999999998
sS'age'
p36
I0
sS'tailSize'
p37
I0
sS'sexualgeno'
p38
NsS'tailBrigh'
p39
I0
sS'maxSteering'
p40
I20
sS'energy'
p41
F0.5
sS'lastScale'
p42
F5.5
sb.(i__main__
Data_mobile
p1
(dp2
S'vel_y'
p3
I0
sS'vel_x'
p4
I0
sS'pos_x'
p5
I-9579
sS'pos_y'
p6
I9779
sS'isAlive'
p7
I00
sS'cumulativeEnergy'
p8
F0.5
sS'geno'
p9
(i__main__
Node
p10
(dp11
S'depth'
p12
I1
sS'vector'
p13
S'+'
sS'right'
p14
(i__main__
Node
p15
(dp16
g12
I2
sg13
S'/'
sg14
(i__main__
Node
p17
(dp18
g12
I3
sg13
S'+'
sg14
(i__main__
Node
p19
(dp20
g12
I4
sg13
S'/'
sg14
(i__main__
Node
p21
(dp22
g12
I5
sg13
S'/'
sg14
(i__main__
Node
p23
(dp24
g12
I6
sg13
S'indiv.alignment()'
p25
sg14
NsS'parent'
p26
g21
sS'left'
p27
Nsbsg26
g19
sg27
(i__main__
Node
p28
(dp29
g12
I6
sg13
S'indiv.currentEnergy()'
p30
sg14
Nsg26
g21
sg27
Nsbsbsg26
g17
sg27
(i__main__
Node
p31
(dp32
g12
I5
sg13
S'/'
sg14
(i__main__
Node
p33
(dp34
g12
I6
sg13
S'+'
sg14
(i__main__
Node
p35
(dp36
g12
I7
sg13
g30
sg14
Nsg26
g33
sg27
Nsbsg26
g31
sg27
(i__main__
Node
p37
(dp38
g12
I7
sg13
S'indiv.target()'
p39
sg14
Nsg26
g33
sg27
Nsbsbsg26
g19
sg27
(i__main__
Node
p40
(dp41
g12
I6
sg13
S'+'
sg14
(i__main__
Node
p42
(dp43
g12
I7
sg13
g30
sg14
Nsg26
g40
sg27
Nsbsg26
g31
sg27
(i__main__
Node
p44
(dp45
g12
I7
sg13
g39
sg14
Nsg26
g40
sg27
Nsbsbsbsbsg26
g15
sg27
(i__main__
Node
p46
(dp47
g12
I4
sg13
S'+'
sg14
(i__main__
Node
p48
(dp49
g12
I5
sg13
S'indiv.cohesion()'
p50
sg14
Nsg26
g46
sg27
Nsbsg26
g17
sg27
(i__main__
Node
p51
(dp52
g12
I5
sg13
g50
sg14
Nsg26
g46
sg27
Nsbsbsbsg26
g10
sg27
(i__main__
Node
p53
(dp54
g12
I3
sg13
S'+'
sg14
(i__main__
Node
p55
(dp56
g12
I4
sg13
g30
sg14
Nsg26
g53
sg27
Nsbsg26
g15
sg27
(i__main__
Node
p57
(dp58
g12
I4
sg13
g39
sg14
Nsg26
g53
sg27
Nsbsbsbsg26
Nsg27
(i__main__
Node
p59
(dp60
g12
I2
sg13
S'+'
sg14
(i__main__
Node
p61
(dp62
g12
I3
sg13
g30
sg14
Nsg26
g59
sg27
Nsbsg26
g10
sg27
(i__main__
Node
p63
(dp64
g12
I3
sg13
g39
sg14
Nsg26
g59
sg27
NsbsbsbsS'accel_x'
p65
F0
sS'accel_y'
p66
F0
sS'visionAngle'
p67
I130
sS'maxAccel'
p68
I2
sS'maxVel'
p69
F0.72999999999999998
sS'age'
p70
I0
sS'tailSize'
p71
I0
sS'sexualgeno'
p72
NsS'tailBrigh'
p73
I0
sS'maxSteering'
p74
I20
sS'energy'
p75
F0.5
sS'lastScale'
p76
F5.5
sb.(i__main__
Data_mobile
p1
(dp2
S'vel_y'
p3
I0
sS'vel_x'
p4
I0
sS'pos_x'
p5
I-9579
sS'pos_y'
p6
I9779
sS'isAlive'
p7
I00
sS'cumulativeEnergy'
p8
F0.5
sS'geno'
p9
(i__main__
Node
p10
(dp11
S'depth'
p12
I1
sS'vector'
p13
S'+'
sS'right'
p14
(i__main__
Node
p15
(dp16
g12
I2
sg13
S'/'
sg14
(i__main__
Node
p17
(dp18
g12
I3
sg13
S'/'
sg14
(i__main__
Node
p19
(dp20
g12
I4
sg13
S'indiv.alignment()'
p21
sg14
NsS'parent'
p22
g17
sS'left'
p23
Nsbsg22
g15
sg23
(i__main__
Node
p24
(dp25
g12
I4
sg13
S'indiv.currentEnergy()'
p26
sg14
Nsg22
g17
sg23
Nsbsbsg22
g10
sg23
(i__main__
Node
p27
(dp28
g12
I3
sg13
S'/'
sg14
(i__main__
Node
p29
(dp30
g12
I4
sg13
S'/'
sg14
(i__main__
Node
p31
(dp32
g12
I5
sg13
g21
sg14
Nsg22
g29
sg23
Nsbsg22
g27
sg23
(i__main__
Node
p33
(dp34
g12
I5
sg13
g26
sg14
Nsg22
g29
sg23
Nsbsbsg22
g15
sg23
(i__main__
Node
p35
(dp36
g12
I4
sg13
S'/'
sg14
(i__main__
Node
p37
(dp38
g12
I5
sg13
g21
sg14
Nsg22
g35
sg23
Nsbsg22
g27
sg23
(i__main__
Node
p39
(dp40
g12
I5
sg13
g26
sg14
Nsg22
g35
sg23
Nsbsbsbsbsg22
Nsg23
(i__main__
Node
p41
(dp42
g12
I2
sg13
S'+'
sg14
(i__main__
Node
p43
(dp44
g12
I3
sg13
S'+'
sg14
(i__main__
Node
p45
(dp46
g12
I4
sg13
S'indiv.target()'
p47
sg14
Nsg22
g43
sg23
Nsbsg22
g41
sg23
(i__main__
Node
p48
(dp49
g12
I4
sg13
g26
sg14
Nsg22
g43
sg23
Nsbsbsg22
g10
sg23
(i__main__
Node
p50
(dp51
g12
I3
sg13
S'+'
sg14
(i__main__
Node
p52
(dp53
g12
I4
sg13
S'indiv.cohesion()'
p54
sg14
Nsg22
g50
sg23
Nsbsg22
g41
sg23
(i__main__
Node
p55
(dp56
g12
I4
sg13
g54
sg14
Nsg22
g50
sg23
NsbsbsbsbsS'accel_x'
p57
F0
sS'accel_y'
p58
F0
sS'visionAngle'
p59
I130
sS'maxAccel'
p60
I2
sS'maxVel'
p61
F0.72999999999999998
sS'age'
p62
I0
sS'tailSize'
p63
I0
sS'sexualgeno'
p64
NsS'tailBrigh'
p65
I0
sS'maxSteering'
p66
I20
sS'energy'
p67
F0.5
sS'lastScale'
p68
F5.5
sb.(i__main__
Data_mobile
p1
(dp2
S'vel_y'
p3
I0
sS'vel_x'
p4
I0
sS'pos_x'
p5
I-9579
sS'pos_y'
p6
I9779
sS'isAlive'
p7
I00
sS'cumulativeEnergy'
p8
F0.5
sS'geno'
p9
(i__main__
Node
p10
(dp11
S'depth'
p12
I1
sS'vector'
p13
S'+'
sS'right'
p14
(i__main__
Node
p15
(dp16
g12
I2
sg13
S'/'
sg14
(i__main__
Node
p17
(dp18
g12
I3
sg13
S'/'
sg14
(i__main__
Node
p19
(dp20
g12
I4
sg13
S'indiv.alignment()'
p21
sg14
NsS'parent'
p22
g17
sS'left'
p23
Nsbsg22
g15
sg23
(i__main__
Node
p24
(dp25
g12
I4
sg13
S'indiv.currentEnergy()'
p26
sg14
Nsg22
g17
sg23
Nsbsbsg22
g10
sg23
(i__main__
Node
p27
(dp28
g12
I3
sg13
S'/'
sg14
(i__main__
Node
p29
(dp30
g12
I4
sg13
S'+'
sg14
(i__main__
Node
p31
(dp32
g12
I5
sg13
g26
sg14
Nsg22
g29
sg23
Nsbsg22
g27
sg23
(i__main__
Node
p33
(dp34
g12
I5
sg13
S'indiv.target()'
p35
sg14
Nsg22
g29
sg23
Nsbsbsg22
g15
sg23
(i__main__
Node
p36
(dp37
g12
I4
sg13
S'+'
sg14
(i__main__
Node
p38
(dp39
g12
I5
sg13
g26
sg14
Nsg22
g36
sg23
Nsbsg22
g27
sg23
(i__main__
Node
p40
(dp41
g12
I5
sg13
g35
sg14
Nsg22
g36
sg23
Nsbsbsbsbsg22
Nsg23
(i__main__
Node
p42
(dp43
g12
I2
sg13
S'+'
sg14
(i__main__
Node
p44
(dp45
g12
I3
sg13
g26
sg14
Nsg22
g42
sg23
Nsbsg22
g10
sg23
(i__main__
Node
p46
(dp47
g12
I3
sg13
g35
sg14
Nsg22
g42
sg23
NsbsbsbsS'accel_x'
p48
F0
sS'accel_y'
p49
F0
sS'visionAngle'
p50
I130
sS'maxAccel'
p51
I2
sS'maxVel'
p52
F0.72999999999999998
sS'age'
p53
I0
sS'tailSize'
p54
I0
sS'sexualgeno'
p55
NsS'tailBrigh'
p56
I0
sS'maxSteering'
p57
I20
sS'energy'
p58
F0.5
sS'lastScale'
p59
F5.5
sb.(i__main__
Data_mobile
p1
(dp2
S'vel_y'
p3
I0
sS'vel_x'
p4
I0
sS'pos_x'
p5
I-9579
sS'pos_y'
p6
I9779
sS'isAlive'
p7
I00
sS'cumulativeEnergy'
p8
F0.5
sS'geno'
p9
(i__main__
Node
p10
(dp11
S'depth'
p12
I1
sS'vector'
p13
S'+'
sS'right'
p14
(i__main__
Node
p15
(dp16
g12
I2
sg13
S'+'
sg14
(i__main__
Node
p17
(dp18
g12
I3
sg13
S'indiv.currentEnergy()'
p19
sg14
NsS'parent'
p20
g15
sS'left'
p21
Nsbsg20
g10
sg21
(i__main__
Node
p22
(dp23
g12
I3
sg13
S'indiv.target()'
p24
sg14
Nsg20
g15
sg21
Nsbsbsg20
Nsg21
(i__main__
Node
p25
(dp26
g12
I2
sg13
S'+'
sg14
(i__main__
Node
p27
(dp28
g12
I3
sg13
g19
sg14
Nsg20
g25
sg21
Nsbsg20
g10
sg21
(i__main__
Node
p29
(dp30
g12
I3
sg13
g24
sg14
Nsg20
g25
sg21
NsbsbsbsS'accel_x'
p31
F0
sS'accel_y'
p32
F0
sS'visionAngle'
p33
I130
sS'maxAccel'
p34
I2
sS'maxVel'
p35
F0.72999999999999998
sS'age'
p36
I0
sS'tailSize'
p37
I0
sS'sexualgeno'
p38
NsS'tailBrigh'
p39
I0
sS'maxSteering'
p40
I20
sS'energy'
p41
F0.5
sS'lastScale'
p42
F5.5
sb.(i__main__
Data_mobile
p1
(dp2
S'vel_y'
p3
I0
sS'vel_x'
p4
I0
sS'pos_x'
p5
I-9579
sS'pos_y'
p6
I9779
sS'isAlive'
p7
I00
sS'cumulativeEnergy'
p8
F0.5
sS'geno'
p9
(i__main__
Node
p10
(dp11
S'depth'
p12
I1
sS'vector'
p13
S'+'
sS'right'
p14
(i__main__
Node
p15
(dp16
g12
I2
sg13
S'/'
sg14
(i__main__
Node
p17
(dp18
g12
I3
sg13
S'/'
sg14
(i__main__
Node
p19
(dp20
g12
I4
sg13
S'indiv.alignment()'
p21
sg14
NsS'parent'
p22
g17
sS'left'
p23
Nsbsg22
g15
sg23
(i__main__
Node
p24
(dp25
g12
I4
sg13
S'indiv.currentEnergy()'
p26
sg14
Nsg22
g17
sg23
Nsbsbsg22
g10
sg23
(i__main__
Node
p27
(dp28
g12
I3
sg13
S'/'
sg14
(i__main__
Node
p29
(dp30
g12
I4
sg13
S'+'
sg14
(i__main__
Node
p31
(dp32
g12
I5
sg13
g26
sg14
Nsg22
g29
sg23
Nsbsg22
g27
sg23
(i__main__
Node
p33
(dp34
g12
I5
sg13
S'indiv.target()'
p35
sg14
Nsg22
g29
sg23
Nsbsbsg22
g15
sg23
(i__main__
Node
p36
(dp37
g13
S'+'
sg12
I4
sg14
(i__main__
Node
p38
(dp39
g13
S'-'
sg12
I5
sg14
(i__main__
Node
p40
(dp41
g13
S'indiv.randV()'
p42
sg12
I6
sg14
Nsg22
g38
sg23
Nsbsg22
g36
sg23
(i__main__
Node
p43
(dp44
g13
g26
sg12
I6
sg14
Nsg22
g38
sg23
Nsbsbsg22
g27
sg23
(i__main__
Node
p45
(dp46
g13
S'+'
sg12
I5
sg14
(i__main__
Node
p47
(dp48
g13
g42
sg12
I6
sg14
Nsg22
g45
sg23
Nsbsg22
g36
sg23
(i__main__
Node
p49
(dp50
g13
S'indiv.currentVelocity()'
p51
sg12
I6
sg14
Nsg22
g45
sg23
Nsbsbsbsbsbsg22
Nsg23
(i__main__
Node
p52
(dp53
g12
I2
sg13
S'+'
sg14
(i__main__
Node
p54
(dp55
g12
I3
sg13
g26
sg14
Nsg22
g52
sg23
Nsbsg22
g10
sg23
(i__main__
Node
p56
(dp57
g12
I3
sg13
g35
sg14
Nsg22
g52
sg23
NsbsbsbsS'accel_x'
p58
F0
sS'accel_y'
p59
F0
sS'visionAngle'
p60
I130
sS'maxAccel'
p61
I2
sS'maxVel'
p62
F0.72999999999999998
sS'age'
p63
I0
sS'tailSize'
p64
I0
sS'sexualgeno'
p65
NsS'tailBrigh'
p66
I0
sS'maxSteering'
p67
I20
sS'energy'
p68
F0.5
sS'lastScale'
p69
F5.5
sb.(i__main__
Data_mobile
p1
(dp2
S'vel_y'
p3
I0
sS'vel_x'
p4
I0
sS'pos_x'
p5
I-9579
sS'pos_y'
p6
I9779
sS'isAlive'
p7
I00
sS'cumulativeEnergy'
p8
F0.5
sS'geno'
p9
(i__main__
Node
p10
(dp11
S'depth'
p12
I1
sS'vector'
p13
S'+'
sS'right'
p14
(i__main__
Node
p15
(dp16
g12
I2
sg13
S'/'
sg14
(i__main__
Node
p17
(dp18
g12
I3
sg13
S'/'
sg14
(i__main__
Node
p19
(dp20
g12
I4
sg13
S'indiv.alignment()'
p21
sg14
NsS'parent'
p22
g17
sS'left'
p23
Nsbsg22
g15
sg23
(i__main__
Node
p24
(dp25
g12
I4
sg13
S'indiv.currentEnergy()'
p26
sg14
Nsg22
g17
sg23
Nsbsbsg22
g10
sg23
(i__main__
Node
p27
(dp28
g12
I3
sg13
S'/'
sg14
(i__main__
Node
p29
(dp30
g12
I4
sg13
S'+'
sg14
(i__main__
Node
p31
(dp32
g12
I5
sg13
g26
sg14
Nsg22
g29
sg23
Nsbsg22
g27
sg23
(i__main__
Node
p33
(dp34
g12
I5
sg13
S'indiv.target()'
p35
sg14
Nsg22
g29
sg23
Nsbsbsg22
g15
sg23
(i__main__
Node
p36
(dp37
g12
I4
sg13
S'+'
sg14
(i__main__
Node
p38
(dp39
g12
I5
sg13
g26
sg14
Nsg22
g36
sg23
Nsbsg22
g27
sg23
(i__main__
Node
p40
(dp41
g12
I5
sg13
g35
sg14
Nsg22
g36
sg23
Nsbsbsbsbsg22
Nsg23
(i__main__
Node
p42
(dp43
g12
I2
sg13
S'+'
sg14
(i__main__
Node
p44
(dp45
g12
I3
sg13
S'indiv.cohesion()'
p46
sg14
Nsg22
g42
sg23
Nsbsg22
g10
sg23
(i__main__
Node
p47
(dp48
g12
I3
sg13
g46
sg14
Nsg22
g42
sg23
NsbsbsbsS'accel_x'
p49
F0
sS'accel_y'
p50
F0
sS'visionAngle'
p51
I130
sS'maxAccel'
p52
I2
sS'maxVel'
p53
F0.72999999999999998
sS'age'
p54
I0
sS'tailSize'
p55
I0
sS'sexualgeno'
p56
NsS'tailBrigh'
p57
I0
sS'maxSteering'
p58
I20
sS'energy'
p59
F0.5
sS'lastScale'
p60
F5.5
sb.(i__main__
Data_mobile
p1
(dp2
S'vel_y'
p3
I0
sS'vel_x'
p4
I0
sS'pos_x'
p5
I-9579
sS'pos_y'
p6
I9779
sS'isAlive'
p7
I00
sS'cumulativeEnergy'
p8
F0.5
sS'geno'
p9
(i__main__
Node
p10
(dp11
S'depth'
p12
I1
sS'vector'
p13
S'+'
sS'right'
p14
(i__main__
Node
p15
(dp16
g12
I2
sg13
S'+'
sg14
(i__main__
Node
p17
(dp18
g12
I3
sg13
S'indiv.currentEnergy()'
p19
sg14
NsS'parent'
p20
g15
sS'left'
p21
Nsbsg20
g10
sg21
(i__main__
Node
p22
(dp23
g12
I3
sg13
S'indiv.target()'
p24
sg14
Nsg20
g15
sg21
Nsbsbsg20
Nsg21
(i__main__
Node
p25
(dp26
g12
I2
sg13
S'/'
sg14
(i__main__
Node
p27
(dp28
g12
I3
sg13
S'indiv.alignment()'
p29
sg14
Nsg20
g25
sg21
Nsbsg20
g10
sg21
(i__main__
Node
p30
(dp31
g12
I3
sg13
g19
sg14
Nsg20
g25
sg21
NsbsbsbsS'accel_x'
p32
F0
sS'accel_y'
p33
F0
sS'visionAngle'
p34
I130
sS'maxAccel'
p35
I2
sS'maxVel'
p36
F0.72999999999999998
sS'age'
p37
I0
sS'tailSize'
p38
I0
sS'sexualgeno'
p39
NsS'tailBrigh'
p40
I0
sS'maxSteering'
p41
I20
sS'energy'
p42
F0.5
sS'lastScale'
p43
F5.5
sb.(i__main__
Data_mobile
p1
(dp2
S'vel_y'
p3
I0
sS'vel_x'
p4
I0
sS'pos_x'
p5
I-9579
sS'pos_y'
p6
I9779
sS'isAlive'
p7
I00
sS'cumulativeEnergy'
p8
F0.5
sS'geno'
p9
(i__main__
Node
p10
(dp11
S'depth'
p12
I1
sS'vector'
p13
S'+'
sS'right'
p14
(i__main__
Node
p15
(dp16
g12
I2
sg13
S'/'
sg14
(i__main__
Node
p17
(dp18
g12
I3
sg13
S'/'
sg14
(i__main__
Node
p19
(dp20
g12
I4
sg13
S'indiv.alignment()'
p21
sg14
NsS'parent'
p22
g17
sS'left'
p23
Nsbsg22
g15
sg23
(i__main__
Node
p24
(dp25
g12
I4
sg13
S'indiv.currentEnergy()'
p26
sg14
Nsg22
g17
sg23
Nsbsbsg22
g10
sg23
(i__main__
Node
p27
(dp28
g12
I3
sg13
S'/'
sg14
(i__main__
Node
p29
(dp30
g12
I4
sg13
S'+'
sg14
(i__main__
Node
p31
(dp32
g12
I5
sg13
g26
sg14
Nsg22
g29
sg23
Nsbsg22
g27
sg23
(i__main__
Node
p33
(dp34
g12
I5
sg13
S'indiv.target()'
p35
sg14
Nsg22
g29
sg23
Nsbsbsg22
g15
sg23
(i__main__
Node
p36
(dp37
g12
I4
sg13
S'+'
sg14
(i__main__
Node
p38
(dp39
g12
I5
sg13
g26
sg14
Nsg22
g36
sg23
Nsbsg22
g27
sg23
(i__main__
Node
p40
(dp41
g12
I5
sg13
g35
sg14
Nsg22
g36
sg23
Nsbsbsbsbsg22
Nsg23
(i__main__
Node
p42
(dp43
g12
I2
sg13
S'+'
sg14
(i__main__
Node
p44
(dp45
g12
I3
sg13
g26
sg14
Nsg22
g42
sg23
Nsbsg22
g10
sg23
(i__main__
Node
p46
(dp47
g12
I3
sg13
g35
sg14
Nsg22
g42
sg23
NsbsbsbsS'accel_x'
p48
F0
sS'accel_y'
p49
F0
sS'visionAngle'
p50
I130
sS'maxAccel'
p51
I2
sS'maxVel'
p52
F0.72999999999999998
sS'age'
p53
I0
sS'tailSize'
p54
I0
sS'sexualgeno'
p55
NsS'tailBrigh'
p56
I0
sS'maxSteering'
p57
I20
sS'energy'
p58
F0.5
sS'lastScale'
p59
F5.5
sb.(i__main__
Data_mobile
p1
(dp2
S'vel_y'
p3
I0
sS'vel_x'
p4
I0
sS'pos_x'
p5
I-9579
sS'pos_y'
p6
I9779
sS'isAlive'
p7
I00
sS'cumulativeEnergy'
p8
F0.5
sS'geno'
p9
(i__main__
Node
p10
(dp11
S'depth'
p12
I1
sS'vector'
p13
S'+'
sS'right'
p14
(i__main__
Node
p15
(dp16
g12
I2
sg13
S'/'
sg14
(i__main__
Node
p17
(dp18
g12
I3
sg13
S'/'
sg14
(i__main__
Node
p19
(dp20
g12
I4
sg13
S'indiv.alignment()'
p21
sg14
NsS'parent'
p22
g17
sS'left'
p23
Nsbsg22
g15
sg23
(i__main__
Node
p24
(dp25
g12
I4
sg13
S'indiv.currentEnergy()'
p26
sg14
Nsg22
g17
sg23
Nsbsbsg22
g10
sg23
(i__main__
Node
p27
(dp28
g12
I3
sg13
S'/'
sg14
(i__main__
Node
p29
(dp30
g12
I4
sg13
S'+'
sg14
(i__main__
Node
p31
(dp32
g12
I5
sg13
g26
sg14
Nsg22
g29
sg23
Nsbsg22
g27
sg23
(i__main__
Node
p33
(dp34
g12
I5
sg13
S'indiv.target()'
p35
sg14
Nsg22
g29
sg23
Nsbsbsg22
g15
sg23
(i__main__
Node
p36
(dp37
g12
I4
sg13
S'+'
sg14
(i__main__
Node
p38
(dp39
g12
I5
sg13
g26
sg14
Nsg22
g36
sg23
Nsbsg22
g27
sg23
(i__main__
Node
p40
(dp41
g12
I5
sg13
g35
sg14
Nsg22
g36
sg23
Nsbsbsbsbsg22
Nsg23
(i__main__
Node
p42
(dp43
g12
I2
sg13
S'+'
sg14
(i__main__
Node
p44
(dp45
g12
I3
sg13
g26
sg14
Nsg22
g42
sg23
Nsbsg22
g10
sg23
(i__main__
Node
p46
(dp47
g12
I3
sg13
g35
sg14
Nsg22
g42
sg23
NsbsbsbsS'accel_x'
p48
F0
sS'accel_y'
p49
F0
sS'visionAngle'
p50
I130
sS'maxAccel'
p51
I2
sS'maxVel'
p52
F0.72999999999999998
sS'age'
p53
I0
sS'tailSize'
p54
I0
sS'sexualgeno'
p55
NsS'tailBrigh'
p56
I0
sS'maxSteering'
p57
I20
sS'energy'
p58
F0.5
sS'lastScale'
p59
F5.5
sb.(i__main__
Data_mobile
p1
(dp2
S'vel_y'
p3
I0
sS'vel_x'
p4
I0
sS'pos_x'
p5
I-9579
sS'pos_y'
p6
I9779
sS'isAlive'
p7
I00
sS'cumulativeEnergy'
p8
F0.5
sS'geno'
p9
(i__main__
Node
p10
(dp11
S'depth'
p12
I1
sS'vector'
p13
S'+'
sS'right'
p14
(i__main__
Node
p15
(dp16
g12
I2
sg13
S'/'
sg14
(i__main__
Node
p17
(dp18
g12
I3
sg13
S'/'
sg14
(i__main__
Node
p19
(dp20
g12
I4
sg13
S'indiv.alignment()'
p21
sg14
NsS'parent'
p22
g17
sS'left'
p23
Nsbsg22
g15
sg23
(i__main__
Node
p24
(dp25
g12
I4
sg13
S'indiv.currentEnergy()'
p26
sg14
Nsg22
g17
sg23
Nsbsbsg22
g10
sg23
(i__main__
Node
p27
(dp28
g12
I3
sg13
S'/'
sg14
(i__main__
Node
p29
(dp30
g12
I4
sg13
S'+'
sg14
(i__main__
Node
p31
(dp32
g12
I5
sg13
S'+'
sg14
(i__main__
Node
p33
(dp34
g12
I6
sg13
S'indiv.target()'
p35
sg14
Nsg22
g31
sg23
Nsbsg22
g29
sg23
(i__main__
Node
p36
(dp37
g12
I6
sg13
g26
sg14
Nsg22
g31
sg23
Nsbsbsg22
g27
sg23
(i__main__
Node
p38
(dp39
g12
I5
sg13
S'+'
sg14
(i__main__
Node
p40
(dp41
g12
I6
sg13
S'indiv.cohesion()'
p42
sg14
Nsg22
g38
sg23
Nsbsg22
g29
sg23
(i__main__
Node
p43
(dp44
g12
I6
sg13
g42
sg14
Nsg22
g38
sg23
Nsbsbsbsg22
g15
sg23
(i__main__
Node
p45
(dp46
g12
I4
sg13
S'+'
sg14
(i__main__
Node
p47
(dp48
g12
I5
sg13
g26
sg14
Nsg22
g45
sg23
Nsbsg22
g27
sg23
(i__main__
Node
p49
(dp50
g12
I5
sg13
g35
sg14
Nsg22
g45
sg23
Nsbsbsbsbsg22
Nsg23
(i__main__
Node
p51
(dp52
g12
I2
sg13
S'+'
sg14
(i__main__
Node
p53
(dp54
g12
I3
sg13
g26
sg14
Nsg22
g51
sg23
Nsbsg22
g10
sg23
(i__main__
Node
p55
(dp56
g12
I3
sg13
g35
sg14
Nsg22
g51
sg23
NsbsbsbsS'accel_x'
p57
F0
sS'accel_y'
p58
F0
sS'visionAngle'
p59
I130
sS'maxAccel'
p60
I2
sS'maxVel'
p61
F0.72999999999999998
sS'age'
p62
I0
sS'tailSize'
p63
I0
sS'sexualgeno'
p64
NsS'tailBrigh'
p65
I0
sS'maxSteering'
p66
I20
sS'energy'
p67
F0.5
sS'lastScale'
p68
F5.5
sb.(i__main__
Data_mobile
p1
(dp2
S'vel_y'
p3
I0
sS'vel_x'
p4
I0
sS'pos_x'
p5
I-9579
sS'pos_y'
p6
I9779
sS'isAlive'
p7
I00
sS'cumulativeEnergy'
p8
F0.5
sS'geno'
p9
(i__main__
Node
p10
(dp11
S'depth'
p12
I1
sS'vector'
p13
S'+'
sS'right'
p14
(i__main__
Node
p15
(dp16
g12
I2
sg13
S'/'
sg14
(i__main__
Node
p17
(dp18
g12
I3
sg13
S'/'
sg14
(i__main__
Node
p19
(dp20
g12
I4
sg13
S'indiv.alignment()'
p21
sg14
NsS'parent'
p22
g17
sS'left'
p23
Nsbsg22
g15
sg23
(i__main__
Node
p24
(dp25
g12
I4
sg13
S'indiv.currentEnergy()'
p26
sg14
Nsg22
g17
sg23
Nsbsbsg22
g10
sg23
(i__main__
Node
p27
(dp28
g12
I3
sg13
S'/'
sg14
(i__main__
Node
p29
(dp30
g12
I4
sg13
S'/'
sg14
(i__main__
Node
p31
(dp32
g12
I5
sg13
S'/'
sg14
(i__main__
Node
p33
(dp34
g12
I6
sg13
g21
sg14
Nsg22
g31
sg23
Nsbsg22
g29
sg23
(i__main__
Node
p35
(dp36
g12
I6
sg13
g26
sg14
Nsg22
g31
sg23
Nsbsbsg22
g27
sg23
(i__main__
Node
p37
(dp38
g12
I5
sg13
S'/'
sg14
(i__main__
Node
p39
(dp40
g12
I6
sg13
S'/'
sg14
(i__main__
Node
p41
(dp42
g12
I7
sg13
g21
sg14
Nsg22
g39
sg23
Nsbsg22
g37
sg23
(i__main__
Node
p43
(dp44
g12
I7
sg13
g26
sg14
Nsg22
g39
sg23
Nsbsbsg22
g29
sg23
(i__main__
Node
p45
(dp46
g12
I6
sg13
S'/'
sg14
(i__main__
Node
p47
(dp48
g12
I7
sg13
g21
sg14
Nsg22
g45
sg23
Nsbsg22
g37
sg23
(i__main__
Node
p49
(dp50
g12
I7
sg13
g26
sg14
Nsg22
g45
sg23
Nsbsbsbsbsg22
g15
sg23
(i__main__
Node
p51
(dp52
g12
I4
sg13
S'+'
sg14
(i__main__
Node
p53
(dp54
g12
I5
sg13
g26
sg14
Nsg22
g51
sg23
Nsbsg22
g27
sg23
(i__main__
Node
p55
(dp56
g12
I5
sg13
S'indiv.target()'
p57
sg14
Nsg22
g51
sg23
Nsbsbsbsbsg22
Nsg23
(i__main__
Node
p58
(dp59
g12
I2
sg13
S'+'
sg14
(i__main__
Node
p60
(dp61
g12
I3
sg13
g26
sg14
Nsg22
g58
sg23
Nsbsg22
g10
sg23
(i__main__
Node
p62
(dp63
g12
I3
sg13
g57
sg14
Nsg22
g58
sg23
NsbsbsbsS'accel_x'
p64
F0
sS'accel_y'
p65
F0
sS'visionAngle'
p66
I130
sS'maxAccel'
p67
I2
sS'maxVel'
p68
F0.72999999999999998
sS'age'
p69
I0
sS'tailSize'
p70
I0
sS'sexualgeno'
p71
NsS'tailBrigh'
p72
I0
sS'maxSteering'
p73
I20
sS'energy'
p74
F0.5
sS'lastScale'
p75
F5.5
sb.(i__main__
Data_mobile
p1
(dp2
S'vel_y'
p3
I0
sS'vel_x'
p4
I0
sS'pos_x'
p5
I-9579
sS'pos_y'
p6
I9779
sS'isAlive'
p7
I00
sS'cumulativeEnergy'
p8
F0.5
sS'geno'
p9
(i__main__
Node
p10
(dp11
S'depth'
p12
I1
sS'vector'
p13
S'+'
sS'right'
p14
(i__main__
Node
p15
(dp16
g12
I2
sg13
S'+'
sg14
(i__main__
Node
p17
(dp18
g12
I3
sg13
S'indiv.currentEnergy()'
p19
sg14
NsS'parent'
p20
g15
sS'left'
p21
Nsbsg20
g10
sg21
(i__main__
Node
p22
(dp23
g12
I3
sg13
S'indiv.target()'
p24
sg14
Nsg20
g15
sg21
Nsbsbsg20
Nsg21
(i__main__
Node
p25
(dp26
g12
I2
sg13
S'+'
sg14
(i__main__
Node
p27
(dp28
g12
I3
sg13
g19
sg14
Nsg20
g25
sg21
Nsbsg20
g10
sg21
(i__main__
Node
p29
(dp30
g12
I3
sg13
g24
sg14
Nsg20
g25
sg21
NsbsbsbsS'accel_x'
p31
F0
sS'accel_y'
p32
F0
sS'visionAngle'
p33
I130
sS'maxAccel'
p34
I2
sS'maxVel'
p35
F0.72999999999999998
sS'age'
p36
I0
sS'tailSize'
p37
I0
sS'sexualgeno'
p38
NsS'tailBrigh'
p39
I0
sS'maxSteering'
p40
I20
sS'energy'
p41
F0.5
sS'lastScale'
p42
F5.5
sb.