(i__main__
Data_mobile
p1
(dp2
S'vel_y'
p3
F-0.50002070048445524
sS'vel_x'
p4
F0.53186398551418634
sS'pos_x'
p5
F-57.702212762955376
sS'pos_y'
p6
F-42.146330617992781
sS'isAlive'
p7
I01
sS'cumulativeEnergy'
p8
F49
sS'geno'
p9
(i__main__
Node
p10
(dp11
S'depth'
p12
I1
sS'vector'
p13
S'+'
sS'right'
p14
(i__main__
Node
p15
(dp16
g12
I2
sg13
S'*'
sg14
(i__main__
Node
p17
(dp18
g12
I3
sg13
S'indiv.target()'
p19
sg14
NsS'parent'
p20
g15
sS'left'
p21
Nsbsg20
g10
sg21
(i__main__
Node
p22
(dp23
g12
I3
sg13
S'indiv.randV()'
p24
sg14
Nsg20
g15
sg21
Nsbsbsg20
Nsg21
(i__main__
Node
p25
(dp26
g12
I2
sg13
S'*'
sg14
(i__main__
Node
p27
(dp28
g12
I3
sg13
g19
sg14
Nsg20
g25
sg21
Nsbsg20
g10
sg21
(i__main__
Node
p29
(dp30
g12
I3
sg13
g24
sg14
Nsg20
g25
sg21
NsbsbsbsS'accel_x'
p31
F-0.71816670830291751
sS'accel_y'
p32
F0.013298774422057218
sS'visionAngle'
p33
I130
sS'maxAccel'
p34
I2
sS'maxVel'
p35
F0.72999999999999998
sS'age'
p36
I150
sS'tailSize'
p37
I0
sS'sexualgeno'
p38
NsS'tailBrigh'
p39
I0
sS'maxSteering'
p40
I20
sS'energy'
p41
F1
sS'lastScale'
p42
F15.5
sb.(i__main__
Data_mobile
p1
(dp2
S'vel_y'
p3
F-0.47322157015918703
sS'vel_x'
p4
F0.55584291444262701
sS'pos_x'
p5
F-57.858153445592151
sS'pos_y'
p6
F-42.135325680780106
sS'isAlive'
p7
I01
sS'cumulativeEnergy'
p8
F49
sS'geno'
p9
(i__main__
Node
p10
(dp11
S'depth'
p12
I1
sS'vector'
p13
S'+'
sS'right'
p14
(i__main__
Node
p15
(dp16
g12
I2
sg13
S'*'
sg14
(i__main__
Node
p17
(dp18
g12
I3
sg13
S'indiv.target()'
p19
sg14
NsS'parent'
p20
g15
sS'left'
p21
Nsbsg20
g10
sg21
(i__main__
Node
p22
(dp23
g12
I3
sg13
S'indiv.randV()'
p24
sg14
Nsg20
g15
sg21
Nsbsbsg20
Nsg21
(i__main__
Node
p25
(dp26
g12
I2
sg13
S'*'
sg14
(i__main__
Node
p27
(dp28
g12
I3
sg13
g19
sg14
Nsg20
g25
sg21
Nsbsg20
g10
sg21
(i__main__
Node
p29
(dp30
g12
I3
sg13
g24
sg14
Nsg20
g25
sg21
NsbsbsbsS'accel_x'
p31
F-0.52797207482304631
sS'accel_y'
p32
F-0.042976736645053699
sS'visionAngle'
p33
I130
sS'maxAccel'
p34
I2
sS'maxVel'
p35
F0.72999999999999998
sS'age'
p36
I100
sS'tailSize'
p37
I0
sS'sexualgeno'
p38
NsS'tailBrigh'
p39
I0
sS'maxSteering'
p40
I20
sS'energy'
p41
F1
sS'lastScale'
p42
F15.5
sb.(i__main__
Data_mobile
p1
(dp2
S'vel_y'
p3
F-0.276627285507551
sS'vel_x'
p4
F-0.67555706266215865
sS'pos_x'
p5
F-62.502288027227074
sS'pos_y'
p6
F-41.045597996717447
sS'isAlive'
p7
I01
sS'cumulativeEnergy'
p8
F48.914136341043758
sS'geno'
p9
(i__main__
Node
p10
(dp11
S'depth'
p12
I1
sS'vector'
p13
S'+'
sS'right'
p14
(i__main__
Node
p15
(dp16
g12
I2
sg13
S'*'
sg14
(i__main__
Node
p17
(dp18
g12
I3
sg13
S'indiv.target()'
p19
sg14
NsS'parent'
p20
g15
sS'left'
p21
Nsbsg20
g10
sg21
(i__main__
Node
p22
(dp23
g12
I3
sg13
S'indiv.randV()'
p24
sg14
Nsg20
g15
sg21
Nsbsbsg20
Nsg21
(i__main__
Node
p25
(dp26
g12
I2
sg13
S'*'
sg14
(i__main__
Node
p27
(dp28
g12
I3
sg13
g19
sg14
Nsg20
g25
sg21
Nsbsg20
g10
sg21
(i__main__
Node
p29
(dp30
g12
I3
sg13
g24
sg14
Nsg20
g25
sg21
NsbsbsbsS'accel_x'
p31
F0
sS'accel_y'
p32
F0
sS'visionAngle'
p33
I130
sS'maxAccel'
p34
I2
sS'maxVel'
p35
F0.72999999999999998
sS'age'
p36
I100
sS'tailSize'
p37
I0
sS'sexualgeno'
p38
NsS'tailBrigh'
p39
I0
sS'maxSteering'
p40
I20
sS'energy'
p41
F0.94207138475937657
sS'lastScale'
p42
F14.920713847593767
sb.(i__main__
Data_mobile
p1
(dp2
S'vel_y'
p3
F-0.66791315355528591
sS'vel_x'
p4
F0.29460485282464888
sS'pos_x'
p5
F-57.864295989680613
sS'pos_y'
p6
F-42.324187696904893
sS'isAlive'
p7
I01
sS'cumulativeEnergy'
p8
F46.709867578684182
sS'geno'
p9
(i__main__
Node
p10
(dp11
S'depth'
p12
I1
sS'vector'
p13
S'+'
sS'right'
p14
(i__main__
Node
p15
(dp16
g12
I2
sg13
S'*'
sg14
(i__main__
Node
p17
(dp18
g12
I3
sg13
S'indiv.target()'
p19
sg14
NsS'parent'
p20
g15
sS'left'
p21
Nsbsg20
g10
sg21
(i__main__
Node
p22
(dp23
g12
I3
sg13
S'indiv.randV()'
p24
sg14
Nsg20
g15
sg21
Nsbsbsg20
Nsg21
(i__main__
Node
p25
(dp26
g12
I2
sg13
S'*'
sg14
(i__main__
Node
p27
(dp28
g12
I3
sg13
g19
sg14
Nsg20
g25
sg21
Nsbsg20
g10
sg21
(i__main__
Node
p29
(dp30
g12
I3
sg13
g24
sg14
Nsg20
g25
sg21
NsbsbsbsS'accel_x'
p31
F-0.32821852095676163
sS'accel_y'
p32
F1.3709662200366701
sS'visionAngle'
p33
I130
sS'maxAccel'
p34
I2
sS'maxVel'
p35
F0.72999999999999998
sS'age'
p36
I50
sS'tailSize'
p37
I0
sS'sexualgeno'
p38
NsS'tailBrigh'
p39
I0
sS'maxSteering'
p40
I20
sS'energy'
p41
F1
sS'lastScale'
p42
F15.5
sb.(i__main__
Data_mobile
p1
(dp2
S'vel_y'
p3
F-0.56153919078544923
sS'vel_x'
p4
F0.4664480005445652
sS'pos_x'
p5
F-57.896311631072592
sS'pos_y'
p6
F-41.753727864342721
sS'isAlive'
p7
I01
sS'cumulativeEnergy'
p8
F44.7894693633692
sS'geno'
p9
(i__main__
Node
p10
(dp11
S'depth'
p12
I1
sS'vector'
p13
S'+'
sS'right'
p14
(i__main__
Node
p15
(dp16
g12
I2
sg13
S'*'
sg14
(i__main__
Node
p17
(dp18
g12
I3
sg13
S'indiv.target()'
p19
sg14
NsS'parent'
p20
g15
sS'left'
p21
Nsbsg20
g10
sg21
(i__main__
Node
p22
(dp23
g12
I3
sg13
S'indiv.randV()'
p24
sg14
Nsg20
g15
sg21
Nsbsbsg20
Nsg21
(i__main__
Node
p25
(dp26
g12
I2
sg13
S'*'
sg14
(i__main__
Node
p27
(dp28
g12
I3
sg13
g19
sg14
Nsg20
g25
sg21
Nsbsg20
g10
sg21
(i__main__
Node
p29
(dp30
g12
I3
sg13
g24
sg14
Nsg20
g25
sg21
NsbsbsbsS'accel_x'
p31
F-0.15702064107433064
sS'accel_y'
p32
F-1.9938266018579966
sS'visionAngle'
p33
I130
sS'maxAccel'
p34
I2
sS'maxVel'
p35
F0.72999999999999998
sS'age'
p36
I50
sS'tailSize'
p37
I0
sS'sexualgeno'
p38
NsS'tailBrigh'
p39
I0
sS'maxSteering'
p40
I20
sS'energy'
p41
F1
sS'lastScale'
p42
F15.5
sb.(i__main__
Data_mobile
p1
(dp2
S'vel_y'
p3
F-0.55304619439019265
sS'vel_x'
p4
F0.47648704795673646
sS'pos_x'
p5
F-58.035629988320174
sS'pos_y'
p6
F-41.577480376512767
sS'isAlive'
p7
I01
sS'cumulativeEnergy'
p8
F44.13978510206384
sS'geno'
p9
(i__main__
Node
p10
(dp11
S'depth'
p12
I1
sS'vector'
p13
S'+'
sS'right'
p14
(i__main__
Node
p15
(dp16
g12
I2
sg13
S'*'
sg14
(i__main__
Node
p17
(dp18
g12
I3
sg13
S'indiv.target()'
p19
sg14
NsS'parent'
p20
g15
sS'left'
p21
Nsbsg20
g10
sg21
(i__main__
Node
p22
(dp23
g12
I3
sg13
S'indiv.randV()'
p24
sg14
Nsg20
g15
sg21
Nsbsbsg20
Nsg21
(i__main__
Node
p25
(dp26
g12
I2
sg13
S'*'
sg14
(i__main__
Node
p27
(dp28
g12
I3
sg13
g19
sg14
Nsg20
g25
sg21
Nsbsg20
g10
sg21
(i__main__
Node
p29
(dp30
g12
I3
sg13
g24
sg14
Nsg20
g25
sg21
NsbsbsbsS'accel_x'
p31
F0.13085804606936594
sS'accel_y'
p32
F-1.9957144514631615
sS'visionAngle'
p33
I130
sS'maxAccel'
p34
I2
sS'maxVel'
p35
F0.72999999999999998
sS'age'
p36
I50
sS'tailSize'
p37
I0
sS'sexualgeno'
p38
NsS'tailBrigh'
p39
I0
sS'maxSteering'
p40
I20
sS'energy'
p41
F1
sS'lastScale'
p42
F15.5
sb.(i__main__
Data_mobile
p1
(dp2
S'vel_y'
p3
F0.72625466669036487
sS'vel_x'
p4
F-0.073852278979507788
sS'pos_x'
p5
F-59.975491074542688
sS'pos_y'
p6
F-39.049610481744843
sS'isAlive'
p7
I01
sS'cumulativeEnergy'
p8
F37.403691947502551
sS'geno'
p9
(i__main__
Node
p10
(dp11
S'depth'
p12
I1
sS'vector'
p13
S'+'
sS'right'
p14
(i__main__
Node
p15
(dp16
g12
I2
sg13
S'*'
sg14
(i__main__
Node
p17
(dp18
g12
I3
sg13
S'indiv.target()'
p19
sg14
NsS'parent'
p20
g15
sS'left'
p21
Nsbsg20
g10
sg21
(i__main__
Node
p22
(dp23
g12
I3
sg13
S'indiv.randV()'
p24
sg14
Nsg20
g15
sg21
Nsbsbsg20
Nsg21
(i__main__
Node
p25
(dp26
g12
I2
sg13
S'*'
sg14
(i__main__
Node
p27
(dp28
g12
I3
sg13
g19
sg14
Nsg20
g25
sg21
Nsbsg20
g10
sg21
(i__main__
Node
p29
(dp30
g12
I3
sg13
g24
sg14
Nsg20
g25
sg21
NsbsbsbsS'accel_x'
p31
F0
sS'accel_y'
p32
F0
sS'visionAngle'
p33
I130
sS'maxAccel'
p34
I2
sS'maxVel'
p35
F0.72999999999999998
sS'age'
p36
I150
sS'tailSize'
p37
I0
sS'sexualgeno'
p38
NsS'tailBrigh'
p39
I0
sS'maxSteering'
p40
I20
sS'energy'
p41
F0.509512628376107
sS'lastScale'
p42
F10.595126283761072
sb.(i__main__
Data_mobile
p1
(dp2
S'vel_y'
p3
F0.62501589397731694
sS'vel_x'
p4
F0.37716724708772786
sS'pos_x'
p5
F-134.11753039190361
sS'pos_y'
p6
F-54.195680845451534
sS'isAlive'
p7
I01
sS'cumulativeEnergy'
p8
F31.460906448921058
sS'geno'
p9
(i__main__
Node
p10
(dp11
S'depth'
p12
I1
sS'vector'
p13
S'+'
sS'right'
p14
(i__main__
Node
p15
(dp16
g12
I2
sg13
S'*'
sg14
(i__main__
Node
p17
(dp18
g12
I3
sg13
S'indiv.target()'
p19
sg14
NsS'parent'
p20
g15
sS'left'
p21
Nsbsg20
g10
sg21
(i__main__
Node
p22
(dp23
g12
I3
sg13
S'indiv.randV()'
p24
sg14
Nsg20
g15
sg21
Nsbsbsg20
Nsg21
(i__main__
Node
p25
(dp26
g12
I2
sg13
S'*'
sg14
(i__main__
Node
p27
(dp28
g12
I3
sg13
g19
sg14
Nsg20
g25
sg21
Nsbsg20
g10
sg21
(i__main__
Node
p29
(dp30
g12
I3
sg13
g24
sg14
Nsg20
g25
sg21
NsbsbsbsS'accel_x'
p31
F0
sS'accel_y'
p32
F0
sS'visionAngle'
p33
I130
sS'maxAccel'
p34
I2
sS'maxVel'
p35
F0.72999999999999998
sS'age'
p36
I166
sS'tailSize'
p37
I0
sS'sexualgeno'
p38
NsS'tailBrigh'
p39
I0
sS'maxSteering'
p40
I20
sS'energy'
p41
F0.15660695887271464
sS'lastScale'
p42
F7.0660695887271459
sb.(i__main__
Data_mobile
p1
(dp2
S'vel_y'
p3
F0.71984685465672338
sS'vel_x'
p4
F0.12132809172167112
sS'pos_x'
p5
F-76.118199376395751
sS'pos_y'
p6
F-96.337528689888856
sS'isAlive'
p7
I01
sS'cumulativeEnergy'
p8
F21.336918387247518
sS'geno'
p9
(i__main__
Node
p10
(dp11
S'depth'
p12
I1
sS'vector'
p13
S'+'
sS'right'
p14
(i__main__
Node
p15
(dp16
g12
I2
sg13
S'*'
sg14
(i__main__
Node
p17
(dp18
g12
I3
sg13
S'indiv.target()'
p19
sg14
NsS'parent'
p20
g15
sS'left'
p21
Nsbsg20
g10
sg21
(i__main__
Node
p22
(dp23
g12
I3
sg13
S'indiv.randV()'
p24
sg14
Nsg20
g15
sg21
Nsbsbsg20
Nsg21
(i__main__
Node
p25
(dp26
g12
I2
sg13
S'*'
sg14
(i__main__
Node
p27
(dp28
g12
I3
sg13
g19
sg14
Nsg20
g25
sg21
Nsbsg20
g10
sg21
(i__main__
Node
p29
(dp30
g12
I3
sg13
g24
sg14
Nsg20
g25
sg21
NsbsbsbsS'accel_x'
p31
F0.97596255860016812
sS'accel_y'
p32
F-1.3572193232619785
sS'visionAngle'
p33
I130
sS'maxAccel'
p34
I2
sS'maxVel'
p35
F0.72999999999999998
sS'age'
p36
I50
sS'tailSize'
p37
I0
sS'sexualgeno'
p38
NsS'tailBrigh'
p39
I0
sS'maxSteering'
p40
I20
sS'energy'
p41
F1
sS'lastScale'
p42
F15.5
sb.(i__main__
Data_mobile
p1
(dp2
S'vel_y'
p3
F-0.65718793899446737
sS'vel_x'
p4
F0.31781128494785094
sS'pos_x'
p5
F-74.617594100523931
sS'pos_y'
p6
F-102.82760239678677
sS'isAlive'
p7
I01
sS'cumulativeEnergy'
p8
F19.381245061703297
sS'geno'
p9
(i__main__
Node
p10
(dp11
S'depth'
p12
I1
sS'vector'
p13
S'+'
sS'right'
p14
(i__main__
Node
p15
(dp16
g13
S'indiv.separation()'
p17
sg12
I2
sg14
NsS'parent'
p18
g10
sS'left'
p19
Nsbsg18
Nsg19
(i__main__
Node
p20
(dp21
g12
I2
sg13
S'*'
sg14
(i__main__
Node
p22
(dp23
g12
I3
sg13
S'indiv.target()'
p24
sg14
Nsg18
g20
sg19
Nsbsg18
g10
sg19
(i__main__
Node
p25
(dp26
g12
I3
sg13
S'indiv.randV()'
p27
sg14
Nsg18
g20
sg19
NsbsbsbsS'accel_x'
p28
F0
sS'accel_y'
p29
F0
sS'visionAngle'
p30
I130
sS'maxAccel'
p31
I2
sS'maxVel'
p32
F0.72999999999999998
sS'age'
p33
I50
sS'tailSize'
p34
I0
sS'sexualgeno'
p35
NsS'tailBrigh'
p36
I0
sS'maxSteering'
p37
I20
sS'energy'
p38
F0.64825676022439993
sS'lastScale'
p39
F11.982567602243998
sb.(i__main__
Data_mobile
p1
(dp2
S'vel_y'
p3
F-0.7234391758063512
sS'vel_x'
p4
F0.097651210482139802
sS'pos_x'
p5
F-57.955928600081585
sS'pos_y'
p6
F-42.252965813334086
sS'isAlive'
p7
I01
sS'cumulativeEnergy'
p8
F12.381245061703293
sS'geno'
p9
(i__main__
Node
p10
(dp11
S'depth'
p12
I1
sS'vector'
p13
S'+'
sS'right'
p14
(i__main__
Node
p15
(dp16
g12
I2
sg13
S'*'
sg14
(i__main__
Node
p17
(dp18
g12
I3
sg13
S'indiv.target()'
p19
sg14
NsS'parent'
p20
g15
sS'left'
p21
Nsbsg20
g10
sg21
(i__main__
Node
p22
(dp23
g12
I3
sg13
S'indiv.randV()'
p24
sg14
Nsg20
g15
sg21
Nsbsbsg20
Nsg21
(i__main__
Node
p25
(dp26
g12
I2
sg13
S'*'
sg14
(i__main__
Node
p27
(dp28
g12
I3
sg13
g19
sg14
Nsg20
g25
sg21
Nsbsg20
g10
sg21
(i__main__
Node
p29
(dp30
g12
I3
sg13
g24
sg14
Nsg20
g25
sg21
NsbsbsbsS'accel_x'
p31
F0.02119051246443892
sS'accel_y'
p32
F0.60593076018384595
sS'visionAngle'
p33
I130
sS'maxAccel'
p34
I2
sS'maxVel'
p35
F0.72999999999999998
sS'age'
p36
I50
sS'tailSize'
p37
I0
sS'sexualgeno'
p38
NsS'tailBrigh'
p39
I0
sS'maxSteering'
p40
I20
sS'energy'
p41
F0.14825676022439971
sS'lastScale'
p42
F6.9825676022439973
sb.(i__main__
Data_mobile
p1
(dp2
S'vel_y'
p3
F-0.57166080476964853
sS'vel_x'
p4
F0.43062495601878575
sS'pos_x'
p5
F-57.841441421408874
sS'pos_y'
p6
F-42.299108934378161
sS'isAlive'
p7
I01
sS'cumulativeEnergy'
p8
F0.5
sS'geno'
p9
(i__main__
Node
p10
(dp11
S'depth'
p12
I1
sS'vector'
p13
S'+'
sS'right'
p14
(i__main__
Node
p15
(dp16
g12
I2
sg13
S'*'
sg14
(i__main__
Node
p17
(dp18
g12
I3
sg13
S'indiv.target()'
p19
sg14
NsS'parent'
p20
g15
sS'left'
p21
Nsbsg20
g10
sg21
(i__main__
Node
p22
(dp23
g12
I3
sg13
S'indiv.randV()'
p24
sg14
Nsg20
g15
sg21
Nsbsbsg20
Nsg21
(i__main__
Node
p25
(dp26
g12
I2
sg13
S'*'
sg14
(i__main__
Node
p27
(dp28
g12
I3
sg13
g19
sg14
Nsg20
g25
sg21
Nsbsg20
g10
sg21
(i__main__
Node
p29
(dp30
g12
I3
sg13
g24
sg14
Nsg20
g25
sg21
NsbsbsbsS'accel_x'
p31
F0
sS'accel_y'
p32
F0
sS'visionAngle'
p33
I130
sS'maxAccel'
p34
I2
sS'maxVel'
p35
F0.72999999999999998
sS'age'
p36
I0
sS'tailSize'
p37
I0
sS'sexualgeno'
p38
NsS'tailBrigh'
p39
I0
sS'maxSteering'
p40
I20
sS'energy'
p41
F0.5
sS'lastScale'
p42
F5.5
sb.(i__main__
Data_mobile
p1
(dp2
S'vel_y'
p3
F-0.40369449379807215
sS'vel_x'
p4
F0.12034886948119827
sS'pos_x'
p5
F-60.20745547284168
sS'pos_y'
p6
F-41.584071316308808
sS'isAlive'
p7
I01
sS'cumulativeEnergy'
p8
F0.5
sS'geno'
p9
(i__main__
Node
p10
(dp11
S'depth'
p12
I1
sS'vector'
p13
S'+'
sS'right'
p14
(i__main__
Node
p15
(dp16
g12
I2
sg13
S'*'
sg14
(i__main__
Node
p17
(dp18
g12
I3
sg13
S'indiv.target()'
p19
sg14
NsS'parent'
p20
g15
sS'left'
p21
Nsbsg20
g10
sg21
(i__main__
Node
p22
(dp23
g12
I3
sg13
S'indiv.randV()'
p24
sg14
Nsg20
g15
sg21
Nsbsbsg20
Nsg21
(i__main__
Node
p25
(dp26
g12
I2
sg13
S'*'
sg14
(i__main__
Node
p27
(dp28
g12
I3
sg13
g19
sg14
Nsg20
g25
sg21
Nsbsg20
g10
sg21
(i__main__
Node
p29
(dp30
g12
I3
sg13
g24
sg14
Nsg20
g25
sg21
NsbsbsbsS'accel_x'
p31
F0
sS'accel_y'
p32
F0
sS'visionAngle'
p33
I130
sS'maxAccel'
p34
I2
sS'maxVel'
p35
F0.72999999999999998
sS'age'
p36
I0
sS'tailSize'
p37
I0
sS'sexualgeno'
p38
NsS'tailBrigh'
p39
I0
sS'maxSteering'
p40
I20
sS'energy'
p41
F0.5
sS'lastScale'
p42
F5.5
sb.(i__main__
Data_mobile
p1
(dp2
S'vel_y'
p3
F-0.29534982858908027
sS'vel_x'
p4
F-0.55828539750265682
sS'pos_x'
p5
F-62.207817950699599
sS'pos_y'
p6
F-41.114694227431563
sS'isAlive'
p7
I01
sS'cumulativeEnergy'
p8
F0.5
sS'geno'
p9
(i__main__
Node
p10
(dp11
S'depth'
p12
I1
sS'vector'
p13
S'+'
sS'right'
p14
(i__main__
Node
p15
(dp16
g12
I2
sg13
S'*'
sg14
(i__main__
Node
p17
(dp18
g12
I3
sg13
S'indiv.target()'
p19
sg14
NsS'parent'
p20
g15
sS'left'
p21
Nsbsg20
g10
sg21
(i__main__
Node
p22
(dp23
g12
I3
sg13
S'indiv.randV()'
p24
sg14
Nsg20
g15
sg21
Nsbsbsg20
Nsg21
(i__main__
Node
p25
(dp26
g12
I2
sg13
S'*'
sg14
(i__main__
Node
p27
(dp28
g12
I3
sg13
g19
sg14
Nsg20
g25
sg21
Nsbsg20
g10
sg21
(i__main__
Node
p29
(dp30
g12
I3
sg13
g24
sg14
Nsg20
g25
sg21
NsbsbsbsS'accel_x'
p31
F0
sS'accel_y'
p32
F0
sS'visionAngle'
p33
I130
sS'maxAccel'
p34
I2
sS'maxVel'
p35
F0.72999999999999998
sS'age'
p36
I0
sS'tailSize'
p37
I0
sS'sexualgeno'
p38
NsS'tailBrigh'
p39
I0
sS'maxSteering'
p40
I20
sS'energy'
p41
F0.5
sS'lastScale'
p42
F5.5
sb.(i__main__
Data_mobile
p1
(dp2
S'vel_y'
p3
F-0.55024142535225884
sS'vel_x'
p4
F0.46089399605225312
sS'pos_x'
p5
F-57.737166831817049
sS'pos_y'
p6
F-42.184686397979618
sS'isAlive'
p7
I01
sS'cumulativeEnergy'
p8
F0.5
sS'geno'
p9
(i__main__
Node
p10
(dp11
S'depth'
p12
I1
sS'vector'
p13
S'+'
sS'right'
p14
(i__main__
Node
p15
(dp16
g12
I2
sg13
S'*'
sg14
(i__main__
Node
p17
(dp18
g12
I3
sg13
S'indiv.target()'
p19
sg14
NsS'parent'
p20
g15
sS'left'
p21
Nsbsg20
g10
sg21
(i__main__
Node
p22
(dp23
g12
I3
sg13
S'indiv.randV()'
p24
sg14
Nsg20
g15
sg21
Nsbsbsg20
Nsg21
(i__main__
Node
p25
(dp26
g12
I2
sg13
S'*'
sg14
(i__main__
Node
p27
(dp28
g12
I3
sg13
g19
sg14
Nsg20
g25
sg21
Nsbsg20
g10
sg21
(i__main__
Node
p29
(dp30
g12
I3
sg13
g24
sg14
Nsg20
g25
sg21
NsbsbsbsS'accel_x'
p31
F0
sS'accel_y'
p32
F0
sS'visionAngle'
p33
I130
sS'maxAccel'
p34
I2
sS'maxVel'
p35
F0.72999999999999998
sS'age'
p36
I0
sS'tailSize'
p37
I0
sS'sexualgeno'
p38
NsS'tailBrigh'
p39
I0
sS'maxSteering'
p40
I20
sS'energy'
p41
F0.5
sS'lastScale'
p42
F5.5
sb.(i__main__
Data_mobile
p1
(dp2
S'vel_y'
p3
F-0.56296138674562246
sS'vel_x'
p4
F0.435429616003846
sS'pos_x'
p5
F-57.862546850490183
sS'pos_y'
p6
F-42.270407707826998
sS'isAlive'
p7
I01
sS'cumulativeEnergy'
p8
F0.5
sS'geno'
p9
(i__main__
Node
p10
(dp11
S'depth'
p12
I1
sS'vector'
p13
S'+'
sS'right'
p14
(i__main__
Node
p15
(dp16
g12
I2
sg13
S'*'
sg14
(i__main__
Node
p17
(dp18
g12
I3
sg13
S'indiv.target()'
p19
sg14
NsS'parent'
p20
g15
sS'left'
p21
Nsbsg20
g10
sg21
(i__main__
Node
p22
(dp23
g12
I3
sg13
S'indiv.randV()'
p24
sg14
Nsg20
g15
sg21
Nsbsbsg20
Nsg21
(i__main__
Node
p25
(dp26
g12
I2
sg13
S'*'
sg14
(i__main__
Node
p27
(dp28
g12
I3
sg13
g19
sg14
Nsg20
g25
sg21
Nsbsg20
g10
sg21
(i__main__
Node
p29
(dp30
g12
I3
sg13
g24
sg14
Nsg20
g25
sg21
NsbsbsbsS'accel_x'
p31
F0
sS'accel_y'
p32
F0
sS'visionAngle'
p33
I130
sS'maxAccel'
p34
I2
sS'maxVel'
p35
F0.72999999999999998
sS'age'
p36
I0
sS'tailSize'
p37
I0
sS'sexualgeno'
p38
NsS'tailBrigh'
p39
I0
sS'maxSteering'
p40
I20
sS'energy'
p41
F0.5
sS'lastScale'
p42
F5.5
sb.(i__main__
Data_mobile
p1
(dp2
S'vel_y'
p3
F-0.63256519924442811
sS'vel_x'
p4
F0.34203490041711382
sS'pos_x'
p5
F-57.858308436137811
sS'pos_y'
p6
F-42.140091104765993
sS'isAlive'
p7
I01
sS'cumulativeEnergy'
p8
F0.5
sS'geno'
p9
(i__main__
Node
p10
(dp11
S'depth'
p12
I1
sS'vector'
p13
S'+'
sS'right'
p14
(i__main__
Node
p15
(dp16
g12
I2
sg13
S'*'
sg14
(i__main__
Node
p17
(dp18
g12
I3
sg13
S'indiv.target()'
p19
sg14
NsS'parent'
p20
g15
sS'left'
p21
Nsbsg20
g10
sg21
(i__main__
Node
p22
(dp23
g12
I3
sg13
S'indiv.randV()'
p24
sg14
Nsg20
g15
sg21
Nsbsbsg20
Nsg21
(i__main__
Node
p25
(dp26
g12
I2
sg13
S'*'
sg14
(i__main__
Node
p27
(dp28
g12
I3
sg13
g19
sg14
Nsg20
g25
sg21
Nsbsg20
g10
sg21
(i__main__
Node
p29
(dp30
g12
I3
sg13
g24
sg14
Nsg20
g25
sg21
NsbsbsbsS'accel_x'
p31
F0
sS'accel_y'
p32
F0
sS'visionAngle'
p33
I130
sS'maxAccel'
p34
I2
sS'maxVel'
p35
F0.72999999999999998
sS'age'
p36
I0
sS'tailSize'
p37
I0
sS'sexualgeno'
p38
NsS'tailBrigh'
p39
I0
sS'maxSteering'
p40
I20
sS'energy'
p41
F0.5
sS'lastScale'
p42
F5.5
sb.(i__main__
Data_mobile
p1
(dp2
S'vel_y'
p3
I0
sS'vel_x'
p4
I0
sS'pos_x'
p5
I-9579
sS'pos_y'
p6
I9779
sS'isAlive'
p7
I00
sS'cumulativeEnergy'
p8
F0.5
sS'geno'
p9
(i__main__
Node
p10
(dp11
S'depth'
p12
I1
sS'vector'
p13
S'+'
sS'right'
p14
(i__main__
Node
p15
(dp16
g12
I2
sg13
S'*'
sg14
(i__main__
Node
p17
(dp18
g12
I3
sg13
S'indiv.target()'
p19
sg14
NsS'parent'
p20
g15
sS'left'
p21
Nsbsg20
g10
sg21
(i__main__
Node
p22
(dp23
g12
I3
sg13
S'indiv.randV()'
p24
sg14
Nsg20
g15
sg21
Nsbsbsg20
Nsg21
(i__main__
Node
p25
(dp26
g12
I2
sg13
S'*'
sg14
(i__main__
Node
p27
(dp28
g12
I3
sg13
g19
sg14
Nsg20
g25
sg21
Nsbsg20
g10
sg21
(i__main__
Node
p29
(dp30
g12
I3
sg13
g24
sg14
Nsg20
g25
sg21
NsbsbsbsS'accel_x'
p31
F0
sS'accel_y'
p32
F0
sS'visionAngle'
p33
I130
sS'maxAccel'
p34
I2
sS'maxVel'
p35
F0.72999999999999998
sS'age'
p36
I0
sS'tailSize'
p37
I0
sS'sexualgeno'
p38
NsS'tailBrigh'
p39
I0
sS'maxSteering'
p40
I20
sS'energy'
p41
F0.5
sS'lastScale'
p42
F5.5
sb.(i__main__
Data_mobile
p1
(dp2
S'vel_y'
p3
I0
sS'vel_x'
p4
I0
sS'pos_x'
p5
I-9579
sS'pos_y'
p6
I9779
sS'isAlive'
p7
I00
sS'cumulativeEnergy'
p8
F0.5
sS'geno'
p9
(i__main__
Node
p10
(dp11
S'depth'
p12
I1
sS'vector'
p13
S'+'
sS'right'
p14
(i__main__
Node
p15
(dp16
g12
I2
sg13
S'*'
sg14
(i__main__
Node
p17
(dp18
g12
I3
sg13
S'indiv.target()'
p19
sg14
NsS'parent'
p20
g15
sS'left'
p21
Nsbsg20
g10
sg21
(i__main__
Node
p22
(dp23
g12
I3
sg13
S'indiv.randV()'
p24
sg14
Nsg20
g15
sg21
Nsbsbsg20
Nsg21
(i__main__
Node
p25
(dp26
g12
I2
sg13
S'*'
sg14
(i__main__
Node
p27
(dp28
g12
I3
sg13
g19
sg14
Nsg20
g25
sg21
Nsbsg20
g10
sg21
(i__main__
Node
p29
(dp30
g12
I3
sg13
g24
sg14
Nsg20
g25
sg21
NsbsbsbsS'accel_x'
p31
F0
sS'accel_y'
p32
F0
sS'visionAngle'
p33
I130
sS'maxAccel'
p34
I2
sS'maxVel'
p35
F0.72999999999999998
sS'age'
p36
I0
sS'tailSize'
p37
I0
sS'sexualgeno'
p38
NsS'tailBrigh'
p39
I0
sS'maxSteering'
p40
I20
sS'energy'
p41
F0.5
sS'lastScale'
p42
F5.5
sb.(i__main__
Data_mobile
p1
(dp2
S'vel_y'
p3
I0
sS'vel_x'
p4
I0
sS'pos_x'
p5
I-9579
sS'pos_y'
p6
I9779
sS'isAlive'
p7
I00
sS'cumulativeEnergy'
p8
F0.5
sS'geno'
p9
(i__main__
Node
p10
(dp11
S'depth'
p12
I1
sS'vector'
p13
S'+'
sS'right'
p14
(i__main__
Node
p15
(dp16
g12
I2
sg13
S'*'
sg14
(i__main__
Node
p17
(dp18
g12
I3
sg13
S'indiv.target()'
p19
sg14
NsS'parent'
p20
g15
sS'left'
p21
Nsbsg20
g10
sg21
(i__main__
Node
p22
(dp23
g12
I3
sg13
S'indiv.randV()'
p24
sg14
Nsg20
g15
sg21
Nsbsbsg20
Nsg21
(i__main__
Node
p25
(dp26
g12
I2
sg13
S'*'
sg14
(i__main__
Node
p27
(dp28
g12
I3
sg13
g19
sg14
Nsg20
g25
sg21
Nsbsg20
g10
sg21
(i__main__
Node
p29
(dp30
g12
I3
sg13
g24
sg14
Nsg20
g25
sg21
NsbsbsbsS'accel_x'
p31
F0
sS'accel_y'
p32
F0
sS'visionAngle'
p33
I130
sS'maxAccel'
p34
I2
sS'maxVel'
p35
F0.72999999999999998
sS'age'
p36
I0
sS'tailSize'
p37
I0
sS'sexualgeno'
p38
NsS'tailBrigh'
p39
I0
sS'maxSteering'
p40
I20
sS'energy'
p41
F0.5
sS'lastScale'
p42
F5.5
sb.(i__main__
Data_mobile
p1
(dp2
S'vel_y'
p3
I0
sS'vel_x'
p4
I0
sS'pos_x'
p5
I-9579
sS'pos_y'
p6
I9779
sS'isAlive'
p7
I00
sS'cumulativeEnergy'
p8
F0.5
sS'geno'
p9
(i__main__
Node
p10
(dp11
S'depth'
p12
I1
sS'vector'
p13
S'+'
sS'right'
p14
(i__main__
Node
p15
(dp16
g12
I2
sg13
S'*'
sg14
(i__main__
Node
p17
(dp18
g12
I3
sg13
S'indiv.target()'
p19
sg14
NsS'parent'
p20
g15
sS'left'
p21
Nsbsg20
g10
sg21
(i__main__
Node
p22
(dp23
g12
I3
sg13
S'indiv.randV()'
p24
sg14
Nsg20
g15
sg21
Nsbsbsg20
Nsg21
(i__main__
Node
p25
(dp26
g12
I2
sg13
S'*'
sg14
(i__main__
Node
p27
(dp28
g12
I3
sg13
g19
sg14
Nsg20
g25
sg21
Nsbsg20
g10
sg21
(i__main__
Node
p29
(dp30
g12
I3
sg13
g24
sg14
Nsg20
g25
sg21
NsbsbsbsS'accel_x'
p31
F0
sS'accel_y'
p32
F0
sS'visionAngle'
p33
I130
sS'maxAccel'
p34
I2
sS'maxVel'
p35
F0.72999999999999998
sS'age'
p36
I0
sS'tailSize'
p37
I0
sS'sexualgeno'
p38
NsS'tailBrigh'
p39
I0
sS'maxSteering'
p40
I20
sS'energy'
p41
F0.5
sS'lastScale'
p42
F5.5
sb.(i__main__
Data_mobile
p1
(dp2
S'vel_y'
p3
I0
sS'vel_x'
p4
I0
sS'pos_x'
p5
I-9579
sS'pos_y'
p6
I9779
sS'isAlive'
p7
I00
sS'cumulativeEnergy'
p8
F0.5
sS'geno'
p9
(i__main__
Node
p10
(dp11
S'depth'
p12
I1
sS'vector'
p13
S'+'
sS'right'
p14
(i__main__
Node
p15
(dp16
g12
I2
sg13
S'*'
sg14
(i__main__
Node
p17
(dp18
g12
I3
sg13
S'indiv.target()'
p19
sg14
NsS'parent'
p20
g15
sS'left'
p21
Nsbsg20
g10
sg21
(i__main__
Node
p22
(dp23
g12
I3
sg13
S'indiv.randV()'
p24
sg14
Nsg20
g15
sg21
Nsbsbsg20
Nsg21
(i__main__
Node
p25
(dp26
g12
I2
sg13
S'*'
sg14
(i__main__
Node
p27
(dp28
g12
I3
sg13
g19
sg14
Nsg20
g25
sg21
Nsbsg20
g10
sg21
(i__main__
Node
p29
(dp30
g12
I3
sg13
g24
sg14
Nsg20
g25
sg21
NsbsbsbsS'accel_x'
p31
F0
sS'accel_y'
p32
F0
sS'visionAngle'
p33
I130
sS'maxAccel'
p34
I2
sS'maxVel'
p35
F0.72999999999999998
sS'age'
p36
I0
sS'tailSize'
p37
I0
sS'sexualgeno'
p38
NsS'tailBrigh'
p39
I0
sS'maxSteering'
p40
I20
sS'energy'
p41
F0.5
sS'lastScale'
p42
F5.5
sb.(i__main__
Data_mobile
p1
(dp2
S'vel_y'
p3
I0
sS'vel_x'
p4
I0
sS'pos_x'
p5
I-9579
sS'pos_y'
p6
I9779
sS'isAlive'
p7
I00
sS'cumulativeEnergy'
p8
F0.5
sS'geno'
p9
(i__main__
Node
p10
(dp11
S'depth'
p12
I1
sS'vector'
p13
S'+'
sS'right'
p14
(i__main__
Node
p15
(dp16
g13
S'/'
sg12
I2
sg14
(i__main__
Node
p17
(dp18
g13
S'*'
sg12
I3
sg14
(i__main__
Node
p19
(dp20
g13
S'indiv.cohesion()'
p21
sg12
I4
sg14
NsS'parent'
p22
g17
sS'left'
p23
Nsbsg22
g15
sg23
(i__main__
Node
p24
(dp25
g13
S'indiv.alignment()'
p26
sg12
I4
sg14
Nsg22
g17
sg23
Nsbsbsg22
g10
sg23
(i__main__
Node
p27
(dp28
g13
S'+'
sg12
I3
sg14
(i__main__
Node
p29
(dp30
g13
S'indiv.target()'
p31
sg12
I4
sg14
Nsg22
g27
sg23
Nsbsg22
g15
sg23
(i__main__
Node
p32
(dp33
g13
g31
sg12
I4
sg14
Nsg22
g27
sg23
Nsbsbsbsg22
Nsg23
(i__main__
Node
p34
(dp35
g12
I2
sg13
S'*'
sg14
(i__main__
Node
p36
(dp37
g12
I3
sg13
g31
sg14
Nsg22
g34
sg23
Nsbsg22
g10
sg23
(i__main__
Node
p38
(dp39
g12
I3
sg13
S'indiv.randV()'
p40
sg14
Nsg22
g34
sg23
NsbsbsbsS'accel_x'
p41
F0
sS'accel_y'
p42
F0
sS'visionAngle'
p43
I130
sS'maxAccel'
p44
I2
sS'maxVel'
p45
F0.72999999999999998
sS'age'
p46
I0
sS'tailSize'
p47
I0
sS'sexualgeno'
p48
NsS'tailBrigh'
p49
I0
sS'maxSteering'
p50
I20
sS'energy'
p51
F0.5
sS'lastScale'
p52
F5.5
sb.(i__main__
Data_mobile
p1
(dp2
S'vel_y'
p3
I0
sS'vel_x'
p4
I0
sS'pos_x'
p5
I-9579
sS'pos_y'
p6
I9779
sS'isAlive'
p7
I00
sS'cumulativeEnergy'
p8
F0.5
sS'geno'
p9
(i__main__
Node
p10
(dp11
S'depth'
p12
I1
sS'vector'
p13
S'+'
sS'right'
p14
(i__main__
Node
p15
(dp16
g12
I2
sg13
S'*'
sg14
(i__main__
Node
p17
(dp18
g12
I3
sg13
S'indiv.target()'
p19
sg14
NsS'parent'
p20
g15
sS'left'
p21
Nsbsg20
g10
sg21
(i__main__
Node
p22
(dp23
g12
I3
sg13
S'indiv.randV()'
p24
sg14
Nsg20
g15
sg21
Nsbsbsg20
Nsg21
(i__main__
Node
p25
(dp26
g12
I2
sg13
S'*'
sg14
(i__main__
Node
p27
(dp28
g12
I3
sg13
g19
sg14
Nsg20
g25
sg21
Nsbsg20
g10
sg21
(i__main__
Node
p29
(dp30
g12
I3
sg13
g24
sg14
Nsg20
g25
sg21
NsbsbsbsS'accel_x'
p31
F0
sS'accel_y'
p32
F0
sS'visionAngle'
p33
I130
sS'maxAccel'
p34
I2
sS'maxVel'
p35
F0.72999999999999998
sS'age'
p36
I0
sS'tailSize'
p37
I0
sS'sexualgeno'
p38
NsS'tailBrigh'
p39
I0
sS'maxSteering'
p40
I20
sS'energy'
p41
F0.5
sS'lastScale'
p42
F5.5
sb.(i__main__
Data_mobile
p1
(dp2
S'vel_y'
p3
I0
sS'vel_x'
p4
I0
sS'pos_x'
p5
I-9579
sS'pos_y'
p6
I9779
sS'isAlive'
p7
I00
sS'cumulativeEnergy'
p8
F0.5
sS'geno'
p9
(i__main__
Node
p10
(dp11
S'depth'
p12
I1
sS'vector'
p13
S'+'
sS'right'
p14
(i__main__
Node
p15
(dp16
g12
I2
sg13
S'*'
sg14
(i__main__
Node
p17
(dp18
g12
I3
sg13
S'indiv.target()'
p19
sg14
NsS'parent'
p20
g15
sS'left'
p21
Nsbsg20
g10
sg21
(i__main__
Node
p22
(dp23
g12
I3
sg13
S'indiv.randV()'
p24
sg14
Nsg20
g15
sg21
Nsbsbsg20
Nsg21
(i__main__
Node
p25
(dp26
g12
I2
sg13
S'*'
sg14
(i__main__
Node
p27
(dp28
g12
I3
sg13
g19
sg14
Nsg20
g25
sg21
Nsbsg20
g10
sg21
(i__main__
Node
p29
(dp30
g12
I3
sg13
g24
sg14
Nsg20
g25
sg21
NsbsbsbsS'accel_x'
p31
F0
sS'accel_y'
p32
F0
sS'visionAngle'
p33
I130
sS'maxAccel'
p34
I2
sS'maxVel'
p35
F0.72999999999999998
sS'age'
p36
I0
sS'tailSize'
p37
I0
sS'sexualgeno'
p38
NsS'tailBrigh'
p39
I0
sS'maxSteering'
p40
I20
sS'energy'
p41
F0.5
sS'lastScale'
p42
F5.5
sb.(i__main__
Data_mobile
p1
(dp2
S'vel_y'
p3
I0
sS'vel_x'
p4
I0
sS'pos_x'
p5
I-9579
sS'pos_y'
p6
I9779
sS'isAlive'
p7
I00
sS'cumulativeEnergy'
p8
F0.5
sS'geno'
p9
(i__main__
Node
p10
(dp11
S'depth'
p12
I1
sS'vector'
p13
S'+'
sS'right'
p14
(i__main__
Node
p15
(dp16
g12
I2
sg13
S'*'
sg14
(i__main__
Node
p17
(dp18
g12
I3
sg13
S'indiv.target()'
p19
sg14
NsS'parent'
p20
g15
sS'left'
p21
Nsbsg20
g10
sg21
(i__main__
Node
p22
(dp23
g12
I3
sg13
S'indiv.randV()'
p24
sg14
Nsg20
g15
sg21
Nsbsbsg20
Nsg21
(i__main__
Node
p25
(dp26
g12
I2
sg13
S'*'
sg14
(i__main__
Node
p27
(dp28
g12
I3
sg13
g19
sg14
Nsg20
g25
sg21
Nsbsg20
g10
sg21
(i__main__
Node
p29
(dp30
g12
I3
sg13
g24
sg14
Nsg20
g25
sg21
NsbsbsbsS'accel_x'
p31
F0
sS'accel_y'
p32
F0
sS'visionAngle'
p33
I130
sS'maxAccel'
p34
I2
sS'maxVel'
p35
F0.72999999999999998
sS'age'
p36
I0
sS'tailSize'
p37
I0
sS'sexualgeno'
p38
NsS'tailBrigh'
p39
I0
sS'maxSteering'
p40
I20
sS'energy'
p41
F0.5
sS'lastScale'
p42
F5.5
sb.(i__main__
Data_mobile
p1
(dp2
S'vel_y'
p3
I0
sS'vel_x'
p4
I0
sS'pos_x'
p5
I-9579
sS'pos_y'
p6
I9779
sS'isAlive'
p7
I00
sS'cumulativeEnergy'
p8
F0.5
sS'geno'
p9
(i__main__
Node
p10
(dp11
S'depth'
p12
I1
sS'vector'
p13
S'+'
sS'right'
p14
(i__main__
Node
p15
(dp16
g12
I2
sg13
S'*'
sg14
(i__main__
Node
p17
(dp18
g12
I3
sg13
S'indiv.target()'
p19
sg14
NsS'parent'
p20
g15
sS'left'
p21
Nsbsg20
g10
sg21
(i__main__
Node
p22
(dp23
g12
I3
sg13
S'indiv.randV()'
p24
sg14
Nsg20
g15
sg21
Nsbsbsg20
Nsg21
(i__main__
Node
p25
(dp26
g12
I2
sg13
S'*'
sg14
(i__main__
Node
p27
(dp28
g12
I3
sg13
g19
sg14
Nsg20
g25
sg21
Nsbsg20
g10
sg21
(i__main__
Node
p29
(dp30
g12
I3
sg13
g24
sg14
Nsg20
g25
sg21
NsbsbsbsS'accel_x'
p31
F0
sS'accel_y'
p32
F0
sS'visionAngle'
p33
I130
sS'maxAccel'
p34
I2
sS'maxVel'
p35
F0.72999999999999998
sS'age'
p36
I0
sS'tailSize'
p37
I0
sS'sexualgeno'
p38
NsS'tailBrigh'
p39
I0
sS'maxSteering'
p40
I20
sS'energy'
p41
F0.5
sS'lastScale'
p42
F5.5
sb.(i__main__
Data_mobile
p1
(dp2
S'vel_y'
p3
I0
sS'vel_x'
p4
I0
sS'pos_x'
p5
I-9579
sS'pos_y'
p6
I9779
sS'isAlive'
p7
I00
sS'cumulativeEnergy'
p8
F0.5
sS'geno'
p9
(i__main__
Node
p10
(dp11
S'depth'
p12
I1
sS'vector'
p13
S'+'
sS'right'
p14
(i__main__
Node
p15
(dp16
g12
I2
sg13
S'*'
sg14
(i__main__
Node
p17
(dp18
g12
I3
sg13
S'indiv.target()'
p19
sg14
NsS'parent'
p20
g15
sS'left'
p21
Nsbsg20
g10
sg21
(i__main__
Node
p22
(dp23
g12
I3
sg13
S'indiv.randV()'
p24
sg14
Nsg20
g15
sg21
Nsbsbsg20
Nsg21
(i__main__
Node
p25
(dp26
g12
I2
sg13
S'*'
sg14
(i__main__
Node
p27
(dp28
g12
I3
sg13
g19
sg14
Nsg20
g25
sg21
Nsbsg20
g10
sg21
(i__main__
Node
p29
(dp30
g12
I3
sg13
g24
sg14
Nsg20
g25
sg21
NsbsbsbsS'accel_x'
p31
F0
sS'accel_y'
p32
F0
sS'visionAngle'
p33
I130
sS'maxAccel'
p34
I2
sS'maxVel'
p35
F0.72999999999999998
sS'age'
p36
I0
sS'tailSize'
p37
I0
sS'sexualgeno'
p38
NsS'tailBrigh'
p39
I0
sS'maxSteering'
p40
I20
sS'energy'
p41
F0.5
sS'lastScale'
p42
F5.5
sb.(i__main__
Data_mobile
p1
(dp2
S'vel_y'
p3
I0
sS'vel_x'
p4
I0
sS'pos_x'
p5
I-9579
sS'pos_y'
p6
I9779
sS'isAlive'
p7
I00
sS'cumulativeEnergy'
p8
F0.5
sS'geno'
p9
(i__main__
Node
p10
(dp11
S'vector'
p12
S'/'
sS'depth'
p13
I1
sS'right'
p14
(i__main__
Node
p15
(dp16
g12
S'-'
sg13
I2
sg14
(i__main__
Node
p17
(dp18
g12
S'indiv.separation()'
p19
sg13
I3
sg14
NsS'parent'
p20
g15
sS'left'
p21
Nsbsg20
g10
sg21
(i__main__
Node
p22
(dp23
g12
g19
sg13
I3
sg14
Nsg20
g15
sg21
Nsbsbsg20
Nsg21
(i__main__
Node
p24
(dp25
g12
S'/'
sg13
I2
sg14
(i__main__
Node
p26
(dp27
g12
S'indiv.cohesion()'
p28
sg13
I3
sg14
Nsg20
g24
sg21
Nsbsg20
g10
sg21
(i__main__
Node
p29
(dp30
g12
S'indiv.alignment()'
p31
sg13
I3
sg14
Nsg20
g24
sg21
NsbsbsbsS'accel_x'
p32
F0
sS'accel_y'
p33
F0
sS'visionAngle'
p34
I130
sS'maxAccel'
p35
I2
sS'maxVel'
p36
F0.72999999999999998
sS'age'
p37
I0
sS'tailSize'
p38
I0
sS'sexualgeno'
p39
NsS'tailBrigh'
p40
I0
sS'maxSteering'
p41
I20
sS'energy'
p42
F0.5
sS'lastScale'
p43
F5.5
sb.(i__main__
Data_mobile
p1
(dp2
S'vel_y'
p3
I0
sS'vel_x'
p4
I0
sS'pos_x'
p5
I-9579
sS'pos_y'
p6
I9779
sS'isAlive'
p7
I00
sS'cumulativeEnergy'
p8
F0.5
sS'geno'
p9
(i__main__
Node
p10
(dp11
S'depth'
p12
I1
sS'vector'
p13
S'+'
sS'right'
p14
(i__main__
Node
p15
(dp16
g12
I2
sg13
S'*'
sg14
(i__main__
Node
p17
(dp18
g12
I3
sg13
S'indiv.target()'
p19
sg14
NsS'parent'
p20
g15
sS'left'
p21
Nsbsg20
g10
sg21
(i__main__
Node
p22
(dp23
g12
I3
sg13
S'indiv.randV()'
p24
sg14
Nsg20
g15
sg21
Nsbsbsg20
Nsg21
(i__main__
Node
p25
(dp26
g12
I2
sg13
S'*'
sg14
(i__main__
Node
p27
(dp28
g12
I3
sg13
g19
sg14
Nsg20
g25
sg21
Nsbsg20
g10
sg21
(i__main__
Node
p29
(dp30
g12
I3
sg13
g24
sg14
Nsg20
g25
sg21
NsbsbsbsS'accel_x'
p31
F0
sS'accel_y'
p32
F0
sS'visionAngle'
p33
I130
sS'maxAccel'
p34
I2
sS'maxVel'
p35
F0.72999999999999998
sS'age'
p36
I0
sS'tailSize'
p37
I0
sS'sexualgeno'
p38
NsS'tailBrigh'
p39
I0
sS'maxSteering'
p40
I20
sS'energy'
p41
F0.5
sS'lastScale'
p42
F5.5
sb.