(i__main__
Data_mobile
p1
(dp2
S'vel_y'
p3
F-0.10019709465524101
sS'vel_x'
p4
F0.056727960868327432
sS'pos_x'
p5
F-131.31612402987577
sS'pos_y'
p6
F-40.529443247862091
sS'isAlive'
p7
I01
sS'cumulativeEnergy'
p8
F49
sS'geno'
p9
(lp10
F1.2198931380659948
aF1.5334773789393261
aF0.4008218856768383
aF3.9299324266843145
aF-0.47855294594221154
aF-0.14476915470953944
asS'accel_x'
p11
F-0.73894272372634828
sS'accel_y'
p12
F-1.858484234813921
sS'visionAngle'
p13
I150
sS'maxAccel'
p14
I2
sS'maxVel'
p15
F0.5
sS'age'
p16
I350
sS'tailSize'
p17
F6.9729627888444243
sS'sexualgeno'
p18
(i__main__
Node
p19
(dp20
S'depth'
p21
I1
sS'right'
p22
(i__main__
Node
p23
(dp24
g21
I2
sg22
NsS'parent'
p25
g19
sS'float_size'
p26
S'indiv.getEnergy()'
p27
sS'float_bright'
p28
S'indiv.distanceMatingSeason()'
p29
sS'left'
p30
Nsbsg25
Nsg26
S'/'
sg28
S'+'
sg30
(i__main__
Node
p31
(dp32
g21
I2
sg22
Nsg25
g19
sg26
S'indiv.getNumPreysNeigh()'
p33
sg28
S'indiv.randF()'
p34
sg30
NsbsbsS'tailBrigh'
p35
F1.5110920793301008
sS'maxSteering'
p36
I30
sS'energy'
p37
F1
sS'lastScale'
p38
F15.5
sb.(i__main__
Data_mobile
p1
(dp2
S'vel_y'
p3
F-0.2832890466503924
sS'vel_x'
p4
F0.062194900412239539
sS'pos_x'
p5
F-124.6638461066583
sS'pos_y'
p6
F16.566051132596442
sS'isAlive'
p7
I01
sS'cumulativeEnergy'
p8
F49
sS'geno'
p9
(lp10
F0.82570092217418212
aF1.992042923606911
aF0.78155796079867002
aF4.2056723989579679
aF-0.47855294594221154
aF-0.14476915470953944
asS'accel_x'
p11
F1.72646148425021
sS'accel_y'
p12
F1.0096191080801522
sS'visionAngle'
p13
I150
sS'maxAccel'
p14
I2
sS'maxVel'
p15
F0.5
sS'age'
p16
I150
sS'tailSize'
p17
F4.1684897415908084
sS'sexualgeno'
p18
(i__main__
Node
p19
(dp20
S'depth'
p21
I1
sS'right'
p22
(i__main__
Node
p23
(dp24
g21
I2
sg22
NsS'parent'
p25
g19
sS'float_size'
p26
S'indiv.getEnergy()'
p27
sS'float_bright'
p28
S'indiv.distanceMatingSeason()'
p29
sS'left'
p30
Nsbsg25
Nsg26
S'/'
sg28
S'+'
sg30
(i__main__
Node
p31
(dp32
g21
I2
sg22
Nsg25
g19
sg26
S'indiv.getNumPreysNeigh()'
p33
sg28
S'indiv.randF()'
p34
sg30
NsbsbsS'tailBrigh'
p35
F4.2539272072341348
sS'maxSteering'
p36
I30
sS'energy'
p37
F1
sS'lastScale'
p38
F15.5
sb.(i__main__
Data_mobile
p1
(dp2
S'vel_y'
p3
F0.38032116645957337
sS'vel_x'
p4
F0.024972699871101688
sS'pos_x'
p5
F-162.57861484904132
sS'pos_y'
p6
F41.879380838924085
sS'isAlive'
p7
I01
sS'cumulativeEnergy'
p8
F49
sS'geno'
p9
(lp10
F0.0024091847294946955
aF0.27827766736430171
aF0.17492763108243736
aF4.2056723989579679
aF-0.47855294594221154
aF0.16282494668000558
asS'accel_x'
p11
F-1.1972145152944071
sS'accel_y'
p12
F1.6020853299273348
sS'visionAngle'
p13
I150
sS'maxAccel'
p14
I2
sS'maxVel'
p15
F0.5
sS'age'
p16
I150
sS'tailSize'
p17
F0.89061950713111959
sS'sexualgeno'
p18
(i__main__
Node
p19
(dp20
S'depth'
p21
I1
sS'right'
p22
(i__main__
Node
p23
(dp24
g21
I2
sg22
NsS'parent'
p25
g19
sS'float_size'
p26
S'indiv.getEnergy()'
p27
sS'float_bright'
p28
S'indiv.distanceMatingSeason()'
p29
sS'left'
p30
Nsbsg25
Nsg26
S'/'
sg28
S'+'
sg30
(i__main__
Node
p31
(dp32
g21
I2
sg22
Nsg25
g19
sg26
S'indiv.getNumPreysNeigh()'
p33
sg28
S'indiv.randF()'
p34
sg30
NsbsbsS'tailBrigh'
p35
F1.235365208339344
sS'maxSteering'
p36
I30
sS'energy'
p37
F1
sS'lastScale'
p38
F15.5
sb.(i__main__
Data_mobile
p1
(dp2
S'vel_y'
p3
F-0.0248655979777423
sS'vel_x'
p4
F0.019793205568410032
sS'pos_x'
p5
F-123.55032337117903
sS'pos_y'
p6
F17.154484656775249
sS'isAlive'
p7
I01
sS'cumulativeEnergy'
p8
F49
sS'geno'
p9
(lp10
F0.0024091847294946955
aF1.992042923606911
aF0.78155796079867002
aF4.4210316292331902
aF-0.47855294594221154
aF-0.14476915470953944
asS'accel_x'
p11
F-1.7845652255818087
sS'accel_y'
p12
F-0.90295457008874336
sS'visionAngle'
p13
I150
sS'maxAccel'
p14
I2
sS'maxVel'
p15
F0.5
sS'age'
p16
I150
sS'tailSize'
p17
F9.1359719595048681
sS'sexualgeno'
p18
(i__main__
Node
p19
(dp20
S'depth'
p21
I1
sS'right'
p22
(i__main__
Node
p23
(dp24
g21
I2
sg22
NsS'parent'
p25
g19
sS'float_size'
p26
S'indiv.getEnergy()'
p27
sS'float_bright'
p28
S'indiv.distanceMatingSeason()'
p29
sS'left'
p30
Nsbsg25
Nsg26
S'/'
sg28
S'+'
sg30
(i__main__
Node
p31
(dp32
g21
I2
sg22
Nsg25
g19
sg26
S'indiv.getNumPreysNeigh()'
p33
sg28
S'indiv.randF()'
p34
sg30
NsbsbsS'tailBrigh'
p35
F1.0028133353148438
sS'maxSteering'
p36
I30
sS'energy'
p37
F1
sS'lastScale'
p38
F15.5
sb.(i__main__
Data_mobile
p1
(dp2
S'vel_y'
p3
F-0.23875216595721832
sS'vel_x'
p4
F0.050788676463248889
sS'pos_x'
p5
F-199.24211038028963
sS'pos_y'
p6
F32.656292893436685
sS'isAlive'
p7
I01
sS'cumulativeEnergy'
p8
F49
sS'geno'
p9
(lp10
F0.0024091847294946955
aF1.992042923606911
aF0.78155796079867002
aF4.2056723989579679
aF-0.47855294594221154
aF-0.14476915470953944
asS'accel_x'
p11
F-0.81048200231074352
sS'accel_y'
p12
F1.8284197887603293
sS'visionAngle'
p13
I150
sS'maxAccel'
p14
I2
sS'maxVel'
p15
F0.5
sS'age'
p16
I1150
sS'tailSize'
p17
F3.5626922322605692
sS'sexualgeno'
p18
(i__main__
Node
p19
(dp20
S'depth'
p21
I1
sS'right'
p22
(i__main__
Node
p23
(dp24
g21
I2
sg22
NsS'parent'
p25
g19
sS'float_size'
p26
S'indiv.getEnergy()'
p27
sS'float_bright'
p28
S'indiv.distanceMatingSeason()'
p29
sS'left'
p30
Nsbsg25
Nsg26
S'/'
sg28
S'+'
sg30
(i__main__
Node
p31
(dp32
g21
I2
sg22
Nsg25
g19
sg26
S'indiv.getNumPreysNeigh()'
p33
sg28
S'indiv.randF()'
p34
sg30
NsbsbsS'tailBrigh'
p35
F0.52491385806462065
sS'maxSteering'
p36
I30
sS'energy'
p37
F1
sS'lastScale'
p38
F15.5
sb.(i__main__
Data_mobile
p1
(dp2
S'vel_y'
p3
F-0.31106520273416305
sS'vel_x'
p4
F0.048342798104538239
sS'pos_x'
p5
F-17.338574803895302
sS'pos_y'
p6
F-32.150958321013427
sS'isAlive'
p7
I01
sS'cumulativeEnergy'
p8
F49
sS'geno'
p9
(lp10
F1.2198931380659948
aF0.27827766736430171
aF0.88842783821909888
aF3.9299324266843145
aF-0.47855294594221154
aF-0.14476915470953944
asS'accel_x'
p11
F-0.66825836684394657
sS'accel_y'
p12
F-1.8850545761709556
sS'visionAngle'
p13
I150
sS'maxAccel'
p14
I2
sS'maxVel'
p15
F0.5
sS'age'
p16
I150
sS'tailSize'
p17
F2.0381678775780965
sS'sexualgeno'
p18
(i__main__
Node
p19
(dp20
S'depth'
p21
I1
sS'right'
p22
(i__main__
Node
p23
(dp24
g21
I2
sg22
NsS'parent'
p25
g19
sS'float_size'
p26
S'indiv.getEnergy()'
p27
sS'float_bright'
p28
S'indiv.distanceMatingSeason()'
p29
sS'left'
p30
Nsbsg25
Nsg26
S'/'
sg28
S'+'
sg30
(i__main__
Node
p31
(dp32
g21
I2
sg22
Nsg25
g19
sg26
S'indiv.getNumPreysNeigh()'
p33
sg28
S'indiv.randF()'
p34
sg30
NsbsbsS'tailBrigh'
p35
F5.8649707816819738
sS'maxSteering'
p36
I30
sS'energy'
p37
F1
sS'lastScale'
p38
F15.5
sb.(i__main__
Data_mobile
p1
(dp2
S'vel_y'
p3
F0.088551150657618649
sS'vel_x'
p4
F0.043328443383179739
sS'pos_x'
p5
F-94.234588346190677
sS'pos_y'
p6
F18.075242130196148
sS'isAlive'
p7
I01
sS'cumulativeEnergy'
p8
F49
sS'geno'
p9
(lp10
F0.0024091847294946955
aF1.992042923606911
aF0.78155796079867002
aF4.2056723989579679
aF-0.47855294594221154
aF0.20231169513714387
asS'accel_x'
p11
F-1.0791761647186835
sS'accel_y'
p12
F-1.6838583092122308
sS'visionAngle'
p13
I150
sS'maxAccel'
p14
I2
sS'maxVel'
p15
F0.5
sS'age'
p16
I100
sS'tailSize'
p17
F7.5732731468173942
sS'sexualgeno'
p18
(i__main__
Node
p19
(dp20
S'depth'
p21
I1
sS'right'
p22
(i__main__
Node
p23
(dp24
g21
I2
sg22
NsS'parent'
p25
g19
sS'float_size'
p26
S'indiv.getEnergy()'
p27
sS'float_bright'
p28
S'indiv.distanceMatingSeason()'
p29
sS'left'
p30
Nsbsg25
Nsg26
S'/'
sg28
S'+'
sg30
(i__main__
Node
p31
(dp32
g21
I2
sg22
Nsg25
g19
sg26
S'indiv.getNumPreysNeigh()'
p33
sg28
S'indiv.randF()'
p34
sg30
NsbsbsS'tailBrigh'
p35
F5.2719180189109718
sS'maxSteering'
p36
I30
sS'energy'
p37
F1
sS'lastScale'
p38
F15.5
sb.(i__main__
Data_mobile
p1
(dp2
S'vel_y'
p3
F0.31178060764122828
sS'vel_x'
p4
F0.064171664807870385
sS'pos_x'
p5
F-24.13370575554838
sS'pos_y'
p6
F-59.67371872135228
sS'isAlive'
p7
I01
sS'cumulativeEnergy'
p8
F49
sS'geno'
p9
(lp10
F1.031293474478062
aF0.27827766736430171
aF0.75663672893619882
aF3.5171953206204769
aF0.96943573838312946
aF0.23503711925497328
asS'accel_x'
p11
F1.9533327720193552
sS'accel_y'
p12
F0.42952425048555926
sS'visionAngle'
p13
I150
sS'maxAccel'
p14
I2
sS'maxVel'
p15
F0.5
sS'age'
p16
I200
sS'tailSize'
p17
F3.3898133114101023
sS'sexualgeno'
p18
(i__main__
Node
p19
(dp20
S'depth'
p21
I1
sS'right'
p22
(i__main__
Node
p23
(dp24
g21
I2
sg22
NsS'parent'
p25
g19
sS'float_size'
p26
S'indiv.getEnergy()'
p27
sS'float_bright'
p28
S'indiv.distanceMatingSeason()'
p29
sS'left'
p30
Nsbsg25
Nsg26
S'/'
sg28
S'+'
sg30
(i__main__
Node
p31
(dp32
g21
I2
sg22
Nsg25
g19
sg26
S'indiv.getNumPreysNeigh()'
p33
sg28
S'indiv.randF()'
p34
sg30
NsbsbsS'tailBrigh'
p35
F0.2015914978790101
sS'maxSteering'
p36
I30
sS'energy'
p37
F1
sS'lastScale'
p38
F15.5
sb.(i__main__
Data_mobile
p1
(dp2
S'vel_y'
p3
F-0.42931687636722082
sS'vel_x'
p4
F0.002168123094232928
sS'pos_x'
p5
F13.872169102874791
sS'pos_y'
p6
F-27.24583324748793
sS'isAlive'
p7
I01
sS'cumulativeEnergy'
p8
F48.089733859516443
sS'geno'
p9
(lp10
F0.0024091847294946955
aF1.5334773789393261
aF0.4008218856768383
aF3.9299324266843145
aF-0.47855294594221154
aF-0.14476915470953944
asS'accel_x'
p11
F0.22923415442110012
sS'accel_y'
p12
F1.9868194941782817
sS'visionAngle'
p13
I150
sS'maxAccel'
p14
I2
sS'maxVel'
p15
F0.5
sS'age'
p16
I250
sS'tailSize'
p17
F0.067937298730224027
sS'sexualgeno'
p18
(i__main__
Node
p19
(dp20
S'depth'
p21
I1
sS'right'
p22
(i__main__
Node
p23
(dp24
g21
I2
sg22
NsS'parent'
p25
g19
sS'float_size'
p26
S'indiv.getEnergy()'
p27
sS'float_bright'
p28
S'indiv.distanceMatingSeason()'
p29
sS'left'
p30
Nsbsg25
Nsg26
S'/'
sg28
S'+'
sg30
(i__main__
Node
p31
(dp32
g21
I2
sg22
Nsg25
g19
sg26
S'indiv.getNumPreysNeigh()'
p33
sg28
S'indiv.randF()'
p34
sg30
NsbsbsS'tailBrigh'
p35
F0.58483479342849698
sS'maxSteering'
p36
I30
sS'energy'
p37
F1
sS'lastScale'
p38
F15.5
sb.(i__main__
Data_mobile
p1
(dp2
S'vel_y'
p3
F-0.11105389769796428
sS'vel_x'
p4
F0.055470953599418192
sS'pos_x'
p5
F-93.925956318409362
sS'pos_y'
p6
F-52.968227364335725
sS'isAlive'
p7
I01
sS'cumulativeEnergy'
p8
F40.682683709160784
sS'geno'
p9
(lp10
F1.031293474478062
aF-0.03680861936256441
aF0.75663672893619882
aF3.5171953206204769
aF0.96943573838312946
aF0.23503711925497328
asS'accel_x'
p11
F-1.9992991801989173
sS'accel_y'
p12
F-0.052941364318820086
sS'visionAngle'
p13
I150
sS'maxAccel'
p14
I2
sS'maxVel'
p15
F0.5
sS'age'
p16
I50
sS'tailSize'
p17
F6.6257091980725455
sS'sexualgeno'
p18
(i__main__
Node
p19
(dp20
S'depth'
p21
I1
sS'right'
p22
(i__main__
Node
p23
(dp24
g21
I2
sg22
NsS'parent'
p25
g19
sS'float_size'
p26
S'indiv.getEnergy()'
p27
sS'float_bright'
p28
S'indiv.distanceMatingSeason()'
p29
sS'left'
p30
Nsbsg25
Nsg26
S'/'
sg28
S'+'
sg30
(i__main__
Node
p31
(dp32
g21
I2
sg22
Nsg25
g19
sg26
S'indiv.getNumPreysNeigh()'
p33
sg28
S'indiv.randF()'
p34
sg30
NsbsbsS'tailBrigh'
p35
F4.6929516139349516
sS'maxSteering'
p36
I30
sS'energy'
p37
F1
sS'lastScale'
p38
F15.5
sb.(i__main__
Data_mobile
p1
(dp2
S'vel_y'
p3
F-0.1744480657207442
sS'vel_x'
p4
F0.060208435235608967
sS'pos_x'
p5
F-163.02292611072352
sS'pos_y'
p6
F42.186053867412618
sS'isAlive'
p7
I01
sS'cumulativeEnergy'
p8
F39.474077323654924
sS'geno'
p9
(lp10
F0.0024091847294946955
aF0.27827766736430171
aF0.17492763108243736
aF4.2056723989579679
aF-0.47855294594221154
aF-0.14476915470953944
asS'accel_x'
p11
F1.7971330584421383
sS'accel_y'
p12
F-0.8776746380375855
sS'visionAngle'
p13
I150
sS'maxAccel'
p14
I2
sS'maxVel'
p15
F0.5
sS'age'
p16
I50
sS'tailSize'
p17
F6.4980419604456676
sS'sexualgeno'
p18
(i__main__
Node
p19
(dp20
S'depth'
p21
I1
sS'right'
p22
(i__main__
Node
p23
(dp24
g21
I2
sg22
NsS'parent'
p25
g19
sS'float_size'
p26
S'indiv.getEnergy()'
p27
sS'float_bright'
p28
S'indiv.distanceMatingSeason()'
p29
sS'left'
p30
Nsbsg25
Nsg26
S'/'
sg28
S'+'
sg30
(i__main__
Node
p31
(dp32
g21
I2
sg22
Nsg25
g19
sg26
S'indiv.getNumPreysNeigh()'
p33
sg28
S'indiv.randF()'
p34
sg30
NsbsbsS'tailBrigh'
p35
F7.9576963917410657
sS'maxSteering'
p36
I30
sS'energy'
p37
F1
sS'lastScale'
p38
F15.5
sb.(i__main__
Data_mobile
p1
(dp2
S'vel_y'
p3
F-0.0044493725483757702
sS'vel_x'
p4
F0.0022571979153439697
sS'pos_x'
p5
F-95.182414682218464
sS'pos_y'
p6
F-53.45125244796057
sS'isAlive'
p7
I01
sS'cumulativeEnergy'
p8
F35.27692649077386
sS'geno'
p9
(lp10
F1.2198931380659948
aF1.5334773789393261
aF0.4008218856768383
aF3.9299324266843145
aF-0.20143468000204956
aF-0.14476915470953944
asS'accel_x'
p11
F1.9477373629316057
sS'accel_y'
p12
F0.45422369493481296
sS'visionAngle'
p13
I150
sS'maxAccel'
p14
I2
sS'maxVel'
p15
F0.5
sS'age'
p16
I50
sS'tailSize'
p17
F9.9089563976961728
sS'sexualgeno'
p18
(i__main__
Node
p19
(dp20
S'depth'
p21
I1
sS'right'
p22
(i__main__
Node
p23
(dp24
g21
I2
sg22
NsS'parent'
p25
g19
sS'float_size'
p26
S'indiv.getEnergy()'
p27
sS'float_bright'
p28
S'indiv.distanceMatingSeason()'
p29
sS'left'
p30
Nsbsg25
Nsg26
S'/'
sg28
S'+'
sg30
(i__main__
Node
p31
(dp32
g21
I2
sg22
Nsg25
g19
sg26
S'indiv.getNumPreysNeigh()'
p33
sg28
S'indiv.randF()'
p34
sg30
NsbsbsS'tailBrigh'
p35
F9.2367713401768103
sS'maxSteering'
p36
I30
sS'energy'
p37
F1
sS'lastScale'
p38
F15.5
sb.(i__main__
Data_mobile
p1
(dp2
S'vel_y'
p3
F-0.10315859770116652
sS'vel_x'
p4
F0.043765284628554391
sS'pos_x'
p5
F-162.04447394504081
sS'pos_y'
p6
F41.510023658509752
sS'isAlive'
p7
I01
sS'cumulativeEnergy'
p8
F33.960934683023133
sS'geno'
p9
(lp10
F0.0024091847294946955
aF1.992042923606911
aF0.78155796079867002
aF4.2056723989579679
aF-0.47855294594221154
aF0.16282494668000558
asS'accel_x'
p11
F-0.91552785047440688
sS'accel_y'
p12
F1.7781475627758545
sS'visionAngle'
p13
I150
sS'maxAccel'
p14
I2
sS'maxVel'
p15
F0.5
sS'age'
p16
I50
sS'tailSize'
p17
F7.5215494227273734
sS'sexualgeno'
p18
(i__main__
Node
p19
(dp20
S'depth'
p21
I1
sS'right'
p22
(i__main__
Node
p23
(dp24
g21
I2
sg22
NsS'parent'
p25
g19
sS'float_size'
p26
S'indiv.getEnergy()'
p27
sS'float_bright'
p28
S'indiv.distanceMatingSeason()'
p29
sS'left'
p30
Nsbsg25
Nsg26
S'/'
sg28
S'+'
sg30
(i__main__
Node
p31
(dp32
g21
I2
sg22
Nsg25
g19
sg26
S'indiv.getNumPreysNeigh()'
p33
sg28
S'indiv.randF()'
p34
sg30
NsbsbsS'tailBrigh'
p35
F2.1612456874328965
sS'maxSteering'
p36
I30
sS'energy'
p37
F1
sS'lastScale'
p38
F15.5
sb.(i__main__
Data_mobile
p1
(dp2
S'vel_y'
p3
F0.00049174869917480916
sS'vel_x'
p4
F0.00025170443019841801
sS'pos_x'
p5
F-124.62462051249423
sS'pos_y'
p6
F17.359971051069511
sS'isAlive'
p7
I01
sS'cumulativeEnergy'
p8
F32.72181424853612
sS'geno'
p9
(lp10
F0.0024091847294946955
aF0.27827766736430171
aF0.17492763108243736
aF3.5171953206204769
aF0.96943573838312946
aF0.23503711925497328
asS'accel_x'
p11
F1.7448747331292911
sS'accel_y'
p12
F-0.97745187384698673
sS'visionAngle'
p13
I150
sS'maxAccel'
p14
I2
sS'maxVel'
p15
F0.5
sS'age'
p16
I50
sS'tailSize'
p17
F9.9899220784113556
sS'sexualgeno'
p18
(i__main__
Node
p19
(dp20
S'depth'
p21
I1
sS'right'
p22
(i__main__
Node
p23
(dp24
g21
I2
sg22
NsS'parent'
p25
g19
sS'float_size'
p26
S'indiv.getEnergy()'
p27
sS'float_bright'
p28
S'indiv.distanceMatingSeason()'
p29
sS'left'
p30
Nsbsg25
Nsg26
S'/'
sg28
S'+'
sg30
(i__main__
Node
p31
(dp32
g21
I2
sg22
Nsg25
g19
sg26
S'indiv.getNumPreysNeigh()'
p33
sg28
S'indiv.randF()'
p34
sg30
NsbsbsS'tailBrigh'
p35
F9.8194802657575373
sS'maxSteering'
p36
I30
sS'energy'
p37
F1
sS'lastScale'
p38
F15.5
sb.(i__main__
Data_mobile
p1
(dp2
S'vel_y'
p3
F-0.31408597676583233
sS'vel_x'
p4
F0.04433735954860743
sS'pos_x'
p5
F-198.46168654911182
sS'pos_y'
p6
F-39.731391974745627
sS'isAlive'
p7
I01
sS'cumulativeEnergy'
p8
F32.116695542357931
sS'geno'
p9
(lp10
F0.0024091847294946955
aF1.5334773789393261
aF0.72225287126567861
aF3.5171953206204769
aF-0.72936800240327626
aF-0.084401600128852339
asS'accel_x'
p11
F-1.5296289579247409
sS'accel_y'
p12
F-1.2885011645621711
sS'visionAngle'
p13
I150
sS'maxAccel'
p14
I2
sS'maxVel'
p15
F0.5
sS'age'
p16
I150
sS'tailSize'
p17
F1.9075319321911788
sS'sexualgeno'
p18
(i__main__
Node
p19
(dp20
S'depth'
p21
I1
sS'right'
p22
(i__main__
Node
p23
(dp24
g21
I2
sg22
NsS'parent'
p25
g19
sS'float_size'
p26
S'indiv.getEnergy()'
p27
sS'float_bright'
p28
S'indiv.distanceMatingSeason()'
p29
sS'left'
p30
Nsbsg25
Nsg26
S'/'
sg28
S'+'
sg30
(i__main__
Node
p31
(dp32
g21
I2
sg22
Nsg25
g19
sg26
S'indiv.getNumPreysNeigh()'
p33
sg28
S'indiv.randF()'
p34
sg30
NsbsbsS'tailBrigh'
p35
F3.2746318416330702
sS'maxSteering'
p36
I30
sS'energy'
p37
F0.84961501253099259
sS'lastScale'
p38
F13.996150125309928
sb.(i__main__
Data_mobile
p1
(dp2
S'vel_y'
p3
F-0.27499136704528104
sS'vel_x'
p4
F0.046297086293060973
sS'pos_x'
p5
F-198.16241770797384
sS'pos_y'
p6
F-40.363990937567209
sS'isAlive'
p7
I01
sS'cumulativeEnergy'
p8
F21.873508933794032
sS'geno'
p9
(lp10
F1.2198931380659948
aF0.27827766736430171
aF0.65016447578026415
aF3.5171953206204769
aF-0.72936800240327626
aF-0.084401600128852339
asS'accel_x'
p11
F-1.9367490448781475
sS'accel_y'
p12
F0.49900214144188143
sS'visionAngle'
p13
I150
sS'maxAccel'
p14
I2
sS'maxVel'
p15
F0.5
sS'age'
p16
I300
sS'tailSize'
p17
F2.7939927919453913
sS'sexualgeno'
p18
(i__main__
Node
p19
(dp20
S'depth'
p21
I1
sS'right'
p22
(i__main__
Node
p23
(dp24
g21
I2
sg22
NsS'parent'
p25
g19
sS'float_size'
p26
S'indiv.getEnergy()'
p27
sS'float_bright'
p28
S'indiv.distanceMatingSeason()'
p29
sS'left'
p30
Nsbsg25
Nsg26
S'/'
sg28
S'+'
sg30
(i__main__
Node
p31
(dp32
g21
I2
sg22
Nsg25
g19
sg26
S'indiv.getNumPreysNeigh()'
p33
sg28
S'indiv.randF()'
p34
sg30
NsbsbsS'tailBrigh'
p35
F6.6784154077487905
sS'maxSteering'
p36
I30
sS'energy'
p37
F0.44887250816628665
sS'lastScale'
p38
F9.9887250816628672
sb.(i__main__
Data_mobile
p1
(dp2
S'vel_y'
p3
F0.31701559813021224
sS'vel_x'
p4
F0.063091995369684656
sS'pos_x'
p5
F-199.81372388066774
sS'pos_y'
p6
F33.223342066727398
sS'isAlive'
p7
I01
sS'cumulativeEnergy'
p8
F20.382141415334289
sS'geno'
p9
(lp10
F0.0024091847294946955
aF1.992042923606911
aF0.78155796079867002
aF4.2056723989579679
aF-0.80414355951151861
aF-0.084401600128852339
asS'accel_x'
p11
F-0.095833917177278585
sS'accel_y'
p12
F1.44161091976472
sS'visionAngle'
p13
I150
sS'maxAccel'
p14
I2
sS'maxVel'
p15
F0.5
sS'age'
p16
I50
sS'tailSize'
p17
F3.2555610761598617
sS'sexualgeno'
p18
(i__main__
Node
p19
(dp20
S'depth'
p21
I1
sS'right'
p22
(i__main__
Node
p23
(dp24
g21
I2
sg22
NsS'parent'
p25
g19
sS'float_size'
p26
S'indiv.getEnergy()'
p27
sS'float_bright'
p28
S'indiv.distanceMatingSeason()'
p29
sS'left'
p30
Nsbsg25
Nsg26
S'/'
sg28
S'+'
sg30
(i__main__
Node
p31
(dp32
g21
I2
sg22
Nsg25
g19
sg26
S'indiv.getNumPreysNeigh()'
p33
sg28
S'indiv.randF()'
p34
sg30
NsbsbsS'tailBrigh'
p35
F9.5302463862730669
sS'maxSteering'
p36
I30
sS'energy'
p37
F0.84523212159709349
sS'lastScale'
p38
F13.952321215970935
sb.(i__main__
Data_mobile
p1
(dp2
S'vel_y'
p3
F0.26906203276408369
sS'vel_x'
p4
F0.056475545472304961
sS'pos_x'
p5
F6.8122842659456468
sS'pos_y'
p6
F34.796509633796376
sS'isAlive'
p7
I01
sS'cumulativeEnergy'
p8
F16.022793467671391
sS'geno'
p9
(lp10
F1.2198931380659948
aF0.27827766736430171
aF0.17492763108243736
aF4.2056723989579679
aF-0.47855294594221154
aF0.16282494668000558
asS'accel_x'
p11
F-1.9468538617621722
sS'accel_y'
p12
F0.4579956778635762
sS'visionAngle'
p13
I150
sS'maxAccel'
p14
I2
sS'maxVel'
p15
F0.5
sS'age'
p16
I300
sS'tailSize'
p17
F2.986538676722609
sS'sexualgeno'
p18
(i__main__
Node
p19
(dp20
S'depth'
p21
I1
sS'right'
p22
(i__main__
Node
p23
(dp24
g21
I2
sg22
NsS'parent'
p25
g19
sS'float_size'
p26
S'indiv.getEnergy()'
p27
sS'float_bright'
p28
S'indiv.distanceMatingSeason()'
p29
sS'left'
p30
Nsbsg25
Nsg26
S'/'
sg28
S'+'
sg30
(i__main__
Node
p31
(dp32
g21
I2
sg22
Nsg25
g19
sg26
S'indiv.getNumPreysNeigh()'
p33
sg28
S'indiv.randF()'
p34
sg30
NsbsbsS'tailBrigh'
p35
F4.0455505804801746
sS'maxSteering'
p36
I30
sS'energy'
p37
F0.16267361733326757
sS'lastScale'
p38
F7.2281425360370006
sb.(i__main__
Data_mobile
p1
(dp2
S'vel_y'
p3
F-0.015189468182724096
sS'vel_x'
p4
F0.11637747937702815
sS'pos_x'
p5
F-72.234178340755847
sS'pos_y'
p6
F-23.195415329409396
sS'isAlive'
p7
I01
sS'cumulativeEnergy'
p8
F0.5
sS'geno'
p9
(lp10
F1.031293474478062
aF0.27827766736430171
aF0.78155796079867002
aF4.2056723989579679
aF-0.47855294594221154
aF-0.14476915470953944
asS'accel_x'
p11
F0
sS'accel_y'
p12
F0
sS'visionAngle'
p13
I150
sS'maxAccel'
p14
I2
sS'maxVel'
p15
F0.5
sS'age'
p16
I0
sS'tailSize'
p17
F9.3924212726910365
sS'sexualgeno'
p18
(i__main__
Node
p19
(dp20
S'depth'
p21
I1
sS'right'
p22
(i__main__
Node
p23
(dp24
g21
I2
sg22
NsS'parent'
p25
g19
sS'float_size'
p26
S'indiv.getEnergy()'
p27
sS'float_bright'
p28
S'indiv.distanceMatingSeason()'
p29
sS'left'
p30
Nsbsg25
Nsg26
S'/'
sg28
S'+'
sg30
(i__main__
Node
p31
(dp32
g21
I2
sg22
Nsg25
g19
sg26
S'indiv.getNumPreysNeigh()'
p33
sg28
S'indiv.randF()'
p34
sg30
NsbsbsS'tailBrigh'
p35
F5.9493809363158281
sS'maxSteering'
p36
I30
sS'energy'
p37
F0.5
sS'lastScale'
p38
F5.5
sb.(i__main__
Data_mobile
p1
(dp2
S'vel_y'
p3
F0.038885017503029001
sS'vel_x'
p4
F0.78144303927282743
sS'pos_x'
p5
F-169.18196271129312
sS'pos_y'
p6
F40.218239226927849
sS'isAlive'
p7
I01
sS'cumulativeEnergy'
p8
F0.5
sS'geno'
p9
(lp10
F0.0024091847294946955
aF0.27827766736430171
aF0.17492763108243736
aF4.2056723989579679
aF-0.60652918239141806
aF0.16282494668000558
asS'accel_x'
p11
F0
sS'accel_y'
p12
F0
sS'visionAngle'
p13
I150
sS'maxAccel'
p14
I2
sS'maxVel'
p15
F0.5
sS'age'
p16
I0
sS'tailSize'
p17
F7.8144303927282746
sS'sexualgeno'
p18
(i__main__
Node
p19
(dp20
S'depth'
p21
I1
sS'right'
p22
(i__main__
Node
p23
(dp24
g21
I2
sg22
NsS'parent'
p25
g19
sS'float_size'
p26
S'indiv.getEnergy()'
p27
sS'float_bright'
p28
S'indiv.distanceMatingSeason()'
p29
sS'left'
p30
Nsbsg25
Nsg26
S'/'
sg28
S'+'
sg30
(i__main__
Node
p31
(dp32
g21
I2
sg22
Nsg25
g19
sg26
S'indiv.getNumPreysNeigh()'
p33
sg28
S'indiv.randF()'
p34
sg30
NsbsbsS'tailBrigh'
p35
F2.6580912355671815
sS'maxSteering'
p36
I30
sS'energy'
p37
F0.5
sS'lastScale'
p38
F5.5
sb.(i__main__
Data_mobile
p1
(dp2
S'vel_y'
p3
F-0.0092609609234449979
sS'vel_x'
p4
F0.060435057751292369
sS'pos_x'
p5
F-57.331446870006673
sS'pos_y'
p6
F-13.997422784862403
sS'isAlive'
p7
I01
sS'cumulativeEnergy'
p8
F0.5
sS'geno'
p9
(lp10
F1.2198931380659948
aF0.27827766736430171
aF0.88842783821909888
aF3.7152862679140615
aF-0.47855294594221154
aF-0.14476915470953944
asS'accel_x'
p11
F0
sS'accel_y'
p12
F0
sS'visionAngle'
p13
I150
sS'maxAccel'
p14
I2
sS'maxVel'
p15
F0.5
sS'age'
p16
I0
sS'tailSize'
p17
F9.6295615630622002
sS'sexualgeno'
p18
(i__main__
Node
p19
(dp20
S'depth'
p21
I1
sS'right'
p22
(i__main__
Node
p23
(dp24
g21
I2
sg22
NsS'parent'
p25
g19
sS'float_size'
p26
S'indiv.getEnergy()'
p27
sS'float_bright'
p28
S'indiv.distanceMatingSeason()'
p29
sS'left'
p30
Nsbsg25
Nsg26
S'/'
sg28
S'+'
sg30
(i__main__
Node
p31
(dp32
g21
I2
sg22
Nsg25
g19
sg26
S'indiv.getNumPreysNeigh()'
p33
sg28
S'indiv.randF()'
p34
sg30
NsbsbsS'tailBrigh'
p35
F0.096726233841741838
sS'maxSteering'
p36
I30
sS'energy'
p37
F0.5
sS'lastScale'
p38
F5.5
sb.(i__main__
Data_mobile
p1
(dp2
S'vel_y'
p3
F0.044990999570135269
sS'vel_x'
p4
F0.44135486172429816
sS'pos_x'
p5
F-54.593077736721128
sS'pos_y'
p6
F-36.574024424399219
sS'isAlive'
p7
I01
sS'cumulativeEnergy'
p8
F0.5
sS'geno'
p9
(lp10
F0.82570092217418212
aF1.992042923606911
aF0.75663672893619882
aF3.5171953206204769
aF0.96943573838312946
aF0.23503711925497328
asS'accel_x'
p11
F0
sS'accel_y'
p12
F0
sS'visionAngle'
p13
I150
sS'maxAccel'
p14
I2
sS'maxVel'
p15
F0.5
sS'age'
p16
I0
sS'tailSize'
p17
F8.2003600171945887
sS'sexualgeno'
p18
(i__main__
Node
p19
(dp20
S'depth'
p21
I1
sS'right'
p22
(i__main__
Node
p23
(dp24
g21
I2
sg22
NsS'parent'
p25
g19
sS'float_size'
p26
S'indiv.getEnergy()'
p27
sS'float_bright'
p28
S'indiv.distanceMatingSeason()'
p29
sS'left'
p30
Nsbsg25
Nsg26
S'/'
sg28
S'+'
sg30
(i__main__
Node
p31
(dp32
g21
I2
sg22
Nsg25
g19
sg26
S'indiv.getNumPreysNeigh()'
p33
sg28
S'indiv.randF()'
p34
sg30
NsbsbsS'tailBrigh'
p35
F1.636036034025351
sS'maxSteering'
p36
I30
sS'energy'
p37
F0.5
sS'lastScale'
p38
F5.5
sb.(i__main__
Data_mobile
p1
(dp2
S'vel_y'
p3
F-0.15196086194183375
sS'vel_x'
p4
F0.34578379709950058
sS'pos_x'
p5
F-122.17586057137575
sS'pos_y'
p6
F15.436706539551993
sS'isAlive'
p7
I01
sS'cumulativeEnergy'
p8
F0.5
sS'geno'
p9
(lp10
F1.2198931380659948
aF0.27827766736430171
aF0.78155796079867002
aF4.2056723989579679
aF-0.47855294594221154
aF-0.14476915470953944
asS'accel_x'
p11
F0
sS'accel_y'
p12
F0
sS'visionAngle'
p13
I150
sS'maxAccel'
p14
I2
sS'maxVel'
p15
F0.5
sS'age'
p16
I0
sS'tailSize'
p17
F3.4578379709950058
sS'sexualgeno'
p18
(i__main__
Node
p19
(dp20
S'depth'
p21
I1
sS'right'
p22
(i__main__
Node
p23
(dp24
g21
I2
sg22
NsS'parent'
p25
g19
sS'float_size'
p26
S'indiv.getEnergy()'
p27
sS'float_bright'
p28
S'indiv.distanceMatingSeason()'
p29
sS'left'
p30
Nsbsg25
Nsg26
S'/'
sg28
S'+'
sg30
(i__main__
Node
p31
(dp32
g21
I2
sg22
Nsg25
g19
sg26
S'indiv.getNumPreysNeigh()'
p33
sg28
S'indiv.randF()'
p34
sg30
NsbsbsS'tailBrigh'
p35
F9.4504695701555477
sS'maxSteering'
p36
I30
sS'energy'
p37
F0.5
sS'lastScale'
p38
F5.5
sb.(i__main__
Data_mobile
p1
(dp2
S'vel_y'
p3
F0.032602598684240792
sS'vel_x'
p4
F0.40855473580437751
sS'pos_x'
p5
F-142.67829422446849
sS'pos_y'
p6
F-10.578436137568481
sS'isAlive'
p7
I01
sS'cumulativeEnergy'
p8
F0.5
sS'geno'
p9
(lp10
F0.0024091847294946955
aF0.27827766736430171
aF0.17492763108243736
aF4.2056723989579679
aF-0.47855294594221154
aF0.16282494668000558
asS'accel_x'
p11
F0
sS'accel_y'
p12
F0
sS'visionAngle'
p13
I150
sS'maxAccel'
p14
I2
sS'maxVel'
p15
F0.5
sS'age'
p16
I0
sS'tailSize'
p17
F4.0855473580437751
sS'sexualgeno'
p18
(i__main__
Node
p19
(dp20
S'depth'
p21
I1
sS'right'
p22
(i__main__
Node
p23
(dp24
g21
I2
sg22
NsS'parent'
p25
g19
sS'float_size'
p26
S'indiv.getEnergy()'
p27
sS'float_bright'
p28
S'indiv.distanceMatingSeason()'
p29
sS'left'
p30
Nsbsg25
Nsg26
S'/'
sg28
S'+'
sg30
(i__main__
Node
p31
(dp32
g21
I2
sg22
Nsg25
g19
sg26
S'indiv.getNumPreysNeigh()'
p33
sg28
S'indiv.randF()'
p34
sg30
NsbsbsS'tailBrigh'
p35
F3.7794407827527743
sS'maxSteering'
p36
I30
sS'energy'
p37
F0.5
sS'lastScale'
p38
F5.5
sb.(i__main__
Data_mobile
p1
(dp2
S'vel_y'
p3
F0.039766727535391143
sS'vel_x'
p4
F0.77498194143754828
sS'pos_x'
p5
F-182.39780395118476
sS'pos_y'
p6
F36.89365535234252
sS'isAlive'
p7
I01
sS'cumulativeEnergy'
p8
F0.5
sS'geno'
p9
(lp10
F0.0024091847294946955
aF1.992042923606911
aF0.78155796079867002
aF4.2056723989579679
aF-0.47855294594221154
aF-0.14476915470953944
asS'accel_x'
p11
F0
sS'accel_y'
p12
F0
sS'visionAngle'
p13
I150
sS'maxAccel'
p14
I2
sS'maxVel'
p15
F0.5
sS'age'
p16
I0
sS'tailSize'
p17
F8.4093308985843542
sS'sexualgeno'
p18
(i__main__
Node
p19
(dp20
S'depth'
p21
I1
sS'right'
p22
(i__main__
Node
p23
(dp24
g21
I2
sg22
NsS'parent'
p25
g19
sS'float_size'
p26
S'indiv.getEnergy()'
p27
sS'float_bright'
p28
S'indiv.distanceMatingSeason()'
p29
sS'left'
p30
Nsbsg25
Nsg26
S'/'
sg28
S'+'
sg30
(i__main__
Node
p31
(dp32
g21
I2
sg22
Nsg25
g19
sg26
S'indiv.getNumPreysNeigh()'
p33
sg28
S'indiv.randF()'
p34
sg30
NsbsbsS'tailBrigh'
p35
F0.30041675560187775
sS'maxSteering'
p36
I30
sS'energy'
p37
F0.5
sS'lastScale'
p38
F5.5
sb.(i__main__
Data_mobile
p1
(dp2
S'vel_y'
p3
F-0.14644047695383788
sS'vel_x'
p4
F0.021932118007233381
sS'pos_x'
p5
F-91.534757505842919
sS'pos_y'
p6
F1.5281192181037966
sS'isAlive'
p7
I01
sS'cumulativeEnergy'
p8
F0.5
sS'geno'
p9
(lp10
F0.82570092217418212
aF1.992042923606911
aF0.88842783821909888
aF3.9299324266843145
aF-0.47855294594221154
aF-0.14476915470953944
asS'accel_x'
p11
F0
sS'accel_y'
p12
F0
sS'visionAngle'
p13
I150
sS'maxAccel'
p14
I2
sS'maxVel'
p15
F0.5
sS'age'
p16
I0
sS'tailSize'
p17
F0.21932118007233381
sS'sexualgeno'
p18
(i__main__
Node
p19
(dp20
S'depth'
p21
I1
sS'right'
p22
(i__main__
Node
p23
(dp24
g21
I2
sg22
NsS'parent'
p25
g19
sS'float_size'
p26
S'indiv.getEnergy()'
p27
sS'float_bright'
p28
S'indiv.distanceMatingSeason()'
p29
sS'left'
p30
Nsbsg25
Nsg26
S'/'
sg28
S'+'
sg30
(i__main__
Node
p31
(dp32
g21
I2
sg22
Nsg25
g19
sg26
S'indiv.getNumPreysNeigh()'
p33
sg28
S'indiv.randF()'
p34
sg30
NsbsbsS'tailBrigh'
p35
F1.1569916668577196
sS'maxSteering'
p36
I30
sS'energy'
p37
F0.5
sS'lastScale'
p38
F5.5
sb.(i__main__
Data_mobile
p1
(dp2
S'vel_y'
p3
F-0.1533511383596142
sS'vel_x'
p4
F0.092355082501857644
sS'pos_x'
p5
F-112.62861041685264
sS'pos_y'
p6
F11.103025660965601
sS'isAlive'
p7
I01
sS'cumulativeEnergy'
p8
F0.5
sS'geno'
p9
(lp10
F0.82570092217418212
aF2.0640474245390514
aF0.78155796079867002
aF4.2056723989579679
aF-0.47855294594221154
aF-0.14476915470953944
asS'accel_x'
p11
F0
sS'accel_y'
p12
F0
sS'visionAngle'
p13
I150
sS'maxAccel'
p14
I2
sS'maxVel'
p15
F0.5
sS'age'
p16
I0
sS'tailSize'
p17
F0.92355082501857644
sS'sexualgeno'
p18
(i__main__
Node
p19
(dp20
S'depth'
p21
I1
sS'right'
p22
(i__main__
Node
p23
(dp24
g21
I2
sg22
NsS'parent'
p25
g19
sS'float_size'
p26
S'indiv.getEnergy()'
p27
sS'float_bright'
p28
S'indiv.distanceMatingSeason()'
p29
sS'left'
p30
Nsbsg25
Nsg26
S'/'
sg28
S'+'
sg30
(i__main__
Node
p31
(dp32
g21
I2
sg22
Nsg25
g19
sg26
S'indiv.getNumPreysNeigh()'
p33
sg28
S'indiv.randF()'
p34
sg30
NsbsbsS'tailBrigh'
p35
F5.040488632339617
sS'maxSteering'
p36
I30
sS'energy'
p37
F0.5
sS'lastScale'
p38
F5.5
sb.(i__main__
Data_mobile
p1
(dp2
S'vel_y'
p3
F0.021927232960992884
sS'vel_x'
p4
F0.53676630267143433
sS'pos_x'
p5
F-136.93987575215195
sS'pos_y'
p6
F-25.705072116669236
sS'isAlive'
p7
I01
sS'cumulativeEnergy'
p8
F0.5
sS'geno'
p9
(lp10
F1.2198931380659948
aF1.5334773789393261
aF0.4008218856768383
aF3.9299324266843145
aF-0.47855294594221154
aF-0.14476915470953944
asS'accel_x'
p11
F0
sS'accel_y'
p12
F0
sS'visionAngle'
p13
I150
sS'maxAccel'
p14
I2
sS'maxVel'
p15
F0.5
sS'age'
p16
I0
sS'tailSize'
p17
F9.1229106815602847
sS'sexualgeno'
p18
(i__main__
Node
p19
(dp20
S'depth'
p21
I1
sS'right'
p22
(i__main__
Node
p23
(dp24
g21
I2
sg22
NsS'parent'
p25
g19
sS'float_size'
p26
S'indiv.getEnergy()'
p27
sS'float_bright'
p28
S'indiv.distanceMatingSeason()'
p29
sS'left'
p30
Nsbsg25
Nsg26
S'/'
sg28
S'+'
sg30
(i__main__
Node
p31
(dp32
g21
I2
sg22
Nsg25
g19
sg26
S'indiv.getNumPreysNeigh()'
p33
sg28
S'indiv.randF()'
p34
sg30
NsbsbsS'tailBrigh'
p35
F4.3603824261533575
sS'maxSteering'
p36
I30
sS'energy'
p37
F0.5
sS'lastScale'
p38
F5.5
sb.(i__main__
Data_mobile
p1
(dp2
S'vel_y'
p3
I0
sS'vel_x'
p4
F0.71845978052380666
sS'pos_x'
p5
I-9579
sS'pos_y'
p6
I9779
sS'isAlive'
p7
I00
sS'cumulativeEnergy'
p8
F0.5
sS'geno'
p9
(lp10
F1.2198931380659948
aF0.27827766736430171
aF0.46647404048328922
aF3.8097335090518509
aF-0.53875151439247582
aF-0.14476915470953944
asS'accel_x'
p11
F0
sS'accel_y'
p12
F0
sS'visionAngle'
p13
I150
sS'maxAccel'
p14
I2
sS'maxVel'
p15
F0.5
sS'age'
p16
I0
sS'tailSize'
p17
F7.1845978052380666
sS'sexualgeno'
p18
(i__main__
Node
p19
(dp20
S'depth'
p21
I1
sS'right'
p22
(i__main__
Node
p23
(dp24
g21
I2
sg22
NsS'parent'
p25
g19
sS'float_size'
p26
S'indiv.getEnergy()'
p27
sS'float_bright'
p28
S'indiv.distanceMatingSeason()'
p29
sS'left'
p30
Nsbsg25
Nsg26
S'/'
sg28
S'+'
sg30
(i__main__
Node
p31
(dp32
g21
I2
sg22
Nsg25
g19
sg26
S'indiv.getNumPreysNeigh()'
p33
sg28
S'indiv.randF()'
p34
sg30
NsbsbsS'tailBrigh'
p35
F8.6421239752409384
sS'maxSteering'
p36
I30
sS'energy'
p37
F0.5
sS'lastScale'
p38
F5.5
sb.(i__main__
Data_mobile
p1
(dp2
S'vel_y'
p3
I0
sS'vel_x'
p4
F0.36201010388530808
sS'pos_x'
p5
I-9579
sS'pos_y'
p6
I9779
sS'isAlive'
p7
I00
sS'cumulativeEnergy'
p8
F0.5
sS'geno'
p9
(lp10
F1.2198931380659948
aF0.46011321157608653
aF0.65016447578026415
aF3.5171953206204769
aF-0.72936800240327626
aF-0.084401600128852339
asS'accel_x'
p11
F0
sS'accel_y'
p12
F0
sS'visionAngle'
p13
I150
sS'maxAccel'
p14
I2
sS'maxVel'
p15
F0.5
sS'age'
p16
I0
sS'tailSize'
p17
F3.6201010388530808
sS'sexualgeno'
p18
(i__main__
Node
p19
(dp20
S'depth'
p21
I1
sS'right'
p22
(i__main__
Node
p23
(dp24
g21
I2
sg22
NsS'parent'
p25
g19
sS'float_size'
p26
S'indiv.getEnergy()'
p27
sS'float_bright'
p28
S'indiv.distanceMatingSeason()'
p29
sS'left'
p30
Nsbsg25
Nsg26
S'/'
sg28
S'+'
sg30
(i__main__
Node
p31
(dp32
g21
I2
sg22
Nsg25
g19
sg26
S'indiv.getNumPreysNeigh()'
p33
sg28
S'indiv.randF()'
p34
sg30
NsbsbsS'tailBrigh'
p35
F6.856898879534552
sS'maxSteering'
p36
I30
sS'energy'
p37
F0.5
sS'lastScale'
p38
F5.5
sb.(i__main__
Data_mobile
p1
(dp2
S'vel_y'
p3
I0
sS'vel_x'
p4
F0.38490344150096634
sS'pos_x'
p5
I-9579
sS'pos_y'
p6
I9779
sS'isAlive'
p7
I00
sS'cumulativeEnergy'
p8
F0.5
sS'geno'
p9
(lp10
F0.0024091847294946955
aF1.5334773789393261
aF0.72225287126567861
aF3.5171953206204769
aF-0.72936800240327626
aF-0.084401600128852339
asS'accel_x'
p11
F0
sS'accel_y'
p12
F0
sS'visionAngle'
p13
I150
sS'maxAccel'
p14
I2
sS'maxVel'
p15
F0.5
sS'age'
p16
I0
sS'tailSize'
p17
F3.8490344150096636
sS'sexualgeno'
p18
(i__main__
Node
p19
(dp20
S'depth'
p21
I1
sS'right'
p22
(i__main__
Node
p23
(dp24
g21
I2
sg22
NsS'parent'
p25
g19
sS'float_size'
p26
S'indiv.getEnergy()'
p27
sS'float_bright'
p28
S'indiv.distanceMatingSeason()'
p29
sS'left'
p30
Nsbsg25
Nsg26
S'/'
sg28
S'+'
sg30
(i__main__
Node
p31
(dp32
g21
I2
sg22
Nsg25
g19
sg26
S'indiv.getNumPreysNeigh()'
p33
sg28
S'indiv.randF()'
p34
sg30
NsbsbsS'tailBrigh'
p35
F6.4473210918473223
sS'maxSteering'
p36
I30
sS'energy'
p37
F0.5
sS'lastScale'
p38
F5.5
sb.(i__main__
Data_mobile
p1
(dp2
S'vel_y'
p3
I0
sS'vel_x'
p4
F0.39514412965474444
sS'pos_x'
p5
I-9579
sS'pos_y'
p6
I9779
sS'isAlive'
p7
I00
sS'cumulativeEnergy'
p8
F0.5
sS'geno'
p9
(lp10
F1.2198931380659948
aF-0.079188725038731977
aF0.65016447578026415
aF2.7070363199983181
aF0.96943573838312946
aF-0.057742531036134026
asS'accel_x'
p11
F0
sS'accel_y'
p12
F0
sS'visionAngle'
p13
I150
sS'maxAccel'
p14
I2
sS'maxVel'
p15
F0.5
sS'age'
p16
I0
sS'tailSize'
p17
F3.9514412965474444
sS'sexualgeno'
p18
(i__main__
Node
p19
(dp20
S'depth'
p21
I1
sS'right'
p22
(i__main__
Node
p23
(dp24
g21
I2
sg22
NsS'parent'
p25
g19
sS'float_size'
p26
S'indiv.getEnergy()'
p27
sS'float_bright'
p28
S'indiv.distanceMatingSeason()'
p29
sS'left'
p30
Nsbsg25
Nsg26
S'/'
sg28
S'+'
sg30
(i__main__
Node
p31
(dp32
g21
I2
sg22
Nsg25
g19
sg26
S'indiv.getNumPreysNeigh()'
p33
sg28
S'indiv.randF()'
p34
sg30
NsbsbsS'tailBrigh'
p35
F2.1722350768618757
sS'maxSteering'
p36
I30
sS'energy'
p37
F0.5
sS'lastScale'
p38
F5.5
sb.(i__main__
Data_mobile
p1
(dp2
S'vel_y'
p3
I0
sS'vel_x'
p4
F0.29477498524128409
sS'pos_x'
p5
I-9579
sS'pos_y'
p6
I9779
sS'isAlive'
p7
I00
sS'cumulativeEnergy'
p8
F0.5
sS'geno'
p9
(lp10
F1.031293474478062
aF0.27827766736430171
aF0.75745022362756298
aF4.2056723989579679
aF-0.47855294594221154
aF0.16282494668000558
asS'accel_x'
p11
F0
sS'accel_y'
p12
F0
sS'visionAngle'
p13
I150
sS'maxAccel'
p14
I2
sS'maxVel'
p15
F0.5
sS'age'
p16
I0
sS'tailSize'
p17
F2.9477498524128407
sS'sexualgeno'
p18
(i__main__
Node
p19
(dp20
S'depth'
p21
I1
sS'right'
p22
(i__main__
Node
p23
(dp24
g21
I2
sg22
NsS'parent'
p25
g19
sS'float_size'
p26
S'indiv.getEnergy()'
p27
sS'float_bright'
p28
S'indiv.distanceMatingSeason()'
p29
sS'left'
p30
Nsbsg25
Nsg26
S'/'
sg28
S'+'
sg30
(i__main__
Node
p31
(dp32
g21
I2
sg22
Nsg25
g19
sg26
S'indiv.getNumPreysNeigh()'
p33
sg28
S'indiv.randF()'
p34
sg30
NsbsbsS'tailBrigh'
p35
F5.6606303678813141
sS'maxSteering'
p36
I30
sS'energy'
p37
F0.5
sS'lastScale'
p38
F5.5
sb.(i__main__
Data_mobile
p1
(dp2
S'vel_y'
p3
I0
sS'vel_x'
p4
F0.55149703547640017
sS'pos_x'
p5
I-9579
sS'pos_y'
p6
I9779
sS'isAlive'
p7
I00
sS'cumulativeEnergy'
p8
F0.5
sS'geno'
p9
(lp10
F1.031293474478062
aF0.73066784852370548
aF0.65016447578026415
aF3.0907601212763924
aF0.96943573838312946
aF-0.057742531036134026
asS'accel_x'
p11
F0
sS'accel_y'
p12
F0
sS'visionAngle'
p13
I150
sS'maxAccel'
p14
I2
sS'maxVel'
p15
F0.5
sS'age'
p16
I0
sS'tailSize'
p17
F5.5149703547640012
sS'sexualgeno'
p18
(i__main__
Node
p19
(dp20
S'depth'
p21
I1
sS'right'
p22
(i__main__
Node
p23
(dp24
g21
I2
sg22
NsS'parent'
p25
g19
sS'float_size'
p26
S'indiv.getEnergy()'
p27
sS'float_bright'
p28
S'indiv.distanceMatingSeason()'
p29
sS'left'
p30
Nsbsg25
Nsg26
S'/'
sg28
S'+'
sg30
(i__main__
Node
p31
(dp32
g21
I2
sg22
Nsg25
g19
sg26
S'indiv.getNumPreysNeigh()'
p33
sg28
S'indiv.randF()'
p34
sg30
NsbsbsS'tailBrigh'
p35
F0.014077417422305727
sS'maxSteering'
p36
I30
sS'energy'
p37
F0.5
sS'lastScale'
p38
F5.5
sb.(i__main__
Data_mobile
p1
(dp2
S'vel_y'
p3
I0
sS'vel_x'
p4
F0.10911071231684011
sS'pos_x'
p5
I-9579
sS'pos_y'
p6
I9779
sS'isAlive'
p7
I00
sS'cumulativeEnergy'
p8
F0.5
sS'geno'
p9
(lp10
F1.031293474478062
aF0.27827766736430171
aF0.65016447578026415
aF3.5171953206204769
aF0.96943573838312946
aF-0.057742531036134026
asS'accel_x'
p11
F0
sS'accel_y'
p12
F0
sS'visionAngle'
p13
I150
sS'maxAccel'
p14
I2
sS'maxVel'
p15
F0.5
sS'age'
p16
I0
sS'tailSize'
p17
F1.0911071231684011
sS'sexualgeno'
p18
(i__main__
Node
p19
(dp20
S'depth'
p21
I1
sS'right'
p22
(i__main__
Node
p23
(dp24
g21
I2
sg22
NsS'parent'
p25
g19
sS'float_size'
p26
S'indiv.getEnergy()'
p27
sS'float_bright'
p28
S'indiv.distanceMatingSeason()'
p29
sS'left'
p30
Nsbsg25
Nsg26
S'/'
sg28
S'+'
sg30
(i__main__
Node
p31
(dp32
g21
I2
sg22
Nsg25
g19
sg26
S'indiv.getNumPreysNeigh()'
p33
sg28
S'indiv.randF()'
p34
sg30
NsbsbsS'tailBrigh'
p35
F0.61908937139345421
sS'maxSteering'
p36
I30
sS'energy'
p37
F0.5
sS'lastScale'
p38
F5.5
sb.(i__main__
Data_mobile
p1
(dp2
S'vel_y'
p3
I0
sS'vel_x'
p4
F0.5155852477729358
sS'pos_x'
p5
I-9579
sS'pos_y'
p6
I9779
sS'isAlive'
p7
I00
sS'cumulativeEnergy'
p8
F0.5
sS'geno'
p9
(lp10
F1.2198931380659948
aF0.27827766736430171
aF0.91350214729320023
aF4.0104645957899159
aF-0.47855294594221154
aF-0.14476915470953944
asS'accel_x'
p11
F0
sS'accel_y'
p12
F0
sS'visionAngle'
p13
I150
sS'maxAccel'
p14
I2
sS'maxVel'
p15
F0.5
sS'age'
p16
I0
sS'tailSize'
p17
F5.1558524777293577
sS'sexualgeno'
p18
(i__main__
Node
p19
(dp20
S'depth'
p21
I1
sS'right'
p22
(i__main__
Node
p23
(dp24
g21
I2
sg22
NsS'parent'
p25
g19
sS'float_size'
p26
S'indiv.getEnergy()'
p27
sS'float_bright'
p28
S'indiv.distanceMatingSeason()'
p29
sS'left'
p30
Nsbsg25
Nsg26
S'/'
sg28
S'+'
sg30
(i__main__
Node
p31
(dp32
g21
I2
sg22
Nsg25
g19
sg26
S'indiv.getNumPreysNeigh()'
p33
sg28
S'indiv.randF()'
p34
sg30
NsbsbsS'tailBrigh'
p35
F9.4340830850947484
sS'maxSteering'
p36
I30
sS'energy'
p37
F0.5
sS'lastScale'
p38
F5.5
sb.(i__main__
Data_mobile
p1
(dp2
S'vel_y'
p3
I0
sS'vel_x'
p4
F0.10275124140207836
sS'pos_x'
p5
I-9579
sS'pos_y'
p6
I9779
sS'isAlive'
p7
I00
sS'cumulativeEnergy'
p8
F0.5
sS'geno'
p9
(lp10
F1.2198931380659948
aF0.27827766736430171
aF0.078189440943238431
aF4.2056723989579679
aF-0.47855294594221154
aF-0.14476915470953944
asS'accel_x'
p11
F0
sS'accel_y'
p12
F0
sS'visionAngle'
p13
I150
sS'maxAccel'
p14
I2
sS'maxVel'
p15
F0.5
sS'age'
p16
I0
sS'tailSize'
p17
F1.0275124140207836
sS'sexualgeno'
p18
(i__main__
Node
p19
(dp20
S'depth'
p21
I1
sS'right'
p22
(i__main__
Node
p23
(dp24
g21
I2
sg22
NsS'parent'
p25
g19
sS'float_size'
p26
S'indiv.getEnergy()'
p27
sS'float_bright'
p28
S'indiv.distanceMatingSeason()'
p29
sS'left'
p30
Nsbsg25
Nsg26
S'/'
sg28
S'+'
sg30
(i__main__
Node
p31
(dp32
g21
I2
sg22
Nsg25
g19
sg26
S'indiv.getNumPreysNeigh()'
p33
sg28
S'indiv.randF()'
p34
sg30
NsbsbsS'tailBrigh'
p35
F7.6870802228182722
sS'maxSteering'
p36
I30
sS'energy'
p37
F0.5
sS'lastScale'
p38
F5.5
sb.(i__main__
Data_mobile
p1
(dp2
S'vel_y'
p3
I0
sS'vel_x'
p4
F0.092437223902982812
sS'pos_x'
p5
I-9579
sS'pos_y'
p6
I9779
sS'isAlive'
p7
I00
sS'cumulativeEnergy'
p8
F0.5
sS'geno'
p9
(lp10
F1.031293474478062
aF0.73066784852370548
aF0.65016447578026415
aF3.0907601212763924
aF0.96943573838312946
aF-0.057742531036134026
asS'accel_x'
p11
F0
sS'accel_y'
p12
F0
sS'visionAngle'
p13
I150
sS'maxAccel'
p14
I2
sS'maxVel'
p15
F0.5
sS'age'
p16
I0
sS'tailSize'
p17
F0.92437223902982812
sS'sexualgeno'
p18
(i__main__
Node
p19
(dp20
S'depth'
p21
I1
sS'right'
p22
(i__main__
Node
p23
(dp24
g21
I2
sg22
NsS'parent'
p25
g19
sS'float_size'
p26
S'indiv.getEnergy()'
p27
sS'float_bright'
p28
S'indiv.distanceMatingSeason()'
p29
sS'left'
p30
Nsbsg25
Nsg26
S'/'
sg28
S'+'
sg30
(i__main__
Node
p31
(dp32
g21
I2
sg22
Nsg25
g19
sg26
S'indiv.getNumPreysNeigh()'
p33
sg28
S'indiv.randF()'
p34
sg30
NsbsbsS'tailBrigh'
p35
F5.5291369637410392
sS'maxSteering'
p36
I30
sS'energy'
p37
F0.5
sS'lastScale'
p38
F5.5
sb.(i__main__
Data_mobile
p1
(dp2
S'vel_y'
p3
I0
sS'vel_x'
p4
F0.91759184597371635
sS'pos_x'
p5
I-9579
sS'pos_y'
p6
I9779
sS'isAlive'
p7
I00
sS'cumulativeEnergy'
p8
F0.5
sS'geno'
p9
(lp10
F1.2198931380659948
aF-0.079188725038731977
aF0.65016447578026415
aF4.2056723989579679
aF0.96943573838312946
aF-0.057742531036134026
asS'accel_x'
p11
F0
sS'accel_y'
p12
F0
sS'visionAngle'
p13
I150
sS'maxAccel'
p14
I2
sS'maxVel'
p15
F0.5
sS'age'
p16
I0
sS'tailSize'
p17
F9.1759184597371632
sS'sexualgeno'
p18
(i__main__
Node
p19
(dp20
S'depth'
p21
I1
sS'right'
p22
(i__main__
Node
p23
(dp24
g21
I2
sg22
NsS'parent'
p25
g19
sS'float_size'
p26
S'indiv.getEnergy()'
p27
sS'float_bright'
p28
S'indiv.distanceMatingSeason()'
p29
sS'left'
p30
Nsbsg25
Nsg26
S'/'
sg28
S'+'
sg30
(i__main__
Node
p31
(dp32
g21
I2
sg22
Nsg25
g19
sg26
S'indiv.getNumPreysNeigh()'
p33
sg28
S'indiv.randF()'
p34
sg30
NsbsbsS'tailBrigh'
p35
F5.739760297204378
sS'maxSteering'
p36
I30
sS'energy'
p37
F0.5
sS'lastScale'
p38
F5.5
sb.(i__main__
Data_mobile
p1
(dp2
S'vel_y'
p3
I0
sS'vel_x'
p4
F0.87420783805585178
sS'pos_x'
p5
I-9579
sS'pos_y'
p6
I9779
sS'isAlive'
p7
I00
sS'cumulativeEnergy'
p8
F0.5
sS'geno'
p9
(lp10
F0.0024091847294946955
aF2.2945236713308512
aF0.17492763108243736
aF4.2056723989579679
aF-0.47855294594221154
aF0.16282494668000558
asS'accel_x'
p11
F0
sS'accel_y'
p12
F0
sS'visionAngle'
p13
I150
sS'maxAccel'
p14
I2
sS'maxVel'
p15
F0.5
sS'age'
p16
I0
sS'tailSize'
p17
F8.7420783805585174
sS'sexualgeno'
p18
(i__main__
Node
p19
(dp20
S'depth'
p21
I1
sS'right'
p22
(i__main__
Node
p23
(dp24
g21
I2
sg22
NsS'parent'
p25
g19
sS'float_size'
p26
S'indiv.getEnergy()'
p27
sS'float_bright'
p28
S'indiv.distanceMatingSeason()'
p29
sS'left'
p30
Nsbsg25
Nsg26
S'/'
sg28
S'+'
sg30
(i__main__
Node
p31
(dp32
g21
I2
sg22
Nsg25
g19
sg26
S'indiv.getNumPreysNeigh()'
p33
sg28
S'indiv.randF()'
p34
sg30
NsbsbsS'tailBrigh'
p35
F8.2568306798002329
sS'maxSteering'
p36
I30
sS'energy'
p37
F0.5
sS'lastScale'
p38
F5.5
sb.(i__main__
Data_mobile
p1
(dp2
S'vel_y'
p3
I0
sS'vel_x'
p4
F0.42723891858508461
sS'pos_x'
p5
I-9579
sS'pos_y'
p6
I9779
sS'isAlive'
p7
I00
sS'cumulativeEnergy'
p8
F0.5
sS'geno'
p9
(lp10
F1.2198931380659948
aF0.13270559439234775
aF0.65016447578026415
aF4.2056723989579679
aF-0.47855294594221154
aF0.20231169513714387
asS'accel_x'
p11
F0
sS'accel_y'
p12
F0
sS'visionAngle'
p13
I150
sS'maxAccel'
p14
I2
sS'maxVel'
p15
F0.5
sS'age'
p16
I0
sS'tailSize'
p17
F4.2723891858508463
sS'sexualgeno'
p18
(i__main__
Node
p19
(dp20
S'depth'
p21
I1
sS'right'
p22
(i__main__
Node
p23
(dp24
g21
I2
sg22
NsS'parent'
p25
g19
sS'float_size'
p26
S'indiv.getEnergy()'
p27
sS'float_bright'
p28
S'indiv.distanceMatingSeason()'
p29
sS'left'
p30
Nsbsg25
Nsg26
S'/'
sg28
S'+'
sg30
(i__main__
Node
p31
(dp32
g21
I2
sg22
Nsg25
g19
sg26
S'indiv.getNumPreysNeigh()'
p33
sg28
S'indiv.randF()'
p34
sg30
NsbsbsS'tailBrigh'
p35
F9.4363844511069566
sS'maxSteering'
p36
I30
sS'energy'
p37
F0.5
sS'lastScale'
p38
F5.5
sb.(i__main__
Data_mobile
p1
(dp2
S'vel_y'
p3
I0
sS'vel_x'
p4
F0.22382250470877785
sS'pos_x'
p5
I-9579
sS'pos_y'
p6
I9779
sS'isAlive'
p7
I00
sS'cumulativeEnergy'
p8
F0.5
sS'geno'
p9
(lp10
F0.0024091847294946955
aF1.992042923606911
aF0.46647404048328922
aF3.901020780874509
aF-0.47855294594221154
aF0.20231169513714387
asS'accel_x'
p11
F0
sS'accel_y'
p12
F0
sS'visionAngle'
p13
I150
sS'maxAccel'
p14
I2
sS'maxVel'
p15
F0.5
sS'age'
p16
I0
sS'tailSize'
p17
F2.2382250470877785
sS'sexualgeno'
p18
(i__main__
Node
p19
(dp20
S'depth'
p21
I1
sS'right'
p22
(i__main__
Node
p23
(dp24
g21
I2
sg22
NsS'parent'
p25
g19
sS'float_size'
p26
S'indiv.getEnergy()'
p27
sS'float_bright'
p28
S'indiv.distanceMatingSeason()'
p29
sS'left'
p30
Nsbsg25
Nsg26
S'/'
sg28
S'+'
sg30
(i__main__
Node
p31
(dp32
g21
I2
sg22
Nsg25
g19
sg26
S'indiv.getNumPreysNeigh()'
p33
sg28
S'indiv.randF()'
p34
sg30
NsbsbsS'tailBrigh'
p35
F9.5919550745245878
sS'maxSteering'
p36
I30
sS'energy'
p37
F0.5
sS'lastScale'
p38
F5.5
sb.(i__main__
Data_mobile
p1
(dp2
S'vel_y'
p3
I0
sS'vel_x'
p4
F0.124179198140136
sS'pos_x'
p5
I-9579
sS'pos_y'
p6
I9779
sS'isAlive'
p7
I00
sS'cumulativeEnergy'
p8
F0.5
sS'geno'
p9
(lp10
F0.0024091847294946955
aF1.992042923606911
aF0.46647404048328922
aF3.901020780874509
aF-0.47855294594221154
aF-0.14476915470953944
asS'accel_x'
p11
F0
sS'accel_y'
p12
F0
sS'visionAngle'
p13
I150
sS'maxAccel'
p14
I2
sS'maxVel'
p15
F0.5
sS'age'
p16
I0
sS'tailSize'
p17
F1.24179198140136
sS'sexualgeno'
p18
(i__main__
Node
p19
(dp20
S'depth'
p21
I1
sS'right'
p22
(i__main__
Node
p23
(dp24
g21
I2
sg22
NsS'parent'
p25
g19
sS'float_size'
p26
S'indiv.getEnergy()'
p27
sS'float_bright'
p28
S'indiv.distanceMatingSeason()'
p29
sS'left'
p30
Nsbsg25
Nsg26
S'/'
sg28
S'+'
sg30
(i__main__
Node
p31
(dp32
g21
I2
sg22
Nsg25
g19
sg26
S'indiv.getNumPreysNeigh()'
p33
sg28
S'indiv.randF()'
p34
sg30
NsbsbsS'tailBrigh'
p35
F4.3231895548824104
sS'maxSteering'
p36
I30
sS'energy'
p37
F0.5
sS'lastScale'
p38
F5.5
sb.(i__main__
Data_mobile
p1
(dp2
S'vel_y'
p3
I0
sS'vel_x'
p4
F0.45227128763155744
sS'pos_x'
p5
I-9579
sS'pos_y'
p6
I9779
sS'isAlive'
p7
I00
sS'cumulativeEnergy'
p8
F0.5
sS'geno'
p9
(lp10
F1.2198931380659948
aF-0.079188725038731977
aF0.65016447578026415
aF4.2056723989579679
aF0.96943573838312946
aF-0.057742531036134026
asS'accel_x'
p11
F0
sS'accel_y'
p12
F0
sS'visionAngle'
p13
I150
sS'maxAccel'
p14
I2
sS'maxVel'
p15
F0.5
sS'age'
p16
I0
sS'tailSize'
p17
F4.5227128763155742
sS'sexualgeno'
p18
(i__main__
Node
p19
(dp20
S'depth'
p21
I1
sS'right'
p22
(i__main__
Node
p23
(dp24
g21
I2
sg22
NsS'parent'
p25
g19
sS'float_size'
p26
S'indiv.getEnergy()'
p27
sS'float_bright'
p28
S'indiv.distanceMatingSeason()'
p29
sS'left'
p30
Nsbsg25
Nsg26
S'/'
sg28
S'+'
sg30
(i__main__
Node
p31
(dp32
g21
I2
sg22
Nsg25
g19
sg26
S'indiv.getNumPreysNeigh()'
p33
sg28
S'indiv.randF()'
p34
sg30
NsbsbsS'tailBrigh'
p35
F6.1281751353636231
sS'maxSteering'
p36
I30
sS'energy'
p37
F0.5
sS'lastScale'
p38
F5.5
sb.(i__main__
Data_mobile
p1
(dp2
S'vel_y'
p3
I0
sS'vel_x'
p4
F0.32888114658003509
sS'pos_x'
p5
I-9579
sS'pos_y'
p6
I9779
sS'isAlive'
p7
I00
sS'cumulativeEnergy'
p8
F0.5
sS'geno'
p9
(lp10
F1.031293474478062
aF0.73066784852370548
aF0.54724377430009108
aF4.2056723989579679
aF0.96943573838312946
aF-0.057742531036134026
asS'accel_x'
p11
F0
sS'accel_y'
p12
F0
sS'visionAngle'
p13
I150
sS'maxAccel'
p14
I2
sS'maxVel'
p15
F0.5
sS'age'
p16
I0
sS'tailSize'
p17
F3.2888114658003511
sS'sexualgeno'
p18
(i__main__
Node
p19
(dp20
S'depth'
p21
I1
sS'right'
p22
(i__main__
Node
p23
(dp24
g21
I2
sg22
NsS'parent'
p25
g19
sS'float_size'
p26
S'indiv.getEnergy()'
p27
sS'float_bright'
p28
S'indiv.distanceMatingSeason()'
p29
sS'left'
p30
Nsbsg25
Nsg26
S'/'
sg28
S'+'
sg30
(i__main__
Node
p31
(dp32
g21
I2
sg22
Nsg25
g19
sg26
S'indiv.getNumPreysNeigh()'
p33
sg28
S'indiv.randF()'
p34
sg30
NsbsbsS'tailBrigh'
p35
F6.1923949905631961
sS'maxSteering'
p36
I30
sS'energy'
p37
F0.5
sS'lastScale'
p38
F5.5
sb.(i__main__
Data_mobile
p1
(dp2
S'vel_y'
p3
I0
sS'vel_x'
p4
F0.31142142701147535
sS'pos_x'
p5
I-9579
sS'pos_y'
p6
I9779
sS'isAlive'
p7
I00
sS'cumulativeEnergy'
p8
F0.5
sS'geno'
p9
(lp10
F1.3211932707564209
aF0.27827766736430171
aF0.65016447578026415
aF3.5171953206204769
aF-0.72936800240327626
aF-0.084401600128852339
asS'accel_x'
p11
F0
sS'accel_y'
p12
F0
sS'visionAngle'
p13
I150
sS'maxAccel'
p14
I2
sS'maxVel'
p15
F0.5
sS'age'
p16
I0
sS'tailSize'
p17
F3.1142142701147533
sS'sexualgeno'
p18
(i__main__
Node
p19
(dp20
S'depth'
p21
I1
sS'right'
p22
(i__main__
Node
p23
(dp24
g21
I2
sg22
NsS'parent'
p25
g19
sS'float_size'
p26
S'indiv.getEnergy()'
p27
sS'float_bright'
p28
S'indiv.distanceMatingSeason()'
p29
sS'left'
p30
Nsbsg25
Nsg26
S'/'
sg28
S'+'
sg30
(i__main__
Node
p31
(dp32
g21
I2
sg22
Nsg25
g19
sg26
S'indiv.getNumPreysNeigh()'
p33
sg28
S'indiv.randF()'
p34
sg30
NsbsbsS'tailBrigh'
p35
F5.976440916697527
sS'maxSteering'
p36
I30
sS'energy'
p37
F0.5
sS'lastScale'
p38
F5.5
sb.(i__main__
Data_mobile
p1
(dp2
S'vel_y'
p3
I0
sS'vel_x'
p4
F0.2804843479517547
sS'pos_x'
p5
I-9579
sS'pos_y'
p6
I9779
sS'isAlive'
p7
I00
sS'cumulativeEnergy'
p8
F0.5
sS'geno'
p9
(lp10
F1.2198931380659948
aF0.27827766736430171
aF0.078189440943238431
aF4.2056723989579679
aF-0.47855294594221154
aF-0.14476915470953944
asS'accel_x'
p11
F0
sS'accel_y'
p12
F0
sS'visionAngle'
p13
I150
sS'maxAccel'
p14
I2
sS'maxVel'
p15
F0.5
sS'age'
p16
I0
sS'tailSize'
p17
F2.804843479517547
sS'sexualgeno'
p18
(i__main__
Node
p19
(dp20
S'depth'
p21
I1
sS'right'
p22
(i__main__
Node
p23
(dp24
g21
I2
sg22
NsS'parent'
p25
g19
sS'float_size'
p26
S'indiv.getEnergy()'
p27
sS'float_bright'
p28
S'indiv.distanceMatingSeason()'
p29
sS'left'
p30
Nsbsg25
Nsg26
S'/'
sg28
S'+'
sg30
(i__main__
Node
p31
(dp32
g21
I2
sg22
Nsg25
g19
sg26
S'indiv.getNumPreysNeigh()'
p33
sg28
S'indiv.randF()'
p34
sg30
NsbsbsS'tailBrigh'
p35
F6.3465246306697871
sS'maxSteering'
p36
I30
sS'energy'
p37
F0.5
sS'lastScale'
p38
F5.5
sb.(i__main__
Data_mobile
p1
(dp2
S'vel_y'
p3
I0
sS'vel_x'
p4
F0.66386402014942902
sS'pos_x'
p5
I-9579
sS'pos_y'
p6
I9779
sS'isAlive'
p7
I00
sS'cumulativeEnergy'
p8
F0.5
sS'geno'
p9
(lp10
F1.2198931380659948
aF0.27827766736430171
aF0.17492763108243736
aF4.2056723989579679
aF-0.47855294594221154
aF0.16282494668000558
asS'accel_x'
p11
F0
sS'accel_y'
p12
F0
sS'visionAngle'
p13
I150
sS'maxAccel'
p14
I2
sS'maxVel'
p15
F0.5
sS'age'
p16
I0
sS'tailSize'
p17
F6.6386402014942902
sS'sexualgeno'
p18
(i__main__
Node
p19
(dp20
S'depth'
p21
I1
sS'right'
p22
(i__main__
Node
p23
(dp24
g21
I2
sg22
NsS'parent'
p25
g19
sS'float_size'
p26
S'indiv.getEnergy()'
p27
sS'float_bright'
p28
S'indiv.distanceMatingSeason()'
p29
sS'left'
p30
Nsbsg25
Nsg26
S'/'
sg28
S'+'
sg30
(i__main__
Node
p31
(dp32
g21
I2
sg22
Nsg25
g19
sg26
S'indiv.getNumPreysNeigh()'
p33
sg28
S'indiv.randF()'
p34
sg30
NsbsbsS'tailBrigh'
p35
F8.1965323008799338
sS'maxSteering'
p36
I30
sS'energy'
p37
F0.5
sS'lastScale'
p38
F5.5
sb.(i__main__
Data_mobile
p1
(dp2
S'vel_y'
p3
I0
sS'vel_x'
p4
F0.80730242917953965
sS'pos_x'
p5
I-9579
sS'pos_y'
p6
I9779
sS'isAlive'
p7
I00
sS'cumulativeEnergy'
p8
F0.5
sS'geno'
p9
(lp10
F1.2198931380659948
aF1.5334773789393261
aF0.4008218856768383
aF3.9299324266843145
aF-0.47855294594221154
aF-0.28553783596899285
asS'accel_x'
p11
F0
sS'accel_y'
p12
F0
sS'visionAngle'
p13
I150
sS'maxAccel'
p14
I2
sS'maxVel'
p15
F0.5
sS'age'
p16
I0
sS'tailSize'
p17
F8.0730242917953969
sS'sexualgeno'
p18
(i__main__
Node
p19
(dp20
S'depth'
p21
I1
sS'right'
p22
(i__main__
Node
p23
(dp24
g21
I2
sg22
NsS'parent'
p25
g19
sS'float_size'
p26
S'indiv.getEnergy()'
p27
sS'float_bright'
p28
S'indiv.distanceMatingSeason()'
p29
sS'left'
p30
Nsbsg25
Nsg26
S'/'
sg28
S'+'
sg30
(i__main__
Node
p31
(dp32
g21
I2
sg22
Nsg25
g19
sg26
S'indiv.getNumPreysNeigh()'
p33
sg28
S'indiv.randF()'
p34
sg30
NsbsbsS'tailBrigh'
p35
F8.9362369195502964
sS'maxSteering'
p36
I30
sS'energy'
p37
F0.5
sS'lastScale'
p38
F5.5
sb.(i__main__
Data_mobile
p1
(dp2
S'vel_y'
p3
I0
sS'vel_x'
p4
F0.53644181558593751
sS'pos_x'
p5
I-9579
sS'pos_y'
p6
I9779
sS'isAlive'
p7
I00
sS'cumulativeEnergy'
p8
F0.5
sS'geno'
p9
(lp10
F0.0024091847294946955
aF1.992042923606911
aF0.46647404048328922
aF3.901020780874509
aF-0.47855294594221154
aF0.20231169513714387
asS'accel_x'
p11
F0
sS'accel_y'
p12
F0
sS'visionAngle'
p13
I150
sS'maxAccel'
p14
I2
sS'maxVel'
p15
F0.5
sS'age'
p16
I0
sS'tailSize'
p17
F5.3644181558593749
sS'sexualgeno'
p18
(i__main__
Node
p19
(dp20
S'depth'
p21
I1
sS'right'
p22
(i__main__
Node
p23
(dp24
g21
I2
sg22
NsS'parent'
p25
g19
sS'float_size'
p26
S'indiv.getEnergy()'
p27
sS'float_bright'
p28
S'indiv.distanceMatingSeason()'
p29
sS'left'
p30
Nsbsg25
Nsg26
S'/'
sg28
S'+'
sg30
(i__main__
Node
p31
(dp32
g21
I2
sg22
Nsg25
g19
sg26
S'indiv.getNumPreysNeigh()'
p33
sg28
S'indiv.randF()'
p34
sg30
NsbsbsS'tailBrigh'
p35
F1.6458522633640771
sS'maxSteering'
p36
I30
sS'energy'
p37
F0.5
sS'lastScale'
p38
F5.5
sb.(i__main__
Data_mobile
p1
(dp2
S'vel_y'
p3
I0
sS'vel_x'
p4
F0.4227825634909852
sS'pos_x'
p5
I-9579
sS'pos_y'
p6
I9779
sS'isAlive'
p7
I00
sS'cumulativeEnergy'
p8
F0.5
sS'geno'
p9
(lp10
F0.0024091847294946955
aF2.2945236713308512
aF0.46647404048328922
aF3.8097335090518509
aF-0.47855294594221154
aF-0.14476915470953944
asS'accel_x'
p11
F0
sS'accel_y'
p12
F0
sS'visionAngle'
p13
I150
sS'maxAccel'
p14
I2
sS'maxVel'
p15
F0.5
sS'age'
p16
I0
sS'tailSize'
p17
F4.227825634909852
sS'sexualgeno'
p18
(i__main__
Node
p19
(dp20
S'depth'
p21
I1
sS'right'
p22
(i__main__
Node
p23
(dp24
g21
I2
sg22
NsS'parent'
p25
g19
sS'float_size'
p26
S'indiv.getEnergy()'
p27
sS'float_bright'
p28
S'indiv.distanceMatingSeason()'
p29
sS'left'
p30
Nsbsg25
Nsg26
S'/'
sg28
S'+'
sg30
(i__main__
Node
p31
(dp32
g21
I2
sg22
Nsg25
g19
sg26
S'indiv.getNumPreysNeigh()'
p33
sg28
S'indiv.randF()'
p34
sg30
NsbsbsS'tailBrigh'
p35
F1.0408764021897499
sS'maxSteering'
p36
I30
sS'energy'
p37
F0.5
sS'lastScale'
p38
F5.5
sb.(i__main__
Data_mobile
p1
(dp2
S'vel_y'
p3
I0
sS'vel_x'
p4
F0.55995201231573533
sS'pos_x'
p5
I-9579
sS'pos_y'
p6
I9779
sS'isAlive'
p7
I00
sS'cumulativeEnergy'
p8
F0.5
sS'geno'
p9
(lp10
F0.0024091847294946955
aF2.2945236713308512
aF0.46647404048328922
aF3.8097335090518509
aF-0.47855294594221154
aF-0.0038557465665698398
asS'accel_x'
p11
F0
sS'accel_y'
p12
F0
sS'visionAngle'
p13
I150
sS'maxAccel'
p14
I2
sS'maxVel'
p15
F0.5
sS'age'
p16
I0
sS'tailSize'
p17
F5.5995201231573528
sS'sexualgeno'
p18
(i__main__
Node
p19
(dp20
S'depth'
p21
I1
sS'right'
p22
(i__main__
Node
p23
(dp24
g21
I2
sg22
NsS'parent'
p25
g19
sS'float_size'
p26
S'indiv.getEnergy()'
p27
sS'float_bright'
p28
S'indiv.distanceMatingSeason()'
p29
sS'left'
p30
Nsbsg25
Nsg26
S'/'
sg28
S'+'
sg30
(i__main__
Node
p31
(dp32
g21
I2
sg22
Nsg25
g19
sg26
S'indiv.getNumPreysNeigh()'
p33
sg28
S'indiv.randF()'
p34
sg30
NsbsbsS'tailBrigh'
p35
F5.5554847639343405
sS'maxSteering'
p36
I30
sS'energy'
p37
F0.5
sS'lastScale'
p38
F5.5
sb.(i__main__
Data_mobile
p1
(dp2
S'vel_y'
p3
I0
sS'vel_x'
p4
F0.016106915077577666
sS'pos_x'
p5
I-9579
sS'pos_y'
p6
I9779
sS'isAlive'
p7
I00
sS'cumulativeEnergy'
p8
F0.5
sS'geno'
p9
(lp10
F1.2198931380659948
aF0.27827766736430171
aF0.65016447578026415
aF3.8097335090518509
aF-0.47855294594221154
aF-0.14476915470953944
asS'accel_x'
p11
F0
sS'accel_y'
p12
F0
sS'visionAngle'
p13
I150
sS'maxAccel'
p14
I2
sS'maxVel'
p15
F0.5
sS'age'
p16
I0
sS'tailSize'
p17
F0.16106915077577666
sS'sexualgeno'
p18
(i__main__
Node
p19
(dp20
S'depth'
p21
I1
sS'right'
p22
(i__main__
Node
p23
(dp24
g21
I2
sg22
NsS'parent'
p25
g19
sS'float_size'
p26
S'indiv.getEnergy()'
p27
sS'float_bright'
p28
S'indiv.distanceMatingSeason()'
p29
sS'left'
p30
Nsbsg25
Nsg26
S'/'
sg28
S'+'
sg30
(i__main__
Node
p31
(dp32
g21
I2
sg22
Nsg25
g19
sg26
S'indiv.getNumPreysNeigh()'
p33
sg28
S'indiv.randF()'
p34
sg30
NsbsbsS'tailBrigh'
p35
F8.5386069428473341
sS'maxSteering'
p36
I30
sS'energy'
p37
F0.5
sS'lastScale'
p38
F5.5
sb.(i__main__
Data_mobile
p1
(dp2
S'vel_y'
p3
I0
sS'vel_x'
p4
F0.9023798579850002
sS'pos_x'
p5
I-9579
sS'pos_y'
p6
I9779
sS'isAlive'
p7
I00
sS'cumulativeEnergy'
p8
F0.5
sS'geno'
p9
(lp10
F0.0024091847294946955
aF2.2945236713308512
aF0.46647404048328922
aF3.8097335090518509
aF-0.47855294594221154
aF0.16282494668000558
asS'accel_x'
p11
F0
sS'accel_y'
p12
F0
sS'visionAngle'
p13
I150
sS'maxAccel'
p14
I2
sS'maxVel'
p15
F0.5
sS'age'
p16
I0
sS'tailSize'
p17
F9.023798579850002
sS'sexualgeno'
p18
(i__main__
Node
p19
(dp20
S'depth'
p21
I1
sS'right'
p22
(i__main__
Node
p23
(dp24
g21
I2
sg22
NsS'parent'
p25
g19
sS'float_size'
p26
S'indiv.getEnergy()'
p27
sS'float_bright'
p28
S'indiv.distanceMatingSeason()'
p29
sS'left'
p30
Nsbsg25
Nsg26
S'/'
sg28
S'+'
sg30
(i__main__
Node
p31
(dp32
g21
I2
sg22
Nsg25
g19
sg26
S'indiv.getNumPreysNeigh()'
p33
sg28
S'indiv.randF()'
p34
sg30
NsbsbsS'tailBrigh'
p35
F8.3580680930854729
sS'maxSteering'
p36
I30
sS'energy'
p37
F0.5
sS'lastScale'
p38
F5.5
sb.(i__main__
Data_mobile
p1
(dp2
S'vel_y'
p3
I0
sS'vel_x'
p4
F0.92363134527203061
sS'pos_x'
p5
I-9579
sS'pos_y'
p6
I9779
sS'isAlive'
p7
I00
sS'cumulativeEnergy'
p8
F0.5
sS'geno'
p9
(lp10
F1.2198931380659948
aF0.27827766736430171
aF0.46647404048328922
aF2.7181908967256017
aF0.96943573838312946
aF-0.057742531036134026
asS'accel_x'
p11
F0
sS'accel_y'
p12
F0
sS'visionAngle'
p13
I150
sS'maxAccel'
p14
I2
sS'maxVel'
p15
F0.5
sS'age'
p16
I0
sS'tailSize'
p17
F9.2363134527203066
sS'sexualgeno'
p18
(i__main__
Node
p19
(dp20
S'depth'
p21
I1
sS'right'
p22
(i__main__
Node
p23
(dp24
g21
I2
sg22
NsS'parent'
p25
g19
sS'float_size'
p26
S'indiv.getEnergy()'
p27
sS'float_bright'
p28
S'indiv.distanceMatingSeason()'
p29
sS'left'
p30
Nsbsg25
Nsg26
S'/'
sg28
S'+'
sg30
(i__main__
Node
p31
(dp32
g21
I2
sg22
Nsg25
g19
sg26
S'indiv.getNumPreysNeigh()'
p33
sg28
S'indiv.randF()'
p34
sg30
NsbsbsS'tailBrigh'
p35
F4.585300968966127
sS'maxSteering'
p36
I30
sS'energy'
p37
F0.5
sS'lastScale'
p38
F5.5
sb.(i__main__
Data_mobile
p1
(dp2
S'vel_y'
p3
I0
sS'vel_x'
p4
F0.45494909725596944
sS'pos_x'
p5
I-9579
sS'pos_y'
p6
I9779
sS'isAlive'
p7
I00
sS'cumulativeEnergy'
p8
F0.5
sS'geno'
p9
(lp10
F1.2198931380659948
aF0.27827766736430171
aF0.46647404048328922
aF4.3307747959138201
aF-0.47855294594221154
aF-0.49142947119432001
asS'accel_x'
p11
F0
sS'accel_y'
p12
F0
sS'visionAngle'
p13
I150
sS'maxAccel'
p14
I2
sS'maxVel'
p15
F0.5
sS'age'
p16
I0
sS'tailSize'
p17
F4.5494909725596946
sS'sexualgeno'
p18
(i__main__
Node
p19
(dp20
S'depth'
p21
I1
sS'right'
p22
(i__main__
Node
p23
(dp24
g21
I2
sg22
NsS'parent'
p25
g19
sS'float_size'
p26
S'indiv.getEnergy()'
p27
sS'float_bright'
p28
S'indiv.distanceMatingSeason()'
p29
sS'left'
p30
Nsbsg25
Nsg26
S'/'
sg28
S'+'
sg30
(i__main__
Node
p31
(dp32
g21
I2
sg22
Nsg25
g19
sg26
S'indiv.getNumPreysNeigh()'
p33
sg28
S'indiv.randF()'
p34
sg30
NsbsbsS'tailBrigh'
p35
F8.3005582924714734
sS'maxSteering'
p36
I30
sS'energy'
p37
F0.5
sS'lastScale'
p38
F5.5
sb.(i__main__
Data_mobile
p1
(dp2
S'vel_y'
p3
I0
sS'vel_x'
p4
F0.65616378686873933
sS'pos_x'
p5
I-9579
sS'pos_y'
p6
I9779
sS'isAlive'
p7
I00
sS'cumulativeEnergy'
p8
F0.5
sS'geno'
p9
(lp10
F1.2198931380659948
aF1.5334773789393261
aF0.4008218856768383
aF4.2056723989579679
aF-0.03196073306959768
aF0.16282494668000558
asS'accel_x'
p11
F0
sS'accel_y'
p12
F0
sS'visionAngle'
p13
I150
sS'maxAccel'
p14
I2
sS'maxVel'
p15
F0.5
sS'age'
p16
I0
sS'tailSize'
p17
F6.5616378686873933
sS'sexualgeno'
p18
(i__main__
Node
p19
(dp20
S'depth'
p21
I1
sS'right'
p22
(i__main__
Node
p23
(dp24
g21
I2
sg22
NsS'parent'
p25
g19
sS'float_size'
p26
S'indiv.getEnergy()'
p27
sS'float_bright'
p28
S'indiv.distanceMatingSeason()'
p29
sS'left'
p30
Nsbsg25
Nsg26
S'/'
sg28
S'+'
sg30
(i__main__
Node
p31
(dp32
g21
I2
sg22
Nsg25
g19
sg26
S'indiv.getNumPreysNeigh()'
p33
sg28
S'indiv.randF()'
p34
sg30
NsbsbsS'tailBrigh'
p35
F5.7877676223574506
sS'maxSteering'
p36
I30
sS'energy'
p37
F0.5
sS'lastScale'
p38
F5.5
sb.(i__main__
Data_mobile
p1
(dp2
S'vel_y'
p3
I0
sS'vel_x'
p4
F0.96159387095315252
sS'pos_x'
p5
I-9579
sS'pos_y'
p6
I9779
sS'isAlive'
p7
I00
sS'cumulativeEnergy'
p8
F0.5
sS'geno'
p9
(lp10
F1.031293474478062
aF0.73066784852370548
aF0.65016447578026415
aF4.3307747959138201
aF-0.47855294594221154
aF-0.49142947119432001
asS'accel_x'
p11
F0
sS'accel_y'
p12
F0
sS'visionAngle'
p13
I150
sS'maxAccel'
p14
I2
sS'maxVel'
p15
F0.5
sS'age'
p16
I0
sS'tailSize'
p17
F9.615938709531525
sS'sexualgeno'
p18
(i__main__
Node
p19
(dp20
S'depth'
p21
I1
sS'right'
p22
(i__main__
Node
p23
(dp24
g21
I2
sg22
NsS'parent'
p25
g19
sS'float_size'
p26
S'indiv.getEnergy()'
p27
sS'float_bright'
p28
S'indiv.distanceMatingSeason()'
p29
sS'left'
p30
Nsbsg25
Nsg26
S'/'
sg28
S'+'
sg30
(i__main__
Node
p31
(dp32
g21
I2
sg22
Nsg25
g19
sg26
S'indiv.getNumPreysNeigh()'
p33
sg28
S'indiv.randF()'
p34
sg30
NsbsbsS'tailBrigh'
p35
F5.6263831165366582
sS'maxSteering'
p36
I30
sS'energy'
p37
F0.5
sS'lastScale'
p38
F5.5
sb.(i__main__
Data_mobile
p1
(dp2
S'vel_y'
p3
I0
sS'vel_x'
p4
F0.35586708494040509
sS'pos_x'
p5
I-9579
sS'pos_y'
p6
I9779
sS'isAlive'
p7
I00
sS'cumulativeEnergy'
p8
F0.5
sS'geno'
p9
(lp10
F1.2198931380659948
aF-0.079188725038731977
aF0.65016447578026415
aF4.2056723989579679
aF0.96943573838312946
aF-0.057742531036134026
asS'accel_x'
p11
F0
sS'accel_y'
p12
F0
sS'visionAngle'
p13
I150
sS'maxAccel'
p14
I2
sS'maxVel'
p15
F0.5
sS'age'
p16
I0
sS'tailSize'
p17
F3.5586708494040509
sS'sexualgeno'
p18
(i__main__
Node
p19
(dp20
S'depth'
p21
I1
sS'right'
p22
(i__main__
Node
p23
(dp24
g21
I2
sg22
NsS'parent'
p25
g19
sS'float_size'
p26
S'indiv.getEnergy()'
p27
sS'float_bright'
p28
S'indiv.distanceMatingSeason()'
p29
sS'left'
p30
Nsbsg25
Nsg26
S'/'
sg28
S'+'
sg30
(i__main__
Node
p31
(dp32
g21
I2
sg22
Nsg25
g19
sg26
S'indiv.getNumPreysNeigh()'
p33
sg28
S'indiv.randF()'
p34
sg30
NsbsbsS'tailBrigh'
p35
F5.8039623396789706
sS'maxSteering'
p36
I30
sS'energy'
p37
F0.5
sS'lastScale'
p38
F5.5
sb.(i__main__
Data_mobile
p1
(dp2
S'vel_y'
p3
I0
sS'vel_x'
p4
F0.56645334689784987
sS'pos_x'
p5
I-9579
sS'pos_y'
p6
I9779
sS'isAlive'
p7
I00
sS'cumulativeEnergy'
p8
F0.5
sS'geno'
p9
(lp10
F1.2923600237001382
aF0.27827766736430171
aF0.17492763108243736
aF3.9299324266843145
aF-0.47855294594221154
aF-0.14476915470953944
asS'accel_x'
p11
F0
sS'accel_y'
p12
F0
sS'visionAngle'
p13
I150
sS'maxAccel'
p14
I2
sS'maxVel'
p15
F0.5
sS'age'
p16
I0
sS'tailSize'
p17
F5.6645334689784992
sS'sexualgeno'
p18
(i__main__
Node
p19
(dp20
S'depth'
p21
I1
sS'right'
p22
(i__main__
Node
p23
(dp24
g21
I2
sg22
NsS'parent'
p25
g19
sS'float_size'
p26
S'indiv.getEnergy()'
p27
sS'float_bright'
p28
S'indiv.distanceMatingSeason()'
p29
sS'left'
p30
Nsbsg25
Nsg26
S'/'
sg28
S'+'
sg30
(i__main__
Node
p31
(dp32
g21
I2
sg22
Nsg25
g19
sg26
S'indiv.getNumPreysNeigh()'
p33
sg28
S'indiv.randF()'
p34
sg30
NsbsbsS'tailBrigh'
p35
F9.9155140844263592
sS'maxSteering'
p36
I30
sS'energy'
p37
F0.5
sS'lastScale'
p38
F5.5
sb.(i__main__
Data_mobile
p1
(dp2
S'vel_y'
p3
I0
sS'vel_x'
p4
F0.012464044737767521
sS'pos_x'
p5
I-9579
sS'pos_y'
p6
I9779
sS'isAlive'
p7
I00
sS'cumulativeEnergy'
p8
F0.5
sS'geno'
p9
(lp10
F0.0024091847294946955
aF1.992042923606911
aF0.46647404048328922
aF3.5171953206204769
aF-0.70495038046927316
aF-0.14476915470953944
asS'accel_x'
p11
F0
sS'accel_y'
p12
F0
sS'visionAngle'
p13
I150
sS'maxAccel'
p14
I2
sS'maxVel'
p15
F0.5
sS'age'
p16
I0
sS'tailSize'
p17
F0.12464044737767521
sS'sexualgeno'
p18
(i__main__
Node
p19
(dp20
S'depth'
p21
I1
sS'right'
p22
(i__main__
Node
p23
(dp24
g21
I2
sg22
NsS'parent'
p25
g19
sS'float_size'
p26
S'indiv.getEnergy()'
p27
sS'float_bright'
p28
S'indiv.distanceMatingSeason()'
p29
sS'left'
p30
Nsbsg25
Nsg26
S'/'
sg28
S'+'
sg30
(i__main__
Node
p31
(dp32
g21
I2
sg22
Nsg25
g19
sg26
S'indiv.getNumPreysNeigh()'
p33
sg28
S'indiv.randF()'
p34
sg30
NsbsbsS'tailBrigh'
p35
F0.10441247702887124
sS'maxSteering'
p36
I30
sS'energy'
p37
F0.5
sS'lastScale'
p38
F5.5
sb.(i__main__
Data_mobile
p1
(dp2
S'vel_y'
p3
I0
sS'vel_x'
p4
F0.11674226865105652
sS'pos_x'
p5
I-9579
sS'pos_y'
p6
I9779
sS'isAlive'
p7
I00
sS'cumulativeEnergy'
p8
F0.5
sS'geno'
p9
(lp10
F0.0024091847294946955
aF1.992042923606911
aF0.46647404048328922
aF3.901020780874509
aF-0.47855294594221154
aF0.20231169513714387
asS'accel_x'
p11
F0
sS'accel_y'
p12
F0
sS'visionAngle'
p13
I150
sS'maxAccel'
p14
I2
sS'maxVel'
p15
F0.5
sS'age'
p16
I0
sS'tailSize'
p17
F1.1674226865105652
sS'sexualgeno'
p18
(i__main__
Node
p19
(dp20
S'depth'
p21
I1
sS'right'
p22
(i__main__
Node
p23
(dp24
g21
I2
sg22
NsS'parent'
p25
g19
sS'float_size'
p26
S'indiv.getEnergy()'
p27
sS'float_bright'
p28
S'indiv.distanceMatingSeason()'
p29
sS'left'
p30
Nsbsg25
Nsg26
S'/'
sg28
S'+'
sg30
(i__main__
Node
p31
(dp32
g21
I2
sg22
Nsg25
g19
sg26
S'indiv.getNumPreysNeigh()'
p33
sg28
S'indiv.randF()'
p34
sg30
NsbsbsS'tailBrigh'
p35
F2.7670992386126492
sS'maxSteering'
p36
I30
sS'energy'
p37
F0.5
sS'lastScale'
p38
F5.5
sb.(i__main__
Data_mobile
p1
(dp2
S'vel_y'
p3
I0
sS'vel_x'
p4
F0.33051810835533069
sS'pos_x'
p5
I-9579
sS'pos_y'
p6
I9779
sS'isAlive'
p7
I00
sS'cumulativeEnergy'
p8
F0.5
sS'geno'
p9
(lp10
F0.0024091847294946955
aF2.2945236713308512
aF0.46647404048328922
aF3.8097335090518509
aF-0.47855294594221154
aF-0.14476915470953944
asS'accel_x'
p11
F0
sS'accel_y'
p12
F0
sS'visionAngle'
p13
I150
sS'maxAccel'
p14
I2
sS'maxVel'
p15
F0.5
sS'age'
p16
I0
sS'tailSize'
p17
F3.3051810835533066
sS'sexualgeno'
p18
(i__main__
Node
p19
(dp20
S'depth'
p21
I1
sS'right'
p22
(i__main__
Node
p23
(dp24
g21
I2
sg22
NsS'parent'
p25
g19
sS'float_size'
p26
S'indiv.getEnergy()'
p27
sS'float_bright'
p28
S'indiv.distanceMatingSeason()'
p29
sS'left'
p30
Nsbsg25
Nsg26
S'/'
sg28
S'+'
sg30
(i__main__
Node
p31
(dp32
g21
I2
sg22
Nsg25
g19
sg26
S'indiv.getNumPreysNeigh()'
p33
sg28
S'indiv.randF()'
p34
sg30
NsbsbsS'tailBrigh'
p35
F0.70687728199402944
sS'maxSteering'
p36
I30
sS'energy'
p37
F0.5
sS'lastScale'
p38
F5.5
sb.(i__main__
Data_mobile
p1
(dp2
S'vel_y'
p3
I0
sS'vel_x'
p4
F0.42425530689229857
sS'pos_x'
p5
I-9579
sS'pos_y'
p6
I9779
sS'isAlive'
p7
I00
sS'cumulativeEnergy'
p8
F0.5
sS'geno'
p9
(lp10
F1.2198931380659948
aF0.13270559439234775
aF0.65016447578026415
aF4.2056723989579679
aF-0.47855294594221154
aF0.20231169513714387
asS'accel_x'
p11
F0
sS'accel_y'
p12
F0
sS'visionAngle'
p13
I150
sS'maxAccel'
p14
I2
sS'maxVel'
p15
F0.5
sS'age'
p16
I0
sS'tailSize'
p17
F4.2425530689229856
sS'sexualgeno'
p18
(i__main__
Node
p19
(dp20
S'depth'
p21
I1
sS'right'
p22
(i__main__
Node
p23
(dp24
g21
I2
sg22
NsS'parent'
p25
g19
sS'float_size'
p26
S'indiv.getEnergy()'
p27
sS'float_bright'
p28
S'indiv.distanceMatingSeason()'
p29
sS'left'
p30
Nsbsg25
Nsg26
S'/'
sg28
S'+'
sg30
(i__main__
Node
p31
(dp32
g21
I2
sg22
Nsg25
g19
sg26
S'indiv.getNumPreysNeigh()'
p33
sg28
S'indiv.randF()'
p34
sg30
NsbsbsS'tailBrigh'
p35
F0.030879684863521772
sS'maxSteering'
p36
I30
sS'energy'
p37
F0.5
sS'lastScale'
p38
F5.5
sb.(i__main__
Data_mobile
p1
(dp2
S'vel_y'
p3
I0
sS'vel_x'
p4
F0.65581272515630773
sS'pos_x'
p5
I-9579
sS'pos_y'
p6
I9779
sS'isAlive'
p7
I00
sS'cumulativeEnergy'
p8
F0.5
sS'geno'
p9
(lp10
F0.0024091847294946955
aF2.2945236713308512
aF0.46647404048328922
aF3.8097335090518509
aF-0.47855294594221154
aF-0.14476915470953944
asS'accel_x'
p11
F0
sS'accel_y'
p12
F0
sS'visionAngle'
p13
I150
sS'maxAccel'
p14
I2
sS'maxVel'
p15
F0.5
sS'age'
p16
I0
sS'tailSize'
p17
F6.5581272515630769
sS'sexualgeno'
p18
(i__main__
Node
p19
(dp20
S'depth'
p21
I1
sS'right'
p22
(i__main__
Node
p23
(dp24
g21
I2
sg22
NsS'parent'
p25
g19
sS'float_size'
p26
S'indiv.getEnergy()'
p27
sS'float_bright'
p28
S'indiv.distanceMatingSeason()'
p29
sS'left'
p30
Nsbsg25
Nsg26
S'/'
sg28
S'+'
sg30
(i__main__
Node
p31
(dp32
g21
I2
sg22
Nsg25
g19
sg26
S'indiv.getNumPreysNeigh()'
p33
sg28
S'indiv.randF()'
p34
sg30
NsbsbsS'tailBrigh'
p35
F4.4704082091231925
sS'maxSteering'
p36
I30
sS'energy'
p37
F0.5
sS'lastScale'
p38
F5.5
sb.(i__main__
Data_mobile
p1
(dp2
S'vel_y'
p3
I0
sS'vel_x'
p4
F0.72878823333617504
sS'pos_x'
p5
I-9579
sS'pos_y'
p6
I9779
sS'isAlive'
p7
I00
sS'cumulativeEnergy'
p8
F0.5
sS'geno'
p9
(lp10
F1.2198931380659948
aF0.27827766736430171
aF0.46647404048328922
aF4.2056723989579679
aF-0.47855294594221154
aF0.20231169513714387
asS'accel_x'
p11
F0
sS'accel_y'
p12
F0
sS'visionAngle'
p13
I150
sS'maxAccel'
p14
I2
sS'maxVel'
p15
F0.5
sS'age'
p16
I0
sS'tailSize'
p17
F7.2878823333617504
sS'sexualgeno'
p18
(i__main__
Node
p19
(dp20
S'depth'
p21
I1
sS'right'
p22
(i__main__
Node
p23
(dp24
g21
I2
sg22
NsS'parent'
p25
g19
sS'float_size'
p26
S'indiv.getEnergy()'
p27
sS'float_bright'
p28
S'indiv.distanceMatingSeason()'
p29
sS'left'
p30
Nsbsg25
Nsg26
S'/'
sg28
S'+'
sg30
(i__main__
Node
p31
(dp32
g21
I2
sg22
Nsg25
g19
sg26
S'indiv.getNumPreysNeigh()'
p33
sg28
S'indiv.randF()'
p34
sg30
NsbsbsS'tailBrigh'
p35
F3.887455939609159
sS'maxSteering'
p36
I30
sS'energy'
p37
F0.5
sS'lastScale'
p38
F5.5
sb.(i__main__
Data_mobile
p1
(dp2
S'vel_y'
p3
I0
sS'vel_x'
p4
F0.16616389866304804
sS'pos_x'
p5
I-9579
sS'pos_y'
p6
I9779
sS'isAlive'
p7
I00
sS'cumulativeEnergy'
p8
F0.5
sS'geno'
p9
(lp10
F0.0024091847294946955
aF2.2945236713308512
aF0.46647404048328922
aF3.8097335090518509
aF-0.47855294594221154
aF-0.14476915470953944
asS'accel_x'
p11
F0
sS'accel_y'
p12
F0
sS'visionAngle'
p13
I150
sS'maxAccel'
p14
I2
sS'maxVel'
p15
F0.5
sS'age'
p16
I0
sS'tailSize'
p17
F1.6616389866304804
sS'sexualgeno'
p18
(i__main__
Node
p19
(dp20
S'depth'
p21
I1
sS'right'
p22
(i__main__
Node
p23
(dp24
g21
I2
sg22
NsS'parent'
p25
g19
sS'float_size'
p26
S'indiv.getEnergy()'
p27
sS'float_bright'
p28
S'indiv.distanceMatingSeason()'
p29
sS'left'
p30
Nsbsg25
Nsg26
S'/'
sg28
S'+'
sg30
(i__main__
Node
p31
(dp32
g21
I2
sg22
Nsg25
g19
sg26
S'indiv.getNumPreysNeigh()'
p33
sg28
S'indiv.randF()'
p34
sg30
NsbsbsS'tailBrigh'
p35
F2.6566047153147245
sS'maxSteering'
p36
I30
sS'energy'
p37
F0.5
sS'lastScale'
p38
F5.5
sb.(i__main__
Data_mobile
p1
(dp2
S'vel_y'
p3
I0
sS'vel_x'
p4
F0.52143882591644131
sS'pos_x'
p5
I-9579
sS'pos_y'
p6
I9779
sS'isAlive'
p7
I00
sS'cumulativeEnergy'
p8
F0.5
sS'geno'
p9
(lp10
F1.2198931380659948
aF1.5334773789393261
aF0.31915572982036278
aF3.8097335090518509
aF-0.47855294594221154
aF-0.14476915470953944
asS'accel_x'
p11
F0
sS'accel_y'
p12
F0
sS'visionAngle'
p13
I150
sS'maxAccel'
p14
I2
sS'maxVel'
p15
F0.5
sS'age'
p16
I0
sS'tailSize'
p17
F5.2143882591644131
sS'sexualgeno'
p18
(i__main__
Node
p19
(dp20
S'depth'
p21
I1
sS'right'
p22
(i__main__
Node
p23
(dp24
g21
I2
sg22
NsS'parent'
p25
g19
sS'float_size'
p26
S'indiv.getEnergy()'
p27
sS'float_bright'
p28
S'indiv.distanceMatingSeason()'
p29
sS'left'
p30
Nsbsg25
Nsg26
S'/'
sg28
S'+'
sg30
(i__main__
Node
p31
(dp32
g21
I2
sg22
Nsg25
g19
sg26
S'indiv.getNumPreysNeigh()'
p33
sg28
S'indiv.randF()'
p34
sg30
NsbsbsS'tailBrigh'
p35
F9.4791166618740572
sS'maxSteering'
p36
I30
sS'energy'
p37
F0.5
sS'lastScale'
p38
F5.5
sb.(i__main__
Data_mobile
p1
(dp2
S'vel_y'
p3
I0
sS'vel_x'
p4
F0.41948498300389703
sS'pos_x'
p5
I-9579
sS'pos_y'
p6
I9779
sS'isAlive'
p7
I00
sS'cumulativeEnergy'
p8
F0.5
sS'geno'
p9
(lp10
F0.0024091847294946955
aF1.5277174975588066
aF0.46647404048328922
aF3.901020780874509
aF-0.47855294594221154
aF-0.14476915470953944
asS'accel_x'
p11
F0
sS'accel_y'
p12
F0
sS'visionAngle'
p13
I150
sS'maxAccel'
p14
I2
sS'maxVel'
p15
F0.5
sS'age'
p16
I0
sS'tailSize'
p17
F4.1948498300389705
sS'sexualgeno'
p18
(i__main__
Node
p19
(dp20
S'depth'
p21
I1
sS'right'
p22
(i__main__
Node
p23
(dp24
g21
I2
sg22
NsS'parent'
p25
g19
sS'float_size'
p26
S'indiv.getEnergy()'
p27
sS'float_bright'
p28
S'indiv.distanceMatingSeason()'
p29
sS'left'
p30
Nsbsg25
Nsg26
S'/'
sg28
S'+'
sg30
(i__main__
Node
p31
(dp32
g21
I2
sg22
Nsg25
g19
sg26
S'indiv.getNumPreysNeigh()'
p33
sg28
S'indiv.randF()'
p34
sg30
NsbsbsS'tailBrigh'
p35
F2.1293902584787796
sS'maxSteering'
p36
I30
sS'energy'
p37
F0.5
sS'lastScale'
p38
F5.5
sb.(i__main__
Data_mobile
p1
(dp2
S'vel_y'
p3
I0
sS'vel_x'
p4
F0.62498077262047202
sS'pos_x'
p5
I-9579
sS'pos_y'
p6
I9779
sS'isAlive'
p7
I00
sS'cumulativeEnergy'
p8
F0.5
sS'geno'
p9
(lp10
F0.0024091847294946955
aF2.2945236713308512
aF0.46647404048328922
aF3.8097335090518509
aF-0.47855294594221154
aF-0.0038557465665698398
asS'accel_x'
p11
F0
sS'accel_y'
p12
F0
sS'visionAngle'
p13
I150
sS'maxAccel'
p14
I2
sS'maxVel'
p15
F0.5
sS'age'
p16
I0
sS'tailSize'
p17
F6.24980772620472
sS'sexualgeno'
p18
(i__main__
Node
p19
(dp20
S'depth'
p21
I1
sS'right'
p22
(i__main__
Node
p23
(dp24
g21
I2
sg22
NsS'parent'
p25
g19
sS'float_size'
p26
S'indiv.getEnergy()'
p27
sS'float_bright'
p28
S'indiv.distanceMatingSeason()'
p29
sS'left'
p30
Nsbsg25
Nsg26
S'/'
sg28
S'+'
sg30
(i__main__
Node
p31
(dp32
g21
I2
sg22
Nsg25
g19
sg26
S'indiv.getNumPreysNeigh()'
p33
sg28
S'indiv.randF()'
p34
sg30
NsbsbsS'tailBrigh'
p35
F4.5296792565908151
sS'maxSteering'
p36
I30
sS'energy'
p37
F0.5
sS'lastScale'
p38
F5.5
sb.(i__main__
Data_mobile
p1
(dp2
S'vel_y'
p3
I0
sS'vel_x'
p4
F0.51720317075197542
sS'pos_x'
p5
I-9579
sS'pos_y'
p6
I9779
sS'isAlive'
p7
I00
sS'cumulativeEnergy'
p8
F0.5
sS'geno'
p9
(lp10
F0.0024091847294946955
aF2.2945236713308512
aF0.46647404048328922
aF3.8097335090518509
aF-0.47855294594221154
aF-0.0038557465665698398
asS'accel_x'
p11
F0
sS'accel_y'
p12
F0
sS'visionAngle'
p13
I150
sS'maxAccel'
p14
I2
sS'maxVel'
p15
F0.5
sS'age'
p16
I0
sS'tailSize'
p17
F5.1720317075197544
sS'sexualgeno'
p18
(i__main__
Node
p19
(dp20
S'depth'
p21
I1
sS'right'
p22
(i__main__
Node
p23
(dp24
g21
I2
sg22
NsS'parent'
p25
g19
sS'float_size'
p26
S'indiv.getEnergy()'
p27
sS'float_bright'
p28
S'indiv.distanceMatingSeason()'
p29
sS'left'
p30
Nsbsg25
Nsg26
S'/'
sg28
S'+'
sg30
(i__main__
Node
p31
(dp32
g21
I2
sg22
Nsg25
g19
sg26
S'indiv.getNumPreysNeigh()'
p33
sg28
S'indiv.randF()'
p34
sg30
NsbsbsS'tailBrigh'
p35
F4.0718591160322255
sS'maxSteering'
p36
I30
sS'energy'
p37
F0.5
sS'lastScale'
p38
F5.5
sb.(i__main__
Data_mobile
p1
(dp2
S'vel_y'
p3
I0
sS'vel_x'
p4
F0.80311115326179672
sS'pos_x'
p5
I-9579
sS'pos_y'
p6
I9779
sS'isAlive'
p7
I00
sS'cumulativeEnergy'
p8
F0.5
sS'geno'
p9
(lp10
F1.2198931380659948
aF1.5334773789393261
aF0.31915572982036278
aF3.8097335090518509
aF-0.47855294594221154
aF-0.14476915470953944
asS'accel_x'
p11
F0
sS'accel_y'
p12
F0
sS'visionAngle'
p13
I150
sS'maxAccel'
p14
I2
sS'maxVel'
p15
F0.5
sS'age'
p16
I0
sS'tailSize'
p17
F8.0311115326179667
sS'sexualgeno'
p18
(i__main__
Node
p19
(dp20
S'depth'
p21
I1
sS'right'
p22
(i__main__
Node
p23
(dp24
g21
I2
sg22
NsS'parent'
p25
g19
sS'float_size'
p26
S'indiv.getEnergy()'
p27
sS'float_bright'
p28
S'indiv.distanceMatingSeason()'
p29
sS'left'
p30
Nsbsg25
Nsg26
S'/'
sg28
S'+'
sg30
(i__main__
Node
p31
(dp32
g21
I2
sg22
Nsg25
g19
sg26
S'indiv.getNumPreysNeigh()'
p33
sg28
S'indiv.randF()'
p34
sg30
NsbsbsS'tailBrigh'
p35
F5.7731703560982304
sS'maxSteering'
p36
I30
sS'energy'
p37
F0.5
sS'lastScale'
p38
F5.5
sb.(i__main__
Data_mobile
p1
(dp2
S'vel_y'
p3
I0
sS'vel_x'
p4
F0.67454126969469275
sS'pos_x'
p5
I-9579
sS'pos_y'
p6
I9779
sS'isAlive'
p7
I00
sS'cumulativeEnergy'
p8
F0.5
sS'geno'
p9
(lp10
F0.0024091847294946955
aF1.5778128513319696
aF0.46647404048328922
aF4.4664372486257857
aF-0.47855294594221154
aF0.20473701708956293
asS'accel_x'
p11
F0
sS'accel_y'
p12
F0
sS'visionAngle'
p13
I150
sS'maxAccel'
p14
I2
sS'maxVel'
p15
F0.5
sS'age'
p16
I0
sS'tailSize'
p17
F6.7454126969469277
sS'sexualgeno'
p18
(i__main__
Node
p19
(dp20
S'depth'
p21
I1
sS'right'
p22
(i__main__
Node
p23
(dp24
g21
I2
sg22
NsS'parent'
p25
g19
sS'float_size'
p26
S'indiv.getEnergy()'
p27
sS'float_bright'
p28
S'indiv.distanceMatingSeason()'
p29
sS'left'
p30
Nsbsg25
Nsg26
S'/'
sg28
S'+'
sg30
(i__main__
Node
p31
(dp32
g21
I2
sg22
Nsg25
g19
sg26
S'indiv.getNumPreysNeigh()'
p33
sg28
S'indiv.randF()'
p34
sg30
NsbsbsS'tailBrigh'
p35
F5.2348202384834792
sS'maxSteering'
p36
I30
sS'energy'
p37
F0.5
sS'lastScale'
p38
F5.5
sb.(i__main__
Data_mobile
p1
(dp2
S'vel_y'
p3
I0
sS'vel_x'
p4
F0.51575292391775107
sS'pos_x'
p5
I-9579
sS'pos_y'
p6
I9779
sS'isAlive'
p7
I00
sS'cumulativeEnergy'
p8
F0.5
sS'geno'
p9
(lp10
F0.0024091847294946955
aF1.992042923606911
aF0.46647404048328922
aF3.901020780874509
aF-0.47855294594221154
aF0.20231169513714387
asS'accel_x'
p11
F0
sS'accel_y'
p12
F0
sS'visionAngle'
p13
I150
sS'maxAccel'
p14
I2
sS'maxVel'
p15
F0.5
sS'age'
p16
I0
sS'tailSize'
p17
F5.1575292391775109
sS'sexualgeno'
p18
(i__main__
Node
p19
(dp20
S'depth'
p21
I1
sS'right'
p22
(i__main__
Node
p23
(dp24
g21
I2
sg22
NsS'parent'
p25
g19
sS'float_size'
p26
S'indiv.getEnergy()'
p27
sS'float_bright'
p28
S'indiv.distanceMatingSeason()'
p29
sS'left'
p30
Nsbsg25
Nsg26
S'/'
sg28
S'+'
sg30
(i__main__
Node
p31
(dp32
g21
I2
sg22
Nsg25
g19
sg26
S'indiv.getNumPreysNeigh()'
p33
sg28
S'indiv.randF()'
p34
sg30
NsbsbsS'tailBrigh'
p35
F9.019666798266611
sS'maxSteering'
p36
I30
sS'energy'
p37
F0.5
sS'lastScale'
p38
F5.5
sb.(i__main__
Data_mobile
p1
(dp2
S'vel_y'
p3
I0
sS'vel_x'
p4
F0.018482027555660308
sS'pos_x'
p5
I-9579
sS'pos_y'
p6
I9779
sS'isAlive'
p7
I00
sS'cumulativeEnergy'
p8
F0.5
sS'geno'
p9
(lp10
F0.0024091847294946955
aF1.992042923606911
aF0.46647404048328922
aF3.901020780874509
aF-0.47855294594221154
aF-0.14476915470953944
asS'accel_x'
p11
F0
sS'accel_y'
p12
F0
sS'visionAngle'
p13
I150
sS'maxAccel'
p14
I2
sS'maxVel'
p15
F0.5
sS'age'
p16
I0
sS'tailSize'
p17
F0.18482027555660308
sS'sexualgeno'
p18
(i__main__
Node
p19
(dp20
S'depth'
p21
I1
sS'right'
p22
(i__main__
Node
p23
(dp24
g21
I2
sg22
NsS'parent'
p25
g19
sS'float_size'
p26
S'indiv.getEnergy()'
p27
sS'float_bright'
p28
S'indiv.distanceMatingSeason()'
p29
sS'left'
p30
Nsbsg25
Nsg26
S'/'
sg28
S'+'
sg30
(i__main__
Node
p31
(dp32
g21
I2
sg22
Nsg25
g19
sg26
S'indiv.getNumPreysNeigh()'
p33
sg28
S'indiv.randF()'
p34
sg30
NsbsbsS'tailBrigh'
p35
F8.2829069714125421
sS'maxSteering'
p36
I30
sS'energy'
p37
F0.5
sS'lastScale'
p38
F5.5
sb.(i__main__
Data_mobile
p1
(dp2
S'vel_y'
p3
I0
sS'vel_x'
p4
F0.85655273325323367
sS'pos_x'
p5
I-9579
sS'pos_y'
p6
I9779
sS'isAlive'
p7
I00
sS'cumulativeEnergy'
p8
F0.5
sS'geno'
p9
(lp10
F0.0024091847294946955
aF1.992042923606911
aF0.78155796079867002
aF4.2056723989579679
aF-0.47855294594221154
aF0.20231169513714387
asS'accel_x'
p11
F0
sS'accel_y'
p12
F0
sS'visionAngle'
p13
I150
sS'maxAccel'
p14
I2
sS'maxVel'
p15
F0.5
sS'age'
p16
I0
sS'tailSize'
p17
F8.5655273325323371
sS'sexualgeno'
p18
(i__main__
Node
p19
(dp20
S'depth'
p21
I1
sS'right'
p22
(i__main__
Node
p23
(dp24
g21
I2
sg22
NsS'parent'
p25
g19
sS'float_size'
p26
S'indiv.getEnergy()'
p27
sS'float_bright'
p28
S'indiv.distanceMatingSeason()'
p29
sS'left'
p30
Nsbsg25
Nsg26
S'/'
sg28
S'+'
sg30
(i__main__
Node
p31
(dp32
g21
I2
sg22
Nsg25
g19
sg26
S'indiv.getNumPreysNeigh()'
p33
sg28
S'indiv.randF()'
p34
sg30
NsbsbsS'tailBrigh'
p35
F7.7875536711291087
sS'maxSteering'
p36
I30
sS'energy'
p37
F0.5
sS'lastScale'
p38
F5.5
sb.(i__main__
Data_mobile
p1
(dp2
S'vel_y'
p3
I0
sS'vel_x'
p4
F0.62692578667516141
sS'pos_x'
p5
I-9579
sS'pos_y'
p6
I9779
sS'isAlive'
p7
I00
sS'cumulativeEnergy'
p8
F0.5
sS'geno'
p9
(lp10
F0.0024091847294946955
aF1.992042923606911
aF0.46647404048328922
aF3.5171953206204769
aF-0.70495038046927316
aF-0.26124388527444087
asS'accel_x'
p11
F0
sS'accel_y'
p12
F0
sS'visionAngle'
p13
I150
sS'maxAccel'
p14
I2
sS'maxVel'
p15
F0.5
sS'age'
p16
I0
sS'tailSize'
p17
F6.2692578667516141
sS'sexualgeno'
p18
(i__main__
Node
p19
(dp20
S'depth'
p21
I1
sS'right'
p22
(i__main__
Node
p23
(dp24
g21
I2
sg22
NsS'parent'
p25
g19
sS'float_size'
p26
S'indiv.getEnergy()'
p27
sS'float_bright'
p28
S'indiv.distanceMatingSeason()'
p29
sS'left'
p30
Nsbsg25
Nsg26
S'/'
sg28
S'+'
sg30
(i__main__
Node
p31
(dp32
g21
I2
sg22
Nsg25
g19
sg26
S'indiv.getNumPreysNeigh()'
p33
sg28
S'indiv.randF()'
p34
sg30
NsbsbsS'tailBrigh'
p35
F0.93396957778204337
sS'maxSteering'
p36
I30
sS'energy'
p37
F0.5
sS'lastScale'
p38
F5.5
sb.(i__main__
Data_mobile
p1
(dp2
S'vel_y'
p3
I0
sS'vel_x'
p4
F0.7074691478760361
sS'pos_x'
p5
I-9579
sS'pos_y'
p6
I9779
sS'isAlive'
p7
I00
sS'cumulativeEnergy'
p8
F0.5
sS'geno'
p9
(lp10
F0.0024091847294946955
aF2.2945236713308512
aF0.4008218856768383
aF3.9299324266843145
aF-0.47855294594221154
aF-0.14476915470953944
asS'accel_x'
p11
F0
sS'accel_y'
p12
F0
sS'visionAngle'
p13
I150
sS'maxAccel'
p14
I2
sS'maxVel'
p15
F0.5
sS'age'
p16
I0
sS'tailSize'
p17
F7.0746914787603608
sS'sexualgeno'
p18
(i__main__
Node
p19
(dp20
S'depth'
p21
I1
sS'right'
p22
(i__main__
Node
p23
(dp24
g21
I2
sg22
NsS'parent'
p25
g19
sS'float_size'
p26
S'indiv.getEnergy()'
p27
sS'float_bright'
p28
S'indiv.distanceMatingSeason()'
p29
sS'left'
p30
Nsbsg25
Nsg26
S'/'
sg28
S'+'
sg30
(i__main__
Node
p31
(dp32
g21
I2
sg22
Nsg25
g19
sg26
S'indiv.getNumPreysNeigh()'
p33
sg28
S'indiv.randF()'
p34
sg30
NsbsbsS'tailBrigh'
p35
F4.2894707579273605
sS'maxSteering'
p36
I30
sS'energy'
p37
F0.5
sS'lastScale'
p38
F5.5
sb.(i__main__
Data_mobile
p1
(dp2
S'vel_y'
p3
I0
sS'vel_x'
p4
F0.10042220998510254
sS'pos_x'
p5
I-9579
sS'pos_y'
p6
I9779
sS'isAlive'
p7
I00
sS'cumulativeEnergy'
p8
F0.5
sS'geno'
p9
(lp10
F0.0024091847294946955
aF2.2945236713308512
aF0.4008218856768383
aF3.9299324266843145
aF-0.47855294594221154
aF-0.26124388527444087
asS'accel_x'
p11
F0
sS'accel_y'
p12
F0
sS'visionAngle'
p13
I150
sS'maxAccel'
p14
I2
sS'maxVel'
p15
F0.5
sS'age'
p16
I0
sS'tailSize'
p17
F1.0042220998510254
sS'sexualgeno'
p18
(i__main__
Node
p19
(dp20
S'depth'
p21
I1
sS'right'
p22
(i__main__
Node
p23
(dp24
g21
I2
sg22
NsS'parent'
p25
g19
sS'float_size'
p26
S'indiv.getEnergy()'
p27
sS'float_bright'
p28
S'indiv.distanceMatingSeason()'
p29
sS'left'
p30
Nsbsg25
Nsg26
S'/'
sg28
S'+'
sg30
(i__main__
Node
p31
(dp32
g21
I2
sg22
Nsg25
g19
sg26
S'indiv.getNumPreysNeigh()'
p33
sg28
S'indiv.randF()'
p34
sg30
NsbsbsS'tailBrigh'
p35
F7.2888062026958123
sS'maxSteering'
p36
I30
sS'energy'
p37
F0.5
sS'lastScale'
p38
F5.5
sb.(i__main__
Data_mobile
p1
(dp2
S'vel_y'
p3
I0
sS'vel_x'
p4
F0.033322438097109663
sS'pos_x'
p5
I-9579
sS'pos_y'
p6
I9779
sS'isAlive'
p7
I00
sS'cumulativeEnergy'
p8
F0.5
sS'geno'
p9
(lp10
F0.0024091847294946955
aF1.992042923606911
aF0.78155796079867002
aF3.8097335090518509
aF-0.47855294594221154
aF-0.0038557465665698398
asS'accel_x'
p11
F0
sS'accel_y'
p12
F0
sS'visionAngle'
p13
I150
sS'maxAccel'
p14
I2
sS'maxVel'
p15
F0.5
sS'age'
p16
I0
sS'tailSize'
p17
F0.33322438097109663
sS'sexualgeno'
p18
(i__main__
Node
p19
(dp20
S'depth'
p21
I1
sS'right'
p22
(i__main__
Node
p23
(dp24
g21
I2
sg22
NsS'parent'
p25
g19
sS'float_size'
p26
S'indiv.getEnergy()'
p27
sS'float_bright'
p28
S'indiv.distanceMatingSeason()'
p29
sS'left'
p30
Nsbsg25
Nsg26
S'/'
sg28
S'+'
sg30
(i__main__
Node
p31
(dp32
g21
I2
sg22
Nsg25
g19
sg26
S'indiv.getNumPreysNeigh()'
p33
sg28
S'indiv.randF()'
p34
sg30
NsbsbsS'tailBrigh'
p35
F0.32757192936814339
sS'maxSteering'
p36
I30
sS'energy'
p37
F0.5
sS'lastScale'
p38
F5.5
sb.