(i__main__
Data_mobile
p1
(dp2
S'vel_y'
p3
F-0.38843698491050893
sS'vel_x'
p4
F-0.3148280622079821
sS'pos_x'
p5
F191.45196574214961
sS'pos_y'
p6
F-90.805758082945715
sS'isAlive'
p7
I01
sS'geno'
p8
(lp9
F1.4791152623939252
aF3.233947867241433
aF-0.70647709766554123
aF4.0864625930455745
aF0.36345448478166298
aF-1.464004626785002
asS'accel_x'
p10
F1.9435359700608665
sS'accel_y'
p11
F0.47187703173556406
sS'maxAccel'
p12
I2
sS'maxVel'
p13
F0.5
sS'age'
p14
I200
sS'gener'
p15
S'm'
sS'lastScale'
p16
F15.30002611903191
sS'energy'
p17
F0.98000261190319093
sb.(i__main__
Data_mobile
p1
(dp2
S'vel_y'
p3
F0.03503090094358239
sS'vel_x'
p4
F-0.49877132634011845
sS'pos_x'
p5
F-110.02716761071446
sS'pos_y'
p6
F-67.479759886493298
sS'isAlive'
p7
I01
sS'geno'
p8
(lp9
F1.3928993223965178
aF3.0041871967343106
aF-0.70647709766554123
aF4.0864625930455745
aF0.36345448478166298
aF-1.0659026377598124
asS'accel_x'
p10
F-1.8519788248418672
sS'accel_y'
p11
F0.75509895532793325
sS'maxAccel'
p12
I2
sS'maxVel'
p13
F0.5
sS'age'
p14
I150
sS'gener'
p15
S'm'
sS'lastScale'
p16
F15.301657194409474
sS'energy'
p17
F0.98016571944094744
sb.(i__main__
Data_mobile
p1
(dp2
S'vel_y'
p3
F-0.41302843219305063
sS'vel_x'
p4
F0.2817933892059048
sS'pos_x'
p5
F-26.54490275531117
sS'pos_y'
p6
F-88.198815727951384
sS'isAlive'
p7
I01
sS'geno'
p8
(lp9
F1.4791152623939252
aF3.2365379063945072
aF0.067674834691896391
aF3.8410632284168855
aF3.3037806157091634
aF1.3780561181917408
asS'accel_x'
p10
F1.4631855815196668
sS'accel_y'
p11
F1.3634837564243127
sS'maxAccel'
p12
I2
sS'maxVel'
p13
F0.5
sS'age'
p14
I150
sS'gener'
p15
S'm'
sS'lastScale'
p16
F15.301657194409474
sS'energy'
p17
F0.98016571944094744
sb.(i__main__
Data_mobile
p1
(dp2
S'vel_y'
p3
F0.18144080062561102
sS'vel_x'
p4
F-0.46591762777162371
sS'pos_x'
p5
F171.63528386329364
sS'pos_y'
p6
F66.24857105890753
sS'isAlive'
p7
I01
sS'geno'
p8
(lp9
F1.3928993223965178
aF3.0041871967343106
aF-4.3706325612150279
aF2.1587488829837111
aF0.36345448478166298
aF-1.0659026377598124
asS'accel_x'
p10
F-1.4943786025266728
sS'accel_y'
p11
F-1.3292225518363843
sS'maxAccel'
p12
I2
sS'maxVel'
p13
F0.5
sS'age'
p14
I150
sS'gener'
p15
S'm'
sS'lastScale'
p16
F15.301657194409474
sS'energy'
p17
F0.98016571944094744
sb.(i__main__
Data_mobile
p1
(dp2
S'vel_y'
p3
F0.49845548249197719
sS'vel_x'
p4
F-0.039269988205884232
sS'pos_x'
p5
F-25.741878700888822
sS'pos_y'
p6
F-87.038913764915065
sS'isAlive'
p7
I01
sS'geno'
p8
(lp9
F2.4890001832964437
aF-2.6776094896637903
aF-0.70647709766554123
aF3.8410632284168855
aF3.3037806157091634
aF1.3780561181917408
asS'accel_x'
p10
F-1.8489548514845791
sS'accel_y'
p11
F-0.76247357801542071
sS'maxAccel'
p12
I2
sS'maxVel'
p13
F0.5
sS'age'
p14
I150
sS'gener'
p15
S'm'
sS'lastScale'
p16
F15.301657194409474
sS'energy'
p17
F0.98016571944094744
sb.(i__main__
Data_mobile
p1
(dp2
S'vel_y'
p3
F0.1784925723743872
sS'vel_x'
p4
F-0.46705503059829484
sS'pos_x'
p5
F-163.7847231363121
sS'pos_y'
p6
F-42.568428379683986
sS'isAlive'
p7
I01
sS'geno'
p8
(lp9
F2.4890001832964437
aF-2.6776094896637903
aF-0.70647709766554123
aF3.8410632284168855
aF0.36345448478166298
aF-1.0659026377598124
asS'accel_x'
p10
F-1.9830603776673734
sS'accel_y'
p11
F0.25975284122745279
sS'maxAccel'
p12
I2
sS'maxVel'
p13
F0.5
sS'age'
p14
I150
sS'gener'
p15
S'm'
sS'lastScale'
p16
F15.301657194409474
sS'energy'
p17
F0.98016571944094744
sb.(i__main__
Data_mobile
p1
(dp2
S'vel_y'
p3
F0.3776237986254134
sS'vel_x'
p4
F0.32771979908408522
sS'pos_x'
p5
F-112.14329235210037
sS'pos_y'
p6
F70.516606506859773
sS'isAlive'
p7
I01
sS'geno'
p8
(lp9
F2.4890001832964437
aF-2.6776094896637903
aF-1.1549468185739724
aF4.2580018541844362
aF0.36345448478166298
aF-1.0659026377598124
asS'accel_x'
p10
F-0.91341673090549158
sS'accel_y'
p11
F-1.7792329458791853
sS'maxAccel'
p12
I2
sS'maxVel'
p13
F0.5
sS'age'
p14
I200
sS'gener'
p15
S'm'
sS'lastScale'
p16
F15.30002611903191
sS'energy'
p17
F0.96541831673535894
sb.(i__main__
Data_mobile
p1
(dp2
S'vel_y'
p3
F0.38490431428925903
sS'vel_x'
p4
F-0.31913738239434641
sS'pos_x'
p5
F-188.0109600993633
sS'pos_y'
p6
F-68.333190654966685
sS'isAlive'
p7
I01
sS'geno'
p8
(lp9
F1.3928993223965178
aF3.0041871967343106
aF-1.1549468185739724
aF4.2580018541844362
aF3.9498060698670749
aF0.95780528664904629
asS'accel_x'
p10
F-1.4908979418133348
sS'accel_y'
p11
F-1.3331253981140565
sS'maxAccel'
p12
I2
sS'maxVel'
p13
F0.5
sS'age'
p14
I150
sS'gener'
p15
S'm'
sS'lastScale'
p16
F14.312315783621303
sS'energy'
p17
F0.8812315783621304
sb.(i__main__
Data_mobile
p1
(dp2
S'vel_y'
p3
F0.48559600976488299
sS'vel_x'
p4
F0.11914913050636859
sS'pos_x'
p5
F-188.47917317168066
sS'pos_y'
p6
F-68.614478126522599
sS'isAlive'
p7
I01
sS'geno'
p8
(lp9
F1.4788969826633194
aF3.0041871967343106
aF-1.1549468185739724
aF4.2580018541844362
aF3.9498060698670749
aF0.95780528664904629
asS'accel_x'
p10
F-1.5954557370141733
sS'accel_y'
p11
F1.2060352363130031
sS'maxAccel'
p12
I2
sS'maxVel'
p13
F0.5
sS'age'
p14
I150
sS'gener'
p15
S'm'
sS'lastScale'
p16
F14.115018974444606
sS'energy'
p17
F0.86150189744446071
sb.(i__main__
Data_mobile
p1
(dp2
S'vel_y'
p3
F-0.47768004109815165
sS'vel_x'
p4
F-0.14772196294548798
sS'pos_x'
p5
F-20.499966105273518
sS'pos_y'
p6
F-65.836116573962059
sS'isAlive'
p7
I01
sS'geno'
p8
(lp9
F1.4791152623939252
aF3.233947867241433
aF-0.70647709766554123
aF3.8410632284168855
aF4.1565226783161222
aF0.95780528664904629
asS'accel_x'
p10
F-0.28634712100743781
sS'accel_y'
p11
F-1.9793951920449722
sS'maxAccel'
p12
I2
sS'maxVel'
p13
F0.5
sS'age'
p14
I200
sS'gener'
p15
S'm'
sS'lastScale'
p16
F13.700335671336031
sS'energy'
p17
F0.82003356713360331
sb.(i__main__
Data_mobile
p1
(dp2
S'vel_y'
p3
F0.41566469740876666
sS'vel_x'
p4
F0.27789001300528676
sS'pos_x'
p5
F-105.19754473592685
sS'pos_y'
p6
F26.931841168760531
sS'isAlive'
p7
I01
sS'geno'
p8
(lp9
F1.4791152623939252
aF3.233947867241433
aF-0.62407996810055244
aF3.8410632284168855
aF0.36345448478166298
aF-1.0659026377598124
asS'accel_x'
p10
F-1.5920406243795018
sS'accel_y'
p11
F1.2105398177364204
sS'maxAccel'
p12
I2
sS'maxVel'
p13
F0.5
sS'age'
p14
I150
sS'gener'
p15
S'm'
sS'lastScale'
p16
F12.34551631953773
sS'energy'
p17
F0.684551631953773
sb.(i__main__
Data_mobile
p1
(dp2
S'vel_y'
p3
F-0.22775090603670495
sS'vel_x'
p4
F0.44511742810123711
sS'pos_x'
p5
F124.25063493904925
sS'pos_y'
p6
F-15.514129954128542
sS'isAlive'
p7
I01
sS'geno'
p8
(lp9
F2.4890001832964437
aF2.9101449775675556
aF-0.42199109741416163
aF3.5047429633164442
aF0.36345448478166298
aF-1.0659026377598124
asS'accel_x'
p10
F1.7990572477066324
sS'accel_y'
p11
F-0.87372365166237587
sS'maxAccel'
p12
I2
sS'maxVel'
p13
F0.5
sS'age'
p14
I200
sS'gener'
p15
S'm'
sS'lastScale'
p16
F11.701162929120979
sS'energy'
p17
F0.62011629291209791
sb.(i__main__
Data_mobile
p1
(dp2
S'vel_y'
p3
F-0.077145314492848477
sS'vel_x'
p4
F-0.49401275332910133
sS'pos_x'
p5
F103.75620577751286
sS'pos_y'
p6
F-4.8942864898151406
sS'isAlive'
p7
I01
sS'geno'
p8
(lp9
F2.4890001832964437
aF-2.6776094896637903
aF-0.70647709766554123
aF3.8410632284168855
aF0.36345448478166298
aF-1.0659026377598124
asS'accel_x'
p10
F-0.70481968135101281
sS'accel_y'
p11
F-1.8716915388974376
sS'maxAccel'
p12
I2
sS'maxVel'
p13
F0.5
sS'age'
p14
I200
sS'gener'
p15
S'm'
sS'lastScale'
p16
F11.701162929120979
sS'energy'
p17
F0.62011629291209791
sb.(i__main__
Data_mobile
p1
(dp2
S'vel_y'
p3
F-0.24439871594495394
sS'vel_x'
p4
F0.43619865616993558
sS'pos_x'
p5
F122.4555005892545
sS'pos_y'
p6
F-16.901712389113143
sS'isAlive'
p7
I01
sS'geno'
p8
(lp9
F1.4504295728376242
aF3.233947867241433
aF-0.70647709766554123
aF2.4569511785486742
aF0.36345448478166298
aF-1.2922838717349872
asS'accel_x'
p10
F1.7897396203463434
sS'accel_y'
p11
F-0.89265451960012332
sS'maxAccel'
p12
I2
sS'maxVel'
p13
F0.5
sS'age'
p14
I200
sS'gener'
p15
S'm'
sS'lastScale'
p16
F11.501290030747288
sS'energy'
p17
F0.60012900307472872
sb.(i__main__
Data_mobile
p1
(dp2
S'vel_y'
p3
F-0.41897962115524301
sS'vel_x'
p4
F0.27286640880952912
sS'pos_x'
p5
F191.7703808833206
sS'pos_y'
p6
F-91.091949117273003
sS'isAlive'
p7
I01
sS'geno'
p8
(lp9
F1.4791152623939252
aF3.233947867241433
aF-0.70647709766554123
aF4.2580018541844362
aF0.36345448478166298
aF-1.0659026377598124
asS'accel_x'
p10
F1.1831599577707088
sS'accel_y'
p11
F1.6124926400849136
sS'maxAccel'
p12
I2
sS'maxVel'
p13
F0.5
sS'age'
p14
I100
sS'gener'
p15
S'm'
sS'lastScale'
p16
F15.352082128537274
sS'energy'
p17
F0.98520821285372739
sb.(i__main__
Data_mobile
p1
(dp2
S'vel_y'
p3
F0.40768149049647096
sS'vel_x'
p4
F0.28947504608614505
sS'pos_x'
p5
F-104.77603653748028
sS'pos_y'
p6
F28.181841456601564
sS'isAlive'
p7
I01
sS'geno'
p8
(lp9
F1.4791152623939252
aF2.9101449775675556
aF-0.42199109741416163
aF3.5047429633164442
aF0.36345448478166298
aF-1.0659026377598124
asS'accel_x'
p10
F-1.9912958284726494
sS'accel_y'
p11
F-0.18638917218396733
sS'maxAccel'
p12
I2
sS'maxVel'
p13
F0.5
sS'age'
p14
I100
sS'gener'
p15
S'm'
sS'lastScale'
p16
F15.352082128537274
sS'energy'
p17
F0.98520821285372739
sb.(i__main__
Data_mobile
p1
(dp2
S'vel_y'
p3
F0.12086832735153261
sS'vel_x'
p4
F-0.48517094661906823
sS'pos_x'
p5
F90.478585372289658
sS'pos_y'
p6
F50.638338471143442
sS'isAlive'
p7
I01
sS'geno'
p8
(lp9
F2.4890001832964437
aF-2.6776094896637903
aF-0.71225979133164552
aF3.8410632284168855
aF0.1931972472696154
aF-1.0659026377598124
asS'accel_x'
p10
F1.4296697352519785
sS'accel_y'
p11
F1.3985865894196674
sS'maxAccel'
p12
I2
sS'maxVel'
p13
F0.5
sS'age'
p14
I100
sS'gener'
p15
S'm'
sS'lastScale'
p16
F15.352082128537274
sS'energy'
p17
F0.98520821285372739
sb.(i__main__
Data_mobile
p1
(dp2
S'vel_y'
p3
F-0.27126650966627835
sS'vel_x'
p4
F0.4200172386146489
sS'pos_x'
p5
F-26.48456063024863
sS'pos_y'
p6
F-87.631520697119996
sS'isAlive'
p7
I01
sS'geno'
p8
(lp9
F1.4791152623939252
aF3.233947867241433
aF-0.70647709766554123
aF3.8410632284168855
aF3.5062709034588835
aF1.3780561181917408
asS'accel_x'
p10
F1.9998662522493036
sS'accel_y'
p11
F-0.023129485820598615
sS'maxAccel'
p12
I2
sS'maxVel'
p13
F0.5
sS'age'
p14
I100
sS'gener'
p15
S'm'
sS'lastScale'
p16
F15.352082128537274
sS'energy'
p17
F0.98520821285372739
sb.(i__main__
Data_mobile
p1
(dp2
S'vel_y'
p3
F-0.4417713775992797
sS'vel_x'
p4
F-0.2341752547431829
sS'pos_x'
p5
F-190.30360430281607
sS'pos_y'
p6
F-36.631118493552272
sS'isAlive'
p7
I01
sS'geno'
p8
(lp9
F1.4791152623939252
aF3.2365379063945072
aF-0.32174967798933007
aF4.0757753881558507
aF0.72036273250514826
aF-1.0659026377598124
asS'accel_x'
p10
F-0.19491580077993967
sS'accel_y'
p11
F-1.990479296703765
sS'maxAccel'
p12
I2
sS'maxVel'
p13
F0.5
sS'age'
p14
I100
sS'gener'
p15
S'm'
sS'lastScale'
p16
F15.352082128537274
sS'energy'
p17
F0.98520821285372739
sb.(i__main__
Data_mobile
p1
(dp2
S'vel_y'
p3
F-0.16719304693998821
sS'vel_x'
p4
F-0.47121808651082447
sS'pos_x'
p5
F29.897277063867083
sS'pos_y'
p6
F-29.882105598201662
sS'isAlive'
p7
I01
sS'geno'
p8
(lp9
F1.4791152623939252
aF-2.6776094896637903
aF-4.1786559897674795
aF2.1587488829837111
aF0.36345448478166298
aF-1.0659026377598124
asS'accel_x'
p10
F-0.62911103105735899
sS'accel_y'
p11
F-1.898478156472164
sS'maxAccel'
p12
I2
sS'maxVel'
p13
F0.5
sS'age'
p14
I100
sS'gener'
p15
S'm'
sS'lastScale'
p16
F15.352082128537274
sS'energy'
p17
F0.98520821285372739
sb.(i__main__
Data_mobile
p1
(dp2
S'vel_y'
p3
F-0.49981424350225195
sS'vel_x'
p4
F-0.013627985627803711
sS'pos_x'
p5
F38.232880986722201
sS'pos_y'
p6
F69.936427658867004
sS'isAlive'
p7
I01
sS'geno'
p8
(lp9
F1.1582187359194531
aF2.5094107181069023
aF-1.1549468185739724
aF4.4976539554581976
aF0.36345448478166298
aF0.95780528664904629
asS'accel_x'
p10
F-0.9617348782204258
sS'accel_y'
p11
F-1.7535866171975489
sS'maxAccel'
p12
I2
sS'maxVel'
p13
F0.5
sS'age'
p14
I100
sS'gener'
p15
S'm'
sS'lastScale'
p16
F15.352082128537274
sS'energy'
p17
F0.98520821285372739
sb.(i__main__
Data_mobile
p1
(dp2
S'vel_y'
p3
F0.49988052373393516
sS'vel_x'
p4
F0.0109298669473468
sS'pos_x'
p5
F8.4442280257578748
sS'pos_y'
p6
F-61.944393306214373
sS'isAlive'
p7
I01
sS'geno'
p8
(lp9
F1.4791152623939252
aF3.233947867241433
aF-4.1786559897674795
aF4.2580018541844362
aF0.72036273250514826
aF-1.0659026377598124
asS'accel_x'
p10
F-1.7273033959754045
sS'accel_y'
p11
F1.0081780488841423
sS'maxAccel'
p12
I2
sS'maxVel'
p13
F0.5
sS'age'
p14
I100
sS'gener'
p15
S'm'
sS'lastScale'
p16
F15.352082128537274
sS'energy'
p17
F0.98520821285372739
sb.(i__main__
Data_mobile
p1
(dp2
S'vel_y'
p3
F-0.0070664707115617818
sS'vel_x'
p4
F0.49995006249792856
sS'pos_x'
p5
F171.95344807538487
sS'pos_y'
p6
F66.018464894202168
sS'isAlive'
p7
I01
sS'geno'
p8
(lp9
F1.463403599297481
aF2.5094107181069023
aF-1.1549468185739724
aF4.2580018541844362
aF0.36345448478166298
aF-1.0659026377598124
asS'accel_x'
p10
F-1.9910524957871749
sS'accel_y'
p11
F-0.18897078879991286
sS'maxAccel'
p12
I2
sS'maxVel'
p13
F0.5
sS'age'
p14
I100
sS'gener'
p15
S'm'
sS'lastScale'
p16
F15.352082128537274
sS'energy'
p17
F0.98520821285372739
sb.(i__main__
Data_mobile
p1
(dp2
S'vel_y'
p3
F0.15244075719015146
sS'vel_x'
p4
F0.47619514439701427
sS'pos_x'
p5
F171.10177923634708
sS'pos_y'
p6
F66.068336897278755
sS'isAlive'
p7
I01
sS'geno'
p8
(lp9
F1.2882485922868314
aF2.7609841011473684
aF-1.1549468185739724
aF4.2580018541844362
aF0.72036273250514826
aF-1.0659026377598124
asS'accel_x'
p10
F-0.8094244101910717
sS'accel_y'
p11
F-1.8288882208015982
sS'maxAccel'
p12
I2
sS'maxVel'
p13
F0.5
sS'age'
p14
I100
sS'gener'
p15
S'm'
sS'lastScale'
p16
F15.352082128537274
sS'energy'
p17
F0.98520821285372739
sb.(i__main__
Data_mobile
p1
(dp2
S'vel_y'
p3
F0.0381296750673603
sS'vel_x'
p4
F-0.49854400796645576
sS'pos_x'
p5
F191.95316612878545
sS'pos_y'
p6
F-90.255940776319676
sS'isAlive'
p7
I01
sS'geno'
p8
(lp9
F1.3928993223965178
aF3.0041871967343106
aF-0.70647709766554123
aF3.5047429633164442
aF0.36345448478166298
aF-1.0659026377598124
asS'accel_x'
p10
F1.1332854166835269
sS'accel_y'
p11
F-1.647927232717648
sS'maxAccel'
p12
I2
sS'maxVel'
p13
F0.5
sS'age'
p14
I100
sS'gener'
p15
S'm'
sS'lastScale'
p16
F15.352082128537274
sS'energy'
p17
F0.98520821285372739
sb.(i__main__
Data_mobile
p1
(dp2
S'vel_y'
p3
F0.11569744355605095
sS'vel_x'
p4
F0.48642995544538004
sS'pos_x'
p5
F82.643899097905646
sS'pos_y'
p6
F-19.319646206789869
sS'isAlive'
p7
I01
sS'geno'
p8
(lp9
F1.4791152623939252
aF2.9101449775675556
aF-0.42199109741416163
aF3.5047429633164442
aF0.36345448478166298
aF-1.0659026377598124
asS'accel_x'
p10
F0.57262825961804242
sS'accel_y'
p11
F1.9162716081721849
sS'maxAccel'
p12
I2
sS'maxVel'
p13
F0.5
sS'age'
p14
I100
sS'gener'
p15
S'm'
sS'lastScale'
p16
F15.352082128537274
sS'energy'
p17
F0.98520821285372739
sb.(i__main__
Data_mobile
p1
(dp2
S'vel_y'
p3
F-0.074435493397600777
sS'vel_x'
p4
F-0.49442831363369127
sS'pos_x'
p5
F191.75487550335095
sS'pos_y'
p6
F-90.021896421240882
sS'isAlive'
p7
I01
sS'geno'
p8
(lp9
F1.3928993223965178
aF2.8884968895837031
aF-0.70647709766554123
aF4.4976539554581976
aF0.36345448478166298
aF0.95780528664904629
asS'accel_x'
p10
F1.030074233284453
sS'accel_y'
p11
F-1.714335752973567
sS'maxAccel'
p12
I2
sS'maxVel'
p13
F0.5
sS'age'
p14
I100
sS'gener'
p15
S'm'
sS'lastScale'
p16
F15.352082128537274
sS'energy'
p17
F0.98520821285372739
sb.(i__main__
Data_mobile
p1
(dp2
S'vel_y'
p3
F0.49645453589119259
sS'vel_x'
p4
F-0.059438150989583903
sS'pos_x'
p5
F-25.698427555637576
sS'pos_y'
p6
F-86.863807250845539
sS'isAlive'
p7
I01
sS'geno'
p8
(lp9
F2.7371748793182529
aF-2.6776094896637903
aF-0.70647709766554123
aF3.8410632284168855
aF4.1565226783161222
aF0.95780528664904629
asS'accel_x'
p10
F-1.6787305211342236
sS'accel_y'
p11
F-1.0871356113256607
sS'maxAccel'
p12
I2
sS'maxVel'
p13
F0.5
sS'age'
p14
I100
sS'gener'
p15
S'm'
sS'lastScale'
p16
F15.352082128537274
sS'energy'
p17
F0.98520821285372739
sb.(i__main__
Data_mobile
p1
(dp2
S'vel_y'
p3
F0.19612200564188204
sS'vel_x'
p4
F0.4599306022684353
sS'pos_x'
p5
F193.00881075230942
sS'pos_y'
p6
F-90.143623139994446
sS'isAlive'
p7
I01
sS'geno'
p8
(lp9
F1.7377653110734252
aF2.8368423552163899
aF-1.1537110361743932
aF3.8410632284168855
aF0.43748131028536075
aF-1.0659026377598124
asS'accel_x'
p10
F-1.4870631796621181
sS'accel_y'
p11
F-1.337401622435531
sS'maxAccel'
p12
I2
sS'maxVel'
p13
F0.5
sS'age'
p14
I100
sS'gener'
p15
S'm'
sS'lastScale'
p16
F15.352082128537274
sS'energy'
p17
F0.98520821285372739
sb.(i__main__
Data_mobile
p1
(dp2
S'vel_y'
p3
F-0.048570191928118268
sS'vel_x'
p4
F0.49763534486214478
sS'pos_x'
p5
F31.108122285917577
sS'pos_y'
p6
F-30.375816053311802
sS'isAlive'
p7
I01
sS'geno'
p8
(lp9
F1.4791152623939252
aF2.9101449775675556
aF-0.42199109741416163
aF4.3323883894199122
aF0.36345448478166298
aF-1.0659026377598124
asS'accel_x'
p10
F-1.8354256742948531
sS'accel_y'
p11
F-0.79448888861914491
sS'maxAccel'
p12
I2
sS'maxVel'
p13
F0.5
sS'age'
p14
I100
sS'gener'
p15
S'm'
sS'lastScale'
p16
F15.352082128537274
sS'energy'
p17
F0.98520821285372739
sb.(i__main__
Data_mobile
p1
(dp2
S'vel_y'
p3
F0.47681906264055957
sS'vel_x'
p4
F-0.15047784389264138
sS'pos_x'
p5
F84.209343368450178
sS'pos_y'
p6
F-16.34532515436814
sS'isAlive'
p7
I01
sS'geno'
p8
(lp9
F2.4890001832964437
aF-2.6776094896637903
aF-0.99390418481812726
aF3.8410632284168855
aF0.36345448478166298
aF0.95780528664904629
asS'accel_x'
p10
F-1.6548784590865451
sS'accel_y'
p11
F-1.1231105402636656
sS'maxAccel'
p12
I2
sS'maxVel'
p13
F0.5
sS'age'
p14
I100
sS'gener'
p15
S'm'
sS'lastScale'
p16
F15.206239176858954
sS'energy'
p17
F0.9706239176858954
sb.(i__main__
Data_mobile
p1
(dp2
S'vel_y'
p3
F0.44316383576968693
sS'vel_x'
p4
F0.23152929548093468
sS'pos_x'
p5
F-106.04811791912516
sS'pos_y'
p6
F27.876683386791331
sS'isAlive'
p7
I01
sS'geno'
p8
(lp9
F1.4788969826633194
aF3.0041871967343106
aF-0.70647709766554123
aF4.0757753881558507
aF0.24949216754519654
aF-0.63785499925596367
asS'accel_x'
p10
F0.64982292930791663
sS'accel_y'
p11
F1.8914888740211182
sS'maxAccel'
p12
I2
sS'maxVel'
p13
F0.5
sS'age'
p14
I100
sS'gener'
p15
S'm'
sS'lastScale'
p16
F15.352082128537274
sS'energy'
p17
F0.94207138475937657
sb.(i__main__
Data_mobile
p1
(dp2
S'vel_y'
p3
F-0.37229545720170182
sS'vel_x'
p4
F0.33376053173941317
sS'pos_x'
p5
F-165.41728302049751
sS'pos_y'
p6
F-46.006552348156525
sS'isAlive'
p7
I01
sS'geno'
p8
(lp9
F1.4788969826633194
aF3.0041871967343106
aF-0.70647709766554123
aF4.1689929293833492
aF0.36345448478166298
aF-1.0659026377598124
asS'accel_x'
p10
F1.8561405555548731
sS'accel_y'
p11
F-0.74481020268552145
sS'maxAccel'
p12
I2
sS'maxVel'
p13
F0.5
sS'age'
p14
I150
sS'gener'
p15
S'm'
sS'lastScale'
p16
F10.26869694613201
sS'energy'
p17
F0.47686969461320089
sb.(i__main__
Data_mobile
p1
(dp2
S'vel_y'
p3
F0.48510470360382696
sS'vel_x'
p4
F0.12113391986327857
sS'pos_x'
p5
F-105.93739322479607
sS'pos_y'
p6
F28.543637087444793
sS'isAlive'
p7
I01
sS'geno'
p8
(lp9
F1.4788969826633194
aF3.1906151742347939
aF0.033322090767515244
aF4.0757753881558507
aF0.14512622284543397
aF-0.63785499925596367
asS'accel_x'
p10
F0.85824242839804687
sS'accel_y'
p11
F-1.8064938234318502
sS'maxAccel'
p12
I2
sS'maxVel'
p13
F0.5
sS'age'
p14
I100
sS'gener'
p15
S'm'
sS'lastScale'
p16
F15.352082128537274
sS'energy'
p17
F0.92225124685899751
sb.(i__main__
Data_mobile
p1
(dp2
S'vel_y'
p3
F-0.24454356259647611
sS'vel_x'
p4
F0.43611746811223157
sS'pos_x'
p5
F121.89295172344221
sS'pos_y'
p6
F-16.123273081583232
sS'isAlive'
p7
I01
sS'geno'
p8
(lp9
F1.4791152623939252
aF3.233947867241433
aF-0.70647709766554123
aF3.8410632284168855
aF0.23065677590498457
aF-1.0659026377598124
asS'accel_x'
p10
F1.8152823263157452
sS'accel_y'
p11
F-0.83949394027931867
sS'maxAccel'
p12
I2
sS'maxVel'
p13
F0.5
sS'age'
p14
I100
sS'gener'
p15
S'm'
sS'lastScale'
p16
F13.008695600354578
sS'energy'
p17
F0.75086956003545768
sb.(i__main__
Data_mobile
p1
(dp2
S'vel_y'
p3
F-0.233524337993014
sS'vel_x'
p4
F0.44211580334220646
sS'pos_x'
p5
F122.71293252096046
sS'pos_y'
p6
F-16.861953744895519
sS'isAlive'
p7
I01
sS'geno'
p8
(lp9
F1.4791152623939252
aF2.8938526491787857
aF-0.70647709766554123
aF3.8410632284168855
aF4.1565226783161222
aF-1.0659026377598124
asS'accel_x'
p10
F1.8067892016328355
sS'accel_y'
p11
F-0.85762041770411523
sS'maxAccel'
p12
I2
sS'maxVel'
p13
F0.5
sS'age'
p14
I100
sS'gener'
p15
S'm'
sS'lastScale'
p16
F12.892808689866486
sS'energy'
p17
F0.73928086898664858
sb.(i__main__
Data_mobile
p1
(dp2
S'vel_y'
p3
F-0.36211220818773648
sS'vel_x'
p4
F0.34478217570141495
sS'pos_x'
p5
F-165.17452289612524
sS'pos_y'
p6
F-47.139163588177766
sS'isAlive'
p7
I01
sS'geno'
p8
(lp9
F1.4791152623939252
aF3.233947867241433
aF-0.70647709766554123
aF3.8410632284168855
aF0.36345448478166298
aF-1.0659026377598124
asS'accel_x'
p10
F1.910780005863673
sS'accel_y'
p11
F-0.59069431112176918
sS'maxAccel'
p12
I2
sS'maxVel'
p13
F0.5
sS'age'
p14
I306
sS'gener'
p15
S'm'
sS'lastScale'
p16
F8.5000018198303469
sS'energy'
p17
F0.30000018198303474
sb.(i__main__
Data_mobile
p1
(dp2
S'vel_y'
p3
F-0.45646790293571227
sS'vel_x'
p4
F0.20405159541026194
sS'pos_x'
p5
F-166.88103337428728
sS'pos_y'
p6
F-44.369062307508294
sS'isAlive'
p7
I01
sS'geno'
p8
(lp9
F1.4791152623939252
aF3.233947867241433
aF-4.1786559897674795
aF4.2580018541844362
aF0.14512622284543397
aF-0.63785499925596367
asS'accel_x'
p10
F1.6316482815906612
sS'accel_y'
p11
F-1.1566001405767865
sS'maxAccel'
p12
I2
sS'maxVel'
p13
F0.5
sS'age'
p14
I100
sS'gener'
p15
S'm'
sS'lastScale'
p16
F11.322108776216197
sS'energy'
p17
F0.58221087762161983
sb.(i__main__
Data_mobile
p1
(dp2
S'vel_y'
p3
F-0.4981064160117602
sS'vel_x'
p4
F-0.043474111007809409
sS'pos_x'
p5
F-147.45102025503257
sS'pos_y'
p6
F39.96942523472395
sS'isAlive'
p7
I01
sS'geno'
p8
(lp9
F1.4791152623939252
aF-2.6776094896637903
aF-4.1786559897674795
aF2.1587488829837111
aF0.36345448478166298
aF-1.0659026377598124
asS'accel_x'
p10
F-0.62707338873200991
sS'accel_y'
p11
F1.8991521700864713
sS'maxAccel'
p12
I2
sS'maxVel'
p13
F0.5
sS'age'
p14
I100
sS'gener'
p15
S'm'
sS'lastScale'
p16
F11.149014660429753
sS'energy'
p17
F0.56490146604297531
sb.(i__main__
Data_mobile
p1
(dp2
S'vel_y'
p3
F-0.40007835378882095
sS'vel_x'
p4
F0.29989549984890906
sS'pos_x'
p5
F-165.52732541868068
sS'pos_y'
p6
F-46.397710092115588
sS'isAlive'
p7
I01
sS'geno'
p8
(lp9
F1.4788969826633194
aF3.0041871967343106
aF-0.70647709766554123
aF3.8410632284168855
aF0.36345448478166298
aF-1.0659026377598124
asS'accel_x'
p10
F1.9280566060735469
sS'accel_y'
p11
F-0.53159921348338679
sS'maxAccel'
p12
I2
sS'maxVel'
p13
F0.5
sS'age'
p14
I150
sS'gener'
p15
S'm'
sS'lastScale'
p16
F8.2686969461320103
sS'energy'
p17
F0.27686969461320105
sb.(i__main__
Data_mobile
p1
(dp2
S'vel_y'
p3
F0.42647271926103847
sS'vel_x'
p4
F-0.26100003778945224
sS'pos_x'
p5
F6.4642360041883054
sS'pos_y'
p6
F-66.061253293509054
sS'isAlive'
p7
I01
sS'geno'
p8
(lp9
F1.4791152623939252
aF-2.6776094896637903
aF-4.1786559897674795
aF2.1587488829837111
aF0.36345448478166298
aF-1.0659026377598124
asS'accel_x'
p10
F-1.9981442878864399
sS'accel_y'
p11
F0.086135966859330157
sS'maxAccel'
p12
I2
sS'maxVel'
p13
F0.5
sS'age'
p14
I200
sS'gener'
p15
S'm'
sS'lastScale'
p16
F8.1147066311273264
sS'energy'
p17
F0.2614706631127327
sb.(i__main__
Data_mobile
p1
(dp2
S'vel_y'
p3
F0.43583107892315881
sS'vel_x'
p4
F-0.24505360769569443
sS'pos_x'
p5
F-188.34066026878656
sS'pos_y'
p6
F-69.683180546432908
sS'isAlive'
p7
I01
sS'geno'
p8
(lp9
F1.9609053855790466
aF3.0041871967343106
aF-1.1549468185739724
aF4.4976539554581976
aF-0.054407076510489594
aF0.95780528664904629
asS'accel_x'
p10
F-1.8441458577247656
sS'accel_y'
p11
F0.77403233487793599
sS'maxAccel'
p12
I2
sS'maxVel'
p13
F0.5
sS'age'
p14
I100
sS'gener'
p15
S'm'
sS'lastScale'
p16
F9.6936860246228829
sS'energy'
p17
F0.4193686024622883
sb.(i__main__
Data_mobile
p1
(dp2
S'vel_y'
p3
F0.32501124152197697
sS'vel_x'
p4
F0.37995748825933562
sS'pos_x'
p5
F-93.536855986858257
sS'pos_y'
p6
F-39.757142909900104
sS'isAlive'
p7
I01
sS'geno'
p8
(lp9
F2.4890001832964437
aF-2.6776094896637903
aF-4.2124716618318372
aF2.1587488829837111
aF4.1835885176971548
aF0.95780528664904629
asS'accel_x'
p10
F1.2859380068219841
sS'accel_y'
p11
F1.5317843982136332
sS'maxAccel'
p12
I2
sS'maxVel'
p13
F0.5
sS'age'
p14
I150
sS'gener'
p15
S'm'
sS'lastScale'
p16
F8.2319042712366244
sS'energy'
p17
F0.17319042712366242
sb.(i__main__
Data_mobile
p1
(dp2
S'vel_y'
p3
F-0.38156349294600866
sS'vel_x'
p4
F-0.32312428081288042
sS'pos_x'
p5
F208.75265122959621
sS'pos_y'
p6
F-1.2773688669972429
sS'isAlive'
p7
I01
sS'geno'
p8
(lp9
F1.3928993223965178
aF3.1906151742347939
aF0.033322090767515244
aF3.8410632284168855
aF0.36345448478166298
aF-1.2084462482825236
asS'accel_x'
p10
F-0.44500701626191919
sS'accel_y'
p11
F-1.9498637786978004
sS'maxAccel'
p12
I2
sS'maxVel'
p13
F0.5
sS'age'
p14
I100
sS'gener'
p15
S'm'
sS'lastScale'
p16
F8.7007781540004849
sS'energy'
p17
F0.32007781540004848
sb.(i__main__
Data_mobile
p1
(dp2
S'vel_y'
p3
F-0.47964454879019786
sS'vel_x'
p4
F-0.14121298387842207
sS'pos_x'
p5
F209.17398544043718
sS'pos_y'
p6
F1.2984741196333678
sS'isAlive'
p7
I01
sS'geno'
p8
(lp9
F1.3928993223965178
aF3.0041871967343106
aF-0.70647709766554123
aF3.8410632284168855
aF0.36345448478166298
aF-1.0659026377598124
asS'accel_x'
p10
F-1.1479187923167677
sS'accel_y'
p11
F-1.6377675189861391
sS'maxAccel'
p12
I2
sS'maxVel'
p13
F0.5
sS'age'
p14
I100
sS'gener'
p15
S'm'
sS'lastScale'
p16
F8.7007781540004849
sS'energy'
p17
F0.32007781540004848
sb.(i__main__
Data_mobile
p1
(dp2
S'vel_y'
p3
F-0.48825343879588601
sS'vel_x'
p4
F0.10774311812822196
sS'pos_x'
p5
F208.60368425601467
sS'pos_y'
p6
F-18.159316074166547
sS'isAlive'
p7
I01
sS'geno'
p8
(lp9
F1.4791152623939252
aF2.9101449775675556
aF-0.21869659278044629
aF3.7261279256763173
aF0.36345448478166298
aF-1.0659026377598124
asS'accel_x'
p10
F0.31857547535923658
sS'accel_y'
p11
F-1.9744643999068801
sS'maxAccel'
p12
I2
sS'maxVel'
p13
F0.5
sS'age'
p14
I150
sS'gener'
p15
S'm'
sS'lastScale'
p16
F6.639796693277666
sS'energy'
p17
F0.11397966932776665
sb.(i__main__
Data_mobile
p1
(dp2
S'vel_y'
p3
F-0.49585175874431975
sS'vel_x'
p4
F0.064273115298427344
sS'pos_x'
p5
F209.59672376358617
sS'pos_y'
p6
F-19.124063076542193
sS'isAlive'
p7
I01
sS'geno'
p8
(lp9
F1.4908546591808416
aF2.9101449775675556
aF-0.42199109741416163
aF3.5047429633164442
aF0.36345448478166298
aF-1.0659026377598124
asS'accel_x'
p10
F0.54248648010890566
sS'accel_y'
p11
F-1.9250216671245677
sS'maxAccel'
p12
I2
sS'maxVel'
p13
F0.5
sS'age'
p14
I150
sS'gener'
p15
S'm'
sS'lastScale'
p16
F6.639796693277666
sS'energy'
p17
F0.11397966932776665
sb.(i__main__
Data_mobile
p1
(dp2
S'vel_y'
p3
F-0.49831068457606331
sS'vel_x'
p4
F0.041066551320206514
sS'pos_x'
p5
F207.97769245826285
sS'pos_y'
p6
F-18.169009599906122
sS'isAlive'
p7
I01
sS'geno'
p8
(lp9
F1.4791152623939252
aF3.233947867241433
aF-0.70647709766554123
aF3.8410632284168855
aF0.36345448478166298
aF-1.0659026377598124
asS'accel_x'
p10
F0.82051389907855388
sS'accel_y'
p11
F-1.8239399500583644
sS'maxAccel'
p12
I2
sS'maxVel'
p13
F0.5
sS'age'
p14
I200
sS'gener'
p15
S'm'
sS'lastScale'
p16
F5.916002003880398
sS'energy'
p17
F0.041600200388039847
sb.(i__main__
Data_mobile
p1
(dp2
S'vel_y'
p3
F-0.49698970553337413
sS'vel_x'
p4
F0.054783506585925103
sS'pos_x'
p5
F209.41618013511399
sS'pos_y'
p6
F-20.72640656614794
sS'isAlive'
p7
I01
sS'geno'
p8
(lp9
F1.4791152623939252
aF2.9101449775675556
aF-0.42199109741416163
aF3.5047429633164442
aF0.36345448478166298
aF-1.0659026377598124
asS'accel_x'
p10
F0.65806598615789791
sS'accel_y'
p11
F-1.8886368517695595
sS'maxAccel'
p12
I2
sS'maxVel'
p13
F0.5
sS'age'
p14
I306
sS'gener'
p15
S'm'
sS'lastScale'
p16
F5.9000023491564777
sS'energy'
p17
F0.04000023491564772
sb.(i__main__
Data_mobile
p1
(dp2
S'vel_y'
p3
F0.12924246950816859
sS'vel_x'
p4
F-0.48300764390993867
sS'pos_x'
p5
F-53.392468051300902
sS'pos_y'
p6
F-52.200206503032682
sS'isAlive'
p7
I01
sS'geno'
p8
(lp9
F1.4504295728376242
aF3.233947867241433
aF-0.70647709766554123
aF4.2580018541844362
aF0.36345448478166298
aF-1.0659026377598124
asS'accel_x'
p10
F-0.53166868304457338
sS'accel_y'
p11
F1.9280374507435403
sS'maxAccel'
p12
I2
sS'maxVel'
p13
F0.5
sS'age'
p14
I50
sS'gener'
p15
S'm'
sS'lastScale'
p16
F15.398593637295674
sS'energy'
p17
F0.98985936372956751
sb.(i__main__
Data_mobile
p1
(dp2
S'vel_y'
p3
F-0.21135412928195041
sS'vel_x'
p4
F0.45313290769427522
sS'pos_x'
p5
F-26.276607460690439
sS'pos_y'
p6
F-88.364968909845643
sS'isAlive'
p7
I01
sS'geno'
p8
(lp9
F1.4788969826633194
aF3.0041871967343106
aF-1.1549468185739724
aF4.2580018541844362
aF3.9498060698670749
aF0.95780528664904629
asS'accel_x'
p10
F1.1819453729092984
sS'accel_y'
p11
F1.6133831334987667
sS'maxAccel'
p12
I2
sS'maxVel'
p13
F0.5
sS'age'
p14
I50
sS'gener'
p15
S'm'
sS'lastScale'
p16
F15.398593637295674
sS'energy'
p17
F0.98985936372956751
sb.(i__main__
Data_mobile
p1
(dp2
S'vel_y'
p3
F0.26633058529021975
sS'vel_x'
p4
F-0.42316429355389734
sS'pos_x'
p5
F155.91124903505599
sS'pos_y'
p6
F-14.410296063351989
sS'isAlive'
p7
I01
sS'geno'
p8
(lp9
F2.4890001832964437
aF-2.6776094896637903
aF-0.70647709766554123
aF3.8410632284168855
aF0.36345448478166298
aF-1.0659026377598124
asS'accel_x'
p10
F-1.6636272768886105
sS'accel_y'
p11
F1.1101100322004964
sS'maxAccel'
p12
I2
sS'maxVel'
p13
F0.5
sS'age'
p14
I50
sS'gener'
p15
S'm'
sS'lastScale'
p16
F15.398593637295674
sS'energy'
p17
F0.98985936372956751
sb.(i__main__
Data_mobile
p1
(dp2
S'vel_y'
p3
F0.47160668495436675
sS'vel_x'
p4
F0.16609375276136257
sS'pos_x'
p5
F-189.96455722859727
sS'pos_y'
p6
F-36.697411666509552
sS'isAlive'
p7
I01
sS'geno'
p8
(lp9
F1.4791152623939252
aF3.233947867241433
aF-0.70647709766554123
aF4.2580018541844362
aF0.36345448478166298
aF-0.62336302271238997
asS'accel_x'
p10
F-1.4566297946388238
sS'accel_y'
p11
F-1.3704851846592352
sS'maxAccel'
p12
I2
sS'maxVel'
p13
F0.5
sS'age'
p14
I50
sS'gener'
p15
S'm'
sS'lastScale'
p16
F15.398593637295674
sS'energy'
p17
F0.98985936372956751
sb.(i__main__
Data_mobile
p1
(dp2
S'vel_y'
p3
F-0.33522832385295476
sS'vel_x'
p4
F-0.37097435340834339
sS'pos_x'
p5
F-114.1206133843466
sS'pos_y'
p6
F69.352766030572667
sS'isAlive'
p7
I01
sS'geno'
p8
(lp9
F2.4890001832964437
aF-2.7183064085858666
aF-0.70647709766554123
aF3.8410632284168855
aF0.36345448478166298
aF-1.0659026377598124
asS'accel_x'
p10
F1.9425433501979437
sS'accel_y'
p11
F-0.47594677496727356
sS'maxAccel'
p12
I2
sS'maxVel'
p13
F0.5
sS'age'
p14
I50
sS'gener'
p15
S'm'
sS'lastScale'
p16
F15.398593637295674
sS'energy'
p17
F0.98985936372956751
sb.(i__main__
Data_mobile
p1
(dp2
S'vel_y'
p3
F-0.25343303289665203
sS'vel_x'
p4
F0.43101241030485937
sS'pos_x'
p5
F-110.09941117068337
sS'pos_y'
p6
F-66.914888716813522
sS'isAlive'
p7
I01
sS'geno'
p8
(lp9
F1.4788969826633194
aF3.0041871967343106
aF-0.70647709766554123
aF3.8410632284168855
aF3.3037806157091634
aF1.3780561181917408
asS'accel_x'
p10
F-1.732449353047141
sS'accel_y'
p11
F-0.9993093810860294
sS'maxAccel'
p12
I2
sS'maxVel'
p13
F0.5
sS'age'
p14
I50
sS'gener'
p15
S'm'
sS'lastScale'
p16
F15.398593637295674
sS'energy'
p17
F0.98985936372956751
sb.(i__main__
Data_mobile
p1
(dp2
S'vel_y'
p3
F-0.49949881701889809
sS'vel_x'
p4
F-0.022381505684859148
sS'pos_x'
p5
F-143.12708592892005
sS'pos_y'
p6
F41.560382924935837
sS'isAlive'
p7
I01
sS'geno'
p8
(lp9
F1.4788969826633194
aF3.0041871967343106
aF-0.70647709766554123
aF3.8410632284168855
aF0.36345448478166298
aF-1.0659026377598124
asS'accel_x'
p10
F0.54742690663939508
sS'accel_y'
p11
F-1.2800963766644928
sS'maxAccel'
p12
I2
sS'maxVel'
p13
F0.5
sS'age'
p14
I50
sS'gener'
p15
S'm'
sS'lastScale'
p16
F15.398593637295674
sS'energy'
p17
F0.98985936372956751
sb.(i__main__
Data_mobile
p1
(dp2
S'vel_y'
p3
F-0.14650310710083828
sS'vel_x'
p4
F0.47805526836318868
sS'pos_x'
p5
F82.019017778177073
sS'pos_y'
p6
F-19.329869215342015
sS'isAlive'
p7
I01
sS'geno'
p8
(lp9
F1.4788969826633194
aF2.9101449775675556
aF-0.42199109741416163
aF3.5047429633164442
aF0.36345448478166298
aF-1.0659026377598124
asS'accel_x'
p10
F1.776318974775783
sS'accel_y'
p11
F0.91907067184820512
sS'maxAccel'
p12
I2
sS'maxVel'
p13
F0.5
sS'age'
p14
I50
sS'gener'
p15
S'm'
sS'lastScale'
p16
F15.398593637295674
sS'energy'
p17
F0.98985936372956751
sb.(i__main__
Data_mobile
p1
(dp2
S'vel_y'
p3
F-0.062798203593486368
sS'vel_x'
p4
F-0.49604070964531838
sS'pos_x'
p5
F170.26180282952575
sS'pos_y'
p6
F65.689768021365524
sS'isAlive'
p7
I01
sS'geno'
p8
(lp9
F1.1582187359194531
aF2.5094107181069023
aF-1.1549468185739724
aF4.4976539554581976
aF0.36345448478166298
aF-1.0659026377598124
asS'accel_x'
p10
F1.9262374719785593
sS'accel_y'
p11
F0.53815351113381038
sS'maxAccel'
p12
I2
sS'maxVel'
p13
F0.5
sS'age'
p14
I50
sS'gener'
p15
S'm'
sS'lastScale'
p16
F15.398593637295674
sS'energy'
p17
F0.98985936372956751
sb.(i__main__
Data_mobile
p1
(dp2
S'vel_y'
p3
F0.092305291218603119
sS'vel_x'
p4
F0.49140587421504117
sS'pos_x'
p5
F31.704063309461457
sS'pos_y'
p6
F-31.978137946466727
sS'isAlive'
p7
I01
sS'geno'
p8
(lp9
F1.4791152623939252
aF-2.6776094896637903
aF-0.42199109741416163
aF3.5047429633164442
aF0.46814355662125384
aF-1.0659026377598124
asS'accel_x'
p10
F-0.91786273193216006
sS'accel_y'
p11
F-1.7769434446065051
sS'maxAccel'
p12
I2
sS'maxVel'
p13
F0.5
sS'age'
p14
I50
sS'gener'
p15
S'm'
sS'lastScale'
p16
F15.398593637295674
sS'energy'
p17
F0.98985936372956751
sb.(i__main__
Data_mobile
p1
(dp2
S'vel_y'
p3
F-0.45885869447845512
sS'vel_x'
p4
F0.19861696428434261
sS'pos_x'
p5
F62.801942289294971
sS'pos_y'
p6
F88.275979582325121
sS'isAlive'
p7
I01
sS'geno'
p8
(lp9
F1.6914864056433561
aF3.0041871967343106
aF-0.70647709766554123
aF3.8410632284168855
aF0.36345448478166298
aF0.95780528664904629
asS'accel_x'
p10
F-0.64984069442454562
sS'accel_y'
p11
F1.8914827707039323
sS'maxAccel'
p12
I2
sS'maxVel'
p13
F0.5
sS'age'
p14
I50
sS'gener'
p15
S'm'
sS'lastScale'
p16
F15.398593637295674
sS'energy'
p17
F0.98985936372956751
sb.(i__main__
Data_mobile
p1
(dp2
S'vel_y'
p3
F0.29558762049454573
sS'vel_x'
p4
F-0.40327156930581204
sS'pos_x'
p5
F-46.368991199970644
sS'pos_y'
p6
F-12.092488154371599
sS'isAlive'
p7
I01
sS'geno'
p8
(lp9
F1.4033928485455278
aF3.0041871967343106
aF-0.70647709766554123
aF3.8410632284168855
aF0.36345448478166298
aF-1.2578738928473547
asS'accel_x'
p10
F1.9939762018930169
sS'accel_y'
p11
F0.15510933654780035
sS'maxAccel'
p12
I2
sS'maxVel'
p13
F0.5
sS'age'
p14
I50
sS'gener'
p15
S'm'
sS'lastScale'
p16
F15.297298264542604
sS'energy'
p17
F0.97972982645426054
sb.(i__main__
Data_mobile
p1
(dp2
S'vel_y'
p3
F0.49350636076159948
sS'vel_x'
p4
F0.080321055071767886
sS'pos_x'
p5
F-56.663587240784324
sS'pos_y'
p6
F32.37249564929315
sS'isAlive'
p7
I01
sS'geno'
p8
(lp9
F1.3795301691795436
aF3.0041871967343106
aF-0.70647709766554123
aF3.8410632284168855
aF0.5217059390867792
aF-1.0659026377598124
asS'accel_x'
p10
F-0.58485007431143199
sS'accel_y'
p11
F-1.9125768979515338
sS'maxAccel'
p12
I2
sS'maxVel'
p13
F0.5
sS'age'
p14
I50
sS'gener'
p15
S'm'
sS'lastScale'
p16
F15.398593637295674
sS'energy'
p17
F0.94937111614053593
sb.(i__main__
Data_mobile
p1
(dp2
S'vel_y'
p3
F-0.38419028140266542
sS'vel_x'
p4
F-0.31999660572534322
sS'pos_x'
p5
F-189.06295543634693
sS'pos_y'
p6
F-69.804826909750446
sS'isAlive'
p7
I01
sS'geno'
p8
(lp9
F1.4791152623939252
aF3.233947867241433
aF-0.51886354699358139
aF2.4569511785486742
aF4.1835885176971548
aF1.4067641268537272
asS'accel_x'
p10
F-0.45824543035613435
sS'accel_y'
p11
F1.9467950907986493
sS'maxAccel'
p12
I2
sS'maxVel'
p13
F0.5
sS'age'
p14
I50
sS'gener'
p15
S'm'
sS'lastScale'
p16
F14.792205453385055
sS'energy'
p17
F0.9292205453385054
sb.(i__main__
Data_mobile
p1
(dp2
S'vel_y'
p3
F-0.49458429736598486
sS'vel_x'
p4
F-0.073391912354121361
sS'pos_x'
p5
F-22.224187338581586
sS'pos_y'
p6
F-67.052545648595867
sS'isAlive'
p7
I01
sS'geno'
p8
(lp9
F1.4791152623939252
aF-2.6776094896637903
aF-0.99867760545388551
aF3.8410632284168855
aF0.36345448478166298
aF-1.0659026377598124
asS'accel_x'
p10
F-0.57019770089782806
sS'accel_y'
p11
F-1.9169962394044571
sS'maxAccel'
p12
I2
sS'maxVel'
p13
F0.5
sS'age'
p14
I50
sS'gener'
p15
S'm'
sS'lastScale'
p16
F14.590688719221344
sS'energy'
p17
F0.90906887192213437
sb.(i__main__
Data_mobile
p1
(dp2
S'vel_y'
p3
F-0.22410158700832755
sS'vel_x'
p4
F0.44696585853994369
sS'pos_x'
p5
F122.69788224990491
sS'pos_y'
p6
F-16.73654176339851
sS'isAlive'
p7
I01
sS'geno'
p8
(lp9
F1.4791152623939252
aF2.9101449775675556
aF-0.42199109741416163
aF3.8260885312630588
aF0.36345448478166298
aF-1.0659026377598124
asS'accel_x'
p10
F1.7758122425358049
sS'accel_y'
p11
F-0.92004938957642646
sS'maxAccel'
p12
I2
sS'maxVel'
p13
F0.5
sS'age'
p14
I50
sS'gener'
p15
S'm'
sS'lastScale'
p16
F13.485655900951869
sS'energy'
p17
F0.79856559009518691
sb.(i__main__
Data_mobile
p1
(dp2
S'vel_y'
p3
F-0.3569916762354704
sS'vel_x'
p4
F0.35008133783249445
sS'pos_x'
p5
F-165.38158718255789
sS'pos_y'
p6
F-46.516612422621733
sS'isAlive'
p7
I01
sS'geno'
p8
(lp9
F1.4791152623939252
aF3.233947867241433
aF-0.70647709766554123
aF3.8410632284168855
aF0.36345448478166298
aF-1.0659026377598124
asS'accel_x'
p10
F1.7189932071956135
sS'accel_y'
p11
F-1.0222829127082869
sS'maxAccel'
p12
I2
sS'maxVel'
p13
F0.5
sS'age'
p14
I50
sS'gener'
p15
S'm'
sS'lastScale'
p16
F13.184912408664353
sS'energy'
p17
F0.76849124086643528
sb.(i__main__
Data_mobile
p1
(dp2
S'vel_y'
p3
F-0.3591091300096888
sS'vel_x'
p4
F0.34790894317864907
sS'pos_x'
p5
F-165.68056485806628
sS'pos_y'
p6
F-46.137384057299023
sS'isAlive'
p7
I01
sS'geno'
p8
(lp9
F1.4791152623939252
aF3.233947867241433
aF-0.70647709766554123
aF3.8410632284168855
aF0.57125878476703018
aF-1.0659026377598124
asS'accel_x'
p10
F1.7974972945914587
sS'accel_y'
p11
F-0.87692843261943942
sS'maxAccel'
p12
I2
sS'maxVel'
p13
F0.5
sS'age'
p14
I50
sS'gener'
p15
S'm'
sS'lastScale'
p16
F12.982710530226171
sS'energy'
p17
F0.74827105302261709
sb.(i__main__
Data_mobile
p1
(dp2
S'vel_y'
p3
F-0.056970931671926732
sS'vel_x'
p4
F0.49674370951672114
sS'pos_x'
p5
F-163.24226672955481
sS'pos_y'
p6
F-43.483806300617132
sS'isAlive'
p7
I01
sS'geno'
p8
(lp9
F1.4791152623939252
aF3.233947867241433
aF-0.70647709766554123
aF4.3394667374644813
aF0.36345448478166298
aF-1.0659026377598124
asS'accel_x'
p10
F1.9993537649819475
sS'accel_y'
p11
F-0.050838198753600565
sS'maxAccel'
p12
I2
sS'maxVel'
p13
F0.5
sS'age'
p14
I50
sS'gener'
p15
S'm'
sS'lastScale'
p16
F10.482567602243996
sS'energy'
p17
F0.49825676022439974
sb.(i__main__
Data_mobile
p1
(dp2
S'vel_y'
p3
F-0.48956932243360068
sS'vel_x'
p4
F-0.10159664626307845
sS'pos_x'
p5
F24.348213976729046
sS'pos_y'
p6
F-23.503780147216187
sS'isAlive'
p7
I01
sS'geno'
p8
(lp9
F1.4788969826633194
aF3.6755273069572665
aF-1.139385917831095
aF2.4569511785486742
aF0.36345448478166298
aF-1.2922838717349872
asS'accel_x'
p10
F1.9328600306385595
sS'accel_y'
p11
F-0.5138600022962545
sS'maxAccel'
p12
I2
sS'maxVel'
p13
F0.5
sS'age'
p14
I50
sS'gener'
p15
S'm'
sS'lastScale'
p16
F9.2883883079588685
sS'energy'
p17
F0.3687092935205798
sb.(i__main__
Data_mobile
p1
(dp2
S'vel_y'
p3
F0.47098648915917901
sS'vel_x'
p4
F-0.16784435358245006
sS'pos_x'
p5
F93.257369223523895
sS'pos_y'
p6
F53.749955607635229
sS'isAlive'
p7
I01
sS'geno'
p8
(lp9
F2.4890001832964437
aF-2.6776094896637903
aF-0.70647709766554123
aF2.4569511785486742
aF4.1835885176971548
aF0.95780528664904629
asS'accel_x'
p10
F1.9947816163254151
sS'accel_y'
p11
F-0.14438248913966167
sS'maxAccel'
p12
I2
sS'maxVel'
p13
F0.5
sS'age'
p14
I50
sS'gener'
p15
S'm'
sS'lastScale'
p16
F8.4825676022439964
sS'energy'
p17
F0.29825676022439973
sb.(i__main__
Data_mobile
p1
(dp2
S'vel_y'
p3
F-0.31879229240662416
sS'vel_x'
p4
F0.38519017939471073
sS'pos_x'
p5
F-165.0141510541803
sS'pos_y'
p6
F-47.190100383577054
sS'isAlive'
p7
I01
sS'geno'
p8
(lp9
F1.5937681096379865
aF3.233947867241433
aF-0.37708861305002195
aF3.8410632284168855
aF0.36345448478166298
aF-1.0659026377598124
asS'accel_x'
p10
F0.30246460619267213
sS'accel_y'
p11
F0.23266748134136206
sS'maxAccel'
p12
I2
sS'maxVel'
p13
F0.5
sS'age'
p14
I50
sS'gener'
p15
S'm'
sS'lastScale'
p16
F8.4825676022439946
sS'energy'
p17
F0.29825676022439951
sb.(i__main__
Data_mobile
p1
(dp2
S'vel_y'
p3
F-0.24793915997764809
sS'vel_x'
p4
F-0.43419600752376591
sS'pos_x'
p5
F209.2083093848519
sS'pos_y'
p6
F-18.571710734160717
sS'isAlive'
p7
I01
sS'geno'
p8
(lp9
F1.8935668254665825
aF3.233947867241433
aF-0.70647709766554123
aF3.8410632284168855
aF0.36345448478166298
aF-1.0659026377598124
asS'accel_x'
p10
F-1.0367764205431869
sS'accel_y'
p11
F-1.7102908097179432
sS'maxAccel'
p12
I2
sS'maxVel'
p13
F0.5
sS'age'
p14
I50
sS'gener'
p15
S'm'
sS'lastScale'
p16
F8.4825676022439946
sS'energy'
p17
F0.29825676022439951
sb.(i__main__
Data_mobile
p1
(dp2
S'vel_y'
p3
F-0.4999990023479387
sS'vel_x'
p4
F-0.00099882484249127872
sS'pos_x'
p5
F209.82870929955064
sS'pos_y'
p6
F-20.880010108367003
sS'isAlive'
p7
I01
sS'geno'
p8
(lp9
F1.4791152623939252
aF2.9101449775675556
aF-0.21869659278044629
aF3.8012146826943263
aF0.16727891182719756
aF-1.0659026377598124
asS'accel_x'
p10
F0.55532615968538346
sS'accel_y'
p11
F-1.9213570351106231
sS'maxAccel'
p12
I2
sS'maxVel'
p13
F0.5
sS'age'
p14
I50
sS'gener'
p15
S'm'
sS'lastScale'
p16
F8.4825676022439946
sS'energy'
p17
F0.29825676022439951
sb.(i__main__
Data_mobile
p1
(dp2
S'vel_y'
p3
F-0.23793650011278686
sS'vel_x'
p4
F0.43975700325756928
sS'pos_x'
p5
F122.42346021700716
sS'pos_y'
p6
F-16.740725380480001
sS'isAlive'
p7
I01
sS'geno'
p8
(lp9
F1.4791152623939252
aF3.233947867241433
aF-0.70647709766554123
aF3.8410632284168855
aF0.36345448478166298
aF-1.0659026377598124
asS'accel_x'
p10
F1.7748535226252711
sS'accel_y'
p11
F-0.9218974852035704
sS'maxAccel'
p12
I2
sS'maxVel'
p13
F0.5
sS'age'
p14
I50
sS'gener'
p15
S'm'
sS'lastScale'
p16
F6.4825676022439964
sS'energy'
p17
F0.098256760224399664
sb.(i__main__
Data_mobile
p1
(dp2
S'vel_y'
p3
F0.065875096270364697
sS'vel_x'
p4
F-0.46495109202502488
sS'pos_x'
p5
F-9.4959424723418291
sS'pos_y'
p6
F-62.78261606611504
sS'isAlive'
p7
I01
sS'geno'
p8
(lp9
F1.4791152623939252
aF3.0041871967343106
aF-0.70647709766554123
aF4.0864625930455745
aF0.36345448478166298
aF-1.0659026377598124
asS'accel_x'
p10
F0
sS'accel_y'
p11
F0
sS'maxAccel'
p12
I2
sS'maxVel'
p13
F0.5
sS'age'
p14
I0
sS'gener'
p15
S'm'
sS'lastScale'
p16
F5.5
sS'energy'
p17
F0.5
sb.(i__main__
Data_mobile
p1
(dp2
S'vel_y'
p3
F0.40952631499384862
sS'vel_x'
p4
F-0.022204231664031501
sS'pos_x'
p5
F110.51214843761998
sS'pos_y'
p6
F-78.041086920198552
sS'isAlive'
p7
I01
sS'geno'
p8
(lp9
F1.4791152623939252
aF3.233947867241433
aF-4.1786559897674795
aF4.2580018541844362
aF0.72036273250514826
aF-1.0659026377598124
asS'accel_x'
p10
F0
sS'accel_y'
p11
F0
sS'maxAccel'
p12
I2
sS'maxVel'
p13
F0.5
sS'age'
p14
I0
sS'gener'
p15
S'm'
sS'lastScale'
p16
F5.5
sS'energy'
p17
F0.5
sb.(i__main__
Data_mobile
p1
(dp2
S'vel_y'
p3
F0.1795432853227629
sS'vel_x'
p4
F-0.46664967396520296
sS'pos_x'
p5
F1.0640422757246455
sS'pos_y'
p6
F10.911828131416716
sS'isAlive'
p7
I01
sS'geno'
p8
(lp9
F2.4890001832964437
aF-2.6776094896637903
aF-0.70647709766554123
aF2.1587488829837111
aF0.36345448478166298
aF-1.0659026377598124
asS'accel_x'
p10
F0
sS'accel_y'
p11
F0
sS'maxAccel'
p12
I2
sS'maxVel'
p13
F0.5
sS'age'
p14
I0
sS'gener'
p15
S'm'
sS'lastScale'
p16
F5.5
sS'energy'
p17
F0.5
sb.(i__main__
Data_mobile
p1
(dp2
S'vel_y'
p3
F0.098646327632062006
sS'vel_x'
p4
F0.2699108321100897
sS'pos_x'
p5
F177.0380025053596
sS'pos_y'
p6
F-80.576739103096656
sS'isAlive'
p7
I01
sS'geno'
p8
(lp9
F1.3928993223965178
aF3.0041871967343106
aF-0.42199109741416163
aF3.5047429633164442
aF0.36345448478166298
aF-1.3070506880635719
asS'accel_x'
p10
F0
sS'accel_y'
p11
F0
sS'maxAccel'
p12
I2
sS'maxVel'
p13
F0.5
sS'age'
p14
I0
sS'gener'
p15
S'm'
sS'lastScale'
p16
F5.5
sS'energy'
p17
F0.5
sb.(i__main__
Data_mobile
p1
(dp2
S'vel_y'
p3
F-0.18732586939152487
sS'vel_x'
p4
F0.2922349810340778
sS'pos_x'
p5
F93.421882452276151
sS'pos_y'
p6
F44.421652679836491
sS'isAlive'
p7
I01
sS'geno'
p8
(lp9
F2.6366714935753399
aF-2.6776094896637903
aF-0.762847261860783
aF3.8410632284168855
aF0.36345448478166298
aF-1.7680245686255436
asS'accel_x'
p10
F0
sS'accel_y'
p11
F0
sS'maxAccel'
p12
I2
sS'maxVel'
p13
F0.5
sS'age'
p14
I0
sS'gener'
p15
S'm'
sS'lastScale'
p16
F5.5
sS'energy'
p17
F0.5
sb.(i__main__
Data_mobile
p1
(dp2
S'vel_y'
p3
F-0.18693371521279439
sS'vel_x'
p4
F0.44421468625934474
sS'pos_x'
p5
F91.208851438164288
sS'pos_y'
p6
F-18.799458946430576
sS'isAlive'
p7
I01
sS'geno'
p8
(lp9
F1.4791152623939252
aF2.9101449775675556
aF-0.70647709766554123
aF2.4569511785486742
aF0.36345448478166298
aF-1.2922838717349872
asS'accel_x'
p10
F0
sS'accel_y'
p11
F0
sS'maxAccel'
p12
I2
sS'maxVel'
p13
F0.5
sS'age'
p14
I0
sS'gener'
p15
S'm'
sS'lastScale'
p16
F5.5
sS'energy'
p17
F0.5
sb.(i__main__
Data_mobile
p1
(dp2
S'vel_y'
p3
F-0.19644084683918289
sS'vel_x'
p4
F0.40937411911992272
sS'pos_x'
p5
F-101.14490197500299
sS'pos_y'
p6
F50.210739195582448
sS'isAlive'
p7
I01
sS'geno'
p8
(lp9
F1.4791152623939252
aF3.2188074459112506
aF-1.1549468185739724
aF4.2580018541844362
aF0.36345448478166298
aF-1.0659026377598124
asS'accel_x'
p10
F0
sS'accel_y'
p11
F0
sS'maxAccel'
p12
I2
sS'maxVel'
p13
F0.5
sS'age'
p14
I0
sS'gener'
p15
S'm'
sS'lastScale'
p16
F5.5
sS'energy'
p17
F0.5
sb.(i__main__
Data_mobile
p1
(dp2
S'vel_y'
p3
F-0.23764028841835941
sS'vel_x'
p4
F0.43714141711520699
sS'pos_x'
p5
F117.87008691438587
sS'pos_y'
p6
F-17.180204747550707
sS'isAlive'
p7
I01
sS'geno'
p8
(lp9
F1.4504295728376242
aF3.233947867241433
aF-0.42199109741416163
aF3.5047429633164442
aF0.36345448478166298
aF-1.0659026377598124
asS'accel_x'
p10
F0
sS'accel_y'
p11
F0
sS'maxAccel'
p12
I2
sS'maxVel'
p13
F0.5
sS'age'
p14
I0
sS'gener'
p15
S'm'
sS'lastScale'
p16
F5.5
sS'energy'
p17
F0.5
sb.(i__main__
Data_mobile
p1
(dp2
S'vel_y'
p3
F0.35573603406144744
sS'vel_x'
p4
F0.037112913576939188
sS'pos_x'
p5
F3.5880354678952884
sS'pos_y'
p6
F40.57470490944462
sS'isAlive'
p7
I01
sS'geno'
p8
(lp9
F2.7620943682014332
aF-2.6776094896637903
aF-0.33042519084845168
aF4.0757753881558507
aF0.24949216754519654
aF-0.63785499925596367
asS'accel_x'
p10
F0
sS'accel_y'
p11
F0
sS'maxAccel'
p12
I2
sS'maxVel'
p13
F0.5
sS'age'
p14
I0
sS'gener'
p15
S'm'
sS'lastScale'
p16
F5.5
sS'energy'
p17
F0.5
sb.(i__main__
Data_mobile
p1
(dp2
S'vel_y'
p3
F0.16015842037631051
sS'vel_x'
p4
F0.29415615963649755
sS'pos_x'
p5
F-56.193005014785882
sS'pos_y'
p6
F76.196338387180106
sS'isAlive'
p7
I01
sS'geno'
p8
(lp9
F2.4890001832964437
aF-2.6776094896637903
aF-1.1549468185739724
aF3.8410632284168855
aF0.0028827717397753583
aF0.95780528664904629
asS'accel_x'
p10
F0
sS'accel_y'
p11
F0
sS'maxAccel'
p12
I2
sS'maxVel'
p13
F0.5
sS'age'
p14
I0
sS'gener'
p15
S'm'
sS'lastScale'
p16
F5.5
sS'energy'
p17
F0.5
sb.(i__main__
Data_mobile
p1
(dp2
S'vel_y'
p3
F0.16986426319439624
sS'vel_x'
p4
F0.17104695140616671
sS'pos_x'
p5
F31.536671763888755
sS'pos_y'
p6
F-59.930760788762299
sS'isAlive'
p7
I01
sS'geno'
p8
(lp9
F1.4504295728376242
aF3.233947867241433
aF-0.70647709766554123
aF2.4569511785486742
aF0.36345448478166298
aF-1.2922838717349872
asS'accel_x'
p10
F0
sS'accel_y'
p11
F0
sS'maxAccel'
p12
I2
sS'maxVel'
p13
F0.5
sS'age'
p14
I0
sS'gener'
p15
S'm'
sS'lastScale'
p16
F5.5
sS'energy'
p17
F0.5
sb.(i__main__
Data_mobile
p1
(dp2
S'vel_y'
p3
F0.31363818531335902
sS'vel_x'
p4
F-0.31874026333641209
sS'pos_x'
p5
F-44.346499759492673
sS'pos_y'
p6
F-76.841292638401001
sS'isAlive'
p7
I01
sS'geno'
p8
(lp9
F1.3928993223965178
aF3.0041871967343106
aF-0.70647709766554123
aF4.0864625930455745
aF0.36345448478166298
aF-1.464004626785002
asS'accel_x'
p10
F0
sS'accel_y'
p11
F0
sS'maxAccel'
p12
I2
sS'maxVel'
p13
F0.5
sS'age'
p14
I0
sS'gener'
p15
S'm'
sS'lastScale'
p16
F5.5
sS'energy'
p17
F0.5
sb.(i__main__
Data_mobile
p1
(dp2
S'vel_y'
p3
F-0.060437558136873779
sS'vel_x'
p4
F-0.33651282800726534
sS'pos_x'
p5
F10.608576049427228
sS'pos_y'
p6
F-76.918120209540774
sS'isAlive'
p7
I01
sS'geno'
p8
(lp9
F1.3928993223965178
aF3.0041871967343106
aF-0.70647709766554123
aF4.2580018541844362
aF0.36345448478166298
aF-1.0659026377598124
asS'accel_x'
p10
F0
sS'accel_y'
p11
F0
sS'maxAccel'
p12
I2
sS'maxVel'
p13
F0.5
sS'age'
p14
I0
sS'gener'
p15
S'm'
sS'lastScale'
p16
F5.5
sS'energy'
p17
F0.5
sb.(i__main__
Data_mobile
p1
(dp2
S'vel_y'
p3
F0.05089396005759568
sS'vel_x'
p4
F-0.3364600828786351
sS'pos_x'
p5
F89.466519778146534
sS'pos_y'
p6
F-23.747188751494804
sS'isAlive'
p7
I01
sS'geno'
p8
(lp9
F1.4791152623939252
aF2.9101449775675556
aF-0.70647709766554123
aF3.5047429633164442
aF0.096237360099053038
aF-1.0659026377598124
asS'accel_x'
p10
F0
sS'accel_y'
p11
F0
sS'maxAccel'
p12
I2
sS'maxVel'
p13
F0.5
sS'age'
p14
I0
sS'gener'
p15
S'm'
sS'lastScale'
p16
F5.5
sS'energy'
p17
F0.5
sb.(i__main__
Data_mobile
p1
(dp2
S'vel_y'
p3
F0.36061279291936227
sS'vel_x'
p4
F0.22900791623388117
sS'pos_x'
p5
F-109.98251514016142
sS'pos_y'
p6
F23.204156039308675
sS'isAlive'
p7
I01
sS'geno'
p8
(lp9
F1.4788969826633194
aF3.0041871967343106
aF-0.70647709766554123
aF4.0757753881558507
aF0.24949216754519654
aF-0.63785499925596367
asS'accel_x'
p10
F0
sS'accel_y'
p11
F0
sS'maxAccel'
p12
I2
sS'maxVel'
p13
F0.5
sS'age'
p14
I0
sS'gener'
p15
S'm'
sS'lastScale'
p16
F5.5
sS'energy'
p17
F0.5
sb.(i__main__
Data_mobile
p1
(dp2
S'vel_y'
p3
F0.29077425949418906
sS'vel_x'
p4
F-0.10734494681370021
sS'pos_x'
p5
F-79.152295834657835
sS'pos_y'
p6
F30.991748236726608
sS'isAlive'
p7
I01
sS'geno'
p8
(lp9
F0.99551483211963931
aF3.0041871967343106
aF-0.71225979133164552
aF3.8410632284168855
aF0.1931972472696154
aF-1.0659026377598124
asS'accel_x'
p10
F0
sS'accel_y'
p11
F0
sS'maxAccel'
p12
I2
sS'maxVel'
p13
F0.5
sS'age'
p14
I0
sS'gener'
p15
S'm'
sS'lastScale'
p16
F5.5
sS'energy'
p17
F0.5
sb.(i__main__
Data_mobile
p1
(dp2
S'vel_y'
p3
F0.075562797037431101
sS'vel_x'
p4
F-0.37831699992564766
sS'pos_x'
p5
F78.902859810124028
sS'pos_y'
p6
F-20.631203785097956
sS'isAlive'
p7
I01
sS'geno'
p8
(lp9
F2.4890001832964437
aF-2.6776094896637903
aF-0.70647709766554123
aF3.8410632284168855
aF0.39404524077873004
aF-1.0659026377598124
asS'accel_x'
p10
F0
sS'accel_y'
p11
F0
sS'maxAccel'
p12
I2
sS'maxVel'
p13
F0.5
sS'age'
p14
I0
sS'gener'
p15
S'm'
sS'lastScale'
p16
F5.5
sS'energy'
p17
F0.5
sb.(i__main__
Data_mobile
p1
(dp2
S'vel_y'
p3
F-0.021658881432367383
sS'vel_x'
p4
F0.26609444971111607
sS'pos_x'
p5
F6.5001026952486711
sS'pos_y'
p6
F82.560560261328746
sS'isAlive'
p7
I01
sS'geno'
p8
(lp9
F1.6914864056433561
aF3.0041871967343106
aF-0.70647709766554123
aF4.2580018541844362
aF0.36345448478166298
aF-1.0659026377598124
asS'accel_x'
p10
F0
sS'accel_y'
p11
F0
sS'maxAccel'
p12
I2
sS'maxVel'
p13
F0.5
sS'age'
p14
I0
sS'gener'
p15
S'm'
sS'lastScale'
p16
F5.5
sS'energy'
p17
F0.5
sb.(i__main__
Data_mobile
p1
(dp2
S'vel_y'
p3
F0.27205525816474019
sS'vel_x'
p4
F-0.093626568053131382
sS'pos_x'
p5
F-118.89964630871475
sS'pos_y'
p6
F55.721460220495374
sS'isAlive'
p7
I01
sS'geno'
p8
(lp9
F2.4890001832964437
aF-2.6776094896637903
aF-1.1549468185739724
aF4.1388599613944503
aF0.36345448478166298
aF-1.5109137940128732
asS'accel_x'
p10
F0
sS'accel_y'
p11
F0
sS'maxAccel'
p12
I2
sS'maxVel'
p13
F0.5
sS'age'
p14
I0
sS'gener'
p15
S'm'
sS'lastScale'
p16
F5.5
sS'energy'
p17
F0.5
sb.(i__main__
Data_mobile
p1
(dp2
S'vel_y'
p3
F-0.068790886491973249
sS'vel_x'
p4
F-0.32231548442348124
sS'pos_x'
p5
F186.93888371129233
sS'pos_y'
p6
F-90.713939998036693
sS'isAlive'
p7
I01
sS'geno'
p8
(lp9
F1.4791152623939252
aF3.233947867241433
aF-0.70647709766554123
aF4.0864625930455745
aF0.36345448478166298
aF-1.0659026377598124
asS'accel_x'
p10
F0
sS'accel_y'
p11
F0
sS'maxAccel'
p12
I2
sS'maxVel'
p13
F0.5
sS'age'
p14
I0
sS'gener'
p15
S'm'
sS'lastScale'
p16
F5.5
sS'energy'
p17
F0.5
sb.(i__main__
Data_mobile
p1
(dp2
S'vel_y'
p3
F0.0025332321552416631
sS'vel_x'
p4
F-0.4336461533353928
sS'pos_x'
p5
F56.564055086033285
sS'pos_y'
p6
F-34.775935962397753
sS'isAlive'
p7
I01
sS'geno'
p8
(lp9
F2.8347020981346613
aF-2.6776094896637903
aF-0.70647709766554123
aF3.8410632284168855
aF4.1565226783161222
aF0.95780528664904629
asS'accel_x'
p10
F0
sS'accel_y'
p11
F0
sS'maxAccel'
p12
I2
sS'maxVel'
p13
F0.5
sS'age'
p14
I0
sS'gener'
p15
S'm'
sS'lastScale'
p16
F5.5
sS'energy'
p17
F0.5
sb.(i__main__
Data_mobile
p1
(dp2
S'vel_y'
p3
F0.22127645718834021
sS'vel_x'
p4
F0.13814024342211995
sS'pos_x'
p5
F67.316085392329185
sS'pos_y'
p6
F-42.997479304391661
sS'isAlive'
p7
I01
sS'geno'
p8
(lp9
F2.4890001832964437
aF-2.2690101799688103
aF-0.70647709766554123
aF3.8410632284168855
aF3.3037806157091634
aF1.3780561181917408
asS'accel_x'
p10
F0
sS'accel_y'
p11
F0
sS'maxAccel'
p12
I2
sS'maxVel'
p13
F0.5
sS'age'
p14
I0
sS'gener'
p15
S'm'
sS'lastScale'
p16
F5.5
sS'energy'
p17
F0.5
sb.(i__main__
Data_mobile
p1
(dp2
S'vel_y'
p3
F-0.020528276147933761
sS'vel_x'
p4
F0.38435250969137968
sS'pos_x'
p5
F-76.778288145931725
sS'pos_y'
p6
F5.2236810649147145
sS'isAlive'
p7
I01
sS'geno'
p8
(lp9
F2.4890001832964437
aF-2.6776094896637903
aF-0.70647709766554123
aF3.8410632284168855
aF3.5062709034588835
aF1.3780561181917408
asS'accel_x'
p10
F0
sS'accel_y'
p11
F0
sS'maxAccel'
p12
I2
sS'maxVel'
p13
F0.5
sS'age'
p14
I0
sS'gener'
p15
S'm'
sS'lastScale'
p16
F5.5
sS'energy'
p17
F0.5
sb.(i__main__
Data_mobile
p1
(dp2
S'vel_y'
p3
F0.17273176818237382
sS'vel_x'
p4
F0.22326941432850964
sS'pos_x'
p5
F-161.76768606049288
sS'pos_y'
p6
F-38.296402680479446
sS'isAlive'
p7
I01
sS'geno'
p8
(lp9
F1.4791152623939252
aF3.233947867241433
aF-4.1786559897674795
aF4.2580018541844362
aF-0.30254932626857534
aF-0.63785499925596367
asS'accel_x'
p10
F0
sS'accel_y'
p11
F0
sS'maxAccel'
p12
I2
sS'maxVel'
p13
F0.5
sS'age'
p14
I0
sS'gener'
p15
S'm'
sS'lastScale'
p16
F5.5
sS'energy'
p17
F0.5
sb.(i__main__
Data_mobile
p1
(dp2
S'vel_y'
p3
F0.45900716700213828
sS'vel_x'
p4
F0.13441355298057672
sS'pos_x'
p5
F-19.137071333225759
sS'pos_y'
p6
F-39.98897153891366
sS'isAlive'
p7
I01
sS'geno'
p8
(lp9
F1.4791152623939252
aF3.233947867241433
aF-4.1786559897674795
aF4.2580018541844362
aF0.72036273250514826
aF-1.0659026377598124
asS'accel_x'
p10
F0
sS'accel_y'
p11
F0
sS'maxAccel'
p12
I2
sS'maxVel'
p13
F0.5
sS'age'
p14
I0
sS'gener'
p15
S'm'
sS'lastScale'
p16
F5.5
sS'energy'
p17
F0.5
sb.(i__main__
Data_mobile
p1
(dp2
S'vel_y'
p3
F0.44867512778572749
sS'vel_x'
p4
F0.1656279769647408
sS'pos_x'
p5
F-28.268231989629399
sS'pos_y'
p6
F-32.720333436444228
sS'isAlive'
p7
I01
sS'geno'
p8
(lp9
F1.4791152623939252
aF2.9101449775675556
aF-0.42199109741416163
aF3.5047429633164442
aF0.36345448478166298
aF-1.0659026377598124
asS'accel_x'
p10
F0
sS'accel_y'
p11
F0
sS'maxAccel'
p12
I2
sS'maxVel'
p13
F0.5
sS'age'
p14
I0
sS'gener'
p15
S'm'
sS'lastScale'
p16
F5.5
sS'energy'
p17
F0.5
sb.(i__main__
Data_mobile
p1
(dp2
S'vel_y'
p3
F-0.1783539494899215
sS'vel_x'
p4
F-0.31599871618222014
sS'pos_x'
p5
F-60.371272845396192
sS'pos_y'
p6
F-75.892272934058553
sS'isAlive'
p7
I01
sS'geno'
p8
(lp9
F1.4791152623939252
aF3.233947867241433
aF-1.1549468185739724
aF4.2580018541844362
aF3.9498060698670749
aF0.95780528664904629
asS'accel_x'
p10
F0
sS'accel_y'
p11
F0
sS'maxAccel'
p12
I2
sS'maxVel'
p13
F0.5
sS'age'
p14
I0
sS'gener'
p15
S'm'
sS'lastScale'
p16
F5.5
sS'energy'
p17
F0.5
sb.(i__main__
Data_mobile
p1
(dp2
S'vel_y'
p3
F0.29646329165525503
sS'vel_x'
p4
F-0.2121143194787162
sS'pos_x'
p5
F-15.641992435118134
sS'pos_y'
p6
F-63.069779388382869
sS'isAlive'
p7
I01
sS'geno'
p8
(lp9
F1.3928993223965178
aF3.233947867241433
aF-3.89522002129541
aF4.2580018541844362
aF0.94820234073380516
aF-1.0659026377598124
asS'accel_x'
p10
F0
sS'accel_y'
p11
F0
sS'maxAccel'
p12
I2
sS'maxVel'
p13
F0.5
sS'age'
p14
I0
sS'gener'
p15
S'm'
sS'lastScale'
p16
F5.5
sS'energy'
p17
F0.5
sb.(i__main__
Data_mobile
p1
(dp2
S'vel_y'
p3
F-0.021779912486147773
sS'vel_x'
p4
F0.32084128715073756
sS'pos_x'
p5
F-111.96707595686541
sS'pos_y'
p6
F-77.596467015367182
sS'isAlive'
p7
I01
sS'geno'
p8
(lp9
F1.4788969826633194
aF3.233947867241433
aF-0.70647709766554123
aF3.8410632284168855
aF3.5062709034588835
aF1.3780561181917408
asS'accel_x'
p10
F0
sS'accel_y'
p11
F0
sS'maxAccel'
p12
I2
sS'maxVel'
p13
F0.5
sS'age'
p14
I0
sS'gener'
p15
S'm'
sS'lastScale'
p16
F5.5
sS'energy'
p17
F0.5
sb.(i__main__
Data_mobile
p1
(dp2
S'vel_y'
p3
F0.21192539241133809
sS'vel_x'
p4
F0.05821534846667388
sS'pos_x'
p5
F177.51325156060531
sS'pos_y'
p6
F-90.826287543628553
sS'isAlive'
p7
I01
sS'geno'
p8
(lp9
F1.4791152623939252
aF2.9371374437457343
aF-0.70647709766554123
aF4.2580018541844362
aF0.36345448478166298
aF-1.0659026377598124
asS'accel_x'
p10
F0
sS'accel_y'
p11
F0
sS'maxAccel'
p12
I2
sS'maxVel'
p13
F0.5
sS'age'
p14
I0
sS'gener'
p15
S'm'
sS'lastScale'
p16
F5.5
sS'energy'
p17
F0.5
sb.(i__main__
Data_mobile
p1
(dp2
S'vel_y'
p3
F0.027089903256600475
sS'vel_x'
p4
F-0.42499515172546115
sS'pos_x'
p5
F175.93754153100329
sS'pos_y'
p6
F32.151632129970011
sS'isAlive'
p7
I01
sS'geno'
p8
(lp9
F1.4791152623939252
aF3.233947867241433
aF-0.70647709766554123
aF2.1587488829837111
aF0.36345448478166298
aF-1.0659026377598124
asS'accel_x'
p10
F0
sS'accel_y'
p11
F0
sS'maxAccel'
p12
I2
sS'maxVel'
p13
F0.5
sS'age'
p14
I0
sS'gener'
p15
S'm'
sS'lastScale'
p16
F5.5
sS'energy'
p17
F0.5
sb.(i__main__
Data_mobile
p1
(dp2
S'vel_y'
p3
F0.22773218803732453
sS'vel_x'
p4
F-0.27052931291500315
sS'pos_x'
p5
F-140.7857956375185
sS'pos_y'
p6
F7.7949035237634909
sS'isAlive'
p7
I01
sS'geno'
p8
(lp9
F2.4890001832964437
aF-2.6776094896637903
aF-0.50629458496414559
aF4.2580018541844362
aF0.36345448478166298
aF-1.0659026377598124
asS'accel_x'
p10
F0
sS'accel_y'
p11
F0
sS'maxAccel'
p12
I2
sS'maxVel'
p13
F0.5
sS'age'
p14
I0
sS'gener'
p15
S'm'
sS'lastScale'
p16
F5.5
sS'energy'
p17
F0.5
sb.(i__main__
Data_mobile
p1
(dp2
S'vel_y'
p3
F0.19528171005117942
sS'vel_x'
p4
F0.063877982286020957
sS'pos_x'
p5
F94.074247735248534
sS'pos_y'
p6
F-89.271518939246619
sS'isAlive'
p7
I01
sS'geno'
p8
(lp9
F2.6445972293986824
aF-2.6776094896637903
aF-0.9048596649952112
aF3.8410632284168855
aF3.3037806157091634
aF1.3780561181917408
asS'accel_x'
p10
F0
sS'accel_y'
p11
F0
sS'maxAccel'
p12
I2
sS'maxVel'
p13
F0.5
sS'age'
p14
I0
sS'gener'
p15
S'm'
sS'lastScale'
p16
F5.5
sS'energy'
p17
F0.5
sb.(i__main__
Data_mobile
p1
(dp2
S'vel_y'
p3
F0.420331231456189
sS'vel_x'
p4
F0.27002271680309836
sS'pos_x'
p5
F-105.30915622377904
sS'pos_y'
p6
F27.055822558984293
sS'isAlive'
p7
I01
sS'geno'
p8
(lp9
F1.4791152623939252
aF3.233947867241433
aF-0.62407996810055244
aF4.0757753881558507
aF0.24949216754519654
aF-0.63785499925596367
asS'accel_x'
p10
F0
sS'accel_y'
p11
F0
sS'maxAccel'
p12
I2
sS'maxVel'
p13
F0.5
sS'age'
p14
I0
sS'gener'
p15
S'm'
sS'lastScale'
p16
F5.5
sS'energy'
p17
F0.5
sb.(i__main__
Data_mobile
p1
(dp2
S'vel_y'
p3
F-0.36342700744005202
sS'vel_x'
p4
F-0.32145886398105505
sS'pos_x'
p5
F174.91854248712471
sS'pos_y'
p6
F40.227565942244517
sS'isAlive'
p7
I01
sS'geno'
p8
(lp9
F1.3928993223965178
aF3.0041871967343106
aF-4.3706325612150279
aF4.0864625930455745
aF0.36345448478166298
aF-1.464004626785002
asS'accel_x'
p10
F0
sS'accel_y'
p11
F0
sS'maxAccel'
p12
I2
sS'maxVel'
p13
F0.5
sS'age'
p14
I0
sS'gener'
p15
S'm'
sS'lastScale'
p16
F5.5
sS'energy'
p17
F0.5
sb.(i__main__
Data_mobile
p1
(dp2
S'vel_y'
p3
F-0.19245725055225354
sS'vel_x'
p4
F0.38868896950063248
sS'pos_x'
p5
F-149.74536362089739
sS'pos_y'
p6
F-73.161558387974281
sS'isAlive'
p7
I01
sS'geno'
p8
(lp9
F1.7175385381220303
aF3.0041871967343106
aF-1.1549468185739724
aF4.2580018541844362
aF3.9498060698670749
aF0.95780528664904629
asS'accel_x'
p10
F0
sS'accel_y'
p11
F0
sS'maxAccel'
p12
I2
sS'maxVel'
p13
F0.5
sS'age'
p14
I0
sS'gener'
p15
S'm'
sS'lastScale'
p16
F5.5
sS'energy'
p17
F0.5
sb.(i__main__
Data_mobile
p1
(dp2
S'vel_y'
p3
F0.43880338738510505
sS'vel_x'
p4
F0.23888056275279967
sS'pos_x'
p5
F-105.94104255535603
sS'pos_y'
p6
F27.757740859330415
sS'isAlive'
p7
I01
sS'geno'
p8
(lp9
F1.4788969826633194
aF3.0041871967343106
aF-0.70647709766554123
aF3.8410632284168855
aF0.36345448478166298
aF-1.0659026377598124
asS'accel_x'
p10
F0
sS'accel_y'
p11
F0
sS'maxAccel'
p12
I2
sS'maxVel'
p13
F0.5
sS'age'
p14
I0
sS'gener'
p15
S'm'
sS'lastScale'
p16
F5.5
sS'energy'
p17
F0.5
sb.(i__main__
Data_mobile
p1
(dp2
S'vel_y'
p3
F-0.001198814351226412
sS'vel_x'
p4
F0.48013815266313836
sS'pos_x'
p5
F171.36975157185802
sS'pos_y'
p6
F63.092058954723193
sS'isAlive'
p7
I01
sS'geno'
p8
(lp9
F1.463403599297481
aF2.5094107181069023
aF-1.1549468185739724
aF4.2580018541844362
aF0.36345448478166298
aF-1.0659026377598124
asS'accel_x'
p10
F0
sS'accel_y'
p11
F0
sS'maxAccel'
p12
I2
sS'maxVel'
p13
F0.5
sS'age'
p14
I0
sS'gener'
p15
S'm'
sS'lastScale'
p16
F5.5
sS'energy'
p17
F0.5
sb.(i__main__
Data_mobile
p1
(dp2
S'vel_y'
p3
F0.26378287861091054
sS'vel_x'
p4
F-0.41456206262620171
sS'pos_x'
p5
F169.72137110223247
sS'pos_y'
p6
F54.827780570860511
sS'isAlive'
p7
I01
sS'geno'
p8
(lp9
F2.4890001832964437
aF-2.6776094896637903
aF-0.70647709766554123
aF3.8410632284168855
aF0.36345448478166298
aF-1.0659026377598124
asS'accel_x'
p10
F0
sS'accel_y'
p11
F0
sS'maxAccel'
p12
I2
sS'maxVel'
p13
F0.5
sS'age'
p14
I0
sS'gener'
p15
S'm'
sS'lastScale'
p16
F5.5
sS'energy'
p17
F0.5
sb.(i__main__
Data_mobile
p1
(dp2
S'vel_y'
p3
F0.18114885832296773
sS'vel_x'
p4
F-0.46603025677180832
sS'pos_x'
p5
F-97.797878373394212
sS'pos_y'
p6
F-21.160968181493416
sS'isAlive'
p7
I01
sS'geno'
p8
(lp9
F1.3928993223965178
aF3.0041871967343106
aF-4.3706325612150279
aF3.8410632284168855
aF0.36345448478166298
aF-1.0659026377598124
asS'accel_x'
p10
F0
sS'accel_y'
p11
F0
sS'maxAccel'
p12
I2
sS'maxVel'
p13
F0.5
sS'age'
p14
I0
sS'gener'
p15
S'm'
sS'lastScale'
p16
F5.5
sS'energy'
p17
F0.5
sb.(i__main__
Data_mobile
p1
(dp2
S'vel_y'
p3
F-0.050084964292608863
sS'vel_x'
p4
F-0.19074984412782375
sS'pos_x'
p5
F26.588600417407793
sS'pos_y'
p6
F-64.805864393583363
sS'isAlive'
p7
I01
sS'geno'
p8
(lp9
F1.4791152623939252
aF3.233947867241433
aF-0.70647709766554123
aF4.0864625930455745
aF0.36345448478166298
aF-1.464004626785002
asS'accel_x'
p10
F0
sS'accel_y'
p11
F0
sS'maxAccel'
p12
I2
sS'maxVel'
p13
F0.5
sS'age'
p14
I0
sS'gener'
p15
S'm'
sS'lastScale'
p16
F5.5
sS'energy'
p17
F0.5
sb.(i__main__
Data_mobile
p1
(dp2
S'vel_y'
p3
F-0.11229956168368677
sS'vel_x'
p4
F0.1029845118221972
sS'pos_x'
p5
F109.87924284720609
sS'pos_y'
p6
F9.6612340916971675
sS'isAlive'
p7
I01
sS'geno'
p8
(lp9
F1.012537443650869
aF3.233947867241433
aF-0.70647709766554123
aF2.9197185850310734
aF0.1931972472696154
aF-1.0659026377598124
asS'accel_x'
p10
F0
sS'accel_y'
p11
F0
sS'maxAccel'
p12
I2
sS'maxVel'
p13
F0.5
sS'age'
p14
I0
sS'gener'
p15
S'm'
sS'lastScale'
p16
F5.5
sS'energy'
p17
F0.5
sb.(i__main__
Data_mobile
p1
(dp2
S'vel_y'
p3
F-0.41723318938882131
sS'vel_x'
p4
F-0.27552942796084778
sS'pos_x'
p5
F-154.01002497854358
sS'pos_y'
p6
F66.963838859988783
sS'isAlive'
p7
I01
sS'geno'
p8
(lp9
F2.4890001832964437
aF-2.6776094896637903
aF-0.70647709766554123
aF3.8410632284168855
aF0.36345448478166298
aF-1.0659026377598124
asS'accel_x'
p10
F-0.96629234721728208
sS'accel_y'
p11
F-1.7510794098810356
sS'maxAccel'
p12
I2
sS'maxVel'
p13
F0.5
sS'age'
p14
I50
sS'gener'
p15
S'm'
sS'lastScale'
p16
F5.5
sS'energy'
p17
I0
sb.(i__main__
Data_mobile
p1
(dp2
S'vel_y'
p3
F0.35960246374610233
sS'vel_x'
p4
F0.34739900412599506
sS'pos_x'
p5
F-56.942237308809304
sS'pos_y'
p6
F-55.685889062180145
sS'isAlive'
p7
I01
sS'geno'
p8
(lp9
F2.4890001832964437
aF-2.6776094896637903
aF-0.70647709766554123
aF3.8410632284168855
aF0.36345448478166298
aF-1.0659026377598124
asS'accel_x'
p10
F1.9974031314507426
sS'accel_y'
p11
F-0.10188586982878044
sS'maxAccel'
p12
I2
sS'maxVel'
p13
F0.5
sS'age'
p14
I50
sS'gener'
p15
S'm'
sS'lastScale'
p16
F5.5
sS'energy'
p17
I0
sb.(i__main__
Data_mobile
p1
(dp2
S'vel_y'
p3
F0.34996464499976793
sS'vel_x'
p4
F0.35710607282736939
sS'pos_x'
p5
F-52.637558412473041
sS'pos_y'
p6
F-16.857174213038661
sS'isAlive'
p7
I01
sS'geno'
p8
(lp9
F2.4890001832964437
aF-2.6776094896637903
aF-4.1786559897674795
aF2.1587488829837111
aF0.36345448478166298
aF-1.0659026377598124
asS'accel_x'
p10
F1.3390747625150212
sS'accel_y'
p11
F-1.4855567240584719
sS'maxAccel'
p12
I2
sS'maxVel'
p13
F0.5
sS'age'
p14
I50
sS'gener'
p15
S'm'
sS'lastScale'
p16
F5.5
sS'energy'
p17
I0
sb.(i__main__
Data_mobile
p1
(dp2
S'vel_y'
p3
F-0.17833152067915753
sS'vel_x'
p4
F-0.46711654726872948
sS'pos_x'
p5
F-142.85599609435621
sS'pos_y'
p6
F102.24586439673891
sS'isAlive'
p7
I01
sS'geno'
p8
(lp9
F2.4890001832964437
aF-2.6776094896637903
aF-0.70647709766554123
aF4.0090786939067424
aF0.36345448478166298
aF-1.0659026377598124
asS'accel_x'
p10
F-1.5308573755807597
sS'accel_y'
p11
F-1.2870414506261987
sS'maxAccel'
p12
I2
sS'maxVel'
p13
F0.5
sS'age'
p14
I50
sS'gener'
p15
S'm'
sS'lastScale'
p16
F5.5
sS'energy'
p17
I0
sb.(i__main__
Data_mobile
p1
(dp2
S'vel_y'
p3
F0.42616051997615578
sS'vel_x'
p4
F-0.26150948589611911
sS'pos_x'
p5
F-99.734416603318266
sS'pos_y'
p6
F87.758418701432348
sS'isAlive'
p7
I01
sS'geno'
p8
(lp9
F2.4890001832964437
aF-2.6776094896637903
aF-0.70647709766554123
aF3.8410632284168855
aF3.3037806157091634
aF1.3780561181917408
asS'accel_x'
p10
F1.3391241009745081
sS'accel_y'
p11
F1.0804996566843483
sS'maxAccel'
p12
I2
sS'maxVel'
p13
F0.5
sS'age'
p14
I50
sS'gener'
p15
S'm'
sS'lastScale'
p16
F5.5
sS'energy'
p17
I0
sb.(i__main__
Data_mobile
p1
(dp2
S'vel_y'
p3
F-0.42284497366194507
sS'vel_x'
p4
F-0.26683726922757434
sS'pos_x'
p5
F209.94650619757951
sS'pos_y'
p6
F1.6961793557922538
sS'isAlive'
p7
I01
sS'geno'
p8
(lp9
F1.3928993223965178
aF3.1906151742347939
aF0.033322090767515244
aF3.8410632284168855
aF0.28259386050716673
aF-1.2084462482825236
asS'accel_x'
p10
F-0.75250960315487403
sS'accel_y'
p11
F-1.8530324598235439
sS'maxAccel'
p12
I2
sS'maxVel'
p13
F0.5
sS'age'
p14
I50
sS'gener'
p15
S'm'
sS'lastScale'
p16
F5.5
sS'energy'
p17
I0
sb.(i__main__
Data_mobile
p1
(dp2
S'vel_y'
p3
F0.39929280057180722
sS'vel_x'
p4
F0.3009406243954495
sS'pos_x'
p5
F-205.57496731625073
sS'pos_y'
p6
F94.231127621225625
sS'isAlive'
p7
I01
sS'geno'
p8
(lp9
F1.4058428110748789
aF3.0041871967343106
aF-1.1549468185739724
aF4.2580018541844362
aF3.9498060698670749
aF0.95780528664904629
asS'accel_x'
p10
F1.5663988494891861
sS'accel_y'
p11
F1.1027050887931922
sS'maxAccel'
p12
I2
sS'maxVel'
p13
F0.5
sS'age'
p14
I50
sS'gener'
p15
S'm'
sS'lastScale'
p16
F5.5
sS'energy'
p17
I0
sb.(i__main__
Data_mobile
p1
(dp2
S'vel_y'
p3
F0.49878113560742166
sS'vel_x'
p4
F0.034890955306079288
sS'pos_x'
p5
F-88.29157736331355
sS'pos_y'
p6
F39.622749360909147
sS'isAlive'
p7
I01
sS'geno'
p8
(lp9
F2.4890001832964437
aF-2.6776094896637903
aF-1.1891869870042187
aF3.8410632284168855
aF3.3037806157091634
aF1.3780561181917408
asS'accel_x'
p10
F0.35861499160267907
sS'accel_y'
p11
F1.8501105943961984
sS'maxAccel'
p12
I2
sS'maxVel'
p13
F0.5
sS'age'
p14
I50
sS'gener'
p15
S'm'
sS'lastScale'
p16
F5.5
sS'energy'
p17
I0
sb.(i__main__
Data_mobile
p1
(dp2
S'vel_y'
p3
F-0.49601706231314774
sS'vel_x'
p4
F0.062984711591265577
sS'pos_x'
p5
F209.06168628738931
sS'pos_y'
p6
F-24.214434825999479
sS'isAlive'
p7
I01
sS'geno'
p8
(lp9
F1.4908546591808416
aF2.9101449775675556
aF-4.1786559897674795
aF2.1587488829837111
aF0.36345448478166298
aF-1.0659026377598124
asS'accel_x'
p10
F0.67854291993730298
sS'accel_y'
p11
F-1.8813770238320011
sS'maxAccel'
p12
I2
sS'maxVel'
p13
F0.5
sS'age'
p14
I50
sS'gener'
p15
S'm'
sS'lastScale'
p16
F5.5
sS'energy'
p17
I0
sb.(i__main__
Data_mobile
p1
(dp2
S'vel_y'
p3
F0.029911943963366983
sS'vel_x'
p4
F0.49910447364087246
sS'pos_x'
p5
F-105.08663004241563
sS'pos_y'
p6
F-46.247891542131548
sS'isAlive'
p7
I01
sS'geno'
p8
(lp9
F1.4791152623939252
aF3.233947867241433
aF-0.70647709766554123
aF2.4569511785486742
aF0.36345448478166298
aF-1.7398692290629638
asS'accel_x'
p10
F1.9789615501538664
sS'accel_y'
p11
F-0.28932884925739127
sS'maxAccel'
p12
I2
sS'maxVel'
p13
F0.5
sS'age'
p14
I50
sS'gener'
p15
S'm'
sS'lastScale'
p16
F5.5
sS'energy'
p17
I0
sb.(i__main__
Data_mobile
p1
(dp2
S'vel_y'
p3
I0
sS'vel_x'
p4
I0
sS'pos_x'
p5
I-9579
sS'pos_y'
p6
I9779
sS'isAlive'
p7
I00
sS'geno'
p8
(lp9
F1.4791152623939252
aF3.233947867241433
aF-1.1549468185739724
aF4.2580018541844362
aF3.9498060698670749
aF1.1262639803617254
asS'accel_x'
p10
F0
sS'accel_y'
p11
F0
sS'maxAccel'
p12
I2
sS'maxVel'
p13
F0.5
sS'age'
p14
I0
sS'gener'
p15
S'm'
sS'lastScale'
p16
F5.5
sS'energy'
p17
F0.5
sb.(i__main__
Data_mobile
p1
(dp2
S'vel_y'
p3
I0
sS'vel_x'
p4
I0
sS'pos_x'
p5
I-9579
sS'pos_y'
p6
I9779
sS'isAlive'
p7
I00
sS'geno'
p8
(lp9
F1.3928993223965178
aF2.7927789027548955
aF-0.9679440166812463
aF2.4569511785486742
aF0.36345448478166298
aF-1.2922838717349872
asS'accel_x'
p10
F0
sS'accel_y'
p11
F0
sS'maxAccel'
p12
I2
sS'maxVel'
p13
F0.5
sS'age'
p14
I0
sS'gener'
p15
S'm'
sS'lastScale'
p16
F5.5
sS'energy'
p17
F0.5
sb.(i__main__
Data_mobile
p1
(dp2
S'vel_y'
p3
I0
sS'vel_x'
p4
I0
sS'pos_x'
p5
I-9579
sS'pos_y'
p6
I9779
sS'isAlive'
p7
I00
sS'geno'
p8
(lp9
F1.3928993223965178
aF3.1906151742347939
aF0.033322090767515244
aF4.0757753881558507
aF0.14512622284543397
aF-0.63785499925596367
asS'accel_x'
p10
F0
sS'accel_y'
p11
F0
sS'maxAccel'
p12
I2
sS'maxVel'
p13
F0.5
sS'age'
p14
I0
sS'gener'
p15
S'm'
sS'lastScale'
p16
F5.5
sS'energy'
p17
F0.5
sb.(i__main__
Data_mobile
p1
(dp2
S'vel_y'
p3
I0
sS'vel_x'
p4
I0
sS'pos_x'
p5
I-9579
sS'pos_y'
p6
I9779
sS'isAlive'
p7
I00
sS'geno'
p8
(lp9
F2.4890001832964437
aF-2.6776094896637903
aF-0.70647709766554123
aF3.8410632284168855
aF0.36345448478166298
aF-1.0659026377598124
asS'accel_x'
p10
F0
sS'accel_y'
p11
F0
sS'maxAccel'
p12
I2
sS'maxVel'
p13
F0.5
sS'age'
p14
I0
sS'gener'
p15
S'm'
sS'lastScale'
p16
F5.5
sS'energy'
p17
F0.5
sb.(i__main__
Data_mobile
p1
(dp2
S'vel_y'
p3
I0
sS'vel_x'
p4
I0
sS'pos_x'
p5
I-9579
sS'pos_y'
p6
I9779
sS'isAlive'
p7
I00
sS'geno'
p8
(lp9
F1.4791152623939252
aF3.233947867241433
aF-0.70647709766554123
aF2.4569511785486742
aF4.1835885176971548
aF0.95780528664904629
asS'accel_x'
p10
F0
sS'accel_y'
p11
F0
sS'maxAccel'
p12
I2
sS'maxVel'
p13
F0.5
sS'age'
p14
I0
sS'gener'
p15
S'm'
sS'lastScale'
p16
F5.5
sS'energy'
p17
F0.5
sb.(i__main__
Data_mobile
p1
(dp2
S'vel_y'
p3
I0
sS'vel_x'
p4
I0
sS'pos_x'
p5
I-9579
sS'pos_y'
p6
I9779
sS'isAlive'
p7
I00
sS'geno'
p8
(lp9
F2.4890001832964437
aF-2.6776094896637903
aF-0.71225979133164552
aF3.8410632284168855
aF0.36345448478166298
aF-1.0659026377598124
asS'accel_x'
p10
F0
sS'accel_y'
p11
F0
sS'maxAccel'
p12
I2
sS'maxVel'
p13
F0.5
sS'age'
p14
I0
sS'gener'
p15
S'm'
sS'lastScale'
p16
F5.5
sS'energy'
p17
F0.5
sb.(i__main__
Data_mobile
p1
(dp2
S'vel_y'
p3
I0
sS'vel_x'
p4
I0
sS'pos_x'
p5
I-9579
sS'pos_y'
p6
I9779
sS'isAlive'
p7
I00
sS'geno'
p8
(lp9
F1.4788969826633194
aF3.0041871967343106
aF-1.1549468185739724
aF4.2580018541844362
aF3.9498060698670749
aF0.95780528664904629
asS'accel_x'
p10
F0
sS'accel_y'
p11
F0
sS'maxAccel'
p12
I2
sS'maxVel'
p13
F0.5
sS'age'
p14
I0
sS'gener'
p15
S'm'
sS'lastScale'
p16
F5.5
sS'energy'
p17
F0.5
sb.(i__main__
Data_mobile
p1
(dp2
S'vel_y'
p3
I0
sS'vel_x'
p4
I0
sS'pos_x'
p5
I-9579
sS'pos_y'
p6
I9779
sS'isAlive'
p7
I00
sS'geno'
p8
(lp9
F1.4791152623939252
aF3.233947867241433
aF-0.70647709766554123
aF2.4569511785486742
aF4.1835885176971548
aF0.95780528664904629
asS'accel_x'
p10
F0
sS'accel_y'
p11
F0
sS'maxAccel'
p12
I2
sS'maxVel'
p13
F0.5
sS'age'
p14
I0
sS'gener'
p15
S'm'
sS'lastScale'
p16
F5.5
sS'energy'
p17
F0.5
sb.(i__main__
Data_mobile
p1
(dp2
S'vel_y'
p3
I0
sS'vel_x'
p4
I0
sS'pos_x'
p5
I-9579
sS'pos_y'
p6
I9779
sS'isAlive'
p7
I00
sS'geno'
p8
(lp9
F2.4293661956591981
aF-2.7610554327503634
aF-0.70647709766554123
aF3.8410632284168855
aF0.36345448478166298
aF-1.0659026377598124
asS'accel_x'
p10
F0
sS'accel_y'
p11
F0
sS'maxAccel'
p12
I2
sS'maxVel'
p13
F0.5
sS'age'
p14
I0
sS'gener'
p15
S'm'
sS'lastScale'
p16
F5.5
sS'energy'
p17
F0.5
sb.(i__main__
Data_mobile
p1
(dp2
S'vel_y'
p3
I0
sS'vel_x'
p4
I0
sS'pos_x'
p5
I-9579
sS'pos_y'
p6
I9779
sS'isAlive'
p7
I00
sS'geno'
p8
(lp9
F-4.0982497514496323
aF-2.1336787893097844
aF3.3361747087256859
aF4.2052630743430006
aF3.0489482608929848
aF1.3780561181917408
asS'accel_x'
p10
F0
sS'accel_y'
p11
F0
sS'maxAccel'
p12
I2
sS'maxVel'
p13
F0.5
sS'age'
p14
I0
sS'gener'
p15
S'm'
sS'lastScale'
p16
F5.5
sS'energy'
p17
F0.5
sb.(i__main__
Data_mobile
p1
(dp2
S'vel_y'
p3
I0
sS'vel_x'
p4
I0
sS'pos_x'
p5
I-9579
sS'pos_y'
p6
I9779
sS'isAlive'
p7
I00
sS'geno'
p8
(lp9
F1.4788969826633194
aF3.0041871967343106
aF-0.70647709766554123
aF3.8410632284168855
aF0.36345448478166298
aF-1.0659026377598124
asS'accel_x'
p10
F0
sS'accel_y'
p11
F0
sS'maxAccel'
p12
I2
sS'maxVel'
p13
F0.5
sS'age'
p14
I0
sS'gener'
p15
S'm'
sS'lastScale'
p16
F5.5
sS'energy'
p17
F0.5
sb.(i__main__
Data_mobile
p1
(dp2
S'vel_y'
p3
I0
sS'vel_x'
p4
I0
sS'pos_x'
p5
I-9579
sS'pos_y'
p6
I9779
sS'isAlive'
p7
I00
sS'geno'
p8
(lp9
F1.4791152623939252
aF3.233947867241433
aF-0.70647709766554123
aF3.8410632284168855
aF0.36345448478166298
aF-1.0659026377598124
asS'accel_x'
p10
F0
sS'accel_y'
p11
F0
sS'maxAccel'
p12
I2
sS'maxVel'
p13
F0.5
sS'age'
p14
I0
sS'gener'
p15
S'm'
sS'lastScale'
p16
F5.5
sS'energy'
p17
F0.5
sb.(i__main__
Data_mobile
p1
(dp2
S'vel_y'
p3
I0
sS'vel_x'
p4
I0
sS'pos_x'
p5
I-9579
sS'pos_y'
p6
I9779
sS'isAlive'
p7
I00
sS'geno'
p8
(lp9
F2.4890001832964437
aF-2.6776094896637903
aF-0.70647709766554123
aF3.8410632284168855
aF0.36345448478166298
aF-1.0659026377598124
asS'accel_x'
p10
F0
sS'accel_y'
p11
F0
sS'maxAccel'
p12
I2
sS'maxVel'
p13
F0.5
sS'age'
p14
I0
sS'gener'
p15
S'm'
sS'lastScale'
p16
F5.5
sS'energy'
p17
F0.5
sb.(i__main__
Data_mobile
p1
(dp2
S'vel_y'
p3
I0
sS'vel_x'
p4
I0
sS'pos_x'
p5
I-9579
sS'pos_y'
p6
I9779
sS'isAlive'
p7
I00
sS'geno'
p8
(lp9
F2.4890001832964437
aF-3.1315298117482699
aF-0.70647709766554123
aF3.8410632284168855
aF0.36345448478166298
aF-1.0659026377598124
asS'accel_x'
p10
F0
sS'accel_y'
p11
F0
sS'maxAccel'
p12
I2
sS'maxVel'
p13
F0.5
sS'age'
p14
I0
sS'gener'
p15
S'm'
sS'lastScale'
p16
F5.5
sS'energy'
p17
F0.5
sb.(i__main__
Data_mobile
p1
(dp2
S'vel_y'
p3
I0
sS'vel_x'
p4
I0
sS'pos_x'
p5
I-9579
sS'pos_y'
p6
I9779
sS'isAlive'
p7
I00
sS'geno'
p8
(lp9
F1.7717954177951616
aF3.233947867241433
aF-0.70647709766554123
aF3.8410632284168855
aF0.36345448478166298
aF-1.3792451968614601
asS'accel_x'
p10
F0
sS'accel_y'
p11
F0
sS'maxAccel'
p12
I2
sS'maxVel'
p13
F0.5
sS'age'
p14
I0
sS'gener'
p15
S'm'
sS'lastScale'
p16
F5.5
sS'energy'
p17
F0.5
sb.(i__main__
Data_mobile
p1
(dp2
S'vel_y'
p3
I0
sS'vel_x'
p4
I0
sS'pos_x'
p5
I-9579
sS'pos_y'
p6
I9779
sS'isAlive'
p7
I00
sS'geno'
p8
(lp9
F1.4504295728376242
aF3.233947867241433
aF-0.70647709766554123
aF3.8410632284168855
aF0.43748131028536075
aF-1.0659026377598124
asS'accel_x'
p10
F0
sS'accel_y'
p11
F0
sS'maxAccel'
p12
I2
sS'maxVel'
p13
F0.5
sS'age'
p14
I0
sS'gener'
p15
S'm'
sS'lastScale'
p16
F5.5
sS'energy'
p17
F0.5
sb.(i__main__
Data_mobile
p1
(dp2
S'vel_y'
p3
I0
sS'vel_x'
p4
I0
sS'pos_x'
p5
I-9579
sS'pos_y'
p6
I9779
sS'isAlive'
p7
I00
sS'geno'
p8
(lp9
F1.4504295728376242
aF3.233947867241433
aF-0.70647709766554123
aF3.8410632284168855
aF0.48888352484391351
aF-1.0659026377598124
asS'accel_x'
p10
F0
sS'accel_y'
p11
F0
sS'maxAccel'
p12
I2
sS'maxVel'
p13
F0.5
sS'age'
p14
I0
sS'gener'
p15
S'm'
sS'lastScale'
p16
F5.5
sS'energy'
p17
F0.5
sb.(i__main__
Data_mobile
p1
(dp2
S'vel_y'
p3
I0
sS'vel_x'
p4
I0
sS'pos_x'
p5
I-9579
sS'pos_y'
p6
I9779
sS'isAlive'
p7
I00
sS'geno'
p8
(lp9
F2.4293661956591981
aF-2.7610554327503634
aF-0.70647709766554123
aF3.8410632284168855
aF4.1565226783161222
aF0.95780528664904629
asS'accel_x'
p10
F0
sS'accel_y'
p11
F0
sS'maxAccel'
p12
I2
sS'maxVel'
p13
F0.5
sS'age'
p14
I0
sS'gener'
p15
S'm'
sS'lastScale'
p16
F5.5
sS'energy'
p17
F0.5
sb.(i__main__
Data_mobile
p1
(dp2
S'vel_y'
p3
I0
sS'vel_x'
p4
I0
sS'pos_x'
p5
I-9579
sS'pos_y'
p6
I9779
sS'isAlive'
p7
I00
sS'geno'
p8
(lp9
F1.4791152623939252
aF3.233947867241433
aF-4.1786559897674795
aF4.2580018541844362
aF0.72036273250514826
aF-1.0659026377598124
asS'accel_x'
p10
F0
sS'accel_y'
p11
F0
sS'maxAccel'
p12
I2
sS'maxVel'
p13
F0.5
sS'age'
p14
I0
sS'gener'
p15
S'm'
sS'lastScale'
p16
F5.5
sS'energy'
p17
F0.5
sb.(i__main__
Data_mobile
p1
(dp2
S'vel_y'
p3
I0
sS'vel_x'
p4
I0
sS'pos_x'
p5
I-9579
sS'pos_y'
p6
I9779
sS'isAlive'
p7
I00
sS'geno'
p8
(lp9
F1.3928993223965178
aF2.7927789027548955
aF-0.70647709766554123
aF4.2580018541844362
aF0.72036273250514826
aF-1.0659026377598124
asS'accel_x'
p10
F0
sS'accel_y'
p11
F0
sS'maxAccel'
p12
I2
sS'maxVel'
p13
F0.5
sS'age'
p14
I0
sS'gener'
p15
S'm'
sS'lastScale'
p16
F5.5
sS'energy'
p17
F0.5
sb.(i__main__
Data_mobile
p1
(dp2
S'vel_y'
p3
I0
sS'vel_x'
p4
I0
sS'pos_x'
p5
I-9579
sS'pos_y'
p6
I9779
sS'isAlive'
p7
I00
sS'geno'
p8
(lp9
F1.4788969826633194
aF3.0041871967343106
aF-1.1549468185739724
aF4.2580018541844362
aF0.36345448478166298
aF-1.0659026377598124
asS'accel_x'
p10
F0
sS'accel_y'
p11
F0
sS'maxAccel'
p12
I2
sS'maxVel'
p13
F0.5
sS'age'
p14
I0
sS'gener'
p15
S'm'
sS'lastScale'
p16
F5.5
sS'energy'
p17
F0.5
sb.(i__main__
Data_mobile
p1
(dp2
S'vel_y'
p3
I0
sS'vel_x'
p4
I0
sS'pos_x'
p5
I-9579
sS'pos_y'
p6
I9779
sS'isAlive'
p7
I00
sS'geno'
p8
(lp9
F1.1582187359194531
aF2.5094107181069023
aF-1.1549468185739724
aF4.4976539554581976
aF0.36345448478166298
aF0.95780528664904629
asS'accel_x'
p10
F0
sS'accel_y'
p11
F0
sS'maxAccel'
p12
I2
sS'maxVel'
p13
F0.5
sS'age'
p14
I0
sS'gener'
p15
S'm'
sS'lastScale'
p16
F5.5
sS'energy'
p17
F0.5
sb.(i__main__
Data_mobile
p1
(dp2
S'vel_y'
p3
I0
sS'vel_x'
p4
I0
sS'pos_x'
p5
I-9579
sS'pos_y'
p6
I9779
sS'isAlive'
p7
I00
sS'geno'
p8
(lp9
F1.4791152623939252
aF3.233947867241433
aF-0.70647709766554123
aF4.2580018541844362
aF0.36345448478166298
aF-1.0659026377598124
asS'accel_x'
p10
F0
sS'accel_y'
p11
F0
sS'maxAccel'
p12
I2
sS'maxVel'
p13
F0.5
sS'age'
p14
I0
sS'gener'
p15
S'm'
sS'lastScale'
p16
F5.5
sS'energy'
p17
F0.5
sb.(i__main__
Data_mobile
p1
(dp2
S'vel_y'
p3
I0
sS'vel_x'
p4
I0
sS'pos_x'
p5
I-9579
sS'pos_y'
p6
I9779
sS'isAlive'
p7
I00
sS'geno'
p8
(lp9
F1.3928993223965178
aF3.0041871967343106
aF-4.1786559897674795
aF1.7901053002226863
aF4.1835885176971548
aF0.95780528664904629
asS'accel_x'
p10
F0
sS'accel_y'
p11
F0
sS'maxAccel'
p12
I2
sS'maxVel'
p13
F0.5
sS'age'
p14
I0
sS'gener'
p15
S'm'
sS'lastScale'
p16
F5.5
sS'energy'
p17
F0.5
sb.(i__main__
Data_mobile
p1
(dp2
S'vel_y'
p3
I0
sS'vel_x'
p4
I0
sS'pos_x'
p5
I-9579
sS'pos_y'
p6
I9779
sS'isAlive'
p7
I00
sS'geno'
p8
(lp9
F1.3928993223965178
aF3.0041871967343106
aF-0.70647709766554123
aF3.8410632284168855
aF0.36345448478166298
aF-1.0659026377598124
asS'accel_x'
p10
F0
sS'accel_y'
p11
F0
sS'maxAccel'
p12
I2
sS'maxVel'
p13
F0.5
sS'age'
p14
I0
sS'gener'
p15
S'm'
sS'lastScale'
p16
F5.5
sS'energy'
p17
F0.5
sb.(i__main__
Data_mobile
p1
(dp2
S'vel_y'
p3
I0
sS'vel_x'
p4
I0
sS'pos_x'
p5
I-9579
sS'pos_y'
p6
I9779
sS'isAlive'
p7
I00
sS'geno'
p8
(lp9
F1.3928993223965178
aF3.0041871967343106
aF-0.70647709766554123
aF4.0864625930455745
aF0.36345448478166298
aF-1.2922838717349872
asS'accel_x'
p10
F0
sS'accel_y'
p11
F0
sS'maxAccel'
p12
I2
sS'maxVel'
p13
F0.5
sS'age'
p14
I0
sS'gener'
p15
S'm'
sS'lastScale'
p16
F5.5
sS'energy'
p17
F0.5
sb.(i__main__
Data_mobile
p1
(dp2
S'vel_y'
p3
I0
sS'vel_x'
p4
I0
sS'pos_x'
p5
I-9579
sS'pos_y'
p6
I9779
sS'isAlive'
p7
I00
sS'geno'
p8
(lp9
F1.4791152623939252
aF3.2365379063945072
aF-0.32174967798933007
aF4.0757753881558507
aF0.14512622284543397
aF-0.63785499925596367
asS'accel_x'
p10
F0
sS'accel_y'
p11
F0
sS'maxAccel'
p12
I2
sS'maxVel'
p13
F0.5
sS'age'
p14
I0
sS'gener'
p15
S'm'
sS'lastScale'
p16
F5.5
sS'energy'
p17
F0.5
sb.(i__main__
Data_mobile
p1
(dp2
S'vel_y'
p3
I0
sS'vel_x'
p4
I0
sS'pos_x'
p5
I-9579
sS'pos_y'
p6
I9779
sS'isAlive'
p7
I00
sS'geno'
p8
(lp9
F2.4890001832964437
aF-2.6776094896637903
aF-0.70647709766554123
aF4.0864625930455745
aF0.36345448478166298
aF-1.0659026377598124
asS'accel_x'
p10
F0
sS'accel_y'
p11
F0
sS'maxAccel'
p12
I2
sS'maxVel'
p13
F0.5
sS'age'
p14
I0
sS'gener'
p15
S'm'
sS'lastScale'
p16
F5.5
sS'energy'
p17
F0.5
sb.(i__main__
Data_mobile
p1
(dp2
S'vel_y'
p3
I0
sS'vel_x'
p4
I0
sS'pos_x'
p5
I-9579
sS'pos_y'
p6
I9779
sS'isAlive'
p7
I00
sS'geno'
p8
(lp9
F2.4890001832964437
aF-2.6776094896637903
aF-0.70647709766554123
aF3.8410632284168855
aF3.3037806157091634
aF1.3780561181917408
asS'accel_x'
p10
F0
sS'accel_y'
p11
F0
sS'maxAccel'
p12
I2
sS'maxVel'
p13
F0.5
sS'age'
p14
I0
sS'gener'
p15
S'm'
sS'lastScale'
p16
F5.5
sS'energy'
p17
F0.5
sb.(i__main__
Data_mobile
p1
(dp2
S'vel_y'
p3
I0
sS'vel_x'
p4
I0
sS'pos_x'
p5
I-9579
sS'pos_y'
p6
I9779
sS'isAlive'
p7
I00
sS'geno'
p8
(lp9
F1.4504295728376242
aF3.233947867241433
aF-0.70647709766554123
aF4.2580018541844362
aF0.72036273250514826
aF-1.0659026377598124
asS'accel_x'
p10
F0
sS'accel_y'
p11
F0
sS'maxAccel'
p12
I2
sS'maxVel'
p13
F0.5
sS'age'
p14
I0
sS'gener'
p15
S'm'
sS'lastScale'
p16
F5.5
sS'energy'
p17
F0.5
sb.(i__main__
Data_mobile
p1
(dp2
S'vel_y'
p3
I0
sS'vel_x'
p4
I0
sS'pos_x'
p5
I-9579
sS'pos_y'
p6
I9779
sS'isAlive'
p7
I00
sS'geno'
p8
(lp9
F1.4791152623939252
aF3.233947867241433
aF-3.769769804341196
aF2.3312483196296871
aF4.1835885176971548
aF-1.0659026377598124
asS'accel_x'
p10
F0
sS'accel_y'
p11
F0
sS'maxAccel'
p12
I2
sS'maxVel'
p13
F0.5
sS'age'
p14
I0
sS'gener'
p15
S'm'
sS'lastScale'
p16
F5.5
sS'energy'
p17
F0.5
sb.(i__main__
Data_mobile
p1
(dp2
S'vel_y'
p3
I0
sS'vel_x'
p4
I0
sS'pos_x'
p5
I-9579
sS'pos_y'
p6
I9779
sS'isAlive'
p7
I00
sS'geno'
p8
(lp9
F1.3928993223965178
aF3.0041871967343106
aF-0.70647709766554123
aF4.0864625930455745
aF0.36345448478166298
aF-1.0659026377598124
asS'accel_x'
p10
F0
sS'accel_y'
p11
F0
sS'maxAccel'
p12
I2
sS'maxVel'
p13
F0.5
sS'age'
p14
I0
sS'gener'
p15
S'm'
sS'lastScale'
p16
F5.5
sS'energy'
p17
F0.5
sb.(i__main__
Data_mobile
p1
(dp2
S'vel_y'
p3
I0
sS'vel_x'
p4
I0
sS'pos_x'
p5
I-9579
sS'pos_y'
p6
I9779
sS'isAlive'
p7
I00
sS'geno'
p8
(lp9
F2.4890001832964437
aF-2.6776094896637903
aF-4.1786559897674795
aF2.1587488829837111
aF4.1835885176971548
aF0.95780528664904629
asS'accel_x'
p10
F0
sS'accel_y'
p11
F0
sS'maxAccel'
p12
I2
sS'maxVel'
p13
F0.5
sS'age'
p14
I0
sS'gener'
p15
S'm'
sS'lastScale'
p16
F5.5
sS'energy'
p17
F0.5
sb.(i__main__
Data_mobile
p1
(dp2
S'vel_y'
p3
I0
sS'vel_x'
p4
I0
sS'pos_x'
p5
I-9579
sS'pos_y'
p6
I9779
sS'isAlive'
p7
I00
sS'geno'
p8
(lp9
F-4.0982497514496323
aF-2.1336787893097844
aF3.3361747087256859
aF4.3664063055081552
aF3.3037806157091634
aF1.3780561181917408
asS'accel_x'
p10
F0
sS'accel_y'
p11
F0
sS'maxAccel'
p12
I2
sS'maxVel'
p13
F0.5
sS'age'
p14
I0
sS'gener'
p15
S'm'
sS'lastScale'
p16
F5.5
sS'energy'
p17
F0.5
sb.(i__main__
Data_mobile
p1
(dp2
S'vel_y'
p3
I0
sS'vel_x'
p4
I0
sS'pos_x'
p5
I-9579
sS'pos_y'
p6
I9779
sS'isAlive'
p7
I00
sS'geno'
p8
(lp9
F1.3928993223965178
aF3.0041871967343106
aF-0.70647709766554123
aF4.0864625930455745
aF0.36345448478166298
aF-1.5623827408837641
asS'accel_x'
p10
F0
sS'accel_y'
p11
F0
sS'maxAccel'
p12
I2
sS'maxVel'
p13
F0.5
sS'age'
p14
I0
sS'gener'
p15
S'm'
sS'lastScale'
p16
F5.5
sS'energy'
p17
F0.5
sb.(i__main__
Data_mobile
p1
(dp2
S'vel_y'
p3
I0
sS'vel_x'
p4
I0
sS'pos_x'
p5
I-9579
sS'pos_y'
p6
I9779
sS'isAlive'
p7
I00
sS'geno'
p8
(lp9
F2.4890001832964437
aF-2.6776094896637903
aF-0.70647709766554123
aF4.0757753881558507
aF0.14512622284543397
aF-0.63785499925596367
asS'accel_x'
p10
F0
sS'accel_y'
p11
F0
sS'maxAccel'
p12
I2
sS'maxVel'
p13
F0.5
sS'age'
p14
I0
sS'gener'
p15
S'm'
sS'lastScale'
p16
F5.5
sS'energy'
p17
F0.5
sb.(i__main__
Data_mobile
p1
(dp2
S'vel_y'
p3
I0
sS'vel_x'
p4
I0
sS'pos_x'
p5
I-9579
sS'pos_y'
p6
I9779
sS'isAlive'
p7
I00
sS'geno'
p8
(lp9
F2.4890001832964437
aF-2.6776094896637903
aF-0.86445125711732784
aF1.9405763326937919
aF4.1835885176971548
aF0.95780528664904629
asS'accel_x'
p10
F0
sS'accel_y'
p11
F0
sS'maxAccel'
p12
I2
sS'maxVel'
p13
F0.5
sS'age'
p14
I0
sS'gener'
p15
S'm'
sS'lastScale'
p16
F5.5
sS'energy'
p17
F0.5
sb.(i__main__
Data_mobile
p1
(dp2
S'vel_y'
p3
I0
sS'vel_x'
p4
I0
sS'pos_x'
p5
I-9579
sS'pos_y'
p6
I9779
sS'isAlive'
p7
I00
sS'geno'
p8
(lp9
F1.4788969826633194
aF3.0041871967343106
aF-1.424702958124092
aF4.2580018541844362
aF-0.090690789330786337
aF-1.0659026377598124
asS'accel_x'
p10
F0
sS'accel_y'
p11
F0
sS'maxAccel'
p12
I2
sS'maxVel'
p13
F0.5
sS'age'
p14
I0
sS'gener'
p15
S'm'
sS'lastScale'
p16
F5.5
sS'energy'
p17
F0.5
sb.(i__main__
Data_mobile
p1
(dp2
S'vel_y'
p3
I0
sS'vel_x'
p4
I0
sS'pos_x'
p5
I-9579
sS'pos_y'
p6
I9779
sS'isAlive'
p7
I00
sS'geno'
p8
(lp9
F1.3928993223965178
aF2.7927789027548955
aF-0.70647709766554123
aF1.7901053002226863
aF4.1835885176971548
aF0.95780528664904629
asS'accel_x'
p10
F0
sS'accel_y'
p11
F0
sS'maxAccel'
p12
I2
sS'maxVel'
p13
F0.5
sS'age'
p14
I0
sS'gener'
p15
S'm'
sS'lastScale'
p16
F5.5
sS'energy'
p17
F0.5
sb.(i__main__
Data_mobile
p1
(dp2
S'vel_y'
p3
I0
sS'vel_x'
p4
I0
sS'pos_x'
p5
I-9579
sS'pos_y'
p6
I9779
sS'isAlive'
p7
I00
sS'geno'
p8
(lp9
F1.4788969826633194
aF4.1393962552235397
aF-0.68008571052891387
aF4.1392470570822937
aF0.37804974983873818
aF-1.0659026377598124
asS'accel_x'
p10
F0
sS'accel_y'
p11
F0
sS'maxAccel'
p12
I2
sS'maxVel'
p13
F0.5
sS'age'
p14
I0
sS'gener'
p15
S'm'
sS'lastScale'
p16
F5.5
sS'energy'
p17
F0.5
sb.(i__main__
Data_mobile
p1
(dp2
S'vel_y'
p3
I0
sS'vel_x'
p4
I0
sS'pos_x'
p5
I-9579
sS'pos_y'
p6
I9779
sS'isAlive'
p7
I00
sS'geno'
p8
(lp9
F2.4890001832964437
aF-2.6776094896637903
aF-4.1786559897674795
aF2.1587488829837111
aF0.36345448478166298
aF-1.0659026377598124
asS'accel_x'
p10
F0
sS'accel_y'
p11
F0
sS'maxAccel'
p12
I2
sS'maxVel'
p13
F0.5
sS'age'
p14
I0
sS'gener'
p15
S'm'
sS'lastScale'
p16
F5.5
sS'energy'
p17
F0.5
sb.(i__main__
Data_mobile
p1
(dp2
S'vel_y'
p3
I0
sS'vel_x'
p4
I0
sS'pos_x'
p5
I-9579
sS'pos_y'
p6
I9779
sS'isAlive'
p7
I00
sS'geno'
p8
(lp9
F1.4504295728376242
aF3.233947867241433
aF-0.70647709766554123
aF2.4569511785486742
aF4.1835885176971548
aF0.95780528664904629
asS'accel_x'
p10
F0
sS'accel_y'
p11
F0
sS'maxAccel'
p12
I2
sS'maxVel'
p13
F0.5
sS'age'
p14
I0
sS'gener'
p15
S'm'
sS'lastScale'
p16
F5.5
sS'energy'
p17
F0.5
sb.(i__main__
Data_mobile
p1
(dp2
S'vel_y'
p3
I0
sS'vel_x'
p4
I0
sS'pos_x'
p5
I-9579
sS'pos_y'
p6
I9779
sS'isAlive'
p7
I00
sS'geno'
p8
(lp9
F1.4791152623939252
aF3.233947867241433
aF-0.32174967798933007
aF4.0757753881558507
aF0.14512622284543397
aF-0.63785499925596367
asS'accel_x'
p10
F0
sS'accel_y'
p11
F0
sS'maxAccel'
p12
I2
sS'maxVel'
p13
F0.5
sS'age'
p14
I0
sS'gener'
p15
S'm'
sS'lastScale'
p16
F5.5
sS'energy'
p17
F0.5
sb.(i__main__
Data_mobile
p1
(dp2
S'vel_y'
p3
I0
sS'vel_x'
p4
I0
sS'pos_x'
p5
I-9579
sS'pos_y'
p6
I9779
sS'isAlive'
p7
I00
sS'geno'
p8
(lp9
F-4.0982497514496323
aF-2.1336787893097844
aF3.3361747087256859
aF4.3664063055081552
aF3.3037806157091634
aF1.5927090054934168
asS'accel_x'
p10
F0
sS'accel_y'
p11
F0
sS'maxAccel'
p12
I2
sS'maxVel'
p13
F0.5
sS'age'
p14
I0
sS'gener'
p15
S'm'
sS'lastScale'
p16
F5.5
sS'energy'
p17
F0.5
sb.(i__main__
Data_mobile
p1
(dp2
S'vel_y'
p3
I0
sS'vel_x'
p4
I0
sS'pos_x'
p5
I-9579
sS'pos_y'
p6
I9779
sS'isAlive'
p7
I00
sS'geno'
p8
(lp9
F-4.0982497514496323
aF-2.1336787893097844
aF3.3361747087256859
aF4.3664063055081552
aF3.3037806157091634
aF1.3780561181917408
asS'accel_x'
p10
F0
sS'accel_y'
p11
F0
sS'maxAccel'
p12
I2
sS'maxVel'
p13
F0.5
sS'age'
p14
I0
sS'gener'
p15
S'm'
sS'lastScale'
p16
F5.5
sS'energy'
p17
F0.5
sb.(i__main__
Data_mobile
p1
(dp2
S'vel_y'
p3
I0
sS'vel_x'
p4
I0
sS'pos_x'
p5
I-9579
sS'pos_y'
p6
I9779
sS'isAlive'
p7
I00
sS'geno'
p8
(lp9
F1.8402406383547725
aF2.9101449775675556
aF-0.29988224898516946
aF3.5047429633164442
aF0.36345448478166298
aF-1.0659026377598124
asS'accel_x'
p10
F0
sS'accel_y'
p11
F0
sS'maxAccel'
p12
I2
sS'maxVel'
p13
F0.5
sS'age'
p14
I0
sS'gener'
p15
S'm'
sS'lastScale'
p16
F5.5
sS'energy'
p17
F0.5
sb.(i__main__
Data_mobile
p1
(dp2
S'vel_y'
p3
I0
sS'vel_x'
p4
I0
sS'pos_x'
p5
I-9579
sS'pos_y'
p6
I9779
sS'isAlive'
p7
I00
sS'geno'
p8
(lp9
F1.4504295728376242
aF3.233947867241433
aF-0.70647709766554123
aF2.1587488829837111
aF4.1835885176971548
aF0.95780528664904629
asS'accel_x'
p10
F0
sS'accel_y'
p11
F0
sS'maxAccel'
p12
I2
sS'maxVel'
p13
F0.5
sS'age'
p14
I0
sS'gener'
p15
S'm'
sS'lastScale'
p16
F5.5
sS'energy'
p17
F0.5
sb.(i__main__
Data_mobile
p1
(dp2
S'vel_y'
p3
I0
sS'vel_x'
p4
I0
sS'pos_x'
p5
I-9579
sS'pos_y'
p6
I9779
sS'isAlive'
p7
I00
sS'geno'
p8
(lp9
F1.3928993223965178
aF3.0041871967343106
aF-0.70647709766554123
aF4.2580018541844362
aF0.36345448478166298
aF-1.0659026377598124
asS'accel_x'
p10
F0
sS'accel_y'
p11
F0
sS'maxAccel'
p12
I2
sS'maxVel'
p13
F0.5
sS'age'
p14
I0
sS'gener'
p15
S'm'
sS'lastScale'
p16
F5.5
sS'energy'
p17
F0.5
sb.(i__main__
Data_mobile
p1
(dp2
S'vel_y'
p3
I0
sS'vel_x'
p4
I0
sS'pos_x'
p5
I-9579
sS'pos_y'
p6
I9779
sS'isAlive'
p7
I00
sS'geno'
p8
(lp9
F1.1582187359194531
aF2.5602988347816318
aF-1.1549468185739724
aF4.4976539554581976
aF0.36345448478166298
aF0.95780528664904629
asS'accel_x'
p10
F0
sS'accel_y'
p11
F0
sS'maxAccel'
p12
I2
sS'maxVel'
p13
F0.5
sS'age'
p14
I0
sS'gener'
p15
S'm'
sS'lastScale'
p16
F5.5
sS'energy'
p17
F0.5
sb.(i__main__
Data_mobile
p1
(dp2
S'vel_y'
p3
I0
sS'vel_x'
p4
I0
sS'pos_x'
p5
I-9579
sS'pos_y'
p6
I9779
sS'isAlive'
p7
I00
sS'geno'
p8
(lp9
F1.4788969826633194
aF3.0041871967343106
aF-1.3828306317840717
aF4.2580018541844362
aF0.36345448478166298
aF-1.0659026377598124
asS'accel_x'
p10
F0
sS'accel_y'
p11
F0
sS'maxAccel'
p12
I2
sS'maxVel'
p13
F0.5
sS'age'
p14
I0
sS'gener'
p15
S'm'
sS'lastScale'
p16
F5.5
sS'energy'
p17
F0.5
sb.(i__main__
Data_mobile
p1
(dp2
S'vel_y'
p3
I0
sS'vel_x'
p4
I0
sS'pos_x'
p5
I-9579
sS'pos_y'
p6
I9779
sS'isAlive'
p7
I00
sS'geno'
p8
(lp9
F1.4791152623939252
aF3.233947867241433
aF-4.1786559897674795
aF1.7901053002226863
aF4.1835885176971548
aF0.95780528664904629
asS'accel_x'
p10
F0
sS'accel_y'
p11
F0
sS'maxAccel'
p12
I2
sS'maxVel'
p13
F0.5
sS'age'
p14
I0
sS'gener'
p15
S'm'
sS'lastScale'
p16
F5.5
sS'energy'
p17
F0.5
sb.(i__main__
Data_mobile
p1
(dp2
S'vel_y'
p3
I0
sS'vel_x'
p4
I0
sS'pos_x'
p5
I-9579
sS'pos_y'
p6
I9779
sS'isAlive'
p7
I00
sS'geno'
p8
(lp9
F1.4788969826633194
aF3.0041871967343106
aF-1.1549468185739724
aF4.2580018541844362
aF0.36345448478166298
aF-1.0659026377598124
asS'accel_x'
p10
F0
sS'accel_y'
p11
F0
sS'maxAccel'
p12
I2
sS'maxVel'
p13
F0.5
sS'age'
p14
I0
sS'gener'
p15
S'm'
sS'lastScale'
p16
F5.5
sS'energy'
p17
F0.5
sb.(i__main__
Data_mobile
p1
(dp2
S'vel_y'
p3
I0
sS'vel_x'
p4
I0
sS'pos_x'
p5
I-9579
sS'pos_y'
p6
I9779
sS'isAlive'
p7
I00
sS'geno'
p8
(lp9
F1.4791152623939252
aF3.233947867241433
aF-0.70647709766554123
aF3.8410632284168855
aF0.36345448478166298
aF-1.2922838717349872
asS'accel_x'
p10
F0
sS'accel_y'
p11
F0
sS'maxAccel'
p12
I2
sS'maxVel'
p13
F0.5
sS'age'
p14
I0
sS'gener'
p15
S'm'
sS'lastScale'
p16
F5.5
sS'energy'
p17
F0.5
sb.(i__main__
Data_mobile
p1
(dp2
S'vel_y'
p3
I0
sS'vel_x'
p4
I0
sS'pos_x'
p5
I-9579
sS'pos_y'
p6
I9779
sS'isAlive'
p7
I00
sS'geno'
p8
(lp9
F1.3928993223965178
aF3.1906151742347939
aF0.033322090767515244
aF4.0757753881558507
aF0.37804974983873818
aF-1.0659026377598124
asS'accel_x'
p10
F0
sS'accel_y'
p11
F0
sS'maxAccel'
p12
I2
sS'maxVel'
p13
F0.5
sS'age'
p14
I0
sS'gener'
p15
S'm'
sS'lastScale'
p16
F5.5
sS'energy'
p17
F0.5
sb.(i__main__
Data_mobile
p1
(dp2
S'vel_y'
p3
I0
sS'vel_x'
p4
I0
sS'pos_x'
p5
I-9579
sS'pos_y'
p6
I9779
sS'isAlive'
p7
I00
sS'geno'
p8
(lp9
F-1.6620388562871149
aF3.4836743235287297
aF3.4709129613943261
aF4.3888386634438721
aF2.9503597543845022
aF-1.3931659066203093
asS'accel_x'
p10
F0
sS'accel_y'
p11
F0
sS'maxAccel'
p12
I2
sS'maxVel'
p13
F0.5
sS'age'
p14
I0
sS'gener'
p15
S'm'
sS'lastScale'
p16
F5.5
sS'energy'
p17
F0.5
sb.(i__main__
Data_mobile
p1
(dp2
S'vel_y'
p3
I0
sS'vel_x'
p4
I0
sS'pos_x'
p5
I-9579
sS'pos_y'
p6
I9779
sS'isAlive'
p7
I00
sS'geno'
p8
(lp9
F1.4788969826633194
aF3.0041871967343106
aF-1.1549468185739724
aF4.2580018541844362
aF0.36345448478166298
aF-1.0659026377598124
asS'accel_x'
p10
F0
sS'accel_y'
p11
F0
sS'maxAccel'
p12
I2
sS'maxVel'
p13
F0.5
sS'age'
p14
I0
sS'gener'
p15
S'm'
sS'lastScale'
p16
F5.5
sS'energy'
p17
F0.5
sb.(i__main__
Data_mobile
p1
(dp2
S'vel_y'
p3
I0
sS'vel_x'
p4
I0
sS'pos_x'
p5
I-9579
sS'pos_y'
p6
I9779
sS'isAlive'
p7
I00
sS'geno'
p8
(lp9
F1.3928993223965178
aF3.4836743235287297
aF3.4709129613943261
aF4.3888386634438721
aF2.9503597543845022
aF-1.3931659066203093
asS'accel_x'
p10
F0
sS'accel_y'
p11
F0
sS'maxAccel'
p12
I2
sS'maxVel'
p13
F0.5
sS'age'
p14
I0
sS'gener'
p15
S'm'
sS'lastScale'
p16
F5.5
sS'energy'
p17
F0.5
sb.(i__main__
Data_mobile
p1
(dp2
S'vel_y'
p3
I0
sS'vel_x'
p4
I0
sS'pos_x'
p5
I-9579
sS'pos_y'
p6
I9779
sS'isAlive'
p7
I00
sS'geno'
p8
(lp9
F-4.0982497514496323
aF-2.1336787893097844
aF2.8979640760307896
aF4.3664063055081552
aF0.36345448478166298
aF-1.0659026377598124
asS'accel_x'
p10
F0
sS'accel_y'
p11
F0
sS'maxAccel'
p12
I2
sS'maxVel'
p13
F0.5
sS'age'
p14
I0
sS'gener'
p15
S'm'
sS'lastScale'
p16
F5.5
sS'energy'
p17
F0.5
sb.(i__main__
Data_mobile
p1
(dp2
S'vel_y'
p3
I0
sS'vel_x'
p4
I0
sS'pos_x'
p5
I-9579
sS'pos_y'
p6
I9779
sS'isAlive'
p7
I00
sS'geno'
p8
(lp9
F1.4504295728376242
aF3.233947867241433
aF-0.89255262239542166
aF2.1587488829837111
aF3.9832505887037808
aF0.95780528664904629
asS'accel_x'
p10
F0
sS'accel_y'
p11
F0
sS'maxAccel'
p12
I2
sS'maxVel'
p13
F0.5
sS'age'
p14
I0
sS'gener'
p15
S'm'
sS'lastScale'
p16
F5.5
sS'energy'
p17
F0.5
sb.(i__main__
Data_mobile
p1
(dp2
S'vel_y'
p3
I0
sS'vel_x'
p4
I0
sS'pos_x'
p5
I-9579
sS'pos_y'
p6
I9779
sS'isAlive'
p7
I00
sS'geno'
p8
(lp9
F1.4504295728376242
aF3.233947867241433
aF-0.70647709766554123
aF3.8410632284168855
aF0.36345448478166298
aF-1.0659026377598124
asS'accel_x'
p10
F0
sS'accel_y'
p11
F0
sS'maxAccel'
p12
I2
sS'maxVel'
p13
F0.5
sS'age'
p14
I0
sS'gener'
p15
S'm'
sS'lastScale'
p16
F5.5
sS'energy'
p17
F0.5
sb.(i__main__
Data_mobile
p1
(dp2
S'vel_y'
p3
I0
sS'vel_x'
p4
I0
sS'pos_x'
p5
I-9579
sS'pos_y'
p6
I9779
sS'isAlive'
p7
I00
sS'geno'
p8
(lp9
F1.3928993223965178
aF3.1906151742347939
aF0.033322090767515244
aF4.0757753881558507
aF0.37804974983873818
aF-1.0659026377598124
asS'accel_x'
p10
F0
sS'accel_y'
p11
F0
sS'maxAccel'
p12
I2
sS'maxVel'
p13
F0.5
sS'age'
p14
I0
sS'gener'
p15
S'm'
sS'lastScale'
p16
F5.5
sS'energy'
p17
F0.5
sb.(i__main__
Data_mobile
p1
(dp2
S'vel_y'
p3
I0
sS'vel_x'
p4
I0
sS'pos_x'
p5
I-9579
sS'pos_y'
p6
I9779
sS'isAlive'
p7
I00
sS'geno'
p8
(lp9
F2.4890001832964437
aF-2.6776094896637903
aF-4.1786559897674795
aF1.7901053002226863
aF4.1835885176971548
aF0.95780528664904629
asS'accel_x'
p10
F0
sS'accel_y'
p11
F0
sS'maxAccel'
p12
I2
sS'maxVel'
p13
F0.5
sS'age'
p14
I0
sS'gener'
p15
S'm'
sS'lastScale'
p16
F5.5
sS'energy'
p17
F0.5
sb.(i__main__
Data_mobile
p1
(dp2
S'vel_y'
p3
I0
sS'vel_x'
p4
I0
sS'pos_x'
p5
I-9579
sS'pos_y'
p6
I9779
sS'isAlive'
p7
I00
sS'geno'
p8
(lp9
F1.3928993223965178
aF3.1906151742347939
aF0.033322090767515244
aF4.0757753881558507
aF0.37804974983873818
aF-1.0659026377598124
asS'accel_x'
p10
F0
sS'accel_y'
p11
F0
sS'maxAccel'
p12
I2
sS'maxVel'
p13
F0.5
sS'age'
p14
I0
sS'gener'
p15
S'm'
sS'lastScale'
p16
F5.5
sS'energy'
p17
F0.5
sb.(i__main__
Data_mobile
p1
(dp2
S'vel_y'
p3
I0
sS'vel_x'
p4
I0
sS'pos_x'
p5
I-9579
sS'pos_y'
p6
I9779
sS'isAlive'
p7
I00
sS'geno'
p8
(lp9
F-1.6620388562871149
aF3.233947867241433
aF0.2529597292456115
aF4.0757753881558507
aF0.57458705890753636
aF-0.29148506153922749
asS'accel_x'
p10
F0
sS'accel_y'
p11
F0
sS'maxAccel'
p12
I2
sS'maxVel'
p13
F0.5
sS'age'
p14
I0
sS'gener'
p15
S'm'
sS'lastScale'
p16
F5.5
sS'energy'
p17
F0.5
sb.(i__main__
Data_mobile
p1
(dp2
S'vel_y'
p3
I0
sS'vel_x'
p4
I0
sS'pos_x'
p5
I-9579
sS'pos_y'
p6
I9779
sS'isAlive'
p7
I00
sS'geno'
p8
(lp9
F3.6818618086575778
aF-4.9210285835434666
aF1.9643417870697579
aF0.84703615621140749
aF-2.7401642015783323
aF0.1492854967316557
asS'accel_x'
p10
F0
sS'accel_y'
p11
F0
sS'maxAccel'
p12
I2
sS'maxVel'
p13
F0.5
sS'age'
p14
I0
sS'gener'
p15
S'm'
sS'lastScale'
p16
F5.5
sS'energy'
p17
F0.5
sb.(i__main__
Data_mobile
p1
(dp2
S'vel_y'
p3
I0
sS'vel_x'
p4
I0
sS'pos_x'
p5
I-9579
sS'pos_y'
p6
I9779
sS'isAlive'
p7
I00
sS'geno'
p8
(lp9
F2.4890001832964437
aF-2.6776094896637903
aF-0.70647709766554123
aF4.0757753881558507
aF0.14512622284543397
aF-0.63785499925596367
asS'accel_x'
p10
F0
sS'accel_y'
p11
F0
sS'maxAccel'
p12
I2
sS'maxVel'
p13
F0.5
sS'age'
p14
I0
sS'gener'
p15
S'm'
sS'lastScale'
p16
F5.5
sS'energy'
p17
F0.5
sb.(i__main__
Data_mobile
p1
(dp2
S'vel_y'
p3
I0
sS'vel_x'
p4
I0
sS'pos_x'
p5
I-9579
sS'pos_y'
p6
I9779
sS'isAlive'
p7
I00
sS'geno'
p8
(lp9
F1.3928993223965178
aF3.1906151742347939
aF0.033322090767515244
aF4.0757753881558507
aF0.14512622284543397
aF-0.63785499925596367
asS'accel_x'
p10
F0
sS'accel_y'
p11
F0
sS'maxAccel'
p12
I2
sS'maxVel'
p13
F0.5
sS'age'
p14
I0
sS'gener'
p15
S'm'
sS'lastScale'
p16
F5.5
sS'energy'
p17
F0.5
sb.(i__main__
Data_mobile
p1
(dp2
S'vel_y'
p3
I0
sS'vel_x'
p4
I0
sS'pos_x'
p5
I-9579
sS'pos_y'
p6
I9779
sS'isAlive'
p7
I00
sS'geno'
p8
(lp9
F2.4890001832964437
aF-2.6776094896637903
aF-4.1786559897674795
aF2.3312483196296871
aF4.1835885176971548
aF-1.0659026377598124
asS'accel_x'
p10
F0
sS'accel_y'
p11
F0
sS'maxAccel'
p12
I2
sS'maxVel'
p13
F0.5
sS'age'
p14
I0
sS'gener'
p15
S'm'
sS'lastScale'
p16
F5.5
sS'energy'
p17
F0.5
sb.(i__main__
Data_mobile
p1
(dp2
S'vel_y'
p3
I0
sS'vel_x'
p4
I0
sS'pos_x'
p5
I-9579
sS'pos_y'
p6
I9779
sS'isAlive'
p7
I00
sS'geno'
p8
(lp9
F1.3928993223965178
aF4.1393962552235397
aF-0.68008571052891387
aF4.0757753881558507
aF0.37804974983873818
aF-1.0659026377598124
asS'accel_x'
p10
F0
sS'accel_y'
p11
F0
sS'maxAccel'
p12
I2
sS'maxVel'
p13
F0.5
sS'age'
p14
I0
sS'gener'
p15
S'm'
sS'lastScale'
p16
F5.5
sS'energy'
p17
F0.5
sb.(i__main__
Data_mobile
p1
(dp2
S'vel_y'
p3
I0
sS'vel_x'
p4
I0
sS'pos_x'
p5
I-9579
sS'pos_y'
p6
I9779
sS'isAlive'
p7
I00
sS'geno'
p8
(lp9
F-1.6620388562871149
aF4.1393962552235397
aF-0.81998824999595277
aF4.2923561676132165
aF0.37804974983873818
aF-1.0659026377598124
asS'accel_x'
p10
F0
sS'accel_y'
p11
F0
sS'maxAccel'
p12
I2
sS'maxVel'
p13
F0.5
sS'age'
p14
I0
sS'gener'
p15
S'm'
sS'lastScale'
p16
F5.5
sS'energy'
p17
F0.5
sb.(i__main__
Data_mobile
p1
(dp2
S'vel_y'
p3
I0
sS'vel_x'
p4
I0
sS'pos_x'
p5
I-9579
sS'pos_y'
p6
I9779
sS'isAlive'
p7
I00
sS'geno'
p8
(lp9
F1.3928993223965178
aF3.1906151742347939
aF0.033322090767515244
aF3.8410632284168855
aF0.36345448478166298
aF-1.0659026377598124
asS'accel_x'
p10
F0
sS'accel_y'
p11
F0
sS'maxAccel'
p12
I2
sS'maxVel'
p13
F0.5
sS'age'
p14
I0
sS'gener'
p15
S'm'
sS'lastScale'
p16
F5.5
sS'energy'
p17
F0.5
sb.(i__main__
Data_mobile
p1
(dp2
S'vel_y'
p3
I0
sS'vel_x'
p4
I0
sS'pos_x'
p5
I-9579
sS'pos_y'
p6
I9779
sS'isAlive'
p7
I00
sS'geno'
p8
(lp9
F1.4791152623939252
aF3.233947867241433
aF-0.32174967798933007
aF4.0757753881558507
aF0.14512622284543397
aF-0.63785499925596367
asS'accel_x'
p10
F0
sS'accel_y'
p11
F0
sS'maxAccel'
p12
I2
sS'maxVel'
p13
F0.5
sS'age'
p14
I0
sS'gener'
p15
S'm'
sS'lastScale'
p16
F5.5
sS'energy'
p17
F0.5
sb.(i__main__
Data_mobile
p1
(dp2
S'vel_y'
p3
I0
sS'vel_x'
p4
I0
sS'pos_x'
p5
I-9579
sS'pos_y'
p6
I9779
sS'isAlive'
p7
I00
sS'geno'
p8
(lp9
F2.4890001832964437
aF0.68665320336512359
aF-0.99957029953835619
aF4.8243180604815059
aF-3.2658554949703476
aF0.76108571115185963
asS'accel_x'
p10
F0
sS'accel_y'
p11
F0
sS'maxAccel'
p12
I2
sS'maxVel'
p13
F0.5
sS'age'
p14
I0
sS'gener'
p15
S'm'
sS'lastScale'
p16
F5.5
sS'energy'
p17
F0.5
sb.(i__main__
Data_mobile
p1
(dp2
S'vel_y'
p3
I0
sS'vel_x'
p4
I0
sS'pos_x'
p5
I-9579
sS'pos_y'
p6
I9779
sS'isAlive'
p7
I00
sS'geno'
p8
(lp9
F1.181823350169493
aF2.9039565440617015
aF-2.5816369150189491
aF4.3700784500663641
aF2.9058843609480265
aF-0.23100024053152168
asS'accel_x'
p10
F0
sS'accel_y'
p11
F0
sS'maxAccel'
p12
I2
sS'maxVel'
p13
F0.5
sS'age'
p14
I0
sS'gener'
p15
S'm'
sS'lastScale'
p16
F5.5
sS'energy'
p17
F0.5
sb.(i__main__
Data_mobile
p1
(dp2
S'vel_y'
p3
I0
sS'vel_x'
p4
I0
sS'pos_x'
p5
I-9579
sS'pos_y'
p6
I9779
sS'isAlive'
p7
I00
sS'geno'
p8
(lp9
F1.4791152623939252
aF3.233947867241433
aF-0.23364832968482974
aF4.0757753881558507
aF0.57458705890753636
aF-0.29148506153922749
asS'accel_x'
p10
F0
sS'accel_y'
p11
F0
sS'maxAccel'
p12
I2
sS'maxVel'
p13
F0.5
sS'age'
p14
I0
sS'gener'
p15
S'm'
sS'lastScale'
p16
F5.5
sS'energy'
p17
F0.5
sb.(i__main__
Data_mobile
p1
(dp2
S'vel_y'
p3
I0
sS'vel_x'
p4
I0
sS'pos_x'
p5
I-9579
sS'pos_y'
p6
I9779
sS'isAlive'
p7
I00
sS'geno'
p8
(lp9
F1.4791152623939252
aF3.233947867241433
aF-0.70647709766554123
aF3.8410632284168855
aF0.36345448478166298
aF-1.0659026377598124
asS'accel_x'
p10
F0
sS'accel_y'
p11
F0
sS'maxAccel'
p12
I2
sS'maxVel'
p13
F0.5
sS'age'
p14
I0
sS'gener'
p15
S'm'
sS'lastScale'
p16
F5.5
sS'energy'
p17
F0.5
sb.(i__main__
Data_mobile
p1
(dp2
S'vel_y'
p3
I0
sS'vel_x'
p4
I0
sS'pos_x'
p5
I-9579
sS'pos_y'
p6
I9779
sS'isAlive'
p7
I00
sS'geno'
p8
(lp9
F1.4788969826633194
aF4.1393962552235397
aF-0.68008571052891387
aF4.1392470570822937
aF0.37804974983873818
aF-1.0659026377598124
asS'accel_x'
p10
F0
sS'accel_y'
p11
F0
sS'maxAccel'
p12
I2
sS'maxVel'
p13
F0.5
sS'age'
p14
I0
sS'gener'
p15
S'm'
sS'lastScale'
p16
F5.5
sS'energy'
p17
F0.5
sb.(i__main__
Data_mobile
p1
(dp2
S'vel_y'
p3
I0
sS'vel_x'
p4
I0
sS'pos_x'
p5
I-9579
sS'pos_y'
p6
I9779
sS'isAlive'
p7
I00
sS'geno'
p8
(lp9
F1.4791152623939252
aF3.4836743235287297
aF3.4709129613943261
aF4.3888386634438721
aF2.9503597543845022
aF-1.3931659066203093
asS'accel_x'
p10
F0
sS'accel_y'
p11
F0
sS'maxAccel'
p12
I2
sS'maxVel'
p13
F0.5
sS'age'
p14
I0
sS'gener'
p15
S'm'
sS'lastScale'
p16
F5.5
sS'energy'
p17
F0.5
sb.(i__main__
Data_mobile
p1
(dp2
S'vel_y'
p3
I0
sS'vel_x'
p4
I0
sS'pos_x'
p5
I-9579
sS'pos_y'
p6
I9779
sS'isAlive'
p7
I00
sS'geno'
p8
(lp9
F2.4890001832964437
aF-2.6776094896637903
aF-4.1786559897674795
aF4.2107727743521508
aF0.36345448478166298
aF-1.0659026377598124
asS'accel_x'
p10
F0
sS'accel_y'
p11
F0
sS'maxAccel'
p12
I2
sS'maxVel'
p13
F0.5
sS'age'
p14
I0
sS'gener'
p15
S'm'
sS'lastScale'
p16
F5.5
sS'energy'
p17
F0.5
sb.(i__main__
Data_mobile
p1
(dp2
S'vel_y'
p3
I0
sS'vel_x'
p4
I0
sS'pos_x'
p5
I-9579
sS'pos_y'
p6
I9779
sS'isAlive'
p7
I00
sS'geno'
p8
(lp9
F-2.4341385090268766
aF0.20735643378791124
aF-1.8181669599579187
aF3.2340511668487899
aF-2.6141937885752151
aF-4.9454210468131343
asS'accel_x'
p10
F0
sS'accel_y'
p11
F0
sS'maxAccel'
p12
I2
sS'maxVel'
p13
F0.5
sS'age'
p14
I0
sS'gener'
p15
S'm'
sS'lastScale'
p16
F5.5
sS'energy'
p17
F0.5
sb.(i__main__
Data_mobile
p1
(dp2
S'vel_y'
p3
I0
sS'vel_x'
p4
I0
sS'pos_x'
p5
I-9579
sS'pos_y'
p6
I9779
sS'isAlive'
p7
I00
sS'geno'
p8
(lp9
F1.4791152623939252
aF3.233947867241433
aF-0.70647709766554123
aF3.8410632284168855
aF0.36345448478166298
aF-1.0659026377598124
asS'accel_x'
p10
F0
sS'accel_y'
p11
F0
sS'maxAccel'
p12
I2
sS'maxVel'
p13
F0.5
sS'age'
p14
I0
sS'gener'
p15
S'm'
sS'lastScale'
p16
F5.5
sS'energy'
p17
F0.5
sb.(i__main__
Data_mobile
p1
(dp2
S'vel_y'
p3
I0
sS'vel_x'
p4
I0
sS'pos_x'
p5
I-9579
sS'pos_y'
p6
I9779
sS'isAlive'
p7
I00
sS'geno'
p8
(lp9
F1.2475001441363602
aF3.0041871967343106
aF-1.1549468185739724
aF4.2580018541844362
aF0.36345448478166298
aF-1.0659026377598124
asS'accel_x'
p10
F0
sS'accel_y'
p11
F0
sS'maxAccel'
p12
I2
sS'maxVel'
p13
F0.5
sS'age'
p14
I0
sS'gener'
p15
S'm'
sS'lastScale'
p16
F5.5
sS'energy'
p17
F0.5
sb.(i__main__
Data_mobile
p1
(dp2
S'vel_y'
p3
I0
sS'vel_x'
p4
I0
sS'pos_x'
p5
I-9579
sS'pos_y'
p6
I9779
sS'isAlive'
p7
I00
sS'geno'
p8
(lp9
F-2.4876054739983697
aF-2.6776094896637903
aF-4.1786559897674795
aF2.1587488829837111
aF4.1835885176971548
aF0.95780528664904629
asS'accel_x'
p10
F0
sS'accel_y'
p11
F0
sS'maxAccel'
p12
I2
sS'maxVel'
p13
F0.5
sS'age'
p14
I0
sS'gener'
p15
S'm'
sS'lastScale'
p16
F5.5
sS'energy'
p17
F0.5
sb.(i__main__
Data_mobile
p1
(dp2
S'vel_y'
p3
I0
sS'vel_x'
p4
I0
sS'pos_x'
p5
I-9579
sS'pos_y'
p6
I9779
sS'isAlive'
p7
I00
sS'geno'
p8
(lp9
F1.4791152623939252
aF3.233947867241433
aF-0.70647709766554123
aF3.8410632284168855
aF0.36345448478166298
aF-1.0659026377598124
asS'accel_x'
p10
F0
sS'accel_y'
p11
F0
sS'maxAccel'
p12
I2
sS'maxVel'
p13
F0.5
sS'age'
p14
I0
sS'gener'
p15
S'm'
sS'lastScale'
p16
F5.5
sS'energy'
p17
F0.5
sb.(i__main__
Data_mobile
p1
(dp2
S'vel_y'
p3
I0
sS'vel_x'
p4
I0
sS'pos_x'
p5
I-9579
sS'pos_y'
p6
I9779
sS'isAlive'
p7
I00
sS'geno'
p8
(lp9
F1.4791152623939252
aF2.9101449775675556
aF-0.42199109741416163
aF3.5047429633164442
aF0.36345448478166298
aF-1.2922838717349872
asS'accel_x'
p10
F0
sS'accel_y'
p11
F0
sS'maxAccel'
p12
I2
sS'maxVel'
p13
F0.5
sS'age'
p14
I0
sS'gener'
p15
S'm'
sS'lastScale'
p16
F5.5
sS'energy'
p17
F0.5
sb.(i__main__
Data_mobile
p1
(dp2
S'vel_y'
p3
I0
sS'vel_x'
p4
I0
sS'pos_x'
p5
I-9579
sS'pos_y'
p6
I9779
sS'isAlive'
p7
I00
sS'geno'
p8
(lp9
F0.93862243255288458
aF3.0041871967343106
aF-0.32174967798933007
aF4.3595286636047277
aF0.049473240722995415
aF-0.89418676161724331
asS'accel_x'
p10
F0
sS'accel_y'
p11
F0
sS'maxAccel'
p12
I2
sS'maxVel'
p13
F0.5
sS'age'
p14
I0
sS'gener'
p15
S'm'
sS'lastScale'
p16
F5.5
sS'energy'
p17
F0.5
sb.(i__main__
Data_mobile
p1
(dp2
S'vel_y'
p3
I0
sS'vel_x'
p4
I0
sS'pos_x'
p5
I-9579
sS'pos_y'
p6
I9779
sS'isAlive'
p7
I00
sS'geno'
p8
(lp9
F1.4788969826633194
aF4.1393962552235397
aF-0.68008571052891387
aF4.1392470570822937
aF0.37804974983873818
aF-1.0659026377598124
asS'accel_x'
p10
F0
sS'accel_y'
p11
F0
sS'maxAccel'
p12
I2
sS'maxVel'
p13
F0.5
sS'age'
p14
I0
sS'gener'
p15
S'm'
sS'lastScale'
p16
F5.5
sS'energy'
p17
F0.5
sb.(i__main__
Data_mobile
p1
(dp2
S'vel_y'
p3
I0
sS'vel_x'
p4
I0
sS'pos_x'
p5
I-9579
sS'pos_y'
p6
I9779
sS'isAlive'
p7
I00
sS'geno'
p8
(lp9
F1.4791152623939252
aF2.9101449775675556
aF-0.42199109741416163
aF4.0757753881558507
aF0.57458705890753636
aF-0.68619006821576434
asS'accel_x'
p10
F0
sS'accel_y'
p11
F0
sS'maxAccel'
p12
I2
sS'maxVel'
p13
F0.5
sS'age'
p14
I0
sS'gener'
p15
S'm'
sS'lastScale'
p16
F5.5
sS'energy'
p17
F0.5
sb.(i__main__
Data_mobile
p1
(dp2
S'vel_y'
p3
I0
sS'vel_x'
p4
I0
sS'pos_x'
p5
I-9579
sS'pos_y'
p6
I9779
sS'isAlive'
p7
I00
sS'geno'
p8
(lp9
F1.3928993223965178
aF4.1393962552235397
aF-0.23364832968482974
aF4.0757753881558507
aF0.57458705890753636
aF-1.0659026377598124
asS'accel_x'
p10
F0
sS'accel_y'
p11
F0
sS'maxAccel'
p12
I2
sS'maxVel'
p13
F0.5
sS'age'
p14
I0
sS'gener'
p15
S'm'
sS'lastScale'
p16
F5.5
sS'energy'
p17
F0.5
sb.(i__main__
Data_mobile
p1
(dp2
S'vel_y'
p3
I0
sS'vel_x'
p4
I0
sS'pos_x'
p5
I-9579
sS'pos_y'
p6
I9779
sS'isAlive'
p7
I00
sS'geno'
p8
(lp9
F4.7633750337008873
aF-0.63580446055304485
aF-1.8548690395984515
aF0.90918868717426626
aF2.19161954417552
aF-4.6204405738349035
asS'accel_x'
p10
F0
sS'accel_y'
p11
F0
sS'maxAccel'
p12
I2
sS'maxVel'
p13
F0.5
sS'age'
p14
I0
sS'gener'
p15
S'm'
sS'lastScale'
p16
F5.5
sS'energy'
p17
F0.5
sb.(i__main__
Data_mobile
p1
(dp2
S'vel_y'
p3
I0
sS'vel_x'
p4
I0
sS'pos_x'
p5
I-9579
sS'pos_y'
p6
I9779
sS'isAlive'
p7
I00
sS'geno'
p8
(lp9
F4.0992948431712239
aF-2.0014341525135548
aF2.3248572307324453
aF1.9427415399328831
aF-0.15024317598984105
aF3.2901662975558015
asS'accel_x'
p10
F0
sS'accel_y'
p11
F0
sS'maxAccel'
p12
I2
sS'maxVel'
p13
F0.5
sS'age'
p14
I0
sS'gener'
p15
S'm'
sS'lastScale'
p16
F5.5
sS'energy'
p17
F0.5
sb.(i__main__
Data_mobile
p1
(dp2
S'vel_y'
p3
I0
sS'vel_x'
p4
I0
sS'pos_x'
p5
I-9579
sS'pos_y'
p6
I9779
sS'isAlive'
p7
I00
sS'geno'
p8
(lp9
F-3.5850832854053296
aF1.6286333093700964
aF2.3506823173200377
aF4.2441538498130083
aF4.8781296835123324
aF0.28053966951822407
asS'accel_x'
p10
F0
sS'accel_y'
p11
F0
sS'maxAccel'
p12
I2
sS'maxVel'
p13
F0.5
sS'age'
p14
I0
sS'gener'
p15
S'm'
sS'lastScale'
p16
F5.5
sS'energy'
p17
F0.5
sb.(i__main__
Data_mobile
p1
(dp2
S'vel_y'
p3
I0
sS'vel_x'
p4
I0
sS'pos_x'
p5
I-9579
sS'pos_y'
p6
I9779
sS'isAlive'
p7
I00
sS'geno'
p8
(lp9
F1.4788969826633194
aF4.1393962552235397
aF-0.68008571052891387
aF4.1392470570822937
aF0.37804974983873818
aF-1.0659026377598124
asS'accel_x'
p10
F0
sS'accel_y'
p11
F0
sS'maxAccel'
p12
I2
sS'maxVel'
p13
F0.5
sS'age'
p14
I0
sS'gener'
p15
S'm'
sS'lastScale'
p16
F5.5
sS'energy'
p17
F0.5
sb.(i__main__
Data_mobile
p1
(dp2
S'vel_y'
p3
I0
sS'vel_x'
p4
I0
sS'pos_x'
p5
I-9579
sS'pos_y'
p6
I9779
sS'isAlive'
p7
I00
sS'geno'
p8
(lp9
F0.93862243255288458
aF3.0041871967343106
aF-0.32174967798933007
aF4.0757753881558507
aF0.37804974983873818
aF-1.0659026377598124
asS'accel_x'
p10
F0
sS'accel_y'
p11
F0
sS'maxAccel'
p12
I2
sS'maxVel'
p13
F0.5
sS'age'
p14
I0
sS'gener'
p15
S'm'
sS'lastScale'
p16
F5.5
sS'energy'
p17
F0.5
sb.(i__main__
Data_mobile
p1
(dp2
S'vel_y'
p3
I0
sS'vel_x'
p4
I0
sS'pos_x'
p5
I-9579
sS'pos_y'
p6
I9779
sS'isAlive'
p7
I00
sS'geno'
p8
(lp9
F1.3928993223965178
aF3.2545458925935127
aF-0.70647709766554123
aF4.0757753881558507
aF0.57458705890753636
aF-0.68619006821576434
asS'accel_x'
p10
F0
sS'accel_y'
p11
F0
sS'maxAccel'
p12
I2
sS'maxVel'
p13
F0.5
sS'age'
p14
I0
sS'gener'
p15
S'm'
sS'lastScale'
p16
F5.5
sS'energy'
p17
F0.5
sb.(i__main__
Data_mobile
p1
(dp2
S'vel_y'
p3
I0
sS'vel_x'
p4
I0
sS'pos_x'
p5
I-9579
sS'pos_y'
p6
I9779
sS'isAlive'
p7
I00
sS'geno'
p8
(lp9
F1.4788969826633194
aF3.5533700590775519
aF-0.91158416300034051
aF3.8485831091320235
aF0.51837363844690698
aF-1.0659026377598124
asS'accel_x'
p10
F0
sS'accel_y'
p11
F0
sS'maxAccel'
p12
I2
sS'maxVel'
p13
F0.5
sS'age'
p14
I0
sS'gener'
p15
S'm'
sS'lastScale'
p16
F5.5
sS'energy'
p17
F0.5
sb.(i__main__
Data_mobile
p1
(dp2
S'vel_y'
p3
I0
sS'vel_x'
p4
I0
sS'pos_x'
p5
I-9579
sS'pos_y'
p6
I9779
sS'isAlive'
p7
I00
sS'geno'
p8
(lp9
F1.3928993223965178
aF3.2545458925935127
aF-0.70647709766554123
aF4.0757753881558507
aF0.57458705890753636
aF-1.0932534033967301
asS'accel_x'
p10
F0
sS'accel_y'
p11
F0
sS'maxAccel'
p12
I2
sS'maxVel'
p13
F0.5
sS'age'
p14
I0
sS'gener'
p15
S'm'
sS'lastScale'
p16
F5.5
sS'energy'
p17
F0.5
sb.(i__main__
Data_mobile
p1
(dp2
S'vel_y'
p3
I0
sS'vel_x'
p4
I0
sS'pos_x'
p5
I-9579
sS'pos_y'
p6
I9779
sS'isAlive'
p7
I00
sS'geno'
p8
(lp9
F1.4788969826633194
aF4.1393962552235397
aF-0.23364832968482974
aF4.3595286636047277
aF0.049473240722995415
aF-0.89418676161724331
asS'accel_x'
p10
F0
sS'accel_y'
p11
F0
sS'maxAccel'
p12
I2
sS'maxVel'
p13
F0.5
sS'age'
p14
I0
sS'gener'
p15
S'm'
sS'lastScale'
p16
F5.5
sS'energy'
p17
F0.5
sb.(i__main__
Data_mobile
p1
(dp2
S'vel_y'
p3
I0
sS'vel_x'
p4
I0
sS'pos_x'
p5
I-9579
sS'pos_y'
p6
I9779
sS'isAlive'
p7
I00
sS'geno'
p8
(lp9
F1.3928993223965178
aF3.0041871967343106
aF-0.70647709766554123
aF4.2580018541844362
aF0.36345448478166298
aF-1.0659026377598124
asS'accel_x'
p10
F0
sS'accel_y'
p11
F0
sS'maxAccel'
p12
I2
sS'maxVel'
p13
F0.5
sS'age'
p14
I0
sS'gener'
p15
S'm'
sS'lastScale'
p16
F5.5
sS'energy'
p17
F0.5
sb.(i__main__
Data_mobile
p1
(dp2
S'vel_y'
p3
I0
sS'vel_x'
p4
I0
sS'pos_x'
p5
I-9579
sS'pos_y'
p6
I9779
sS'isAlive'
p7
I00
sS'geno'
p8
(lp9
F1.3928993223965178
aF3.1906151742347939
aF0.033322090767515244
aF4.5365281395910921
aF0.37804974983873818
aF-1.0659026377598124
asS'accel_x'
p10
F0
sS'accel_y'
p11
F0
sS'maxAccel'
p12
I2
sS'maxVel'
p13
F0.5
sS'age'
p14
I0
sS'gener'
p15
S'm'
sS'lastScale'
p16
F5.5
sS'energy'
p17
F0.5
sb.(i__main__
Data_mobile
p1
(dp2
S'vel_y'
p3
I0
sS'vel_x'
p4
I0
sS'pos_x'
p5
I-9579
sS'pos_y'
p6
I9779
sS'isAlive'
p7
I00
sS'geno'
p8
(lp9
F1.4788969826633194
aF4.1393962552235397
aF-0.4370191451689136
aF3.8410632284168855
aF0.36345448478166298
aF-1.0659026377598124
asS'accel_x'
p10
F0
sS'accel_y'
p11
F0
sS'maxAccel'
p12
I2
sS'maxVel'
p13
F0.5
sS'age'
p14
I0
sS'gener'
p15
S'm'
sS'lastScale'
p16
F5.5
sS'energy'
p17
F0.5
sb.(i__main__
Data_mobile
p1
(dp2
S'vel_y'
p3
I0
sS'vel_x'
p4
I0
sS'pos_x'
p5
I-9579
sS'pos_y'
p6
I9779
sS'isAlive'
p7
I00
sS'geno'
p8
(lp9
F1.3928993223965178
aF3.2545458925935127
aF-0.84165907505967219
aF3.5047429633164442
aF0.36345448478166298
aF-1.2922838717349872
asS'accel_x'
p10
F0
sS'accel_y'
p11
F0
sS'maxAccel'
p12
I2
sS'maxVel'
p13
F0.5
sS'age'
p14
I0
sS'gener'
p15
S'm'
sS'lastScale'
p16
F5.5
sS'energy'
p17
F0.5
sb.(i__main__
Data_mobile
p1
(dp2
S'vel_y'
p3
I0
sS'vel_x'
p4
I0
sS'pos_x'
p5
I-9579
sS'pos_y'
p6
I9779
sS'isAlive'
p7
I00
sS'geno'
p8
(lp9
F2.3168678476354474
aF0.24834560678849371
aF0.45337770062615057
aF0.047453727387978262
aF0.35121648195435107
aF-2.2196747553258964
asS'accel_x'
p10
F0
sS'accel_y'
p11
F0
sS'maxAccel'
p12
I2
sS'maxVel'
p13
F0.5
sS'age'
p14
I0
sS'gener'
p15
S'm'
sS'lastScale'
p16
F5.5
sS'energy'
p17
F0.5
sb.(i__main__
Data_mobile
p1
(dp2
S'vel_y'
p3
I0
sS'vel_x'
p4
I0
sS'pos_x'
p5
I-9579
sS'pos_y'
p6
I9779
sS'isAlive'
p7
I00
sS'geno'
p8
(lp9
F1.4788969826633194
aF3.2558424540878583
aF-0.91158416300034051
aF3.8485831091320235
aF0.51837363844690698
aF-1.0659026377598124
asS'accel_x'
p10
F0
sS'accel_y'
p11
F0
sS'maxAccel'
p12
I2
sS'maxVel'
p13
F0.5
sS'age'
p14
I0
sS'gener'
p15
S'm'
sS'lastScale'
p16
F5.5
sS'energy'
p17
F0.5
sb.(i__main__
Data_mobile
p1
(dp2
S'vel_y'
p3
I0
sS'vel_x'
p4
I0
sS'pos_x'
p5
I-9579
sS'pos_y'
p6
I9779
sS'isAlive'
p7
I00
sS'geno'
p8
(lp9
F1.3928993223965178
aF4.1393962552235397
aF-0.23364832968482974
aF4.0757753881558507
aF0.57458705890753636
aF-1.0659026377598124
asS'accel_x'
p10
F0
sS'accel_y'
p11
F0
sS'maxAccel'
p12
I2
sS'maxVel'
p13
F0.5
sS'age'
p14
I0
sS'gener'
p15
S'm'
sS'lastScale'
p16
F5.5
sS'energy'
p17
F0.5
sb.(i__main__
Data_mobile
p1
(dp2
S'vel_y'
p3
I0
sS'vel_x'
p4
I0
sS'pos_x'
p5
I-9579
sS'pos_y'
p6
I9779
sS'isAlive'
p7
I00
sS'geno'
p8
(lp9
F-4.4703543296284076
aF2.9235787574627681
aF1.2648790849071325
aF-1.9696442221918744
aF-4.8350996019009944
aF3.9003329482020241
asS'accel_x'
p10
F0
sS'accel_y'
p11
F0
sS'maxAccel'
p12
I2
sS'maxVel'
p13
F0.5
sS'age'
p14
I0
sS'gener'
p15
S'm'
sS'lastScale'
p16
F5.5
sS'energy'
p17
F0.5
sb.(i__main__
Data_mobile
p1
(dp2
S'vel_y'
p3
I0
sS'vel_x'
p4
I0
sS'pos_x'
p5
I-9579
sS'pos_y'
p6
I9779
sS'isAlive'
p7
I00
sS'geno'
p8
(lp9
F-2.4876054739983697
aF0.68665320336512359
aF-0.99957029953835619
aF4.8243180604815059
aF-3.2658554949703476
aF0.76108571115185963
asS'accel_x'
p10
F0
sS'accel_y'
p11
F0
sS'maxAccel'
p12
I2
sS'maxVel'
p13
F0.5
sS'age'
p14
I0
sS'gener'
p15
S'm'
sS'lastScale'
p16
F5.5
sS'energy'
p17
F0.5
sb.(i__main__
Data_mobile
p1
(dp2
S'vel_y'
p3
I0
sS'vel_x'
p4
I0
sS'pos_x'
p5
I-9579
sS'pos_y'
p6
I9779
sS'isAlive'
p7
I00
sS'geno'
p8
(lp9
F1.4788969826633194
aF4.1393962552235397
aF-0.23364832968482974
aF4.0757753881558507
aF0.57458705890753636
aF-0.68619006821576434
asS'accel_x'
p10
F0
sS'accel_y'
p11
F0
sS'maxAccel'
p12
I2
sS'maxVel'
p13
F0.5
sS'age'
p14
I0
sS'gener'
p15
S'm'
sS'lastScale'
p16
F5.5
sS'energy'
p17
F0.5
sb.(i__main__
Data_mobile
p1
(dp2
S'vel_y'
p3
I0
sS'vel_x'
p4
I0
sS'pos_x'
p5
I-9579
sS'pos_y'
p6
I9779
sS'isAlive'
p7
I00
sS'geno'
p8
(lp9
F1.4791152623939252
aF3.233947867241433
aF-0.42199109741416163
aF3.8410632284168855
aF0.36345448478166298
aF-1.0659026377598124
asS'accel_x'
p10
F0
sS'accel_y'
p11
F0
sS'maxAccel'
p12
I2
sS'maxVel'
p13
F0.5
sS'age'
p14
I0
sS'gener'
p15
S'm'
sS'lastScale'
p16
F5.5
sS'energy'
p17
F0.5
sb.(i__main__
Data_mobile
p1
(dp2
S'vel_y'
p3
I0
sS'vel_x'
p4
I0
sS'pos_x'
p5
I-9579
sS'pos_y'
p6
I9779
sS'isAlive'
p7
I00
sS'geno'
p8
(lp9
F0.93862243255288458
aF3.0041871967343106
aF-0.32174967798933007
aF4.0757753881558507
aF0.14512622284543397
aF-0.63785499925596367
asS'accel_x'
p10
F0
sS'accel_y'
p11
F0
sS'maxAccel'
p12
I2
sS'maxVel'
p13
F0.5
sS'age'
p14
I0
sS'gener'
p15
S'm'
sS'lastScale'
p16
F5.5
sS'energy'
p17
F0.5
sb.(i__main__
Data_mobile
p1
(dp2
S'vel_y'
p3
I0
sS'vel_x'
p4
I0
sS'pos_x'
p5
I-9579
sS'pos_y'
p6
I9779
sS'isAlive'
p7
I00
sS'geno'
p8
(lp9
F1.4791152623939252
aF3.233947867241433
aF-0.32174967798933007
aF4.3595286636047277
aF0.049473240722995415
aF-0.89418676161724331
asS'accel_x'
p10
F0
sS'accel_y'
p11
F0
sS'maxAccel'
p12
I2
sS'maxVel'
p13
F0.5
sS'age'
p14
I0
sS'gener'
p15
S'm'
sS'lastScale'
p16
F5.5
sS'energy'
p17
F0.5
sb.(i__main__
Data_mobile
p1
(dp2
S'vel_y'
p3
I0
sS'vel_x'
p4
I0
sS'pos_x'
p5
I-9579
sS'pos_y'
p6
I9779
sS'isAlive'
p7
I00
sS'geno'
p8
(lp9
F0.93862243255288458
aF3.0041871967343106
aF-0.32174967798933007
aF4.0757753881558507
aF0.14512622284543397
aF-0.63785499925596367
asS'accel_x'
p10
F0
sS'accel_y'
p11
F0
sS'maxAccel'
p12
I2
sS'maxVel'
p13
F0.5
sS'age'
p14
I0
sS'gener'
p15
S'm'
sS'lastScale'
p16
F5.5
sS'energy'
p17
F0.5
sb.(i__main__
Data_mobile
p1
(dp2
S'vel_y'
p3
I0
sS'vel_x'
p4
I0
sS'pos_x'
p5
I-9579
sS'pos_y'
p6
I9779
sS'isAlive'
p7
I00
sS'geno'
p8
(lp9
F0.93862243255288458
aF3.0041871967343106
aF-0.42199109741416163
aF3.8410632284168855
aF0.039394406833119788
aF-1.0659026377598124
asS'accel_x'
p10
F0
sS'accel_y'
p11
F0
sS'maxAccel'
p12
I2
sS'maxVel'
p13
F0.5
sS'age'
p14
I0
sS'gener'
p15
S'm'
sS'lastScale'
p16
F5.5
sS'energy'
p17
F0.5
sb.(i__main__
Data_mobile
p1
(dp2
S'vel_y'
p3
I0
sS'vel_x'
p4
I0
sS'pos_x'
p5
I-9579
sS'pos_y'
p6
I9779
sS'isAlive'
p7
I00
sS'geno'
p8
(lp9
F1.4788969826633194
aF3.0041871967343106
aF-1.1549468185739724
aF4.2580018541844362
aF0.36345448478166298
aF-1.5397645855626554
asS'accel_x'
p10
F0
sS'accel_y'
p11
F0
sS'maxAccel'
p12
I2
sS'maxVel'
p13
F0.5
sS'age'
p14
I0
sS'gener'
p15
S'm'
sS'lastScale'
p16
F5.5
sS'energy'
p17
F0.5
sb.(i__main__
Data_mobile
p1
(dp2
S'vel_y'
p3
I0
sS'vel_x'
p4
I0
sS'pos_x'
p5
I-9579
sS'pos_y'
p6
I9779
sS'isAlive'
p7
I00
sS'geno'
p8
(lp9
F1.4791152623939252
aF3.233947867241433
aF-0.32174967798933007
aF4.0757753881558507
aF0.14512622284543397
aF-0.63785499925596367
asS'accel_x'
p10
F0
sS'accel_y'
p11
F0
sS'maxAccel'
p12
I2
sS'maxVel'
p13
F0.5
sS'age'
p14
I0
sS'gener'
p15
S'm'
sS'lastScale'
p16
F5.5
sS'energy'
p17
F0.5
sb.(i__main__
Data_mobile
p1
(dp2
S'vel_y'
p3
I0
sS'vel_x'
p4
I0
sS'pos_x'
p5
I-9579
sS'pos_y'
p6
I9779
sS'isAlive'
p7
I00
sS'geno'
p8
(lp9
F1.4788969826633194
aF2.5264751501556462
aF-1.1549468185739724
aF3.8880308939254169
aF0.36345448478166298
aF-1.0659026377598124
asS'accel_x'
p10
F0
sS'accel_y'
p11
F0
sS'maxAccel'
p12
I2
sS'maxVel'
p13
F0.5
sS'age'
p14
I0
sS'gener'
p15
S'm'
sS'lastScale'
p16
F5.5
sS'energy'
p17
F0.5
sb.(i__main__
Data_mobile
p1
(dp2
S'vel_y'
p3
I0
sS'vel_x'
p4
I0
sS'pos_x'
p5
I-9579
sS'pos_y'
p6
I9779
sS'isAlive'
p7
I00
sS'geno'
p8
(lp9
F1.2425086455927929
aF3.1906151742347939
aF-0.52697725495612568
aF4.1392470570822937
aF0.37804974983873818
aF-1.0659026377598124
asS'accel_x'
p10
F0
sS'accel_y'
p11
F0
sS'maxAccel'
p12
I2
sS'maxVel'
p13
F0.5
sS'age'
p14
I0
sS'gener'
p15
S'm'
sS'lastScale'
p16
F5.5
sS'energy'
p17
F0.5
sb.(i__main__
Data_mobile
p1
(dp2
S'vel_y'
p3
I0
sS'vel_x'
p4
I0
sS'pos_x'
p5
I-9579
sS'pos_y'
p6
I9779
sS'isAlive'
p7
I00
sS'geno'
p8
(lp9
F1.3928993223965178
aF3.2545458925935127
aF-0.70647709766554123
aF4.3595286636047277
aF0.049473240722995415
aF-0.89418676161724331
asS'accel_x'
p10
F0
sS'accel_y'
p11
F0
sS'maxAccel'
p12
I2
sS'maxVel'
p13
F0.5
sS'age'
p14
I0
sS'gener'
p15
S'm'
sS'lastScale'
p16
F5.5
sS'energy'
p17
F0.5
sb.(i__main__
Data_mobile
p1
(dp2
S'vel_y'
p3
I0
sS'vel_x'
p4
I0
sS'pos_x'
p5
I-9579
sS'pos_y'
p6
I9779
sS'isAlive'
p7
I00
sS'geno'
p8
(lp9
F0.93862243255288458
aF3.0041871967343106
aF-0.78935160483352096
aF3.871737492465515
aF0.36345448478166298
aF-1.04794134001488
asS'accel_x'
p10
F0
sS'accel_y'
p11
F0
sS'maxAccel'
p12
I2
sS'maxVel'
p13
F0.5
sS'age'
p14
I0
sS'gener'
p15
S'm'
sS'lastScale'
p16
F5.5
sS'energy'
p17
F0.5
sb.(i__main__
Data_mobile
p1
(dp2
S'vel_y'
p3
I0
sS'vel_x'
p4
I0
sS'pos_x'
p5
I-9579
sS'pos_y'
p6
I9779
sS'isAlive'
p7
I00
sS'geno'
p8
(lp9
F1.3928993223965178
aF3.0114394681629806
aF-0.23364832968482974
aF4.2580018541844362
aF0.32313465403367858
aF-0.82258106261692809
asS'accel_x'
p10
F0
sS'accel_y'
p11
F0
sS'maxAccel'
p12
I2
sS'maxVel'
p13
F0.5
sS'age'
p14
I0
sS'gener'
p15
S'm'
sS'lastScale'
p16
F5.5
sS'energy'
p17
F0.5
sb.(i__main__
Data_mobile
p1
(dp2
S'vel_y'
p3
I0
sS'vel_x'
p4
I0
sS'pos_x'
p5
I-9579
sS'pos_y'
p6
I9779
sS'isAlive'
p7
I00
sS'geno'
p8
(lp9
F1.3928993223965178
aF3.1906151742347939
aF-0.52697725495612568
aF4.1392470570822937
aF0.37804974983873818
aF-1.0659026377598124
asS'accel_x'
p10
F0
sS'accel_y'
p11
F0
sS'maxAccel'
p12
I2
sS'maxVel'
p13
F0.5
sS'age'
p14
I0
sS'gener'
p15
S'm'
sS'lastScale'
p16
F5.5
sS'energy'
p17
F0.5
sb.(i__main__
Data_mobile
p1
(dp2
S'vel_y'
p3
I0
sS'vel_x'
p4
I0
sS'pos_x'
p5
I-9579
sS'pos_y'
p6
I9779
sS'isAlive'
p7
I00
sS'geno'
p8
(lp9
F0.93862243255288458
aF3.0114394681629806
aF-0.23364832968482974
aF4.217398986384195
aF0.7645855242449664
aF-1.4684610749204496
asS'accel_x'
p10
F0
sS'accel_y'
p11
F0
sS'maxAccel'
p12
I2
sS'maxVel'
p13
F0.5
sS'age'
p14
I0
sS'gener'
p15
S'm'
sS'lastScale'
p16
F5.5
sS'energy'
p17
F0.5
sb.(i__main__
Data_mobile
p1
(dp2
S'vel_y'
p3
I0
sS'vel_x'
p4
I0
sS'pos_x'
p5
I-9579
sS'pos_y'
p6
I9779
sS'isAlive'
p7
I00
sS'geno'
p8
(lp9
F1.4379154346782763
aF3.1906151742347939
aF-0.52697725495612568
aF4.1392470570822937
aF0.7645855242449664
aF-1.4684610749204496
asS'accel_x'
p10
F0
sS'accel_y'
p11
F0
sS'maxAccel'
p12
I2
sS'maxVel'
p13
F0.5
sS'age'
p14
I0
sS'gener'
p15
S'm'
sS'lastScale'
p16
F5.5
sS'energy'
p17
F0.5
sb.(i__main__
Data_mobile
p1
(dp2
S'vel_y'
p3
I0
sS'vel_x'
p4
I0
sS'pos_x'
p5
I-9579
sS'pos_y'
p6
I9779
sS'isAlive'
p7
I00
sS'geno'
p8
(lp9
F1.4788969826633194
aF4.1393962552235397
aF-0.68008571052891387
aF4.1392470570822937
aF0.37804974983873818
aF-1.2922838717349872
asS'accel_x'
p10
F0
sS'accel_y'
p11
F0
sS'maxAccel'
p12
I2
sS'maxVel'
p13
F0.5
sS'age'
p14
I0
sS'gener'
p15
S'm'
sS'lastScale'
p16
F5.5
sS'energy'
p17
F0.5
sb.(i__main__
Data_mobile
p1
(dp2
S'vel_y'
p3
I0
sS'vel_x'
p4
I0
sS'pos_x'
p5
I-9579
sS'pos_y'
p6
I9779
sS'isAlive'
p7
I00
sS'geno'
p8
(lp9
F0.93862243255288458
aF3.0114394681629806
aF-0.23364832968482974
aF4.217398986384195
aF0.37804974983873818
aF-1.0659026377598124
asS'accel_x'
p10
F0
sS'accel_y'
p11
F0
sS'maxAccel'
p12
I2
sS'maxVel'
p13
F0.5
sS'age'
p14
I0
sS'gener'
p15
S'm'
sS'lastScale'
p16
F5.5
sS'energy'
p17
F0.5
sb.(i__main__
Data_mobile
p1
(dp2
S'vel_y'
p3
I0
sS'vel_x'
p4
I0
sS'pos_x'
p5
I-9579
sS'pos_y'
p6
I9779
sS'isAlive'
p7
I00
sS'geno'
p8
(lp9
F1.4788969826633194
aF4.1393962552235397
aF-0.68008571052891387
aF4.0757753881558507
aF0.14512622284543397
aF-0.63785499925596367
asS'accel_x'
p10
F0
sS'accel_y'
p11
F0
sS'maxAccel'
p12
I2
sS'maxVel'
p13
F0.5
sS'age'
p14
I0
sS'gener'
p15
S'm'
sS'lastScale'
p16
F5.5
sS'energy'
p17
F0.5
sb.(i__main__
Data_mobile
p1
(dp2
S'vel_y'
p3
I0
sS'vel_x'
p4
I0
sS'pos_x'
p5
I-9579
sS'pos_y'
p6
I9779
sS'isAlive'
p7
I00
sS'geno'
p8
(lp9
F1.3019600834392404
aF4.1393962552235397
aF-0.68008571052891387
aF4.0757753881558507
aF0.37804974983873818
aF-1.0659026377598124
asS'accel_x'
p10
F0
sS'accel_y'
p11
F0
sS'maxAccel'
p12
I2
sS'maxVel'
p13
F0.5
sS'age'
p14
I0
sS'gener'
p15
S'm'
sS'lastScale'
p16
F5.5
sS'energy'
p17
F0.5
sb.(i__main__
Data_mobile
p1
(dp2
S'vel_y'
p3
I0
sS'vel_x'
p4
I0
sS'pos_x'
p5
I-9579
sS'pos_y'
p6
I9779
sS'isAlive'
p7
I00
sS'geno'
p8
(lp9
F1.3928993223965178
aF3.1906151742347939
aF-0.94421444760431483
aF4.0757753881558507
aF-0.051970406174156714
aF-1.1817099832251992
asS'accel_x'
p10
F0
sS'accel_y'
p11
F0
sS'maxAccel'
p12
I2
sS'maxVel'
p13
F0.5
sS'age'
p14
I0
sS'gener'
p15
S'm'
sS'lastScale'
p16
F5.5
sS'energy'
p17
F0.5
sb.(i__main__
Data_mobile
p1
(dp2
S'vel_y'
p3
I0
sS'vel_x'
p4
I0
sS'pos_x'
p5
I-9579
sS'pos_y'
p6
I9779
sS'isAlive'
p7
I00
sS'geno'
p8
(lp9
F0.67171678888848241
aF3.0041871967343106
aF-0.78935160483352096
aF3.871737492465515
aF0.36345448478166298
aF-1.04794134001488
asS'accel_x'
p10
F0
sS'accel_y'
p11
F0
sS'maxAccel'
p12
I2
sS'maxVel'
p13
F0.5
sS'age'
p14
I0
sS'gener'
p15
S'm'
sS'lastScale'
p16
F5.5
sS'energy'
p17
F0.5
sb.(i__main__
Data_mobile
p1
(dp2
S'vel_y'
p3
I0
sS'vel_x'
p4
I0
sS'pos_x'
p5
I-9579
sS'pos_y'
p6
I9779
sS'isAlive'
p7
I00
sS'geno'
p8
(lp9
F1.4788969826633194
aF4.1393962552235397
aF-1.1549468185739724
aF4.2580018541844362
aF0.36345448478166298
aF-1.2922838717349872
asS'accel_x'
p10
F0
sS'accel_y'
p11
F0
sS'maxAccel'
p12
I2
sS'maxVel'
p13
F0.5
sS'age'
p14
I0
sS'gener'
p15
S'm'
sS'lastScale'
p16
F5.5
sS'energy'
p17
F0.5
sb.(i__main__
Data_mobile
p1
(dp2
S'vel_y'
p3
I0
sS'vel_x'
p4
I0
sS'pos_x'
p5
I-9579
sS'pos_y'
p6
I9779
sS'isAlive'
p7
I00
sS'geno'
p8
(lp9
F0.93862243255288458
aF3.0114394681629806
aF-0.23364832968482974
aF4.0757753881558507
aF0.81344676245306369
aF-1.0659026377598124
asS'accel_x'
p10
F0
sS'accel_y'
p11
F0
sS'maxAccel'
p12
I2
sS'maxVel'
p13
F0.5
sS'age'
p14
I0
sS'gener'
p15
S'm'
sS'lastScale'
p16
F5.5
sS'energy'
p17
F0.5
sb.(i__main__
Data_mobile
p1
(dp2
S'vel_y'
p3
I0
sS'vel_x'
p4
I0
sS'pos_x'
p5
I-9579
sS'pos_y'
p6
I9779
sS'isAlive'
p7
I00
sS'geno'
p8
(lp9
F1.4791152623939252
aF2.9203334147725259
aF-0.42199109741416163
aF3.7551152992458259
aF0.36345448478166298
aF-1.0659026377598124
asS'accel_x'
p10
F0
sS'accel_y'
p11
F0
sS'maxAccel'
p12
I2
sS'maxVel'
p13
F0.5
sS'age'
p14
I0
sS'gener'
p15
S'm'
sS'lastScale'
p16
F5.5
sS'energy'
p17
F0.5
sb.(i__main__
Data_mobile
p1
(dp2
S'vel_y'
p3
I0
sS'vel_x'
p4
I0
sS'pos_x'
p5
I-9579
sS'pos_y'
p6
I9779
sS'isAlive'
p7
I00
sS'geno'
p8
(lp9
F1.4788969826633194
aF3.0041871967343106
aF-1.1549468185739724
aF4.2580018541844362
aF0.36345448478166298
aF-1.0659026377598124
asS'accel_x'
p10
F0
sS'accel_y'
p11
F0
sS'maxAccel'
p12
I2
sS'maxVel'
p13
F0.5
sS'age'
p14
I0
sS'gener'
p15
S'm'
sS'lastScale'
p16
F5.5
sS'energy'
p17
F0.5
sb.(i__main__
Data_mobile
p1
(dp2
S'vel_y'
p3
I0
sS'vel_x'
p4
I0
sS'pos_x'
p5
I-9579
sS'pos_y'
p6
I9779
sS'isAlive'
p7
I00
sS'geno'
p8
(lp9
F0.67171678888848241
aF3.0114394681629806
aF-0.23364832968482974
aF4.0757753881558507
aF-0.020310445188299386
aF-0.72083880362673813
asS'accel_x'
p10
F0
sS'accel_y'
p11
F0
sS'maxAccel'
p12
I2
sS'maxVel'
p13
F0.5
sS'age'
p14
I0
sS'gener'
p15
S'm'
sS'lastScale'
p16
F5.5
sS'energy'
p17
F0.5
sb.(i__main__
Data_mobile
p1
(dp2
S'vel_y'
p3
I0
sS'vel_x'
p4
I0
sS'pos_x'
p5
I-9579
sS'pos_y'
p6
I9779
sS'isAlive'
p7
I00
sS'geno'
p8
(lp9
F1.3928993223965178
aF3.0041871967343106
aF-1.0446792938549745
aF4.3311248375820046
aF0.36345448478166298
aF-1.0659026377598124
asS'accel_x'
p10
F0
sS'accel_y'
p11
F0
sS'maxAccel'
p12
I2
sS'maxVel'
p13
F0.5
sS'age'
p14
I0
sS'gener'
p15
S'm'
sS'lastScale'
p16
F5.5
sS'energy'
p17
F0.5
sb.(i__main__
Data_mobile
p1
(dp2
S'vel_y'
p3
I0
sS'vel_x'
p4
I0
sS'pos_x'
p5
I-9579
sS'pos_y'
p6
I9779
sS'isAlive'
p7
I00
sS'geno'
p8
(lp9
F0.67171678888848241
aF3.0041871967343106
aF-0.78935160483352096
aF3.871737492465515
aF0.36345448478166298
aF-1.04794134001488
asS'accel_x'
p10
F0
sS'accel_y'
p11
F0
sS'maxAccel'
p12
I2
sS'maxVel'
p13
F0.5
sS'age'
p14
I0
sS'gener'
p15
S'm'
sS'lastScale'
p16
F5.5
sS'energy'
p17
F0.5
sb.(i__main__
Data_mobile
p1
(dp2
S'vel_y'
p3
I0
sS'vel_x'
p4
I0
sS'pos_x'
p5
I-9579
sS'pos_y'
p6
I9779
sS'isAlive'
p7
I00
sS'geno'
p8
(lp9
F0.60558933622966482
aF3.0114394681629806
aF-0.23364832968482974
aF4.217398986384195
aF0.7645855242449664
aF-1.4684610749204496
asS'accel_x'
p10
F0
sS'accel_y'
p11
F0
sS'maxAccel'
p12
I2
sS'maxVel'
p13
F0.5
sS'age'
p14
I0
sS'gener'
p15
S'm'
sS'lastScale'
p16
F5.5
sS'energy'
p17
F0.5
sb.(i__main__
Data_mobile
p1
(dp2
S'vel_y'
p3
I0
sS'vel_x'
p4
I0
sS'pos_x'
p5
I-9579
sS'pos_y'
p6
I9779
sS'isAlive'
p7
I00
sS'geno'
p8
(lp9
F1.3928993223965178
aF4.1393962552235397
aF-0.23364832968482974
aF4.0757753881558507
aF0.57458705890753636
aF-1.0659026377598124
asS'accel_x'
p10
F0
sS'accel_y'
p11
F0
sS'maxAccel'
p12
I2
sS'maxVel'
p13
F0.5
sS'age'
p14
I0
sS'gener'
p15
S'm'
sS'lastScale'
p16
F5.5
sS'energy'
p17
F0.5
sb.(i__main__
Data_mobile
p1
(dp2
S'vel_y'
p3
I0
sS'vel_x'
p4
I0
sS'pos_x'
p5
I-9579
sS'pos_y'
p6
I9779
sS'isAlive'
p7
I00
sS'geno'
p8
(lp9
F1.3928993223965178
aF3.0114394681629806
aF-0.23364832968482974
aF3.8686666327748158
aF0.36345448478166298
aF-1.0659026377598124
asS'accel_x'
p10
F0
sS'accel_y'
p11
F0
sS'maxAccel'
p12
I2
sS'maxVel'
p13
F0.5
sS'age'
p14
I0
sS'gener'
p15
S'm'
sS'lastScale'
p16
F5.5
sS'energy'
p17
F0.5
sb.(i__main__
Data_mobile
p1
(dp2
S'vel_y'
p3
I0
sS'vel_x'
p4
I0
sS'pos_x'
p5
I-9579
sS'pos_y'
p6
I9779
sS'isAlive'
p7
I00
sS'geno'
p8
(lp9
F1.4788969826633194
aF3.0041871967343106
aF-0.23364832968482974
aF4.0757753881558507
aF0.57458705890753636
aF-0.68619006821576434
asS'accel_x'
p10
F0
sS'accel_y'
p11
F0
sS'maxAccel'
p12
I2
sS'maxVel'
p13
F0.5
sS'age'
p14
I0
sS'gener'
p15
S'm'
sS'lastScale'
p16
F5.5
sS'energy'
p17
F0.5
sb.(i__main__
Data_mobile
p1
(dp2
S'vel_y'
p3
I0
sS'vel_x'
p4
I0
sS'pos_x'
p5
I-9579
sS'pos_y'
p6
I9779
sS'isAlive'
p7
I00
sS'geno'
p8
(lp9
F1.3928993223965178
aF4.1393962552235397
aF-0.23364832968482974
aF4.0757753881558507
aF0.57458705890753636
aF-1.0659026377598124
asS'accel_x'
p10
F0
sS'accel_y'
p11
F0
sS'maxAccel'
p12
I2
sS'maxVel'
p13
F0.5
sS'age'
p14
I0
sS'gener'
p15
S'm'
sS'lastScale'
p16
F5.5
sS'energy'
p17
F0.5
sb.(i__main__
Data_mobile
p1
(dp2
S'vel_y'
p3
I0
sS'vel_x'
p4
I0
sS'pos_x'
p5
I-9579
sS'pos_y'
p6
I9779
sS'isAlive'
p7
I00
sS'geno'
p8
(lp9
F1.3928993223965178
aF3.0041871967343106
aF-0.32174967798933007
aF4.3595286636047277
aF0.049473240722995415
aF-0.89418676161724331
asS'accel_x'
p10
F0
sS'accel_y'
p11
F0
sS'maxAccel'
p12
I2
sS'maxVel'
p13
F0.5
sS'age'
p14
I0
sS'gener'
p15
S'm'
sS'lastScale'
p16
F5.5
sS'energy'
p17
F0.5
sb.(i__main__
Data_mobile
p1
(dp2
S'vel_y'
p3
I0
sS'vel_x'
p4
I0
sS'pos_x'
p5
I-9579
sS'pos_y'
p6
I9779
sS'isAlive'
p7
I00
sS'geno'
p8
(lp9
F1.7493264174838794
aF4.1393962552235397
aF-0.23364832968482974
aF4.0757753881558507
aF0.57458705890753636
aF-1.4301207313539854
asS'accel_x'
p10
F0
sS'accel_y'
p11
F0
sS'maxAccel'
p12
I2
sS'maxVel'
p13
F0.5
sS'age'
p14
I0
sS'gener'
p15
S'm'
sS'lastScale'
p16
F5.5
sS'energy'
p17
F0.5
sb.(i__main__
Data_mobile
p1
(dp2
S'vel_y'
p3
I0
sS'vel_x'
p4
I0
sS'pos_x'
p5
I-9579
sS'pos_y'
p6
I9779
sS'isAlive'
p7
I00
sS'geno'
p8
(lp9
F1.3928993223965178
aF4.1393962552235397
aF-0.23364832968482974
aF4.217398986384195
aF0.7645855242449664
aF-1.4684610749204496
asS'accel_x'
p10
F0
sS'accel_y'
p11
F0
sS'maxAccel'
p12
I2
sS'maxVel'
p13
F0.5
sS'age'
p14
I0
sS'gener'
p15
S'm'
sS'lastScale'
p16
F5.5
sS'energy'
p17
F0.5
sb.(i__main__
Data_mobile
p1
(dp2
S'vel_y'
p3
I0
sS'vel_x'
p4
I0
sS'pos_x'
p5
I-9579
sS'pos_y'
p6
I9779
sS'isAlive'
p7
I00
sS'geno'
p8
(lp9
F1.083766376835823
aF3.1906151742347939
aF-0.7829617634090269
aF4.0757753881558507
aF0.37804974983873818
aF-1.0659026377598124
asS'accel_x'
p10
F0
sS'accel_y'
p11
F0
sS'maxAccel'
p12
I2
sS'maxVel'
p13
F0.5
sS'age'
p14
I0
sS'gener'
p15
S'm'
sS'lastScale'
p16
F5.5
sS'energy'
p17
F0.5
sb.(i__main__
Data_mobile
p1
(dp2
S'vel_y'
p3
I0
sS'vel_x'
p4
I0
sS'pos_x'
p5
I-9579
sS'pos_y'
p6
I9779
sS'isAlive'
p7
I00
sS'geno'
p8
(lp9
F1.4788969826633194
aF3.0041871967343106
aF-1.1549468185739724
aF4.2580018541844362
aF0.36345448478166298
aF-1.2922838717349872
asS'accel_x'
p10
F0
sS'accel_y'
p11
F0
sS'maxAccel'
p12
I2
sS'maxVel'
p13
F0.5
sS'age'
p14
I0
sS'gener'
p15
S'm'
sS'lastScale'
p16
F5.5
sS'energy'
p17
F0.5
sb.(i__main__
Data_mobile
p1
(dp2
S'vel_y'
p3
I0
sS'vel_x'
p4
I0
sS'pos_x'
p5
I-9579
sS'pos_y'
p6
I9779
sS'isAlive'
p7
I00
sS'geno'
p8
(lp9
F0.8634540230334089
aF4.1393962552235397
aF-0.68008571052891387
aF4.1392470570822937
aF0.37804974983873818
aF-1.0659026377598124
asS'accel_x'
p10
F0
sS'accel_y'
p11
F0
sS'maxAccel'
p12
I2
sS'maxVel'
p13
F0.5
sS'age'
p14
I0
sS'gener'
p15
S'm'
sS'lastScale'
p16
F5.5
sS'energy'
p17
F0.5
sb.(i__main__
Data_mobile
p1
(dp2
S'vel_y'
p3
I0
sS'vel_x'
p4
I0
sS'pos_x'
p5
I-9579
sS'pos_y'
p6
I9779
sS'isAlive'
p7
I00
sS'geno'
p8
(lp9
F1.2310560770531624
aF3.233947867241433
aF-0.32174967798933007
aF4.0757753881558507
aF0.37804974983873818
aF-1.0659026377598124
asS'accel_x'
p10
F0
sS'accel_y'
p11
F0
sS'maxAccel'
p12
I2
sS'maxVel'
p13
F0.5
sS'age'
p14
I0
sS'gener'
p15
S'm'
sS'lastScale'
p16
F5.5
sS'energy'
p17
F0.5
sb.(i__main__
Data_mobile
p1
(dp2
S'vel_y'
p3
I0
sS'vel_x'
p4
I0
sS'pos_x'
p5
I-9579
sS'pos_y'
p6
I9779
sS'isAlive'
p7
I00
sS'geno'
p8
(lp9
F1.3928993223965178
aF3.1906151742347939
aF-0.91158416300034051
aF3.8410632284168855
aF0.44657863087917848
aF-1.0659026377598124
asS'accel_x'
p10
F0
sS'accel_y'
p11
F0
sS'maxAccel'
p12
I2
sS'maxVel'
p13
F0.5
sS'age'
p14
I0
sS'gener'
p15
S'm'
sS'lastScale'
p16
F5.5
sS'energy'
p17
F0.5
sb.(i__main__
Data_mobile
p1
(dp2
S'vel_y'
p3
I0
sS'vel_x'
p4
I0
sS'pos_x'
p5
I-9579
sS'pos_y'
p6
I9779
sS'isAlive'
p7
I00
sS'geno'
p8
(lp9
F1.3928993223965178
aF4.1393962552235397
aF-0.23364832968482974
aF4.0757753881558507
aF0.57458705890753636
aF-1.2623061758130567
asS'accel_x'
p10
F0
sS'accel_y'
p11
F0
sS'maxAccel'
p12
I2
sS'maxVel'
p13
F0.5
sS'age'
p14
I0
sS'gener'
p15
S'm'
sS'lastScale'
p16
F5.5
sS'energy'
p17
F0.5
sb.(i__main__
Data_mobile
p1
(dp2
S'vel_y'
p3
I0
sS'vel_x'
p4
I0
sS'pos_x'
p5
I-9579
sS'pos_y'
p6
I9779
sS'isAlive'
p7
I00
sS'geno'
p8
(lp9
F1.4788969826633194
aF4.1393962552235397
aF-0.94421444760431483
aF4.0757753881558507
aF0.32313465403367858
aF-1.0659026377598124
asS'accel_x'
p10
F0
sS'accel_y'
p11
F0
sS'maxAccel'
p12
I2
sS'maxVel'
p13
F0.5
sS'age'
p14
I0
sS'gener'
p15
S'm'
sS'lastScale'
p16
F5.5
sS'energy'
p17
F0.5
sb.(i__main__
Data_mobile
p1
(dp2
S'vel_y'
p3
I0
sS'vel_x'
p4
I0
sS'pos_x'
p5
I-9579
sS'pos_y'
p6
I9779
sS'isAlive'
p7
I00
sS'geno'
p8
(lp9
F1.4788969826633194
aF4.1393962552235397
aF-0.94421444760431483
aF4.0757753881558507
aF0.36345448478166298
aF-1.0659026377598124
asS'accel_x'
p10
F0
sS'accel_y'
p11
F0
sS'maxAccel'
p12
I2
sS'maxVel'
p13
F0.5
sS'age'
p14
I0
sS'gener'
p15
S'm'
sS'lastScale'
p16
F5.5
sS'energy'
p17
F0.5
sb.(i__main__
Data_mobile
p1
(dp2
S'vel_y'
p3
I0
sS'vel_x'
p4
I0
sS'pos_x'
p5
I-9579
sS'pos_y'
p6
I9779
sS'isAlive'
p7
I00
sS'geno'
p8
(lp9
F1.3928993223965178
aF4.1393962552235397
aF-0.23364832968482974
aF4.0757753881558507
aF0.57458705890753636
aF-1.0659026377598124
asS'accel_x'
p10
F0
sS'accel_y'
p11
F0
sS'maxAccel'
p12
I2
sS'maxVel'
p13
F0.5
sS'age'
p14
I0
sS'gener'
p15
S'm'
sS'lastScale'
p16
F5.5
sS'energy'
p17
F0.5
sb.(i__main__
Data_mobile
p1
(dp2
S'vel_y'
p3
I0
sS'vel_x'
p4
I0
sS'pos_x'
p5
I-9579
sS'pos_y'
p6
I9779
sS'isAlive'
p7
I00
sS'geno'
p8
(lp9
F1.8716537476042832
aF3.061154567426108
aF-0.32174967798933007
aF4.5808432309535982
aF0.049473240722995415
aF-0.89418676161724331
asS'accel_x'
p10
F0
sS'accel_y'
p11
F0
sS'maxAccel'
p12
I2
sS'maxVel'
p13
F0.5
sS'age'
p14
I0
sS'gener'
p15
S'm'
sS'lastScale'
p16
F5.5
sS'energy'
p17
F0.5
sb.(i__main__
Data_mobile
p1
(dp2
S'vel_y'
p3
I0
sS'vel_x'
p4
I0
sS'pos_x'
p5
I-9579
sS'pos_y'
p6
I9779
sS'isAlive'
p7
I00
sS'geno'
p8
(lp9
F1.3928993223965178
aF3.1906151742347939
aF-0.94421444760431483
aF4.0757753881558507
aF0.36345448478166298
aF-1.1817099832251992
asS'accel_x'
p10
F0
sS'accel_y'
p11
F0
sS'maxAccel'
p12
I2
sS'maxVel'
p13
F0.5
sS'age'
p14
I0
sS'gener'
p15
S'm'
sS'lastScale'
p16
F5.5
sS'energy'
p17
F0.5
sb.(i__main__
Data_mobile
p1
(dp2
S'vel_y'
p3
I0
sS'vel_x'
p4
I0
sS'pos_x'
p5
I-9579
sS'pos_y'
p6
I9779
sS'isAlive'
p7
I00
sS'geno'
p8
(lp9
F1.3019600834392404
aF3.0041871967343106
aF-0.70647709766554123
aF4.2580018541844362
aF0.36345448478166298
aF-1.0659026377598124
asS'accel_x'
p10
F0
sS'accel_y'
p11
F0
sS'maxAccel'
p12
I2
sS'maxVel'
p13
F0.5
sS'age'
p14
I0
sS'gener'
p15
S'm'
sS'lastScale'
p16
F5.5
sS'energy'
p17
F0.5
sb.(i__main__
Data_mobile
p1
(dp2
S'vel_y'
p3
I0
sS'vel_x'
p4
I0
sS'pos_x'
p5
I-9579
sS'pos_y'
p6
I9779
sS'isAlive'
p7
I00
sS'geno'
p8
(lp9
F0.93862243255288458
aF3.0041871967343106
aF-0.70647709766554123
aF4.2580018541844362
aF0.36345448478166298
aF-1.0659026377598124
asS'accel_x'
p10
F0
sS'accel_y'
p11
F0
sS'maxAccel'
p12
I2
sS'maxVel'
p13
F0.5
sS'age'
p14
I0
sS'gener'
p15
S'm'
sS'lastScale'
p16
F5.5
sS'energy'
p17
F0.5
sb.(i__main__
Data_mobile
p1
(dp2
S'vel_y'
p3
I0
sS'vel_x'
p4
I0
sS'pos_x'
p5
I-9579
sS'pos_y'
p6
I9779
sS'isAlive'
p7
I00
sS'geno'
p8
(lp9
F1.4788969826633194
aF4.1393962552235397
aF-0.68008571052891387
aF4.0757753881558507
aF0.36345448478166298
aF-0.89418676161724331
asS'accel_x'
p10
F0
sS'accel_y'
p11
F0
sS'maxAccel'
p12
I2
sS'maxVel'
p13
F0.5
sS'age'
p14
I0
sS'gener'
p15
S'm'
sS'lastScale'
p16
F5.5
sS'energy'
p17
F0.5
sb.(i__main__
Data_mobile
p1
(dp2
S'vel_y'
p3
I0
sS'vel_x'
p4
I0
sS'pos_x'
p5
I-9579
sS'pos_y'
p6
I9779
sS'isAlive'
p7
I00
sS'geno'
p8
(lp9
F1.3928993223965178
aF4.1393962552235397
aF-0.23364832968482974
aF4.0757753881558507
aF0.57458705890753636
aF-1.0659026377598124
asS'accel_x'
p10
F0
sS'accel_y'
p11
F0
sS'maxAccel'
p12
I2
sS'maxVel'
p13
F0.5
sS'age'
p14
I0
sS'gener'
p15
S'm'
sS'lastScale'
p16
F5.5
sS'energy'
p17
F0.5
sb.(i__main__
Data_mobile
p1
(dp2
S'vel_y'
p3
I0
sS'vel_x'
p4
I0
sS'pos_x'
p5
I-9579
sS'pos_y'
p6
I9779
sS'isAlive'
p7
I00
sS'geno'
p8
(lp9
F1.4788969826633194
aF4.1393962552235397
aF-0.94421444760431483
aF4.0757753881558507
aF0.32313465403367858
aF-0.89418676161724331
asS'accel_x'
p10
F0
sS'accel_y'
p11
F0
sS'maxAccel'
p12
I2
sS'maxVel'
p13
F0.5
sS'age'
p14
I0
sS'gener'
p15
S'm'
sS'lastScale'
p16
F5.5
sS'energy'
p17
F0.5
sb.(i__main__
Data_mobile
p1
(dp2
S'vel_y'
p3
I0
sS'vel_x'
p4
I0
sS'pos_x'
p5
I-9579
sS'pos_y'
p6
I9779
sS'isAlive'
p7
I00
sS'geno'
p8
(lp9
F1.3928993223965178
aF3.1844734048200207
aF-0.70647709766554123
aF4.3595286636047277
aF0.36345448478166298
aF-1.0659026377598124
asS'accel_x'
p10
F0
sS'accel_y'
p11
F0
sS'maxAccel'
p12
I2
sS'maxVel'
p13
F0.5
sS'age'
p14
I0
sS'gener'
p15
S'm'
sS'lastScale'
p16
F5.5
sS'energy'
p17
F0.5
sb.(i__main__
Data_mobile
p1
(dp2
S'vel_y'
p3
I0
sS'vel_x'
p4
I0
sS'pos_x'
p5
I-9579
sS'pos_y'
p6
I9779
sS'isAlive'
p7
I00
sS'geno'
p8
(lp9
F1.3928993223965178
aF3.0114394681629806
aF-0.23364832968482974
aF4.2580018541844362
aF0.36345448478166298
aF-1.0659026377598124
asS'accel_x'
p10
F0
sS'accel_y'
p11
F0
sS'maxAccel'
p12
I2
sS'maxVel'
p13
F0.5
sS'age'
p14
I0
sS'gener'
p15
S'm'
sS'lastScale'
p16
F5.5
sS'energy'
p17
F0.5
sb.(i__main__
Data_mobile
p1
(dp2
S'vel_y'
p3
I0
sS'vel_x'
p4
I0
sS'pos_x'
p5
I-9579
sS'pos_y'
p6
I9779
sS'isAlive'
p7
I00
sS'geno'
p8
(lp9
F0.67171678888848241
aF3.0041871967343106
aF-0.78935160483352096
aF3.871737492465515
aF0.36345448478166298
aF-1.04794134001488
asS'accel_x'
p10
F0
sS'accel_y'
p11
F0
sS'maxAccel'
p12
I2
sS'maxVel'
p13
F0.5
sS'age'
p14
I0
sS'gener'
p15
S'm'
sS'lastScale'
p16
F5.5
sS'energy'
p17
F0.5
sb.(i__main__
Data_mobile
p1
(dp2
S'vel_y'
p3
I0
sS'vel_x'
p4
I0
sS'pos_x'
p5
I-9579
sS'pos_y'
p6
I9779
sS'isAlive'
p7
I00
sS'geno'
p8
(lp9
F1.7636968090726675
aF3.1906151742347939
aF-0.52697725495612568
aF3.4283548948729066
aF0.36345448478166298
aF-0.89418676161724331
asS'accel_x'
p10
F0
sS'accel_y'
p11
F0
sS'maxAccel'
p12
I2
sS'maxVel'
p13
F0.5
sS'age'
p14
I0
sS'gener'
p15
S'm'
sS'lastScale'
p16
F5.5
sS'energy'
p17
F0.5
sb.(i__main__
Data_mobile
p1
(dp2
S'vel_y'
p3
I0
sS'vel_x'
p4
I0
sS'pos_x'
p5
I-9579
sS'pos_y'
p6
I9779
sS'isAlive'
p7
I00
sS'geno'
p8
(lp9
F0.93862243255288458
aF3.1906151742347939
aF-0.23364832968482974
aF4.3595286636047277
aF0.36345448478166298
aF-1.0659026377598124
asS'accel_x'
p10
F0
sS'accel_y'
p11
F0
sS'maxAccel'
p12
I2
sS'maxVel'
p13
F0.5
sS'age'
p14
I0
sS'gener'
p15
S'm'
sS'lastScale'
p16
F5.5
sS'energy'
p17
F0.5
sb.(i__main__
Data_mobile
p1
(dp2
S'vel_y'
p3
I0
sS'vel_x'
p4
I0
sS'pos_x'
p5
I-9579
sS'pos_y'
p6
I9779
sS'isAlive'
p7
I00
sS'geno'
p8
(lp9
F1.4791152623939252
aF3.233947867241433
aF-0.32174967798933007
aF4.3595286636047277
aF0.049473240722995415
aF-0.89418676161724331
asS'accel_x'
p10
F0
sS'accel_y'
p11
F0
sS'maxAccel'
p12
I2
sS'maxVel'
p13
F0.5
sS'age'
p14
I0
sS'gener'
p15
S'm'
sS'lastScale'
p16
F5.5
sS'energy'
p17
F0.5
sb.(i__main__
Data_mobile
p1
(dp2
S'vel_y'
p3
I0
sS'vel_x'
p4
I0
sS'pos_x'
p5
I-9579
sS'pos_y'
p6
I9779
sS'isAlive'
p7
I00
sS'geno'
p8
(lp9
F1.3928993223965178
aF3.2036199995643009
aF-0.78935160483352096
aF3.871737492465515
aF0.36345448478166298
aF-1.04794134001488
asS'accel_x'
p10
F0
sS'accel_y'
p11
F0
sS'maxAccel'
p12
I2
sS'maxVel'
p13
F0.5
sS'age'
p14
I0
sS'gener'
p15
S'm'
sS'lastScale'
p16
F5.5
sS'energy'
p17
F0.5
sb.(i__main__
Data_mobile
p1
(dp2
S'vel_y'
p3
I0
sS'vel_x'
p4
I0
sS'pos_x'
p5
I-9579
sS'pos_y'
p6
I9779
sS'isAlive'
p7
I00
sS'geno'
p8
(lp9
F1.8716537476042832
aF3.061154567426108
aF-0.32174967798933007
aF4.3595286636047277
aF0.36345448478166298
aF-1.0659026377598124
asS'accel_x'
p10
F0
sS'accel_y'
p11
F0
sS'maxAccel'
p12
I2
sS'maxVel'
p13
F0.5
sS'age'
p14
I0
sS'gener'
p15
S'm'
sS'lastScale'
p16
F5.5
sS'energy'
p17
F0.5
sb.(i__main__
Data_mobile
p1
(dp2
S'vel_y'
p3
I0
sS'vel_x'
p4
I0
sS'pos_x'
p5
I-9579
sS'pos_y'
p6
I9779
sS'isAlive'
p7
I00
sS'geno'
p8
(lp9
F1.7636968090726675
aF3.1906151742347939
aF-0.52697725495612568
aF3.4283548948729066
aF0.37804974983873818
aF-1.0659026377598124
asS'accel_x'
p10
F0
sS'accel_y'
p11
F0
sS'maxAccel'
p12
I2
sS'maxVel'
p13
F0.5
sS'age'
p14
I0
sS'gener'
p15
S'm'
sS'lastScale'
p16
F5.5
sS'energy'
p17
F0.5
sb.(i__main__
Data_mobile
p1
(dp2
S'vel_y'
p3
I0
sS'vel_x'
p4
I0
sS'pos_x'
p5
I-9579
sS'pos_y'
p6
I9779
sS'isAlive'
p7
I00
sS'geno'
p8
(lp9
F1.4788969826633194
aF4.1393962552235397
aF-0.68008571052891387
aF4.0757753881558507
aF0.37804974983873818
aF-1.0659026377598124
asS'accel_x'
p10
F0
sS'accel_y'
p11
F0
sS'maxAccel'
p12
I2
sS'maxVel'
p13
F0.5
sS'age'
p14
I0
sS'gener'
p15
S'm'
sS'lastScale'
p16
F5.5
sS'energy'
p17
F0.5
sb.(i__main__
Data_mobile
p1
(dp2
S'vel_y'
p3
I0
sS'vel_x'
p4
I0
sS'pos_x'
p5
I-9579
sS'pos_y'
p6
I9779
sS'isAlive'
p7
I00
sS'geno'
p8
(lp9
F1.8716537476042832
aF2.6981699424522692
aF-0.94421444760431483
aF4.0757753881558507
aF0.36345448478166298
aF-0.73141270064475605
asS'accel_x'
p10
F0
sS'accel_y'
p11
F0
sS'maxAccel'
p12
I2
sS'maxVel'
p13
F0.5
sS'age'
p14
I0
sS'gener'
p15
S'm'
sS'lastScale'
p16
F5.5
sS'energy'
p17
F0.5
sb.(i__main__
Data_mobile
p1
(dp2
S'vel_y'
p3
I0
sS'vel_x'
p4
I0
sS'pos_x'
p5
I-9579
sS'pos_y'
p6
I9779
sS'isAlive'
p7
I00
sS'geno'
p8
(lp9
F1.7636968090726675
aF3.1906151742347939
aF-0.52697725495612568
aF3.4283548948729066
aF0.36345448478166298
aF-0.89418676161724331
asS'accel_x'
p10
F0
sS'accel_y'
p11
F0
sS'maxAccel'
p12
I2
sS'maxVel'
p13
F0.5
sS'age'
p14
I0
sS'gener'
p15
S'm'
sS'lastScale'
p16
F5.5
sS'energy'
p17
F0.5
sb.(i__main__
Data_mobile
p1
(dp2
S'vel_y'
p3
I0
sS'vel_x'
p4
I0
sS'pos_x'
p5
I-9579
sS'pos_y'
p6
I9779
sS'isAlive'
p7
I00
sS'geno'
p8
(lp9
F1.8716537476042832
aF3.1906151742347939
aF-0.94421444760431483
aF4.0757753881558507
aF0.36345448478166298
aF-1.0659026377598124
asS'accel_x'
p10
F0
sS'accel_y'
p11
F0
sS'maxAccel'
p12
I2
sS'maxVel'
p13
F0.5
sS'age'
p14
I0
sS'gener'
p15
S'm'
sS'lastScale'
p16
F5.5
sS'energy'
p17
F0.5
sb.(i__main__
Data_mobile
p1
(dp2
S'vel_y'
p3
I0
sS'vel_x'
p4
I0
sS'pos_x'
p5
I-9579
sS'pos_y'
p6
I9779
sS'isAlive'
p7
I00
sS'geno'
p8
(lp9
F1.3928993223965178
aF3.2036199995643009
aF-0.78935160483352096
aF3.871737492465515
aF0.36345448478166298
aF-1.04794134001488
asS'accel_x'
p10
F0
sS'accel_y'
p11
F0
sS'maxAccel'
p12
I2
sS'maxVel'
p13
F0.5
sS'age'
p14
I0
sS'gener'
p15
S'm'
sS'lastScale'
p16
F5.5
sS'energy'
p17
F0.5
sb.(i__main__
Data_mobile
p1
(dp2
S'vel_y'
p3
I0
sS'vel_x'
p4
I0
sS'pos_x'
p5
I-9579
sS'pos_y'
p6
I9779
sS'isAlive'
p7
I00
sS'geno'
p8
(lp9
F1.4788969826633194
aF4.1393962552235397
aF-0.68008571052891387
aF4.0757753881558507
aF0.37804974983873818
aF-1.0659026377598124
asS'accel_x'
p10
F0
sS'accel_y'
p11
F0
sS'maxAccel'
p12
I2
sS'maxVel'
p13
F0.5
sS'age'
p14
I0
sS'gener'
p15
S'm'
sS'lastScale'
p16
F5.5
sS'energy'
p17
F0.5
sb.(i__main__
Data_mobile
p1
(dp2
S'vel_y'
p3
I0
sS'vel_x'
p4
I0
sS'pos_x'
p5
I-9579
sS'pos_y'
p6
I9779
sS'isAlive'
p7
I00
sS'geno'
p8
(lp9
F1.4791152623939252
aF3.233947867241433
aF-0.42199109741416163
aF3.8410632284168855
aF0.36345448478166298
aF-0.89418676161724331
asS'accel_x'
p10
F0
sS'accel_y'
p11
F0
sS'maxAccel'
p12
I2
sS'maxVel'
p13
F0.5
sS'age'
p14
I0
sS'gener'
p15
S'm'
sS'lastScale'
p16
F5.5
sS'energy'
p17
F0.5
sb.(i__main__
Data_mobile
p1
(dp2
S'vel_y'
p3
I0
sS'vel_x'
p4
I0
sS'pos_x'
p5
I-9579
sS'pos_y'
p6
I9779
sS'isAlive'
p7
I00
sS'geno'
p8
(lp9
F1.3928993223965178
aF3.1906151742347939
aF-0.52697725495612568
aF4.0471728191995338
aF0.37804974983873818
aF-1.0659026377598124
asS'accel_x'
p10
F0
sS'accel_y'
p11
F0
sS'maxAccel'
p12
I2
sS'maxVel'
p13
F0.5
sS'age'
p14
I0
sS'gener'
p15
S'm'
sS'lastScale'
p16
F5.5
sS'energy'
p17
F0.5
sb.(i__main__
Data_mobile
p1
(dp2
S'vel_y'
p3
I0
sS'vel_x'
p4
I0
sS'pos_x'
p5
I-9579
sS'pos_y'
p6
I9779
sS'isAlive'
p7
I00
sS'geno'
p8
(lp9
F1.3928993223965178
aF3.0114394681629806
aF-0.94421444760431483
aF4.0757753881558507
aF0.36345448478166298
aF-1.0659026377598124
asS'accel_x'
p10
F0
sS'accel_y'
p11
F0
sS'maxAccel'
p12
I2
sS'maxVel'
p13
F0.5
sS'age'
p14
I0
sS'gener'
p15
S'm'
sS'lastScale'
p16
F5.5
sS'energy'
p17
F0.5
sb.(i__main__
Data_mobile
p1
(dp2
S'vel_y'
p3
I0
sS'vel_x'
p4
I0
sS'pos_x'
p5
I-9579
sS'pos_y'
p6
I9779
sS'isAlive'
p7
I00
sS'geno'
p8
(lp9
F0.93862243255288458
aF3.0041871967343106
aF-0.70647709766554123
aF4.2580018541844362
aF0.735191043805556
aF-1.2922838717349872
asS'accel_x'
p10
F0
sS'accel_y'
p11
F0
sS'maxAccel'
p12
I2
sS'maxVel'
p13
F0.5
sS'age'
p14
I0
sS'gener'
p15
S'm'
sS'lastScale'
p16
F5.5
sS'energy'
p17
F0.5
sb.(i__main__
Data_mobile
p1
(dp2
S'vel_y'
p3
I0
sS'vel_x'
p4
I0
sS'pos_x'
p5
I-9579
sS'pos_y'
p6
I9779
sS'isAlive'
p7
I00
sS'geno'
p8
(lp9
F1.3928993223965178
aF3.0041871967343106
aF-0.70647709766554123
aF3.8410632284168855
aF0.36345448478166298
aF-1.0659026377598124
asS'accel_x'
p10
F0
sS'accel_y'
p11
F0
sS'maxAccel'
p12
I2
sS'maxVel'
p13
F0.5
sS'age'
p14
I0
sS'gener'
p15
S'm'
sS'lastScale'
p16
F5.5
sS'energy'
p17
F0.5
sb.(i__main__
Data_mobile
p1
(dp2
S'vel_y'
p3
I0
sS'vel_x'
p4
I0
sS'pos_x'
p5
I-9579
sS'pos_y'
p6
I9779
sS'isAlive'
p7
I00
sS'geno'
p8
(lp9
F1.3928993223965178
aF3.0041871967343106
aF-0.70647709766554123
aF3.8410632284168855
aF0.36345448478166298
aF-1.0659026377598124
asS'accel_x'
p10
F0
sS'accel_y'
p11
F0
sS'maxAccel'
p12
I2
sS'maxVel'
p13
F0.5
sS'age'
p14
I0
sS'gener'
p15
S'm'
sS'lastScale'
p16
F5.5
sS'energy'
p17
F0.5
sb.(i__main__
Data_mobile
p1
(dp2
S'vel_y'
p3
I0
sS'vel_x'
p4
I0
sS'pos_x'
p5
I-9579
sS'pos_y'
p6
I9779
sS'isAlive'
p7
I00
sS'geno'
p8
(lp9
F1.4788969826633194
aF4.1393962552235397
aF-0.94421444760431483
aF4.0757753881558507
aF0.32313465403367858
aF-0.89418676161724331
asS'accel_x'
p10
F0
sS'accel_y'
p11
F0
sS'maxAccel'
p12
I2
sS'maxVel'
p13
F0.5
sS'age'
p14
I0
sS'gener'
p15
S'm'
sS'lastScale'
p16
F5.5
sS'energy'
p17
F0.5
sb.(i__main__
Data_mobile
p1
(dp2
S'vel_y'
p3
I0
sS'vel_x'
p4
I0
sS'pos_x'
p5
I-9579
sS'pos_y'
p6
I9779
sS'isAlive'
p7
I00
sS'geno'
p8
(lp9
F1.4788969826633194
aF3.0041871967343106
aF-1.1549468185739724
aF4.2580018541844362
aF0.36345448478166298
aF-1.0659026377598124
asS'accel_x'
p10
F0
sS'accel_y'
p11
F0
sS'maxAccel'
p12
I2
sS'maxVel'
p13
F0.5
sS'age'
p14
I0
sS'gener'
p15
S'm'
sS'lastScale'
p16
F5.5
sS'energy'
p17
F0.5
sb.(i__main__
Data_mobile
p1
(dp2
S'vel_y'
p3
I0
sS'vel_x'
p4
I0
sS'pos_x'
p5
I-9579
sS'pos_y'
p6
I9779
sS'isAlive'
p7
I00
sS'geno'
p8
(lp9
F1.3928993223965178
aF3.0041871967343106
aF-0.70647709766554123
aF3.8410632284168855
aF0.36345448478166298
aF-1.0659026377598124
asS'accel_x'
p10
F0
sS'accel_y'
p11
F0
sS'maxAccel'
p12
I2
sS'maxVel'
p13
F0.5
sS'age'
p14
I0
sS'gener'
p15
S'm'
sS'lastScale'
p16
F5.5
sS'energy'
p17
F0.5
sb.(i__main__
Data_mobile
p1
(dp2
S'vel_y'
p3
I0
sS'vel_x'
p4
I0
sS'pos_x'
p5
I-9579
sS'pos_y'
p6
I9779
sS'isAlive'
p7
I00
sS'geno'
p8
(lp9
F1.3019600834392404
aF3.0041871967343106
aF-0.70647709766554123
aF4.2580018541844362
aF0.36345448478166298
aF-1.0659026377598124
asS'accel_x'
p10
F0
sS'accel_y'
p11
F0
sS'maxAccel'
p12
I2
sS'maxVel'
p13
F0.5
sS'age'
p14
I0
sS'gener'
p15
S'm'
sS'lastScale'
p16
F5.5
sS'energy'
p17
F0.5
sb.(i__main__
Data_mobile
p1
(dp2
S'vel_y'
p3
I0
sS'vel_x'
p4
I0
sS'pos_x'
p5
I-9579
sS'pos_y'
p6
I9779
sS'isAlive'
p7
I00
sS'geno'
p8
(lp9
F1.3928993223965178
aF3.0041871967343106
aF-0.70647709766554123
aF4.2580018541844362
aF0.36345448478166298
aF-1.0659026377598124
asS'accel_x'
p10
F0
sS'accel_y'
p11
F0
sS'maxAccel'
p12
I2
sS'maxVel'
p13
F0.5
sS'age'
p14
I0
sS'gener'
p15
S'm'
sS'lastScale'
p16
F5.5
sS'energy'
p17
F0.5
sb.(i__main__
Data_mobile
p1
(dp2
S'vel_y'
p3
I0
sS'vel_x'
p4
I0
sS'pos_x'
p5
I-9579
sS'pos_y'
p6
I9779
sS'isAlive'
p7
I00
sS'geno'
p8
(lp9
F0.93862243255288458
aF3.0041871967343106
aF-0.70647709766554123
aF4.2580018541844362
aF0.36345448478166298
aF-1.0659026377598124
asS'accel_x'
p10
F0
sS'accel_y'
p11
F0
sS'maxAccel'
p12
I2
sS'maxVel'
p13
F0.5
sS'age'
p14
I0
sS'gener'
p15
S'm'
sS'lastScale'
p16
F5.5
sS'energy'
p17
F0.5
sb.(i__main__
Data_mobile
p1
(dp2
S'vel_y'
p3
I0
sS'vel_x'
p4
I0
sS'pos_x'
p5
I-9579
sS'pos_y'
p6
I9779
sS'isAlive'
p7
I00
sS'geno'
p8
(lp9
F1.3928993223965178
aF3.0114394681629806
aF-0.32174967798933007
aF4.3595286636047277
aF0.36345448478166298
aF-1.0659026377598124
asS'accel_x'
p10
F0
sS'accel_y'
p11
F0
sS'maxAccel'
p12
I2
sS'maxVel'
p13
F0.5
sS'age'
p14
I0
sS'gener'
p15
S'm'
sS'lastScale'
p16
F5.5
sS'energy'
p17
F0.5
sb.(i__main__
Data_mobile
p1
(dp2
S'vel_y'
p3
I0
sS'vel_x'
p4
I0
sS'pos_x'
p5
I-9579
sS'pos_y'
p6
I9779
sS'isAlive'
p7
I00
sS'geno'
p8
(lp9
F0.93862243255288458
aF3.0041871967343106
aF-0.70647709766554123
aF4.2580018541844362
aF0.36345448478166298
aF-1.0785349996546074
asS'accel_x'
p10
F0
sS'accel_y'
p11
F0
sS'maxAccel'
p12
I2
sS'maxVel'
p13
F0.5
sS'age'
p14
I0
sS'gener'
p15
S'm'
sS'lastScale'
p16
F5.5
sS'energy'
p17
F0.5
sb.(i__main__
Data_mobile
p1
(dp2
S'vel_y'
p3
I0
sS'vel_x'
p4
I0
sS'pos_x'
p5
I-9579
sS'pos_y'
p6
I9779
sS'isAlive'
p7
I00
sS'geno'
p8
(lp9
F1.2310560770531624
aF3.233947867241433
aF-1.0931159880812791
aF3.7146142417681034
aF-0.38856669184813908
aF-1.3485686684917089
asS'accel_x'
p10
F0
sS'accel_y'
p11
F0
sS'maxAccel'
p12
I2
sS'maxVel'
p13
F0.5
sS'age'
p14
I0
sS'gener'
p15
S'm'
sS'lastScale'
p16
F5.5
sS'energy'
p17
F0.5
sb.(i__main__
Data_mobile
p1
(dp2
S'vel_y'
p3
I0
sS'vel_x'
p4
I0
sS'pos_x'
p5
I-9579
sS'pos_y'
p6
I9779
sS'isAlive'
p7
I00
sS'geno'
p8
(lp9
F1.3928993223965178
aF3.1906151742347939
aF-0.68008571052891387
aF4.0757753881558507
aF-0.073482771532758284
aF-1.0659026377598124
asS'accel_x'
p10
F0
sS'accel_y'
p11
F0
sS'maxAccel'
p12
I2
sS'maxVel'
p13
F0.5
sS'age'
p14
I0
sS'gener'
p15
S'm'
sS'lastScale'
p16
F5.5
sS'energy'
p17
F0.5
sb.(i__main__
Data_mobile
p1
(dp2
S'vel_y'
p3
I0
sS'vel_x'
p4
I0
sS'pos_x'
p5
I-9579
sS'pos_y'
p6
I9779
sS'isAlive'
p7
I00
sS'geno'
p8
(lp9
F0.93862243255288458
aF3.0041871967343106
aF-0.70647709766554123
aF4.2580018541844362
aF0.36345448478166298
aF-1.0659026377598124
asS'accel_x'
p10
F0
sS'accel_y'
p11
F0
sS'maxAccel'
p12
I2
sS'maxVel'
p13
F0.5
sS'age'
p14
I0
sS'gener'
p15
S'm'
sS'lastScale'
p16
F5.5
sS'energy'
p17
F0.5
sb.(i__main__
Data_mobile
p1
(dp2
S'vel_y'
p3
I0
sS'vel_x'
p4
I0
sS'pos_x'
p5
I-9579
sS'pos_y'
p6
I9779
sS'isAlive'
p7
I00
sS'geno'
p8
(lp9
F1.4788969826633194
aF4.0201772917954948
aF-0.94421444760431483
aF4.0757753881558507
aF0.36345448478166298
aF-1.0659026377598124
asS'accel_x'
p10
F0
sS'accel_y'
p11
F0
sS'maxAccel'
p12
I2
sS'maxVel'
p13
F0.5
sS'age'
p14
I0
sS'gener'
p15
S'm'
sS'lastScale'
p16
F5.5
sS'energy'
p17
F0.5
sb.(i__main__
Data_mobile
p1
(dp2
S'vel_y'
p3
I0
sS'vel_x'
p4
I0
sS'pos_x'
p5
I-9579
sS'pos_y'
p6
I9779
sS'isAlive'
p7
I00
sS'geno'
p8
(lp9
F1.3928993223965178
aF3.0114394681629806
aF-0.70647709766554123
aF4.2580018541844362
aF0.36345448478166298
aF-1.0659026377598124
asS'accel_x'
p10
F0
sS'accel_y'
p11
F0
sS'maxAccel'
p12
I2
sS'maxVel'
p13
F0.5
sS'age'
p14
I0
sS'gener'
p15
S'm'
sS'lastScale'
p16
F5.5
sS'energy'
p17
F0.5
sb.(i__main__
Data_mobile
p1
(dp2
S'vel_y'
p3
I0
sS'vel_x'
p4
I0
sS'pos_x'
p5
I-9579
sS'pos_y'
p6
I9779
sS'isAlive'
p7
I00
sS'geno'
p8
(lp9
F0.93862243255288458
aF3.0041871967343106
aF-0.70647709766554123
aF4.4868323009233757
aF0.36345448478166298
aF-1.0659026377598124
asS'accel_x'
p10
F0
sS'accel_y'
p11
F0
sS'maxAccel'
p12
I2
sS'maxVel'
p13
F0.5
sS'age'
p14
I0
sS'gener'
p15
S'm'
sS'lastScale'
p16
F5.5
sS'energy'
p17
F0.5
sb.(i__main__
Data_mobile
p1
(dp2
S'vel_y'
p3
I0
sS'vel_x'
p4
I0
sS'pos_x'
p5
I-9579
sS'pos_y'
p6
I9779
sS'isAlive'
p7
I00
sS'geno'
p8
(lp9
F1.3928993223965178
aF3.0323510250531056
aF-0.49749150327266256
aF4.2580018541844362
aF0.36345448478166298
aF-0.73141270064475605
asS'accel_x'
p10
F0
sS'accel_y'
p11
F0
sS'maxAccel'
p12
I2
sS'maxVel'
p13
F0.5
sS'age'
p14
I0
sS'gener'
p15
S'm'
sS'lastScale'
p16
F5.5
sS'energy'
p17
F0.5
sb.(i__main__
Data_mobile
p1
(dp2
S'vel_y'
p3
I0
sS'vel_x'
p4
I0
sS'pos_x'
p5
I-9579
sS'pos_y'
p6
I9779
sS'isAlive'
p7
I00
sS'geno'
p8
(lp9
F1.4788969826633194
aF3.233947867241433
aF-0.68008571052891387
aF4.2210200579502244
aF-0.70602761288340321
aF-1.04794134001488
asS'accel_x'
p10
F0
sS'accel_y'
p11
F0
sS'maxAccel'
p12
I2
sS'maxVel'
p13
F0.5
sS'age'
p14
I0
sS'gener'
p15
S'm'
sS'lastScale'
p16
F5.5
sS'energy'
p17
F0.5
sb.(i__main__
Data_mobile
p1
(dp2
S'vel_y'
p3
I0
sS'vel_x'
p4
I0
sS'pos_x'
p5
I-9579
sS'pos_y'
p6
I9779
sS'isAlive'
p7
I00
sS'geno'
p8
(lp9
F1.8716537476042832
aF3.1906151742347939
aF-0.23655666206753134
aF4.4390083002595837
aF-0.38856669184813908
aF-1.0659026377598124
asS'accel_x'
p10
F0
sS'accel_y'
p11
F0
sS'maxAccel'
p12
I2
sS'maxVel'
p13
F0.5
sS'age'
p14
I0
sS'gener'
p15
S'm'
sS'lastScale'
p16
F5.5
sS'energy'
p17
F0.5
sb.(i__main__
Data_mobile
p1
(dp2
S'vel_y'
p3
I0
sS'vel_x'
p4
I0
sS'pos_x'
p5
I-9579
sS'pos_y'
p6
I9779
sS'isAlive'
p7
I00
sS'geno'
p8
(lp9
F1.4788969826633194
aF4.1393962552235397
aF-0.5234173061943812
aF4.0757753881558507
aF0.37804974983873818
aF-1.3838410512423782
asS'accel_x'
p10
F0
sS'accel_y'
p11
F0
sS'maxAccel'
p12
I2
sS'maxVel'
p13
F0.5
sS'age'
p14
I0
sS'gener'
p15
S'm'
sS'lastScale'
p16
F5.5
sS'energy'
p17
F0.5
sb.(i__main__
Data_mobile
p1
(dp2
S'vel_y'
p3
I0
sS'vel_x'
p4
I0
sS'pos_x'
p5
I-9579
sS'pos_y'
p6
I9779
sS'isAlive'
p7
I00
sS'geno'
p8
(lp9
F0.67171678888848241
aF3.0114394681629806
aF-0.23364832968482974
aF4.0757753881558507
aF-0.020310445188299386
aF-0.72083880362673813
asS'accel_x'
p10
F0
sS'accel_y'
p11
F0
sS'maxAccel'
p12
I2
sS'maxVel'
p13
F0.5
sS'age'
p14
I0
sS'gener'
p15
S'm'
sS'lastScale'
p16
F5.5
sS'energy'
p17
F0.5
sb.(i__main__
Data_mobile
p1
(dp2
S'vel_y'
p3
I0
sS'vel_x'
p4
I0
sS'pos_x'
p5
I-9579
sS'pos_y'
p6
I9779
sS'isAlive'
p7
I00
sS'geno'
p8
(lp9
F1.3928993223965178
aF4.1393962552235397
aF-0.68008571052891387
aF4.0757753881558507
aF0.37804974983873818
aF-1.0659026377598124
asS'accel_x'
p10
F0
sS'accel_y'
p11
F0
sS'maxAccel'
p12
I2
sS'maxVel'
p13
F0.5
sS'age'
p14
I0
sS'gener'
p15
S'm'
sS'lastScale'
p16
F5.5
sS'energy'
p17
F0.5
sb.(i__main__
Data_mobile
p1
(dp2
S'vel_y'
p3
I0
sS'vel_x'
p4
I0
sS'pos_x'
p5
I-9579
sS'pos_y'
p6
I9779
sS'isAlive'
p7
I00
sS'geno'
p8
(lp9
F1.4788969826633194
aF3.233947867241433
aF-0.68008571052891387
aF4.2210200579502244
aF-0.70602761288340321
aF-1.0659026377598124
asS'accel_x'
p10
F0
sS'accel_y'
p11
F0
sS'maxAccel'
p12
I2
sS'maxVel'
p13
F0.5
sS'age'
p14
I0
sS'gener'
p15
S'm'
sS'lastScale'
p16
F5.5
sS'energy'
p17
F0.5
sb.(i__main__
Data_mobile
p1
(dp2
S'vel_y'
p3
I0
sS'vel_x'
p4
I0
sS'pos_x'
p5
I-9579
sS'pos_y'
p6
I9779
sS'isAlive'
p7
I00
sS'geno'
p8
(lp9
F1.2310560770531624
aF3.233947867241433
aF-0.23364832968482974
aF4.0757753881558507
aF-0.020310445188299386
aF-0.72083880362673813
asS'accel_x'
p10
F0
sS'accel_y'
p11
F0
sS'maxAccel'
p12
I2
sS'maxVel'
p13
F0.5
sS'age'
p14
I0
sS'gener'
p15
S'm'
sS'lastScale'
p16
F5.5
sS'energy'
p17
F0.5
sb.(i__main__
Data_mobile
p1
(dp2
S'vel_y'
p3
I0
sS'vel_x'
p4
I0
sS'pos_x'
p5
I-9579
sS'pos_y'
p6
I9779
sS'isAlive'
p7
I00
sS'geno'
p8
(lp9
F1.4213481546577498
aF4.1393962552235397
aF-0.32174967798933007
aF4.0757753881558507
aF-0.38856669184813908
aF-1.0785349996546074
asS'accel_x'
p10
F0
sS'accel_y'
p11
F0
sS'maxAccel'
p12
I2
sS'maxVel'
p13
F0.5
sS'age'
p14
I0
sS'gener'
p15
S'm'
sS'lastScale'
p16
F5.5
sS'energy'
p17
F0.5
sb.(i__main__
Data_mobile
p1
(dp2
S'vel_y'
p3
I0
sS'vel_x'
p4
I0
sS'pos_x'
p5
I-9579
sS'pos_y'
p6
I9779
sS'isAlive'
p7
I00
sS'geno'
p8
(lp9
F1.2310560770531624
aF3.233947867241433
aF-0.32174967798933007
aF4.0757753881558507
aF0.14512622284543397
aF-0.63785499925596367
asS'accel_x'
p10
F0
sS'accel_y'
p11
F0
sS'maxAccel'
p12
I2
sS'maxVel'
p13
F0.5
sS'age'
p14
I0
sS'gener'
p15
S'm'
sS'lastScale'
p16
F5.5
sS'energy'
p17
F0.5
sb.(i__main__
Data_mobile
p1
(dp2
S'vel_y'
p3
I0
sS'vel_x'
p4
I0
sS'pos_x'
p5
I-9579
sS'pos_y'
p6
I9779
sS'isAlive'
p7
I00
sS'geno'
p8
(lp9
F1.3928993223965178
aF3.0114394681629806
aF-0.70647709766554123
aF4.0757753881558507
aF0.37804974983873818
aF-1.0659026377598124
asS'accel_x'
p10
F0
sS'accel_y'
p11
F0
sS'maxAccel'
p12
I2
sS'maxVel'
p13
F0.5
sS'age'
p14
I0
sS'gener'
p15
S'm'
sS'lastScale'
p16
F5.5
sS'energy'
p17
F0.5
sb.(i__main__
Data_mobile
p1
(dp2
S'vel_y'
p3
I0
sS'vel_x'
p4
I0
sS'pos_x'
p5
I-9579
sS'pos_y'
p6
I9779
sS'isAlive'
p7
I00
sS'geno'
p8
(lp9
F1.4788969826633194
aF3.2558424540878583
aF0.033322090767515244
aF4.0757753881558507
aF0.14512622284543397
aF-1.0659026377598124
asS'accel_x'
p10
F0
sS'accel_y'
p11
F0
sS'maxAccel'
p12
I2
sS'maxVel'
p13
F0.5
sS'age'
p14
I0
sS'gener'
p15
S'm'
sS'lastScale'
p16
F5.5
sS'energy'
p17
F0.5
sb.(i__main__
Data_mobile
p1
(dp2
S'vel_y'
p3
I0
sS'vel_x'
p4
I0
sS'pos_x'
p5
I-9579
sS'pos_y'
p6
I9779
sS'isAlive'
p7
I00
sS'geno'
p8
(lp9
F1.8716537476042832
aF3.1906151742347939
aF-0.94421444760431483
aF4.0757753881558507
aF0.36345448478166298
aF-1.0659026377598124
asS'accel_x'
p10
F0
sS'accel_y'
p11
F0
sS'maxAccel'
p12
I2
sS'maxVel'
p13
F0.5
sS'age'
p14
I0
sS'gener'
p15
S'm'
sS'lastScale'
p16
F5.5
sS'energy'
p17
F0.5
sb.(i__main__
Data_mobile
p1
(dp2
S'vel_y'
p3
I0
sS'vel_x'
p4
I0
sS'pos_x'
p5
I-9579
sS'pos_y'
p6
I9779
sS'isAlive'
p7
I00
sS'geno'
p8
(lp9
F1.8716537476042832
aF3.1906151742347939
aF-0.94421444760431483
aF4.0757753881558507
aF0.36345448478166298
aF-0.72083880362673813
asS'accel_x'
p10
F0
sS'accel_y'
p11
F0
sS'maxAccel'
p12
I2
sS'maxVel'
p13
F0.5
sS'age'
p14
I0
sS'gener'
p15
S'm'
sS'lastScale'
p16
F5.5
sS'energy'
p17
F0.5
sb.(i__main__
Data_mobile
p1
(dp2
S'vel_y'
p3
I0
sS'vel_x'
p4
I0
sS'pos_x'
p5
I-9579
sS'pos_y'
p6
I9779
sS'isAlive'
p7
I00
sS'geno'
p8
(lp9
F1.2310560770531624
aF3.233947867241433
aF-0.23364832968482974
aF4.0757753881558507
aF-0.020310445188299386
aF-1.0659026377598124
asS'accel_x'
p10
F0
sS'accel_y'
p11
F0
sS'maxAccel'
p12
I2
sS'maxVel'
p13
F0.5
sS'age'
p14
I0
sS'gener'
p15
S'm'
sS'lastScale'
p16
F5.5
sS'energy'
p17
F0.5
sb.(i__main__
Data_mobile
p1
(dp2
S'vel_y'
p3
I0
sS'vel_x'
p4
I0
sS'pos_x'
p5
I-9579
sS'pos_y'
p6
I9779
sS'isAlive'
p7
I00
sS'geno'
p8
(lp9
F0.93862243255288458
aF3.1906151742347939
aF-0.68008571052891387
aF4.0757753881558507
aF-0.073482771532758284
aF-1.0659026377598124
asS'accel_x'
p10
F0
sS'accel_y'
p11
F0
sS'maxAccel'
p12
I2
sS'maxVel'
p13
F0.5
sS'age'
p14
I0
sS'gener'
p15
S'm'
sS'lastScale'
p16
F5.5
sS'energy'
p17
F0.5
sb.(i__main__
Data_mobile
p1
(dp2
S'vel_y'
p3
I0
sS'vel_x'
p4
I0
sS'pos_x'
p5
I-9579
sS'pos_y'
p6
I9779
sS'isAlive'
p7
I00
sS'geno'
p8
(lp9
F0.93862243255288458
aF3.0323510250531056
aF-0.49749150327266256
aF4.2580018541844362
aF0.36345448478166298
aF-0.73141270064475605
asS'accel_x'
p10
F0
sS'accel_y'
p11
F0
sS'maxAccel'
p12
I2
sS'maxVel'
p13
F0.5
sS'age'
p14
I0
sS'gener'
p15
S'm'
sS'lastScale'
p16
F5.5
sS'energy'
p17
F0.5
sb.(i__main__
Data_mobile
p1
(dp2
S'vel_y'
p3
I0
sS'vel_x'
p4
I0
sS'pos_x'
p5
I-9579
sS'pos_y'
p6
I9779
sS'isAlive'
p7
I00
sS'geno'
p8
(lp9
F1.3928993223965178
aF3.1906151742347939
aF-0.23364832968482974
aF4.3595286636047277
aF0.36345448478166298
aF-1.0785349996546074
asS'accel_x'
p10
F0
sS'accel_y'
p11
F0
sS'maxAccel'
p12
I2
sS'maxVel'
p13
F0.5
sS'age'
p14
I0
sS'gener'
p15
S'm'
sS'lastScale'
p16
F5.5
sS'energy'
p17
F0.5
sb.(i__main__
Data_mobile
p1
(dp2
S'vel_y'
p3
I0
sS'vel_x'
p4
I0
sS'pos_x'
p5
I-9579
sS'pos_y'
p6
I9779
sS'isAlive'
p7
I00
sS'geno'
p8
(lp9
F1.3928993223965178
aF4.1393962552235397
aF-0.78057343253256972
aF4.0757753881558507
aF-0.19992159591778591
aF-1.0659026377598124
asS'accel_x'
p10
F0
sS'accel_y'
p11
F0
sS'maxAccel'
p12
I2
sS'maxVel'
p13
F0.5
sS'age'
p14
I0
sS'gener'
p15
S'm'
sS'lastScale'
p16
F5.5
sS'energy'
p17
F0.5
sb.(i__main__
Data_mobile
p1
(dp2
S'vel_y'
p3
I0
sS'vel_x'
p4
I0
sS'pos_x'
p5
I-9579
sS'pos_y'
p6
I9779
sS'isAlive'
p7
I00
sS'geno'
p8
(lp9
F0.93862243255288458
aF3.0041871967343106
aF-0.68008571052891387
aF4.018032981488914
aF-0.38856669184813908
aF-1.3485686684917089
asS'accel_x'
p10
F0
sS'accel_y'
p11
F0
sS'maxAccel'
p12
I2
sS'maxVel'
p13
F0.5
sS'age'
p14
I0
sS'gener'
p15
S'm'
sS'lastScale'
p16
F5.5
sS'energy'
p17
F0.5
sb.(i__main__
Data_mobile
p1
(dp2
S'vel_y'
p3
I0
sS'vel_x'
p4
I0
sS'pos_x'
p5
I-9579
sS'pos_y'
p6
I9779
sS'isAlive'
p7
I00
sS'geno'
p8
(lp9
F1.2310560770531624
aF3.233947867241433
aF-0.32174967798933007
aF4.3595286636047277
aF0.34600633187317609
aF-1.0659026377598124
asS'accel_x'
p10
F0
sS'accel_y'
p11
F0
sS'maxAccel'
p12
I2
sS'maxVel'
p13
F0.5
sS'age'
p14
I0
sS'gener'
p15
S'm'
sS'lastScale'
p16
F5.5
sS'energy'
p17
F0.5
sb.(i__main__
Data_mobile
p1
(dp2
S'vel_y'
p3
I0
sS'vel_x'
p4
I0
sS'pos_x'
p5
I-9579
sS'pos_y'
p6
I9779
sS'isAlive'
p7
I00
sS'geno'
p8
(lp9
F1.3928993223965178
aF3.4717089217304102
aF-0.23364832968482974
aF4.0757753881558507
aF0.28791745361031706
aF-1.3133347054667008
asS'accel_x'
p10
F0
sS'accel_y'
p11
F0
sS'maxAccel'
p12
I2
sS'maxVel'
p13
F0.5
sS'age'
p14
I0
sS'gener'
p15
S'm'
sS'lastScale'
p16
F5.5
sS'energy'
p17
F0.5
sb.(i__main__
Data_mobile
p1
(dp2
S'vel_y'
p3
I0
sS'vel_x'
p4
I0
sS'pos_x'
p5
I-9579
sS'pos_y'
p6
I9779
sS'isAlive'
p7
I00
sS'geno'
p8
(lp9
F1.3928993223965178
aF4.116339942105081
aF-0.23364832968482974
aF4.0144287003042161
aF-0.63405868341422356
aF-1.0659026377598124
asS'accel_x'
p10
F0
sS'accel_y'
p11
F0
sS'maxAccel'
p12
I2
sS'maxVel'
p13
F0.5
sS'age'
p14
I0
sS'gener'
p15
S'm'
sS'lastScale'
p16
F5.5
sS'energy'
p17
F0.5
sb.(i__main__
Data_mobile
p1
(dp2
S'vel_y'
p3
I0
sS'vel_x'
p4
I0
sS'pos_x'
p5
I-9579
sS'pos_y'
p6
I9779
sS'isAlive'
p7
I00
sS'geno'
p8
(lp9
F0.93862243255288458
aF3.1906151742347939
aF-0.5209025271723523
aF4.0757753881558507
aF0.36345448478166298
aF-0.89418676161724331
asS'accel_x'
p10
F0
sS'accel_y'
p11
F0
sS'maxAccel'
p12
I2
sS'maxVel'
p13
F0.5
sS'age'
p14
I0
sS'gener'
p15
S'm'
sS'lastScale'
p16
F5.5
sS'energy'
p17
F0.5
sb.(i__main__
Data_mobile
p1
(dp2
S'vel_y'
p3
I0
sS'vel_x'
p4
I0
sS'pos_x'
p5
I-9579
sS'pos_y'
p6
I9779
sS'isAlive'
p7
I00
sS'geno'
p8
(lp9
F1.3928993223965178
aF3.0041871967343106
aF-0.70647709766554123
aF4.2580018541844362
aF0.36345448478166298
aF-1.0659026377598124
asS'accel_x'
p10
F0
sS'accel_y'
p11
F0
sS'maxAccel'
p12
I2
sS'maxVel'
p13
F0.5
sS'age'
p14
I0
sS'gener'
p15
S'm'
sS'lastScale'
p16
F5.5
sS'energy'
p17
F0.5
sb.(i__main__
Data_mobile
p1
(dp2
S'vel_y'
p3
I0
sS'vel_x'
p4
I0
sS'pos_x'
p5
I-9579
sS'pos_y'
p6
I9779
sS'isAlive'
p7
I00
sS'geno'
p8
(lp9
F0.93862243255288458
aF3.1906151742347939
aF-0.68008571052891387
aF4.0757753881558507
aF-0.073482771532758284
aF-0.83937329218768797
asS'accel_x'
p10
F0
sS'accel_y'
p11
F0
sS'maxAccel'
p12
I2
sS'maxVel'
p13
F0.5
sS'age'
p14
I0
sS'gener'
p15
S'm'
sS'lastScale'
p16
F5.5
sS'energy'
p17
F0.5
sb.(i__main__
Data_mobile
p1
(dp2
S'vel_y'
p3
I0
sS'vel_x'
p4
I0
sS'pos_x'
p5
I-9579
sS'pos_y'
p6
I9779
sS'isAlive'
p7
I00
sS'geno'
p8
(lp9
F1.3928993223965178
aF3.1906151742347939
aF-0.91158416300034051
aF4.0757753881558507
aF0.51837363844690698
aF-1.0659026377598124
asS'accel_x'
p10
F0
sS'accel_y'
p11
F0
sS'maxAccel'
p12
I2
sS'maxVel'
p13
F0.5
sS'age'
p14
I0
sS'gener'
p15
S'm'
sS'lastScale'
p16
F5.5
sS'energy'
p17
F0.5
sb.(i__main__
Data_mobile
p1
(dp2
S'vel_y'
p3
I0
sS'vel_x'
p4
I0
sS'pos_x'
p5
I-9579
sS'pos_y'
p6
I9779
sS'isAlive'
p7
I00
sS'geno'
p8
(lp9
F1.4788969826633194
aF4.1393962552235397
aF-0.78057343253256972
aF4.0757753881558507
aF0.088115801022773166
aF-1.0659026377598124
asS'accel_x'
p10
F0
sS'accel_y'
p11
F0
sS'maxAccel'
p12
I2
sS'maxVel'
p13
F0.5
sS'age'
p14
I0
sS'gener'
p15
S'm'
sS'lastScale'
p16
F5.5
sS'energy'
p17
F0.5
sb.(i__main__
Data_mobile
p1
(dp2
S'vel_y'
p3
I0
sS'vel_x'
p4
I0
sS'pos_x'
p5
I-9579
sS'pos_y'
p6
I9779
sS'isAlive'
p7
I00
sS'geno'
p8
(lp9
F0.93862243255288458
aF3.1906151742347939
aF-0.32174967798933007
aF4.0757753881558507
aF0.51837363844690698
aF-1.0659026377598124
asS'accel_x'
p10
F0
sS'accel_y'
p11
F0
sS'maxAccel'
p12
I2
sS'maxVel'
p13
F0.5
sS'age'
p14
I0
sS'gener'
p15
S'm'
sS'lastScale'
p16
F5.5
sS'energy'
p17
F0.5
sb.(i__main__
Data_mobile
p1
(dp2
S'vel_y'
p3
I0
sS'vel_x'
p4
I0
sS'pos_x'
p5
I-9579
sS'pos_y'
p6
I9779
sS'isAlive'
p7
I00
sS'geno'
p8
(lp9
F1.4788969826633194
aF4.1393962552235397
aF-0.23655666206753134
aF4.0757753881558507
aF-0.38856669184813908
aF-1.0659026377598124
asS'accel_x'
p10
F0
sS'accel_y'
p11
F0
sS'maxAccel'
p12
I2
sS'maxVel'
p13
F0.5
sS'age'
p14
I0
sS'gener'
p15
S'm'
sS'lastScale'
p16
F5.5
sS'energy'
p17
F0.5
sb.(i__main__
Data_mobile
p1
(dp2
S'vel_y'
p3
I0
sS'vel_x'
p4
I0
sS'pos_x'
p5
I-9579
sS'pos_y'
p6
I9779
sS'isAlive'
p7
I00
sS'geno'
p8
(lp9
F0.93862243255288458
aF3.1906151742347939
aF-0.68008571052891387
aF4.0757753881558507
aF-0.073482771532758284
aF-1.0659026377598124
asS'accel_x'
p10
F0
sS'accel_y'
p11
F0
sS'maxAccel'
p12
I2
sS'maxVel'
p13
F0.5
sS'age'
p14
I0
sS'gener'
p15
S'm'
sS'lastScale'
p16
F5.5
sS'energy'
p17
F0.5
sb.(i__main__
Data_mobile
p1
(dp2
S'vel_y'
p3
I0
sS'vel_x'
p4
I0
sS'pos_x'
p5
I-9579
sS'pos_y'
p6
I9779
sS'isAlive'
p7
I00
sS'geno'
p8
(lp9
F1.3928993223965178
aF3.0114394681629806
aF-0.23364832968482974
aF4.217398986384195
aF0.7645855242449664
aF-1.4684610749204496
asS'accel_x'
p10
F0
sS'accel_y'
p11
F0
sS'maxAccel'
p12
I2
sS'maxVel'
p13
F0.5
sS'age'
p14
I0
sS'gener'
p15
S'm'
sS'lastScale'
p16
F5.5
sS'energy'
p17
F0.5
sb.(i__main__
Data_mobile
p1
(dp2
S'vel_y'
p3
I0
sS'vel_x'
p4
I0
sS'pos_x'
p5
I-9579
sS'pos_y'
p6
I9779
sS'isAlive'
p7
I00
sS'geno'
p8
(lp9
F1.4788969826633194
aF4.1393962552235397
aF-0.68008571052891387
aF4.0757753881558507
aF0.37804974983873818
aF-1.0659026377598124
asS'accel_x'
p10
F0
sS'accel_y'
p11
F0
sS'maxAccel'
p12
I2
sS'maxVel'
p13
F0.5
sS'age'
p14
I0
sS'gener'
p15
S'm'
sS'lastScale'
p16
F5.5
sS'energy'
p17
F0.5
sb.(i__main__
Data_mobile
p1
(dp2
S'vel_y'
p3
I0
sS'vel_x'
p4
I0
sS'pos_x'
p5
I-9579
sS'pos_y'
p6
I9779
sS'isAlive'
p7
I00
sS'geno'
p8
(lp9
F1.3928993223965178
aF3.1906151742347939
aF-0.68008571052891387
aF4.2577951766373081
aF-0.38856669184813908
aF-1.0659026377598124
asS'accel_x'
p10
F0
sS'accel_y'
p11
F0
sS'maxAccel'
p12
I2
sS'maxVel'
p13
F0.5
sS'age'
p14
I0
sS'gener'
p15
S'm'
sS'lastScale'
p16
F5.5
sS'energy'
p17
F0.5
sb.(i__main__
Data_mobile
p1
(dp2
S'vel_y'
p3
I0
sS'vel_x'
p4
I0
sS'pos_x'
p5
I-9579
sS'pos_y'
p6
I9779
sS'isAlive'
p7
I00
sS'geno'
p8
(lp9
F0.93862243255288458
aF2.6724493901065522
aF-0.33146403422966553
aF4.2580018541844362
aF0.36345448478166298
aF-0.58569541748693899
asS'accel_x'
p10
F0
sS'accel_y'
p11
F0
sS'maxAccel'
p12
I2
sS'maxVel'
p13
F0.5
sS'age'
p14
I0
sS'gener'
p15
S'm'
sS'lastScale'
p16
F5.5
sS'energy'
p17
F0.5
sb.(i__main__
Data_mobile
p1
(dp2
S'vel_y'
p3
I0
sS'vel_x'
p4
I0
sS'pos_x'
p5
I-9579
sS'pos_y'
p6
I9779
sS'isAlive'
p7
I00
sS'geno'
p8
(lp9
F1.4788969826633194
aF4.1393962552235397
aF-0.94421444760431483
aF4.0757753881558507
aF0.32313465403367858
aF-0.89418676161724331
asS'accel_x'
p10
F0
sS'accel_y'
p11
F0
sS'maxAccel'
p12
I2
sS'maxVel'
p13
F0.5
sS'age'
p14
I0
sS'gener'
p15
S'm'
sS'lastScale'
p16
F5.5
sS'energy'
p17
F0.5
sb.