(i__main__
Data_mobile
p1
(dp2
S'vel_y'
p3
F0.038133418309911321
sS'vel_x'
p4
F-0.49504037492910608
sS'pos_x'
p5
F-150.00845123849342
sS'pos_y'
p6
F32.160311195702683
sS'isAlive'
p7
I01
sS'cumulativeEnergy'
p8
F49
sS'geno'
p9
(lp10
S'currentVelocity'
p11
aS'currentVelocity'
p12
a(lp13
S'flee'
p14
a(lp15
(lp16
(lp17
S'POINT.*'
p18
a(lp19
S'target'
p20
aaaa(lp21
S'POINT.+'
p22
aaaa(lp23
S'target'
p24
a(lp25
S'target'
p26
aaasS'accel_x'
p27
F0.42140999149125946
sS'accel_y'
p28
F-0.68554084820433303
sS'visionAngle'
p29
I150
sS'maxAccel'
p30
I2
sS'maxVel'
p31
F0.5
sS'age'
p32
I130
sS'tailSize'
p33
F1.9013219022065149
sS'sexualgeno'
p34
(i__main__
Node
p35
(dp36
S'depth'
p37
I1
sS'right'
p38
(i__main__
Node
p39
(dp40
g37
I2
sg38
NsS'parent'
p41
g35
sS'float_size'
p42
S'indiv.distanceMatingSeason()'
p43
sS'float_bright'
p44
g43
sS'left'
p45
Nsbsg41
Nsg42
S'/'
sg44
S'-'
sg45
(i__main__
Node
p46
(dp47
g37
I2
sg38
(i__main__
Node
p48
(dp49
g37
I3
sg38
(i__main__
Node
p50
(dp51
g37
I4
sg38
Nsg41
g48
sg42
S'indiv.getTailSize()'
p52
sg44
S'indiv.getTailBrightness()'
p53
sg45
Nsbsg41
g46
sg42
S'-'
sg44
S'*'
sg45
(i__main__
Node
p54
(dp55
g37
I4
sg38
Nsg41
g48
sg42
S'indiv.randF()'
p56
sg44
g53
sg45
Nsbsbsg41
g35
sg42
S'/'
sg44
S'*'
sg45
(i__main__
Node
p57
(dp58
g37
I3
sg38
(i__main__
Node
p59
(dp60
g37
I4
sg38
Nsg41
g57
sg42
g56
sg44
g53
sg45
Nsbsg41
g46
sg42
S'+'
sg44
S'-'
sg45
(i__main__
Node
p61
(dp62
g37
I4
sg38
Nsg41
g57
sg42
g52
sg44
g43
sg45
NsbsbsbsbsS'tailBrigh'
p63
F0
sS'maxSteering'
p64
I30
sS'energy'
p65
F1
sS'lastScale'
p66
F15.5
sb.(i__main__
Data_mobile
p1
(dp2
S'vel_y'
p3
F0.47339741273843428
sS'vel_x'
p4
F0.15255471207908874
sS'pos_x'
p5
F31.986001032283465
sS'pos_y'
p6
F-4.6777102973601083
sS'isAlive'
p7
I01
sS'cumulativeEnergy'
p8
F49
sS'geno'
p9
(lp10
(lp11
S'currentVelocity'
p12
a(lp13
S'flee'
p14
aS'POINT.+'
p15
aa(lp16
(lp17
(lp18
S'POINT./'
p19
aaS'currentVelocity'
p20
aS'flee'
p21
aS'alignment'
p22
a(lp23
S'POINT.+'
p24
aS'currentVelocity'
p25
a(lp26
S'target'
p27
aa(lp28
(lp29
S'alignment'
p30
aa(lp31
S'target'
p32
aaaaS'POINT.+'
p33
aa(lp34
S'currentVelocity'
p35
aS'currentVelocity'
p36
a(lp37
S'flee'
p38
aS'flee'
p39
aa(lp40
S'target'
p41
a(lp42
S'target'
p43
aaaa(lp44
S'target'
p45
aa(lp46
(lp47
S'target'
p48
aaaS'currentVelocity'
p49
aaS'target'
p50
aaS'POINT.+'
p51
aS'cohesion'
p52
a(lp53
S'target'
p54
aa(lp55
(lp56
S'POINT.+'
p57
aaS'alignment'
p58
aasS'accel_x'
p59
F0.39100364626566275
sS'accel_y'
p60
F-0.55907823502714304
sS'visionAngle'
p61
I150
sS'maxAccel'
p62
I2
sS'maxVel'
p63
F0.5
sS'age'
p64
I100
sS'tailSize'
p65
F0.25901799141973153
sS'sexualgeno'
p66
(i__main__
Node
p67
(dp68
S'depth'
p69
I1
sS'right'
p70
(i__main__
Node
p71
(dp72
g69
I2
sg70
NsS'parent'
p73
g67
sS'float_size'
p74
S'indiv.randF()'
p75
sS'float_bright'
p76
S'indiv.getTailSize()'
p77
sS'left'
p78
Nsbsg73
Nsg74
S'/'
sg76
S'-'
sg78
(i__main__
Node
p79
(dp80
g69
I2
sg70
Nsg73
g67
sg74
S'indiv.getEnergy()'
p81
sg76
g77
sg78
NsbsbsS'tailBrigh'
p82
F0
sS'maxSteering'
p83
I30
sS'energy'
p84
F0.84999999999999987
sS'lastScale'
p85
F15.5
sb.(i__main__
Data_mobile
p1
(dp2
S'vel_y'
p3
F0.49805471150679193
sS'vel_x'
p4
F0.016464849093096114
sS'pos_x'
p5
F99.6642129085607
sS'pos_y'
p6
F34.308950559437051
sS'isAlive'
p7
I01
sS'cumulativeEnergy'
p8
F49
sS'geno'
p9
(lp10
(lp11
S'currentVelocity'
p12
a(lp13
S'flee'
p14
aS'flee'
p15
aa(lp16
(lp17
(lp18
S'POINT./'
p19
aaS'currentVelocity'
p20
aS'flee'
p21
aS'target'
p22
a(lp23
S'POINT.+'
p24
aS'currentVelocity'
p25
a(lp26
S'target'
p27
aa(lp28
(lp29
S'alignment'
p30
aa(lp31
S'POINT.+'
p32
aaaaS'alignment'
p33
aa(lp34
S'currentVelocity'
p35
aS'currentVelocity'
p36
a(lp37
S'flee'
p38
aS'flee'
p39
aaS'POINT.+'
p40
aa(lp41
S'target'
p42
aa(lp43
S'flee'
p44
aaS'currentVelocity'
p45
aa(lp46
S'cohesion'
p47
aaaS'POINT./'
p48
aS'cohesion'
p49
a(lp50
S'target'
p51
aaS'currentVelocity'
p52
asS'accel_x'
p53
F0.63598458050662998
sS'accel_y'
p54
F-0.49532280104486404
sS'visionAngle'
p55
I150
sS'maxAccel'
p56
I2
sS'maxVel'
p57
F0.5
sS'age'
p58
I130
sS'tailSize'
p59
F0
sS'sexualgeno'
p60
(i__main__
Node
p61
(dp62
S'depth'
p63
I1
sS'right'
p64
(i__main__
Node
p65
(dp66
g63
I2
sg64
(i__main__
Node
p67
(dp68
g63
I3
sg64
(i__main__
Node
p69
(dp70
g63
I4
sg64
NsS'parent'
p71
g67
sS'float_size'
p72
S'indiv.randF()'
p73
sS'float_bright'
p74
S'indiv.getTailBrightness()'
p75
sS'left'
p76
Nsbsg71
g65
sg72
S'+'
sg74
S'-'
sg76
(i__main__
Node
p77
(dp78
g63
I4
sg64
Nsg71
g67
sg72
S'indiv.getTailSize()'
p79
sg74
S'indiv.distanceMatingSeason()'
p80
sg76
Nsbsbsg71
g61
sg72
S'+'
sg74
S'/'
sg76
(i__main__
Node
p81
(dp82
g63
I3
sg64
(i__main__
Node
p83
(dp84
g63
I4
sg64
Nsg71
g81
sg72
g80
sg74
g80
sg76
Nsbsg71
g65
sg72
S'*'
sg74
S'/'
sg76
(i__main__
Node
p85
(dp86
g63
I4
sg64
Nsg71
g81
sg72
g80
sg74
g73
sg76
Nsbsbsbsg71
Nsg72
S'/'
sg74
S'-'
sg76
(i__main__
Node
p87
(dp88
g63
I2
sg64
(i__main__
Node
p89
(dp90
g63
I3
sg64
Nsg71
g87
sg72
S'indiv.getNumPredatorsNeigh()'
p91
sg74
S'indiv.getEnergy()'
p92
sg76
Nsbsg71
g61
sg72
S'*'
sg74
S'-'
sg76
(i__main__
Node
p93
(dp94
g63
I3
sg64
Nsg71
g87
sg72
g75
sg74
g91
sg76
NsbsbsbsS'tailBrigh'
p95
F0
sS'maxSteering'
p96
I30
sS'energy'
p97
F1
sS'lastScale'
p98
F15.5
sb.(i__main__
Data_mobile
p1
(dp2
S'vel_y'
p3
F-0.24799120592044469
sS'vel_x'
p4
F0.43223830082015613
sS'pos_x'
p5
F-198.02267227220275
sS'pos_y'
p6
F-34.201929361157397
sS'isAlive'
p7
I01
sS'cumulativeEnergy'
p8
F49
sS'geno'
p9
(lp10
(lp11
S'currentVelocity'
p12
a(lp13
S'flee'
p14
aS'flee'
p15
aa(lp16
(lp17
(lp18
S'POINT./'
p19
aaS'currentVelocity'
p20
aS'flee'
p21
aS'target'
p22
a(lp23
S'POINT.+'
p24
aS'currentVelocity'
p25
a(lp26
S'target'
p27
aa(lp28
(lp29
S'alignment'
p30
aa(lp31
S'POINT.+'
p32
aaaaS'alignment'
p33
aa(lp34
S'currentVelocity'
p35
aS'currentVelocity'
p36
a(lp37
S'flee'
p38
aS'flee'
p39
aaS'POINT.+'
p40
aa(lp41
S'target'
p42
aa(lp43
S'flee'
p44
aaS'cohesion'
p45
aa(lp46
S'cohesion'
p47
aaaS'POINT./'
p48
aS'cohesion'
p49
a(lp50
S'target'
p51
aaS'currentVelocity'
p52
asS'accel_x'
p53
F-0.73563960938747641
sS'accel_y'
p54
F-0.32962922955539398
sS'visionAngle'
p55
I150
sS'maxAccel'
p56
I2
sS'maxVel'
p57
F0.5
sS'age'
p58
I130
sS'tailSize'
p59
F0
sS'sexualgeno'
p60
(i__main__
Node
p61
(dp62
S'depth'
p63
I1
sS'right'
p64
(i__main__
Node
p65
(dp66
g64
(i__main__
Node
p67
(dp68
g64
(i__main__
Node
p69
(dp70
g64
NsS'parent'
p71
g67
sg63
I4
sS'float_size'
p72
S'indiv.randF()'
p73
sS'float_bright'
p74
S'indiv.getTailBrightness()'
p75
sS'left'
p76
Nsbsg71
g65
sg63
I3
sg72
S'+'
sg74
S'-'
sg76
(i__main__
Node
p77
(dp78
g64
Nsg71
g67
sg63
I4
sg72
S'indiv.getTailSize()'
p79
sg74
S'indiv.distanceMatingSeason()'
p80
sg76
Nsbsbsg71
g61
sg63
I2
sg72
S'+'
sg74
S'/'
sg76
(i__main__
Node
p81
(dp82
g64
(i__main__
Node
p83
(dp84
g64
Nsg71
g81
sg63
I4
sg72
g80
sg74
g80
sg76
Nsbsg71
g65
sg63
I3
sg72
S'*'
sg74
S'/'
sg76
(i__main__
Node
p85
(dp86
g64
Nsg71
g81
sg63
I4
sg72
g80
sg74
g73
sg76
Nsbsbsbsg71
Nsg72
S'/'
sg74
S'-'
sg76
(i__main__
Node
p87
(dp88
g63
I2
sg64
(i__main__
Node
p89
(dp90
g63
I3
sg64
Nsg71
g87
sg72
S'indiv.getNumPredatorsNeigh()'
p91
sg74
S'indiv.getEnergy()'
p92
sg76
Nsbsg71
g61
sg72
S'*'
sg74
S'-'
sg76
(i__main__
Node
p93
(dp94
g63
I3
sg64
Nsg71
g87
sg72
g75
sg74
g91
sg76
NsbsbsbsS'tailBrigh'
p95
F0
sS'maxSteering'
p96
I30
sS'energy'
p97
F1
sS'lastScale'
p98
F15.5
sb.(i__main__
Data_mobile
p1
(dp2
S'vel_y'
p3
F0.25292072532999993
sS'vel_x'
p4
F-0.42937244160322974
sS'pos_x'
p5
F-160.39313788165828
sS'pos_y'
p6
F-97.87754093643521
sS'isAlive'
p7
I01
sS'cumulativeEnergy'
p8
F49
sS'geno'
p9
(lp10
(lp11
S'currentVelocity'
p12
a(lp13
S'flee'
p14
aS'flee'
p15
aa(lp16
(lp17
(lp18
(lp19
S'POINT./'
p20
a(lp21
S'currentEnergy'
p22
aaS'POINT.+'
p23
a(lp24
S'separation'
p25
aS'alignment'
p26
aaaS'POINT.+'
p27
aa(lp28
S'currentEnergy'
p29
aa(lp30
S'target'
p31
aaS'alignment'
p32
a(lp33
S'target'
p34
aS'POINT.+'
p35
aaS'POINT./'
p36
aa(lp37
S'currentVelocity'
p38
aS'currentVelocity'
p39
a(lp40
S'flee'
p41
aS'flee'
p42
aa(lp43
S'target'
p44
a(lp45
S'separation'
p46
aaaa(lp47
S'flee'
p48
aa(lp49
S'flee'
p50
aaS'cohesion'
p51
aaS'target'
p52
aaS'POINT./'
p53
aS'cohesion'
p54
aS'currentVelocity'
p55
a(lp56
(lp57
S'cohesion'
p58
aaS'alignment'
p59
aasS'accel_x'
p60
F0.73936313260563225
sS'accel_y'
p61
F0.32119032055889818
sS'visionAngle'
p62
I150
sS'maxAccel'
p63
I2
sS'maxVel'
p64
F0.5
sS'age'
p65
I130
sS'tailSize'
p66
F0
sS'sexualgeno'
p67
(i__main__
Node
p68
(dp69
S'depth'
p70
I1
sS'right'
p71
(i__main__
Node
p72
(dp73
g71
(i__main__
Node
p74
(dp75
g71
(i__main__
Node
p76
(dp77
g71
NsS'parent'
p78
g74
sg70
I4
sS'float_size'
p79
S'indiv.getTailBrightness()'
p80
sS'float_bright'
p81
S'indiv.getNumPredatorsNeigh()'
p82
sS'left'
p83
Nsbsg78
g72
sg70
I3
sg79
S'-'
sg81
S'/'
sg83
(i__main__
Node
p84
(dp85
g71
Nsg78
g74
sg70
I4
sg79
S'indiv.distanceMatingSeason()'
p86
sg81
g80
sg83
Nsbsbsg78
g68
sg70
I2
sg79
S'+'
sg81
S'-'
sg83
(i__main__
Node
p87
(dp88
g71
(i__main__
Node
p89
(dp90
g71
Nsg78
g87
sg70
I4
sg79
g86
sg81
S'indiv.randF()'
p91
sg83
Nsbsg78
g72
sg70
I3
sg79
S'+'
sg81
S'+'
sg83
(i__main__
Node
p92
(dp93
g71
Nsg78
g87
sg70
I4
sg79
g86
sg81
g91
sg83
Nsbsbsbsg78
Nsg79
S'/'
sg81
S'-'
sg83
(i__main__
Node
p94
(dp95
g70
I2
sg71
(i__main__
Node
p96
(dp97
g70
I3
sg71
Nsg78
g94
sg79
g82
sg81
S'indiv.getEnergy()'
p98
sg83
Nsbsg78
g68
sg79
S'*'
sg81
S'-'
sg83
(i__main__
Node
p99
(dp100
g70
I3
sg71
Nsg78
g94
sg79
g80
sg81
g82
sg83
NsbsbsbsS'tailBrigh'
p101
F0
sS'maxSteering'
p102
I30
sS'energy'
p103
F1
sS'lastScale'
p104
F15.5
sb.(i__main__
Data_mobile
p1
(dp2
S'vel_y'
p3
F-0.2759958558293521
sS'vel_x'
p4
F-0.41491670787616602
sS'pos_x'
p5
F-149.62062704236556
sS'pos_y'
p6
F30.669355511387831
sS'isAlive'
p7
I01
sS'cumulativeEnergy'
p8
F49
sS'geno'
p9
(lp10
(lp11
S'currentVelocity'
p12
a(lp13
S'flee'
p14
aS'POINT.+'
p15
aa(lp16
(lp17
(lp18
S'POINT./'
p19
aaS'currentVelocity'
p20
aS'flee'
p21
aS'alignment'
p22
a(lp23
S'POINT.+'
p24
aS'currentVelocity'
p25
a(lp26
S'target'
p27
aa(lp28
(lp29
S'alignment'
p30
aa(lp31
S'target'
p32
aaaaS'separation'
p33
aa(lp34
S'currentVelocity'
p35
aS'currentVelocity'
p36
a(lp37
S'flee'
p38
aS'flee'
p39
aa(lp40
S'target'
p41
a(lp42
S'target'
p43
aaaa(lp44
S'POINT.+'
p45
aa(lp46
(lp47
S'target'
p48
aaaS'cohesion'
p49
aaS'target'
p50
aaS'POINT.+'
p51
aS'cohesion'
p52
a(lp53
S'target'
p54
aa(lp55
(lp56
S'cohesion'
p57
aaS'alignment'
p58
aasS'accel_x'
p59
F0.033585795363393345
sS'accel_y'
p60
F0.80541483611051845
sS'visionAngle'
p61
I150
sS'maxAccel'
p62
I2
sS'maxVel'
p63
F0.5
sS'age'
p64
I300
sS'tailSize'
p65
F0
sS'sexualgeno'
p66
(i__main__
Node
p67
(dp68
S'depth'
p69
I1
sS'right'
p70
(i__main__
Node
p71
(dp72
g69
I2
sg70
NsS'parent'
p73
g67
sS'float_size'
p74
S'indiv.randF()'
p75
sS'float_bright'
p76
S'indiv.getTailSize()'
p77
sS'left'
p78
Nsbsg73
Nsg74
S'/'
sg76
S'-'
sg78
(i__main__
Node
p79
(dp80
g69
I2
sg70
(i__main__
Node
p81
(dp82
g69
I3
sg70
Nsg73
g79
sg74
S'indiv.getNumPredatorsNeigh()'
p83
sg76
S'indiv.getEnergy()'
p84
sg78
Nsbsg73
g67
sg74
S'*'
sg76
S'-'
sg78
(i__main__
Node
p85
(dp86
g69
I3
sg70
Nsg73
g79
sg74
S'indiv.getTailBrightness()'
p87
sg76
g83
sg78
NsbsbsbsS'tailBrigh'
p88
F0
sS'maxSteering'
p89
I30
sS'energy'
p90
F1
sS'lastScale'
p91
F15.5
sb.(i__main__
Data_mobile
p1
(dp2
S'vel_y'
p3
F-0.26508761425513216
sS'vel_x'
p4
F-0.42196791924465327
sS'pos_x'
p5
F32.335938509229486
sS'pos_y'
p6
F-6.015517682961482
sS'isAlive'
p7
I01
sS'cumulativeEnergy'
p8
F49
sS'geno'
p9
(lp10
(lp11
S'currentVelocity'
p12
a(lp13
S'alignment'
p14
aa(lp15
(lp16
(lp17
S'POINT./'
p18
aaS'currentVelocity'
p19
aS'flee'
p20
aS'alignment'
p21
a(lp22
S'POINT.+'
p23
aS'currentVelocity'
p24
a(lp25
S'target'
p26
aa(lp27
(lp28
S'alignment'
p29
aa(lp30
S'POINT.+'
p31
aaaaS'separation'
p32
aa(lp33
S'currentVelocity'
p34
aS'currentVelocity'
p35
a(lp36
S'flee'
p37
aS'flee'
p38
aa(lp39
S'target'
p40
a(lp41
S'target'
p42
aaaa(lp43
S'target'
p44
aa(lp45
(lp46
S'target'
p47
aaaS'cohesion'
p48
aaS'target'
p49
aaS'POINT.+'
p50
aS'cohesion'
p51
a(lp52
S'target'
p53
aa(lp54
(lp55
S'cohesion'
p56
aaS'alignment'
p57
aasS'accel_x'
p58
F0.041066169319641688
sS'accel_y'
p59
F0.77872915057423064
sS'visionAngle'
p60
I150
sS'maxAccel'
p61
I2
sS'maxVel'
p62
F0.5
sS'age'
p63
I130
sS'tailSize'
p64
F3.0280389192059509
sS'sexualgeno'
p65
(i__main__
Node
p66
(dp67
S'depth'
p68
I1
sS'right'
p69
(i__main__
Node
p70
(dp71
g69
NsS'parent'
p72
g66
sg68
I2
sS'float_size'
p73
S'indiv.getNumPreysNeigh()'
p74
sS'float_bright'
p75
S'indiv.getTailBrightness()'
p76
sS'left'
p77
Nsbsg72
Nsg73
S'/'
sg75
S'-'
sg77
(i__main__
Node
p78
(dp79
g68
I2
sg69
(i__main__
Node
p80
(dp81
g68
I3
sg69
Nsg72
g78
sg73
S'indiv.getNumPredatorsNeigh()'
p82
sg75
S'indiv.getEnergy()'
p83
sg77
Nsbsg72
g66
sg73
S'*'
sg75
S'-'
sg77
(i__main__
Node
p84
(dp85
g68
I3
sg69
Nsg72
g78
sg73
g76
sg75
g82
sg77
NsbsbsbsS'tailBrigh'
p86
F0.00097105665416474807
sS'maxSteering'
p87
I30
sS'energy'
p88
F0.84999999999999987
sS'lastScale'
p89
F15.5
sb.(i__main__
Data_mobile
p1
(dp2
S'vel_y'
p3
F-0.47757729719476466
sS'vel_x'
p4
F0.14230078044029021
sS'pos_x'
p5
F23.753890766667286
sS'pos_y'
p6
F42.975020806767724
sS'isAlive'
p7
I01
sS'cumulativeEnergy'
p8
F41.031538143830922
sS'geno'
p9
(lp10
S'target'
p11
aS'target'
p12
a(lp13
(lp14
S'randV'
p15
aa(lp16
S'randV'
p17
a(lp18
S'target'
p19
aS'separation'
p20
aS'POINT.*'
p21
a(lp22
S'currentVelocity'
p23
a(lp24
S'cohesion'
p25
aS'currentVelocity'
p26
aaaS'alignment'
p27
aa(lp28
S'currentVelocity'
p29
aaaS'target'
p30
aaS'target'
p31
asS'accel_x'
p32
F0.48948933112624715
sS'accel_y'
p33
F0.64048517437243646
sS'visionAngle'
p34
I150
sS'maxAccel'
p35
I2
sS'maxVel'
p36
F0.5
sS'age'
p37
I62
sS'tailSize'
p38
F0
sS'sexualgeno'
p39
(i__main__
Node
p40
(dp41
S'depth'
p42
I1
sS'right'
p43
(i__main__
Node
p44
(dp45
g42
I2
sg43
(i__main__
Node
p46
(dp47
g42
I3
sg43
NsS'parent'
p48
g44
sS'float_size'
p49
S'indiv.getTailSize()'
p50
sS'float_bright'
p51
S'indiv.getTailBrightness()'
p52
sS'left'
p53
Nsbsg48
g40
sg49
S'/'
sg51
S'*'
sg53
(i__main__
Node
p54
(dp55
g42
I3
sg43
Nsg48
g44
sg49
g52
sg51
S'indiv.getEnergy()'
p56
sg53
Nsbsbsg48
Nsg49
S'*'
sg51
S'-'
sg53
(i__main__
Node
p57
(dp58
g42
I2
sg43
(i__main__
Node
p59
(dp60
g42
I3
sg43
Nsg48
g57
sg49
S'indiv.randF()'
p61
sg51
g61
sg53
Nsbsg48
g40
sg49
S'/'
sg51
S'/'
sg53
(i__main__
Node
p62
(dp63
g42
I3
sg43
Nsg48
g57
sg49
g61
sg51
S'indiv.distanceMatingSeason()'
p64
sg53
NsbsbsbsS'tailBrigh'
p65
F1.407137449135156
sS'maxSteering'
p66
I30
sS'energy'
p67
F1
sS'lastScale'
p68
F15.5
sb.(i__main__
Data_mobile
p1
(dp2
S'vel_y'
p3
F0.47635027239710392
sS'vel_x'
p4
F0.14635574774151211
sS'pos_x'
p5
F-6.5826639138642316
sS'pos_y'
p6
F58.453399968012398
sS'isAlive'
p7
I01
sS'cumulativeEnergy'
p8
F38.810274815707999
sS'geno'
p9
(lp10
S'target'
p11
a(lp12
S'alignment'
p13
aa(lp14
(lp15
S'randV'
p16
aa(lp17
S'randV'
p18
a(lp19
S'target'
p20
aS'separation'
p21
aS'POINT.*'
p22
a(lp23
S'currentVelocity'
p24
a(lp25
S'cohesion'
p26
aS'currentVelocity'
p27
aaaS'alignment'
p28
aa(lp29
S'currentVelocity'
p30
aaaS'target'
p31
aaS'target'
p32
asS'accel_x'
p33
F-0.76247185692863351
sS'accel_y'
p34
F-0.26164428384560523
sS'visionAngle'
p35
I150
sS'maxAccel'
p36
I2
sS'maxVel'
p37
F0.5
sS'age'
p38
I62
sS'tailSize'
p39
F0
sS'sexualgeno'
p40
(i__main__
Node
p41
(dp42
S'right'
p43
(i__main__
Node
p44
(dp45
g43
(i__main__
Node
p46
(dp47
g43
NsS'parent'
p48
NsS'depth'
p49
I3
sS'float_size'
p50
S'indiv.getTailSize()'
p51
sS'float_bright'
p52
S'indiv.getTailBrightness()'
p53
sS'left'
p54
Nsbsg48
Nsg49
I2
sg50
S'/'
sg52
S'*'
sg54
(i__main__
Node
p55
(dp56
g43
Nsg48
Nsg49
I3
sg50
g53
sg52
S'indiv.getEnergy()'
p57
sg54
Nsbsbsg48
Nsg49
I1
sg50
S'*'
sg52
S'-'
sg54
(i__main__
Node
p58
(dp59
g43
(i__main__
Node
p60
(dp61
g43
Nsg48
Nsg49
I3
sg50
S'indiv.randF()'
p62
sg52
g62
sg54
Nsbsg48
Nsg49
I2
sg50
S'/'
sg52
S'/'
sg54
(i__main__
Node
p63
(dp64
g43
Nsg48
Nsg49
I3
sg50
g62
sg52
S'indiv.distanceMatingSeason()'
p65
sg54
NsbsbsbsS'tailBrigh'
p66
F0
sS'maxSteering'
p67
I30
sS'energy'
p68
F0.85736059871677694
sS'lastScale'
p69
F14.57360598716777
sb.(i__main__
Data_mobile
p1
(dp2
S'vel_y'
p3
F-0.49501397715880952
sS'vel_x'
p4
F-0.057365053187371465
sS'pos_x'
p5
F-135.79906042685775
sS'pos_y'
p6
F-68.124677871434415
sS'isAlive'
p7
I01
sS'cumulativeEnergy'
p8
F38.663595706453151
sS'geno'
p9
(lp10
(lp11
S'currentVelocity'
p12
a(lp13
S'flee'
p14
aS'POINT.+'
p15
aa(lp16
(lp17
(lp18
S'POINT./'
p19
aaS'currentVelocity'
p20
aS'flee'
p21
aS'alignment'
p22
a(lp23
S'POINT.+'
p24
aS'currentVelocity'
p25
a(lp26
S'POINT./'
p27
aa(lp28
(lp29
S'alignment'
p30
aa(lp31
S'target'
p32
aaaaS'separation'
p33
aa(lp34
S'currentVelocity'
p35
aS'currentVelocity'
p36
a(lp37
S'flee'
p38
aS'flee'
p39
aa(lp40
S'target'
p41
a(lp42
S'target'
p43
aaaa(lp44
S'target'
p45
aa(lp46
(lp47
S'target'
p48
aaaS'cohesion'
p49
aaS'target'
p50
aaS'POINT.+'
p51
aS'cohesion'
p52
a(lp53
S'target'
p54
aa(lp55
(lp56
S'cohesion'
p57
aaS'alignment'
p58
aasS'accel_x'
p59
F0.70223770157133458
sS'accel_y'
p60
F0.39583238165809576
sS'visionAngle'
p61
I150
sS'maxAccel'
p62
I2
sS'maxVel'
p63
F0.5
sS'age'
p64
I62
sS'tailSize'
p65
F0
sS'sexualgeno'
p66
(i__main__
Node
p67
(dp68
S'depth'
p69
I1
sS'right'
p70
(i__main__
Node
p71
(dp72
g69
I2
sg70
NsS'parent'
p73
g67
sS'float_size'
p74
S'indiv.randF()'
p75
sS'float_bright'
p76
S'indiv.getTailSize()'
p77
sS'left'
p78
Nsbsg73
Nsg74
S'/'
sg76
S'-'
sg78
(i__main__
Node
p79
(dp80
g70
(i__main__
Node
p81
(dp82
g70
Nsg73
g79
sg69
I3
sg74
S'indiv.getTailBrightness()'
p83
sg76
S'indiv.distanceMatingSeason()'
p84
sg78
Nsbsg73
g67
sg69
I2
sg74
S'/'
sg76
S'-'
sg78
(i__main__
Node
p85
(dp86
g70
Nsg73
g79
sg69
I3
sg74
g84
sg76
g83
sg78
NsbsbsbsS'tailBrigh'
p87
F0
sS'maxSteering'
p88
I30
sS'energy'
p89
F1
sS'lastScale'
p90
F15.5
sb.(i__main__
Data_mobile
p1
(dp2
S'vel_y'
p3
F0.077841662649093396
sS'vel_x'
p4
F0.49201424001843685
sS'pos_x'
p5
F100.8735698449499
sS'pos_y'
p6
F33.248213186625961
sS'isAlive'
p7
I01
sS'cumulativeEnergy'
p8
F38.4645549533424
sS'geno'
p9
(lp10
S'currentVelocity'
p11
aS'currentVelocity'
p12
a(lp13
S'flee'
p14
a(lp15
(lp16
(lp17
S'POINT.*'
p18
a(lp19
(lp20
S'POINT./'
p21
aa(lp22
(lp23
(lp24
(lp25
S'alignment'
p26
aa(lp27
S'POINT.+'
p28
aaaaaaaa(lp29
S'POINT.+'
p30
aaaa(lp31
S'target'
p32
a(lp33
S'target'
p34
aaasS'accel_x'
p35
F-0.57337235588256874
sS'accel_y'
p36
F0.565414571766226
sS'visionAngle'
p37
I150
sS'maxAccel'
p38
I2
sS'maxVel'
p39
F0.5
sS'age'
p40
I50
sS'tailSize'
p41
F1.9613727484555643
sS'sexualgeno'
p42
(i__main__
Node
p43
(dp44
S'depth'
p45
I1
sS'right'
p46
(i__main__
Node
p47
(dp48
g45
I2
sg46
NsS'parent'
p49
g43
sS'float_size'
p50
S'indiv.distanceMatingSeason()'
p51
sS'float_bright'
p52
g51
sS'left'
p53
Nsbsg49
Nsg50
S'/'
sg52
S'-'
sg53
(i__main__
Node
p54
(dp55
g45
I2
sg46
(i__main__
Node
p56
(dp57
g45
I3
sg46
(i__main__
Node
p58
(dp59
g45
I4
sg46
Nsg49
g56
sg50
S'indiv.getTailSize()'
p60
sg52
S'indiv.getTailBrightness()'
p61
sg53
Nsbsg49
g54
sg50
S'-'
sg52
S'*'
sg53
(i__main__
Node
p62
(dp63
g45
I4
sg46
Nsg49
g56
sg50
S'indiv.randF()'
p64
sg52
g61
sg53
Nsbsbsg49
g43
sg50
S'/'
sg52
S'*'
sg53
(i__main__
Node
p65
(dp66
g46
Nsg49
g54
sg45
I3
sg50
g64
sg52
S'indiv.getEnergy()'
p67
sg53
NsbsbsbsS'tailBrigh'
p68
F0
sS'maxSteering'
p69
I30
sS'energy'
p70
F1
sS'lastScale'
p71
F15.5
sb.(i__main__
Data_mobile
p1
(dp2
S'vel_y'
p3
F0.25184645744454282
sS'vel_x'
p4
F0.40763755478682984
sS'pos_x'
p5
F-104.74919483621287
sS'pos_y'
p6
F96.473439508263283
sS'isAlive'
p7
I01
sS'cumulativeEnergy'
p8
F37.147299182705481
sS'geno'
p9
(lp10
(lp11
S'currentVelocity'
p12
a(lp13
S'flee'
p14
aS'POINT.+'
p15
aa(lp16
(lp17
(lp18
S'POINT./'
p19
aaS'currentVelocity'
p20
aS'flee'
p21
aS'alignment'
p22
a(lp23
S'POINT.+'
p24
aS'currentVelocity'
p25
a(lp26
S'target'
p27
aa(lp28
(lp29
S'alignment'
p30
aa(lp31
S'target'
p32
aaaaS'POINT.+'
p33
aa(lp34
S'currentVelocity'
p35
aS'currentVelocity'
p36
a(lp37
S'flee'
p38
aS'flee'
p39
aa(lp40
S'target'
p41
a(lp42
S'target'
p43
aaaa(lp44
S'target'
p45
aa(lp46
(lp47
S'target'
p48
aaaS'cohesion'
p49
aaS'target'
p50
aaS'POINT.+'
p51
aS'cohesion'
p52
a(lp53
S'target'
p54
aa(lp55
(lp56
S'cohesion'
p57
aaS'alignment'
p58
aasS'accel_x'
p59
F0
sS'accel_y'
p60
F0
sS'visionAngle'
p61
I150
sS'maxAccel'
p62
I2
sS'maxVel'
p63
F0.5
sS'age'
p64
I100
sS'tailSize'
p65
F0.39920146714978477
sS'sexualgeno'
p66
(i__main__
Node
p67
(dp68
S'depth'
p69
I1
sS'right'
p70
(i__main__
Node
p71
(dp72
g69
I2
sg70
NsS'parent'
p73
g67
sS'float_size'
p74
S'indiv.randF()'
p75
sS'float_bright'
p76
S'indiv.getTailSize()'
p77
sS'left'
p78
Nsbsg73
Nsg74
S'/'
sg76
S'-'
sg78
(i__main__
Node
p79
(dp80
g69
I2
sg70
Nsg73
g67
sg74
S'indiv.getEnergy()'
p81
sg76
g77
sg78
NsbsbsS'tailBrigh'
p82
F0
sS'maxSteering'
p83
I30
sS'energy'
p84
F0.44842848513211558
sS'lastScale'
p85
F9.9842848513211564
sb.(i__main__
Data_mobile
p1
(dp2
S'vel_y'
p3
F0.48751053237672137
sS'vel_x'
p4
F0.10326213115919063
sS'pos_x'
p5
F-119.48226405206033
sS'pos_y'
p6
F107.02942436896012
sS'isAlive'
p7
I01
sS'cumulativeEnergy'
p8
F37.147299182705481
sS'geno'
p9
(lp10
(lp11
S'currentVelocity'
p12
a(lp13
S'flee'
p14
aS'flee'
p15
aa(lp16
(lp17
(lp18
S'POINT./'
p19
aaS'currentVelocity'
p20
aS'flee'
p21
aS'target'
p22
a(lp23
S'POINT.+'
p24
aS'currentVelocity'
p25
a(lp26
S'target'
p27
aa(lp28
(lp29
S'alignment'
p30
aa(lp31
S'POINT.+'
p32
aaaaS'alignment'
p33
aa(lp34
S'currentVelocity'
p35
aS'currentVelocity'
p36
a(lp37
S'flee'
p38
aS'flee'
p39
aaS'POINT.+'
p40
aa(lp41
S'target'
p42
aa(lp43
S'flee'
p44
aaS'cohesion'
p45
aa(lp46
S'cohesion'
p47
aaaS'POINT./'
p48
a(lp49
S'target'
p50
aa(lp51
S'target'
p52
aaS'currentVelocity'
p53
asS'accel_x'
p54
F0
sS'accel_y'
p55
F0
sS'visionAngle'
p56
I150
sS'maxAccel'
p57
I2
sS'maxVel'
p58
F0.5
sS'age'
p59
I100
sS'tailSize'
p60
F0
sS'sexualgeno'
p61
(i__main__
Node
p62
(dp63
S'depth'
p64
I1
sS'right'
p65
(i__main__
Node
p66
(dp67
g64
I2
sg65
(i__main__
Node
p68
(dp69
g64
I3
sg65
(i__main__
Node
p70
(dp71
g64
I4
sg65
NsS'parent'
p72
g68
sS'float_size'
p73
S'indiv.randF()'
p74
sS'float_bright'
p75
S'indiv.getTailBrightness()'
p76
sS'left'
p77
Nsbsg72
g66
sg73
S'+'
sg75
S'-'
sg77
(i__main__
Node
p78
(dp79
g64
I4
sg65
Nsg72
g68
sg73
S'indiv.getTailSize()'
p80
sg75
S'indiv.distanceMatingSeason()'
p81
sg77
Nsbsbsg72
g62
sg73
S'+'
sg75
S'/'
sg77
(i__main__
Node
p82
(dp83
g64
I3
sg65
(i__main__
Node
p84
(dp85
g64
I4
sg65
Nsg72
g82
sg73
g81
sg75
g81
sg77
Nsbsg72
g66
sg73
S'*'
sg75
S'/'
sg77
(i__main__
Node
p86
(dp87
g64
I4
sg65
Nsg72
g82
sg73
g81
sg75
g74
sg77
Nsbsbsbsg72
Nsg73
S'/'
sg75
S'-'
sg77
(i__main__
Node
p88
(dp89
g64
I2
sg65
(i__main__
Node
p90
(dp91
g64
I3
sg65
Nsg72
g88
sg73
S'indiv.getNumPredatorsNeigh()'
p92
sg75
S'indiv.getEnergy()'
p93
sg77
Nsbsg72
g62
sg73
S'*'
sg75
S'-'
sg77
(i__main__
Node
p94
(dp95
g64
I3
sg65
Nsg72
g88
sg73
g76
sg75
g92
sg77
NsbsbsbsS'tailBrigh'
p96
F0
sS'maxSteering'
p97
I30
sS'energy'
p98
F0.44842848513211558
sS'lastScale'
p99
F9.9842848513211564
sb.(i__main__
Data_mobile
p1
(dp2
S'vel_y'
p3
F-0.45848864944908435
sS'vel_x'
p4
F-0.19523766346718774
sS'pos_x'
p5
F-133.45923429874131
sS'pos_y'
p6
F62.733908406250677
sS'isAlive'
p7
I01
sS'cumulativeEnergy'
p8
F37.134160562407686
sS'geno'
p9
(lp10
(lp11
S'currentVelocity'
p12
a(lp13
S'flee'
p14
aS'flee'
p15
aa(lp16
(lp17
(lp18
S'POINT./'
p19
aaS'currentVelocity'
p20
aS'flee'
p21
aS'target'
p22
a(lp23
S'POINT.+'
p24
aS'currentVelocity'
p25
a(lp26
S'target'
p27
aa(lp28
(lp29
S'alignment'
p30
aa(lp31
S'POINT.+'
p32
aaaaS'alignment'
p33
aa(lp34
S'currentVelocity'
p35
aS'currentVelocity'
p36
a(lp37
S'flee'
p38
aS'flee'
p39
aaS'POINT.+'
p40
aa(lp41
S'target'
p42
aa(lp43
S'flee'
p44
aaS'cohesion'
p45
aa(lp46
S'cohesion'
p47
aaaS'POINT./'
p48
a(lp49
S'target'
p50
aa(lp51
S'target'
p52
aaS'currentVelocity'
p53
asS'accel_x'
p54
F0
sS'accel_y'
p55
F0
sS'visionAngle'
p56
I150
sS'maxAccel'
p57
I2
sS'maxVel'
p58
F0.5
sS'age'
p59
I100
sS'tailSize'
p60
I0
sS'sexualgeno'
p61
(i__main__
Node
p62
(dp63
S'depth'
p64
I1
sS'right'
p65
(i__main__
Node
p66
(dp67
g64
I2
sg65
(i__main__
Node
p68
(dp69
g64
I3
sg65
(i__main__
Node
p70
(dp71
g64
I4
sg65
NsS'parent'
p72
g68
sS'float_size'
p73
S'indiv.getNumPredatorsNeigh()'
p74
sS'float_bright'
p75
S'indiv.getEnergy()'
p76
sS'left'
p77
Nsbsg72
g66
sg73
S'*'
sg75
S'-'
sg77
(i__main__
Node
p78
(dp79
g64
I4
sg65
Nsg72
g68
sg73
S'indiv.getTailBrightness()'
p80
sg75
g74
sg77
Nsbsbsg72
g62
sg73
S'+'
sg75
S'/'
sg77
(i__main__
Node
p81
(dp82
g64
I3
sg65
Nsg72
g66
sg73
S'indiv.getTailSize()'
p83
sg75
g76
sg77
Nsbsbsg72
Nsg73
S'/'
sg75
S'-'
sg77
(i__main__
Node
p84
(dp85
g64
I2
sg65
(i__main__
Node
p86
(dp87
g64
I3
sg65
Nsg72
g84
sg73
g74
sg75
g76
sg77
Nsbsg72
g62
sg73
S'*'
sg75
S'-'
sg77
(i__main__
Node
p88
(dp89
g64
I3
sg65
Nsg72
g84
sg73
g80
sg75
g74
sg77
NsbsbsbsS'tailBrigh'
p90
F0.55251654521296989
sS'maxSteering'
p91
I30
sS'energy'
p92
F0.44748345478703017
sS'lastScale'
p93
F9.9748345478703015
sb.(i__main__
Data_mobile
p1
(dp2
S'vel_y'
p3
F-0.10417353627903264
sS'vel_x'
p4
F-0.22726168691427304
sS'pos_x'
p5
F32.240749671309899
sS'pos_y'
p6
F-5.9946476394552937
sS'isAlive'
p7
I01
sS'cumulativeEnergy'
p8
F36.910382170320304
sS'geno'
p9
(lp10
S'target'
p11
asS'accel_x'
p12
F0.13625500723922812
sS'accel_y'
p13
F0.75785910706804227
sS'visionAngle'
p14
I150
sS'maxAccel'
p15
I2
sS'maxVel'
p16
F0.5
sS'age'
p17
I50
sS'tailSize'
p18
F0
sS'sexualgeno'
p19
(i__main__
Node
p20
(dp21
S'depth'
p22
I1
sS'right'
p23
(i__main__
Node
p24
(dp25
g22
I2
sg23
NsS'parent'
p26
g20
sS'float_size'
p27
S'indiv.randF()'
p28
sS'float_bright'
p29
S'indiv.getTailSize()'
p30
sS'left'
p31
Nsbsg26
Nsg27
S'/'
sg29
S'-'
sg31
(i__main__
Node
p32
(dp33
g22
I2
sg23
(i__main__
Node
p34
(dp35
g22
I3
sg23
Nsg26
g32
sg27
S'indiv.getNumPredatorsNeigh()'
p36
sg29
S'indiv.getEnergy()'
p37
sg31
Nsbsg26
g20
sg27
S'*'
sg29
S'-'
sg31
(i__main__
Node
p38
(dp39
g22
I3
sg23
Nsg26
g32
sg27
S'indiv.getTailBrightness()'
p40
sg29
g36
sg31
NsbsbsbsS'tailBrigh'
p41
F0
sS'maxSteering'
p42
I30
sS'energy'
p43
F0.84999999999999987
sS'lastScale'
p44
F15.5
sb.(i__main__
Data_mobile
p1
(dp2
S'vel_y'
p3
F-0.49347919404652257
sS'vel_x'
p4
F-0.069338819956548559
sS'pos_x'
p5
F-134.51712167380603
sS'pos_y'
p6
F-68.288995249837171
sS'isAlive'
p7
I01
sS'cumulativeEnergy'
p8
F34.480918320152782
sS'geno'
p9
(lp10
(lp11
S'currentVelocity'
p12
a(lp13
S'flee'
p14
aS'flee'
p15
aa(lp16
(lp17
(lp18
(lp19
S'POINT./'
p20
a(lp21
S'currentEnergy'
p22
aaS'POINT.+'
p23
a(lp24
S'separation'
p25
aS'alignment'
p26
aaaS'POINT.+'
p27
aa(lp28
S'currentEnergy'
p29
aa(lp30
S'target'
p31
aaS'alignment'
p32
a(lp33
S'target'
p34
aS'POINT.+'
p35
aaS'POINT./'
p36
aa(lp37
S'currentVelocity'
p38
aS'currentVelocity'
p39
a(lp40
S'flee'
p41
aS'flee'
p42
aa(lp43
S'target'
p44
a(lp45
S'separation'
p46
aaaa(lp47
S'flee'
p48
aa(lp49
S'flee'
p50
aaS'cohesion'
p51
aaS'target'
p52
aaS'POINT./'
p53
aS'cohesion'
p54
aS'currentVelocity'
p55
a(lp56
(lp57
S'cohesion'
p58
aaS'alignment'
p59
aasS'accel_x'
p60
F-0.57970105148038442
sS'accel_y'
p61
F0.56014976006085249
sS'visionAngle'
p62
I150
sS'maxAccel'
p63
I2
sS'maxVel'
p64
F0.5
sS'age'
p65
I50
sS'tailSize'
p66
F0
sS'sexualgeno'
p67
(i__main__
Node
p68
(dp69
S'depth'
p70
I1
sS'right'
p71
(i__main__
Node
p72
(dp73
g70
I2
sg71
(i__main__
Node
p74
(dp75
g70
I3
sg71
(i__main__
Node
p76
(dp77
g70
I4
sg71
NsS'parent'
p78
g74
sS'float_size'
p79
S'indiv.getTailBrightness()'
p80
sS'float_bright'
p81
S'indiv.getNumPredatorsNeigh()'
p82
sS'left'
p83
Nsbsg78
g72
sg79
S'-'
sg81
S'/'
sg83
(i__main__
Node
p84
(dp85
g70
I4
sg71
Nsg78
g74
sg79
S'indiv.distanceMatingSeason()'
p86
sg81
g80
sg83
Nsbsbsg78
g68
sg79
S'+'
sg81
S'-'
sg83
(i__main__
Node
p87
(dp88
g70
I3
sg71
(i__main__
Node
p89
(dp90
g70
I4
sg71
(i__main__
Node
p91
(dp92
g70
I5
sg71
Nsg78
g89
sg79
g82
sg81
S'indiv.getEnergy()'
p93
sg83
Nsbsg78
g87
sg79
S'*'
sg81
S'-'
sg83
(i__main__
Node
p94
(dp95
g70
I5
sg71
Nsg78
g89
sg79
g80
sg81
g82
sg83
Nsbsbsg78
g72
sg79
S'-'
sg81
S'/'
sg83
(i__main__
Node
p96
(dp97
g70
I4
sg71
(i__main__
Node
p98
(dp99
g70
I5
sg71
Nsg78
g96
sg79
g82
sg81
g93
sg83
Nsbsg78
g87
sg79
S'*'
sg81
S'-'
sg83
(i__main__
Node
p100
(dp101
g70
I5
sg71
Nsg78
g96
sg79
g80
sg81
g82
sg83
Nsbsbsbsbsg78
Nsg79
S'/'
sg81
S'-'
sg83
(i__main__
Node
p102
(dp103
g70
I2
sg71
(i__main__
Node
p104
(dp105
g70
I3
sg71
Nsg78
g102
sg79
g82
sg81
g93
sg83
Nsbsg78
g68
sg79
S'*'
sg81
S'-'
sg83
(i__main__
Node
p106
(dp107
g70
I3
sg71
Nsg78
g102
sg79
g80
sg81
g82
sg83
NsbsbsbsS'tailBrigh'
p108
F0
sS'maxSteering'
p109
I30
sS'energy'
p110
F1
sS'lastScale'
p111
F15.5
sb.(i__main__
Data_mobile
p1
(dp2
S'vel_y'
p3
F0.066843404488746885
sS'vel_x'
p4
F-0.49382339574601569
sS'pos_x'
p5
F-13.96760555498161
sS'pos_y'
p6
F26.601269915472724
sS'isAlive'
p7
I01
sS'cumulativeEnergy'
p8
F34.480918320152782
sS'geno'
p9
(lp10
(lp11
S'currentVelocity'
p12
a(lp13
S'alignment'
p14
aa(lp15
(lp16
(lp17
S'POINT./'
p18
aaS'currentVelocity'
p19
aS'flee'
p20
aS'alignment'
p21
a(lp22
S'POINT.+'
p23
aS'currentVelocity'
p24
a(lp25
S'target'
p26
aa(lp27
(lp28
S'alignment'
p29
aa(lp30
S'POINT.+'
p31
aaaaS'separation'
p32
aa(lp33
S'currentVelocity'
p34
aS'currentVelocity'
p35
a(lp36
S'POINT.+'
p37
aS'flee'
p38
aa(lp39
S'target'
p40
a(lp41
S'target'
p42
aaaa(lp43
S'target'
p44
aa(lp45
(lp46
S'target'
p47
aaaS'cohesion'
p48
aaS'target'
p49
aaS'POINT.+'
p50
aS'cohesion'
p51
a(lp52
S'target'
p53
aa(lp54
(lp55
S'cohesion'
p56
aaS'alignment'
p57
aasS'accel_x'
p58
F0.38229850254204933
sS'accel_y'
p59
F-0.70969635601477066
sS'visionAngle'
p60
I150
sS'maxAccel'
p61
I2
sS'maxVel'
p62
F0.5
sS'age'
p63
I50
sS'tailSize'
p64
I0
sS'sexualgeno'
p65
(i__main__
Node
p66
(dp67
S'depth'
p68
I1
sS'right'
p69
(i__main__
Node
p70
(dp71
g68
I2
sg69
NsS'parent'
p72
g66
sS'float_size'
p73
S'indiv.getNumPreysNeigh()'
p74
sS'float_bright'
p75
S'indiv.getTailBrightness()'
p76
sS'left'
p77
Nsbsg72
Nsg73
S'/'
sg75
S'-'
sg77
(i__main__
Node
p78
(dp79
g69
(i__main__
Node
p80
(dp81
g69
Nsg72
g78
sg68
I3
sg73
S'indiv.randF()'
p82
sg75
g82
sg77
Nsbsg72
g66
sg68
I2
sg73
S'*'
sg75
S'/'
sg77
(i__main__
Node
p83
(dp84
g69
Nsg72
g78
sg68
I3
sg73
g76
sg75
S'indiv.getTailSize()'
p85
sg77
NsbsbsbsS'tailBrigh'
p86
F0
sS'maxSteering'
p87
I30
sS'energy'
p88
F1
sS'lastScale'
p89
F15.5
sb.(i__main__
Data_mobile
p1
(dp2
S'vel_y'
p3
F0.44379848799428362
sS'vel_x'
p4
F-0.22665499986490456
sS'pos_x'
p5
F-42.619204965407611
sS'pos_y'
p6
F-19.254885748524785
sS'isAlive'
p7
I01
sS'cumulativeEnergy'
p8
F32.103415677041859
sS'geno'
p9
(lp10
(lp11
S'currentVelocity'
p12
a(lp13
S'flee'
p14
aS'POINT.+'
p15
aa(lp16
(lp17
(lp18
S'POINT./'
p19
aaS'currentVelocity'
p20
aS'flee'
p21
aS'alignment'
p22
a(lp23
S'POINT.+'
p24
aS'currentVelocity'
p25
a(lp26
S'POINT./'
p27
aa(lp28
(lp29
S'alignment'
p30
aa(lp31
S'target'
p32
aaaaS'separation'
p33
aa(lp34
S'currentVelocity'
p35
aS'currentVelocity'
p36
a(lp37
S'flee'
p38
aS'flee'
p39
aa(lp40
S'target'
p41
a(lp42
S'target'
p43
aaaa(lp44
S'target'
p45
aa(lp46
(lp47
S'target'
p48
aaaS'cohesion'
p49
aaS'target'
p50
aaS'POINT.+'
p51
aS'cohesion'
p52
a(lp53
S'target'
p54
aa(lp55
(lp56
S'cohesion'
p57
aaS'alignment'
p58
aasS'accel_x'
p59
F-0.36536532793659404
sS'accel_y'
p60
F-0.71918405229187954
sS'visionAngle'
p61
I150
sS'maxAccel'
p62
I2
sS'maxVel'
p63
F0.5
sS'age'
p64
I50
sS'tailSize'
p65
F0.071101554587944718
sS'sexualgeno'
p66
(i__main__
Node
p67
(dp68
S'depth'
p69
I1
sS'right'
p70
(i__main__
Node
p71
(dp72
g69
I2
sg70
NsS'parent'
p73
g67
sS'float_size'
p74
S'indiv.randF()'
p75
sS'float_bright'
p76
S'indiv.getTailSize()'
p77
sS'left'
p78
Nsbsg73
Nsg74
S'/'
sg76
S'-'
sg78
(i__main__
Node
p79
(dp80
g69
I2
sg70
(i__main__
Node
p81
(dp82
g69
I3
sg70
Nsg73
g79
sg74
S'indiv.getNumPredatorsNeigh()'
p83
sg76
S'indiv.getEnergy()'
p84
sg78
Nsbsg73
g67
sg74
S'*'
sg76
S'-'
sg78
(i__main__
Node
p85
(dp86
g69
I3
sg70
Nsg73
g79
sg74
S'indiv.getTailBrightness()'
p87
sg76
g83
sg78
NsbsbsbsS'tailBrigh'
p88
F0.19549189674340761
sS'maxSteering'
p89
I30
sS'energy'
p90
F0.83450810388457819
sS'lastScale'
p91
F14.045081032565925
sb.(i__main__
Data_mobile
p1
(dp2
S'vel_y'
p3
F-0.2424821233749764
sS'vel_x'
p4
F0.060847513043366927
sS'pos_x'
p5
F-120.81169070226157
sS'pos_y'
p6
F69.852019054343927
sS'isAlive'
p7
I01
sS'cumulativeEnergy'
p8
F27.307650477028606
sS'geno'
p9
(lp10
(lp11
S'currentVelocity'
p12
a(lp13
S'flee'
p14
aS'POINT.+'
p15
aa(lp16
(lp17
(lp18
S'POINT./'
p19
aaS'currentVelocity'
p20
aS'flee'
p21
aS'alignment'
p22
a(lp23
S'POINT.+'
p24
aS'currentVelocity'
p25
a(lp26
S'target'
p27
aa(lp28
(lp29
S'alignment'
p30
aa(lp31
S'target'
p32
aaaaS'POINT.+'
p33
aa(lp34
S'currentVelocity'
p35
aS'currentVelocity'
p36
a(lp37
S'flee'
p38
aS'flee'
p39
aa(lp40
S'target'
p41
a(lp42
S'target'
p43
aaaa(lp44
S'target'
p45
aa(lp46
(lp47
S'target'
p48
aaaS'cohesion'
p49
aaS'target'
p50
aaS'POINT.+'
p51
aS'cohesion'
p52
a(lp53
S'target'
p54
aa(lp55
(lp56
S'POINT.+'
p57
aaS'alignment'
p58
aasS'accel_x'
p59
F0
sS'accel_y'
p60
F0
sS'visionAngle'
p61
I150
sS'maxAccel'
p62
I2
sS'maxVel'
p63
F0.5
sS'age'
p64
I350
sS'tailSize'
p65
F0.31307827730706028
sS'sexualgeno'
p66
(i__main__
Node
p67
(dp68
S'depth'
p69
I1
sS'right'
p70
(i__main__
Node
p71
(dp72
g69
I2
sg70
NsS'parent'
p73
g67
sS'float_size'
p74
S'indiv.randF()'
p75
sS'float_bright'
p76
S'indiv.getTailSize()'
p77
sS'left'
p78
Nsbsg73
Nsg74
S'/'
sg76
S'-'
sg78
(i__main__
Node
p79
(dp80
g69
I2
sg70
Nsg73
g67
sg74
S'indiv.getEnergy()'
p81
sg76
g77
sg78
NsbsbsS'tailBrigh'
p82
F0
sS'maxSteering'
p83
I30
sS'energy'
p84
F0.056854365581320933
sS'lastScale'
p85
F6.06854365581321
sb.(i__main__
Data_mobile
p1
(dp2
S'vel_y'
p3
F0.049534794904839058
sS'vel_x'
p4
F-0.38686549673043835
sS'pos_x'
p5
F52.400629217422036
sS'pos_y'
p6
F36.903666400070961
sS'isAlive'
p7
I01
sS'cumulativeEnergy'
p8
F12.149257637880815
sS'geno'
p9
(lp10
(lp11
S'currentVelocity'
p12
a(lp13
S'flee'
p14
aS'flee'
p15
aa(lp16
(lp17
(lp18
S'POINT./'
p19
aaS'currentVelocity'
p20
aS'flee'
p21
aS'target'
p22
a(lp23
S'POINT.+'
p24
aS'currentVelocity'
p25
a(lp26
S'target'
p27
aa(lp28
(lp29
S'alignment'
p30
aa(lp31
S'POINT.+'
p32
aaaaS'alignment'
p33
aa(lp34
S'target'
p35
aS'currentVelocity'
p36
a(lp37
S'flee'
p38
aS'flee'
p39
aaS'POINT.+'
p40
aa(lp41
S'target'
p42
aa(lp43
S'flee'
p44
aaS'currentVelocity'
p45
aa(lp46
S'cohesion'
p47
aaaS'POINT./'
p48
aS'cohesion'
p49
a(lp50
S'target'
p51
aaS'currentVelocity'
p52
asS'accel_x'
p53
F0
sS'accel_y'
p54
F0
sS'visionAngle'
p55
I150
sS'maxAccel'
p56
I2
sS'maxVel'
p57
F0.5
sS'age'
p58
I50
sS'tailSize'
p59
F0
sS'sexualgeno'
p60
(i__main__
Node
p61
(dp62
S'depth'
p63
I1
sS'right'
p64
(i__main__
Node
p65
(dp66
g63
I2
sg64
(i__main__
Node
p67
(dp68
g63
I3
sg64
(i__main__
Node
p69
(dp70
g63
I4
sg64
NsS'parent'
p71
g67
sS'float_size'
p72
S'indiv.randF()'
p73
sS'float_bright'
p74
S'indiv.getTailBrightness()'
p75
sS'left'
p76
Nsbsg71
g65
sg72
S'+'
sg74
S'-'
sg76
(i__main__
Node
p77
(dp78
g63
I4
sg64
Nsg71
g67
sg72
S'indiv.getTailSize()'
p79
sg74
S'indiv.distanceMatingSeason()'
p80
sg76
Nsbsbsg71
g61
sg72
S'+'
sg74
S'/'
sg76
(i__main__
Node
p81
(dp82
g63
I3
sg64
(i__main__
Node
p83
(dp84
g63
I4
sg64
Nsg71
g81
sg72
S'indiv.getNumPredatorsNeigh()'
p85
sg74
S'indiv.getEnergy()'
p86
sg76
Nsbsg71
g65
sg72
S'*'
sg74
S'-'
sg76
(i__main__
Node
p87
(dp88
g63
I4
sg64
Nsg71
g81
sg72
g75
sg74
g85
sg76
Nsbsbsbsg71
Nsg72
S'/'
sg74
S'-'
sg76
(i__main__
Node
p89
(dp90
g63
I2
sg64
(i__main__
Node
p91
(dp92
g63
I3
sg64
Nsg71
g89
sg72
g85
sg74
g86
sg76
Nsbsg71
g61
sg72
S'*'
sg74
S'-'
sg76
(i__main__
Node
p93
(dp94
g63
I3
sg64
Nsg71
g89
sg72
g75
sg74
g85
sg76
NsbsbsbsS'tailBrigh'
p95
F0
sS'maxSteering'
p96
I30
sS'energy'
p97
I0
sS'lastScale'
p98
F5.5
sb.(i__main__
Data_mobile
p1
(dp2
S'vel_y'
p3
F0.073708867867212258
sS'vel_x'
p4
F-0.49284540142676186
sS'pos_x'
p5
F-161.44363369464457
sS'pos_y'
p6
F74.87419988568962
sS'isAlive'
p7
I01
sS'cumulativeEnergy'
p8
F12.149257637880815
sS'geno'
p9
(lp10
(lp11
S'currentVelocity'
p12
a(lp13
S'flee'
p14
aS'flee'
p15
aa(lp16
(lp17
(lp18
S'POINT./'
p19
aaS'currentVelocity'
p20
aS'flee'
p21
aS'target'
p22
a(lp23
S'POINT.+'
p24
aS'currentVelocity'
p25
a(lp26
(lp27
S'POINT.+'
p28
aaa(lp29
(lp30
S'alignment'
p31
aa(lp32
S'POINT.+'
p33
aaaaS'alignment'
p34
aa(lp35
S'currentVelocity'
p36
aS'currentVelocity'
p37
a(lp38
S'flee'
p39
aS'flee'
p40
aaS'POINT.+'
p41
aa(lp42
S'target'
p43
aa(lp44
S'flee'
p45
aaS'cohesion'
p46
aa(lp47
S'cohesion'
p48
aaaS'POINT./'
p49
a(lp50
S'target'
p51
aa(lp52
S'target'
p53
aaS'currentVelocity'
p54
asS'accel_x'
p55
F-1.9780008206486386
sS'accel_y'
p56
F0.29582554574159398
sS'visionAngle'
p57
I150
sS'maxAccel'
p58
I2
sS'maxVel'
p59
F0.5
sS'age'
p60
I50
sS'tailSize'
p61
F0
sS'sexualgeno'
p62
(i__main__
Node
p63
(dp64
S'depth'
p65
I1
sS'right'
p66
(i__main__
Node
p67
(dp68
g65
I2
sg66
(i__main__
Node
p69
(dp70
g65
I3
sg66
NsS'parent'
p71
g67
sS'float_size'
p72
S'indiv.getTailSize()'
p73
sS'float_bright'
p74
S'indiv.getTailBrightness()'
p75
sS'left'
p76
Nsbsg71
g63
sg72
S'-'
sg74
S'*'
sg76
(i__main__
Node
p77
(dp78
g65
I3
sg66
Nsg71
g67
sg72
S'indiv.randF()'
p79
sg74
g75
sg76
Nsbsbsg71
Nsg72
S'/'
sg74
S'-'
sg76
(i__main__
Node
p80
(dp81
g66
(i__main__
Node
p82
(dp83
g66
Nsg71
g80
sg65
I3
sg72
S'indiv.distanceMatingSeason()'
p84
sg74
g73
sg76
Nsbsg71
g63
sg65
I2
sg72
S'/'
sg74
S'/'
sg76
(i__main__
Node
p85
(dp86
g66
Nsg71
g80
sg65
I3
sg72
g73
sg74
g75
sg76
NsbsbsbsS'tailBrigh'
p87
F0
sS'maxSteering'
p88
I30
sS'energy'
p89
I0
sS'lastScale'
p90
F5.5
sb.(i__main__
Data_mobile
p1
(dp2
S'vel_y'
p3
F0.14287873302301046
sS'vel_x'
p4
F-0.25844869421162142
sS'pos_x'
p5
F-88.049614263005779
sS'pos_y'
p6
F39.74045343934425
sS'isAlive'
p7
I01
sS'cumulativeEnergy'
p8
F12.149257637880815
sS'geno'
p9
(lp10
(lp11
S'currentVelocity'
p12
a(lp13
S'flee'
p14
aS'POINT.+'
p15
aa(lp16
(lp17
S'cohesion'
p18
aS'POINT.+'
p19
a(lp20
S'alignment'
p21
aa(lp22
S'target'
p23
aa(lp24
S'target'
p25
aaa(lp26
S'currentVelocity'
p27
aS'currentVelocity'
p28
a(lp29
S'flee'
p30
aS'flee'
p31
aa(lp32
S'target'
p33
a(lp34
S'target'
p35
aaaa(lp36
S'target'
p37
aa(lp38
(lp39
S'target'
p40
aaaS'cohesion'
p41
aaS'target'
p42
aaS'POINT.+'
p43
aS'cohesion'
p44
a(lp45
S'target'
p46
aa(lp47
(lp48
S'cohesion'
p49
aaS'alignment'
p50
aasS'accel_x'
p51
F0
sS'accel_y'
p52
F0
sS'visionAngle'
p53
I150
sS'maxAccel'
p54
I2
sS'maxVel'
p55
F0.5
sS'age'
p56
I50
sS'tailSize'
p57
F0
sS'sexualgeno'
p58
(i__main__
Node
p59
(dp60
S'depth'
p61
I1
sS'right'
p62
(i__main__
Node
p63
(dp64
g61
I2
sg62
NsS'parent'
p65
g59
sS'float_size'
p66
S'indiv.randF()'
p67
sS'float_bright'
p68
S'indiv.getTailSize()'
p69
sS'left'
p70
Nsbsg65
Nsg66
S'/'
sg68
S'-'
sg70
(i__main__
Node
p71
(dp72
g61
I2
sg62
Nsg65
g59
sg66
S'indiv.getEnergy()'
p73
sg68
g69
sg70
NsbsbsS'tailBrigh'
p74
F0
sS'maxSteering'
p75
I30
sS'energy'
p76
I0
sS'lastScale'
p77
F5.5
sb.(i__main__
Data_mobile
p1
(dp2
S'vel_y'
p3
F-0.42120793849231541
sS'vel_x'
p4
F0.067002538293396391
sS'pos_x'
p5
F-92.557135598368376
sS'pos_y'
p6
F-74.589535095343493
sS'isAlive'
p7
I01
sS'cumulativeEnergy'
p8
F12.149257637880815
sS'geno'
p9
(lp10
(lp11
S'currentVelocity'
p12
a(lp13
S'alignment'
p14
aa(lp15
(lp16
(lp17
S'POINT./'
p18
aaS'currentVelocity'
p19
aS'flee'
p20
aS'alignment'
p21
a(lp22
S'POINT.+'
p23
aS'currentVelocity'
p24
a(lp25
S'target'
p26
aa(lp27
(lp28
S'alignment'
p29
aa(lp30
S'POINT.+'
p31
aaaaS'separation'
p32
aa(lp33
S'currentVelocity'
p34
aS'currentVelocity'
p35
a(lp36
S'flee'
p37
aS'flee'
p38
aa(lp39
S'target'
p40
a(lp41
S'target'
p42
aaaa(lp43
S'target'
p44
aa(lp45
(lp46
S'target'
p47
aaaS'cohesion'
p48
aaS'target'
p49
aaS'POINT.+'
p50
aS'cohesion'
p51
a(lp52
S'cohesion'
p53
aa(lp54
(lp55
S'cohesion'
p56
aaS'alignment'
p57
aasS'accel_x'
p58
F0
sS'accel_y'
p59
F0
sS'visionAngle'
p60
I150
sS'maxAccel'
p61
I2
sS'maxVel'
p62
F0.5
sS'age'
p63
I50
sS'tailSize'
p64
I0
sS'sexualgeno'
p65
(i__main__
Node
p66
(dp67
S'depth'
p68
I1
sS'right'
p69
(i__main__
Node
p70
(dp71
g68
I2
sg69
NsS'parent'
p72
g66
sS'float_size'
p73
S'indiv.getNumPreysNeigh()'
p74
sS'float_bright'
p75
S'indiv.getTailBrightness()'
p76
sS'left'
p77
Nsbsg72
Nsg73
S'/'
sg75
S'-'
sg77
(i__main__
Node
p78
(dp79
g69
(i__main__
Node
p80
(dp81
g69
Nsg72
g78
sg68
I3
sg73
S'indiv.distanceMatingSeason()'
p82
sg75
g82
sg77
Nsbsg72
g66
sg68
I2
sg73
S'-'
sg75
S'/'
sg77
(i__main__
Node
p83
(dp84
g69
Nsg72
g78
sg68
I3
sg73
g82
sg75
S'indiv.getTailSize()'
p85
sg77
NsbsbsbsS'tailBrigh'
p86
F0
sS'maxSteering'
p87
I30
sS'energy'
p88
I0
sS'lastScale'
p89
F5.5
sb.(i__main__
Data_mobile
p1
(dp2
S'vel_y'
p3
F-0.49742212359415156
sS'vel_x'
p4
F-0.030013628052216662
sS'pos_x'
p5
F53.94779560009308
sS'pos_y'
p6
F-64.252751413491538
sS'isAlive'
p7
I01
sS'cumulativeEnergy'
p8
F12.149257637880815
sS'geno'
p9
(lp10
(lp11
S'currentVelocity'
p12
a(lp13
S'alignment'
p14
aa(lp15
(lp16
(lp17
S'POINT./'
p18
aaS'currentVelocity'
p19
aS'flee'
p20
aS'alignment'
p21
a(lp22
S'POINT.+'
p23
aS'currentVelocity'
p24
a(lp25
S'target'
p26
aa(lp27
(lp28
S'alignment'
p29
aa(lp30
S'POINT.+'
p31
aaaaS'separation'
p32
aa(lp33
S'currentVelocity'
p34
aS'currentVelocity'
p35
a(lp36
S'flee'
p37
aS'flee'
p38
aa(lp39
S'target'
p40
a(lp41
S'target'
p42
aaaa(lp43
S'target'
p44
aa(lp45
(lp46
S'target'
p47
aaaS'cohesion'
p48
aaS'target'
p49
aaS'POINT.+'
p50
aS'cohesion'
p51
a(lp52
S'target'
p53
aa(lp54
(lp55
S'cohesion'
p56
aaS'target'
p57
aasS'accel_x'
p58
F-0.12188233199146495
sS'accel_y'
p59
F-1.9962827197439552
sS'visionAngle'
p60
I150
sS'maxAccel'
p61
I2
sS'maxVel'
p62
F0.5
sS'age'
p63
I50
sS'tailSize'
p64
F0
sS'sexualgeno'
p65
(i__main__
Node
p66
(dp67
S'depth'
p68
I1
sS'right'
p69
(i__main__
Node
p70
(dp71
g68
I2
sg69
NsS'parent'
p72
g66
sS'float_size'
p73
S'indiv.getNumPreysNeigh()'
p74
sS'float_bright'
p75
S'indiv.getTailBrightness()'
p76
sS'left'
p77
Nsbsg72
Nsg73
S'/'
sg75
S'-'
sg77
(i__main__
Node
p78
(dp79
g68
I2
sg69
(i__main__
Node
p80
(dp81
g68
I3
sg69
Nsg72
g78
sg73
S'indiv.getNumPredatorsNeigh()'
p82
sg75
S'indiv.getEnergy()'
p83
sg77
Nsbsg72
g66
sg73
S'*'
sg75
S'-'
sg77
(i__main__
Node
p84
(dp85
g68
I3
sg69
Nsg72
g78
sg73
g76
sg75
g82
sg77
NsbsbsbsS'tailBrigh'
p86
F0
sS'maxSteering'
p87
I30
sS'energy'
p88
I0
sS'lastScale'
p89
F5.5
sb.(i__main__
Data_mobile
p1
(dp2
S'vel_y'
p3
F0.12651816245227074
sS'vel_x'
p4
F-0.48199869447901306
sS'pos_x'
p5
F-168.94810788676568
sS'pos_y'
p6
F75.87601101788195
sS'isAlive'
p7
I01
sS'cumulativeEnergy'
p8
F12.149257637880815
sS'geno'
p9
(lp10
S'currentVelocity'
p11
aS'currentVelocity'
p12
a(lp13
S'flee'
p14
a(lp15
S'POINT./'
p16
a(lp17
S'POINT.+'
p18
aaaa(lp19
S'target'
p20
a(lp21
S'target'
p22
aaasS'accel_x'
p23
F-1.0674159920449142
sS'accel_y'
p24
F0.28018231558408502
sS'visionAngle'
p25
I150
sS'maxAccel'
p26
I2
sS'maxVel'
p27
F0.5
sS'age'
p28
I50
sS'tailSize'
p29
F0
sS'sexualgeno'
p30
(i__main__
Node
p31
(dp32
S'depth'
p33
I1
sS'right'
p34
(i__main__
Node
p35
(dp36
g33
I2
sg34
NsS'parent'
p37
g31
sS'float_size'
p38
S'indiv.distanceMatingSeason()'
p39
sS'float_bright'
p40
g39
sS'left'
p41
Nsbsg37
Nsg38
S'/'
sg40
S'-'
sg41
(i__main__
Node
p42
(dp43
g33
I2
sg34
(i__main__
Node
p44
(dp45
g33
I3
sg34
(i__main__
Node
p46
(dp47
g33
I4
sg34
(i__main__
Node
p48
(dp49
g33
I5
sg34
Nsg37
g46
sg38
S'indiv.randF()'
p50
sg40
S'indiv.getTailBrightness()'
p51
sg41
Nsbsg37
g44
sg38
S'+'
sg40
S'-'
sg41
(i__main__
Node
p52
(dp53
g33
I5
sg34
Nsg37
g46
sg38
S'indiv.getTailSize()'
p54
sg40
g39
sg41
Nsbsbsg37
g42
sg38
S'+'
sg40
S'/'
sg41
(i__main__
Node
p55
(dp56
g33
I4
sg34
(i__main__
Node
p57
(dp58
g33
I5
sg34
Nsg37
g55
sg38
g39
sg40
g39
sg41
Nsbsg37
g44
sg38
S'*'
sg40
S'/'
sg41
(i__main__
Node
p59
(dp60
g33
I5
sg34
Nsg37
g55
sg38
g39
sg40
g50
sg41
Nsbsbsbsg37
g31
sg38
S'/'
sg40
S'*'
sg41
(i__main__
Node
p61
(dp62
g33
I3
sg34
(i__main__
Node
p63
(dp64
g33
I4
sg34
Nsg37
g61
sg38
S'indiv.getNumPredatorsNeigh()'
p65
sg40
S'indiv.getEnergy()'
p66
sg41
Nsbsg37
g42
sg38
S'*'
sg40
S'-'
sg41
(i__main__
Node
p67
(dp68
g33
I4
sg34
Nsg37
g61
sg38
g51
sg40
g65
sg41
NsbsbsbsbsS'tailBrigh'
p69
F0
sS'maxSteering'
p70
I30
sS'energy'
p71
F0.050000000000000003
sS'lastScale'
p72
F6
sb.(i__main__
Data_mobile
p1
(dp2
S'vel_y'
p3
F-0.49430484864260549
sS'vel_x'
p4
F0.063184677875123302
sS'pos_x'
p5
F56.279447675581757
sS'pos_y'
p6
F-64.796885390921673
sS'isAlive'
p7
I01
sS'cumulativeEnergy'
p8
F12.149257637880815
sS'geno'
p9
(lp10
(lp11
S'currentVelocity'
p12
a(lp13
S'flee'
p14
aS'POINT.+'
p15
aa(lp16
(lp17
(lp18
S'POINT./'
p19
aaS'currentVelocity'
p20
aS'flee'
p21
aS'alignment'
p22
a(lp23
S'POINT.+'
p24
aS'currentVelocity'
p25
a(lp26
S'target'
p27
aa(lp28
(lp29
S'alignment'
p30
aa(lp31
S'target'
p32
aaaaS'separation'
p33
aa(lp34
S'currentVelocity'
p35
aS'currentVelocity'
p36
a(lp37
S'flee'
p38
aS'flee'
p39
aa(lp40
S'target'
p41
a(lp42
S'alignment'
p43
aaaa(lp44
S'target'
p45
aa(lp46
(lp47
(lp48
S'target'
p49
aaaa(lp50
S'target'
p51
aaaS'target'
p52
aaS'POINT.+'
p53
aS'cohesion'
p54
a(lp55
S'target'
p56
aaS'target'
p57
asS'accel_x'
p58
F-0.030013628052216662
sS'accel_y'
p59
F-0.49742212359415156
sS'visionAngle'
p60
I150
sS'maxAccel'
p61
I2
sS'maxVel'
p62
F0.5
sS'age'
p63
I50
sS'tailSize'
p64
F0
sS'sexualgeno'
p65
(i__main__
Node
p66
(dp67
S'depth'
p68
I1
sS'right'
p69
(i__main__
Node
p70
(dp71
g68
I2
sg69
NsS'parent'
p72
g66
sS'float_size'
p73
S'indiv.randF()'
p74
sS'float_bright'
p75
S'indiv.getTailSize()'
p76
sS'left'
p77
Nsbsg72
Nsg73
S'/'
sg75
S'-'
sg77
(i__main__
Node
p78
(dp79
g68
I2
sg69
(i__main__
Node
p80
(dp81
g68
I3
sg69
Nsg72
g78
sg73
S'indiv.getNumPredatorsNeigh()'
p82
sg75
S'indiv.getEnergy()'
p83
sg77
Nsbsg72
g66
sg73
S'*'
sg75
S'-'
sg77
(i__main__
Node
p84
(dp85
g68
I3
sg69
Nsg72
g78
sg73
S'indiv.getTailBrightness()'
p86
sg75
g82
sg77
NsbsbsbsS'tailBrigh'
p87
F0
sS'maxSteering'
p88
I30
sS'energy'
p89
I0
sS'lastScale'
p90
F5.5
sb.(i__main__
Data_mobile
p1
(dp2
S'vel_y'
p3
F-0.39928567164451795
sS'vel_x'
p4
F-0.13169446906880786
sS'pos_x'
p5
F-65.434189380110809
sS'pos_y'
p6
F23.510360350813226
sS'isAlive'
p7
I01
sS'cumulativeEnergy'
p8
F12.148955308698136
sS'geno'
p9
(lp10
(lp11
S'currentVelocity'
p12
a(lp13
S'flee'
p14
aS'flee'
p15
aa(lp16
(lp17
(lp18
S'POINT./'
p19
aaS'currentVelocity'
p20
aS'flee'
p21
aS'target'
p22
a(lp23
S'POINT.+'
p24
aS'currentVelocity'
p25
a(lp26
(lp27
S'POINT.+'
p28
aaa(lp29
(lp30
S'POINT.+'
p31
aa(lp32
S'POINT.+'
p33
aaaaS'alignment'
p34
aa(lp35
S'currentVelocity'
p36
aS'currentVelocity'
p37
a(lp38
S'flee'
p39
aS'flee'
p40
aaS'POINT.+'
p41
aa(lp42
S'target'
p43
aa(lp44
S'flee'
p45
aaS'cohesion'
p46
aa(lp47
S'cohesion'
p48
aaaS'POINT./'
p49
a(lp50
S'target'
p51
aa(lp52
S'target'
p53
aaS'currentVelocity'
p54
asS'accel_x'
p55
F0
sS'accel_y'
p56
F0
sS'visionAngle'
p57
I150
sS'maxAccel'
p58
I2
sS'maxVel'
p59
F0.5
sS'age'
p60
I50
sS'tailSize'
p61
F0
sS'sexualgeno'
p62
(i__main__
Node
p63
(dp64
S'depth'
p65
I1
sS'right'
p66
(i__main__
Node
p67
(dp68
g65
I2
sg66
(i__main__
Node
p69
(dp70
g65
I3
sg66
NsS'parent'
p71
g67
sS'float_size'
p72
S'indiv.getTailSize()'
p73
sS'float_bright'
p74
S'indiv.getTailBrightness()'
p75
sS'left'
p76
Nsbsg71
g63
sg72
S'-'
sg74
S'*'
sg76
(i__main__
Node
p77
(dp78
g65
I3
sg66
Nsg71
g67
sg72
S'indiv.randF()'
p79
sg74
g75
sg76
Nsbsbsg71
Nsg72
S'/'
sg74
S'-'
sg76
(i__main__
Node
p80
(dp81
g65
I2
sg66
(i__main__
Node
p82
(dp83
g65
I3
sg66
Nsg71
g80
sg72
S'indiv.getNumPredatorsNeigh()'
p84
sg74
S'indiv.getEnergy()'
p85
sg76
Nsbsg71
g63
sg72
S'*'
sg74
S'-'
sg76
(i__main__
Node
p86
(dp87
g65
I3
sg66
Nsg71
g80
sg72
g75
sg74
g84
sg76
NsbsbsbsS'tailBrigh'
p88
F0
sS'maxSteering'
p89
I30
sS'energy'
p90
I0
sS'lastScale'
p91
F5.5
sb.(i__main__
Data_mobile
p1
(dp2
S'vel_y'
p3
F-0.34745814065962666
sS'vel_x'
p4
F-0.16881037515590561
sS'pos_x'
p5
F58.603633628232998
sS'pos_y'
p6
F-43.820869046252646
sS'isAlive'
p7
I01
sS'cumulativeEnergy'
p8
F12.081497483653976
sS'geno'
p9
(lp10
(lp11
S'currentVelocity'
p12
a(lp13
S'alignment'
p14
aa(lp15
(lp16
(lp17
S'POINT./'
p18
aaS'currentVelocity'
p19
aS'POINT.+'
p20
aS'alignment'
p21
a(lp22
S'POINT.+'
p23
aS'currentVelocity'
p24
a(lp25
S'target'
p26
aa(lp27
(lp28
S'alignment'
p29
aa(lp30
S'POINT.+'
p31
aaaaS'separation'
p32
aa(lp33
S'currentVelocity'
p34
aS'currentVelocity'
p35
a(lp36
S'flee'
p37
aS'flee'
p38
aa(lp39
S'target'
p40
a(lp41
S'target'
p42
aaaa(lp43
S'target'
p44
aa(lp45
(lp46
S'target'
p47
aaaS'cohesion'
p48
aaS'target'
p49
aaS'POINT.+'
p50
aS'cohesion'
p51
a(lp52
S'target'
p53
aa(lp54
(lp55
S'cohesion'
p56
aaS'alignment'
p57
aasS'accel_x'
p58
F0
sS'accel_y'
p59
F0
sS'visionAngle'
p60
I150
sS'maxAccel'
p61
I2
sS'maxVel'
p62
F0.5
sS'age'
p63
I50
sS'tailSize'
p64
I0
sS'sexualgeno'
p65
(i__main__
Node
p66
(dp67
S'depth'
p68
I1
sS'right'
p69
(i__main__
Node
p70
(dp71
g68
I2
sg69
NsS'parent'
p72
g66
sS'float_size'
p73
S'indiv.getNumPreysNeigh()'
p74
sS'float_bright'
p75
S'indiv.getTailBrightness()'
p76
sS'left'
p77
Nsbsg72
Nsg73
S'/'
sg75
S'-'
sg77
(i__main__
Node
p78
(dp79
g68
I2
sg69
(i__main__
Node
p80
(dp81
g68
I3
sg69
(i__main__
Node
p82
(dp83
g68
I4
sg69
Nsg72
g80
sg73
S'indiv.getNumPredatorsNeigh()'
p84
sg75
S'indiv.getEnergy()'
p85
sg77
Nsbsg72
g78
sg73
S'*'
sg75
S'-'
sg77
(i__main__
Node
p86
(dp87
g68
I4
sg69
Nsg72
g80
sg73
g76
sg75
g84
sg77
Nsbsbsg72
g66
sg73
S'-'
sg75
S'/'
sg77
(i__main__
Node
p88
(dp89
g68
I3
sg69
(i__main__
Node
p90
(dp91
g68
I4
sg69
Nsg72
g88
sg73
g84
sg75
g85
sg77
Nsbsg72
g78
sg73
S'*'
sg75
S'-'
sg77
(i__main__
Node
p92
(dp93
g68
I4
sg69
Nsg72
g88
sg73
g76
sg75
g84
sg77
NsbsbsbsbsS'tailBrigh'
p94
F0
sS'maxSteering'
p95
I30
sS'energy'
p96
I0
sS'lastScale'
p97
F5.5
sb.(i__main__
Data_mobile
p1
(dp2
S'vel_y'
p3
F-0.17678724136917451
sS'vel_x'
p4
F-0.1767872413691598
sS'pos_x'
p5
F-25.63269165641362
sS'pos_y'
p6
F16.095116231033202
sS'isAlive'
p7
I01
sS'cumulativeEnergy'
p8
F11.778655691593647
sS'geno'
p9
(lp10
S'alignment'
p11
a(lp12
(lp13
S'alignment'
p14
aa(lp15
S'flee'
p16
aa(lp17
(lp18
S'target'
p19
aS'flee'
p20
aS'cohesion'
p21
aS'currentVelocity'
p22
aaS'separation'
p23
aa(lp24
S'POINT.+'
p25
aS'currentVelocity'
p26
a(lp27
S'currentVelocity'
p28
aaaS'separation'
p29
aaS'target'
p30
a(lp31
(lp32
S'flee'
p33
aS'alignment'
p34
aa(lp35
S'POINT./'
p36
aS'currentVelocity'
p37
aa(lp38
S'currentEnergy'
p39
aS'POINT./'
p40
a(lp41
S'POINT.-'
p42
aS'POINT.*'
p43
aaS'cohesion'
p44
a(lp45
S'POINT.-'
p46
aaS'separation'
p47
aS'currentEnergy'
p48
aaS'POINT.-'
p49
aS'currentVelocity'
p50
aS'POINT.*'
p51
aa(lp52
S'POINT.*'
p53
a(lp54
S'separation'
p55
aaasS'accel_x'
p56
F-0.24144130501712613
sS'accel_y'
p57
F-0.24144130501714084
sS'visionAngle'
p58
I150
sS'maxAccel'
p59
I2
sS'maxVel'
p60
F0.5
sS'age'
p61
I62
sS'tailSize'
p62
F7.6736590817896957
sS'sexualgeno'
p63
(i__main__
Node
p64
(dp65
S'right'
p66
(i__main__
Node
p67
(dp68
g66
(i__main__
Node
p69
(dp70
g66
NsS'parent'
p71
NsS'depth'
p72
I3
sS'float_size'
p73
S'indiv.randF()'
p74
sS'float_bright'
p75
S'indiv.getTailSize()'
p76
sS'left'
p77
Nsbsg71
Nsg72
I2
sg73
S'+'
sg75
S'-'
sg77
(i__main__
Node
p78
(dp79
g66
Nsg71
Nsg72
I3
sg73
S'indiv.getNumPredatorsNeigh()'
p80
sg75
g80
sg77
Nsbsbsg71
Nsg72
I1
sg73
S'*'
sg75
S'*'
sg77
(i__main__
Node
p81
(dp82
g66
(i__main__
Node
p83
(dp84
g66
Nsg71
Nsg72
I3
sg73
S'indiv.distanceMatingSeason()'
p85
sg75
S'indiv.getEnergy()'
p86
sg77
Nsbsg71
Nsg72
I2
sg73
S'+'
sg75
S'*'
sg77
(i__main__
Node
p87
(dp88
g66
Nsg71
Nsg72
I3
sg73
g85
sg75
g86
sg77
NsbsbsbsS'tailBrigh'
p89
F0
sS'maxSteering'
p90
I30
sS'energy'
p91
F0.064654063647966345
sS'lastScale'
p92
F6.1465406364796635
sb.(i__main__
Data_mobile
p1
(dp2
S'vel_y'
p3
F-0.19144237183288557
sS'vel_x'
p4
F-0.32257197726559317
sS'pos_x'
p5
F-5.3957250763100149
sS'pos_y'
p6
F1.5930208015787795
sS'isAlive'
p7
I01
sS'cumulativeEnergy'
p8
F0.5
sS'geno'
p9
(lp10
(lp11
S'currentVelocity'
p12
a(lp13
S'flee'
p14
aS'POINT.+'
p15
aa(lp16
(lp17
(lp18
S'POINT./'
p19
aaS'currentVelocity'
p20
aS'flee'
p21
aS'alignment'
p22
a(lp23
S'POINT.+'
p24
aS'currentVelocity'
p25
a(lp26
S'target'
p27
aa(lp28
(lp29
S'alignment'
p30
aa(lp31
S'target'
p32
aaaaS'separation'
p33
aa(lp34
S'currentVelocity'
p35
aS'currentVelocity'
p36
a(lp37
S'flee'
p38
aS'flee'
p39
aa(lp40
S'target'
p41
a(lp42
S'target'
p43
aaaa(lp44
S'POINT.+'
p45
aa(lp46
(lp47
S'target'
p48
aaaS'cohesion'
p49
aaS'target'
p50
aaS'POINT.+'
p51
aS'cohesion'
p52
a(lp53
S'target'
p54
aa(lp55
(lp56
S'cohesion'
p57
aaS'alignment'
p58
aasS'accel_x'
p59
F0
sS'accel_y'
p60
F0
sS'visionAngle'
p61
I150
sS'maxAccel'
p62
I2
sS'maxVel'
p63
F0.5
sS'age'
p64
I0
sS'tailSize'
p65
I0
sS'sexualgeno'
p66
(i__main__
Node
p67
(dp68
S'depth'
p69
I1
sS'right'
p70
(i__main__
Node
p71
(dp72
g69
I2
sg70
NsS'parent'
p73
g67
sS'float_size'
p74
S'indiv.randF()'
p75
sS'float_bright'
p76
S'indiv.getTailSize()'
p77
sS'left'
p78
Nsbsg73
Nsg74
S'/'
sg76
S'-'
sg78
(i__main__
Node
p79
(dp80
g69
I2
sg70
(i__main__
Node
p81
(dp82
g69
I3
sg70
Nsg73
g79
sg74
S'indiv.getNumPredatorsNeigh()'
p83
sg76
S'indiv.getEnergy()'
p84
sg78
Nsbsg73
g67
sg74
S'*'
sg76
S'-'
sg78
(i__main__
Node
p85
(dp86
g69
I3
sg70
Nsg73
g79
sg74
S'indiv.getTailBrightness()'
p87
sg76
g83
sg78
NsbsbsbsS'tailBrigh'
p88
F0
sS'maxSteering'
p89
I30
sS'energy'
p90
F0.5
sS'lastScale'
p91
F5.5
sb.(i__main__
Data_mobile
p1
(dp2
S'vel_y'
p3
F-0.12728377116419876
sS'vel_x'
p4
F-0.38400008377653849
sS'pos_x'
p5
F-21.371848116424346
sS'pos_y'
p6
F-15.501953465242025
sS'isAlive'
p7
I01
sS'cumulativeEnergy'
p8
F0.5
sS'geno'
p9
(lp10
(lp11
S'currentVelocity'
p12
a(lp13
S'flee'
p14
aS'POINT.+'
p15
aa(lp16
(lp17
(lp18
S'POINT./'
p19
aaS'currentVelocity'
p20
aS'flee'
p21
aS'alignment'
p22
a(lp23
S'POINT.+'
p24
aS'currentVelocity'
p25
a(lp26
S'POINT./'
p27
aa(lp28
(lp29
S'alignment'
p30
aa(lp31
S'target'
p32
aaaaS'separation'
p33
aa(lp34
S'currentVelocity'
p35
aS'currentVelocity'
p36
a(lp37
S'flee'
p38
aS'flee'
p39
aa(lp40
S'target'
p41
a(lp42
S'target'
p43
aaaa(lp44
S'target'
p45
aa(lp46
(lp47
S'target'
p48
aaaS'cohesion'
p49
aaS'target'
p50
aaS'flee'
p51
aS'cohesion'
p52
a(lp53
S'target'
p54
aa(lp55
(lp56
S'cohesion'
p57
aaS'alignment'
p58
aasS'accel_x'
p59
F0
sS'accel_y'
p60
F0
sS'visionAngle'
p61
I150
sS'maxAccel'
p62
I2
sS'maxVel'
p63
F0.5
sS'age'
p64
I0
sS'tailSize'
p65
I0
sS'sexualgeno'
p66
(i__main__
Node
p67
(dp68
S'depth'
p69
I1
sS'right'
p70
(i__main__
Node
p71
(dp72
g69
I2
sg70
NsS'parent'
p73
g67
sS'float_size'
p74
S'indiv.randF()'
p75
sS'float_bright'
p76
S'indiv.getTailSize()'
p77
sS'left'
p78
Nsbsg73
Nsg74
S'/'
sg76
S'-'
sg78
(i__main__
Node
p79
(dp80
g69
I2
sg70
(i__main__
Node
p81
(dp82
g69
I3
sg70
Nsg73
g79
sg74
S'indiv.getNumPredatorsNeigh()'
p83
sg76
S'indiv.getEnergy()'
p84
sg78
Nsbsg73
g67
sg74
S'*'
sg76
S'-'
sg78
(i__main__
Node
p85
(dp86
g69
I3
sg70
Nsg73
g79
sg74
S'indiv.getTailBrightness()'
p87
sg76
g83
sg78
NsbsbsbsS'tailBrigh'
p88
F0
sS'maxSteering'
p89
I30
sS'energy'
p90
F0.5
sS'lastScale'
p91
F5.5
sb.(i__main__
Data_mobile
p1
(dp2
S'vel_y'
p3
F0.10182802030932889
sS'vel_x'
p4
F0.24209409286609676
sS'pos_x'
p5
F-17.236747399000219
sS'pos_y'
p6
F7.3994996282523742
sS'isAlive'
p7
I01
sS'cumulativeEnergy'
p8
F0.5
sS'geno'
p9
(lp10
(lp11
S'currentVelocity'
p12
a(lp13
S'flee'
p14
aS'flee'
p15
aa(lp16
(lp17
(lp18
S'alignment'
p19
aaS'currentVelocity'
p20
aS'flee'
p21
aS'target'
p22
a(lp23
S'POINT.+'
p24
aS'currentVelocity'
p25
a(lp26
S'target'
p27
aa(lp28
(lp29
S'alignment'
p30
aa(lp31
S'POINT.+'
p32
aaaaS'alignment'
p33
aa(lp34
S'currentVelocity'
p35
aS'currentVelocity'
p36
a(lp37
S'flee'
p38
aS'flee'
p39
aaS'POINT.+'
p40
aa(lp41
S'target'
p42
aa(lp43
S'flee'
p44
aaS'cohesion'
p45
aa(lp46
S'cohesion'
p47
aaaS'POINT./'
p48
aS'cohesion'
p49
a(lp50
S'target'
p51
aaS'currentVelocity'
p52
asS'accel_x'
p53
F0
sS'accel_y'
p54
F0
sS'visionAngle'
p55
I150
sS'maxAccel'
p56
I2
sS'maxVel'
p57
F0.5
sS'age'
p58
I0
sS'tailSize'
p59
I0
sS'sexualgeno'
p60
(i__main__
Node
p61
(dp62
S'depth'
p63
I1
sS'right'
p64
(i__main__
Node
p65
(dp66
g63
I2
sg64
(i__main__
Node
p67
(dp68
g63
I3
sg64
(i__main__
Node
p69
(dp70
g63
I4
sg64
NsS'parent'
p71
g67
sS'float_size'
p72
S'indiv.randF()'
p73
sS'float_bright'
p74
S'indiv.getTailBrightness()'
p75
sS'left'
p76
Nsbsg71
g65
sg72
S'+'
sg74
S'-'
sg76
(i__main__
Node
p77
(dp78
g63
I4
sg64
Nsg71
g67
sg72
S'indiv.getTailSize()'
p79
sg74
S'indiv.distanceMatingSeason()'
p80
sg76
Nsbsbsg71
g61
sg72
S'+'
sg74
S'/'
sg76
(i__main__
Node
p81
(dp82
g63
I3
sg64
(i__main__
Node
p83
(dp84
g63
I4
sg64
Nsg71
g81
sg72
g80
sg74
g80
sg76
Nsbsg71
g65
sg72
S'*'
sg74
S'/'
sg76
(i__main__
Node
p85
(dp86
g63
I4
sg64
Nsg71
g81
sg72
g80
sg74
g73
sg76
Nsbsbsbsg71
Nsg72
S'/'
sg74
S'-'
sg76
(i__main__
Node
p87
(dp88
g63
I2
sg64
(i__main__
Node
p89
(dp90
g63
I3
sg64
Nsg71
g87
sg72
S'indiv.getNumPredatorsNeigh()'
p91
sg74
S'indiv.getEnergy()'
p92
sg76
Nsbsg71
g61
sg72
S'*'
sg74
S'-'
sg76
(i__main__
Node
p93
(dp94
g63
I3
sg64
Nsg71
g87
sg72
g75
sg74
g91
sg76
NsbsbsbsS'tailBrigh'
p95
F42
sS'maxSteering'
p96
I30
sS'energy'
p97
F0.5
sS'lastScale'
p98
F5.5
sb.(i__main__
Data_mobile
p1
(dp2
S'vel_y'
p3
F-0.46309018580685563
sS'vel_x'
p4
F-0.11387016994542797
sS'pos_x'
p5
F-21.642296477532337
sS'pos_y'
p6
F48.680512385985637
sS'isAlive'
p7
I01
sS'cumulativeEnergy'
p8
F0.5
sS'geno'
p9
(lp10
S'target'
p11
aS'target'
p12
a(lp13
(lp14
S'randV'
p15
aa(lp16
S'POINT./'
p17
aaS'target'
p18
aaS'target'
p19
asS'accel_x'
p20
F0
sS'accel_y'
p21
F0
sS'visionAngle'
p22
I150
sS'maxAccel'
p23
I2
sS'maxVel'
p24
F0.5
sS'age'
p25
I0
sS'tailSize'
p26
I0
sS'sexualgeno'
p27
(i__main__
Node
p28
(dp29
S'depth'
p30
I1
sS'right'
p31
(i__main__
Node
p32
(dp33
g30
I2
sg31
(i__main__
Node
p34
(dp35
g30
I3
sg31
NsS'parent'
p36
g32
sS'float_size'
p37
S'indiv.getTailSize()'
p38
sS'float_bright'
p39
S'indiv.getTailBrightness()'
p40
sS'left'
p41
Nsbsg36
g28
sg37
S'/'
sg39
S'*'
sg41
(i__main__
Node
p42
(dp43
g30
I3
sg31
Nsg36
g32
sg37
g40
sg39
S'indiv.getEnergy()'
p44
sg41
Nsbsbsg36
Nsg37
S'*'
sg39
S'-'
sg41
(i__main__
Node
p45
(dp46
g30
I2
sg31
(i__main__
Node
p47
(dp48
g30
I3
sg31
Nsg36
g45
sg37
S'indiv.getNumPredatorsNeigh()'
p49
sg39
g44
sg41
Nsbsg36
g28
sg37
S'*'
sg39
S'-'
sg41
(i__main__
Node
p50
(dp51
g30
I3
sg31
Nsg36
g45
sg37
g40
sg39
g49
sg41
NsbsbsbsS'tailBrigh'
p52
F0.97148904722859819
sS'maxSteering'
p53
I30
sS'energy'
p54
F0.5
sS'lastScale'
p55
F5.5
sb.(i__main__
Data_mobile
p1
(dp2
S'vel_y'
p3
F-0.46942288235158974
sS'vel_x'
p4
F-0.0018911253359670532
sS'pos_x'
p5
F-110.89569145541266
sS'pos_y'
p6
F59.898073251253535
sS'isAlive'
p7
I01
sS'cumulativeEnergy'
p8
F0.5
sS'geno'
p9
(lp10
(lp11
S'currentVelocity'
p12
a(lp13
S'flee'
p14
aS'flee'
p15
aa(lp16
(lp17
(lp18
S'POINT./'
p19
aaS'currentVelocity'
p20
aS'flee'
p21
aS'target'
p22
a(lp23
S'POINT.+'
p24
aS'currentVelocity'
p25
a(lp26
S'target'
p27
aa(lp28
(lp29
S'alignment'
p30
aa(lp31
S'POINT.+'
p32
aaaaS'alignment'
p33
aa(lp34
S'currentVelocity'
p35
aS'currentVelocity'
p36
a(lp37
S'flee'
p38
aS'flee'
p39
aaS'POINT.+'
p40
aa(lp41
S'target'
p42
aa(lp43
S'flee'
p44
aaS'cohesion'
p45
aa(lp46
S'cohesion'
p47
aaaS'POINT./'
p48
a(lp49
S'target'
p50
aaS'alignment'
p51
aS'currentVelocity'
p52
asS'accel_x'
p53
F0
sS'accel_y'
p54
F0
sS'visionAngle'
p55
I150
sS'maxAccel'
p56
I2
sS'maxVel'
p57
F0.5
sS'age'
p58
I0
sS'tailSize'
p59
F0
sS'sexualgeno'
p60
(i__main__
Node
p61
(dp62
S'depth'
p63
I1
sS'right'
p64
(i__main__
Node
p65
(dp66
g63
I2
sg64
(i__main__
Node
p67
(dp68
g63
I3
sg64
(i__main__
Node
p69
(dp70
g63
I4
sg64
NsS'parent'
p71
g67
sS'float_size'
p72
S'indiv.randF()'
p73
sS'float_bright'
p74
g73
sS'left'
p75
Nsbsg71
g65
sg72
S'/'
sg74
S'/'
sg75
(i__main__
Node
p76
(dp77
g63
I4
sg64
Nsg71
g67
sg72
g73
sg74
S'indiv.distanceMatingSeason()'
p78
sg75
Nsbsbsg71
g61
sg72
S'+'
sg74
S'/'
sg75
(i__main__
Node
p79
(dp80
g63
I3
sg64
Nsg71
g65
sg72
S'indiv.getTailSize()'
p81
sg74
S'indiv.getEnergy()'
p82
sg75
Nsbsbsg71
Nsg72
S'/'
sg74
S'-'
sg75
(i__main__
Node
p83
(dp84
g64
Nsg71
g61
sg63
I2
sg72
g81
sg74
S'indiv.getTailBrightness()'
p85
sg75
NsbsbsS'tailBrigh'
p86
F0
sS'maxSteering'
p87
I30
sS'energy'
p88
F0.5
sS'lastScale'
p89
F5.5
sb.(i__main__
Data_mobile
p1
(dp2
S'vel_y'
p3
F-0.11690613105995595
sS'vel_x'
p4
F-0.24116753655456796
sS'pos_x'
p5
F-12.724369346714091
sS'pos_y'
p6
F3.0705056940666653
sS'isAlive'
p7
I01
sS'cumulativeEnergy'
p8
F0.5
sS'geno'
p9
(lp10
S'target'
p11
asS'accel_x'
p12
F0
sS'accel_y'
p13
F0
sS'visionAngle'
p14
I150
sS'maxAccel'
p15
I2
sS'maxVel'
p16
F0.5
sS'age'
p17
I0
sS'tailSize'
p18
F0.65140499372696281
sS'sexualgeno'
p19
(i__main__
Node
p20
(dp21
S'depth'
p22
I1
sS'right'
p23
(i__main__
Node
p24
(dp25
g22
I2
sg23
NsS'parent'
p26
g20
sS'float_size'
p27
S'indiv.randF()'
p28
sS'float_bright'
p29
S'indiv.getTailSize()'
p30
sS'left'
p31
Nsbsg26
Nsg27
S'/'
sg29
S'-'
sg31
(i__main__
Node
p32
(dp33
g23
Nsg26
g20
sg22
I2
sg27
S'indiv.getNumPreysNeigh()'
p34
sg29
g30
sg31
NsbsbsS'tailBrigh'
p35
F1.9647621387290559
sS'maxSteering'
p36
I30
sS'energy'
p37
F0.5
sS'lastScale'
p38
F5.5
sb.(i__main__
Data_mobile
p1
(dp2
S'vel_y'
p3
F0.28140769745543498
sS'vel_x'
p4
F-0.2713970526148235
sS'pos_x'
p5
F-37.873347965061249
sS'pos_y'
p6
F-18.416622425936701
sS'isAlive'
p7
I01
sS'cumulativeEnergy'
p8
F0.5
sS'geno'
p9
(lp10
(lp11
S'currentVelocity'
p12
a(lp13
S'alignment'
p14
aa(lp15
(lp16
(lp17
S'POINT./'
p18
aaS'currentVelocity'
p19
aS'flee'
p20
aS'alignment'
p21
a(lp22
S'POINT.+'
p23
aS'currentVelocity'
p24
a(lp25
S'target'
p26
aa(lp27
(lp28
S'alignment'
p29
aa(lp30
S'POINT.+'
p31
aaaaS'separation'
p32
aa(lp33
S'currentVelocity'
p34
aS'currentVelocity'
p35
a(lp36
S'flee'
p37
aS'flee'
p38
aa(lp39
S'target'
p40
a(lp41
S'target'
p42
aaaa(lp43
S'target'
p44
aaS'currentVelocity'
p45
aS'cohesion'
p46
aaS'target'
p47
aaS'POINT.+'
p48
aS'cohesion'
p49
a(lp50
S'target'
p51
aa(lp52
(lp53
S'cohesion'
p54
aaS'alignment'
p55
aasS'accel_x'
p56
F0
sS'accel_y'
p57
F0
sS'visionAngle'
p58
I150
sS'maxAccel'
p59
I2
sS'maxVel'
p60
F0.5
sS'age'
p61
I0
sS'tailSize'
p62
F0
sS'sexualgeno'
p63
(i__main__
Node
p64
(dp65
S'depth'
p66
I1
sS'right'
p67
(i__main__
Node
p68
(dp69
g66
I2
sg67
NsS'parent'
p70
g64
sS'float_size'
p71
S'indiv.getNumPreysNeigh()'
p72
sS'float_bright'
p73
S'indiv.getTailBrightness()'
p74
sS'left'
p75
Nsbsg70
Nsg71
S'/'
sg73
S'-'
sg75
(i__main__
Node
p76
(dp77
g66
I2
sg67
(i__main__
Node
p78
(dp79
g66
I3
sg67
Nsg70
g76
sg71
S'indiv.getNumPredatorsNeigh()'
p80
sg73
S'indiv.getEnergy()'
p81
sg75
Nsbsg70
g64
sg71
S'*'
sg73
S'-'
sg75
(i__main__
Node
p82
(dp83
g66
I3
sg67
Nsg70
g76
sg71
g74
sg73
g80
sg75
NsbsbsbsS'tailBrigh'
p84
F0
sS'maxSteering'
p85
I30
sS'energy'
p86
F0.5
sS'lastScale'
p87
F5.5
sb.(i__main__
Data_mobile
p1
(dp2
S'vel_y'
p3
F-0.11483903328790641
sS'vel_x'
p4
F-0.19200821738677223
sS'pos_x'
p5
F-130.66982561676107
sS'pos_y'
p6
F57.125609192287989
sS'isAlive'
p7
I01
sS'cumulativeEnergy'
p8
F0.5
sS'geno'
p9
(lp10
(lp11
S'currentVelocity'
p12
a(lp13
S'flee'
p14
aS'POINT.+'
p15
aa(lp16
(lp17
(lp18
S'POINT./'
p19
aaS'currentVelocity'
p20
aS'flee'
p21
aS'alignment'
p22
a(lp23
S'POINT.+'
p24
aS'currentVelocity'
p25
a(lp26
S'target'
p27
aa(lp28
(lp29
S'alignment'
p30
aa(lp31
S'target'
p32
aaaaS'POINT.+'
p33
aa(lp34
S'currentVelocity'
p35
aS'currentVelocity'
p36
a(lp37
S'flee'
p38
aS'flee'
p39
aa(lp40
S'target'
p41
a(lp42
S'target'
p43
aaaa(lp44
S'POINT.*'
p45
aa(lp46
(lp47
S'target'
p48
aaaS'cohesion'
p49
aaS'target'
p50
aaS'POINT.+'
p51
aS'cohesion'
p52
a(lp53
S'target'
p54
aa(lp55
(lp56
S'POINT.+'
p57
aaS'alignment'
p58
aasS'accel_x'
p59
F0
sS'accel_y'
p60
F0
sS'visionAngle'
p61
I150
sS'maxAccel'
p62
I2
sS'maxVel'
p63
F0.5
sS'age'
p64
I0
sS'tailSize'
p65
F0
sS'sexualgeno'
p66
(i__main__
Node
p67
(dp68
S'depth'
p69
I1
sS'right'
p70
(i__main__
Node
p71
(dp72
g69
I2
sg70
NsS'parent'
p73
g67
sS'float_size'
p74
S'indiv.randF()'
p75
sS'float_bright'
p76
S'indiv.getTailSize()'
p77
sS'left'
p78
Nsbsg73
Nsg74
S'/'
sg76
S'-'
sg78
(i__main__
Node
p79
(dp80
g69
I2
sg70
Nsg73
g67
sg74
S'indiv.getEnergy()'
p81
sg76
g77
sg78
NsbsbsS'tailBrigh'
p82
F0
sS'maxSteering'
p83
I30
sS'energy'
p84
F0.5
sS'lastScale'
p85
F5.5
sb.(i__main__
Data_mobile
p1
(dp2
S'vel_y'
p3
F0.050515387933502257
sS'vel_x'
p4
F-0.49451551925053816
sS'pos_x'
p5
F-63.075439533758235
sS'pos_y'
p6
F28.607964852563853
sS'isAlive'
p7
I01
sS'cumulativeEnergy'
p8
F0.5
sS'geno'
p9
(lp10
S'currentVelocity'
p11
aS'currentVelocity'
p12
a(lp13
S'flee'
p14
a(lp15
(lp16
(lp17
S'POINT.*'
p18
a(lp19
S'target'
p20
aaaa(lp21
(lp22
S'cohesion'
p23
aaaaa(lp24
S'target'
p25
a(lp26
S'target'
p27
aaasS'accel_x'
p28
F0
sS'accel_y'
p29
F0
sS'visionAngle'
p30
I150
sS'maxAccel'
p31
I2
sS'maxVel'
p32
F0.5
sS'age'
p33
I0
sS'tailSize'
p34
I0
sS'sexualgeno'
p35
(i__main__
Node
p36
(dp37
S'depth'
p38
I1
sS'right'
p39
(i__main__
Node
p40
(dp41
g38
I2
sg39
NsS'parent'
p42
g36
sS'float_size'
p43
S'indiv.distanceMatingSeason()'
p44
sS'float_bright'
p45
g44
sS'left'
p46
Nsbsg42
Nsg43
S'/'
sg45
S'-'
sg46
(i__main__
Node
p47
(dp48
g38
I2
sg39
(i__main__
Node
p49
(dp50
g38
I3
sg39
(i__main__
Node
p51
(dp52
g38
I4
sg39
Nsg42
g49
sg43
S'indiv.getTailSize()'
p53
sg45
S'indiv.getTailBrightness()'
p54
sg46
Nsbsg42
g47
sg43
S'-'
sg45
S'*'
sg46
(i__main__
Node
p55
(dp56
g38
I4
sg39
Nsg42
g49
sg43
S'indiv.randF()'
p57
sg45
g54
sg46
Nsbsbsg42
g36
sg43
S'/'
sg45
S'*'
sg46
(i__main__
Node
p58
(dp59
g38
I3
sg39
(i__main__
Node
p60
(dp61
g38
I4
sg39
Nsg42
g58
sg43
g57
sg45
g57
sg46
Nsbsg42
g47
sg43
S'*'
sg45
S'/'
sg46
(i__main__
Node
p62
(dp63
g38
I4
sg39
Nsg42
g58
sg43
g54
sg45
g53
sg46
NsbsbsbsbsS'tailBrigh'
p64
F1.9606877406597529e+071
sS'maxSteering'
p65
I30
sS'energy'
p66
F0.5
sS'lastScale'
p67
F5.5
sb.(i__main__
Data_mobile
p1
(dp2
S'vel_y'
p3
F0.018450384700626071
sS'vel_x'
p4
F-0.24931826886303987
sS'pos_x'
p5
F-149.78265328941831
sS'pos_y'
p6
F32.451806216907457
sS'isAlive'
p7
I01
sS'cumulativeEnergy'
p8
F0.5
sS'geno'
p9
(lp10
S'currentVelocity'
p11
aS'currentVelocity'
p12
aS'flee'
p13
a(lp14
S'target'
p15
a(lp16
S'target'
p17
aaasS'accel_x'
p18
F0
sS'accel_y'
p19
F0
sS'visionAngle'
p20
I150
sS'maxAccel'
p21
I2
sS'maxVel'
p22
F0.5
sS'age'
p23
I0
sS'tailSize'
p24
F20.878482697814452
sS'sexualgeno'
p25
(i__main__
Node
p26
(dp27
S'depth'
p28
I1
sS'right'
p29
(i__main__
Node
p30
(dp31
g28
I2
sg29
NsS'parent'
p32
g26
sS'float_size'
p33
S'indiv.distanceMatingSeason()'
p34
sS'float_bright'
p35
g34
sS'left'
p36
Nsbsg32
Nsg33
S'/'
sg35
S'-'
sg36
(i__main__
Node
p37
(dp38
g28
I2
sg29
(i__main__
Node
p39
(dp40
g28
I3
sg29
(i__main__
Node
p41
(dp42
g28
I4
sg29
Nsg32
g39
sg33
S'indiv.getTailSize()'
p43
sg35
S'indiv.getTailBrightness()'
p44
sg36
Nsbsg32
g37
sg33
S'-'
sg35
S'*'
sg36
(i__main__
Node
p45
(dp46
g28
I4
sg29
Nsg32
g39
sg33
S'indiv.randF()'
p47
sg35
g44
sg36
Nsbsbsg32
g26
sg33
S'/'
sg35
S'*'
sg36
(i__main__
Node
p48
(dp49
g28
I3
sg29
(i__main__
Node
p50
(dp51
g28
I4
sg29
Nsg32
g48
sg33
g47
sg35
g44
sg36
Nsbsg32
g37
sg33
S'+'
sg35
S'-'
sg36
(i__main__
Node
p52
(dp53
g28
I4
sg29
Nsg32
g48
sg33
g43
sg35
g34
sg36
NsbsbsbsbsS'tailBrigh'
p54
F0
sS'maxSteering'
p55
I30
sS'energy'
p56
F0.5
sS'lastScale'
p57
F5.5
sb.(i__main__
Data_mobile
p1
(dp2
S'vel_y'
p3
F-0.34368159992371289
sS'vel_x'
p4
F-0.25942853676488536
sS'pos_x'
p5
F-105.97247655455513
sS'pos_y'
p6
F26.957630597169647
sS'isAlive'
p7
I01
sS'cumulativeEnergy'
p8
F0.5
sS'geno'
p9
(lp10
(lp11
S'currentVelocity'
p12
a(lp13
S'flee'
p14
aS'flee'
p15
aa(lp16
(lp17
(lp18
S'POINT./'
p19
aaS'currentVelocity'
p20
aS'flee'
p21
aS'target'
p22
a(lp23
S'POINT.+'
p24
aS'currentVelocity'
p25
a(lp26
(lp27
S'POINT.+'
p28
aaa(lp29
(lp30
S'POINT.+'
p31
aa(lp32
S'POINT.+'
p33
aaaaS'alignment'
p34
aa(lp35
S'currentVelocity'
p36
aS'currentVelocity'
p37
a(lp38
(lp39
S'alignment'
p40
aaS'flee'
p41
aaS'POINT.+'
p42
aa(lp43
S'target'
p44
aa(lp45
S'flee'
p46
aaS'cohesion'
p47
aa(lp48
S'cohesion'
p49
aaaS'POINT./'
p50
a(lp51
S'target'
p52
aa(lp53
S'target'
p54
aaS'currentVelocity'
p55
asS'accel_x'
p56
F0
sS'accel_y'
p57
F0
sS'visionAngle'
p58
I150
sS'maxAccel'
p59
I2
sS'maxVel'
p60
F0.5
sS'age'
p61
I0
sS'tailSize'
p62
I0
sS'sexualgeno'
p63
(i__main__
Node
p64
(dp65
S'depth'
p66
I1
sS'right'
p67
(i__main__
Node
p68
(dp69
g66
I2
sg67
(i__main__
Node
p70
(dp71
g66
I3
sg67
NsS'parent'
p72
g68
sS'float_size'
p73
S'indiv.getTailSize()'
p74
sS'float_bright'
p75
S'indiv.getTailBrightness()'
p76
sS'left'
p77
Nsbsg72
g64
sg73
S'-'
sg75
S'*'
sg77
(i__main__
Node
p78
(dp79
g66
I3
sg67
Nsg72
g68
sg73
S'indiv.randF()'
p80
sg75
g76
sg77
Nsbsbsg72
Nsg73
S'/'
sg75
S'-'
sg77
(i__main__
Node
p81
(dp82
g66
I2
sg67
(i__main__
Node
p83
(dp84
g66
I3
sg67
Nsg72
g81
sg73
S'indiv.getNumPredatorsNeigh()'
p85
sg75
S'indiv.getEnergy()'
p86
sg77
Nsbsg72
g64
sg73
S'*'
sg75
S'-'
sg77
(i__main__
Node
p87
(dp88
g66
I3
sg67
Nsg72
g81
sg73
g76
sg75
g85
sg77
NsbsbsbsS'tailBrigh'
p89
F0
sS'maxSteering'
p90
I30
sS'energy'
p91
F0.5
sS'lastScale'
p92
F5.5
sb.(i__main__
Data_mobile
p1
(dp2
S'vel_y'
p3
F-0.22092872182790424
sS'vel_x'
p4
F0.41752849010304732
sS'pos_x'
p5
F-176.50227755629584
sS'pos_y'
p6
F-29.249778505244297
sS'isAlive'
p7
I01
sS'cumulativeEnergy'
p8
F0.5
sS'geno'
p9
(lp10
(lp11
S'currentVelocity'
p12
a(lp13
S'flee'
p14
aS'flee'
p15
aa(lp16
(lp17
(lp18
S'POINT./'
p19
aaS'currentVelocity'
p20
aS'flee'
p21
aS'alignment'
p22
a(lp23
S'POINT.+'
p24
aS'currentVelocity'
p25
a(lp26
S'target'
p27
aa(lp28
(lp29
S'alignment'
p30
aa(lp31
S'target'
p32
aaaaS'POINT.+'
p33
aa(lp34
S'POINT./'
p35
aa(lp36
S'target'
p37
aa(lp38
(lp39
S'target'
p40
aaaS'currentVelocity'
p41
aaS'target'
p42
aaS'POINT.+'
p43
aS'cohesion'
p44
a(lp45
S'target'
p46
aa(lp47
(lp48
S'POINT.+'
p49
aaS'alignment'
p50
aasS'accel_x'
p51
F0
sS'accel_y'
p52
F0
sS'visionAngle'
p53
I150
sS'maxAccel'
p54
I2
sS'maxVel'
p55
F0.5
sS'age'
p56
I0
sS'tailSize'
p57
F0
sS'sexualgeno'
p58
(i__main__
Node
p59
(dp60
S'depth'
p61
I1
sS'right'
p62
(i__main__
Node
p63
(dp64
g61
I2
sg62
NsS'parent'
p65
g59
sS'float_size'
p66
S'indiv.randF()'
p67
sS'float_bright'
p68
S'indiv.getTailSize()'
p69
sS'left'
p70
Nsbsg65
Nsg66
S'/'
sg68
S'-'
sg70
(i__main__
Node
p71
(dp72
g61
I2
sg62
Nsg65
g59
sg66
S'indiv.getEnergy()'
p73
sg68
g69
sg70
NsbsbsS'tailBrigh'
p74
F0
sS'maxSteering'
p75
I30
sS'energy'
p76
F0.5
sS'lastScale'
p77
F5.5
sb.(i__main__
Data_mobile
p1
(dp2
S'vel_y'
p3
F0.066749668893123254
sS'vel_x'
p4
F-0.49382736907668462
sS'pos_x'
p5
F-138.21123428874151
sS'pos_y'
p6
F31.678241155002784
sS'isAlive'
p7
I01
sS'cumulativeEnergy'
p8
F0.5
sS'geno'
p9
(lp10
(lp11
S'currentVelocity'
p12
a(lp13
S'alignment'
p14
aa(lp15
(lp16
(lp17
S'POINT./'
p18
aaS'currentVelocity'
p19
aS'flee'
p20
aS'alignment'
p21
a(lp22
S'POINT.+'
p23
aS'currentVelocity'
p24
a(lp25
S'target'
p26
aa(lp27
(lp28
S'alignment'
p29
aa(lp30
S'POINT.+'
p31
aaaaS'separation'
p32
aa(lp33
S'currentVelocity'
p34
aS'currentVelocity'
p35
a(lp36
S'cohesion'
p37
aS'POINT.-'
p38
aS'POINT./'
p39
aa(lp40
S'target'
p41
a(lp42
S'target'
p43
aaaa(lp44
S'target'
p45
aa(lp46
(lp47
S'target'
p48
aaaS'cohesion'
p49
aaS'target'
p50
aaS'POINT.+'
p51
aS'cohesion'
p52
a(lp53
S'target'
p54
aa(lp55
(lp56
S'cohesion'
p57
aaS'alignment'
p58
aasS'accel_x'
p59
F0
sS'accel_y'
p60
F0
sS'visionAngle'
p61
I150
sS'maxAccel'
p62
I2
sS'maxVel'
p63
F0.5
sS'age'
p64
I0
sS'tailSize'
p65
I0
sS'sexualgeno'
p66
(i__main__
Node
p67
(dp68
S'depth'
p69
I1
sS'right'
p70
(i__main__
Node
p71
(dp72
g69
I2
sg70
NsS'parent'
p73
g67
sS'float_size'
p74
S'indiv.getNumPreysNeigh()'
p75
sS'float_bright'
p76
S'indiv.getTailBrightness()'
p77
sS'left'
p78
Nsbsg73
Nsg74
S'/'
sg76
S'-'
sg78
(i__main__
Node
p79
(dp80
g69
I2
sg70
(i__main__
Node
p81
(dp82
g69
I3
sg70
Nsg73
g79
sg74
S'indiv.randF()'
p83
sg76
g77
sg78
Nsbsg73
g67
sg74
S'+'
sg76
S'-'
sg78
(i__main__
Node
p84
(dp85
g69
I3
sg70
Nsg73
g79
sg74
S'indiv.getTailSize()'
p86
sg76
S'indiv.distanceMatingSeason()'
p87
sg78
NsbsbsbsS'tailBrigh'
p88
F0
sS'maxSteering'
p89
I30
sS'energy'
p90
F0.5
sS'lastScale'
p91
F5.5
sb.(i__main__
Data_mobile
p1
(dp2
S'vel_y'
p3
F-0.27892006767854222
sS'vel_x'
p4
F-0.40819918768847868
sS'pos_x'
p5
F-101.26631398134442
sS'pos_y'
p6
F26.557430802261372
sS'isAlive'
p7
I01
sS'cumulativeEnergy'
p8
F0.5
sS'geno'
p9
(lp10
(lp11
S'currentVelocity'
p12
a(lp13
S'flee'
p14
aS'POINT.+'
p15
aa(lp16
(lp17
(lp18
S'POINT./'
p19
aaS'currentVelocity'
p20
aS'flee'
p21
aS'alignment'
p22
a(lp23
S'POINT.+'
p24
aS'currentVelocity'
p25
a(lp26
S'target'
p27
aa(lp28
(lp29
S'alignment'
p30
aa(lp31
S'target'
p32
aaaaS'separation'
p33
aa(lp34
S'currentVelocity'
p35
aS'currentVelocity'
p36
a(lp37
S'flee'
p38
aS'flee'
p39
aa(lp40
S'target'
p41
a(lp42
S'target'
p43
aaaa(lp44
S'POINT.+'
p45
aa(lp46
(lp47
S'target'
p48
aaaS'cohesion'
p49
aaS'target'
p50
aaS'POINT.+'
p51
aS'cohesion'
p52
a(lp53
S'target'
p54
aa(lp55
(lp56
S'cohesion'
p57
aaS'alignment'
p58
aasS'accel_x'
p59
F0
sS'accel_y'
p60
F0
sS'visionAngle'
p61
I150
sS'maxAccel'
p62
I2
sS'maxVel'
p63
F0.5
sS'age'
p64
I0
sS'tailSize'
p65
F0
sS'sexualgeno'
p66
(i__main__
Node
p67
(dp68
S'depth'
p69
I1
sS'right'
p70
(i__main__
Node
p71
(dp72
g69
I2
sg70
NsS'parent'
p73
g67
sS'float_size'
p74
S'indiv.randF()'
p75
sS'float_bright'
p76
S'indiv.getTailSize()'
p77
sS'left'
p78
Nsbsg73
Nsg74
S'/'
sg76
S'-'
sg78
(i__main__
Node
p79
(dp80
g69
I2
sg70
(i__main__
Node
p81
(dp82
g69
I3
sg70
Nsg73
g79
sg74
S'indiv.getNumPredatorsNeigh()'
p83
sg76
S'indiv.getEnergy()'
p84
sg78
Nsbsg73
g67
sg74
S'*'
sg76
S'-'
sg78
(i__main__
Node
p85
(dp86
g69
I3
sg70
Nsg73
g79
sg74
S'indiv.getTailBrightness()'
p87
sg76
g83
sg78
NsbsbsbsS'tailBrigh'
p88
F0
sS'maxSteering'
p89
I30
sS'energy'
p90
F0.5
sS'lastScale'
p91
F5.5
sb.(i__main__
Data_mobile
p1
(dp2
S'vel_y'
p3
F0.31445892231761491
sS'vel_x'
p4
F0.12651858581158579
sS'pos_x'
p5
F-2.3274379404443053
sS'pos_y'
p6
F10.830345138799014
sS'isAlive'
p7
I01
sS'cumulativeEnergy'
p8
F0.5
sS'geno'
p9
(lp10
(lp11
S'currentVelocity'
p12
a(lp13
S'flee'
p14
aS'flee'
p15
aa(lp16
(lp17
(lp18
S'POINT./'
p19
aaS'currentVelocity'
p20
aS'flee'
p21
aS'alignment'
p22
a(lp23
S'POINT.+'
p24
aS'currentVelocity'
p25
a(lp26
S'target'
p27
aa(lp28
(lp29
S'alignment'
p30
aa(lp31
S'target'
p32
aaaaS'POINT.+'
p33
aa(lp34
S'currentVelocity'
p35
aS'currentVelocity'
p36
a(lp37
S'flee'
p38
aS'flee'
p39
aa(lp40
S'target'
p41
a(lp42
S'target'
p43
aaaa(lp44
S'target'
p45
aa(lp46
(lp47
S'target'
p48
aaaS'currentVelocity'
p49
aaS'target'
p50
aaS'POINT.+'
p51
aS'cohesion'
p52
a(lp53
S'target'
p54
aa(lp55
(lp56
S'POINT.+'
p57
aaS'alignment'
p58
aasS'accel_x'
p59
F0
sS'accel_y'
p60
F0
sS'visionAngle'
p61
I150
sS'maxAccel'
p62
I2
sS'maxVel'
p63
F0.5
sS'age'
p64
I0
sS'tailSize'
p65
I0
sS'sexualgeno'
p66
(i__main__
Node
p67
(dp68
S'depth'
p69
I1
sS'right'
p70
(i__main__
Node
p71
(dp72
g69
I2
sg70
NsS'parent'
p73
g67
sS'float_size'
p74
S'indiv.randF()'
p75
sS'float_bright'
p76
S'indiv.getTailSize()'
p77
sS'left'
p78
Nsbsg73
Nsg74
S'/'
sg76
S'-'
sg78
(i__main__
Node
p79
(dp80
g69
I2
sg70
Nsg73
g67
sg74
S'indiv.getEnergy()'
p81
sg76
g77
sg78
NsbsbsS'tailBrigh'
p82
F0
sS'maxSteering'
p83
I30
sS'energy'
p84
F0.5
sS'lastScale'
p85
F5.5
sb.(i__main__
Data_mobile
p1
(dp2
S'vel_y'
p3
F-0.0019848080447657235
sS'vel_x'
p4
F0.074681117754223508
sS'pos_x'
p5
F-88.124188182279028
sS'pos_y'
p6
F49.606428178746775
sS'isAlive'
p7
I01
sS'cumulativeEnergy'
p8
F0.5
sS'geno'
p9
(lp10
(lp11
S'POINT./'
p12
aaS'POINT./'
p13
a(lp14
S'target'
p15
aaS'alignment'
p16
aS'currentVelocity'
p17
asS'accel_x'
p18
F0
sS'accel_y'
p19
F0
sS'visionAngle'
p20
I150
sS'maxAccel'
p21
I2
sS'maxVel'
p22
F0.5
sS'age'
p23
I0
sS'tailSize'
p24
F3.1697055075860772
sS'sexualgeno'
p25
(i__main__
Node
p26
(dp27
S'depth'
p28
I1
sS'right'
p29
(i__main__
Node
p30
(dp31
g28
I2
sg29
(i__main__
Node
p32
(dp33
g28
I3
sg29
(i__main__
Node
p34
(dp35
g28
I4
sg29
NsS'parent'
p36
g32
sS'float_size'
p37
S'indiv.randF()'
p38
sS'float_bright'
p39
g38
sS'left'
p40
Nsbsg36
g30
sg37
S'/'
sg39
S'/'
sg40
(i__main__
Node
p41
(dp42
g28
I4
sg29
Nsg36
g32
sg37
g38
sg39
S'indiv.distanceMatingSeason()'
p43
sg40
Nsbsbsg36
g26
sg37
S'+'
sg39
S'/'
sg40
(i__main__
Node
p44
(dp45
g28
I3
sg29
Nsg36
g30
sg37
S'indiv.getTailSize()'
p46
sg39
S'indiv.getEnergy()'
p47
sg40
Nsbsbsg36
Nsg37
S'/'
sg39
S'-'
sg40
(i__main__
Node
p48
(dp49
g28
I2
sg29
Nsg36
g26
sg37
g46
sg39
S'indiv.getTailBrightness()'
p50
sg40
NsbsbsS'tailBrigh'
p51
F0
sS'maxSteering'
p52
I30
sS'energy'
p53
F0.5
sS'lastScale'
p54
F5.5
sb.(i__main__
Data_mobile
p1
(dp2
S'vel_y'
p3
I0
sS'vel_x'
p4
I0
sS'pos_x'
p5
I-9579
sS'pos_y'
p6
I9779
sS'isAlive'
p7
I00
sS'cumulativeEnergy'
p8
F0.5
sS'geno'
p9
(lp10
(lp11
S'currentVelocity'
p12
a(lp13
S'flee'
p14
aS'POINT.+'
p15
aa(lp16
(lp17
(lp18
S'POINT./'
p19
aaS'currentVelocity'
p20
aS'flee'
p21
aS'alignment'
p22
a(lp23
S'POINT.+'
p24
aS'currentVelocity'
p25
a(lp26
S'target'
p27
aaS'flee'
p28
aaS'separation'
p29
aa(lp30
S'currentVelocity'
p31
aS'currentVelocity'
p32
a(lp33
S'flee'
p34
aS'flee'
p35
aa(lp36
S'target'
p37
a(lp38
S'target'
p39
aaaa(lp40
S'target'
p41
aa(lp42
(lp43
S'target'
p44
aaaS'cohesion'
p45
aaS'target'
p46
aaS'POINT.+'
p47
aS'cohesion'
p48
a(lp49
S'target'
p50
aa(lp51
(lp52
S'cohesion'
p53
aaS'alignment'
p54
aasS'accel_x'
p55
F0
sS'accel_y'
p56
F0
sS'visionAngle'
p57
I150
sS'maxAccel'
p58
I2
sS'maxVel'
p59
F0.5
sS'age'
p60
I0
sS'tailSize'
p61
F0
sS'sexualgeno'
p62
(i__main__
Node
p63
(dp64
S'depth'
p65
I1
sS'right'
p66
(i__main__
Node
p67
(dp68
g65
I2
sg66
NsS'parent'
p69
g63
sS'float_size'
p70
S'indiv.randF()'
p71
sS'float_bright'
p72
S'indiv.getTailSize()'
p73
sS'left'
p74
Nsbsg69
Nsg70
S'/'
sg72
S'-'
sg74
(i__main__
Node
p75
(dp76
g65
I2
sg66
(i__main__
Node
p77
(dp78
g65
I3
sg66
(i__main__
Node
p79
(dp80
g65
I4
sg66
Nsg69
g77
sg70
S'indiv.getNumPredatorsNeigh()'
p81
sg72
S'indiv.getEnergy()'
p82
sg74
Nsbsg69
g75
sg70
S'*'
sg72
S'-'
sg74
(i__main__
Node
p83
(dp84
g65
I4
sg66
Nsg69
g77
sg70
S'indiv.getTailBrightness()'
p85
sg72
g81
sg74
Nsbsbsg69
g63
sg70
S'-'
sg72
S'/'
sg74
(i__main__
Node
p86
(dp87
g65
I3
sg66
(i__main__
Node
p88
(dp89
g65
I4
sg66
Nsg69
g86
sg70
g81
sg72
g82
sg74
Nsbsg69
g75
sg70
S'*'
sg72
S'-'
sg74
(i__main__
Node
p90
(dp91
g65
I4
sg66
Nsg69
g86
sg70
g85
sg72
g81
sg74
NsbsbsbsbsS'tailBrigh'
p92
F0
sS'maxSteering'
p93
I30
sS'energy'
p94
F0.5
sS'lastScale'
p95
F5.5
sb.(i__main__
Data_mobile
p1
(dp2
S'vel_y'
p3
I0
sS'vel_x'
p4
I0
sS'pos_x'
p5
I-9579
sS'pos_y'
p6
I9779
sS'isAlive'
p7
I00
sS'cumulativeEnergy'
p8
F0.5
sS'geno'
p9
(lp10
(lp11
S'currentVelocity'
p12
a(lp13
S'flee'
p14
aS'POINT.+'
p15
aa(lp16
(lp17
(lp18
S'POINT./'
p19
aaS'currentVelocity'
p20
aS'flee'
p21
aS'alignment'
p22
a(lp23
S'POINT.+'
p24
aS'currentVelocity'
p25
a(lp26
S'POINT./'
p27
aa(lp28
(lp29
S'alignment'
p30
aa(lp31
S'target'
p32
aaaaS'separation'
p33
aa(lp34
S'currentVelocity'
p35
aS'currentVelocity'
p36
a(lp37
S'flee'
p38
aS'flee'
p39
aa(lp40
S'target'
p41
aS'alignment'
p42
aaa(lp43
S'target'
p44
aa(lp45
(lp46
S'target'
p47
aaaS'cohesion'
p48
aaS'target'
p49
aaS'POINT.+'
p50
aS'cohesion'
p51
a(lp52
S'target'
p53
aa(lp54
(lp55
S'cohesion'
p56
aaS'alignment'
p57
aasS'accel_x'
p58
F0
sS'accel_y'
p59
F0
sS'visionAngle'
p60
I150
sS'maxAccel'
p61
I2
sS'maxVel'
p62
F0.5
sS'age'
p63
I0
sS'tailSize'
p64
F0
sS'sexualgeno'
p65
(i__main__
Node
p66
(dp67
S'depth'
p68
I1
sS'right'
p69
(i__main__
Node
p70
(dp71
g68
I2
sg69
NsS'parent'
p72
g66
sS'float_size'
p73
S'indiv.randF()'
p74
sS'float_bright'
p75
S'indiv.getTailSize()'
p76
sS'left'
p77
Nsbsg72
Nsg73
S'/'
sg75
S'-'
sg77
(i__main__
Node
p78
(dp79
g68
I2
sg69
(i__main__
Node
p80
(dp81
g68
I3
sg69
Nsg72
g78
sg73
S'indiv.getNumPredatorsNeigh()'
p82
sg75
S'indiv.getEnergy()'
p83
sg77
Nsbsg72
g66
sg73
S'/'
sg75
S'+'
sg77
(i__main__
Node
p84
(dp85
g68
I3
sg69
Nsg72
g78
sg73
S'indiv.distanceMatingSeason()'
p86
sg75
g74
sg77
NsbsbsbsS'tailBrigh'
p87
F4.2565197383445703
sS'maxSteering'
p88
I30
sS'energy'
p89
F0.5
sS'lastScale'
p90
F5.5
sb.(i__main__
Data_mobile
p1
(dp2
S'vel_y'
p3
I0
sS'vel_x'
p4
I0
sS'pos_x'
p5
I-9579
sS'pos_y'
p6
I9779
sS'isAlive'
p7
I00
sS'cumulativeEnergy'
p8
F0.5
sS'geno'
p9
(lp10
(lp11
S'currentVelocity'
p12
a(lp13
S'alignment'
p14
aa(lp15
(lp16
(lp17
S'POINT./'
p18
aaS'currentVelocity'
p19
aS'POINT.+'
p20
aS'alignment'
p21
a(lp22
S'POINT.+'
p23
aS'currentVelocity'
p24
a(lp25
S'target'
p26
aa(lp27
(lp28
S'alignment'
p29
aa(lp30
S'POINT.+'
p31
aaaaS'separation'
p32
aa(lp33
S'currentVelocity'
p34
aS'currentVelocity'
p35
a(lp36
S'flee'
p37
aS'flee'
p38
aa(lp39
S'target'
p40
a(lp41
S'target'
p42
aaaa(lp43
S'target'
p44
aa(lp45
(lp46
S'target'
p47
aaaS'cohesion'
p48
aaS'target'
p49
aaS'POINT.+'
p50
aS'cohesion'
p51
a(lp52
S'target'
p53
aa(lp54
(lp55
S'cohesion'
p56
aaS'alignment'
p57
aasS'accel_x'
p58
F0
sS'accel_y'
p59
F0
sS'visionAngle'
p60
I150
sS'maxAccel'
p61
I2
sS'maxVel'
p62
F0.5
sS'age'
p63
I0
sS'tailSize'
p64
F20
sS'sexualgeno'
p65
(i__main__
Node
p66
(dp67
S'depth'
p68
I1
sS'right'
p69
(i__main__
Node
p70
(dp71
g68
I2
sg69
NsS'parent'
p72
g66
sS'float_size'
p73
S'indiv.getNumPreysNeigh()'
p74
sS'float_bright'
p75
S'indiv.getTailBrightness()'
p76
sS'left'
p77
Nsbsg72
Nsg73
S'/'
sg75
S'-'
sg77
(i__main__
Node
p78
(dp79
g68
I2
sg69
(i__main__
Node
p80
(dp81
g68
I3
sg69
Nsg72
g78
sg73
S'indiv.distanceMatingSeason()'
p82
sg75
S'indiv.randF()'
p83
sg77
Nsbsg72
g66
sg73
S'+'
sg75
S'+'
sg77
(i__main__
Node
p84
(dp85
g68
I3
sg69
Nsg72
g78
sg73
g82
sg75
g83
sg77
NsbsbsbsS'tailBrigh'
p86
F2.6331959531581948
sS'maxSteering'
p87
I30
sS'energy'
p88
F0.5
sS'lastScale'
p89
F5.5
sb.(i__main__
Data_mobile
p1
(dp2
S'vel_y'
p3
I0
sS'vel_x'
p4
I0
sS'pos_x'
p5
I-9579
sS'pos_y'
p6
I9779
sS'isAlive'
p7
I00
sS'cumulativeEnergy'
p8
F0.5
sS'geno'
p9
(lp10
S'currentVelocity'
p11
aS'currentVelocity'
p12
a(lp13
S'flee'
p14
a(lp15
(lp16
(lp17
S'POINT.*'
p18
a(lp19
(lp20
S'POINT./'
p21
aa(lp22
(lp23
S'flee'
p24
aaaaaa(lp25
S'POINT.+'
p26
aaaa(lp27
S'target'
p28
a(lp29
S'target'
p30
aaasS'accel_x'
p31
F0
sS'accel_y'
p32
F0
sS'visionAngle'
p33
I150
sS'maxAccel'
p34
I2
sS'maxVel'
p35
F0.5
sS'age'
p36
I0
sS'tailSize'
p37
F0
sS'sexualgeno'
p38
(i__main__
Node
p39
(dp40
S'depth'
p41
I1
sS'right'
p42
(i__main__
Node
p43
(dp44
g42
NsS'parent'
p45
g39
sg41
I2
sS'float_size'
p46
S'indiv.distanceMatingSeason()'
p47
sS'float_bright'
p48
g47
sS'left'
p49
Nsbsg45
Nsg46
S'/'
sg48
S'-'
sg49
(i__main__
Node
p50
(dp51
g41
I2
sg42
(i__main__
Node
p52
(dp53
g41
I3
sg42
(i__main__
Node
p54
(dp55
g41
I4
sg42
Nsg45
g52
sg46
S'indiv.getTailSize()'
p56
sg48
S'indiv.getTailBrightness()'
p57
sg49
Nsbsg45
g50
sg46
S'-'
sg48
S'*'
sg49
(i__main__
Node
p58
(dp59
g41
I4
sg42
Nsg45
g52
sg46
S'indiv.randF()'
p60
sg48
g57
sg49
Nsbsbsg45
g39
sg46
S'/'
sg48
S'*'
sg49
(i__main__
Node
p61
(dp62
g41
I3
sg42
(i__main__
Node
p63
(dp64
g41
I4
sg42
Nsg45
g61
sg46
S'indiv.getNumPredatorsNeigh()'
p65
sg48
S'indiv.getEnergy()'
p66
sg49
Nsbsg45
g50
sg46
S'*'
sg48
S'-'
sg49
(i__main__
Node
p67
(dp68
g41
I4
sg42
Nsg45
g61
sg46
g57
sg48
g65
sg49
NsbsbsbsbsS'tailBrigh'
p69
F0
sS'maxSteering'
p70
I30
sS'energy'
p71
F0.5
sS'lastScale'
p72
F5.5
sb.(i__main__
Data_mobile
p1
(dp2
S'vel_y'
p3
I0
sS'vel_x'
p4
I0
sS'pos_x'
p5
I-9579
sS'pos_y'
p6
I9779
sS'isAlive'
p7
I00
sS'cumulativeEnergy'
p8
F0.5
sS'geno'
p9
(lp10
(lp11
S'currentVelocity'
p12
a(lp13
S'flee'
p14
aS'flee'
p15
aa(lp16
(lp17
(lp18
(lp19
S'POINT./'
p20
a(lp21
S'currentEnergy'
p22
aaS'POINT.+'
p23
a(lp24
S'separation'
p25
aS'alignment'
p26
aaaS'POINT.+'
p27
aa(lp28
S'currentEnergy'
p29
aa(lp30
S'target'
p31
aaS'alignment'
p32
a(lp33
S'target'
p34
aS'POINT.+'
p35
aaS'POINT./'
p36
aa(lp37
S'currentVelocity'
p38
aS'currentVelocity'
p39
a(lp40
S'flee'
p41
aS'flee'
p42
aa(lp43
S'target'
p44
a(lp45
S'separation'
p46
aaaa(lp47
S'flee'
p48
aa(lp49
S'flee'
p50
aaS'cohesion'
p51
aaS'target'
p52
aaS'POINT./'
p53
aS'cohesion'
p54
aS'currentVelocity'
p55
a(lp56
(lp57
S'cohesion'
p58
aaS'alignment'
p59
aasS'accel_x'
p60
F0
sS'accel_y'
p61
F0
sS'visionAngle'
p62
I150
sS'maxAccel'
p63
I2
sS'maxVel'
p64
F0.5
sS'age'
p65
I0
sS'tailSize'
p66
I0
sS'sexualgeno'
p67
(i__main__
Node
p68
(dp69
S'depth'
p70
I1
sS'right'
p71
(i__main__
Node
p72
(dp73
g70
I2
sg71
(i__main__
Node
p74
(dp75
g70
I3
sg71
NsS'parent'
p76
g72
sS'float_size'
p77
S'indiv.getNumPredatorsNeigh()'
p78
sS'float_bright'
p79
S'indiv.getEnergy()'
p80
sS'left'
p81
Nsbsg76
g68
sg77
S'*'
sg79
S'-'
sg81
(i__main__
Node
p82
(dp83
g70
I3
sg71
Nsg76
g72
sg77
S'indiv.getTailBrightness()'
p84
sg79
g78
sg81
Nsbsbsg76
Nsg77
S'/'
sg79
S'-'
sg81
(i__main__
Node
p85
(dp86
g70
I2
sg71
(i__main__
Node
p87
(dp88
g70
I3
sg71
Nsg76
g85
sg77
g84
sg79
S'indiv.distanceMatingSeason()'
p89
sg81
Nsbsg76
g68
sg77
S'/'
sg79
S'-'
sg81
(i__main__
Node
p90
(dp91
g70
I3
sg71
Nsg76
g85
sg77
g89
sg79
g84
sg81
NsbsbsbsS'tailBrigh'
p92
F0
sS'maxSteering'
p93
I30
sS'energy'
p94
F0.5
sS'lastScale'
p95
F5.5
sb.(i__main__
Data_mobile
p1
(dp2
S'vel_y'
p3
I0
sS'vel_x'
p4
I0
sS'pos_x'
p5
I-9579
sS'pos_y'
p6
I9779
sS'isAlive'
p7
I00
sS'cumulativeEnergy'
p8
F0.5
sS'geno'
p9
(lp10
S'currentVelocity'
p11
aS'currentVelocity'
p12
a(lp13
S'separation'
p14
a(lp15
(lp16
(lp17
(lp18
(lp19
S'POINT./'
p20
aaS'currentVelocity'
p21
aS'flee'
p22
aS'alignment'
p23
a(lp24
S'POINT.+'
p25
aS'currentVelocity'
p26
a(lp27
S'target'
p28
aa(lp29
(lp30
S'alignment'
p31
aa(lp32
S'POINT.+'
p33
aaaaS'separation'
p34
aa(lp35
S'currentVelocity'
p36
aS'currentVelocity'
p37
a(lp38
S'flee'
p39
aS'flee'
p40
aa(lp41
S'target'
p42
a(lp43
S'target'
p44
aaaa(lp45
S'target'
p46
aa(lp47
(lp48
S'target'
p49
aaaS'cohesion'
p50
aaa(lp51
S'POINT.+'
p52
aaaa(lp53
S'target'
p54
a(lp55
S'target'
p56
aaasS'accel_x'
p57
F0
sS'accel_y'
p58
F0
sS'visionAngle'
p59
I150
sS'maxAccel'
p60
I2
sS'maxVel'
p61
F0.5
sS'age'
p62
I0
sS'tailSize'
p63
F0
sS'sexualgeno'
p64
(i__main__
Node
p65
(dp66
S'depth'
p67
I1
sS'right'
p68
(i__main__
Node
p69
(dp70
g67
I2
sg68
NsS'parent'
p71
g65
sS'float_size'
p72
S'indiv.distanceMatingSeason()'
p73
sS'float_bright'
p74
g73
sS'left'
p75
Nsbsg71
Nsg72
S'/'
sg74
S'-'
sg75
(i__main__
Node
p76
(dp77
g67
I2
sg68
(i__main__
Node
p78
(dp79
g67
I3
sg68
Nsg71
g76
sg72
S'indiv.getNumPredatorsNeigh()'
p80
sg74
S'indiv.getEnergy()'
p81
sg75
Nsbsg71
g65
sg72
S'*'
sg74
S'-'
sg75
(i__main__
Node
p82
(dp83
g67
I3
sg68
Nsg71
g76
sg72
S'indiv.getTailBrightness()'
p84
sg74
g80
sg75
NsbsbsbsS'tailBrigh'
p85
F0
sS'maxSteering'
p86
I30
sS'energy'
p87
F0.5
sS'lastScale'
p88
F5.5
sb.(i__main__
Data_mobile
p1
(dp2
S'vel_y'
p3
I0
sS'vel_x'
p4
I0
sS'pos_x'
p5
I-9579
sS'pos_y'
p6
I9779
sS'isAlive'
p7
I00
sS'cumulativeEnergy'
p8
F0.5
sS'geno'
p9
(lp10
(lp11
S'POINT.-'
p12
aa(lp13
(lp14
S'target'
p15
aS'POINT.+'
p16
aa(lp17
(lp18
S'POINT.-'
p19
aaS'POINT.-'
p20
aaS'POINT.+'
p21
aaS'POINT.*'
p22
a(lp23
S'POINT./'
p24
aS'separation'
p25
aS'randV'
p26
aasS'accel_x'
p27
F0
sS'accel_y'
p28
F0
sS'visionAngle'
p29
I150
sS'maxAccel'
p30
I2
sS'maxVel'
p31
F0.5
sS'age'
p32
I0
sS'tailSize'
p33
I0
sS'sexualgeno'
p34
(i__main__
Node
p35
(dp36
S'right'
p37
(i__main__
Node
p38
(dp39
g37
(i__main__
Node
p40
(dp41
g37
NsS'parent'
p42
NsS'depth'
p43
I3
sS'float_size'
p44
S'indiv.getTailSize()'
p45
sS'float_bright'
p46
S'indiv.randF()'
p47
sS'left'
p48
Nsbsg42
Nsg43
I2
sg44
S'-'
sg46
S'*'
sg48
(i__main__
Node
p49
(dp50
g37
Nsg42
Nsg43
I3
sg44
S'indiv.getNumPredatorsNeigh()'
p51
sg46
S'indiv.getTailBrightness()'
p52
sg48
Nsbsbsg42
Nsg43
I1
sg44
S'/'
sg46
S'-'
sg48
(i__main__
Node
p53
(dp54
g37
(i__main__
Node
p55
(dp56
g37
Nsg42
Nsg43
I3
sg44
S'indiv.getNumPreysNeigh()'
p57
sg46
g57
sg48
Nsbsg42
Nsg43
I2
sg44
S'/'
sg46
S'-'
sg48
(i__main__
Node
p58
(dp59
g37
Nsg42
Nsg43
I3
sg44
g45
sg46
g51
sg48
NsbsbsbsS'tailBrigh'
p60
F0
sS'maxSteering'
p61
I30
sS'energy'
p62
F0.5
sS'lastScale'
p63
F5.5
sb.(i__main__
Data_mobile
p1
(dp2
S'vel_y'
p3
I0
sS'vel_x'
p4
I0
sS'pos_x'
p5
I-9579
sS'pos_y'
p6
I9779
sS'isAlive'
p7
I00
sS'cumulativeEnergy'
p8
F0.5
sS'geno'
p9
(lp10
(lp11
S'currentVelocity'
p12
a(lp13
S'flee'
p14
aS'flee'
p15
aa(lp16
(lp17
(lp18
S'POINT./'
p19
aaS'currentVelocity'
p20
aS'flee'
p21
aS'target'
p22
a(lp23
S'POINT.+'
p24
aS'currentVelocity'
p25
a(lp26
S'target'
p27
aa(lp28
(lp29
S'alignment'
p30
aa(lp31
S'POINT.+'
p32
aaaaS'alignment'
p33
aa(lp34
S'currentVelocity'
p35
aS'currentVelocity'
p36
a(lp37
S'flee'
p38
aS'flee'
p39
aaS'POINT.+'
p40
aa(lp41
S'target'
p42
aa(lp43
S'flee'
p44
aaS'cohesion'
p45
aa(lp46
S'cohesion'
p47
aaaS'POINT./'
p48
aS'cohesion'
p49
a(lp50
S'target'
p51
aaS'currentVelocity'
p52
asS'accel_x'
p53
F0
sS'accel_y'
p54
F0
sS'visionAngle'
p55
I150
sS'maxAccel'
p56
I2
sS'maxVel'
p57
F0.5
sS'age'
p58
I0
sS'tailSize'
p59
I0
sS'sexualgeno'
p60
(i__main__
Node
p61
(dp62
S'depth'
p63
I1
sS'right'
p64
(i__main__
Node
p65
(dp66
g63
I2
sg64
(i__main__
Node
p67
(dp68
g63
I3
sg64
(i__main__
Node
p69
(dp70
g63
I4
sg64
NsS'parent'
p71
g67
sS'float_size'
p72
S'indiv.getNumPredatorsNeigh()'
p73
sS'float_bright'
p74
S'indiv.getEnergy()'
p75
sS'left'
p76
Nsbsg71
g65
sg72
S'*'
sg74
S'-'
sg76
(i__main__
Node
p77
(dp78
g63
I4
sg64
Nsg71
g67
sg72
S'indiv.getTailBrightness()'
p79
sg74
g73
sg76
Nsbsbsg71
g61
sg72
S'+'
sg74
S'/'
sg76
(i__main__
Node
p80
(dp81
g64
Nsg71
g65
sg63
I3
sg72
S'indiv.getTailSize()'
p82
sg74
g75
sg76
Nsbsbsg71
Nsg72
S'/'
sg74
S'-'
sg76
(i__main__
Node
p83
(dp84
g63
I2
sg64
(i__main__
Node
p85
(dp86
g63
I3
sg64
Nsg71
g83
sg72
g73
sg74
g75
sg76
Nsbsg71
g61
sg72
S'*'
sg74
S'-'
sg76
(i__main__
Node
p87
(dp88
g63
I3
sg64
Nsg71
g83
sg72
g79
sg74
g73
sg76
NsbsbsbsS'tailBrigh'
p89
F0
sS'maxSteering'
p90
I30
sS'energy'
p91
F0.5
sS'lastScale'
p92
F5.5
sb.(i__main__
Data_mobile
p1
(dp2
S'vel_y'
p3
I0
sS'vel_x'
p4
I0
sS'pos_x'
p5
I-9579
sS'pos_y'
p6
I9779
sS'isAlive'
p7
I00
sS'cumulativeEnergy'
p8
F0.5
sS'geno'
p9
(lp10
(lp11
S'currentVelocity'
p12
a(lp13
S'flee'
p14
aS'POINT.+'
p15
aa(lp16
(lp17
(lp18
S'POINT./'
p19
aaS'currentVelocity'
p20
aS'flee'
p21
aS'alignment'
p22
a(lp23
S'POINT.+'
p24
aS'currentVelocity'
p25
a(lp26
S'target'
p27
aa(lp28
(lp29
S'alignment'
p30
aa(lp31
S'target'
p32
aaaaS'separation'
p33
aa(lp34
S'currentVelocity'
p35
aS'currentVelocity'
p36
a(lp37
S'flee'
p38
aS'flee'
p39
aa(lp40
S'target'
p41
a(lp42
S'target'
p43
aaaa(lp44
S'target'
p45
aa(lp46
(lp47
S'target'
p48
aaaS'cohesion'
p49
aaS'target'
p50
aaS'POINT.+'
p51
aS'cohesion'
p52
a(lp53
S'target'
p54
aa(lp55
(lp56
S'cohesion'
p57
aaS'alignment'
p58
aasS'accel_x'
p59
F0
sS'accel_y'
p60
F0
sS'visionAngle'
p61
I150
sS'maxAccel'
p62
I2
sS'maxVel'
p63
F0.5
sS'age'
p64
I0
sS'tailSize'
p65
F0
sS'sexualgeno'
p66
(i__main__
Node
p67
(dp68
S'depth'
p69
I1
sS'right'
p70
(i__main__
Node
p71
(dp72
g69
I2
sg70
NsS'parent'
p73
g67
sS'float_size'
p74
S'indiv.randF()'
p75
sS'float_bright'
p76
S'indiv.getTailSize()'
p77
sS'left'
p78
Nsbsg73
Nsg74
S'/'
sg76
S'-'
sg78
(i__main__
Node
p79
(dp80
g69
I2
sg70
(i__main__
Node
p81
(dp82
g69
I3
sg70
(i__main__
Node
p83
(dp84
g69
I4
sg70
Nsg73
g81
sg74
S'indiv.getNumPredatorsNeigh()'
p85
sg76
S'indiv.getEnergy()'
p86
sg78
Nsbsg73
g79
sg74
S'*'
sg76
S'-'
sg78
(i__main__
Node
p87
(dp88
g69
I4
sg70
Nsg73
g81
sg74
S'indiv.getTailBrightness()'
p89
sg76
g85
sg78
Nsbsbsg73
g67
sg74
S'-'
sg76
S'/'
sg78
(i__main__
Node
p90
(dp91
g69
I3
sg70
(i__main__
Node
p92
(dp93
g69
I4
sg70
Nsg73
g90
sg74
g85
sg76
g86
sg78
Nsbsg73
g79
sg74
S'/'
sg76
S'+'
sg78
(i__main__
Node
p94
(dp95
g69
I4
sg70
Nsg73
g90
sg74
S'indiv.distanceMatingSeason()'
p96
sg76
g75
sg78
NsbsbsbsbsS'tailBrigh'
p97
F0
sS'maxSteering'
p98
I30
sS'energy'
p99
F0.5
sS'lastScale'
p100
F5.5
sb.(i__main__
Data_mobile
p1
(dp2
S'vel_y'
p3
I0
sS'vel_x'
p4
I0
sS'pos_x'
p5
I-9579
sS'pos_y'
p6
I9779
sS'isAlive'
p7
I00
sS'cumulativeEnergy'
p8
F0.5
sS'geno'
p9
(lp10
(lp11
S'currentVelocity'
p12
aaS'currentVelocity'
p13
a(lp14
(lp15
S'POINT.*'
p16
aS'cohesion'
p17
aa(lp18
(lp19
S'POINT.+'
p20
aa(lp21
(lp22
S'cohesion'
p23
aa(lp24
S'POINT.+'
p25
aaS'POINT.*'
p26
aS'cohesion'
p27
aS'POINT.-'
p28
a(lp29
S'separation'
p30
aS'alignment'
p31
aaaS'POINT.+'
p32
aS'alignment'
p33
aaS'POINT.-'
p34
a(lp35
(lp36
S'currentVelocity'
p37
aaS'POINT./'
p38
aa(lp39
(lp40
S'separation'
p41
a(lp42
S'POINT.-'
p43
aS'flee'
p44
aa(lp45
(lp46
(lp47
(lp48
S'randV'
p49
aS'currentEnergy'
p50
aS'POINT./'
p51
aaS'POINT.+'
p52
aS'separation'
p53
aaS'alignment'
p54
aaS'separation'
p55
a(lp56
S'target'
p57
aS'POINT./'
p58
aS'alignment'
p59
aaS'POINT./'
p60
aS'currentVelocity'
p61
aaS'separation'
p62
aaS'POINT.*'
p63
aa(lp64
(lp65
S'flee'
p66
a(lp67
S'POINT./'
p68
aaS'separation'
p69
a(lp70
S'POINT.-'
p71
aS'flee'
p72
aaa(lp73
(lp74
S'POINT.*'
p75
aS'alignment'
p76
aaS'currentEnergy'
p77
aS'POINT./'
p78
a(lp79
S'cohesion'
p80
aS'target'
p81
aaS'cohesion'
p82
aS'target'
p83
aaS'flee'
p84
aaasS'accel_x'
p85
F0
sS'accel_y'
p86
F0
sS'visionAngle'
p87
I150
sS'maxAccel'
p88
I2
sS'maxVel'
p89
F0.5
sS'age'
p90
I0
sS'tailSize'
p91
F0
sS'sexualgeno'
p92
(i__main__
Node
p93
(dp94
S'right'
p95
(i__main__
Node
p96
(dp97
g95
(i__main__
Node
p98
(dp99
g95
NsS'parent'
p100
NsS'depth'
p101
I3
sS'float_size'
p102
S'indiv.randF()'
p103
sS'float_bright'
p104
S'indiv.getTailSize()'
p105
sS'left'
p106
Nsbsg100
Nsg101
I2
sg102
S'+'
sg104
S'+'
sg106
(i__main__
Node
p107
(dp108
g95
Nsg100
Nsg101
I3
sg102
S'indiv.getNumPreysNeigh()'
p109
sg104
g103
sg106
Nsbsbsg100
Nsg101
I1
sg102
S'-'
sg104
S'-'
sg106
(i__main__
Node
p110
(dp111
g95
(i__main__
Node
p112
(dp113
g95
Nsg100
Nsg101
I3
sg102
S'indiv.getEnergy()'
p114
sg104
g105
sg106
Nsbsg100
Nsg101
I2
sg102
S'*'
sg104
S'-'
sg106
(i__main__
Node
p115
(dp116
g95
Nsg100
Nsg101
I3
sg102
g105
sg104
g105
sg106
NsbsbsbsS'tailBrigh'
p117
F0
sS'maxSteering'
p118
I30
sS'energy'
p119
F0.5
sS'lastScale'
p120
F5.5
sb.(i__main__
Data_mobile
p1
(dp2
S'vel_y'
p3
I0
sS'vel_x'
p4
I0
sS'pos_x'
p5
I-9579
sS'pos_y'
p6
I9779
sS'isAlive'
p7
I00
sS'cumulativeEnergy'
p8
F0.5
sS'geno'
p9
(lp10
(lp11
S'currentVelocity'
p12
a(lp13
S'flee'
p14
aS'POINT.+'
p15
aa(lp16
(lp17
(lp18
S'POINT./'
p19
aaS'currentVelocity'
p20
aS'flee'
p21
aS'alignment'
p22
a(lp23
S'POINT.+'
p24
aS'currentVelocity'
p25
a(lp26
S'target'
p27
aa(lp28
(lp29
S'alignment'
p30
aa(lp31
S'target'
p32
aaaaS'POINT.+'
p33
aa(lp34
S'currentVelocity'
p35
aS'currentVelocity'
p36
a(lp37
S'flee'
p38
aS'flee'
p39
aa(lp40
S'target'
p41
a(lp42
S'target'
p43
aaaa(lp44
S'target'
p45
aa(lp46
(lp47
S'target'
p48
aaaS'cohesion'
p49
aaS'target'
p50
aaS'POINT.+'
p51
aS'cohesion'
p52
a(lp53
S'target'
p54
aa(lp55
(lp56
S'POINT.+'
p57
aaS'alignment'
p58
aasS'accel_x'
p59
F0
sS'accel_y'
p60
F0
sS'visionAngle'
p61
I150
sS'maxAccel'
p62
I2
sS'maxVel'
p63
F0.5
sS'age'
p64
I0
sS'tailSize'
p65
F0
sS'sexualgeno'
p66
(i__main__
Node
p67
(dp68
S'depth'
p69
I1
sS'right'
p70
(i__main__
Node
p71
(dp72
g69
I2
sg70
NsS'parent'
p73
g67
sS'float_size'
p74
S'indiv.randF()'
p75
sS'float_bright'
p76
S'indiv.getTailSize()'
p77
sS'left'
p78
Nsbsg73
Nsg74
S'/'
sg76
S'-'
sg78
(i__main__
Node
p79
(dp80
g69
I2
sg70
Nsg73
g67
sg74
S'indiv.getEnergy()'
p81
sg76
g77
sg78
NsbsbsS'tailBrigh'
p82
F0
sS'maxSteering'
p83
I30
sS'energy'
p84
F0.5
sS'lastScale'
p85
F5.5
sb.(i__main__
Data_mobile
p1
(dp2
S'vel_y'
p3
I0
sS'vel_x'
p4
I0
sS'pos_x'
p5
I-9579
sS'pos_y'
p6
I9779
sS'isAlive'
p7
I00
sS'cumulativeEnergy'
p8
F0.5
sS'geno'
p9
(lp10
S'POINT.-'
p11
aS'POINT.*'
p12
aS'currentVelocity'
p13
a(lp14
(lp15
S'flee'
p16
aa(lp17
S'POINT.*'
p18
aaS'cohesion'
p19
aa(lp20
S'target'
p21
a(lp22
S'POINT.-'
p23
aS'cohesion'
p24
aS'separation'
p25
aaS'POINT.+'
p26
aaS'target'
p27
aS'separation'
p28
a(lp29
S'cohesion'
p30
aS'separation'
p31
aaS'target'
p32
a(lp33
S'cohesion'
p34
aS'randV'
p35
aS'POINT.*'
p36
a(lp37
S'randV'
p38
a(lp39
S'alignment'
p40
aa(lp41
S'randV'
p42
a(lp43
S'POINT.-'
p44
aS'POINT.-'
p45
aa(lp46
(lp47
S'POINT.+'
p48
a(lp49
(lp50
S'currentEnergy'
p51
aaS'separation'
p52
aa(lp53
S'POINT.+'
p54
aaaS'POINT.*'
p55
aS'POINT.+'
p56
aa(lp57
(lp58
(lp59
S'separation'
p60
aaS'POINT.*'
p61
aS'separation'
p62
aa(lp63
S'currentEnergy'
p64
a(lp65
S'currentEnergy'
p66
aS'target'
p67
aS'separation'
p68
aaaS'POINT.*'
p69
aS'POINT.*'
p70
aaS'randV'
p71
aS'POINT.*'
p72
aaS'cohesion'
p73
aaa(lp74
(lp75
S'separation'
p76
aaS'POINT./'
p77
aasS'accel_x'
p78
F0
sS'accel_y'
p79
F0
sS'visionAngle'
p80
I150
sS'maxAccel'
p81
I2
sS'maxVel'
p82
F0.5
sS'age'
p83
I0
sS'tailSize'
p84
F0
sS'sexualgeno'
p85
(i__main__
Node
p86
(dp87
S'right'
p88
(i__main__
Node
p89
(dp90
g88
(i__main__
Node
p91
(dp92
g88
NsS'parent'
p93
NsS'depth'
p94
I3
sS'float_size'
p95
S'indiv.getNumPreysNeigh()'
p96
sS'float_bright'
p97
S'indiv.getTailSize()'
p98
sS'left'
p99
Nsbsg93
Nsg94
I2
sg95
S'/'
sg97
S'+'
sg99
(i__main__
Node
p100
(dp101
g88
Nsg93
Nsg94
I3
sg95
g96
sg97
S'indiv.getEnergy()'
p102
sg99
Nsbsbsg93
Nsg94
I1
sg95
S'+'
sg97
S'/'
sg99
(i__main__
Node
p103
(dp104
g88
(i__main__
Node
p105
(dp106
g88
Nsg93
Nsg94
I3
sg95
S'indiv.getNumPredatorsNeigh()'
p107
sg97
S'indiv.randF()'
p108
sg99
Nsbsg93
Nsg94
I2
sg95
S'/'
sg97
S'/'
sg99
(i__main__
Node
p109
(dp110
g88
Nsg93
Nsg94
I3
sg95
g96
sg97
g96
sg99
NsbsbsbsS'tailBrigh'
p111
I0
sS'maxSteering'
p112
I30
sS'energy'
p113
F0.5
sS'lastScale'
p114
F5.5
sb.(i__main__
Data_mobile
p1
(dp2
S'vel_y'
p3
I0
sS'vel_x'
p4
I0
sS'pos_x'
p5
I-9579
sS'pos_y'
p6
I9779
sS'isAlive'
p7
I00
sS'cumulativeEnergy'
p8
F0.5
sS'geno'
p9
(lp10
S'cohesion'
p11
aS'POINT.+'
p12
a(lp13
S'POINT.+'
p14
aa(lp15
S'target'
p16
aa(lp17
S'target'
p18
aasS'accel_x'
p19
F0
sS'accel_y'
p20
F0
sS'visionAngle'
p21
I150
sS'maxAccel'
p22
I2
sS'maxVel'
p23
F0.5
sS'age'
p24
I0
sS'tailSize'
p25
I0
sS'sexualgeno'
p26
(i__main__
Node
p27
(dp28
S'depth'
p29
I1
sS'right'
p30
(i__main__
Node
p31
(dp32
g29
I2
sg30
NsS'parent'
p33
g27
sS'float_size'
p34
S'indiv.getTailSize()'
p35
sS'float_bright'
p36
g35
sS'left'
p37
Nsbsg33
Nsg34
S'/'
sg36
S'-'
sg37
(i__main__
Node
p38
(dp39
g29
I2
sg30
(i__main__
Node
p40
(dp41
g29
I3
sg30
Nsg33
g38
sg34
S'indiv.getNumPredatorsNeigh()'
p42
sg36
S'indiv.getEnergy()'
p43
sg37
Nsbsg33
g27
sg34
S'*'
sg36
S'-'
sg37
(i__main__
Node
p44
(dp45
g29
I3
sg30
Nsg33
g38
sg34
S'indiv.getTailBrightness()'
p46
sg36
g42
sg37
NsbsbsbsS'tailBrigh'
p47
F7.7692621154819763
sS'maxSteering'
p48
I30
sS'energy'
p49
F0.5
sS'lastScale'
p50
F5.5
sb.(i__main__
Data_mobile
p1
(dp2
S'vel_y'
p3
I0
sS'vel_x'
p4
I0
sS'pos_x'
p5
I-9579
sS'pos_y'
p6
I9779
sS'isAlive'
p7
I00
sS'cumulativeEnergy'
p8
F0.5
sS'geno'
p9
(lp10
(lp11
S'currentVelocity'
p12
a(lp13
S'flee'
p14
aS'flee'
p15
aa(lp16
(lp17
(lp18
(lp19
S'POINT./'
p20
a(lp21
S'currentEnergy'
p22
aaS'POINT.+'
p23
a(lp24
S'separation'
p25
aS'alignment'
p26
aaaS'POINT.+'
p27
aa(lp28
S'currentEnergy'
p29
aa(lp30
S'target'
p31
aaS'alignment'
p32
a(lp33
S'target'
p34
aS'POINT.+'
p35
aaS'POINT./'
p36
aa(lp37
S'currentVelocity'
p38
aS'currentVelocity'
p39
a(lp40
S'flee'
p41
aS'flee'
p42
aa(lp43
S'target'
p44
a(lp45
S'separation'
p46
aaaa(lp47
S'flee'
p48
aa(lp49
S'flee'
p50
aaS'cohesion'
p51
aaS'target'
p52
aaS'POINT./'
p53
aS'cohesion'
p54
aS'currentVelocity'
p55
a(lp56
(lp57
S'cohesion'
p58
aaS'alignment'
p59
aasS'accel_x'
p60
F0
sS'accel_y'
p61
F0
sS'visionAngle'
p62
I150
sS'maxAccel'
p63
I2
sS'maxVel'
p64
F0.5
sS'age'
p65
I0
sS'tailSize'
p66
I0
sS'sexualgeno'
p67
(i__main__
Node
p68
(dp69
S'depth'
p70
I1
sS'right'
p71
(i__main__
Node
p72
(dp73
g70
I2
sg71
(i__main__
Node
p74
(dp75
g70
I3
sg71
NsS'parent'
p76
g72
sS'float_size'
p77
S'indiv.getNumPredatorsNeigh()'
p78
sS'float_bright'
p79
S'indiv.getEnergy()'
p80
sS'left'
p81
Nsbsg76
g68
sg77
S'*'
sg79
S'-'
sg81
(i__main__
Node
p82
(dp83
g70
I3
sg71
Nsg76
g72
sg77
S'indiv.getTailBrightness()'
p84
sg79
g78
sg81
Nsbsbsg76
Nsg77
S'/'
sg79
S'-'
sg81
(i__main__
Node
p85
(dp86
g70
I2
sg71
(i__main__
Node
p87
(dp88
g70
I3
sg71
Nsg76
g85
sg77
g78
sg79
g80
sg81
Nsbsg76
g68
sg77
S'*'
sg79
S'-'
sg81
(i__main__
Node
p89
(dp90
g70
I3
sg71
Nsg76
g85
sg77
g84
sg79
g78
sg81
NsbsbsbsS'tailBrigh'
p91
F0
sS'maxSteering'
p92
I30
sS'energy'
p93
F0.5
sS'lastScale'
p94
F5.5
sb.(i__main__
Data_mobile
p1
(dp2
S'vel_y'
p3
I0
sS'vel_x'
p4
I0
sS'pos_x'
p5
I-9579
sS'pos_y'
p6
I9779
sS'isAlive'
p7
I00
sS'cumulativeEnergy'
p8
F0.5
sS'geno'
p9
(lp10
(lp11
S'currentVelocity'
p12
a(lp13
S'flee'
p14
aS'POINT.+'
p15
aa(lp16
(lp17
(lp18
S'POINT./'
p19
aaS'currentVelocity'
p20
aS'flee'
p21
aS'alignment'
p22
a(lp23
S'POINT.+'
p24
aS'currentVelocity'
p25
a(lp26
S'target'
p27
aa(lp28
(lp29
S'alignment'
p30
aa(lp31
S'target'
p32
aaaaS'separation'
p33
aa(lp34
S'currentVelocity'
p35
aS'currentVelocity'
p36
a(lp37
S'flee'
p38
aS'flee'
p39
aa(lp40
S'target'
p41
a(lp42
S'target'
p43
aaaa(lp44
S'target'
p45
aa(lp46
(lp47
(lp48
S'target'
p49
aaaaS'cohesion'
p50
aaS'target'
p51
aaS'POINT.+'
p52
aS'cohesion'
p53
a(lp54
S'target'
p55
aaS'target'
p56
asS'accel_x'
p57
F0
sS'accel_y'
p58
F0
sS'visionAngle'
p59
I150
sS'maxAccel'
p60
I2
sS'maxVel'
p61
F0.5
sS'age'
p62
I0
sS'tailSize'
p63
F20.153207822312154
sS'sexualgeno'
p64
(i__main__
Node
p65
(dp66
S'depth'
p67
I1
sS'right'
p68
(i__main__
Node
p69
(dp70
g67
I2
sg68
NsS'parent'
p71
g65
sS'float_size'
p72
S'indiv.randF()'
p73
sS'float_bright'
p74
S'indiv.getTailSize()'
p75
sS'left'
p76
Nsbsg71
Nsg72
S'/'
sg74
S'-'
sg76
(i__main__
Node
p77
(dp78
g67
I2
sg68
(i__main__
Node
p79
(dp80
g67
I3
sg68
Nsg71
g77
sg72
S'indiv.getNumPredatorsNeigh()'
p81
sg74
S'indiv.getEnergy()'
p82
sg76
Nsbsg71
g65
sg72
S'*'
sg74
S'-'
sg76
(i__main__
Node
p83
(dp84
g67
I3
sg68
Nsg71
g77
sg72
S'indiv.getTailBrightness()'
p85
sg74
g81
sg76
NsbsbsbsS'tailBrigh'
p86
F2.1036179861243731
sS'maxSteering'
p87
I30
sS'energy'
p88
F0.5
sS'lastScale'
p89
F5.5
sb.(i__main__
Data_mobile
p1
(dp2
S'vel_y'
p3
I0
sS'vel_x'
p4
I0
sS'pos_x'
p5
I-9579
sS'pos_y'
p6
I9779
sS'isAlive'
p7
I00
sS'cumulativeEnergy'
p8
F0.5
sS'geno'
p9
(lp10
S'alignment'
p11
a(lp12
S'POINT./'
p13
aS'POINT.+'
p14
aasS'accel_x'
p15
F0
sS'accel_y'
p16
F0
sS'visionAngle'
p17
I150
sS'maxAccel'
p18
I2
sS'maxVel'
p19
F0.5
sS'age'
p20
I0
sS'tailSize'
p21
I0
sS'sexualgeno'
p22
(i__main__
Node
p23
(dp24
S'right'
p25
(i__main__
Node
p26
(dp27
g25
(i__main__
Node
p28
(dp29
g25
NsS'parent'
p30
NsS'depth'
p31
I3
sS'float_size'
p32
S'indiv.getEnergy()'
p33
sS'float_bright'
p34
S'indiv.getNumPreysNeigh()'
p35
sS'left'
p36
Nsbsg30
Nsg31
I2
sg32
S'*'
sg34
S'*'
sg36
(i__main__
Node
p37
(dp38
g25
Nsg30
Nsg31
I3
sg32
S'indiv.randF()'
p39
sg34
S'indiv.getTailBrightness()'
p40
sg36
Nsbsbsg30
Nsg31
I1
sg32
S'/'
sg34
S'-'
sg36
(i__main__
Node
p41
(dp42
g25
(i__main__
Node
p43
(dp44
g25
Nsg30
Nsg31
I3
sg32
g33
sg34
S'indiv.distanceMatingSeason()'
p45
sg36
Nsbsg30
Nsg31
I2
sg32
S'+'
sg34
S'*'
sg36
(i__main__
Node
p46
(dp47
g25
Nsg30
Nsg31
I3
sg32
S'indiv.getTailSize()'
p48
sg34
g39
sg36
NsbsbsbsS'tailBrigh'
p49
F79.28138618197714
sS'maxSteering'
p50
I30
sS'energy'
p51
F0.5
sS'lastScale'
p52
F5.5
sb.(i__main__
Data_mobile
p1
(dp2
S'vel_y'
p3
I0
sS'vel_x'
p4
I0
sS'pos_x'
p5
I-9579
sS'pos_y'
p6
I9779
sS'isAlive'
p7
I00
sS'cumulativeEnergy'
p8
F0.5
sS'geno'
p9
(lp10
(lp11
(lp12
S'POINT./'
p13
aaS'cohesion'
p14
aS'alignment'
p15
aS'cohesion'
p16
aS'POINT./'
p17
aaS'alignment'
p18
a(lp19
S'separation'
p20
aS'POINT.+'
p21
aS'target'
p22
a(lp23
(lp24
S'POINT./'
p25
aa(lp26
S'currentEnergy'
p27
aS'randV'
p28
aaS'separation'
p29
aS'POINT.*'
p30
a(lp31
S'currentEnergy'
p32
aaaaS'separation'
p33
a(lp34
S'alignment'
p35
a(lp36
S'currentVelocity'
p37
aaasS'accel_x'
p38
F0
sS'accel_y'
p39
F0
sS'visionAngle'
p40
I150
sS'maxAccel'
p41
I2
sS'maxVel'
p42
F0.5
sS'age'
p43
I0
sS'tailSize'
p44
F9.060626479265272
sS'sexualgeno'
p45
(i__main__
Node
p46
(dp47
S'right'
p48
(i__main__
Node
p49
(dp50
g48
(i__main__
Node
p51
(dp52
g48
NsS'parent'
p53
NsS'depth'
p54
I3
sS'float_size'
p55
S'indiv.distanceMatingSeason()'
p56
sS'float_bright'
p57
S'indiv.getNumPredatorsNeigh()'
p58
sS'left'
p59
Nsbsg53
Nsg54
I2
sg55
S'/'
sg57
S'/'
sg59
(i__main__
Node
p60
(dp61
g48
Nsg53
Nsg54
I3
sg55
g56
sg57
S'indiv.getTailBrightness()'
p62
sg59
Nsbsbsg53
Nsg54
I1
sg55
S'/'
sg57
S'+'
sg59
(i__main__
Node
p63
(dp64
g48
(i__main__
Node
p65
(dp66
g48
Nsg53
Nsg54
I3
sg55
g58
sg57
S'indiv.getNumPreysNeigh()'
p67
sg59
Nsbsg53
Nsg54
I2
sg55
S'+'
sg57
S'+'
sg59
(i__main__
Node
p68
(dp69
g48
Nsg53
Nsg54
I3
sg55
g62
sg57
g62
sg59
NsbsbsbsS'tailBrigh'
p70
F9.060626479265272
sS'maxSteering'
p71
I30
sS'energy'
p72
F0.5
sS'lastScale'
p73
F5.5
sb.(i__main__
Data_mobile
p1
(dp2
S'vel_y'
p3
I0
sS'vel_x'
p4
I0
sS'pos_x'
p5
I-9579
sS'pos_y'
p6
I9779
sS'isAlive'
p7
I00
sS'cumulativeEnergy'
p8
F0.5
sS'geno'
p9
(lp10
S'currentVelocity'
p11
a(lp12
S'target'
p13
aa(lp14
S'flee'
p15
a(lp16
(lp17
(lp18
S'POINT.*'
p19
a(lp20
(lp21
S'POINT./'
p22
aa(lp23
(lp24
S'flee'
p25
aaaaaa(lp26
S'POINT.+'
p27
aaaa(lp28
S'target'
p29
a(lp30
S'target'
p31
aaasS'accel_x'
p32
F0
sS'accel_y'
p33
F0
sS'visionAngle'
p34
I150
sS'maxAccel'
p35
I2
sS'maxVel'
p36
F0.5
sS'age'
p37
I0
sS'tailSize'
p38
F0
sS'sexualgeno'
p39
(i__main__
Node
p40
(dp41
S'depth'
p42
I1
sS'right'
p43
(i__main__
Node
p44
(dp45
g42
I2
sg43
NsS'parent'
p46
g40
sS'float_size'
p47
S'indiv.distanceMatingSeason()'
p48
sS'float_bright'
p49
g48
sS'left'
p50
Nsbsg46
Nsg47
S'/'
sg49
S'-'
sg50
(i__main__
Node
p51
(dp52
g42
I2
sg43
(i__main__
Node
p53
(dp54
g42
I3
sg43
(i__main__
Node
p55
(dp56
g42
I4
sg43
Nsg46
g53
sg47
S'indiv.getTailSize()'
p57
sg49
S'indiv.getTailBrightness()'
p58
sg50
Nsbsg46
g51
sg47
S'-'
sg49
S'*'
sg50
(i__main__
Node
p59
(dp60
g42
I4
sg43
Nsg46
g53
sg47
S'indiv.randF()'
p61
sg49
g58
sg50
Nsbsbsg46
g40
sg47
S'/'
sg49
S'*'
sg50
(i__main__
Node
p62
(dp63
g42
I3
sg43
(i__main__
Node
p64
(dp65
g42
I4
sg43
Nsg46
g62
sg47
S'indiv.getNumPredatorsNeigh()'
p66
sg49
S'indiv.getEnergy()'
p67
sg50
Nsbsg46
g51
sg47
S'*'
sg49
S'-'
sg50
(i__main__
Node
p68
(dp69
g42
I4
sg43
Nsg46
g62
sg47
g58
sg49
g66
sg50
NsbsbsbsbsS'tailBrigh'
p70
F0
sS'maxSteering'
p71
I30
sS'energy'
p72
F0.5
sS'lastScale'
p73
F5.5
sb.(i__main__
Data_mobile
p1
(dp2
S'vel_y'
p3
I0
sS'vel_x'
p4
I0
sS'pos_x'
p5
I-9579
sS'pos_y'
p6
I9779
sS'isAlive'
p7
I00
sS'cumulativeEnergy'
p8
F0.5
sS'geno'
p9
(lp10
S'cohesion'
p11
aS'POINT.+'
p12
a(lp13
S'alignment'
p14
aa(lp15
S'target'
p16
aa(lp17
S'target'
p18
aasS'accel_x'
p19
F0
sS'accel_y'
p20
F0
sS'visionAngle'
p21
I150
sS'maxAccel'
p22
I2
sS'maxVel'
p23
F0.5
sS'age'
p24
I0
sS'tailSize'
p25
I0
sS'sexualgeno'
p26
(i__main__
Node
p27
(dp28
S'depth'
p29
I1
sS'right'
p30
(i__main__
Node
p31
(dp32
g29
I2
sg30
NsS'parent'
p33
g27
sS'float_size'
p34
S'indiv.getTailSize()'
p35
sS'float_bright'
p36
g35
sS'left'
p37
Nsbsg33
Nsg34
S'/'
sg36
S'-'
sg37
(i__main__
Node
p38
(dp39
g29
I2
sg30
(i__main__
Node
p40
(dp41
g29
I3
sg30
Nsg33
g38
sg34
S'indiv.getNumPredatorsNeigh()'
p42
sg36
S'indiv.getEnergy()'
p43
sg37
Nsbsg33
g27
sg34
S'*'
sg36
S'-'
sg37
(i__main__
Node
p44
(dp45
g29
I3
sg30
Nsg33
g38
sg34
S'indiv.getTailBrightness()'
p46
sg36
g42
sg37
NsbsbsbsS'tailBrigh'
p47
F3
sS'maxSteering'
p48
I30
sS'energy'
p49
F0.5
sS'lastScale'
p50
F5.5
sb.(i__main__
Data_mobile
p1
(dp2
S'vel_y'
p3
I0
sS'vel_x'
p4
I0
sS'pos_x'
p5
I-9579
sS'pos_y'
p6
I9779
sS'isAlive'
p7
I00
sS'cumulativeEnergy'
p8
F0.5
sS'geno'
p9
(lp10
(lp11
S'currentVelocity'
p12
a(lp13
S'flee'
p14
aS'flee'
p15
aa(lp16
(lp17
(lp18
(lp19
S'POINT./'
p20
a(lp21
S'currentEnergy'
p22
aaS'POINT.+'
p23
a(lp24
S'separation'
p25
aS'alignment'
p26
aaaS'POINT.+'
p27
aa(lp28
S'currentEnergy'
p29
aa(lp30
S'target'
p31
aaS'alignment'
p32
a(lp33
S'target'
p34
aS'POINT.+'
p35
aaS'POINT./'
p36
aa(lp37
S'currentVelocity'
p38
aS'currentVelocity'
p39
a(lp40
S'flee'
p41
aS'flee'
p42
aa(lp43
S'target'
p44
a(lp45
S'separation'
p46
aaaa(lp47
S'flee'
p48
aa(lp49
S'flee'
p50
aaS'cohesion'
p51
aaS'target'
p52
aaS'POINT./'
p53
aS'cohesion'
p54
aS'currentVelocity'
p55
a(lp56
(lp57
S'cohesion'
p58
aaS'alignment'
p59
aasS'accel_x'
p60
F0
sS'accel_y'
p61
F0
sS'visionAngle'
p62
I150
sS'maxAccel'
p63
I2
sS'maxVel'
p64
F0.5
sS'age'
p65
I0
sS'tailSize'
p66
I0
sS'sexualgeno'
p67
(i__main__
Node
p68
(dp69
S'depth'
p70
I1
sS'right'
p71
(i__main__
Node
p72
(dp73
g70
I2
sg71
(i__main__
Node
p74
(dp75
g70
I3
sg71
NsS'parent'
p76
g72
sS'float_size'
p77
S'indiv.getNumPredatorsNeigh()'
p78
sS'float_bright'
p79
S'indiv.getEnergy()'
p80
sS'left'
p81
Nsbsg76
g68
sg77
S'*'
sg79
S'-'
sg81
(i__main__
Node
p82
(dp83
g70
I3
sg71
Nsg76
g72
sg77
S'indiv.getTailBrightness()'
p84
sg79
g78
sg81
Nsbsbsg76
Nsg77
S'/'
sg79
S'-'
sg81
(i__main__
Node
p85
(dp86
g70
I2
sg71
(i__main__
Node
p87
(dp88
g70
I3
sg71
Nsg76
g85
sg77
g78
sg79
g80
sg81
Nsbsg76
g68
sg77
S'*'
sg79
S'-'
sg81
(i__main__
Node
p89
(dp90
g70
I3
sg71
Nsg76
g85
sg77
g84
sg79
g78
sg81
NsbsbsbsS'tailBrigh'
p91
F0
sS'maxSteering'
p92
I30
sS'energy'
p93
F0.5
sS'lastScale'
p94
F5.5
sb.(i__main__
Data_mobile
p1
(dp2
S'vel_y'
p3
I0
sS'vel_x'
p4
I0
sS'pos_x'
p5
I-9579
sS'pos_y'
p6
I9779
sS'isAlive'
p7
I00
sS'cumulativeEnergy'
p8
F0.5
sS'geno'
p9
(lp10
(lp11
S'currentVelocity'
p12
a(lp13
S'flee'
p14
aS'POINT.+'
p15
aa(lp16
(lp17
(lp18
S'POINT./'
p19
aaS'currentVelocity'
p20
aS'flee'
p21
aS'alignment'
p22
a(lp23
S'POINT.+'
p24
aS'currentVelocity'
p25
a(lp26
S'POINT./'
p27
aa(lp28
(lp29
S'alignment'
p30
aa(lp31
S'target'
p32
aaaaS'separation'
p33
aa(lp34
S'currentVelocity'
p35
aS'currentVelocity'
p36
a(lp37
S'flee'
p38
aS'flee'
p39
aa(lp40
S'target'
p41
a(lp42
S'target'
p43
aaaa(lp44
S'target'
p45
aa(lp46
(lp47
S'target'
p48
aaaS'cohesion'
p49
aaS'target'
p50
aaS'POINT.+'
p51
aS'cohesion'
p52
a(lp53
S'target'
p54
aa(lp55
(lp56
S'cohesion'
p57
aaS'alignment'
p58
aasS'accel_x'
p59
F0
sS'accel_y'
p60
F0
sS'visionAngle'
p61
I150
sS'maxAccel'
p62
I2
sS'maxVel'
p63
F0.5
sS'age'
p64
I0
sS'tailSize'
p65
F0
sS'sexualgeno'
p66
(i__main__
Node
p67
(dp68
S'depth'
p69
I1
sS'right'
p70
(i__main__
Node
p71
(dp72
g69
I2
sg70
NsS'parent'
p73
g67
sS'float_size'
p74
S'indiv.randF()'
p75
sS'float_bright'
p76
S'indiv.getTailSize()'
p77
sS'left'
p78
Nsbsg73
Nsg74
S'/'
sg76
S'-'
sg78
(i__main__
Node
p79
(dp80
g69
I2
sg70
(i__main__
Node
p81
(dp82
g69
I3
sg70
Nsg73
g79
sg74
S'indiv.getNumPredatorsNeigh()'
p83
sg76
S'indiv.getEnergy()'
p84
sg78
Nsbsg73
g67
sg74
S'*'
sg76
S'-'
sg78
(i__main__
Node
p85
(dp86
g69
I3
sg70
Nsg73
g79
sg74
S'indiv.getTailBrightness()'
p87
sg76
g83
sg78
NsbsbsbsS'tailBrigh'
p88
F0
sS'maxSteering'
p89
I30
sS'energy'
p90
F0.5
sS'lastScale'
p91
F5.5
sb.(i__main__
Data_mobile
p1
(dp2
S'vel_y'
p3
I0
sS'vel_x'
p4
I0
sS'pos_x'
p5
I-9579
sS'pos_y'
p6
I9779
sS'isAlive'
p7
I00
sS'cumulativeEnergy'
p8
F0.5
sS'geno'
p9
(lp10
S'currentVelocity'
p11
a(lp12
S'currentVelocity'
p13
aa(lp14
S'flee'
p15
a(lp16
(lp17
(lp18
S'POINT.*'
p19
a(lp20
(lp21
S'POINT./'
p22
aa(lp23
(lp24
S'flee'
p25
aaaaaa(lp26
S'POINT.+'
p27
aaaa(lp28
S'target'
p29
a(lp30
S'target'
p31
aaasS'accel_x'
p32
F0
sS'accel_y'
p33
F0
sS'visionAngle'
p34
I150
sS'maxAccel'
p35
I2
sS'maxVel'
p36
F0.5
sS'age'
p37
I0
sS'tailSize'
p38
F0
sS'sexualgeno'
p39
(i__main__
Node
p40
(dp41
S'depth'
p42
I1
sS'right'
p43
(i__main__
Node
p44
(dp45
g42
I2
sg43
NsS'parent'
p46
g40
sS'float_size'
p47
S'indiv.distanceMatingSeason()'
p48
sS'float_bright'
p49
g48
sS'left'
p50
Nsbsg46
Nsg47
S'/'
sg49
S'-'
sg50
(i__main__
Node
p51
(dp52
g42
I2
sg43
(i__main__
Node
p53
(dp54
g42
I3
sg43
(i__main__
Node
p55
(dp56
g42
I4
sg43
Nsg46
g53
sg47
S'indiv.getTailSize()'
p57
sg49
S'indiv.getTailBrightness()'
p58
sg50
Nsbsg46
g51
sg47
S'-'
sg49
S'*'
sg50
(i__main__
Node
p59
(dp60
g42
I4
sg43
Nsg46
g53
sg47
S'indiv.randF()'
p61
sg49
g58
sg50
Nsbsbsg46
g40
sg47
S'/'
sg49
S'*'
sg50
(i__main__
Node
p62
(dp63
g42
I3
sg43
(i__main__
Node
p64
(dp65
g42
I4
sg43
Nsg46
g62
sg47
S'indiv.getNumPredatorsNeigh()'
p66
sg49
S'indiv.getEnergy()'
p67
sg50
Nsbsg46
g51
sg47
S'*'
sg49
S'-'
sg50
(i__main__
Node
p68
(dp69
g42
I4
sg43
Nsg46
g62
sg47
g58
sg49
g66
sg50
NsbsbsbsbsS'tailBrigh'
p70
F0
sS'maxSteering'
p71
I30
sS'energy'
p72
F0.5
sS'lastScale'
p73
F5.5
sb.(i__main__
Data_mobile
p1
(dp2
S'vel_y'
p3
I0
sS'vel_x'
p4
I0
sS'pos_x'
p5
I-9579
sS'pos_y'
p6
I9779
sS'isAlive'
p7
I00
sS'cumulativeEnergy'
p8
F0.5
sS'geno'
p9
(lp10
(lp11
S'currentVelocity'
p12
a(lp13
S'flee'
p14
aS'POINT.+'
p15
aa(lp16
(lp17
(lp18
S'POINT./'
p19
aaS'currentVelocity'
p20
aS'flee'
p21
aS'alignment'
p22
a(lp23
S'POINT.+'
p24
aS'currentVelocity'
p25
a(lp26
S'target'
p27
aa(lp28
(lp29
S'alignment'
p30
aa(lp31
S'target'
p32
aaaaS'separation'
p33
aa(lp34
S'currentVelocity'
p35
aS'currentVelocity'
p36
a(lp37
S'flee'
p38
aS'flee'
p39
aa(lp40
S'target'
p41
a(lp42
S'target'
p43
aaaa(lp44
S'target'
p45
aa(lp46
(lp47
(lp48
S'target'
p49
aaaa(lp50
S'target'
p51
aaaS'target'
p52
aaS'POINT.+'
p53
aS'cohesion'
p54
a(lp55
S'target'
p56
aaS'target'
p57
asS'accel_x'
p58
F0
sS'accel_y'
p59
F0
sS'visionAngle'
p60
I150
sS'maxAccel'
p61
I2
sS'maxVel'
p62
F0.5
sS'age'
p63
I0
sS'tailSize'
p64
F0
sS'sexualgeno'
p65
(i__main__
Node
p66
(dp67
S'depth'
p68
I1
sS'right'
p69
(i__main__
Node
p70
(dp71
g68
I2
sg69
NsS'parent'
p72
g66
sS'float_size'
p73
S'indiv.randF()'
p74
sS'float_bright'
p75
S'indiv.getTailSize()'
p76
sS'left'
p77
Nsbsg72
Nsg73
S'/'
sg75
S'-'
sg77
(i__main__
Node
p78
(dp79
g68
I2
sg69
(i__main__
Node
p80
(dp81
g68
I3
sg69
Nsg72
g78
sg73
S'indiv.getNumPredatorsNeigh()'
p82
sg75
S'indiv.getEnergy()'
p83
sg77
Nsbsg72
g66
sg73
S'*'
sg75
S'-'
sg77
(i__main__
Node
p84
(dp85
g68
I3
sg69
Nsg72
g78
sg73
S'indiv.getTailBrightness()'
p86
sg75
g82
sg77
NsbsbsbsS'tailBrigh'
p87
F0
sS'maxSteering'
p88
I30
sS'energy'
p89
F0.5
sS'lastScale'
p90
F5.5
sb.(i__main__
Data_mobile
p1
(dp2
S'vel_y'
p3
I0
sS'vel_x'
p4
I0
sS'pos_x'
p5
I-9579
sS'pos_y'
p6
I9779
sS'isAlive'
p7
I00
sS'cumulativeEnergy'
p8
F0.5
sS'geno'
p9
(lp10
S'cohesion'
p11
aS'POINT.+'
p12
aS'cohesion'
p13
a(lp14
(lp15
(lp16
S'alignment'
p17
aa(lp18
S'target'
p19
aaaa(lp20
S'POINT./'
p21
aasS'accel_x'
p22
F0
sS'accel_y'
p23
F0
sS'visionAngle'
p24
I150
sS'maxAccel'
p25
I2
sS'maxVel'
p26
F0.5
sS'age'
p27
I0
sS'tailSize'
p28
I0
sS'sexualgeno'
p29
(i__main__
Node
p30
(dp31
S'depth'
p32
I1
sS'right'
p33
(i__main__
Node
p34
(dp35
g32
I2
sg33
NsS'parent'
p36
g30
sS'float_size'
p37
S'indiv.getTailSize()'
p38
sS'float_bright'
p39
g38
sS'left'
p40
Nsbsg36
Nsg37
S'/'
sg39
S'-'
sg40
(i__main__
Node
p41
(dp42
g32
I2
sg33
(i__main__
Node
p43
(dp44
g32
I3
sg33
Nsg36
g41
sg37
S'indiv.getNumPredatorsNeigh()'
p45
sg39
S'indiv.getEnergy()'
p46
sg40
Nsbsg36
g30
sg37
S'*'
sg39
S'-'
sg40
(i__main__
Node
p47
(dp48
g32
I3
sg33
Nsg36
g41
sg37
S'indiv.getTailBrightness()'
p49
sg39
g45
sg40
NsbsbsbsS'tailBrigh'
p50
F0.94111686140255379
sS'maxSteering'
p51
I30
sS'energy'
p52
F0.5
sS'lastScale'
p53
F5.5
sb.(i__main__
Data_mobile
p1
(dp2
S'vel_y'
p3
I0
sS'vel_x'
p4
I0
sS'pos_x'
p5
I-9579
sS'pos_y'
p6
I9779
sS'isAlive'
p7
I00
sS'cumulativeEnergy'
p8
F0.5
sS'geno'
p9
(lp10
S'currentVelocity'
p11
aS'currentVelocity'
p12
a(lp13
S'separation'
p14
a(lp15
(lp16
(lp17
(lp18
(lp19
S'POINT./'
p20
aaS'currentVelocity'
p21
aS'flee'
p22
aS'alignment'
p23
a(lp24
S'POINT.+'
p25
aS'currentVelocity'
p26
a(lp27
S'target'
p28
aa(lp29
(lp30
S'alignment'
p31
aaS'flee'
p32
aaaS'separation'
p33
aa(lp34
S'currentVelocity'
p35
aS'currentVelocity'
p36
a(lp37
S'flee'
p38
aS'flee'
p39
aa(lp40
S'target'
p41
a(lp42
S'target'
p43
aaaa(lp44
S'target'
p45
aa(lp46
(lp47
S'target'
p48
aaaS'cohesion'
p49
aaa(lp50
S'POINT.+'
p51
aaaa(lp52
S'target'
p53
a(lp54
S'target'
p55
aaasS'accel_x'
p56
F0
sS'accel_y'
p57
F0
sS'visionAngle'
p58
I150
sS'maxAccel'
p59
I2
sS'maxVel'
p60
F0.5
sS'age'
p61
I0
sS'tailSize'
p62
F0
sS'sexualgeno'
p63
(i__main__
Node
p64
(dp65
S'depth'
p66
I1
sS'right'
p67
(i__main__
Node
p68
(dp69
g66
I2
sg67
NsS'parent'
p70
g64
sS'float_size'
p71
S'indiv.distanceMatingSeason()'
p72
sS'float_bright'
p73
g72
sS'left'
p74
Nsbsg70
Nsg71
S'/'
sg73
S'-'
sg74
(i__main__
Node
p75
(dp76
g66
I2
sg67
(i__main__
Node
p77
(dp78
g66
I3
sg67
Nsg70
g75
sg71
S'indiv.getNumPredatorsNeigh()'
p79
sg73
S'indiv.getEnergy()'
p80
sg74
Nsbsg70
g64
sg71
S'*'
sg73
S'-'
sg74
(i__main__
Node
p81
(dp82
g66
I3
sg67
Nsg70
g75
sg71
S'indiv.getTailBrightness()'
p83
sg73
g79
sg74
NsbsbsbsS'tailBrigh'
p84
F0
sS'maxSteering'
p85
I30
sS'energy'
p86
F0.5
sS'lastScale'
p87
F5.5
sb.(i__main__
Data_mobile
p1
(dp2
S'vel_y'
p3
I0
sS'vel_x'
p4
I0
sS'pos_x'
p5
I-9579
sS'pos_y'
p6
I9779
sS'isAlive'
p7
I00
sS'cumulativeEnergy'
p8
F0.5
sS'geno'
p9
(lp10
(lp11
(lp12
(lp13
S'flee'
p14
aaS'POINT.-'
p15
aS'currentEnergy'
p16
aa(lp17
S'cohesion'
p18
aS'separation'
p19
aaS'currentEnergy'
p20
a(lp21
S'currentVelocity'
p22
aa(lp23
S'randV'
p24
a(lp25
S'currentEnergy'
p26
aa(lp27
(lp28
S'POINT./'
p29
a(lp30
S'cohesion'
p31
aaS'cohesion'
p32
a(lp33
S'separation'
p34
aaaS'target'
p35
aaa(lp36
S'currentEnergy'
p37
aS'cohesion'
p38
aS'currentVelocity'
p39
a(lp40
S'alignment'
p41
aaaaS'cohesion'
p42
asS'accel_x'
p43
F0
sS'accel_y'
p44
F0
sS'visionAngle'
p45
I150
sS'maxAccel'
p46
I2
sS'maxVel'
p47
F0.5
sS'age'
p48
I0
sS'tailSize'
p49
F0
sS'sexualgeno'
p50
(i__main__
Node
p51
(dp52
S'right'
p53
(i__main__
Node
p54
(dp55
g53
(i__main__
Node
p56
(dp57
g53
NsS'parent'
p58
NsS'depth'
p59
I3
sS'float_size'
p60
S'indiv.randF()'
p61
sS'float_bright'
p62
g61
sS'left'
p63
Nsbsg58
Nsg59
I2
sg60
S'-'
sg62
S'*'
sg63
(i__main__
Node
p64
(dp65
g53
Nsg58
Nsg59
I3
sg60
S'indiv.getTailBrightness()'
p66
sg62
S'indiv.getEnergy()'
p67
sg63
Nsbsbsg58
Nsg59
I1
sg60
S'+'
sg62
S'+'
sg63
(i__main__
Node
p68
(dp69
g53
(i__main__
Node
p70
(dp71
g53
Nsg58
Nsg59
I3
sg60
S'indiv.getTailSize()'
p72
sg62
S'indiv.getNumPreysNeigh()'
p73
sg63
Nsbsg58
Nsg59
I2
sg60
S'*'
sg62
S'/'
sg63
(i__main__
Node
p74
(dp75
g53
Nsg58
Nsg59
I3
sg60
g73
sg62
S'indiv.distanceMatingSeason()'
p76
sg63
NsbsbsbsS'tailBrigh'
p77
F0.25377303824689745
sS'maxSteering'
p78
I30
sS'energy'
p79
F0.5
sS'lastScale'
p80
F5.5
sb.(i__main__
Data_mobile
p1
(dp2
S'vel_y'
p3
I0
sS'vel_x'
p4
I0
sS'pos_x'
p5
I-9579
sS'pos_y'
p6
I9779
sS'isAlive'
p7
I00
sS'cumulativeEnergy'
p8
F0.5
sS'geno'
p9
(lp10
(lp11
S'currentVelocity'
p12
a(lp13
S'alignment'
p14
aa(lp15
(lp16
(lp17
S'POINT./'
p18
aaS'currentVelocity'
p19
aS'flee'
p20
aS'alignment'
p21
a(lp22
S'POINT.+'
p23
aS'currentVelocity'
p24
a(lp25
S'target'
p26
aa(lp27
(lp28
S'alignment'
p29
aa(lp30
S'POINT.+'
p31
aaaaS'separation'
p32
aa(lp33
S'currentVelocity'
p34
aS'currentVelocity'
p35
a(lp36
S'flee'
p37
aS'flee'
p38
aa(lp39
S'target'
p40
a(lp41
S'target'
p42
aaaa(lp43
S'target'
p44
aa(lp45
(lp46
S'target'
p47
aaaS'cohesion'
p48
aaS'target'
p49
aaS'POINT.+'
p50
aS'cohesion'
p51
a(lp52
S'target'
p53
aa(lp54
(lp55
S'cohesion'
p56
aaS'alignment'
p57
aasS'accel_x'
p58
F0
sS'accel_y'
p59
F0
sS'visionAngle'
p60
I150
sS'maxAccel'
p61
I2
sS'maxVel'
p62
F0.5
sS'age'
p63
I0
sS'tailSize'
p64
F0
sS'sexualgeno'
p65
(i__main__
Node
p66
(dp67
S'depth'
p68
I1
sS'right'
p69
(i__main__
Node
p70
(dp71
g68
I2
sg69
NsS'parent'
p72
g66
sS'float_size'
p73
S'indiv.getNumPreysNeigh()'
p74
sS'float_bright'
p75
S'indiv.getTailBrightness()'
p76
sS'left'
p77
Nsbsg72
Nsg73
S'/'
sg75
S'-'
sg77
(i__main__
Node
p78
(dp79
g68
I2
sg69
(i__main__
Node
p80
(dp81
g68
I3
sg69
(i__main__
Node
p82
(dp83
g68
I4
sg69
Nsg72
g80
sg73
S'indiv.getTailSize()'
p84
sg75
g76
sg77
Nsbsg72
g78
sg73
S'-'
sg75
S'*'
sg77
(i__main__
Node
p85
(dp86
g68
I4
sg69
Nsg72
g80
sg73
S'indiv.randF()'
p87
sg75
g76
sg77
Nsbsbsg72
g66
sg73
S'/'
sg75
S'*'
sg77
(i__main__
Node
p88
(dp89
g69
(i__main__
Node
p90
(dp91
g69
Nsg72
g88
sg68
I4
sg73
S'indiv.distanceMatingSeason()'
p92
sg75
S'indiv.getEnergy()'
p93
sg77
Nsbsg72
g78
sg68
I3
sg73
S'-'
sg75
S'/'
sg77
(i__main__
Node
p94
(dp95
g69
Nsg72
g88
sg68
I4
sg73
g74
sg75
g92
sg77
NsbsbsbsbsS'tailBrigh'
p96
F0
sS'maxSteering'
p97
I30
sS'energy'
p98
F0.5
sS'lastScale'
p99
F5.5
sb.(i__main__
Data_mobile
p1
(dp2
S'vel_y'
p3
I0
sS'vel_x'
p4
I0
sS'pos_x'
p5
I-9579
sS'pos_y'
p6
I9779
sS'isAlive'
p7
I00
sS'cumulativeEnergy'
p8
F0.5
sS'geno'
p9
(lp10
(lp11
S'currentVelocity'
p12
a(lp13
S'flee'
p14
aS'POINT.+'
p15
aa(lp16
(lp17
(lp18
S'POINT./'
p19
aaS'currentVelocity'
p20
aS'flee'
p21
aS'alignment'
p22
a(lp23
S'POINT.+'
p24
aS'currentVelocity'
p25
a(lp26
S'target'
p27
aa(lp28
(lp29
S'alignment'
p30
aa(lp31
S'target'
p32
aaaaS'separation'
p33
aa(lp34
S'currentVelocity'
p35
aS'currentVelocity'
p36
a(lp37
S'flee'
p38
aS'flee'
p39
aa(lp40
S'target'
p41
a(lp42
S'target'
p43
aaaa(lp44
S'target'
p45
aa(lp46
(lp47
S'target'
p48
aaaS'cohesion'
p49
aaS'target'
p50
aaS'POINT.+'
p51
aS'cohesion'
p52
a(lp53
S'target'
p54
aaS'target'
p55
asS'accel_x'
p56
F0
sS'accel_y'
p57
F0
sS'visionAngle'
p58
I150
sS'maxAccel'
p59
I2
sS'maxVel'
p60
F0.5
sS'age'
p61
I0
sS'tailSize'
p62
F0.097756649390057918
sS'sexualgeno'
p63
(i__main__
Node
p64
(dp65
S'depth'
p66
I1
sS'right'
p67
(i__main__
Node
p68
(dp69
g66
I2
sg67
NsS'parent'
p70
g64
sS'float_size'
p71
S'indiv.randF()'
p72
sS'float_bright'
p73
S'indiv.getTailSize()'
p74
sS'left'
p75
Nsbsg70
Nsg71
S'/'
sg73
S'-'
sg75
(i__main__
Node
p76
(dp77
g66
I2
sg67
(i__main__
Node
p78
(dp79
g66
I3
sg67
Nsg70
g76
sg71
S'indiv.getNumPredatorsNeigh()'
p80
sg73
S'indiv.getEnergy()'
p81
sg75
Nsbsg70
g64
sg71
S'*'
sg73
S'-'
sg75
(i__main__
Node
p82
(dp83
g66
I3
sg67
Nsg70
g76
sg71
S'indiv.getTailBrightness()'
p84
sg73
g80
sg75
NsbsbsbsS'tailBrigh'
p85
F0.88072771669225203
sS'maxSteering'
p86
I30
sS'energy'
p87
F0.5
sS'lastScale'
p88
F5.5
sb.(i__main__
Data_mobile
p1
(dp2
S'vel_y'
p3
I0
sS'vel_x'
p4
I0
sS'pos_x'
p5
I-9579
sS'pos_y'
p6
I9779
sS'isAlive'
p7
I00
sS'cumulativeEnergy'
p8
F0.5
sS'geno'
p9
(lp10
(lp11
S'currentVelocity'
p12
a(lp13
S'flee'
p14
aS'POINT.+'
p15
aa(lp16
(lp17
(lp18
S'POINT./'
p19
aaS'currentVelocity'
p20
aS'flee'
p21
aS'alignment'
p22
a(lp23
S'POINT.+'
p24
aS'currentVelocity'
p25
a(lp26
(lp27
S'flee'
p28
aaa(lp29
(lp30
S'alignment'
p31
aa(lp32
S'target'
p33
aaaaS'separation'
p34
aa(lp35
S'currentVelocity'
p36
aS'currentVelocity'
p37
a(lp38
S'flee'
p39
aS'flee'
p40
aa(lp41
S'target'
p42
a(lp43
S'target'
p44
aaaa(lp45
S'target'
p46
aa(lp47
(lp48
S'target'
p49
aaaS'cohesion'
p50
aaS'target'
p51
aaS'POINT.+'
p52
aS'cohesion'
p53
a(lp54
S'target'
p55
aaS'target'
p56
asS'accel_x'
p57
F0
sS'accel_y'
p58
F0
sS'visionAngle'
p59
I150
sS'maxAccel'
p60
I2
sS'maxVel'
p61
F0.5
sS'age'
p62
I0
sS'tailSize'
p63
F0
sS'sexualgeno'
p64
(i__main__
Node
p65
(dp66
S'depth'
p67
I1
sS'right'
p68
(i__main__
Node
p69
(dp70
g67
I2
sg68
NsS'parent'
p71
g65
sS'float_size'
p72
S'indiv.randF()'
p73
sS'float_bright'
p74
S'indiv.getTailSize()'
p75
sS'left'
p76
Nsbsg71
Nsg72
S'/'
sg74
S'-'
sg76
(i__main__
Node
p77
(dp78
g68
(i__main__
Node
p79
(dp80
g68
Nsg71
g77
sg67
I3
sg72
S'indiv.getTailBrightness()'
p81
sg74
g81
sg76
Nsbsg71
g65
sg67
I2
sg72
S'*'
sg74
S'*'
sg76
(i__main__
Node
p82
(dp83
g68
Nsg71
g77
sg67
I3
sg72
g75
sg74
g81
sg76
NsbsbsbsS'tailBrigh'
p84
F0
sS'maxSteering'
p85
I30
sS'energy'
p86
F0.5
sS'lastScale'
p87
F5.5
sb.(i__main__
Data_mobile
p1
(dp2
S'vel_y'
p3
I0
sS'vel_x'
p4
I0
sS'pos_x'
p5
I-9579
sS'pos_y'
p6
I9779
sS'isAlive'
p7
I00
sS'cumulativeEnergy'
p8
F0.5
sS'geno'
p9
(lp10
(lp11
S'currentVelocity'
p12
a(lp13
S'flee'
p14
aS'flee'
p15
aa(lp16
(lp17
S'separation'
p18
aS'currentVelocity'
p19
aS'flee'
p20
aS'target'
p21
a(lp22
S'POINT.+'
p23
aS'currentVelocity'
p24
a(lp25
S'target'
p26
aa(lp27
(lp28
S'alignment'
p29
aa(lp30
S'POINT.+'
p31
aaaaS'target'
p32
aa(lp33
S'currentVelocity'
p34
aS'currentVelocity'
p35
a(lp36
S'flee'
p37
aS'flee'
p38
aa(lp39
S'target'
p40
a(lp41
S'target'
p42
aaaa(lp43
S'target'
p44
aa(lp45
S'flee'
p46
aaS'target'
p47
aaS'target'
p48
aaS'target'
p49
a(lp50
S'flee'
p51
aaS'currentVelocity'
p52
a(lp53
(lp54
S'cohesion'
p55
aaS'alignment'
p56
aasS'accel_x'
p57
F0
sS'accel_y'
p58
F0
sS'visionAngle'
p59
I150
sS'maxAccel'
p60
I2
sS'maxVel'
p61
F0.5
sS'age'
p62
I0
sS'tailSize'
p63
F0
sS'sexualgeno'
p64
(i__main__
Node
p65
(dp66
S'depth'
p67
I1
sS'right'
p68
(i__main__
Node
p69
(dp70
g67
I2
sg68
(i__main__
Node
p71
(dp72
g67
I3
sg68
NsS'parent'
p73
g69
sS'float_size'
p74
S'indiv.randF()'
p75
sS'float_bright'
p76
S'indiv.getTailBrightness()'
p77
sS'left'
p78
Nsbsg73
g65
sg74
S'+'
sg76
S'-'
sg78
(i__main__
Node
p79
(dp80
g67
I3
sg68
Nsg73
g69
sg74
S'indiv.getTailSize()'
p81
sg76
S'indiv.distanceMatingSeason()'
p82
sg78
Nsbsbsg73
Nsg74
S'/'
sg76
S'-'
sg78
(i__main__
Node
p83
(dp84
g67
I2
sg68
(i__main__
Node
p85
(dp86
g67
I3
sg68
Nsg73
g83
sg74
S'indiv.getNumPredatorsNeigh()'
p87
sg76
S'indiv.getEnergy()'
p88
sg78
Nsbsg73
g65
sg74
S'*'
sg76
S'-'
sg78
(i__main__
Node
p89
(dp90
g67
I3
sg68
Nsg73
g83
sg74
g77
sg76
g87
sg78
NsbsbsbsS'tailBrigh'
p91
F0
sS'maxSteering'
p92
I30
sS'energy'
p93
F0.5
sS'lastScale'
p94
F5.5
sb.(i__main__
Data_mobile
p1
(dp2
S'vel_y'
p3
I0
sS'vel_x'
p4
I0
sS'pos_x'
p5
I-9579
sS'pos_y'
p6
I9779
sS'isAlive'
p7
I00
sS'cumulativeEnergy'
p8
F0.5
sS'geno'
p9
(lp10
S'currentVelocity'
p11
aS'currentVelocity'
p12
a(lp13
S'separation'
p14
a(lp15
(lp16
(lp17
(lp18
(lp19
S'POINT./'
p20
aaS'currentVelocity'
p21
aS'flee'
p22
aS'alignment'
p23
a(lp24
S'POINT.+'
p25
aS'currentVelocity'
p26
a(lp27
S'target'
p28
aa(lp29
(lp30
S'alignment'
p31
aa(lp32
S'POINT.+'
p33
aaaaS'separation'
p34
aa(lp35
S'currentVelocity'
p36
aS'alignment'
p37
a(lp38
S'flee'
p39
aS'flee'
p40
aa(lp41
S'target'
p42
a(lp43
S'target'
p44
aaaa(lp45
S'target'
p46
aa(lp47
(lp48
S'target'
p49
aaaS'cohesion'
p50
aaa(lp51
S'POINT.+'
p52
aaaa(lp53
S'target'
p54
a(lp55
S'target'
p56
aaasS'accel_x'
p57
F0
sS'accel_y'
p58
F0
sS'visionAngle'
p59
I150
sS'maxAccel'
p60
I2
sS'maxVel'
p61
F0.5
sS'age'
p62
I0
sS'tailSize'
p63
F23
sS'sexualgeno'
p64
(i__main__
Node
p65
(dp66
S'depth'
p67
I1
sS'right'
p68
(i__main__
Node
p69
(dp70
g67
I2
sg68
NsS'parent'
p71
g65
sS'float_size'
p72
S'indiv.distanceMatingSeason()'
p73
sS'float_bright'
p74
g73
sS'left'
p75
Nsbsg71
Nsg72
S'/'
sg74
S'-'
sg75
(i__main__
Node
p76
(dp77
g67
I2
sg68
(i__main__
Node
p78
(dp79
g67
I3
sg68
Nsg71
g76
sg72
g73
sg74
g73
sg75
Nsbsg71
g65
sg72
S'*'
sg74
S'/'
sg75
(i__main__
Node
p80
(dp81
g67
I3
sg68
Nsg71
g76
sg72
g73
sg74
S'indiv.randF()'
p82
sg75
NsbsbsbsS'tailBrigh'
p83
F0
sS'maxSteering'
p84
I30
sS'energy'
p85
F0.5
sS'lastScale'
p86
F5.5
sb.(i__main__
Data_mobile
p1
(dp2
S'vel_y'
p3
I0
sS'vel_x'
p4
I0
sS'pos_x'
p5
I-9579
sS'pos_y'
p6
I9779
sS'isAlive'
p7
I00
sS'cumulativeEnergy'
p8
F0.5
sS'geno'
p9
(lp10
(lp11
S'currentVelocity'
p12
a(lp13
S'flee'
p14
aS'flee'
p15
aa(lp16
(lp17
S'separation'
p18
aS'currentVelocity'
p19
aS'flee'
p20
aS'target'
p21
a(lp22
S'POINT.+'
p23
aS'currentVelocity'
p24
a(lp25
S'target'
p26
aa(lp27
(lp28
S'alignment'
p29
aa(lp30
S'POINT.+'
p31
aaaaS'target'
p32
aa(lp33
S'currentVelocity'
p34
aS'currentVelocity'
p35
a(lp36
S'flee'
p37
aS'flee'
p38
aa(lp39
S'target'
p40
a(lp41
S'target'
p42
aaaa(lp43
S'target'
p44
aa(lp45
S'flee'
p46
aaS'target'
p47
aaS'target'
p48
aaS'POINT./'
p49
aS'cohesion'
p50
aS'currentVelocity'
p51
a(lp52
(lp53
S'cohesion'
p54
aaS'alignment'
p55
aasS'accel_x'
p56
F0
sS'accel_y'
p57
F0
sS'visionAngle'
p58
I150
sS'maxAccel'
p59
I2
sS'maxVel'
p60
F0.5
sS'age'
p61
I0
sS'tailSize'
p62
I0
sS'sexualgeno'
p63
(i__main__
Node
p64
(dp65
S'depth'
p66
I1
sS'right'
p67
(i__main__
Node
p68
(dp69
g66
I2
sg67
(i__main__
Node
p70
(dp71
g66
I3
sg67
NsS'parent'
p72
g68
sS'float_size'
p73
S'indiv.getNumPredatorsNeigh()'
p74
sS'float_bright'
p75
S'indiv.getEnergy()'
p76
sS'left'
p77
Nsbsg72
g64
sg73
S'*'
sg75
S'-'
sg77
(i__main__
Node
p78
(dp79
g66
I3
sg67
Nsg72
g68
sg73
S'indiv.getTailBrightness()'
p80
sg75
g74
sg77
Nsbsbsg72
Nsg73
S'/'
sg75
S'-'
sg77
(i__main__
Node
p81
(dp82
g66
I2
sg67
(i__main__
Node
p83
(dp84
g66
I3
sg67
Nsg72
g81
sg73
g74
sg75
g76
sg77
Nsbsg72
g64
sg73
S'*'
sg75
S'-'
sg77
(i__main__
Node
p85
(dp86
g66
I3
sg67
Nsg72
g81
sg73
g80
sg75
g74
sg77
NsbsbsbsS'tailBrigh'
p87
F0
sS'maxSteering'
p88
I30
sS'energy'
p89
F0.5
sS'lastScale'
p90
F5.5
sb.(i__main__
Data_mobile
p1
(dp2
S'vel_y'
p3
I0
sS'vel_x'
p4
I0
sS'pos_x'
p5
I-9579
sS'pos_y'
p6
I9779
sS'isAlive'
p7
I00
sS'cumulativeEnergy'
p8
F0.5
sS'geno'
p9
(lp10
(lp11
S'currentVelocity'
p12
a(lp13
S'flee'
p14
aS'POINT.+'
p15
aa(lp16
(lp17
(lp18
S'POINT./'
p19
aaS'currentVelocity'
p20
aS'flee'
p21
aS'alignment'
p22
a(lp23
S'POINT.+'
p24
aS'currentVelocity'
p25
a(lp26
S'target'
p27
aa(lp28
(lp29
S'alignment'
p30
aa(lp31
S'target'
p32
aaaaS'separation'
p33
aa(lp34
S'currentVelocity'
p35
aS'currentVelocity'
p36
a(lp37
S'flee'
p38
aS'flee'
p39
aa(lp40
S'target'
p41
a(lp42
S'target'
p43
aaaa(lp44
S'target'
p45
aa(lp46
(lp47
S'target'
p48
aaaS'cohesion'
p49
aaS'target'
p50
aaS'POINT.+'
p51
aS'cohesion'
p52
a(lp53
S'target'
p54
aa(lp55
(lp56
S'cohesion'
p57
aaS'alignment'
p58
aasS'accel_x'
p59
F0
sS'accel_y'
p60
F0
sS'visionAngle'
p61
I150
sS'maxAccel'
p62
I2
sS'maxVel'
p63
F0.5
sS'age'
p64
I0
sS'tailSize'
p65
F0
sS'sexualgeno'
p66
(i__main__
Node
p67
(dp68
S'depth'
p69
I1
sS'right'
p70
(i__main__
Node
p71
(dp72
g69
I2
sg70
NsS'parent'
p73
g67
sS'float_size'
p74
S'indiv.randF()'
p75
sS'float_bright'
p76
S'indiv.getTailSize()'
p77
sS'left'
p78
Nsbsg73
Nsg74
S'/'
sg76
S'-'
sg78
(i__main__
Node
p79
(dp80
g69
I2
sg70
(i__main__
Node
p81
(dp82
g69
I3
sg70
Nsg73
g79
sg74
S'indiv.getNumPredatorsNeigh()'
p83
sg76
S'indiv.getEnergy()'
p84
sg78
Nsbsg73
g67
sg74
S'*'
sg76
S'-'
sg78
(i__main__
Node
p85
(dp86
g69
I3
sg70
Nsg73
g79
sg74
S'indiv.getTailBrightness()'
p87
sg76
g83
sg78
NsbsbsbsS'tailBrigh'
p88
F0
sS'maxSteering'
p89
I30
sS'energy'
p90
F0.5
sS'lastScale'
p91
F5.5
sb.(i__main__
Data_mobile
p1
(dp2
S'vel_y'
p3
I0
sS'vel_x'
p4
I0
sS'pos_x'
p5
I-9579
sS'pos_y'
p6
I9779
sS'isAlive'
p7
I00
sS'cumulativeEnergy'
p8
F0.5
sS'geno'
p9
(lp10
(lp11
S'currentVelocity'
p12
a(lp13
S'flee'
p14
aS'flee'
p15
aa(lp16
(lp17
(lp18
S'POINT./'
p19
aaS'currentVelocity'
p20
aS'flee'
p21
aS'target'
p22
a(lp23
S'POINT.+'
p24
aS'currentVelocity'
p25
a(lp26
S'target'
p27
aa(lp28
(lp29
S'alignment'
p30
aa(lp31
S'POINT.+'
p32
aaaaS'alignment'
p33
aa(lp34
S'currentVelocity'
p35
aS'currentVelocity'
p36
a(lp37
S'flee'
p38
aS'flee'
p39
aaS'POINT.+'
p40
aa(lp41
S'target'
p42
aa(lp43
S'flee'
p44
aaS'cohesion'
p45
aa(lp46
S'cohesion'
p47
aaaS'POINT./'
p48
aS'cohesion'
p49
a(lp50
S'target'
p51
aaS'currentVelocity'
p52
asS'accel_x'
p53
F0
sS'accel_y'
p54
F0
sS'visionAngle'
p55
I150
sS'maxAccel'
p56
I2
sS'maxVel'
p57
F0.5
sS'age'
p58
I0
sS'tailSize'
p59
F0.94609447093885979
sS'sexualgeno'
p60
(i__main__
Node
p61
(dp62
S'depth'
p63
I1
sS'right'
p64
(i__main__
Node
p65
(dp66
g63
I2
sg64
(i__main__
Node
p67
(dp68
g63
I3
sg64
(i__main__
Node
p69
(dp70
g63
I4
sg64
NsS'parent'
p71
g67
sS'float_size'
p72
S'indiv.randF()'
p73
sS'float_bright'
p74
S'indiv.getTailBrightness()'
p75
sS'left'
p76
Nsbsg71
g65
sg72
S'+'
sg74
S'-'
sg76
(i__main__
Node
p77
(dp78
g63
I4
sg64
Nsg71
g67
sg72
S'indiv.getTailSize()'
p79
sg74
S'indiv.distanceMatingSeason()'
p80
sg76
Nsbsbsg71
g61
sg72
S'+'
sg74
S'/'
sg76
(i__main__
Node
p81
(dp82
g63
I3
sg64
(i__main__
Node
p83
(dp84
g63
I4
sg64
Nsg71
g81
sg72
S'indiv.getNumPredatorsNeigh()'
p85
sg74
S'indiv.getEnergy()'
p86
sg76
Nsbsg71
g65
sg72
S'*'
sg74
S'-'
sg76
(i__main__
Node
p87
(dp88
g63
I4
sg64
Nsg71
g81
sg72
g75
sg74
g85
sg76
Nsbsbsbsg71
Nsg72
S'/'
sg74
S'-'
sg76
(i__main__
Node
p89
(dp90
g63
I2
sg64
(i__main__
Node
p91
(dp92
g63
I3
sg64
Nsg71
g89
sg72
g85
sg74
g86
sg76
Nsbsg71
g61
sg72
S'*'
sg74
S'-'
sg76
(i__main__
Node
p93
(dp94
g63
I3
sg64
Nsg71
g89
sg72
g75
sg74
g85
sg76
NsbsbsbsS'tailBrigh'
p95
F4.7057931577144281
sS'maxSteering'
p96
I30
sS'energy'
p97
F0.5
sS'lastScale'
p98
F5.5
sb.(i__main__
Data_mobile
p1
(dp2
S'vel_y'
p3
I0
sS'vel_x'
p4
I0
sS'pos_x'
p5
I-9579
sS'pos_y'
p6
I9779
sS'isAlive'
p7
I00
sS'cumulativeEnergy'
p8
F0.5
sS'geno'
p9
(lp10
(lp11
S'currentVelocity'
p12
a(lp13
S'flee'
p14
aS'target'
p15
aa(lp16
(lp17
(lp18
S'POINT./'
p19
aaS'currentVelocity'
p20
aS'flee'
p21
aS'alignment'
p22
a(lp23
S'POINT.+'
p24
aS'currentVelocity'
p25
a(lp26
S'target'
p27
aa(lp28
(lp29
S'alignment'
p30
aa(lp31
(lp32
S'flee'
p33
aaaaaS'alignment'
p34
aa(lp35
S'currentVelocity'
p36
aS'currentVelocity'
p37
aS'flee'
p38
a(lp39
S'target'
p40
a(lp41
S'target'
p42
aaaaS'target'
p43
a(lp44
S'target'
p45
aaS'cohesion'
p46
aa(lp47
S'POINT./'
p48
aaaS'POINT.+'
p49
aS'cohesion'
p50
a(lp51
S'target'
p52
aa(lp53
(lp54
S'cohesion'
p55
aaS'alignment'
p56
aasS'accel_x'
p57
F0
sS'accel_y'
p58
F0
sS'visionAngle'
p59
I150
sS'maxAccel'
p60
I2
sS'maxVel'
p61
F0.5
sS'age'
p62
I0
sS'tailSize'
p63
F0
sS'sexualgeno'
p64
(i__main__
Node
p65
(dp66
S'depth'
p67
I1
sS'right'
p68
(i__main__
Node
p69
(dp70
g67
I2
sg68
(i__main__
Node
p71
(dp72
g67
I3
sg68
NsS'parent'
p73
g69
sS'float_size'
p74
S'indiv.getNumPredatorsNeigh()'
p75
sS'float_bright'
p76
S'indiv.getEnergy()'
p77
sS'left'
p78
Nsbsg73
g65
sg74
S'*'
sg76
S'-'
sg78
(i__main__
Node
p79
(dp80
g67
I3
sg68
Nsg73
g69
sg74
S'indiv.getTailBrightness()'
p81
sg76
g75
sg78
Nsbsbsg73
Nsg74
S'/'
sg76
S'-'
sg78
(i__main__
Node
p82
(dp83
g67
I2
sg68
(i__main__
Node
p84
(dp85
g67
I3
sg68
(i__main__
Node
p86
(dp87
g67
I4
sg68
Nsg73
g84
sg74
g75
sg76
g77
sg78
Nsbsg73
g82
sg74
S'*'
sg76
S'-'
sg78
(i__main__
Node
p88
(dp89
g67
I4
sg68
Nsg73
g84
sg74
g81
sg76
g75
sg78
Nsbsbsg73
g65
sg74
S'-'
sg76
S'-'
sg78
(i__main__
Node
p90
(dp91
g67
I3
sg68
(i__main__
Node
p92
(dp93
g67
I4
sg68
Nsg73
g90
sg74
g75
sg76
g77
sg78
Nsbsg73
g82
sg74
S'*'
sg76
S'-'
sg78
(i__main__
Node
p94
(dp95
g67
I4
sg68
Nsg73
g90
sg74
g81
sg76
g75
sg78
NsbsbsbsbsS'tailBrigh'
p96
F0
sS'maxSteering'
p97
I30
sS'energy'
p98
F0.5
sS'lastScale'
p99
F5.5
sb.(i__main__
Data_mobile
p1
(dp2
S'vel_y'
p3
I0
sS'vel_x'
p4
I0
sS'pos_x'
p5
I-9579
sS'pos_y'
p6
I9779
sS'isAlive'
p7
I00
sS'cumulativeEnergy'
p8
F0.5
sS'geno'
p9
(lp10
(lp11
S'currentVelocity'
p12
a(lp13
S'flee'
p14
aS'flee'
p15
aa(lp16
(lp17
(lp18
S'POINT./'
p19
aaS'currentVelocity'
p20
aS'flee'
p21
aS'target'
p22
a(lp23
S'POINT.+'
p24
aS'currentVelocity'
p25
a(lp26
S'target'
p27
aa(lp28
(lp29
S'alignment'
p30
aa(lp31
S'POINT.+'
p32
aaaaS'target'
p33
aa(lp34
S'currentVelocity'
p35
aS'currentVelocity'
p36
a(lp37
S'flee'
p38
aS'flee'
p39
aa(lp40
S'target'
p41
a(lp42
S'target'
p43
aaaa(lp44
S'target'
p45
aa(lp46
S'flee'
p47
aaS'target'
p48
aaS'target'
p49
aaS'POINT./'
p50
aS'cohesion'
p51
aS'currentVelocity'
p52
a(lp53
(lp54
S'cohesion'
p55
aaS'alignment'
p56
aasS'accel_x'
p57
F0
sS'accel_y'
p58
F0
sS'visionAngle'
p59
I150
sS'maxAccel'
p60
I2
sS'maxVel'
p61
F0.5
sS'age'
p62
I0
sS'tailSize'
p63
I0
sS'sexualgeno'
p64
(i__main__
Node
p65
(dp66
S'depth'
p67
I1
sS'right'
p68
(i__main__
Node
p69
(dp70
g67
I2
sg68
(i__main__
Node
p71
(dp72
g67
I3
sg68
NsS'parent'
p73
g69
sS'float_size'
p74
S'indiv.getNumPredatorsNeigh()'
p75
sS'float_bright'
p76
S'indiv.getEnergy()'
p77
sS'left'
p78
Nsbsg73
g65
sg74
S'*'
sg76
S'-'
sg78
(i__main__
Node
p79
(dp80
g67
I3
sg68
Nsg73
g69
sg74
S'indiv.getTailBrightness()'
p81
sg76
g75
sg78
Nsbsbsg73
Nsg74
S'/'
sg76
S'-'
sg78
(i__main__
Node
p82
(dp83
g67
I2
sg68
(i__main__
Node
p84
(dp85
g67
I3
sg68
Nsg73
g82
sg74
g75
sg76
g77
sg78
Nsbsg73
g65
sg74
S'*'
sg76
S'-'
sg78
(i__main__
Node
p86
(dp87
g67
I3
sg68
Nsg73
g82
sg74
g81
sg76
g75
sg78
NsbsbsbsS'tailBrigh'
p88
F0
sS'maxSteering'
p89
I30
sS'energy'
p90
F0.5
sS'lastScale'
p91
F5.5
sb.(i__main__
Data_mobile
p1
(dp2
S'vel_y'
p3
I0
sS'vel_x'
p4
I0
sS'pos_x'
p5
I-9579
sS'pos_y'
p6
I9779
sS'isAlive'
p7
I00
sS'cumulativeEnergy'
p8
F0.5
sS'geno'
p9
(lp10
(lp11
S'currentVelocity'
p12
a(lp13
S'flee'
p14
aS'flee'
p15
aa(lp16
(lp17
(lp18
S'POINT./'
p19
aaS'currentVelocity'
p20
aS'flee'
p21
aS'target'
p22
a(lp23
S'POINT.+'
p24
aS'currentVelocity'
p25
a(lp26
S'target'
p27
aa(lp28
(lp29
S'alignment'
p30
aa(lp31
S'POINT./'
p32
aaaaS'alignment'
p33
aa(lp34
S'currentVelocity'
p35
aS'currentVelocity'
p36
a(lp37
S'flee'
p38
aS'flee'
p39
aaS'POINT.+'
p40
aa(lp41
S'target'
p42
aa(lp43
S'flee'
p44
aaS'cohesion'
p45
aa(lp46
S'cohesion'
p47
aaaS'POINT./'
p48
aS'cohesion'
p49
a(lp50
S'target'
p51
aaS'currentVelocity'
p52
asS'accel_x'
p53
F0
sS'accel_y'
p54
F0
sS'visionAngle'
p55
I150
sS'maxAccel'
p56
I2
sS'maxVel'
p57
F0.5
sS'age'
p58
I0
sS'tailSize'
p59
F0
sS'sexualgeno'
p60
(i__main__
Node
p61
(dp62
S'depth'
p63
I1
sS'right'
p64
(i__main__
Node
p65
(dp66
g63
I2
sg64
(i__main__
Node
p67
(dp68
g63
I3
sg64
(i__main__
Node
p69
(dp70
g63
I4
sg64
NsS'parent'
p71
g67
sS'float_size'
p72
S'indiv.getNumPredatorsNeigh()'
p73
sS'float_bright'
p74
S'indiv.getEnergy()'
p75
sS'left'
p76
Nsbsg71
g65
sg72
S'*'
sg74
S'-'
sg76
(i__main__
Node
p77
(dp78
g63
I4
sg64
Nsg71
g67
sg72
S'indiv.getTailBrightness()'
p79
sg74
g73
sg76
Nsbsbsg71
g61
sg72
S'+'
sg74
S'/'
sg76
(i__main__
Node
p80
(dp81
g63
I3
sg64
(i__main__
Node
p82
(dp83
g63
I4
sg64
Nsg71
g80
sg72
S'indiv.distanceMatingSeason()'
p84
sg74
g84
sg76
Nsbsg71
g65
sg72
S'*'
sg74
S'/'
sg76
(i__main__
Node
p85
(dp86
g63
I4
sg64
Nsg71
g80
sg72
g84
sg74
S'indiv.randF()'
p87
sg76
Nsbsbsbsg71
Nsg72
S'/'
sg74
S'-'
sg76
(i__main__
Node
p88
(dp89
g63
I2
sg64
(i__main__
Node
p90
(dp91
g63
I3
sg64
Nsg71
g88
sg72
g73
sg74
g75
sg76
Nsbsg71
g61
sg72
S'*'
sg74
S'-'
sg76
(i__main__
Node
p92
(dp93
g63
I3
sg64
Nsg71
g88
sg72
g79
sg74
g73
sg76
NsbsbsbsS'tailBrigh'
p94
F0
sS'maxSteering'
p95
I30
sS'energy'
p96
F0.5
sS'lastScale'
p97
F5.5
sb.(i__main__
Data_mobile
p1
(dp2
S'vel_y'
p3
I0
sS'vel_x'
p4
I0
sS'pos_x'
p5
I-9579
sS'pos_y'
p6
I9779
sS'isAlive'
p7
I00
sS'cumulativeEnergy'
p8
F0.5
sS'geno'
p9
(lp10
S'cohesion'
p11
aS'POINT.+'
p12
a(lp13
S'alignment'
p14
aa(lp15
S'POINT.*'
p16
aa(lp17
S'target'
p18
aasS'accel_x'
p19
F0
sS'accel_y'
p20
F0
sS'visionAngle'
p21
I150
sS'maxAccel'
p22
I2
sS'maxVel'
p23
F0.5
sS'age'
p24
I0
sS'tailSize'
p25
I0
sS'sexualgeno'
p26
(i__main__
Node
p27
(dp28
S'depth'
p29
I1
sS'right'
p30
(i__main__
Node
p31
(dp32
g29
I2
sg30
NsS'parent'
p33
g27
sS'float_size'
p34
S'indiv.getTailSize()'
p35
sS'float_bright'
p36
g35
sS'left'
p37
Nsbsg33
Nsg34
S'/'
sg36
S'-'
sg37
(i__main__
Node
p38
(dp39
g30
(i__main__
Node
p40
(dp41
g30
Nsg33
g38
sg29
I3
sg34
S'indiv.getEnergy()'
p42
sg36
S'indiv.distanceMatingSeason()'
p43
sg37
Nsbsg33
g27
sg29
I2
sg34
S'+'
sg36
S'-'
sg37
(i__main__
Node
p44
(dp45
g30
Nsg33
g38
sg29
I3
sg34
S'indiv.getTailBrightness()'
p46
sg36
g35
sg37
NsbsbsbsS'tailBrigh'
p47
F0
sS'maxSteering'
p48
I30
sS'energy'
p49
F0.5
sS'lastScale'
p50
F5.5
sb.(i__main__
Data_mobile
p1
(dp2
S'vel_y'
p3
I0
sS'vel_x'
p4
I0
sS'pos_x'
p5
I-9579
sS'pos_y'
p6
I9779
sS'isAlive'
p7
I00
sS'cumulativeEnergy'
p8
F0.5
sS'geno'
p9
(lp10
(lp11
S'currentVelocity'
p12
a(lp13
S'flee'
p14
aS'flee'
p15
aa(lp16
(lp17
(lp18
S'POINT./'
p19
aaS'currentVelocity'
p20
aS'flee'
p21
aS'target'
p22
a(lp23
S'POINT.+'
p24
aS'currentVelocity'
p25
a(lp26
S'target'
p27
aa(lp28
(lp29
(lp30
S'alignment'
p31
aa(lp32
S'target'
p33
aaaaaS'alignment'
p34
aa(lp35
S'currentVelocity'
p36
aS'currentVelocity'
p37
a(lp38
S'flee'
p39
aS'flee'
p40
aaS'POINT.+'
p41
aa(lp42
S'target'
p43
aa(lp44
S'flee'
p45
aaS'cohesion'
p46
aa(lp47
S'cohesion'
p48
aaaS'POINT./'
p49
aS'cohesion'
p50
a(lp51
S'target'
p52
aaS'currentVelocity'
p53
asS'accel_x'
p54
F0
sS'accel_y'
p55
F0
sS'visionAngle'
p56
I150
sS'maxAccel'
p57
I2
sS'maxVel'
p58
F0.5
sS'age'
p59
I0
sS'tailSize'
p60
F0.094973827758355958
sS'sexualgeno'
p61
(i__main__
Node
p62
(dp63
S'depth'
p64
I1
sS'right'
p65
(i__main__
Node
p66
(dp67
g64
I2
sg65
(i__main__
Node
p68
(dp69
g64
I3
sg65
(i__main__
Node
p70
(dp71
g64
I4
sg65
NsS'parent'
p72
g68
sS'float_size'
p73
S'indiv.getNumPredatorsNeigh()'
p74
sS'float_bright'
p75
S'indiv.getEnergy()'
p76
sS'left'
p77
Nsbsg72
g66
sg73
S'*'
sg75
S'-'
sg77
(i__main__
Node
p78
(dp79
g64
I4
sg65
Nsg72
g68
sg73
S'indiv.getTailBrightness()'
p80
sg75
g74
sg77
Nsbsbsg72
g62
sg73
S'+'
sg75
S'/'
sg77
(i__main__
Node
p81
(dp82
g64
I3
sg65
(i__main__
Node
p83
(dp84
g64
I4
sg65
Nsg72
g81
sg73
S'indiv.distanceMatingSeason()'
p85
sg75
g85
sg77
Nsbsg72
g66
sg73
S'*'
sg75
S'/'
sg77
(i__main__
Node
p86
(dp87
g64
I4
sg65
Nsg72
g81
sg73
g85
sg75
S'indiv.randF()'
p88
sg77
Nsbsbsbsg72
Nsg73
S'/'
sg75
S'-'
sg77
(i__main__
Node
p89
(dp90
g64
I2
sg65
(i__main__
Node
p91
(dp92
g64
I3
sg65
Nsg72
g89
sg73
g74
sg75
g76
sg77
Nsbsg72
g62
sg73
S'*'
sg75
S'-'
sg77
(i__main__
Node
p93
(dp94
g64
I3
sg65
Nsg72
g89
sg73
g80
sg75
g74
sg77
NsbsbsbsS'tailBrigh'
p95
F2.9255304947234269
sS'maxSteering'
p96
I30
sS'energy'
p97
F0.5
sS'lastScale'
p98
F5.5
sb.(i__main__
Data_mobile
p1
(dp2
S'vel_y'
p3
I0
sS'vel_x'
p4
I0
sS'pos_x'
p5
I-9579
sS'pos_y'
p6
I9779
sS'isAlive'
p7
I00
sS'cumulativeEnergy'
p8
F0.5
sS'geno'
p9
(lp10
S'cohesion'
p11
aS'POINT.+'
p12
aS'cohesion'
p13
a(lp14
(lp15
(lp16
S'alignment'
p17
aa(lp18
S'POINT.-'
p19
aaaa(lp20
(lp21
S'POINT.*'
p22
a(lp23
(lp24
S'POINT./'
p25
aa(lp26
(lp27
S'flee'
p28
aaaaaasS'accel_x'
p29
F0
sS'accel_y'
p30
F0
sS'visionAngle'
p31
I150
sS'maxAccel'
p32
I2
sS'maxVel'
p33
F0.5
sS'age'
p34
I0
sS'tailSize'
p35
I0
sS'sexualgeno'
p36
(i__main__
Node
p37
(dp38
S'depth'
p39
I1
sS'right'
p40
(i__main__
Node
p41
(dp42
g39
I2
sg40
NsS'parent'
p43
g37
sS'float_size'
p44
S'indiv.getTailSize()'
p45
sS'float_bright'
p46
g45
sS'left'
p47
Nsbsg43
Nsg44
S'/'
sg46
S'-'
sg47
(i__main__
Node
p48
(dp49
g39
I2
sg40
(i__main__
Node
p50
(dp51
g39
I3
sg40
(i__main__
Node
p52
(dp53
g39
I4
sg40
Nsg43
g50
sg44
g45
sg46
S'indiv.getTailBrightness()'
p54
sg47
Nsbsg43
g48
sg44
S'-'
sg46
S'*'
sg47
(i__main__
Node
p55
(dp56
g39
I4
sg40
Nsg43
g50
sg44
S'indiv.randF()'
p57
sg46
g54
sg47
Nsbsbsg43
g37
sg44
S'/'
sg46
S'*'
sg47
(i__main__
Node
p58
(dp59
g39
I3
sg40
(i__main__
Node
p60
(dp61
g39
I4
sg40
Nsg43
g58
sg44
S'indiv.getNumPredatorsNeigh()'
p62
sg46
S'indiv.getEnergy()'
p63
sg47
Nsbsg43
g48
sg44
S'*'
sg46
S'-'
sg47
(i__main__
Node
p64
(dp65
g39
I4
sg40
Nsg43
g58
sg44
g54
sg46
g62
sg47
NsbsbsbsbsS'tailBrigh'
p66
F0
sS'maxSteering'
p67
I30
sS'energy'
p68
F0.5
sS'lastScale'
p69
F5.5
sb.(i__main__
Data_mobile
p1
(dp2
S'vel_y'
p3
I0
sS'vel_x'
p4
I0
sS'pos_x'
p5
I-9579
sS'pos_y'
p6
I9779
sS'isAlive'
p7
I00
sS'cumulativeEnergy'
p8
F0.5
sS'geno'
p9
(lp10
(lp11
S'currentVelocity'
p12
a(lp13
S'flee'
p14
aS'POINT.+'
p15
aa(lp16
(lp17
(lp18
S'POINT./'
p19
aaS'currentVelocity'
p20
aS'flee'
p21
aS'alignment'
p22
a(lp23
S'POINT.+'
p24
aS'target'
p25
a(lp26
S'target'
p27
aa(lp28
(lp29
S'alignment'
p30
aa(lp31
S'target'
p32
aaaaS'separation'
p33
aa(lp34
S'currentVelocity'
p35
aS'currentVelocity'
p36
a(lp37
S'flee'
p38
aS'flee'
p39
aa(lp40
S'target'
p41
a(lp42
S'target'
p43
aaaa(lp44
S'target'
p45
aa(lp46
(lp47
S'target'
p48
aaaS'cohesion'
p49
aaS'target'
p50
aaS'POINT.+'
p51
aS'cohesion'
p52
a(lp53
S'target'
p54
aa(lp55
S'target'
p56
aS'alignment'
p57
aasS'accel_x'
p58
F0
sS'accel_y'
p59
F0
sS'visionAngle'
p60
I150
sS'maxAccel'
p61
I2
sS'maxVel'
p62
F0.5
sS'age'
p63
I0
sS'tailSize'
p64
F0
sS'sexualgeno'
p65
(i__main__
Node
p66
(dp67
S'depth'
p68
I1
sS'right'
p69
(i__main__
Node
p70
(dp71
g68
I2
sg69
NsS'parent'
p72
g66
sS'float_size'
p73
S'indiv.randF()'
p74
sS'float_bright'
p75
S'indiv.getTailSize()'
p76
sS'left'
p77
Nsbsg72
Nsg73
S'/'
sg75
S'-'
sg77
(i__main__
Node
p78
(dp79
g68
I2
sg69
(i__main__
Node
p80
(dp81
g68
I3
sg69
Nsg72
g78
sg73
S'indiv.getNumPredatorsNeigh()'
p82
sg75
S'indiv.getEnergy()'
p83
sg77
Nsbsg72
g66
sg73
S'*'
sg75
S'-'
sg77
(i__main__
Node
p84
(dp85
g68
I3
sg69
Nsg72
g78
sg73
S'indiv.getTailBrightness()'
p86
sg75
g82
sg77
NsbsbsbsS'tailBrigh'
p87
F0
sS'maxSteering'
p88
I30
sS'energy'
p89
F0.5
sS'lastScale'
p90
F5.5
sb.(i__main__
Data_mobile
p1
(dp2
S'vel_y'
p3
I0
sS'vel_x'
p4
I0
sS'pos_x'
p5
I-9579
sS'pos_y'
p6
I9779
sS'isAlive'
p7
I00
sS'cumulativeEnergy'
p8
F0.5
sS'geno'
p9
(lp10
S'currentVelocity'
p11
a(lp12
S'target'
p13
aa(lp14
S'flee'
p15
a(lp16
(lp17
(lp18
S'alignment'
p19
a(lp20
(lp21
S'POINT./'
p22
aa(lp23
(lp24
S'flee'
p25
aaaaaa(lp26
S'POINT.+'
p27
aaaa(lp28
S'target'
p29
a(lp30
S'target'
p31
aaasS'accel_x'
p32
F0
sS'accel_y'
p33
F0
sS'visionAngle'
p34
I150
sS'maxAccel'
p35
I2
sS'maxVel'
p36
F0.5
sS'age'
p37
I0
sS'tailSize'
p38
F0
sS'sexualgeno'
p39
(i__main__
Node
p40
(dp41
S'depth'
p42
I1
sS'right'
p43
(i__main__
Node
p44
(dp45
g42
I2
sg43
NsS'parent'
p46
g40
sS'float_size'
p47
S'indiv.distanceMatingSeason()'
p48
sS'float_bright'
p49
g48
sS'left'
p50
Nsbsg46
Nsg47
S'/'
sg49
S'-'
sg50
(i__main__
Node
p51
(dp52
g42
I2
sg43
(i__main__
Node
p53
(dp54
g42
I3
sg43
Nsg46
g51
sg47
S'indiv.getNumPredatorsNeigh()'
p55
sg49
S'indiv.getEnergy()'
p56
sg50
Nsbsg46
g40
sg47
S'*'
sg49
S'-'
sg50
(i__main__
Node
p57
(dp58
g42
I3
sg43
Nsg46
g51
sg47
S'indiv.getTailBrightness()'
p59
sg49
g55
sg50
NsbsbsbsS'tailBrigh'
p60
F0
sS'maxSteering'
p61
I30
sS'energy'
p62
F0.5
sS'lastScale'
p63
F5.5
sb.(i__main__
Data_mobile
p1
(dp2
S'vel_y'
p3
I0
sS'vel_x'
p4
I0
sS'pos_x'
p5
I-9579
sS'pos_y'
p6
I9779
sS'isAlive'
p7
I00
sS'cumulativeEnergy'
p8
F0.5
sS'geno'
p9
(lp10
(lp11
S'currentVelocity'
p12
a(lp13
S'flee'
p14
aS'POINT.+'
p15
aa(lp16
(lp17
(lp18
S'POINT./'
p19
aaS'currentVelocity'
p20
aS'flee'
p21
aS'alignment'
p22
a(lp23
S'POINT.+'
p24
aS'currentVelocity'
p25
a(lp26
S'target'
p27
aa(lp28
(lp29
S'alignment'
p30
aa(lp31
S'POINT.+'
p32
aaaaS'separation'
p33
aa(lp34
S'currentVelocity'
p35
aS'currentVelocity'
p36
a(lp37
S'flee'
p38
aS'flee'
p39
aa(lp40
S'target'
p41
a(lp42
S'target'
p43
aaaa(lp44
S'target'
p45
aa(lp46
(lp47
S'target'
p48
aaaS'cohesion'
p49
aaS'target'
p50
aaS'POINT.+'
p51
aS'cohesion'
p52
a(lp53
S'target'
p54
aa(lp55
(lp56
S'cohesion'
p57
aaS'alignment'
p58
aasS'accel_x'
p59
F0
sS'accel_y'
p60
F0
sS'visionAngle'
p61
I150
sS'maxAccel'
p62
I2
sS'maxVel'
p63
F0.5
sS'age'
p64
I0
sS'tailSize'
p65
I0
sS'sexualgeno'
p66
(i__main__
Node
p67
(dp68
S'depth'
p69
I1
sS'right'
p70
(i__main__
Node
p71
(dp72
g69
I2
sg70
(i__main__
Node
p73
(dp74
g69
I3
sg70
NsS'parent'
p75
g71
sS'float_size'
p76
S'indiv.getTailSize()'
p77
sS'float_bright'
p78
S'indiv.getTailBrightness()'
p79
sS'left'
p80
Nsbsg75
g67
sg76
S'*'
sg78
S'/'
sg80
(i__main__
Node
p81
(dp82
g69
I3
sg70
Nsg75
g71
sg76
S'indiv.getEnergy()'
p83
sg78
g83
sg80
Nsbsbsg75
Nsg76
S'/'
sg78
S'-'
sg80
(i__main__
Node
p84
(dp85
g69
I2
sg70
(i__main__
Node
p86
(dp87
g69
I3
sg70
Nsg75
g84
sg76
S'indiv.getNumPredatorsNeigh()'
p88
sg78
g83
sg80
Nsbsg75
g67
sg76
S'*'
sg78
S'-'
sg80
(i__main__
Node
p89
(dp90
g69
I3
sg70
Nsg75
g84
sg76
g79
sg78
g88
sg80
NsbsbsbsS'tailBrigh'
p91
F0
sS'maxSteering'
p92
I30
sS'energy'
p93
F0.5
sS'lastScale'
p94
F5.5
sb.(i__main__
Data_mobile
p1
(dp2
S'vel_y'
p3
I0
sS'vel_x'
p4
I0
sS'pos_x'
p5
I-9579
sS'pos_y'
p6
I9779
sS'isAlive'
p7
I00
sS'cumulativeEnergy'
p8
F0.5
sS'geno'
p9
(lp10
(lp11
S'currentVelocity'
p12
a(lp13
S'flee'
p14
aS'POINT.+'
p15
aa(lp16
(lp17
(lp18
S'POINT./'
p19
aaS'currentVelocity'
p20
aS'flee'
p21
aS'alignment'
p22
a(lp23
S'POINT.+'
p24
aS'currentVelocity'
p25
a(lp26
S'target'
p27
aa(lp28
(lp29
S'alignment'
p30
aa(lp31
S'target'
p32
aaaaS'separation'
p33
aa(lp34
S'currentVelocity'
p35
aS'currentVelocity'
p36
a(lp37
S'flee'
p38
aS'flee'
p39
aa(lp40
S'target'
p41
a(lp42
S'target'
p43
aaaa(lp44
S'target'
p45
aa(lp46
(lp47
S'target'
p48
aaaS'cohesion'
p49
aaS'target'
p50
aaS'POINT.+'
p51
aS'cohesion'
p52
a(lp53
S'target'
p54
aa(lp55
(lp56
S'cohesion'
p57
aaS'alignment'
p58
aasS'accel_x'
p59
F0
sS'accel_y'
p60
F0
sS'visionAngle'
p61
I150
sS'maxAccel'
p62
I2
sS'maxVel'
p63
F0.5
sS'age'
p64
I0
sS'tailSize'
p65
F2.0551601636266783
sS'sexualgeno'
p66
(i__main__
Node
p67
(dp68
S'depth'
p69
I1
sS'right'
p70
(i__main__
Node
p71
(dp72
g69
I2
sg70
NsS'parent'
p73
g67
sS'float_size'
p74
S'indiv.randF()'
p75
sS'float_bright'
p76
S'indiv.getTailSize()'
p77
sS'left'
p78
Nsbsg73
Nsg74
S'/'
sg76
S'-'
sg78
(i__main__
Node
p79
(dp80
g70
Nsg73
g67
sg69
I2
sg74
g75
sg76
g77
sg78
NsbsbsS'tailBrigh'
p81
F0
sS'maxSteering'
p82
I30
sS'energy'
p83
F0.5
sS'lastScale'
p84
F5.5
sb.(i__main__
Data_mobile
p1
(dp2
S'vel_y'
p3
I0
sS'vel_x'
p4
I0
sS'pos_x'
p5
I-9579
sS'pos_y'
p6
I9779
sS'isAlive'
p7
I00
sS'cumulativeEnergy'
p8
F0.5
sS'geno'
p9
(lp10
S'cohesion'
p11
aS'POINT.+'
p12
aS'cohesion'
p13
a(lp14
S'target'
p15
aa(lp16
(lp17
(lp18
S'POINT./'
p19
aaS'currentVelocity'
p20
aS'flee'
p21
aS'alignment'
p22
a(lp23
S'POINT.+'
p24
aS'currentVelocity'
p25
a(lp26
S'target'
p27
aa(lp28
(lp29
S'alignment'
p30
aa(lp31
S'target'
p32
aaaaS'separation'
p33
aa(lp34
S'currentVelocity'
p35
aS'currentVelocity'
p36
a(lp37
S'flee'
p38
aS'flee'
p39
aa(lp40
S'target'
p41
a(lp42
S'target'
p43
aaaa(lp44
S'target'
p45
aa(lp46
(lp47
S'target'
p48
aaaS'cohesion'
p49
aasS'accel_x'
p50
F0
sS'accel_y'
p51
F0
sS'visionAngle'
p52
I150
sS'maxAccel'
p53
I2
sS'maxVel'
p54
F0.5
sS'age'
p55
I0
sS'tailSize'
p56
I0
sS'sexualgeno'
p57
(i__main__
Node
p58
(dp59
S'depth'
p60
I1
sS'right'
p61
(i__main__
Node
p62
(dp63
g60
I2
sg61
NsS'parent'
p64
g58
sS'float_size'
p65
S'indiv.getTailSize()'
p66
sS'float_bright'
p67
g66
sS'left'
p68
Nsbsg64
Nsg65
S'/'
sg67
S'-'
sg68
(i__main__
Node
p69
(dp70
g60
I2
sg61
(i__main__
Node
p71
(dp72
g60
I3
sg61
Nsg64
g69
sg65
S'indiv.getNumPredatorsNeigh()'
p73
sg67
S'indiv.getEnergy()'
p74
sg68
Nsbsg64
g58
sg65
S'*'
sg67
S'-'
sg68
(i__main__
Node
p75
(dp76
g60
I3
sg61
Nsg64
g69
sg65
S'indiv.getTailBrightness()'
p77
sg67
g73
sg68
NsbsbsbsS'tailBrigh'
p78
F0
sS'maxSteering'
p79
I30
sS'energy'
p80
F0.5
sS'lastScale'
p81
F5.5
sb.(i__main__
Data_mobile
p1
(dp2
S'vel_y'
p3
I0
sS'vel_x'
p4
I0
sS'pos_x'
p5
I-9579
sS'pos_y'
p6
I9779
sS'isAlive'
p7
I00
sS'cumulativeEnergy'
p8
F0.5
sS'geno'
p9
(lp10
(lp11
S'currentVelocity'
p12
a(lp13
S'flee'
p14
aS'POINT.+'
p15
aa(lp16
(lp17
(lp18
S'POINT./'
p19
aaS'currentVelocity'
p20
aS'flee'
p21
aS'alignment'
p22
a(lp23
S'POINT.+'
p24
aS'currentVelocity'
p25
a(lp26
S'target'
p27
aa(lp28
(lp29
S'alignment'
p30
aa(lp31
S'target'
p32
aaaaS'separation'
p33
aa(lp34
S'currentVelocity'
p35
aS'currentVelocity'
p36
a(lp37
S'flee'
p38
aS'flee'
p39
aa(lp40
S'target'
p41
a(lp42
S'target'
p43
aaaa(lp44
S'target'
p45
aa(lp46
(lp47
S'target'
p48
aaaS'cohesion'
p49
aaS'target'
p50
aaS'POINT.+'
p51
aS'cohesion'
p52
a(lp53
S'target'
p54
aa(lp55
(lp56
S'cohesion'
p57
aaS'alignment'
p58
aasS'accel_x'
p59
F0
sS'accel_y'
p60
F0
sS'visionAngle'
p61
I150
sS'maxAccel'
p62
I2
sS'maxVel'
p63
F0.5
sS'age'
p64
I0
sS'tailSize'
p65
F0
sS'sexualgeno'
p66
(i__main__
Node
p67
(dp68
S'depth'
p69
I1
sS'right'
p70
(i__main__
Node
p71
(dp72
g70
NsS'parent'
p73
g67
sg69
I2
sS'float_size'
p74
S'indiv.randF()'
p75
sS'float_bright'
p76
S'indiv.getTailSize()'
p77
sS'left'
p78
Nsbsg73
Nsg74
S'/'
sg76
S'-'
sg78
(i__main__
Node
p79
(dp80
g69
I2
sg70
(i__main__
Node
p81
(dp82
g69
I3
sg70
Nsg73
g79
sg74
S'indiv.getNumPredatorsNeigh()'
p83
sg76
S'indiv.getEnergy()'
p84
sg78
Nsbsg73
g67
sg74
S'*'
sg76
S'-'
sg78
(i__main__
Node
p85
(dp86
g69
I3
sg70
Nsg73
g79
sg74
S'indiv.getTailBrightness()'
p87
sg76
g83
sg78
NsbsbsbsS'tailBrigh'
p88
F0
sS'maxSteering'
p89
I30
sS'energy'
p90
F0.5
sS'lastScale'
p91
F5.5
sb.(i__main__
Data_mobile
p1
(dp2
S'vel_y'
p3
I0
sS'vel_x'
p4
I0
sS'pos_x'
p5
I-9579
sS'pos_y'
p6
I9779
sS'isAlive'
p7
I00
sS'cumulativeEnergy'
p8
F0.5
sS'geno'
p9
(lp10
(lp11
S'currentVelocity'
p12
a(lp13
S'flee'
p14
aS'POINT.+'
p15
aa(lp16
(lp17
(lp18
S'POINT./'
p19
aaS'currentVelocity'
p20
aS'flee'
p21
aS'alignment'
p22
a(lp23
S'POINT.+'
p24
aS'currentVelocity'
p25
a(lp26
S'target'
p27
aa(lp28
(lp29
S'alignment'
p30
aa(lp31
S'POINT.+'
p32
aaaaS'separation'
p33
aa(lp34
S'currentVelocity'
p35
aS'currentVelocity'
p36
a(lp37
S'flee'
p38
aS'flee'
p39
aa(lp40
S'target'
p41
a(lp42
S'target'
p43
aaaa(lp44
S'target'
p45
aa(lp46
(lp47
S'target'
p48
aaaS'cohesion'
p49
aaS'target'
p50
aaS'POINT.+'
p51
aS'cohesion'
p52
a(lp53
S'target'
p54
aa(lp55
(lp56
S'cohesion'
p57
aaS'alignment'
p58
aasS'accel_x'
p59
F0
sS'accel_y'
p60
F0
sS'visionAngle'
p61
I150
sS'maxAccel'
p62
I2
sS'maxVel'
p63
F0.5
sS'age'
p64
I0
sS'tailSize'
p65
I0
sS'sexualgeno'
p66
(i__main__
Node
p67
(dp68
S'depth'
p69
I1
sS'right'
p70
(i__main__
Node
p71
(dp72
g69
I2
sg70
(i__main__
Node
p73
(dp74
g69
I3
sg70
NsS'parent'
p75
g71
sS'float_size'
p76
S'indiv.getNumPredatorsNeigh()'
p77
sS'float_bright'
p78
S'indiv.getEnergy()'
p79
sS'left'
p80
Nsbsg75
g67
sg76
S'*'
sg78
S'-'
sg80
(i__main__
Node
p81
(dp82
g69
I3
sg70
Nsg75
g71
sg76
S'indiv.getTailBrightness()'
p83
sg78
g77
sg80
Nsbsbsg75
Nsg76
S'/'
sg78
S'-'
sg80
(i__main__
Node
p84
(dp85
g69
I2
sg70
(i__main__
Node
p86
(dp87
g69
I3
sg70
Nsg75
g84
sg76
g77
sg78
g79
sg80
Nsbsg75
g67
sg76
S'*'
sg78
S'-'
sg80
(i__main__
Node
p88
(dp89
g69
I3
sg70
Nsg75
g84
sg76
g83
sg78
g77
sg80
NsbsbsbsS'tailBrigh'
p90
F0
sS'maxSteering'
p91
I30
sS'energy'
p92
F0.5
sS'lastScale'
p93
F5.5
sb.(i__main__
Data_mobile
p1
(dp2
S'vel_y'
p3
I0
sS'vel_x'
p4
I0
sS'pos_x'
p5
I-9579
sS'pos_y'
p6
I9779
sS'isAlive'
p7
I00
sS'cumulativeEnergy'
p8
F0.5
sS'geno'
p9
(lp10
S'cohesion'
p11
aS'POINT.+'
p12
aS'cohesion'
p13
a(lp14
(lp15
(lp16
S'alignment'
p17
aa(lp18
S'target'
p19
aaaa(lp20
S'target'
p21
aasS'accel_x'
p22
F0
sS'accel_y'
p23
F0
sS'visionAngle'
p24
I150
sS'maxAccel'
p25
I2
sS'maxVel'
p26
F0.5
sS'age'
p27
I0
sS'tailSize'
p28
I0
sS'sexualgeno'
p29
(i__main__
Node
p30
(dp31
S'depth'
p32
I1
sS'right'
p33
(i__main__
Node
p34
(dp35
g32
I2
sg33
NsS'parent'
p36
g30
sS'float_size'
p37
S'indiv.getTailSize()'
p38
sS'float_bright'
p39
g38
sS'left'
p40
Nsbsg36
Nsg37
S'/'
sg39
S'-'
sg40
(i__main__
Node
p41
(dp42
g32
I2
sg33
(i__main__
Node
p43
(dp44
g32
I3
sg33
Nsg36
g41
sg37
S'indiv.getNumPredatorsNeigh()'
p45
sg39
S'indiv.getEnergy()'
p46
sg40
Nsbsg36
g30
sg37
S'*'
sg39
S'-'
sg40
(i__main__
Node
p47
(dp48
g32
I3
sg33
Nsg36
g41
sg37
S'indiv.getTailBrightness()'
p49
sg39
g45
sg40
NsbsbsbsS'tailBrigh'
p50
F2.8746974602558399
sS'maxSteering'
p51
I30
sS'energy'
p52
F0.5
sS'lastScale'
p53
F5.5
sb.