(i__main__
Data_mobile
p1
(dp2
S'vel_y'
p3
F-0.36680568813314485
sS'vel_x'
p4
F0.022296993932512194
sS'pos_x'
p5
F-124.23320201560631
sS'pos_y'
p6
F84.949185165685975
sS'isAlive'
p7
I01
sS'cumulativeEnergy'
p8
F49
sS'geno'
p9
(i__main__
Node
p10
(dp11
S'vector'
p12
S'+'
sS'depth'
p13
I1
sS'right'
p14
(i__main__
Node
p15
(dp16
g12
S'+'
sg13
I2
sg14
(i__main__
Node
p17
(dp18
g12
S'*'
sg13
I3
sg14
(i__main__
Node
p19
(dp20
g12
S'indiv.flee()'
p21
sg13
I4
sg14
NsS'parent'
p22
g17
sS'float_size'
p23
S'indiv.getEnergy()'
p24
sS'float_bright'
p25
S'indiv.getTailBrightness()'
p26
sS'left'
p27
Nsbsg22
g15
sg23
S'/'
sg25
S'-'
sg27
(i__main__
Node
p28
(dp29
g12
S'indiv.currentEnergy()'
p30
sg13
I4
sg14
Nsg22
g17
sg23
S'indiv.distanceMatingSeason()'
p31
sg25
S'indiv.randF()'
p32
sg27
Nsbsbsg22
g10
sg23
S'-'
sg25
S'/'
sg27
(i__main__
Node
p33
(dp34
g12
S'-'
sg13
I3
sg14
(i__main__
Node
p35
(dp36
g12
S'indiv.separation()'
p37
sg13
I4
sg14
Nsg22
g33
sg23
g31
sg25
g32
sg27
Nsbsg22
g15
sg23
S'-'
sg25
S'/'
sg27
(i__main__
Node
p38
(dp39
g12
S'indiv.target()'
p40
sg13
I4
sg14
Nsg22
g33
sg23
g24
sg25
g24
sg27
Nsbsbsbsg22
Nsg23
S'/'
sg25
S'/'
sg27
(i__main__
Node
p41
(dp42
g12
g30
sg13
I2
sg14
Nsg22
g10
sg23
g24
sg25
g26
sg27
NsbsbsS'accel_x'
p43
F-0.6025460708763849
sS'accel_y'
p44
F1.9070758329105404
sS'visionAngle'
p45
I150
sS'maxAccel'
p46
I2
sS'maxVel'
p47
F0.5
sS'age'
p48
I113
sS'tailSize'
p49
F1.1249737926443659
sS'sexualgeno'
p50
NsS'tailBrigh'
p51
F2.4863794142943396
sS'maxSteering'
p52
I30
sS'energy'
p53
F1
sS'lastScale'
p54
F15.5
sb.(i__main__
Data_mobile
p1
(dp2
S'vel_y'
p3
F0.13603825871661518
sS'vel_x'
p4
F0.10082882749610189
sS'pos_x'
p5
F-194.03261380459577
sS'pos_y'
p6
F42.421585369569655
sS'isAlive'
p7
I01
sS'cumulativeEnergy'
p8
F49
sS'geno'
p9
(i__main__
Node
p10
(dp11
S'vector'
p12
S'+'
sS'depth'
p13
I1
sS'right'
p14
(i__main__
Node
p15
(dp16
g12
S'-'
sg13
I2
sg14
(i__main__
Node
p17
(dp18
g12
S'indiv.separation()'
p19
sg13
I3
sg14
NsS'parent'
p20
g15
sS'float_size'
p21
S'indiv.distanceMatingSeason()'
p22
sS'float_bright'
p23
S'indiv.randF()'
p24
sS'left'
p25
Nsbsg20
g10
sg21
S'-'
sg23
S'/'
sg25
(i__main__
Node
p26
(dp27
g12
S'indiv.target()'
p28
sg13
I3
sg14
Nsg20
g15
sg21
S'indiv.getEnergy()'
p29
sg23
g29
sg25
Nsbsbsg20
Nsg21
S'-'
sg23
S'+'
sg25
(i__main__
Node
p30
(dp31
g12
S'+'
sg13
I2
sg14
(i__main__
Node
p32
(dp33
g12
g28
sg13
I3
sg14
Nsg20
g30
sg21
S'indiv.getNumPredatorsNeigh()'
p34
sg23
S'indiv.getNumPreysNeigh()'
p35
sg25
Nsbsg20
g10
sg21
S'*'
sg23
S'-'
sg25
(i__main__
Node
p36
(dp37
g12
g28
sg13
I3
sg14
Nsg20
g30
sg21
g29
sg23
g24
sg25
NsbsbsbsS'accel_x'
p38
F-0.20267101004242249
sS'accel_y'
p39
F-0.22671618457182774
sS'visionAngle'
p40
I150
sS'maxAccel'
p41
I2
sS'maxVel'
p42
F0.5
sS'age'
p43
I113
sS'tailSize'
p44
F1.0082882749610189
sS'sexualgeno'
p45
NsS'tailBrigh'
p46
F8.8087347603320225
sS'maxSteering'
p47
I30
sS'energy'
p48
F1
sS'lastScale'
p49
F15.5
sb.(i__main__
Data_mobile
p1
(dp2
S'vel_y'
p3
F0.071553034163380658
sS'vel_x'
p4
F0.025272025414149968
sS'pos_x'
p5
F-198.20660428903548
sS'pos_y'
p6
F8.6050453035479482
sS'isAlive'
p7
I01
sS'cumulativeEnergy'
p8
F49
sS'geno'
p9
(i__main__
Node
p10
(dp11
S'vector'
p12
S'+'
sS'depth'
p13
I1
sS'right'
p14
(i__main__
Node
p15
(dp16
g12
S'indiv.currentVelocity()'
p17
sg13
I2
sg14
NsS'parent'
p18
g10
sS'float_size'
p19
S'indiv.getEnergy()'
p20
sS'float_bright'
p21
S'indiv.getNumPredatorsNeigh()'
p22
sS'left'
p23
Nsbsg18
Nsg19
S'-'
sg21
S'+'
sg23
(i__main__
Node
p24
(dp25
g12
S'+'
sg13
I2
sg14
(i__main__
Node
p26
(dp27
g12
S'indiv.target()'
p28
sg13
I3
sg14
Nsg18
g24
sg19
g22
sg21
S'indiv.getNumPreysNeigh()'
p29
sg23
Nsbsg18
g10
sg19
S'*'
sg21
S'-'
sg23
(i__main__
Node
p30
(dp31
g12
g28
sg13
I3
sg14
Nsg18
g24
sg19
g20
sg21
S'indiv.randF()'
p32
sg23
NsbsbsbsS'accel_x'
p33
F-0.050798041033491725
sS'accel_y'
p34
F-0.18737544609516965
sS'visionAngle'
p35
I150
sS'maxAccel'
p36
I2
sS'maxVel'
p37
F0.5
sS'age'
p38
I113
sS'tailSize'
p39
F0.25272025414149968
sS'sexualgeno'
p40
NsS'tailBrigh'
p41
F2.7259713282695541
sS'maxSteering'
p42
I30
sS'energy'
p43
F1
sS'lastScale'
p44
F15.5
sb.(i__main__
Data_mobile
p1
(dp2
S'vel_y'
p3
F0.10843971979264136
sS'vel_x'
p4
F0.26211420370483485
sS'pos_x'
p5
F-150.72380454716267
sS'pos_y'
p6
F-80.918805061719198
sS'isAlive'
p7
I01
sS'cumulativeEnergy'
p8
F48.677255130913998
sS'geno'
p9
(i__main__
Node
p10
(dp11
S'vector'
p12
S'+'
sS'depth'
p13
I1
sS'right'
p14
(i__main__
Node
p15
(dp16
g12
S'+'
sg13
I2
sg14
(i__main__
Node
p17
(dp18
g12
S'+'
sg13
I3
sg14
(i__main__
Node
p19
(dp20
g12
S'-'
sg13
I4
sg14
(i__main__
Node
p21
(dp22
g12
S'indiv.separation()'
p23
sg13
I5
sg14
NsS'parent'
p24
g19
sS'float_size'
p25
S'indiv.distanceMatingSeason()'
p26
sS'float_bright'
p27
S'indiv.randF()'
p28
sS'left'
p29
Nsbsg24
g17
sg25
S'-'
sg27
S'/'
sg29
(i__main__
Node
p30
(dp31
g12
S'indiv.target()'
p32
sg13
I5
sg14
Nsg24
g19
sg25
S'indiv.getEnergy()'
p33
sg27
g33
sg29
Nsbsbsg24
g15
sg25
S'-'
sg27
S'/'
sg29
(i__main__
Node
p34
(dp35
g12
S'-'
sg13
I4
sg14
(i__main__
Node
p36
(dp37
g12
g23
sg13
I5
sg14
Nsg24
g34
sg25
g26
sg27
g28
sg29
Nsbsg24
g17
sg25
S'-'
sg27
S'/'
sg29
(i__main__
Node
p38
(dp39
g12
g32
sg13
I5
sg14
Nsg24
g34
sg25
g33
sg27
g33
sg29
Nsbsbsbsg24
g10
sg25
S'-'
sg27
S'/'
sg29
(i__main__
Node
p40
(dp41
g12
S'-'
sg13
I3
sg14
(i__main__
Node
p42
(dp43
g12
g23
sg13
I4
sg14
Nsg24
g40
sg25
g26
sg27
g28
sg29
Nsbsg24
g15
sg25
S'-'
sg27
S'/'
sg29
(i__main__
Node
p44
(dp45
g12
g32
sg13
I4
sg14
Nsg24
g40
sg25
g33
sg27
g33
sg29
Nsbsbsbsg24
Nsg25
S'-'
sg27
S'+'
sg29
(i__main__
Node
p46
(dp47
g12
S'indiv.flee()'
p48
sg13
I2
sg14
Nsg24
g10
sg25
S'indiv.getNumPreysNeigh()'
p49
sg27
g49
sg29
NsbsbsS'accel_x'
p50
F-1.3752261701738178
sS'accel_y'
p51
F-0.11892421820344623
sS'visionAngle'
p52
I150
sS'maxAccel'
p53
I2
sS'maxVel'
p54
F0.5
sS'age'
p55
I113
sS'tailSize'
p56
F5.0489439546647432
sS'sexualgeno'
p57
NsS'tailBrigh'
p58
F1.1411264078045846
sS'maxSteering'
p59
I30
sS'energy'
p60
F1
sS'lastScale'
p61
F15.5
sb.(i__main__
Data_mobile
p1
(dp2
S'vel_y'
p3
F-0.28110284290266785
sS'vel_x'
p4
F0.085396483185448818
sS'pos_x'
p5
F-57.948878674786322
sS'pos_y'
p6
F-42.144564900596457
sS'isAlive'
p7
I01
sS'cumulativeEnergy'
p8
F47.488884478766735
sS'geno'
p9
(i__main__
Node
p10
(dp11
S'vector'
p12
S'+'
sS'depth'
p13
I1
sS'right'
p14
(i__main__
Node
p15
(dp16
g12
S'+'
sg13
I2
sg14
(i__main__
Node
p17
(dp18
g12
S'indiv.target()'
p19
sg13
I3
sg14
NsS'parent'
p20
g15
sS'float_size'
p21
S'indiv.getNumPredatorsNeigh()'
p22
sS'float_bright'
p23
S'indiv.getNumPreysNeigh()'
p24
sS'left'
p25
Nsbsg20
g10
sg21
S'*'
sg23
S'-'
sg25
(i__main__
Node
p26
(dp27
g12
g19
sg13
I3
sg14
Nsg20
g15
sg21
S'indiv.getEnergy()'
p28
sg23
S'indiv.randF()'
p29
sg25
Nsbsbsg20
Nsg21
S'-'
sg23
S'+'
sg25
(i__main__
Node
p30
(dp31
g12
S'indiv.flee()'
p32
sg13
I2
sg14
Nsg20
g10
sg21
g24
sg23
g24
sg25
NsbsbsS'accel_x'
p33
F0.70577926674880642
sS'accel_y'
p34
F-0.82440140695902775
sS'visionAngle'
p35
I150
sS'maxAccel'
p36
I2
sS'maxVel'
p37
F0.5
sS'age'
p38
I150
sS'tailSize'
p39
F3.7328513926147822
sS'sexualgeno'
p40
NsS'tailBrigh'
p41
F0.036188801890928435
sS'maxSteering'
p42
I30
sS'energy'
p43
F0.37212321814290328
sS'lastScale'
p44
F10.371711946595259
sb.(i__main__
Data_mobile
p1
(dp2
S'vel_y'
p3
F0.25306105235692949
sS'vel_x'
p4
F0.050245485364415005
sS'pos_x'
p5
F57.962176349281279
sS'pos_y'
p6
F-37.598071322983721
sS'isAlive'
p7
I01
sS'cumulativeEnergy'
p8
F46.874422372463144
sS'geno'
p9
(i__main__
Node
p10
(dp11
S'vector'
p12
S'+'
sS'depth'
p13
I1
sS'right'
p14
(i__main__
Node
p15
(dp16
g12
S'+'
sg13
I2
sg14
(i__main__
Node
p17
(dp18
g12
S'+'
sg13
I3
sg14
(i__main__
Node
p19
(dp20
g12
S'-'
sg13
I4
sg14
(i__main__
Node
p21
(dp22
g12
S'indiv.separation()'
p23
sg13
I5
sg14
NsS'parent'
p24
g19
sS'float_size'
p25
S'indiv.distanceMatingSeason()'
p26
sS'float_bright'
p27
S'indiv.randF()'
p28
sS'left'
p29
Nsbsg24
g17
sg25
S'-'
sg27
S'/'
sg29
(i__main__
Node
p30
(dp31
g12
S'indiv.target()'
p32
sg13
I5
sg14
Nsg24
g19
sg25
S'indiv.getEnergy()'
p33
sg27
g33
sg29
Nsbsbsg24
g15
sg25
S'-'
sg27
S'/'
sg29
(i__main__
Node
p34
(dp35
g12
S'-'
sg13
I4
sg14
(i__main__
Node
p36
(dp37
g12
g23
sg13
I5
sg14
Nsg24
g34
sg25
g26
sg27
g28
sg29
Nsbsg24
g17
sg25
S'-'
sg27
S'/'
sg29
(i__main__
Node
p38
(dp39
g12
g32
sg13
I5
sg14
Nsg24
g34
sg25
g33
sg27
g33
sg29
Nsbsbsbsg24
g10
sg25
S'-'
sg27
S'/'
sg29
(i__main__
Node
p40
(dp41
g12
S'-'
sg13
I3
sg14
(i__main__
Node
p42
(dp43
g12
g23
sg13
I4
sg14
Nsg24
g40
sg25
g26
sg27
g28
sg29
Nsbsg24
g15
sg25
S'-'
sg27
S'/'
sg29
(i__main__
Node
p44
(dp45
g12
g32
sg13
I4
sg14
Nsg24
g40
sg25
g33
sg27
g33
sg29
Nsbsbsbsg24
Nsg25
S'/'
sg27
S'/'
sg29
(i__main__
Node
p46
(dp47
g12
S'indiv.currentEnergy()'
p48
sg13
I2
sg14
Nsg24
g10
sg25
g33
sg27
S'indiv.getTailBrightness()'
p49
sg29
NsbsbsS'accel_x'
p50
F1.0854476909215129
sS'accel_y'
p51
F-1.6798224043848073
sS'visionAngle'
p52
I150
sS'maxAccel'
p53
I2
sS'maxVel'
p54
F0.5
sS'age'
p55
I113
sS'tailSize'
p56
F3.2904737559520991
sS'sexualgeno'
p57
NsS'tailBrigh'
p58
F2.3854176642434108
sS'maxSteering'
p59
I30
sS'energy'
p60
F0.68849606225624882
sS'lastScale'
p61
F12.384960622562488
sb.(i__main__
Data_mobile
p1
(dp2
S'vel_y'
p3
F-0.020822632481741508
sS'vel_x'
p4
F0.030292702321559874
sS'pos_x'
p5
F-77.09179920773029
sS'pos_y'
p6
F-96.39178585360942
sS'isAlive'
p7
I01
sS'cumulativeEnergy'
p8
F42.033565529381299
sS'geno'
p9
(i__main__
Node
p10
(dp11
S'vector'
p12
S'+'
sS'depth'
p13
I1
sS'right'
p14
(i__main__
Node
p15
(dp16
g12
S'+'
sg13
I2
sg14
(i__main__
Node
p17
(dp18
g12
S'indiv.target()'
p19
sg13
I3
sg14
NsS'parent'
p20
g15
sS'float_size'
p21
S'indiv.getNumPredatorsNeigh()'
p22
sS'float_bright'
p23
S'indiv.getNumPreysNeigh()'
p24
sS'left'
p25
Nsbsg20
g10
sg21
S'*'
sg23
S'-'
sg25
(i__main__
Node
p26
(dp27
g12
g19
sg13
I3
sg14
Nsg20
g15
sg21
S'indiv.getEnergy()'
p28
sg23
S'indiv.randF()'
p29
sg25
Nsbsbsg20
Nsg21
S'-'
sg23
S'+'
sg25
(i__main__
Node
p30
(dp31
g12
S'-'
sg13
I2
sg14
(i__main__
Node
p32
(dp33
g12
S'indiv.separation()'
p34
sg13
I3
sg14
Nsg20
g30
sg21
S'indiv.distanceMatingSeason()'
p35
sg23
g29
sg25
Nsbsg20
g10
sg21
S'-'
sg23
S'/'
sg25
(i__main__
Node
p36
(dp37
g12
g19
sg13
I3
sg14
Nsg20
g30
sg21
g28
sg23
g28
sg25
NsbsbsbsS'accel_x'
p38
F0.73577445471540626
sS'accel_y'
p39
F-0.16840158382425832
sS'visionAngle'
p40
I150
sS'maxAccel'
p41
I2
sS'maxVel'
p42
F0.5
sS'age'
p43
I200
sS'tailSize'
p44
F8.6567993461288211
sS'sexualgeno'
p45
NsS'tailBrigh'
p46
F5.8473053837251889
sS'maxSteering'
p47
I30
sS'energy'
p48
F0.20459865160283539
sS'lastScale'
p49
F7.6473928787326795
sb.(i__main__
Data_mobile
p1
(dp2
S'vel_y'
p3
F0.0077973249843650717
sS'vel_x'
p4
F0.12578916880593694
sS'pos_x'
p5
F55.678139594660728
sS'pos_y'
p6
F-38.901169487331032
sS'isAlive'
p7
I01
sS'cumulativeEnergy'
p8
F41.019870751720269
sS'geno'
p9
(i__main__
Node
p10
(dp11
S'vector'
p12
S'+'
sS'depth'
p13
I1
sS'right'
p14
(i__main__
Node
p15
(dp16
g12
S'+'
sg13
I2
sg14
(i__main__
Node
p17
(dp18
g12
S'indiv.target()'
p19
sg13
I3
sg14
NsS'parent'
p20
g15
sS'float_size'
p21
S'indiv.getNumPredatorsNeigh()'
p22
sS'float_bright'
p23
S'indiv.getNumPreysNeigh()'
p24
sS'left'
p25
Nsbsg20
g10
sg21
S'*'
sg23
S'-'
sg25
(i__main__
Node
p26
(dp27
g12
g19
sg13
I3
sg14
Nsg20
g15
sg21
S'indiv.getEnergy()'
p28
sg23
S'indiv.randF()'
p29
sg25
Nsbsbsg20
Nsg21
S'-'
sg23
S'+'
sg25
(i__main__
Node
p30
(dp31
g12
S'indiv.flee()'
p32
sg13
I2
sg14
Nsg20
g10
sg21
g24
sg23
g24
sg25
NsbsbsS'accel_x'
p33
F0
sS'accel_y'
p34
F0
sS'visionAngle'
p35
I150
sS'maxAccel'
p36
I2
sS'maxVel'
p37
F0.5
sS'age'
p38
I50
sS'tailSize'
p39
F1.2578916880593694
sS'sexualgeno'
p40
NsS'tailBrigh'
p41
F0.11471043451227847
sS'maxSteering'
p42
I30
sS'energy'
p43
F0.84529783654144264
sS'lastScale'
p44
F13.952978365414427
sb.(i__main__
Data_mobile
p1
(dp2
S'vel_y'
p3
F0.0064384882864655692
sS'vel_x'
p4
F0.37643904140500273
sS'pos_x'
p5
F58.519048682951237
sS'pos_y'
p6
F-37.945630644309261
sS'isAlive'
p7
I01
sS'cumulativeEnergy'
p8
F40.715839184474305
sS'geno'
p9
(i__main__
Node
p10
(dp11
S'vector'
p12
S'+'
sS'depth'
p13
I1
sS'right'
p14
(i__main__
Node
p15
(dp16
g12
S'+'
sg13
I2
sg14
(i__main__
Node
p17
(dp18
g12
S'indiv.target()'
p19
sg13
I3
sg14
NsS'parent'
p20
g15
sS'float_size'
p21
S'indiv.getNumPredatorsNeigh()'
p22
sS'float_bright'
p23
S'indiv.getNumPreysNeigh()'
p24
sS'left'
p25
Nsbsg20
g10
sg21
S'*'
sg23
S'-'
sg25
(i__main__
Node
p26
(dp27
g12
g19
sg13
I3
sg14
Nsg20
g15
sg21
S'indiv.getEnergy()'
p28
sg23
S'indiv.randF()'
p29
sg25
Nsbsbsg20
Nsg21
S'-'
sg23
S'+'
sg25
(i__main__
Node
p30
(dp31
g12
S'indiv.flee()'
p32
sg13
I2
sg14
Nsg20
g10
sg21
g24
sg23
g24
sg25
NsbsbsS'accel_x'
p33
F0
sS'accel_y'
p34
F0
sS'visionAngle'
p35
I150
sS'maxAccel'
p36
I2
sS'maxVel'
p37
F0.5
sS'age'
p38
I200
sS'tailSize'
p39
F4.6380066579166668
sS'sexualgeno'
p40
NsS'tailBrigh'
p41
F0.61024312190251395
sS'maxSteering'
p42
I30
sS'energy'
p43
F0.70297963470947067
sS'lastScale'
p44
F12.529796347094708
sb.(i__main__
Data_mobile
p1
(dp2
S'vel_y'
p3
F0.32514386858596961
sS'vel_x'
p4
F0.1452077979413835
sS'pos_x'
p5
F41.500485997270793
sS'pos_y'
p6
F-12.105613846710702
sS'isAlive'
p7
I01
sS'cumulativeEnergy'
p8
F38.126967193582402
sS'geno'
p9
(i__main__
Node
p10
(dp11
S'vector'
p12
S'+'
sS'depth'
p13
I1
sS'right'
p14
(i__main__
Node
p15
(dp16
g12
S'indiv.currentVelocity()'
p17
sg13
I2
sg14
NsS'parent'
p18
g10
sS'float_size'
p19
S'indiv.getEnergy()'
p20
sS'float_bright'
p21
S'indiv.getNumPredatorsNeigh()'
p22
sS'left'
p23
Nsbsg18
Nsg19
S'-'
sg21
S'+'
sg23
(i__main__
Node
p24
(dp25
g12
S'+'
sg13
I2
sg14
(i__main__
Node
p26
(dp27
g12
S'indiv.target()'
p28
sg13
I3
sg14
Nsg18
g24
sg19
g22
sg21
S'indiv.getNumPreysNeigh()'
p29
sg23
Nsbsg18
g10
sg19
S'*'
sg21
S'-'
sg23
(i__main__
Node
p30
(dp31
g12
g28
sg13
I3
sg14
Nsg18
g24
sg19
g20
sg21
S'indiv.randF()'
p32
sg23
NsbsbsbsS'accel_x'
p33
F0.1452077979413835
sS'accel_y'
p34
F0.32514386858596961
sS'visionAngle'
p35
I150
sS'maxAccel'
p36
I2
sS'maxVel'
p37
F0.5
sS'age'
p38
I100
sS'tailSize'
p39
F2.8840491906922008
sS'sexualgeno'
p40
NsS'tailBrigh'
p41
F7.6241990777764981
sS'maxSteering'
p42
I30
sS'energy'
p43
F0.76536155034530129
sS'lastScale'
p44
F13.153615503453013
sb.(i__main__
Data_mobile
p1
(dp2
S'vel_y'
p3
F-9.0457122527781637e-006
sS'vel_x'
p4
F0.24118240067374097
sS'pos_x'
p5
F58.606062259438247
sS'pos_y'
p6
F-39.265372292226346
sS'isAlive'
p7
I01
sS'cumulativeEnergy'
p8
F37.664471344322912
sS'geno'
p9
(i__main__
Node
p10
(dp11
S'vector'
p12
S'+'
sS'depth'
p13
I1
sS'right'
p14
(i__main__
Node
p15
(dp16
g12
S'indiv.currentVelocity()'
p17
sg13
I2
sg14
NsS'parent'
p18
g10
sS'float_size'
p19
S'indiv.getEnergy()'
p20
sS'float_bright'
p21
S'indiv.getNumPredatorsNeigh()'
p22
sS'left'
p23
Nsbsg18
Nsg19
S'-'
sg21
S'+'
sg23
(i__main__
Node
p24
(dp25
g12
S'+'
sg13
I2
sg14
(i__main__
Node
p26
(dp27
g12
S'indiv.target()'
p28
sg13
I3
sg14
Nsg18
g24
sg19
g22
sg21
S'indiv.getNumPreysNeigh()'
p29
sg23
Nsbsg18
g10
sg19
S'*'
sg21
S'-'
sg23
(i__main__
Node
p30
(dp31
g12
g28
sg13
I3
sg14
Nsg18
g24
sg19
g20
sg21
S'indiv.randF()'
p32
sg23
NsbsbsbsS'accel_x'
p33
F0.24118240067374097
sS'accel_y'
p34
F-9.0457122527781637e-006
sS'visionAngle'
p35
I150
sS'maxAccel'
p36
I2
sS'maxVel'
p37
F0.5
sS'age'
p38
I200
sS'tailSize'
p39
F7.9575679941791924
sS'sexualgeno'
p40
NsS'tailBrigh'
p41
F2.4833972995442979
sS'maxSteering'
p42
I30
sS'energy'
p43
F0.62557290582266611
sS'lastScale'
p44
F11.755729058226663
sb.(i__main__
Data_mobile
p1
(dp2
S'vel_y'
p3
F-0.0022369608829409743
sS'vel_x'
p4
F0.35792035109881992
sS'pos_x'
p5
F41.975302806319128
sS'pos_y'
p6
F-15.500971572386339
sS'isAlive'
p7
I01
sS'cumulativeEnergy'
p8
F30.5749294314097
sS'geno'
p9
(i__main__
Node
p10
(dp11
S'vector'
p12
S'+'
sS'depth'
p13
I1
sS'right'
p14
(i__main__
Node
p15
(dp16
g12
S'indiv.currentVelocity()'
p17
sg13
I2
sg14
NsS'parent'
p18
g10
sS'float_size'
p19
S'indiv.getEnergy()'
p20
sS'float_bright'
p21
S'indiv.getNumPredatorsNeigh()'
p22
sS'left'
p23
Nsbsg18
Nsg19
S'-'
sg21
S'+'
sg23
(i__main__
Node
p24
(dp25
g12
S'+'
sg13
I2
sg14
(i__main__
Node
p26
(dp27
g12
S'indiv.target()'
p28
sg13
I3
sg14
Nsg18
g24
sg19
g22
sg21
S'indiv.getNumPreysNeigh()'
p29
sg23
Nsbsg18
g10
sg19
S'*'
sg21
S'-'
sg23
(i__main__
Node
p30
(dp31
g12
g28
sg13
I3
sg14
Nsg18
g24
sg19
g20
sg21
S'indiv.randF()'
p32
sg23
NsbsbsbsS'accel_x'
p33
F0.35792035109881992
sS'accel_y'
p34
F-0.0022369608829409743
sS'visionAngle'
p35
I150
sS'maxAccel'
p36
I2
sS'maxVel'
p37
F0.5
sS'age'
p38
I50
sS'tailSize'
p39
F7.6595291096850717
sS'sexualgeno'
p40
NsS'tailBrigh'
p41
F4.2760961337062975
sS'maxSteering'
p42
I30
sS'energy'
p43
F0.83209914151542141
sS'lastScale'
p44
F13.820991415154214
sb.(i__main__
Data_mobile
p1
(dp2
S'vel_y'
p3
F-0.066818406494034463
sS'vel_x'
p4
F0.14610217195537764
sS'pos_x'
p5
F57.832705660027933
sS'pos_y'
p6
F-38.104698968197646
sS'isAlive'
p7
I01
sS'cumulativeEnergy'
p8
F28.562491240843102
sS'geno'
p9
(i__main__
Node
p10
(dp11
S'vector'
p12
S'+'
sS'depth'
p13
I1
sS'right'
p14
(i__main__
Node
p15
(dp16
g12
S'indiv.currentVelocity()'
p17
sg13
I2
sg14
NsS'parent'
p18
g10
sS'float_size'
p19
S'indiv.getEnergy()'
p20
sS'float_bright'
p21
S'indiv.getNumPredatorsNeigh()'
p22
sS'left'
p23
Nsbsg18
Nsg19
S'-'
sg21
S'+'
sg23
(i__main__
Node
p24
(dp25
g14
(i__main__
Node
p26
(dp27
g14
Nsg18
g24
sg13
I3
sg12
S'indiv.separation()'
p28
sg19
g22
sg21
S'indiv.distanceMatingSeason()'
p29
sg23
Nsbsg18
g10
sg13
I2
sg12
S'-'
sg19
S'/'
sg21
S'-'
sg23
(i__main__
Node
p30
(dp31
g14
Nsg18
g24
sg13
I3
sg12
g17
sg19
S'indiv.randF()'
p32
sg21
g29
sg23
NsbsbsbsS'accel_x'
p33
F0.4781055944860223
sS'accel_y'
p34
F-0.42624381974282588
sS'visionAngle'
p35
I150
sS'maxAccel'
p36
I2
sS'maxVel'
p37
F0.5
sS'age'
p38
I50
sS'tailSize'
p39
F6.2457244913013907
sS'sexualgeno'
p40
NsS'tailBrigh'
p41
F5.5382668656572385
sS'maxSteering'
p42
I30
sS'energy'
p43
F0.59443007365867762
sS'lastScale'
p44
F11.444300736586776
sb.(i__main__
Data_mobile
p1
(dp2
S'vel_y'
p3
F-0.010059111787298151
sS'vel_x'
p4
F0.44097291672487099
sS'pos_x'
p5
F58.250727437551859
sS'pos_y'
p6
F-40.1360176983383
sS'isAlive'
p7
I01
sS'cumulativeEnergy'
p8
F26.291812516027001
sS'geno'
p9
(i__main__
Node
p10
(dp11
S'vector'
p12
S'+'
sS'depth'
p13
I1
sS'right'
p14
(i__main__
Node
p15
(dp16
g12
S'+'
sg13
I2
sg14
(i__main__
Node
p17
(dp18
g12
S'indiv.target()'
p19
sg13
I3
sg14
NsS'parent'
p20
g15
sS'float_size'
p21
S'indiv.getNumPredatorsNeigh()'
p22
sS'float_bright'
p23
S'indiv.getNumPreysNeigh()'
p24
sS'left'
p25
Nsbsg20
g10
sg21
S'*'
sg23
S'-'
sg25
(i__main__
Node
p26
(dp27
g12
g19
sg13
I3
sg14
Nsg20
g15
sg21
S'indiv.getEnergy()'
p28
sg23
S'indiv.randF()'
p29
sg25
Nsbsbsg20
Nsg21
S'-'
sg23
S'+'
sg25
(i__main__
Node
p30
(dp31
g12
S'+'
sg13
I2
sg14
(i__main__
Node
p32
(dp33
g12
g19
sg13
I3
sg14
Nsg20
g30
sg21
g22
sg23
g24
sg25
Nsbsg20
g10
sg21
S'*'
sg23
S'-'
sg25
(i__main__
Node
p34
(dp35
g12
g19
sg13
I3
sg14
Nsg20
g30
sg21
g28
sg23
g29
sg25
NsbsbsbsS'accel_x'
p36
F0
sS'accel_y'
p37
F0
sS'visionAngle'
p38
I150
sS'maxAccel'
p39
I2
sS'maxVel'
p40
F0.5
sS'age'
p41
I100
sS'tailSize'
p42
F4.510313240307708
sS'sexualgeno'
p43
NsS'tailBrigh'
p44
F8.7997998202607679
sS'maxSteering'
p45
I30
sS'energy'
p46
F0.40937266815940654
sS'lastScale'
p47
F9.5937266815940649
sb.(i__main__
Data_mobile
p1
(dp2
S'vel_y'
p3
F-0.18687062868465965
sS'vel_x'
p4
F0.060686177859622825
sS'pos_x'
p5
F-75.800339547886892
sS'pos_y'
p6
F-96.687370799198334
sS'isAlive'
p7
I01
sS'cumulativeEnergy'
p8
F25.47107908031062
sS'geno'
p9
(i__main__
Node
p10
(dp11
S'vector'
p12
S'+'
sS'depth'
p13
I1
sS'right'
p14
(i__main__
Node
p15
(dp16
g12
S'-'
sg13
I2
sg14
(i__main__
Node
p17
(dp18
g12
S'indiv.separation()'
p19
sg13
I3
sg14
NsS'parent'
p20
g15
sS'float_size'
p21
S'indiv.distanceMatingSeason()'
p22
sS'float_bright'
p23
S'indiv.randF()'
p24
sS'left'
p25
Nsbsg20
g10
sg21
S'-'
sg23
S'/'
sg25
(i__main__
Node
p26
(dp27
g12
S'indiv.target()'
p28
sg13
I3
sg14
Nsg20
g15
sg21
S'indiv.getEnergy()'
p29
sg23
g29
sg25
Nsbsbsg20
Nsg21
S'-'
sg23
S'+'
sg25
(i__main__
Node
p30
(dp31
g12
S'-'
sg13
I2
sg14
(i__main__
Node
p32
(dp33
g12
g19
sg13
I3
sg14
Nsg20
g30
sg21
g22
sg23
g24
sg25
Nsbsg20
g10
sg21
S'-'
sg23
S'/'
sg25
(i__main__
Node
p34
(dp35
g12
g28
sg13
I3
sg14
Nsg20
g30
sg21
g29
sg23
g29
sg25
NsbsbsbsS'accel_x'
p36
F-1.7194298420731966
sS'accel_y'
p37
F-1.0215483435394246
sS'visionAngle'
p38
I150
sS'maxAccel'
p39
I2
sS'maxVel'
p40
F0.5
sS'age'
p41
I50
sS'tailSize'
p42
F4.1525219431454587
sS'sexualgeno'
p43
NsS'tailBrigh'
p44
F7.9453203760814981
sS'maxSteering'
p45
I30
sS'energy'
p46
F0.25505493547355979
sS'lastScale'
p47
F8.0505493547355975
sb.(i__main__
Data_mobile
p1
(dp2
S'vel_y'
p3
F0.042422936572121192
sS'vel_x'
p4
F0.042294400533594456
sS'pos_x'
p5
F-124.91475845782469
sS'pos_y'
p6
F85.540221448211739
sS'isAlive'
p7
I01
sS'cumulativeEnergy'
p8
F21.287023454289017
sS'geno'
p9
(i__main__
Node
p10
(dp11
S'vector'
p12
S'+'
sS'depth'
p13
I1
sS'right'
p14
(i__main__
Node
p15
(dp16
g12
S'indiv.currentVelocity()'
p17
sg13
I2
sg14
NsS'parent'
p18
g10
sS'float_size'
p19
S'indiv.getEnergy()'
p20
sS'float_bright'
p21
S'indiv.getNumPredatorsNeigh()'
p22
sS'left'
p23
Nsbsg18
Nsg19
S'-'
sg21
S'+'
sg23
(i__main__
Node
p24
(dp25
g12
S'+'
sg13
I2
sg14
(i__main__
Node
p26
(dp27
g12
S'indiv.target()'
p28
sg13
I3
sg14
Nsg18
g24
sg19
g22
sg21
S'indiv.getNumPreysNeigh()'
p29
sg23
Nsbsg18
g10
sg19
S'*'
sg21
S'-'
sg23
(i__main__
Node
p30
(dp31
g12
g28
sg13
I3
sg14
Nsg18
g24
sg19
g20
sg21
S'indiv.randF()'
p32
sg23
NsbsbsbsS'accel_x'
p33
F-0.085013865992576654
sS'accel_y'
p34
F-0.26845627206263795
sS'visionAngle'
p35
I150
sS'maxAccel'
p36
I2
sS'maxVel'
p37
F0.5
sS'age'
p38
I50
sS'tailSize'
p39
F0.42294400533594456
sS'sexualgeno'
p40
NsS'tailBrigh'
p41
F5.7935598397609294
sS'maxSteering'
p42
I30
sS'energy'
p43
F0.96890077624830739
sS'lastScale'
p44
F15.189007762483076
sb.(i__main__
Data_mobile
p1
(dp2
S'vel_y'
p3
F-0.00058594638218913077
sS'vel_x'
p4
F0.16755416302340781
sS'pos_x'
p5
F58.83239350808298
sS'pos_y'
p6
F-39.869242857324672
sS'isAlive'
p7
I01
sS'cumulativeEnergy'
p8
F21.070246770035688
sS'geno'
p9
(i__main__
Node
p10
(dp11
S'vector'
p12
S'+'
sS'depth'
p13
I1
sS'right'
p14
(i__main__
Node
p15
(dp16
g12
S'indiv.currentVelocity()'
p17
sg13
I2
sg14
NsS'parent'
p18
g10
sS'float_size'
p19
S'indiv.getEnergy()'
p20
sS'float_bright'
p21
S'indiv.getNumPredatorsNeigh()'
p22
sS'left'
p23
Nsbsg18
Nsg19
S'-'
sg21
S'+'
sg23
(i__main__
Node
p24
(dp25
g12
S'+'
sg13
I2
sg14
(i__main__
Node
p26
(dp27
g12
S'indiv.target()'
p28
sg13
I3
sg14
Nsg18
g24
sg19
g22
sg21
S'indiv.getNumPreysNeigh()'
p29
sg23
Nsbsg18
g10
sg19
S'*'
sg21
S'-'
sg23
(i__main__
Node
p30
(dp31
g12
g28
sg13
I3
sg14
Nsg18
g24
sg19
g20
sg21
S'indiv.randF()'
p32
sg23
NsbsbsbsS'accel_x'
p33
F0.16755416302340781
sS'accel_y'
p34
F-0.00058594638218913077
sS'visionAngle'
p35
I150
sS'maxAccel'
p36
I2
sS'maxVel'
p37
F0.5
sS'age'
p38
I100
sS'tailSize'
p39
F6.880667351935986
sS'sexualgeno'
p40
NsS'tailBrigh'
p41
F7.3741625067901841
sS'maxSteering'
p42
I30
sS'energy'
p43
F0.34450013085352033
sS'lastScale'
p44
F8.9450013085352023
sb.(i__main__
Data_mobile
p1
(dp2
S'vel_y'
p3
F0.024001056700035984
sS'vel_x'
p4
F0.72057989483457707
sS'pos_x'
p5
F-189.04052333382646
sS'pos_y'
p6
F39.319363987193249
sS'isAlive'
p7
I01
sS'cumulativeEnergy'
p8
F0.5
sS'geno'
p9
(i__main__
Node
p10
(dp11
S'vector'
p12
S'+'
sS'depth'
p13
I1
sS'right'
p14
(i__main__
Node
p15
(dp16
g12
S'+'
sg13
I2
sg14
(i__main__
Node
p17
(dp18
g12
S'indiv.target()'
p19
sg13
I3
sg14
NsS'parent'
p20
g15
sS'float_size'
p21
S'indiv.getNumPredatorsNeigh()'
p22
sS'float_bright'
p23
S'indiv.getNumPreysNeigh()'
p24
sS'left'
p25
Nsbsg20
g10
sg21
S'*'
sg23
S'-'
sg25
(i__main__
Node
p26
(dp27
g12
g19
sg13
I3
sg14
Nsg20
g15
sg21
S'indiv.getEnergy()'
p28
sg23
S'indiv.randF()'
p29
sg25
Nsbsbsg20
Nsg21
S'-'
sg23
S'+'
sg25
(i__main__
Node
p30
(dp31
g14
(i__main__
Node
p32
(dp33
g14
(i__main__
Node
p34
(dp35
g14
Nsg20
g32
sg13
I4
sg12
S'indiv.alignment()'
p36
sg21
S'indiv.distanceMatingSeason()'
p37
sg23
g37
sg25
Nsbsg20
g30
sg13
I3
sg12
S'/'
sg21
S'*'
sg23
S'-'
sg25
(i__main__
Node
p38
(dp39
g14
Nsg20
g32
sg13
I4
sg12
S'indiv.separation()'
p40
sg21
g37
sg23
g37
sg25
Nsbsbsg20
g10
sg13
I2
sg12
S'/'
sg21
S'/'
sg23
S'/'
sg25
(i__main__
Node
p41
(dp42
g14
(i__main__
Node
p43
(dp44
g14
Nsg20
g41
sg13
I4
sg12
S'indiv.currentVelocity()'
p45
sg21
S'indiv.getTailSize()'
p46
sg23
g28
sg25
Nsbsg20
g30
sg13
I3
sg12
S'*'
sg21
S'/'
sg23
S'+'
sg25
(i__main__
Node
p47
(dp48
g14
Nsg20
g41
sg13
I4
sg12
g40
sg21
g46
sg23
g29
sg25
NsbsbsbsbsS'accel_x'
p49
F0
sS'accel_y'
p50
F0
sS'visionAngle'
p51
I150
sS'maxAccel'
p52
I2
sS'maxVel'
p53
F0.5
sS'age'
p54
I0
sS'tailSize'
p55
F8.2400748895949487
sS'sexualgeno'
p56
NsS'tailBrigh'
p57
F3.428417313562818
sS'maxSteering'
p58
I30
sS'energy'
p59
F0.5
sS'lastScale'
p60
F5.5
sb.(i__main__
Data_mobile
p1
(dp2
S'vel_y'
p3
F-0.11558795753086445
sS'vel_x'
p4
F0.0051435899501809379
sS'pos_x'
p5
F-127.91932420906457
sS'pos_y'
p6
F61.868937019830192
sS'isAlive'
p7
I01
sS'cumulativeEnergy'
p8
F0.5
sS'geno'
p9
(i__main__
Node
p10
(dp11
S'vector'
p12
S'+'
sS'depth'
p13
I1
sS'right'
p14
(i__main__
Node
p15
(dp16
g12
S'+'
sg13
I2
sg14
(i__main__
Node
p17
(dp18
g12
S'+'
sg13
I3
sg14
(i__main__
Node
p19
(dp20
g12
S'-'
sg13
I4
sg14
(i__main__
Node
p21
(dp22
g12
S'indiv.separation()'
p23
sg13
I5
sg14
NsS'parent'
p24
g19
sS'float_size'
p25
S'indiv.distanceMatingSeason()'
p26
sS'float_bright'
p27
S'indiv.randF()'
p28
sS'left'
p29
Nsbsg24
g17
sg25
S'-'
sg27
S'/'
sg29
(i__main__
Node
p30
(dp31
g12
S'indiv.target()'
p32
sg13
I5
sg14
Nsg24
g19
sg25
S'indiv.getEnergy()'
p33
sg27
g33
sg29
Nsbsbsg24
g15
sg25
S'-'
sg27
S'/'
sg29
(i__main__
Node
p34
(dp35
g12
S'-'
sg13
I4
sg14
(i__main__
Node
p36
(dp37
g12
g23
sg13
I5
sg14
Nsg24
g34
sg25
g26
sg27
g28
sg29
Nsbsg24
g17
sg25
S'-'
sg27
S'/'
sg29
(i__main__
Node
p38
(dp39
g12
g32
sg13
I5
sg14
Nsg24
g34
sg25
g33
sg27
g33
sg29
Nsbsbsbsg24
g10
sg25
S'-'
sg27
S'/'
sg29
(i__main__
Node
p40
(dp41
g12
S'-'
sg13
I3
sg14
(i__main__
Node
p42
(dp43
g12
g23
sg13
I4
sg14
Nsg24
g40
sg25
g26
sg27
g28
sg29
Nsbsg24
g15
sg25
S'-'
sg27
S'/'
sg29
(i__main__
Node
p44
(dp45
g12
g32
sg13
I4
sg14
Nsg24
g40
sg25
g33
sg27
g33
sg29
Nsbsbsbsg24
Nsg25
S'/'
sg27
S'/'
sg29
(i__main__
Node
p46
(dp47
g12
S'indiv.currentEnergy()'
p48
sg13
I2
sg14
Nsg24
g10
sg25
g33
sg27
S'indiv.getTailBrightness()'
p49
sg29
NsbsbsS'accel_x'
p50
F0
sS'accel_y'
p51
F0
sS'visionAngle'
p52
I150
sS'maxAccel'
p53
I2
sS'maxVel'
p54
F0.5
sS'age'
p55
I0
sS'tailSize'
p56
F0.051435899501809379
sS'sexualgeno'
p57
NsS'tailBrigh'
p58
F5.7995826696269255
sS'maxSteering'
p59
I30
sS'energy'
p60
F0.5
sS'lastScale'
p61
F5.5
sb.(i__main__
Data_mobile
p1
(dp2
S'vel_y'
p3
F0.10263570081518339
sS'vel_x'
p4
F0.13133143678626635
sS'pos_x'
p5
F57.202389348192071
sS'pos_y'
p6
F-38.031548168052609
sS'isAlive'
p7
I01
sS'cumulativeEnergy'
p8
F0.5
sS'geno'
p9
(i__main__
Node
p10
(dp11
S'vector'
p12
S'+'
sS'depth'
p13
I1
sS'right'
p14
(i__main__
Node
p15
(dp16
g12
S'-'
sg13
I2
sg14
(i__main__
Node
p17
(dp18
g12
S'indiv.separation()'
p19
sg13
I3
sg14
NsS'parent'
p20
g15
sS'float_size'
p21
S'indiv.distanceMatingSeason()'
p22
sS'float_bright'
p23
S'indiv.randF()'
p24
sS'left'
p25
Nsbsg20
g10
sg21
S'-'
sg23
S'/'
sg25
(i__main__
Node
p26
(dp27
g12
S'indiv.target()'
p28
sg13
I3
sg14
Nsg20
g15
sg21
S'indiv.getEnergy()'
p29
sg23
g29
sg25
Nsbsbsg20
Nsg21
S'-'
sg23
S'+'
sg25
(i__main__
Node
p30
(dp31
g12
S'indiv.flee()'
p32
sg13
I2
sg14
Nsg20
g10
sg21
S'indiv.getNumPreysNeigh()'
p33
sg23
g33
sg25
NsbsbsS'accel_x'
p34
F0
sS'accel_y'
p35
F0
sS'visionAngle'
p36
I150
sS'maxAccel'
p37
I2
sS'maxVel'
p38
F0.5
sS'age'
p39
I0
sS'tailSize'
p40
F1.3133143678626635
sS'sexualgeno'
p41
NsS'tailBrigh'
p42
F3.1197312038379774
sS'maxSteering'
p43
I30
sS'energy'
p44
F0.5
sS'lastScale'
p45
F5.5
sb.(i__main__
Data_mobile
p1
(dp2
S'vel_y'
p3
F-0.12446446527627603
sS'vel_x'
p4
F0.4406357446085164
sS'pos_x'
p5
F-68.204793826316816
sS'pos_y'
p6
F-35.771259075068627
sS'isAlive'
p7
I01
sS'cumulativeEnergy'
p8
F0.5
sS'geno'
p9
(i__main__
Node
p10
(dp11
S'vector'
p12
S'+'
sS'depth'
p13
I1
sS'right'
p14
(i__main__
Node
p15
(dp16
g12
S'-'
sg13
I2
sg14
(i__main__
Node
p17
(dp18
g12
S'indiv.separation()'
p19
sg13
I3
sg14
NsS'parent'
p20
g15
sS'float_size'
p21
S'indiv.distanceMatingSeason()'
p22
sS'float_bright'
p23
S'indiv.randF()'
p24
sS'left'
p25
Nsbsg20
g10
sg21
S'-'
sg23
S'/'
sg25
(i__main__
Node
p26
(dp27
g12
S'indiv.target()'
p28
sg13
I3
sg14
Nsg20
g15
sg21
S'indiv.getEnergy()'
p29
sg23
g29
sg25
Nsbsbsg20
Nsg21
S'-'
sg23
S'+'
sg25
(i__main__
Node
p30
(dp31
g12
S'indiv.flee()'
p32
sg13
I2
sg14
Nsg20
g10
sg21
S'indiv.getNumPreysNeigh()'
p33
sg23
g33
sg25
NsbsbsS'accel_x'
p34
F0
sS'accel_y'
p35
F0
sS'visionAngle'
p36
I150
sS'maxAccel'
p37
I2
sS'maxVel'
p38
F0.5
sS'age'
p39
I0
sS'tailSize'
p40
F5.0214213889489576
sS'sexualgeno'
p41
NsS'tailBrigh'
p42
F3.5458074108377358
sS'maxSteering'
p43
I30
sS'energy'
p44
F0.5
sS'lastScale'
p45
F5.5
sb.(i__main__
Data_mobile
p1
(dp2
S'vel_y'
p3
F-0.050966997095894376
sS'vel_x'
p4
F0.31623640572951006
sS'pos_x'
p5
F-126.22026905619093
sS'pos_y'
p6
F72.507383735300607
sS'isAlive'
p7
I01
sS'cumulativeEnergy'
p8
F0.5
sS'geno'
p9
(i__main__
Node
p10
(dp11
S'vector'
p12
S'+'
sS'depth'
p13
I1
sS'right'
p14
(i__main__
Node
p15
(dp16
g12
S'+'
sg13
I2
sg14
(i__main__
Node
p17
(dp18
g12
S'*'
sg13
I3
sg14
(i__main__
Node
p19
(dp20
g12
S'indiv.flee()'
p21
sg13
I4
sg14
NsS'parent'
p22
g17
sS'float_size'
p23
S'indiv.getEnergy()'
p24
sS'float_bright'
p25
S'indiv.getTailBrightness()'
p26
sS'left'
p27
Nsbsg22
g15
sg23
S'/'
sg25
S'-'
sg27
(i__main__
Node
p28
(dp29
g12
S'indiv.currentEnergy()'
p30
sg13
I4
sg14
Nsg22
g17
sg23
S'indiv.distanceMatingSeason()'
p31
sg25
S'indiv.randF()'
p32
sg27
Nsbsbsg22
g10
sg23
S'-'
sg25
S'/'
sg27
(i__main__
Node
p33
(dp34
g12
S'+'
sg13
I3
sg14
(i__main__
Node
p35
(dp36
g12
S'-'
sg13
I4
sg14
(i__main__
Node
p37
(dp38
g12
S'indiv.separation()'
p39
sg13
I5
sg14
Nsg22
g35
sg23
g31
sg25
g32
sg27
Nsbsg22
g33
sg23
S'-'
sg25
S'/'
sg27
(i__main__
Node
p40
(dp41
g12
S'indiv.target()'
p42
sg13
I5
sg14
Nsg22
g35
sg23
g24
sg25
g24
sg27
Nsbsbsg22
g15
sg23
S'-'
sg25
S'/'
sg27
(i__main__
Node
p43
(dp44
g12
S'-'
sg13
I4
sg14
(i__main__
Node
p45
(dp46
g12
g39
sg13
I5
sg14
Nsg22
g43
sg23
g31
sg25
g32
sg27
Nsbsg22
g33
sg23
S'-'
sg25
S'/'
sg27
(i__main__
Node
p47
(dp48
g12
g42
sg13
I5
sg14
Nsg22
g43
sg23
g24
sg25
g24
sg27
Nsbsbsbsbsg22
Nsg23
S'/'
sg25
S'/'
sg27
(i__main__
Node
p49
(dp50
g12
g30
sg13
I2
sg14
Nsg22
g10
sg23
g24
sg25
g26
sg27
NsbsbsS'accel_x'
p51
F0
sS'accel_y'
p52
F0
sS'visionAngle'
p53
I150
sS'maxAccel'
p54
I2
sS'maxVel'
p55
F0.5
sS'age'
p56
I0
sS'tailSize'
p57
F7.9613201161642246
sS'sexualgeno'
p58
NsS'tailBrigh'
p59
F2.0017760195067114
sS'maxSteering'
p60
I30
sS'energy'
p61
F0.5
sS'lastScale'
p62
F5.5
sb.(i__main__
Data_mobile
p1
(dp2
S'vel_y'
p3
F-0.085950422378225186
sS'vel_x'
p4
F0.43988590145715112
sS'pos_x'
p5
F-134.49464194821633
sS'pos_y'
p6
F20.698309164140291
sS'isAlive'
p7
I01
sS'cumulativeEnergy'
p8
F0.5
sS'geno'
p9
(i__main__
Node
p10
(dp11
S'vector'
p12
S'+'
sS'depth'
p13
I1
sS'right'
p14
(i__main__
Node
p15
(dp16
g12
S'+'
sg13
I2
sg14
(i__main__
Node
p17
(dp18
g12
S'*'
sg13
I3
sg14
(i__main__
Node
p19
(dp20
g12
S'indiv.flee()'
p21
sg13
I4
sg14
NsS'parent'
p22
g17
sS'float_size'
p23
S'indiv.getEnergy()'
p24
sS'float_bright'
p25
S'indiv.getTailBrightness()'
p26
sS'left'
p27
Nsbsg22
g15
sg23
S'/'
sg25
S'-'
sg27
(i__main__
Node
p28
(dp29
g12
S'indiv.currentEnergy()'
p30
sg13
I4
sg14
Nsg22
g17
sg23
S'indiv.distanceMatingSeason()'
p31
sg25
S'indiv.randF()'
p32
sg27
Nsbsbsg22
g10
sg23
S'-'
sg25
S'/'
sg27
(i__main__
Node
p33
(dp34
g12
S'-'
sg13
I3
sg14
(i__main__
Node
p35
(dp36
g12
S'indiv.separation()'
p37
sg13
I4
sg14
Nsg22
g33
sg23
g31
sg25
g32
sg27
Nsbsg22
g15
sg23
S'-'
sg25
S'/'
sg27
(i__main__
Node
p38
(dp39
g12
S'indiv.target()'
p40
sg13
I4
sg14
Nsg22
g33
sg23
g24
sg25
g24
sg27
Nsbsbsbsg22
Nsg23
S'-'
sg25
S'+'
sg27
(i__main__
Node
p41
(dp42
g12
g21
sg13
I2
sg14
Nsg22
g10
sg23
S'indiv.getNumPreysNeigh()'
p43
sg25
g43
sg27
NsbsbsS'accel_x'
p44
F0
sS'accel_y'
p45
F0
sS'visionAngle'
p46
I150
sS'maxAccel'
p47
I2
sS'maxVel'
p48
F0.5
sS'age'
p49
I0
sS'tailSize'
p50
F6.5619831048709916
sS'sexualgeno'
p51
NsS'tailBrigh'
p52
F5.9037354872208105
sS'maxSteering'
p53
I30
sS'energy'
p54
F0.5
sS'lastScale'
p55
F5.5
sb.(i__main__
Data_mobile
p1
(dp2
S'vel_y'
p3
F0.056893716619574368
sS'vel_x'
p4
F0.35340633775870811
sS'pos_x'
p5
F56.53553011052071
sS'pos_y'
p6
F-38.412007478407254
sS'isAlive'
p7
I01
sS'cumulativeEnergy'
p8
F0.5
sS'geno'
p9
(i__main__
Node
p10
(dp11
S'vector'
p12
S'+'
sS'depth'
p13
I1
sS'right'
p14
(i__main__
Node
p15
(dp16
g12
S'+'
sg13
I2
sg14
(i__main__
Node
p17
(dp18
g12
S'+'
sg13
I3
sg14
(i__main__
Node
p19
(dp20
g12
S'-'
sg13
I4
sg14
(i__main__
Node
p21
(dp22
g12
S'indiv.separation()'
p23
sg13
I5
sg14
NsS'parent'
p24
g19
sS'float_size'
p25
S'indiv.distanceMatingSeason()'
p26
sS'float_bright'
p27
S'indiv.randF()'
p28
sS'left'
p29
Nsbsg24
g17
sg25
S'-'
sg27
S'/'
sg29
(i__main__
Node
p30
(dp31
g12
S'indiv.target()'
p32
sg13
I5
sg14
Nsg24
g19
sg25
S'indiv.getEnergy()'
p33
sg27
g33
sg29
Nsbsbsg24
g15
sg25
S'-'
sg27
S'/'
sg29
(i__main__
Node
p34
(dp35
g12
S'-'
sg13
I4
sg14
(i__main__
Node
p36
(dp37
g12
g23
sg13
I5
sg14
Nsg24
g34
sg25
g26
sg27
g28
sg29
Nsbsg24
g17
sg25
S'-'
sg27
S'/'
sg29
(i__main__
Node
p38
(dp39
g12
g32
sg13
I5
sg14
Nsg24
g34
sg25
g33
sg27
g33
sg29
Nsbsbsbsg24
g10
sg25
S'-'
sg27
S'/'
sg29
(i__main__
Node
p40
(dp41
g12
S'+'
sg13
I3
sg14
(i__main__
Node
p42
(dp43
g12
g32
sg13
I4
sg14
Nsg24
g40
sg25
S'indiv.getNumPredatorsNeigh()'
p44
sg27
S'indiv.getNumPreysNeigh()'
p45
sg29
Nsbsg24
g15
sg25
S'*'
sg27
S'-'
sg29
(i__main__
Node
p46
(dp47
g12
g32
sg13
I4
sg14
Nsg24
g40
sg25
g33
sg27
g28
sg29
Nsbsbsbsg24
Nsg25
S'/'
sg27
S'/'
sg29
(i__main__
Node
p48
(dp49
g12
S'indiv.currentEnergy()'
p50
sg13
I2
sg14
Nsg24
g10
sg25
g33
sg27
S'indiv.getTailBrightness()'
p51
sg29
NsbsbsS'accel_x'
p52
F0
sS'accel_y'
p53
F0
sS'visionAngle'
p54
I150
sS'maxAccel'
p55
I2
sS'maxVel'
p56
F0.5
sS'age'
p57
I0
sS'tailSize'
p58
F3.5340633775870813
sS'sexualgeno'
p59
NsS'tailBrigh'
p60
F3.502458086213732
sS'maxSteering'
p61
I30
sS'energy'
p62
F0.5
sS'lastScale'
p63
F5.5
sb.(i__main__
Data_mobile
p1
(dp2
S'vel_y'
p3
F-0.053753345503744242
sS'vel_x'
p4
F0.48806798404440566
sS'pos_x'
p5
F-138.45725719969548
sS'pos_y'
p6
F70.269270155599571
sS'isAlive'
p7
I01
sS'cumulativeEnergy'
p8
F0.5
sS'geno'
p9
(i__main__
Node
p10
(dp11
S'vector'
p12
S'+'
sS'depth'
p13
I1
sS'right'
p14
(i__main__
Node
p15
(dp16
g12
S'indiv.currentVelocity()'
p17
sg13
I2
sg14
NsS'parent'
p18
g10
sS'float_size'
p19
S'indiv.getEnergy()'
p20
sS'float_bright'
p21
S'indiv.getNumPredatorsNeigh()'
p22
sS'left'
p23
Nsbsg18
Nsg19
S'-'
sg21
S'+'
sg23
(i__main__
Node
p24
(dp25
g12
S'*'
sg13
I2
sg14
(i__main__
Node
p26
(dp27
g12
S'indiv.flee()'
p28
sg13
I3
sg14
Nsg18
g24
sg19
g20
sg21
S'indiv.getTailBrightness()'
p29
sg23
Nsbsg18
g10
sg19
S'/'
sg21
S'-'
sg23
(i__main__
Node
p30
(dp31
g12
S'indiv.currentEnergy()'
p32
sg13
I3
sg14
Nsg18
g24
sg19
S'indiv.distanceMatingSeason()'
p33
sg21
S'indiv.randF()'
p34
sg23
NsbsbsbsS'accel_x'
p35
F0
sS'accel_y'
p36
F0
sS'visionAngle'
p37
I150
sS'maxAccel'
p38
I2
sS'maxVel'
p39
F0.5
sS'age'
p40
I0
sS'tailSize'
p41
F7.8498661798502303
sS'sexualgeno'
p42
NsS'tailBrigh'
p43
F4.5280831008408136
sS'maxSteering'
p44
I30
sS'energy'
p45
F0.5
sS'lastScale'
p46
F5.5
sb.(i__main__
Data_mobile
p1
(dp2
S'vel_y'
p3
F-0.01170126207612758
sS'vel_x'
p4
F0.79390708940589616
sS'pos_x'
p5
F-179.38307181100257
sS'pos_y'
p6
F28.031844018180397
sS'isAlive'
p7
I01
sS'cumulativeEnergy'
p8
F0.5
sS'geno'
p9
(i__main__
Node
p10
(dp11
S'vector'
p12
S'+'
sS'depth'
p13
I1
sS'right'
p14
(i__main__
Node
p15
(dp16
g12
S'+'
sg13
I2
sg14
(i__main__
Node
p17
(dp18
g12
S'+'
sg13
I3
sg14
(i__main__
Node
p19
(dp20
g12
S'indiv.target()'
p21
sg13
I4
sg14
NsS'parent'
p22
g17
sS'float_size'
p23
S'indiv.getNumPredatorsNeigh()'
p24
sS'float_bright'
p25
S'indiv.getNumPreysNeigh()'
p26
sS'left'
p27
Nsbsg22
g15
sg23
S'*'
sg25
S'-'
sg27
(i__main__
Node
p28
(dp29
g12
g21
sg13
I4
sg14
Nsg22
g17
sg23
S'indiv.getEnergy()'
p30
sg25
S'indiv.randF()'
p31
sg27
Nsbsbsg22
g10
sg23
S'-'
sg25
S'/'
sg27
(i__main__
Node
p32
(dp33
g12
S'-'
sg13
I3
sg14
(i__main__
Node
p34
(dp35
g12
S'indiv.separation()'
p36
sg13
I4
sg14
Nsg22
g32
sg23
S'indiv.distanceMatingSeason()'
p37
sg25
g31
sg27
Nsbsg22
g15
sg23
S'-'
sg25
S'/'
sg27
(i__main__
Node
p38
(dp39
g12
g21
sg13
I4
sg14
Nsg22
g32
sg23
g30
sg25
g30
sg27
Nsbsbsbsg22
Nsg23
S'/'
sg25
S'/'
sg27
(i__main__
Node
p40
(dp41
g12
S'indiv.currentEnergy()'
p42
sg13
I2
sg14
Nsg22
g10
sg23
g30
sg25
S'indiv.getTailBrightness()'
p43
sg27
NsbsbsS'accel_x'
p44
F0
sS'accel_y'
p45
F0
sS'visionAngle'
p46
I150
sS'maxAccel'
p47
I2
sS'maxVel'
p48
F0.5
sS'age'
p49
I0
sS'tailSize'
p50
F7.9390708940589612
sS'sexualgeno'
p51
NsS'tailBrigh'
p52
F8.3183268170670672
sS'maxSteering'
p53
I30
sS'energy'
p54
F0.5
sS'lastScale'
p55
F5.5
sb.(i__main__
Data_mobile
p1
(dp2
S'vel_y'
p3
F-0.10026741790201138
sS'vel_x'
p4
F0.30613323644214152
sS'pos_x'
p5
F-142.01365897437267
sS'pos_y'
p6
F-26.381187843469892
sS'isAlive'
p7
I01
sS'cumulativeEnergy'
p8
F0.5
sS'geno'
p9
(i__main__
Node
p10
(dp11
S'vector'
p12
S'+'
sS'depth'
p13
I1
sS'right'
p14
(i__main__
Node
p15
(dp16
g12
S'+'
sg13
I2
sg14
(i__main__
Node
p17
(dp18
g12
S'-'
sg13
I3
sg14
(i__main__
Node
p19
(dp20
g12
S'indiv.separation()'
p21
sg13
I4
sg14
NsS'parent'
p22
g17
sS'float_size'
p23
S'indiv.distanceMatingSeason()'
p24
sS'float_bright'
p25
S'indiv.randF()'
p26
sS'left'
p27
Nsbsg22
g15
sg23
S'-'
sg25
S'/'
sg27
(i__main__
Node
p28
(dp29
g12
S'indiv.target()'
p30
sg13
I4
sg14
Nsg22
g17
sg23
S'indiv.getEnergy()'
p31
sg25
g31
sg27
Nsbsbsg22
g10
sg23
S'-'
sg25
S'/'
sg27
(i__main__
Node
p32
(dp33
g12
S'-'
sg13
I3
sg14
(i__main__
Node
p34
(dp35
g12
g21
sg13
I4
sg14
Nsg22
g32
sg23
g24
sg25
g26
sg27
Nsbsg22
g15
sg23
S'-'
sg25
S'/'
sg27
(i__main__
Node
p36
(dp37
g12
g30
sg13
I4
sg14
Nsg22
g32
sg23
g31
sg25
g31
sg27
Nsbsbsbsg22
Nsg23
S'-'
sg25
S'+'
sg27
(i__main__
Node
p38
(dp39
g12
S'indiv.flee()'
p40
sg13
I2
sg14
Nsg22
g10
sg23
S'indiv.getNumPreysNeigh()'
p41
sg25
g41
sg27
NsbsbsS'accel_x'
p42
F0
sS'accel_y'
p43
F0
sS'visionAngle'
p44
I150
sS'maxAccel'
p45
I2
sS'maxVel'
p46
F0.5
sS'age'
p47
I0
sS'tailSize'
p48
F3.061332364421415
sS'sexualgeno'
p49
NsS'tailBrigh'
p50
F0.22347590510191084
sS'maxSteering'
p51
I30
sS'energy'
p52
F0.5
sS'lastScale'
p53
F5.5
sb.(i__main__
Data_mobile
p1
(dp2
S'vel_y'
p3
I0
sS'vel_x'
p4
F0.41115376655799646
sS'pos_x'
p5
I-9579
sS'pos_y'
p6
I9779
sS'isAlive'
p7
I00
sS'cumulativeEnergy'
p8
F0.5
sS'geno'
p9
(i__main__
Node
p10
(dp11
S'vector'
p12
S'+'
sS'depth'
p13
I1
sS'right'
p14
(i__main__
Node
p15
(dp16
g12
S'+'
sg13
I2
sg14
(i__main__
Node
p17
(dp18
g12
S'indiv.target()'
p19
sg13
I3
sg14
NsS'parent'
p20
g15
sS'float_size'
p21
S'indiv.getNumPredatorsNeigh()'
p22
sS'float_bright'
p23
S'indiv.getNumPreysNeigh()'
p24
sS'left'
p25
Nsbsg20
g10
sg21
S'*'
sg23
S'-'
sg25
(i__main__
Node
p26
(dp27
g12
g19
sg13
I3
sg14
Nsg20
g15
sg21
S'indiv.getEnergy()'
p28
sg23
S'indiv.randF()'
p29
sg25
Nsbsbsg20
Nsg21
S'-'
sg23
S'+'
sg25
(i__main__
Node
p30
(dp31
g12
S'indiv.flee()'
p32
sg13
I2
sg14
Nsg20
g10
sg21
g24
sg23
g24
sg25
NsbsbsS'accel_x'
p33
F0
sS'accel_y'
p34
F0
sS'visionAngle'
p35
I150
sS'maxAccel'
p36
I2
sS'maxVel'
p37
F0.5
sS'age'
p38
I0
sS'tailSize'
p39
F4.1115376655799647
sS'sexualgeno'
p40
NsS'tailBrigh'
p41
F1.3277374859820634
sS'maxSteering'
p42
I30
sS'energy'
p43
F0.5
sS'lastScale'
p44
F5.5
sb.(i__main__
Data_mobile
p1
(dp2
S'vel_y'
p3
I0
sS'vel_x'
p4
F0.32358551282365755
sS'pos_x'
p5
I-9579
sS'pos_y'
p6
I9779
sS'isAlive'
p7
I00
sS'cumulativeEnergy'
p8
F0.5
sS'geno'
p9
(i__main__
Node
p10
(dp11
S'vector'
p12
S'+'
sS'depth'
p13
I1
sS'right'
p14
(i__main__
Node
p15
(dp16
g12
S'indiv.currentVelocity()'
p17
sg13
I2
sg14
NsS'parent'
p18
g10
sS'float_size'
p19
S'indiv.getEnergy()'
p20
sS'float_bright'
p21
S'indiv.getNumPredatorsNeigh()'
p22
sS'left'
p23
Nsbsg18
Nsg19
S'-'
sg21
S'+'
sg23
(i__main__
Node
p24
(dp25
g12
S'+'
sg13
I2
sg14
(i__main__
Node
p26
(dp27
g12
S'indiv.target()'
p28
sg13
I3
sg14
Nsg18
g24
sg19
g22
sg21
S'indiv.getNumPreysNeigh()'
p29
sg23
Nsbsg18
g10
sg19
S'*'
sg21
S'-'
sg23
(i__main__
Node
p30
(dp31
g12
g28
sg13
I3
sg14
Nsg18
g24
sg19
g20
sg21
S'indiv.randF()'
p32
sg23
NsbsbsbsS'accel_x'
p33
F0
sS'accel_y'
p34
F0
sS'visionAngle'
p35
I150
sS'maxAccel'
p36
I2
sS'maxVel'
p37
F0.5
sS'age'
p38
I0
sS'tailSize'
p39
F3.2358551282365755
sS'sexualgeno'
p40
NsS'tailBrigh'
p41
F8.6054449626318394
sS'maxSteering'
p42
I30
sS'energy'
p43
F0.5
sS'lastScale'
p44
F5.5
sb.(i__main__
Data_mobile
p1
(dp2
S'vel_y'
p3
I0
sS'vel_x'
p4
F0.38279032238010491
sS'pos_x'
p5
I-9579
sS'pos_y'
p6
I9779
sS'isAlive'
p7
I00
sS'cumulativeEnergy'
p8
F0.5
sS'geno'
p9
(i__main__
Node
p10
(dp11
S'vector'
p12
S'+'
sS'depth'
p13
I1
sS'right'
p14
(i__main__
Node
p15
(dp16
g12
S'/'
sg13
I2
sg14
(i__main__
Node
p17
(dp18
g12
S'indiv.flee()'
p19
sg13
I3
sg14
NsS'parent'
p20
g15
sS'float_size'
p21
S'indiv.getTailSize()'
p22
sS'float_bright'
p23
S'indiv.getNumPreysNeigh()'
p24
sS'left'
p25
Nsbsg20
g10
sg21
S'*'
sg23
S'-'
sg25
(i__main__
Node
p26
(dp27
g12
g19
sg13
I3
sg14
Nsg20
g15
sg21
S'indiv.getEnergy()'
p28
sg23
g24
sg25
Nsbsbsg20
Nsg21
S'-'
sg23
S'+'
sg25
(i__main__
Node
p29
(dp30
g12
S'+'
sg13
I2
sg14
(i__main__
Node
p31
(dp32
g12
S'indiv.target()'
p33
sg13
I3
sg14
Nsg20
g29
sg21
S'indiv.getNumPredatorsNeigh()'
p34
sg23
g24
sg25
Nsbsg20
g10
sg21
S'*'
sg23
S'-'
sg25
(i__main__
Node
p35
(dp36
g12
g33
sg13
I3
sg14
Nsg20
g29
sg21
g28
sg23
S'indiv.randF()'
p37
sg25
NsbsbsbsS'accel_x'
p38
F0
sS'accel_y'
p39
F0
sS'visionAngle'
p40
I150
sS'maxAccel'
p41
I2
sS'maxVel'
p42
F0.5
sS'age'
p43
I0
sS'tailSize'
p44
F3.8279032238010489
sS'sexualgeno'
p45
NsS'tailBrigh'
p46
F4.8292126431990079
sS'maxSteering'
p47
I30
sS'energy'
p48
F0.5
sS'lastScale'
p49
F5.5
sb.(i__main__
Data_mobile
p1
(dp2
S'vel_y'
p3
I0
sS'vel_x'
p4
F0.50744451611601915
sS'pos_x'
p5
I-9579
sS'pos_y'
p6
I9779
sS'isAlive'
p7
I00
sS'cumulativeEnergy'
p8
F0.5
sS'geno'
p9
(i__main__
Node
p10
(dp11
S'vector'
p12
S'+'
sS'depth'
p13
I1
sS'right'
p14
(i__main__
Node
p15
(dp16
g14
NsS'parent'
p17
g10
sg13
I2
sg12
S'indiv.randV()'
p18
sS'float_size'
p19
S'indiv.getTailSize()'
p20
sS'float_bright'
p21
S'indiv.getNumPredatorsNeigh()'
p22
sS'left'
p23
Nsbsg17
Nsg19
S'-'
sg21
S'+'
sg23
(i__main__
Node
p24
(dp25
g12
S'/'
sg13
I2
sg14
(i__main__
Node
p26
(dp27
g12
S'indiv.flee()'
p28
sg13
I3
sg14
Nsg17
g24
sg19
g20
sg21
S'indiv.getNumPreysNeigh()'
p29
sg23
Nsbsg17
g10
sg19
S'*'
sg21
S'-'
sg23
(i__main__
Node
p30
(dp31
g12
g28
sg13
I3
sg14
Nsg17
g24
sg19
S'indiv.getEnergy()'
p32
sg21
g29
sg23
NsbsbsbsS'accel_x'
p33
F0
sS'accel_y'
p34
F0
sS'visionAngle'
p35
I150
sS'maxAccel'
p36
I2
sS'maxVel'
p37
F0.5
sS'age'
p38
I0
sS'tailSize'
p39
F5.0744451611601917
sS'sexualgeno'
p40
NsS'tailBrigh'
p41
F2.1626949717325674
sS'maxSteering'
p42
I30
sS'energy'
p43
F0.5
sS'lastScale'
p44
F5.5
sb.(i__main__
Data_mobile
p1
(dp2
S'vel_y'
p3
I0
sS'vel_x'
p4
F0.91589316829620326
sS'pos_x'
p5
I-9579
sS'pos_y'
p6
I9779
sS'isAlive'
p7
I00
sS'cumulativeEnergy'
p8
F0.5
sS'geno'
p9
(i__main__
Node
p10
(dp11
S'vector'
p12
S'+'
sS'depth'
p13
I1
sS'right'
p14
(i__main__
Node
p15
(dp16
g14
(i__main__
Node
p17
(dp18
g14
NsS'parent'
p19
g15
sg13
I3
sg12
S'indiv.currentEnergy()'
p20
sS'float_size'
p21
S'indiv.randF()'
p22
sS'float_bright'
p23
S'indiv.getTailSize()'
p24
sS'left'
p25
Nsbsg19
g10
sg13
I2
sg12
S'+'
sg21
S'/'
sg23
S'+'
sg25
(i__main__
Node
p26
(dp27
g14
Nsg19
g15
sg13
I3
sg12
S'indiv.alignment()'
p28
sg21
S'indiv.getEnergy()'
p29
sg23
S'indiv.getNumPredatorsNeigh()'
p30
sg25
Nsbsbsg19
Nsg21
S'-'
sg23
S'+'
sg25
(i__main__
Node
p31
(dp32
g12
S'indiv.flee()'
p33
sg13
I2
sg14
Nsg19
g10
sg21
S'indiv.getNumPreysNeigh()'
p34
sg23
g34
sg25
NsbsbsS'accel_x'
p35
F0
sS'accel_y'
p36
F0
sS'visionAngle'
p37
I150
sS'maxAccel'
p38
I2
sS'maxVel'
p39
F0.5
sS'age'
p40
I0
sS'tailSize'
p41
F9.1589316829620326
sS'sexualgeno'
p42
NsS'tailBrigh'
p43
F5.6716121499394205
sS'maxSteering'
p44
I30
sS'energy'
p45
F0.5
sS'lastScale'
p46
F5.5
sb.(i__main__
Data_mobile
p1
(dp2
S'vel_y'
p3
I0
sS'vel_x'
p4
F0.3280501909665744
sS'pos_x'
p5
I-9579
sS'pos_y'
p6
I9779
sS'isAlive'
p7
I00
sS'cumulativeEnergy'
p8
F0.5
sS'geno'
p9
(i__main__
Node
p10
(dp11
S'vector'
p12
S'+'
sS'depth'
p13
I1
sS'right'
p14
(i__main__
Node
p15
(dp16
g12
S'indiv.currentVelocity()'
p17
sg13
I2
sg14
NsS'parent'
p18
g10
sS'float_size'
p19
S'indiv.getEnergy()'
p20
sS'float_bright'
p21
S'indiv.getNumPredatorsNeigh()'
p22
sS'left'
p23
Nsbsg18
Nsg19
S'-'
sg21
S'+'
sg23
(i__main__
Node
p24
(dp25
g12
S'+'
sg13
I2
sg14
(i__main__
Node
p26
(dp27
g12
S'indiv.target()'
p28
sg13
I3
sg14
Nsg18
g24
sg19
g22
sg21
S'indiv.getNumPreysNeigh()'
p29
sg23
Nsbsg18
g10
sg19
S'*'
sg21
S'-'
sg23
(i__main__
Node
p30
(dp31
g12
g28
sg13
I3
sg14
Nsg18
g24
sg19
g20
sg21
S'indiv.randF()'
p32
sg23
NsbsbsbsS'accel_x'
p33
F0
sS'accel_y'
p34
F0
sS'visionAngle'
p35
I150
sS'maxAccel'
p36
I2
sS'maxVel'
p37
F0.5
sS'age'
p38
I0
sS'tailSize'
p39
F3.2805019096657437
sS'sexualgeno'
p40
NsS'tailBrigh'
p41
F8.9941598155219449
sS'maxSteering'
p42
I30
sS'energy'
p43
F0.5
sS'lastScale'
p44
F5.5
sb.(i__main__
Data_mobile
p1
(dp2
S'vel_y'
p3
I0
sS'vel_x'
p4
F0.64834311215587426
sS'pos_x'
p5
I-9579
sS'pos_y'
p6
I9779
sS'isAlive'
p7
I00
sS'cumulativeEnergy'
p8
F0.5
sS'geno'
p9
(i__main__
Node
p10
(dp11
S'vector'
p12
S'+'
sS'depth'
p13
I1
sS'right'
p14
(i__main__
Node
p15
(dp16
g12
S'+'
sg13
I2
sg14
(i__main__
Node
p17
(dp18
g12
S'indiv.target()'
p19
sg13
I3
sg14
NsS'parent'
p20
g15
sS'float_size'
p21
S'indiv.getNumPredatorsNeigh()'
p22
sS'float_bright'
p23
S'indiv.getNumPreysNeigh()'
p24
sS'left'
p25
Nsbsg20
g10
sg21
S'*'
sg23
S'-'
sg25
(i__main__
Node
p26
(dp27
g12
g19
sg13
I3
sg14
Nsg20
g15
sg21
S'indiv.getEnergy()'
p28
sg23
S'indiv.randF()'
p29
sg25
Nsbsbsg20
Nsg21
S'-'
sg23
S'+'
sg25
(i__main__
Node
p30
(dp31
g12
S'indiv.flee()'
p32
sg13
I2
sg14
Nsg20
g10
sg21
g24
sg23
g24
sg25
NsbsbsS'accel_x'
p33
F0
sS'accel_y'
p34
F0
sS'visionAngle'
p35
I150
sS'maxAccel'
p36
I2
sS'maxVel'
p37
F0.5
sS'age'
p38
I0
sS'tailSize'
p39
F6.483431121558743
sS'sexualgeno'
p40
NsS'tailBrigh'
p41
F2.8542032442844247
sS'maxSteering'
p42
I30
sS'energy'
p43
F0.5
sS'lastScale'
p44
F5.5
sb.(i__main__
Data_mobile
p1
(dp2
S'vel_y'
p3
I0
sS'vel_x'
p4
F0.10116265037040084
sS'pos_x'
p5
I-9579
sS'pos_y'
p6
I9779
sS'isAlive'
p7
I00
sS'cumulativeEnergy'
p8
F0.5
sS'geno'
p9
(i__main__
Node
p10
(dp11
S'vector'
p12
S'+'
sS'depth'
p13
I1
sS'right'
p14
(i__main__
Node
p15
(dp16
g12
S'indiv.currentVelocity()'
p17
sg13
I2
sg14
NsS'parent'
p18
g10
sS'float_size'
p19
S'indiv.getEnergy()'
p20
sS'float_bright'
p21
S'indiv.getNumPredatorsNeigh()'
p22
sS'left'
p23
Nsbsg18
Nsg19
S'-'
sg21
S'+'
sg23
(i__main__
Node
p24
(dp25
g14
Nsg18
g10
sg13
I2
sg12
S'indiv.currentEnergy()'
p26
sg19
S'indiv.getNumPreysNeigh()'
p27
sg21
S'indiv.distanceMatingSeason()'
p28
sg23
NsbsbsS'accel_x'
p29
F0
sS'accel_y'
p30
F0
sS'visionAngle'
p31
I150
sS'maxAccel'
p32
I2
sS'maxVel'
p33
F0.5
sS'age'
p34
I0
sS'tailSize'
p35
F1.0116265037040084
sS'sexualgeno'
p36
NsS'tailBrigh'
p37
F7.4194697360542232
sS'maxSteering'
p38
I30
sS'energy'
p39
F0.5
sS'lastScale'
p40
F5.5
sb.(i__main__
Data_mobile
p1
(dp2
S'vel_y'
p3
I0
sS'vel_x'
p4
F0.84473007591896876
sS'pos_x'
p5
I-9579
sS'pos_y'
p6
I9779
sS'isAlive'
p7
I00
sS'cumulativeEnergy'
p8
F0.5
sS'geno'
p9
(i__main__
Node
p10
(dp11
S'vector'
p12
S'+'
sS'depth'
p13
I1
sS'right'
p14
(i__main__
Node
p15
(dp16
g12
S'+'
sg13
I2
sg14
(i__main__
Node
p17
(dp18
g12
S'indiv.target()'
p19
sg13
I3
sg14
NsS'parent'
p20
g15
sS'float_size'
p21
S'indiv.getNumPredatorsNeigh()'
p22
sS'float_bright'
p23
S'indiv.getNumPreysNeigh()'
p24
sS'left'
p25
Nsbsg20
g10
sg21
S'*'
sg23
S'-'
sg25
(i__main__
Node
p26
(dp27
g12
g19
sg13
I3
sg14
Nsg20
g15
sg21
S'indiv.getEnergy()'
p28
sg23
S'indiv.randF()'
p29
sg25
Nsbsbsg20
Nsg21
S'-'
sg23
S'+'
sg25
(i__main__
Node
p30
(dp31
g12
S'-'
sg13
I2
sg14
(i__main__
Node
p32
(dp33
g12
S'indiv.separation()'
p34
sg13
I3
sg14
Nsg20
g30
sg21
S'indiv.distanceMatingSeason()'
p35
sg23
g29
sg25
Nsbsg20
g10
sg21
S'-'
sg23
S'/'
sg25
(i__main__
Node
p36
(dp37
g12
g19
sg13
I3
sg14
Nsg20
g30
sg21
g28
sg23
g28
sg25
NsbsbsbsS'accel_x'
p38
F0
sS'accel_y'
p39
F0
sS'visionAngle'
p40
I150
sS'maxAccel'
p41
I2
sS'maxVel'
p42
F0.5
sS'age'
p43
I0
sS'tailSize'
p44
F8.4473007591896874
sS'sexualgeno'
p45
NsS'tailBrigh'
p46
F8.5223733126127836
sS'maxSteering'
p47
I30
sS'energy'
p48
F0.5
sS'lastScale'
p49
F5.5
sb.(i__main__
Data_mobile
p1
(dp2
S'vel_y'
p3
I0
sS'vel_x'
p4
F0.96395100510961629
sS'pos_x'
p5
I-9579
sS'pos_y'
p6
I9779
sS'isAlive'
p7
I00
sS'cumulativeEnergy'
p8
F0.5
sS'geno'
p9
(i__main__
Node
p10
(dp11
S'vector'
p12
S'+'
sS'depth'
p13
I1
sS'right'
p14
(i__main__
Node
p15
(dp16
g14
(i__main__
Node
p17
(dp18
g14
NsS'parent'
p19
g15
sg13
I3
sg12
S'indiv.flee()'
p20
sS'float_size'
p21
S'indiv.getTailSize()'
p22
sS'float_bright'
p23
S'indiv.getNumPreysNeigh()'
p24
sS'left'
p25
Nsbsg19
g10
sg13
I2
sg12
S'/'
sg21
S'*'
sg23
S'-'
sg25
(i__main__
Node
p26
(dp27
g14
Nsg19
g15
sg13
I3
sg12
g20
sg21
S'indiv.getEnergy()'
p28
sg23
g24
sg25
Nsbsbsg19
Nsg21
S'-'
sg23
S'+'
sg25
(i__main__
Node
p29
(dp30
g12
S'+'
sg13
I2
sg14
(i__main__
Node
p31
(dp32
g12
S'indiv.target()'
p33
sg13
I3
sg14
Nsg19
g29
sg21
S'indiv.getNumPredatorsNeigh()'
p34
sg23
g24
sg25
Nsbsg19
g10
sg21
S'*'
sg23
S'-'
sg25
(i__main__
Node
p35
(dp36
g12
g33
sg13
I3
sg14
Nsg19
g29
sg21
g28
sg23
S'indiv.randF()'
p37
sg25
NsbsbsbsS'accel_x'
p38
F0
sS'accel_y'
p39
F0
sS'visionAngle'
p40
I150
sS'maxAccel'
p41
I2
sS'maxVel'
p42
F0.5
sS'age'
p43
I0
sS'tailSize'
p44
F9.6395100510961633
sS'sexualgeno'
p45
NsS'tailBrigh'
p46
F4.3020646968199481
sS'maxSteering'
p47
I30
sS'energy'
p48
F0.5
sS'lastScale'
p49
F5.5
sb.(i__main__
Data_mobile
p1
(dp2
S'vel_y'
p3
I0
sS'vel_x'
p4
F0.54319476968032721
sS'pos_x'
p5
I-9579
sS'pos_y'
p6
I9779
sS'isAlive'
p7
I00
sS'cumulativeEnergy'
p8
F0.5
sS'geno'
p9
(i__main__
Node
p10
(dp11
S'vector'
p12
S'+'
sS'depth'
p13
I1
sS'right'
p14
(i__main__
Node
p15
(dp16
g12
S'/'
sg13
I2
sg14
(i__main__
Node
p17
(dp18
g12
S'indiv.flee()'
p19
sg13
I3
sg14
NsS'parent'
p20
g15
sS'float_size'
p21
S'indiv.getTailSize()'
p22
sS'float_bright'
p23
S'indiv.getNumPreysNeigh()'
p24
sS'left'
p25
Nsbsg20
g10
sg21
S'*'
sg23
S'-'
sg25
(i__main__
Node
p26
(dp27
g12
g19
sg13
I3
sg14
Nsg20
g15
sg21
S'indiv.getEnergy()'
p28
sg23
g24
sg25
Nsbsbsg20
Nsg21
S'-'
sg23
S'+'
sg25
(i__main__
Node
p29
(dp30
g12
S'-'
sg13
I2
sg14
(i__main__
Node
p31
(dp32
g12
S'indiv.separation()'
p33
sg13
I3
sg14
Nsg20
g29
sg21
S'indiv.distanceMatingSeason()'
p34
sg23
S'indiv.randF()'
p35
sg25
Nsbsg20
g10
sg21
S'-'
sg23
S'/'
sg25
(i__main__
Node
p36
(dp37
g12
S'indiv.target()'
p38
sg13
I3
sg14
Nsg20
g29
sg21
g28
sg23
g28
sg25
NsbsbsbsS'accel_x'
p39
F0
sS'accel_y'
p40
F0
sS'visionAngle'
p41
I150
sS'maxAccel'
p42
I2
sS'maxVel'
p43
F0.5
sS'age'
p44
I0
sS'tailSize'
p45
F5.4319476968032721
sS'sexualgeno'
p46
NsS'tailBrigh'
p47
F2.1518506613121415
sS'maxSteering'
p48
I30
sS'energy'
p49
F0.5
sS'lastScale'
p50
F5.5
sb.(i__main__
Data_mobile
p1
(dp2
S'vel_y'
p3
I0
sS'vel_x'
p4
F0.59367118917937889
sS'pos_x'
p5
I-9579
sS'pos_y'
p6
I9779
sS'isAlive'
p7
I00
sS'cumulativeEnergy'
p8
F0.5
sS'geno'
p9
(i__main__
Node
p10
(dp11
S'vector'
p12
S'+'
sS'depth'
p13
I1
sS'right'
p14
(i__main__
Node
p15
(dp16
g12
S'/'
sg13
I2
sg14
(i__main__
Node
p17
(dp18
g12
S'indiv.flee()'
p19
sg13
I3
sg14
NsS'parent'
p20
g15
sS'float_size'
p21
S'indiv.getTailSize()'
p22
sS'float_bright'
p23
S'indiv.getNumPreysNeigh()'
p24
sS'left'
p25
Nsbsg20
g10
sg21
S'*'
sg23
S'-'
sg25
(i__main__
Node
p26
(dp27
g12
g19
sg13
I3
sg14
Nsg20
g15
sg21
S'indiv.getEnergy()'
p28
sg23
g24
sg25
Nsbsbsg20
Nsg21
S'-'
sg23
S'+'
sg25
(i__main__
Node
p29
(dp30
g12
S'+'
sg13
I2
sg14
(i__main__
Node
p31
(dp32
g12
S'indiv.target()'
p33
sg13
I3
sg14
Nsg20
g29
sg21
S'indiv.getNumPredatorsNeigh()'
p34
sg23
g24
sg25
Nsbsg20
g10
sg21
S'*'
sg23
S'-'
sg25
(i__main__
Node
p35
(dp36
g12
g33
sg13
I3
sg14
Nsg20
g29
sg21
g28
sg23
S'indiv.randF()'
p37
sg25
NsbsbsbsS'accel_x'
p38
F0
sS'accel_y'
p39
F0
sS'visionAngle'
p40
I150
sS'maxAccel'
p41
I2
sS'maxVel'
p42
F0.5
sS'age'
p43
I0
sS'tailSize'
p44
F5.9367118917937889
sS'sexualgeno'
p45
NsS'tailBrigh'
p46
F8.8003614631403124
sS'maxSteering'
p47
I30
sS'energy'
p48
F0.5
sS'lastScale'
p49
F5.5
sb.(i__main__
Data_mobile
p1
(dp2
S'vel_y'
p3
I0
sS'vel_x'
p4
F0.7435396750204839
sS'pos_x'
p5
I-9579
sS'pos_y'
p6
I9779
sS'isAlive'
p7
I00
sS'cumulativeEnergy'
p8
F0.5
sS'geno'
p9
(i__main__
Node
p10
(dp11
S'right'
p12
(i__main__
Node
p13
(dp14
g12
(i__main__
Node
p15
(dp16
g12
NsS'parent'
p17
g13
sS'depth'
p18
I3
sS'vector'
p19
S'indiv.target()'
p20
sS'float_size'
p21
S'indiv.getTailSize()'
p22
sS'float_bright'
p23
g22
sS'left'
p24
Nsbsg17
g10
sg18
I2
sg19
S'-'
sg21
S'-'
sg23
S'+'
sg24
(i__main__
Node
p25
(dp26
g12
Nsg17
g13
sg18
I3
sg19
S'indiv.alignment()'
p27
sg21
S'indiv.distanceMatingSeason()'
p28
sg23
g22
sg24
Nsbsbsg17
Nsg18
I1
sg19
S'-'
sg21
S'*'
sg23
S'*'
sg24
(i__main__
Node
p29
(dp30
g12
(i__main__
Node
p31
(dp32
g12
Nsg17
g29
sg18
I3
sg19
g27
sg21
S'indiv.getEnergy()'
p33
sg23
g22
sg24
Nsbsg17
g10
sg18
I2
sg19
S'+'
sg21
S'-'
sg23
S'-'
sg24
(i__main__
Node
p34
(dp35
g12
Nsg17
g29
sg18
I3
sg19
g27
sg21
S'indiv.randF()'
p36
sg23
S'indiv.getTailBrightness()'
p37
sg24
NsbsbsbsS'accel_x'
p38
F0
sS'accel_y'
p39
F0
sS'visionAngle'
p40
I150
sS'maxAccel'
p41
I2
sS'maxVel'
p42
F0.5
sS'age'
p43
I0
sS'tailSize'
p44
F7.4353967502048395
sS'sexualgeno'
p45
NsS'tailBrigh'
p46
F7.9117196551102031
sS'maxSteering'
p47
I30
sS'energy'
p48
F0.5
sS'lastScale'
p49
F5.5
sb.(i__main__
Data_mobile
p1
(dp2
S'vel_y'
p3
I0
sS'vel_x'
p4
F0.34662857866820518
sS'pos_x'
p5
I-9579
sS'pos_y'
p6
I9779
sS'isAlive'
p7
I00
sS'cumulativeEnergy'
p8
F0.5
sS'geno'
p9
(i__main__
Node
p10
(dp11
S'vector'
p12
S'+'
sS'depth'
p13
I1
sS'right'
p14
(i__main__
Node
p15
(dp16
g12
S'indiv.currentVelocity()'
p17
sg13
I2
sg14
NsS'parent'
p18
g10
sS'float_size'
p19
S'indiv.getEnergy()'
p20
sS'float_bright'
p21
S'indiv.getNumPredatorsNeigh()'
p22
sS'left'
p23
Nsbsg18
Nsg19
S'-'
sg21
S'+'
sg23
(i__main__
Node
p24
(dp25
g12
S'+'
sg13
I2
sg14
(i__main__
Node
p26
(dp27
g12
S'indiv.target()'
p28
sg13
I3
sg14
Nsg18
g24
sg19
g22
sg21
S'indiv.getNumPreysNeigh()'
p29
sg23
Nsbsg18
g10
sg19
S'*'
sg21
S'-'
sg23
(i__main__
Node
p30
(dp31
g12
g28
sg13
I3
sg14
Nsg18
g24
sg19
g20
sg21
S'indiv.randF()'
p32
sg23
NsbsbsbsS'accel_x'
p33
F0
sS'accel_y'
p34
F0
sS'visionAngle'
p35
I150
sS'maxAccel'
p36
I2
sS'maxVel'
p37
F0.5
sS'age'
p38
I0
sS'tailSize'
p39
F3.466285786682052
sS'sexualgeno'
p40
NsS'tailBrigh'
p41
F3.3879680222308242
sS'maxSteering'
p42
I30
sS'energy'
p43
F0.5
sS'lastScale'
p44
F5.5
sb.(i__main__
Data_mobile
p1
(dp2
S'vel_y'
p3
I0
sS'vel_x'
p4
F0.13926148177382214
sS'pos_x'
p5
I-9579
sS'pos_y'
p6
I9779
sS'isAlive'
p7
I00
sS'cumulativeEnergy'
p8
F0.5
sS'geno'
p9
(i__main__
Node
p10
(dp11
S'vector'
p12
S'+'
sS'depth'
p13
I1
sS'right'
p14
(i__main__
Node
p15
(dp16
g12
S'indiv.currentVelocity()'
p17
sg13
I2
sg14
NsS'parent'
p18
g10
sS'float_size'
p19
S'indiv.getEnergy()'
p20
sS'float_bright'
p21
S'indiv.getNumPredatorsNeigh()'
p22
sS'left'
p23
Nsbsg18
Nsg19
S'-'
sg21
S'+'
sg23
(i__main__
Node
p24
(dp25
g12
S'+'
sg13
I2
sg14
(i__main__
Node
p26
(dp27
g12
S'indiv.target()'
p28
sg13
I3
sg14
Nsg18
g24
sg19
g22
sg21
S'indiv.getNumPreysNeigh()'
p29
sg23
Nsbsg18
g10
sg19
S'*'
sg21
S'-'
sg23
(i__main__
Node
p30
(dp31
g12
g28
sg13
I3
sg14
Nsg18
g24
sg19
g20
sg21
S'indiv.randF()'
p32
sg23
NsbsbsbsS'accel_x'
p33
F0
sS'accel_y'
p34
F0
sS'visionAngle'
p35
I150
sS'maxAccel'
p36
I2
sS'maxVel'
p37
F0.5
sS'age'
p38
I0
sS'tailSize'
p39
F1.3926148177382214
sS'sexualgeno'
p40
NsS'tailBrigh'
p41
F4.4252063354869851
sS'maxSteering'
p42
I30
sS'energy'
p43
F0.5
sS'lastScale'
p44
F5.5
sb.(i__main__
Data_mobile
p1
(dp2
S'vel_y'
p3
I0
sS'vel_x'
p4
F0.7275476347172547
sS'pos_x'
p5
I-9579
sS'pos_y'
p6
I9779
sS'isAlive'
p7
I00
sS'cumulativeEnergy'
p8
F0.5
sS'geno'
p9
(i__main__
Node
p10
(dp11
S'vector'
p12
S'+'
sS'depth'
p13
I1
sS'right'
p14
(i__main__
Node
p15
(dp16
g12
S'/'
sg13
I2
sg14
(i__main__
Node
p17
(dp18
g12
S'indiv.flee()'
p19
sg13
I3
sg14
NsS'parent'
p20
g15
sS'float_size'
p21
S'indiv.getTailSize()'
p22
sS'float_bright'
p23
S'indiv.getNumPreysNeigh()'
p24
sS'left'
p25
Nsbsg20
g10
sg21
S'*'
sg23
S'-'
sg25
(i__main__
Node
p26
(dp27
g12
g19
sg13
I3
sg14
Nsg20
g15
sg21
S'indiv.getEnergy()'
p28
sg23
g24
sg25
Nsbsbsg20
Nsg21
S'-'
sg23
S'+'
sg25
(i__main__
Node
p29
(dp30
g12
S'+'
sg13
I2
sg14
(i__main__
Node
p31
(dp32
g12
S'indiv.target()'
p33
sg13
I3
sg14
Nsg20
g29
sg21
S'indiv.getNumPredatorsNeigh()'
p34
sg23
g24
sg25
Nsbsg20
g10
sg21
S'*'
sg23
S'-'
sg25
(i__main__
Node
p35
(dp36
g12
g33
sg13
I3
sg14
Nsg20
g29
sg21
g28
sg23
S'indiv.randF()'
p37
sg25
NsbsbsbsS'accel_x'
p38
F0
sS'accel_y'
p39
F0
sS'visionAngle'
p40
I150
sS'maxAccel'
p41
I2
sS'maxVel'
p42
F0.5
sS'age'
p43
I0
sS'tailSize'
p44
F7.275476347172547
sS'sexualgeno'
p45
NsS'tailBrigh'
p46
F0.81133926904018105
sS'maxSteering'
p47
I30
sS'energy'
p48
F0.5
sS'lastScale'
p49
F5.5
sb.(i__main__
Data_mobile
p1
(dp2
S'vel_y'
p3
I0
sS'vel_x'
p4
F0.49282431050181674
sS'pos_x'
p5
I-9579
sS'pos_y'
p6
I9779
sS'isAlive'
p7
I00
sS'cumulativeEnergy'
p8
F0.5
sS'geno'
p9
(i__main__
Node
p10
(dp11
S'vector'
p12
S'+'
sS'depth'
p13
I1
sS'right'
p14
(i__main__
Node
p15
(dp16
g12
S'+'
sg13
I2
sg14
(i__main__
Node
p17
(dp18
g12
S'indiv.target()'
p19
sg13
I3
sg14
NsS'parent'
p20
g15
sS'float_size'
p21
S'indiv.getNumPredatorsNeigh()'
p22
sS'float_bright'
p23
S'indiv.getNumPreysNeigh()'
p24
sS'left'
p25
Nsbsg20
g10
sg21
S'*'
sg23
S'-'
sg25
(i__main__
Node
p26
(dp27
g12
g19
sg13
I3
sg14
Nsg20
g15
sg21
S'indiv.getEnergy()'
p28
sg23
S'indiv.randF()'
p29
sg25
Nsbsbsg20
Nsg21
S'-'
sg23
S'+'
sg25
(i__main__
Node
p30
(dp31
g12
S'-'
sg13
I2
sg14
(i__main__
Node
p32
(dp33
g12
S'indiv.cohesion()'
p34
sg13
I3
sg14
Nsg20
g30
sg21
g29
sg23
g24
sg25
Nsbsg20
g10
sg21
S'+'
sg23
S'/'
sg25
(i__main__
Node
p35
(dp36
g12
S'indiv.separation()'
p37
sg13
I3
sg14
Nsg20
g30
sg21
g22
sg23
g29
sg25
NsbsbsbsS'accel_x'
p38
F0
sS'accel_y'
p39
F0
sS'visionAngle'
p40
I150
sS'maxAccel'
p41
I2
sS'maxVel'
p42
F0.5
sS'age'
p43
I0
sS'tailSize'
p44
F4.9282431050181676
sS'sexualgeno'
p45
NsS'tailBrigh'
p46
F2.0957749505914247
sS'maxSteering'
p47
I30
sS'energy'
p48
F0.5
sS'lastScale'
p49
F5.5
sb.(i__main__
Data_mobile
p1
(dp2
S'vel_y'
p3
I0
sS'vel_x'
p4
F0.90950239519794029
sS'pos_x'
p5
I-9579
sS'pos_y'
p6
I9779
sS'isAlive'
p7
I00
sS'cumulativeEnergy'
p8
F0.5
sS'geno'
p9
(i__main__
Node
p10
(dp11
S'vector'
p12
S'+'
sS'depth'
p13
I1
sS'right'
p14
(i__main__
Node
p15
(dp16
g12
S'+'
sg13
I2
sg14
(i__main__
Node
p17
(dp18
g12
S'indiv.target()'
p19
sg13
I3
sg14
NsS'parent'
p20
g15
sS'float_size'
p21
S'indiv.getNumPredatorsNeigh()'
p22
sS'float_bright'
p23
S'indiv.getNumPreysNeigh()'
p24
sS'left'
p25
Nsbsg20
g10
sg21
S'*'
sg23
S'-'
sg25
(i__main__
Node
p26
(dp27
g12
g19
sg13
I3
sg14
Nsg20
g15
sg21
S'indiv.getEnergy()'
p28
sg23
S'indiv.randF()'
p29
sg25
Nsbsbsg20
Nsg21
S'-'
sg23
S'+'
sg25
(i__main__
Node
p30
(dp31
g12
S'+'
sg13
I2
sg14
(i__main__
Node
p32
(dp33
g12
g19
sg13
I3
sg14
Nsg20
g30
sg21
g22
sg23
g24
sg25
Nsbsg20
g10
sg21
S'*'
sg23
S'-'
sg25
(i__main__
Node
p34
(dp35
g12
g19
sg13
I3
sg14
Nsg20
g30
sg21
g28
sg23
g29
sg25
NsbsbsbsS'accel_x'
p36
F0
sS'accel_y'
p37
F0
sS'visionAngle'
p38
I150
sS'maxAccel'
p39
I2
sS'maxVel'
p40
F0.5
sS'age'
p41
I0
sS'tailSize'
p42
F9.0950239519794032
sS'sexualgeno'
p43
NsS'tailBrigh'
p44
F8.5270242483723244
sS'maxSteering'
p45
I30
sS'energy'
p46
F0.5
sS'lastScale'
p47
F5.5
sb.(i__main__
Data_mobile
p1
(dp2
S'vel_y'
p3
I0
sS'vel_x'
p4
F0.93272241595541172
sS'pos_x'
p5
I-9579
sS'pos_y'
p6
I9779
sS'isAlive'
p7
I00
sS'cumulativeEnergy'
p8
F0.5
sS'geno'
p9
(i__main__
Node
p10
(dp11
S'vector'
p12
S'+'
sS'depth'
p13
I1
sS'right'
p14
(i__main__
Node
p15
(dp16
g12
S'+'
sg13
I2
sg14
(i__main__
Node
p17
(dp18
g12
S'indiv.target()'
p19
sg13
I3
sg14
NsS'parent'
p20
g15
sS'float_size'
p21
S'indiv.getNumPredatorsNeigh()'
p22
sS'float_bright'
p23
S'indiv.getNumPreysNeigh()'
p24
sS'left'
p25
Nsbsg20
g10
sg21
S'*'
sg23
S'-'
sg25
(i__main__
Node
p26
(dp27
g12
g19
sg13
I3
sg14
Nsg20
g15
sg21
S'indiv.getEnergy()'
p28
sg23
S'indiv.randF()'
p29
sg25
Nsbsbsg20
Nsg21
S'-'
sg23
S'+'
sg25
(i__main__
Node
p30
(dp31
g12
S'+'
sg13
I2
sg14
(i__main__
Node
p32
(dp33
g12
g19
sg13
I3
sg14
Nsg20
g30
sg21
g22
sg23
g24
sg25
Nsbsg20
g10
sg21
S'*'
sg23
S'-'
sg25
(i__main__
Node
p34
(dp35
g12
g19
sg13
I3
sg14
Nsg20
g30
sg21
g28
sg23
g29
sg25
NsbsbsbsS'accel_x'
p36
F0
sS'accel_y'
p37
F0
sS'visionAngle'
p38
I150
sS'maxAccel'
p39
I2
sS'maxVel'
p40
F0.5
sS'age'
p41
I0
sS'tailSize'
p42
F9.3272241595541168
sS'sexualgeno'
p43
NsS'tailBrigh'
p44
F7.2844169240378553
sS'maxSteering'
p45
I30
sS'energy'
p46
F0.5
sS'lastScale'
p47
F5.5
sb.(i__main__
Data_mobile
p1
(dp2
S'vel_y'
p3
I0
sS'vel_x'
p4
F0.75409228810255102
sS'pos_x'
p5
I-9579
sS'pos_y'
p6
I9779
sS'isAlive'
p7
I00
sS'cumulativeEnergy'
p8
F0.5
sS'geno'
p9
(i__main__
Node
p10
(dp11
S'vector'
p12
S'+'
sS'depth'
p13
I1
sS'right'
p14
(i__main__
Node
p15
(dp16
g12
S'indiv.currentVelocity()'
p17
sg13
I2
sg14
NsS'parent'
p18
g10
sS'float_size'
p19
S'indiv.getEnergy()'
p20
sS'float_bright'
p21
S'indiv.getNumPredatorsNeigh()'
p22
sS'left'
p23
Nsbsg18
Nsg19
S'-'
sg21
S'+'
sg23
(i__main__
Node
p24
(dp25
g14
Nsg18
g10
sg13
I2
sg12
S'indiv.alignment()'
p26
sg19
S'indiv.distanceMatingSeason()'
p27
sg21
S'indiv.getNumPreysNeigh()'
p28
sg23
NsbsbsS'accel_x'
p29
F0
sS'accel_y'
p30
F0
sS'visionAngle'
p31
I150
sS'maxAccel'
p32
I2
sS'maxVel'
p33
F0.5
sS'age'
p34
I0
sS'tailSize'
p35
F7.5409228810255104
sS'sexualgeno'
p36
NsS'tailBrigh'
p37
F8.0352582327184052
sS'maxSteering'
p38
I30
sS'energy'
p39
F0.5
sS'lastScale'
p40
F5.5
sb.(i__main__
Data_mobile
p1
(dp2
S'vel_y'
p3
I0
sS'vel_x'
p4
F0.79858853825855591
sS'pos_x'
p5
I-9579
sS'pos_y'
p6
I9779
sS'isAlive'
p7
I00
sS'cumulativeEnergy'
p8
F0.5
sS'geno'
p9
(i__main__
Node
p10
(dp11
S'vector'
p12
S'+'
sS'depth'
p13
I1
sS'right'
p14
(i__main__
Node
p15
(dp16
g12
S'-'
sg13
I2
sg14
(i__main__
Node
p17
(dp18
g12
S'indiv.separation()'
p19
sg13
I3
sg14
NsS'parent'
p20
g15
sS'float_size'
p21
S'indiv.distanceMatingSeason()'
p22
sS'float_bright'
p23
S'indiv.randF()'
p24
sS'left'
p25
Nsbsg20
g10
sg21
S'-'
sg23
S'/'
sg25
(i__main__
Node
p26
(dp27
g12
S'indiv.target()'
p28
sg13
I3
sg14
Nsg20
g15
sg21
S'indiv.getEnergy()'
p29
sg23
g29
sg25
Nsbsbsg20
Nsg21
S'-'
sg23
S'+'
sg25
(i__main__
Node
p30
(dp31
g12
S'indiv.flee()'
p32
sg13
I2
sg14
Nsg20
g10
sg21
S'indiv.getNumPreysNeigh()'
p33
sg23
g33
sg25
NsbsbsS'accel_x'
p34
F0
sS'accel_y'
p35
F0
sS'visionAngle'
p36
I150
sS'maxAccel'
p37
I2
sS'maxVel'
p38
F0.5
sS'age'
p39
I0
sS'tailSize'
p40
F7.9858853825855594
sS'sexualgeno'
p41
NsS'tailBrigh'
p42
F8.320585332225539
sS'maxSteering'
p43
I30
sS'energy'
p44
F0.5
sS'lastScale'
p45
F5.5
sb.(i__main__
Data_mobile
p1
(dp2
S'vel_y'
p3
I0
sS'vel_x'
p4
F0.51858495337592303
sS'pos_x'
p5
I-9579
sS'pos_y'
p6
I9779
sS'isAlive'
p7
I00
sS'cumulativeEnergy'
p8
F0.5
sS'geno'
p9
(i__main__
Node
p10
(dp11
S'vector'
p12
S'+'
sS'depth'
p13
I1
sS'right'
p14
(i__main__
Node
p15
(dp16
g12
S'indiv.currentVelocity()'
p17
sg13
I2
sg14
NsS'parent'
p18
g10
sS'float_size'
p19
S'indiv.getEnergy()'
p20
sS'float_bright'
p21
S'indiv.getNumPredatorsNeigh()'
p22
sS'left'
p23
Nsbsg18
Nsg19
S'-'
sg21
S'+'
sg23
(i__main__
Node
p24
(dp25
g12
S'-'
sg13
I2
sg14
(i__main__
Node
p26
(dp27
g12
S'indiv.separation()'
p28
sg13
I3
sg14
Nsg18
g24
sg19
S'indiv.distanceMatingSeason()'
p29
sg21
S'indiv.randF()'
p30
sg23
Nsbsg18
g10
sg19
S'-'
sg21
S'/'
sg23
(i__main__
Node
p31
(dp32
g12
S'indiv.target()'
p33
sg13
I3
sg14
Nsg18
g24
sg19
g20
sg21
g20
sg23
NsbsbsbsS'accel_x'
p34
F0
sS'accel_y'
p35
F0
sS'visionAngle'
p36
I150
sS'maxAccel'
p37
I2
sS'maxVel'
p38
F0.5
sS'age'
p39
I0
sS'tailSize'
p40
F5.1858495337592299
sS'sexualgeno'
p41
NsS'tailBrigh'
p42
F8.4343571767586774
sS'maxSteering'
p43
I30
sS'energy'
p44
F0.5
sS'lastScale'
p45
F5.5
sb.(i__main__
Data_mobile
p1
(dp2
S'vel_y'
p3
I0
sS'vel_x'
p4
F0.50873292003376092
sS'pos_x'
p5
I-9579
sS'pos_y'
p6
I9779
sS'isAlive'
p7
I00
sS'cumulativeEnergy'
p8
F0.5
sS'geno'
p9
(i__main__
Node
p10
(dp11
S'vector'
p12
S'+'
sS'depth'
p13
I1
sS'right'
p14
(i__main__
Node
p15
(dp16
g12
S'+'
sg13
I2
sg14
(i__main__
Node
p17
(dp18
g12
S'indiv.target()'
p19
sg13
I3
sg14
NsS'parent'
p20
g15
sS'float_size'
p21
S'indiv.getNumPredatorsNeigh()'
p22
sS'float_bright'
p23
S'indiv.getNumPreysNeigh()'
p24
sS'left'
p25
Nsbsg20
g10
sg21
S'*'
sg23
S'-'
sg25
(i__main__
Node
p26
(dp27
g12
g19
sg13
I3
sg14
Nsg20
g15
sg21
S'indiv.getEnergy()'
p28
sg23
S'indiv.randF()'
p29
sg25
Nsbsbsg20
Nsg21
S'-'
sg23
S'+'
sg25
(i__main__
Node
p30
(dp31
g12
S'+'
sg13
I2
sg14
(i__main__
Node
p32
(dp33
g12
g19
sg13
I3
sg14
Nsg20
g30
sg21
g22
sg23
g24
sg25
Nsbsg20
g10
sg21
S'*'
sg23
S'-'
sg25
(i__main__
Node
p34
(dp35
g12
g19
sg13
I3
sg14
Nsg20
g30
sg21
g28
sg23
g29
sg25
NsbsbsbsS'accel_x'
p36
F0
sS'accel_y'
p37
F0
sS'visionAngle'
p38
I150
sS'maxAccel'
p39
I2
sS'maxVel'
p40
F0.5
sS'age'
p41
I0
sS'tailSize'
p42
F5.0873292003376092
sS'sexualgeno'
p43
NsS'tailBrigh'
p44
F9.5699873640246551
sS'maxSteering'
p45
I30
sS'energy'
p46
F0.5
sS'lastScale'
p47
F5.5
sb.(i__main__
Data_mobile
p1
(dp2
S'vel_y'
p3
I0
sS'vel_x'
p4
F0.87879906709393052
sS'pos_x'
p5
I-9579
sS'pos_y'
p6
I9779
sS'isAlive'
p7
I00
sS'cumulativeEnergy'
p8
F0.5
sS'geno'
p9
(i__main__
Node
p10
(dp11
S'vector'
p12
S'+'
sS'depth'
p13
I1
sS'right'
p14
(i__main__
Node
p15
(dp16
g12
S'/'
sg13
I2
sg14
(i__main__
Node
p17
(dp18
g12
S'indiv.flee()'
p19
sg13
I3
sg14
NsS'parent'
p20
g15
sS'float_size'
p21
S'indiv.getTailSize()'
p22
sS'float_bright'
p23
S'indiv.getNumPreysNeigh()'
p24
sS'left'
p25
Nsbsg20
g10
sg21
S'*'
sg23
S'-'
sg25
(i__main__
Node
p26
(dp27
g12
g19
sg13
I3
sg14
Nsg20
g15
sg21
S'indiv.getEnergy()'
p28
sg23
g24
sg25
Nsbsbsg20
Nsg21
S'-'
sg23
S'+'
sg25
(i__main__
Node
p29
(dp30
g12
S'-'
sg13
I2
sg14
(i__main__
Node
p31
(dp32
g12
S'indiv.cohesion()'
p33
sg13
I3
sg14
Nsg20
g29
sg21
S'indiv.randF()'
p34
sg23
g24
sg25
Nsbsg20
g10
sg21
S'+'
sg23
S'/'
sg25
(i__main__
Node
p35
(dp36
g12
S'indiv.separation()'
p37
sg13
I3
sg14
Nsg20
g29
sg21
S'indiv.getNumPredatorsNeigh()'
p38
sg23
g34
sg25
NsbsbsbsS'accel_x'
p39
F0
sS'accel_y'
p40
F0
sS'visionAngle'
p41
I150
sS'maxAccel'
p42
I2
sS'maxVel'
p43
F0.5
sS'age'
p44
I0
sS'tailSize'
p45
F8.7879906709393047
sS'sexualgeno'
p46
NsS'tailBrigh'
p47
F9.5332183896760228
sS'maxSteering'
p48
I30
sS'energy'
p49
F0.5
sS'lastScale'
p50
F5.5
sb.(i__main__
Data_mobile
p1
(dp2
S'vel_y'
p3
I0
sS'vel_x'
p4
F0.48358496762439163
sS'pos_x'
p5
I-9579
sS'pos_y'
p6
I9779
sS'isAlive'
p7
I00
sS'cumulativeEnergy'
p8
F0.5
sS'geno'
p9
(i__main__
Node
p10
(dp11
S'vector'
p12
S'+'
sS'depth'
p13
I1
sS'right'
p14
(i__main__
Node
p15
(dp16
g12
S'+'
sg13
I2
sg14
(i__main__
Node
p17
(dp18
g12
S'indiv.target()'
p19
sg13
I3
sg14
NsS'parent'
p20
g15
sS'float_size'
p21
S'indiv.getNumPredatorsNeigh()'
p22
sS'float_bright'
p23
S'indiv.getNumPreysNeigh()'
p24
sS'left'
p25
Nsbsg20
g10
sg21
S'*'
sg23
S'-'
sg25
(i__main__
Node
p26
(dp27
g12
g19
sg13
I3
sg14
Nsg20
g15
sg21
S'indiv.getEnergy()'
p28
sg23
S'indiv.randF()'
p29
sg25
Nsbsbsg20
Nsg21
S'-'
sg23
S'+'
sg25
(i__main__
Node
p30
(dp31
g12
S'+'
sg13
I2
sg14
(i__main__
Node
p32
(dp33
g12
g19
sg13
I3
sg14
Nsg20
g30
sg21
g22
sg23
g24
sg25
Nsbsg20
g10
sg21
S'*'
sg23
S'-'
sg25
(i__main__
Node
p34
(dp35
g12
g19
sg13
I3
sg14
Nsg20
g30
sg21
g28
sg23
g29
sg25
NsbsbsbsS'accel_x'
p36
F0
sS'accel_y'
p37
F0
sS'visionAngle'
p38
I150
sS'maxAccel'
p39
I2
sS'maxVel'
p40
F0.5
sS'age'
p41
I0
sS'tailSize'
p42
F4.8358496762439165
sS'sexualgeno'
p43
NsS'tailBrigh'
p44
F9.4161510741375736
sS'maxSteering'
p45
I30
sS'energy'
p46
F0.5
sS'lastScale'
p47
F5.5
sb.(i__main__
Data_mobile
p1
(dp2
S'vel_y'
p3
I0
sS'vel_x'
p4
F0.2856476914454108
sS'pos_x'
p5
I-9579
sS'pos_y'
p6
I9779
sS'isAlive'
p7
I00
sS'cumulativeEnergy'
p8
F0.5
sS'geno'
p9
(i__main__
Node
p10
(dp11
S'vector'
p12
S'+'
sS'depth'
p13
I1
sS'right'
p14
(i__main__
Node
p15
(dp16
g12
S'indiv.currentVelocity()'
p17
sg13
I2
sg14
NsS'parent'
p18
g10
sS'float_size'
p19
S'indiv.getEnergy()'
p20
sS'float_bright'
p21
S'indiv.getNumPredatorsNeigh()'
p22
sS'left'
p23
Nsbsg18
Nsg19
S'-'
sg21
S'+'
sg23
(i__main__
Node
p24
(dp25
g12
S'-'
sg13
I2
sg14
(i__main__
Node
p26
(dp27
g12
S'indiv.separation()'
p28
sg13
I3
sg14
Nsg18
g24
sg19
S'indiv.distanceMatingSeason()'
p29
sg21
S'indiv.randF()'
p30
sg23
Nsbsg18
g10
sg19
S'-'
sg21
S'/'
sg23
(i__main__
Node
p31
(dp32
g12
S'indiv.target()'
p33
sg13
I3
sg14
Nsg18
g24
sg19
g20
sg21
g20
sg23
NsbsbsbsS'accel_x'
p34
F0
sS'accel_y'
p35
F0
sS'visionAngle'
p36
I150
sS'maxAccel'
p37
I2
sS'maxVel'
p38
F0.5
sS'age'
p39
I0
sS'tailSize'
p40
F2.8564769144541078
sS'sexualgeno'
p41
NsS'tailBrigh'
p42
F9.0614396420137808
sS'maxSteering'
p43
I30
sS'energy'
p44
F0.5
sS'lastScale'
p45
F5.5
sb.(i__main__
Data_mobile
p1
(dp2
S'vel_y'
p3
I0
sS'vel_x'
p4
F0.80416394405698932
sS'pos_x'
p5
I-9579
sS'pos_y'
p6
I9779
sS'isAlive'
p7
I00
sS'cumulativeEnergy'
p8
F0.5
sS'geno'
p9
(i__main__
Node
p10
(dp11
S'vector'
p12
S'+'
sS'depth'
p13
I1
sS'right'
p14
(i__main__
Node
p15
(dp16
g12
S'+'
sg13
I2
sg14
(i__main__
Node
p17
(dp18
g12
S'indiv.target()'
p19
sg13
I3
sg14
NsS'parent'
p20
g15
sS'float_size'
p21
S'indiv.getNumPredatorsNeigh()'
p22
sS'float_bright'
p23
S'indiv.getNumPreysNeigh()'
p24
sS'left'
p25
Nsbsg20
g10
sg21
S'*'
sg23
S'-'
sg25
(i__main__
Node
p26
(dp27
g12
g19
sg13
I3
sg14
Nsg20
g15
sg21
S'indiv.getEnergy()'
p28
sg23
S'indiv.randF()'
p29
sg25
Nsbsbsg20
Nsg21
S'-'
sg23
S'+'
sg25
(i__main__
Node
p30
(dp31
g12
S'indiv.flee()'
p32
sg13
I2
sg14
Nsg20
g10
sg21
g24
sg23
g24
sg25
NsbsbsS'accel_x'
p33
F0
sS'accel_y'
p34
F0
sS'visionAngle'
p35
I150
sS'maxAccel'
p36
I2
sS'maxVel'
p37
F0.5
sS'age'
p38
I0
sS'tailSize'
p39
F8.0416394405698934
sS'sexualgeno'
p40
NsS'tailBrigh'
p41
F3.7083872731532508
sS'maxSteering'
p42
I30
sS'energy'
p43
F0.5
sS'lastScale'
p44
F5.5
sb.(i__main__
Data_mobile
p1
(dp2
S'vel_y'
p3
I0
sS'vel_x'
p4
F0.19491397392670706
sS'pos_x'
p5
I-9579
sS'pos_y'
p6
I9779
sS'isAlive'
p7
I00
sS'cumulativeEnergy'
p8
F0.5
sS'geno'
p9
(i__main__
Node
p10
(dp11
S'vector'
p12
S'+'
sS'depth'
p13
I1
sS'right'
p14
(i__main__
Node
p15
(dp16
g12
S'+'
sg13
I2
sg14
(i__main__
Node
p17
(dp18
g12
S'indiv.target()'
p19
sg13
I3
sg14
NsS'parent'
p20
g15
sS'float_size'
p21
S'indiv.getNumPredatorsNeigh()'
p22
sS'float_bright'
p23
S'indiv.getNumPreysNeigh()'
p24
sS'left'
p25
Nsbsg20
g10
sg21
S'*'
sg23
S'-'
sg25
(i__main__
Node
p26
(dp27
g12
g19
sg13
I3
sg14
Nsg20
g15
sg21
S'indiv.getEnergy()'
p28
sg23
S'indiv.randF()'
p29
sg25
Nsbsbsg20
Nsg21
S'-'
sg23
S'+'
sg25
(i__main__
Node
p30
(dp31
g12
S'-'
sg13
I2
sg14
(i__main__
Node
p32
(dp33
g12
S'indiv.separation()'
p34
sg13
I3
sg14
Nsg20
g30
sg21
S'indiv.distanceMatingSeason()'
p35
sg23
g29
sg25
Nsbsg20
g10
sg21
S'-'
sg23
S'/'
sg25
(i__main__
Node
p36
(dp37
g12
g19
sg13
I3
sg14
Nsg20
g30
sg21
g28
sg23
g28
sg25
NsbsbsbsS'accel_x'
p38
F0
sS'accel_y'
p39
F0
sS'visionAngle'
p40
I150
sS'maxAccel'
p41
I2
sS'maxVel'
p42
F0.5
sS'age'
p43
I0
sS'tailSize'
p44
F1.9491397392670706
sS'sexualgeno'
p45
NsS'tailBrigh'
p46
F7.2380090806615609
sS'maxSteering'
p47
I30
sS'energy'
p48
F0.5
sS'lastScale'
p49
F5.5
sb.(i__main__
Data_mobile
p1
(dp2
S'vel_y'
p3
I0
sS'vel_x'
p4
F0.489133375757908
sS'pos_x'
p5
I-9579
sS'pos_y'
p6
I9779
sS'isAlive'
p7
I00
sS'cumulativeEnergy'
p8
F0.5
sS'geno'
p9
(i__main__
Node
p10
(dp11
S'right'
p12
(i__main__
Node
p13
(dp14
g12
(i__main__
Node
p15
(dp16
g12
NsS'parent'
p17
g13
sS'depth'
p18
I3
sS'vector'
p19
S'indiv.flee()'
p20
sS'float_size'
p21
S'indiv.distanceMatingSeason()'
p22
sS'float_bright'
p23
g22
sS'left'
p24
Nsbsg17
g10
sg18
I2
sg19
S'-'
sg21
S'*'
sg23
S'-'
sg24
(i__main__
Node
p25
(dp26
g12
Nsg17
g13
sg18
I3
sg19
S'indiv.target()'
p27
sg21
S'indiv.getNumPredatorsNeigh()'
p28
sg23
g28
sg24
Nsbsbsg17
Nsg18
I1
sg19
S'*'
sg21
S'*'
sg23
S'-'
sg24
(i__main__
Node
p29
(dp30
g12
(i__main__
Node
p31
(dp32
g12
Nsg17
g29
sg18
I3
sg19
S'indiv.currentVelocity()'
p33
sg21
g28
sg23
S'indiv.getNumPreysNeigh()'
p34
sg24
Nsbsg17
g10
sg18
I2
sg19
S'+'
sg21
S'/'
sg23
S'*'
sg24
(i__main__
Node
p35
(dp36
g12
Nsg17
g29
sg18
I3
sg19
S'indiv.alignment()'
p37
sg21
g28
sg23
g22
sg24
NsbsbsbsS'accel_x'
p38
F0
sS'accel_y'
p39
F0
sS'visionAngle'
p40
I150
sS'maxAccel'
p41
I2
sS'maxVel'
p42
F0.5
sS'age'
p43
I0
sS'tailSize'
p44
F4.8913337575790798
sS'sexualgeno'
p45
NsS'tailBrigh'
p46
F5.0491153420020591
sS'maxSteering'
p47
I30
sS'energy'
p48
F0.5
sS'lastScale'
p49
F5.5
sb.(i__main__
Data_mobile
p1
(dp2
S'vel_y'
p3
I0
sS'vel_x'
p4
F0.12735759050914919
sS'pos_x'
p5
I-9579
sS'pos_y'
p6
I9779
sS'isAlive'
p7
I00
sS'cumulativeEnergy'
p8
F0.5
sS'geno'
p9
(i__main__
Node
p10
(dp11
S'vector'
p12
S'+'
sS'depth'
p13
I1
sS'right'
p14
(i__main__
Node
p15
(dp16
g12
S'-'
sg13
I2
sg14
(i__main__
Node
p17
(dp18
g12
S'indiv.separation()'
p19
sg13
I3
sg14
NsS'parent'
p20
g15
sS'float_size'
p21
S'indiv.distanceMatingSeason()'
p22
sS'float_bright'
p23
S'indiv.randF()'
p24
sS'left'
p25
Nsbsg20
g10
sg21
S'-'
sg23
S'/'
sg25
(i__main__
Node
p26
(dp27
g12
S'indiv.target()'
p28
sg13
I3
sg14
Nsg20
g15
sg21
S'indiv.getEnergy()'
p29
sg23
g29
sg25
Nsbsbsg20
Nsg21
S'-'
sg23
S'+'
sg25
(i__main__
Node
p30
(dp31
g12
S'+'
sg13
I2
sg14
(i__main__
Node
p32
(dp33
g12
g28
sg13
I3
sg14
Nsg20
g30
sg21
S'indiv.getNumPredatorsNeigh()'
p34
sg23
S'indiv.getNumPreysNeigh()'
p35
sg25
Nsbsg20
g10
sg21
S'*'
sg23
S'-'
sg25
(i__main__
Node
p36
(dp37
g12
g28
sg13
I3
sg14
Nsg20
g30
sg21
g29
sg23
g24
sg25
NsbsbsbsS'accel_x'
p38
F0
sS'accel_y'
p39
F0
sS'visionAngle'
p40
I150
sS'maxAccel'
p41
I2
sS'maxVel'
p42
F0.5
sS'age'
p43
I0
sS'tailSize'
p44
F1.2735759050914919
sS'sexualgeno'
p45
NsS'tailBrigh'
p46
F5.5394280867175585
sS'maxSteering'
p47
I30
sS'energy'
p48
F0.5
sS'lastScale'
p49
F5.5
sb.(i__main__
Data_mobile
p1
(dp2
S'vel_y'
p3
I0
sS'vel_x'
p4
F0.77791583992391156
sS'pos_x'
p5
I-9579
sS'pos_y'
p6
I9779
sS'isAlive'
p7
I00
sS'cumulativeEnergy'
p8
F0.5
sS'geno'
p9
(i__main__
Node
p10
(dp11
S'vector'
p12
S'+'
sS'depth'
p13
I1
sS'right'
p14
(i__main__
Node
p15
(dp16
g12
S'indiv.currentVelocity()'
p17
sg13
I2
sg14
NsS'parent'
p18
g10
sS'float_size'
p19
S'indiv.getEnergy()'
p20
sS'float_bright'
p21
S'indiv.getNumPredatorsNeigh()'
p22
sS'left'
p23
Nsbsg18
Nsg19
S'-'
sg21
S'+'
sg23
(i__main__
Node
p24
(dp25
g12
S'-'
sg13
I2
sg14
(i__main__
Node
p26
(dp27
g12
S'indiv.separation()'
p28
sg13
I3
sg14
Nsg18
g24
sg19
S'indiv.distanceMatingSeason()'
p29
sg21
S'indiv.randF()'
p30
sg23
Nsbsg18
g10
sg19
S'-'
sg21
S'/'
sg23
(i__main__
Node
p31
(dp32
g12
S'indiv.target()'
p33
sg13
I3
sg14
Nsg18
g24
sg19
g20
sg21
g20
sg23
NsbsbsbsS'accel_x'
p34
F0
sS'accel_y'
p35
F0
sS'visionAngle'
p36
I150
sS'maxAccel'
p37
I2
sS'maxVel'
p38
F0.5
sS'age'
p39
I0
sS'tailSize'
p40
F7.7791583992391153
sS'sexualgeno'
p41
NsS'tailBrigh'
p42
F7.540634840411645
sS'maxSteering'
p43
I30
sS'energy'
p44
F0.5
sS'lastScale'
p45
F5.5
sb.(i__main__
Data_mobile
p1
(dp2
S'vel_y'
p3
I0
sS'vel_x'
p4
F0.78443093767040617
sS'pos_x'
p5
I-9579
sS'pos_y'
p6
I9779
sS'isAlive'
p7
I00
sS'cumulativeEnergy'
p8
F0.5
sS'geno'
p9
(i__main__
Node
p10
(dp11
S'vector'
p12
S'+'
sS'depth'
p13
I1
sS'right'
p14
(i__main__
Node
p15
(dp16
g12
S'+'
sg13
I2
sg14
(i__main__
Node
p17
(dp18
g12
S'indiv.target()'
p19
sg13
I3
sg14
NsS'parent'
p20
g15
sS'float_size'
p21
S'indiv.getNumPredatorsNeigh()'
p22
sS'float_bright'
p23
S'indiv.getNumPreysNeigh()'
p24
sS'left'
p25
Nsbsg20
g10
sg21
S'*'
sg23
S'-'
sg25
(i__main__
Node
p26
(dp27
g12
g19
sg13
I3
sg14
Nsg20
g15
sg21
S'indiv.getEnergy()'
p28
sg23
S'indiv.randF()'
p29
sg25
Nsbsbsg20
Nsg21
S'-'
sg23
S'+'
sg25
(i__main__
Node
p30
(dp31
g12
S'indiv.flee()'
p32
sg13
I2
sg14
Nsg20
g10
sg21
g24
sg23
g24
sg25
NsbsbsS'accel_x'
p33
F0
sS'accel_y'
p34
F0
sS'visionAngle'
p35
I150
sS'maxAccel'
p36
I2
sS'maxVel'
p37
F0.5
sS'age'
p38
I0
sS'tailSize'
p39
F7.8443093767040617
sS'sexualgeno'
p40
NsS'tailBrigh'
p41
F7.5041975856567023
sS'maxSteering'
p42
I30
sS'energy'
p43
F0.5
sS'lastScale'
p44
F5.5
sb.(i__main__
Data_mobile
p1
(dp2
S'vel_y'
p3
I0
sS'vel_x'
p4
F0.46539979938932702
sS'pos_x'
p5
I-9579
sS'pos_y'
p6
I9779
sS'isAlive'
p7
I00
sS'cumulativeEnergy'
p8
F0.5
sS'geno'
p9
(i__main__
Node
p10
(dp11
S'vector'
p12
S'+'
sS'depth'
p13
I1
sS'right'
p14
(i__main__
Node
p15
(dp16
g12
S'+'
sg13
I2
sg14
(i__main__
Node
p17
(dp18
g12
S'indiv.target()'
p19
sg13
I3
sg14
NsS'parent'
p20
g15
sS'float_size'
p21
S'indiv.getNumPredatorsNeigh()'
p22
sS'float_bright'
p23
S'indiv.getNumPreysNeigh()'
p24
sS'left'
p25
Nsbsg20
g10
sg21
S'*'
sg23
S'-'
sg25
(i__main__
Node
p26
(dp27
g12
g19
sg13
I3
sg14
Nsg20
g15
sg21
S'indiv.getEnergy()'
p28
sg23
S'indiv.randF()'
p29
sg25
Nsbsbsg20
Nsg21
S'-'
sg23
S'+'
sg25
(i__main__
Node
p30
(dp31
g12
S'+'
sg13
I2
sg14
(i__main__
Node
p32
(dp33
g12
g19
sg13
I3
sg14
Nsg20
g30
sg21
g22
sg23
g24
sg25
Nsbsg20
g10
sg21
S'*'
sg23
S'-'
sg25
(i__main__
Node
p34
(dp35
g12
g19
sg13
I3
sg14
Nsg20
g30
sg21
g28
sg23
g29
sg25
NsbsbsbsS'accel_x'
p36
F0
sS'accel_y'
p37
F0
sS'visionAngle'
p38
I150
sS'maxAccel'
p39
I2
sS'maxVel'
p40
F0.5
sS'age'
p41
I0
sS'tailSize'
p42
F4.6539979938932703
sS'sexualgeno'
p43
NsS'tailBrigh'
p44
F2.9181924494213698
sS'maxSteering'
p45
I30
sS'energy'
p46
F0.5
sS'lastScale'
p47
F5.5
sb.(i__main__
Data_mobile
p1
(dp2
S'vel_y'
p3
I0
sS'vel_x'
p4
F0.65524776327317968
sS'pos_x'
p5
I-9579
sS'pos_y'
p6
I9779
sS'isAlive'
p7
I00
sS'cumulativeEnergy'
p8
F0.5
sS'geno'
p9
(i__main__
Node
p10
(dp11
S'vector'
p12
S'+'
sS'depth'
p13
I1
sS'right'
p14
(i__main__
Node
p15
(dp16
g12
S'+'
sg13
I2
sg14
(i__main__
Node
p17
(dp18
g12
S'indiv.target()'
p19
sg13
I3
sg14
NsS'parent'
p20
g15
sS'float_size'
p21
S'indiv.getNumPredatorsNeigh()'
p22
sS'float_bright'
p23
S'indiv.getNumPreysNeigh()'
p24
sS'left'
p25
Nsbsg20
g10
sg21
S'*'
sg23
S'-'
sg25
(i__main__
Node
p26
(dp27
g12
g19
sg13
I3
sg14
Nsg20
g15
sg21
S'indiv.getEnergy()'
p28
sg23
S'indiv.randF()'
p29
sg25
Nsbsbsg20
Nsg21
S'-'
sg23
S'+'
sg25
(i__main__
Node
p30
(dp31
g14
(i__main__
Node
p32
(dp33
g14
Nsg20
g30
sg13
I3
sg12
S'indiv.cohesion()'
p34
sg21
g29
sg23
g24
sg25
Nsbsg20
g10
sg13
I2
sg12
S'-'
sg21
S'+'
sg23
S'/'
sg25
(i__main__
Node
p35
(dp36
g14
Nsg20
g30
sg13
I3
sg12
S'indiv.separation()'
p37
sg21
g22
sg23
g29
sg25
NsbsbsbsS'accel_x'
p38
F0
sS'accel_y'
p39
F0
sS'visionAngle'
p40
I150
sS'maxAccel'
p41
I2
sS'maxVel'
p42
F0.5
sS'age'
p43
I0
sS'tailSize'
p44
F6.5524776327317973
sS'sexualgeno'
p45
NsS'tailBrigh'
p46
F9.0491212910814607
sS'maxSteering'
p47
I30
sS'energy'
p48
F0.5
sS'lastScale'
p49
F5.5
sb.(i__main__
Data_mobile
p1
(dp2
S'vel_y'
p3
I0
sS'vel_x'
p4
F0.77727968540461567
sS'pos_x'
p5
I-9579
sS'pos_y'
p6
I9779
sS'isAlive'
p7
I00
sS'cumulativeEnergy'
p8
F0.5
sS'geno'
p9
(i__main__
Node
p10
(dp11
S'vector'
p12
S'+'
sS'depth'
p13
I1
sS'right'
p14
(i__main__
Node
p15
(dp16
g12
S'-'
sg13
I2
sg14
(i__main__
Node
p17
(dp18
g12
S'indiv.separation()'
p19
sg13
I3
sg14
NsS'parent'
p20
g15
sS'float_size'
p21
S'indiv.distanceMatingSeason()'
p22
sS'float_bright'
p23
S'indiv.randF()'
p24
sS'left'
p25
Nsbsg20
g10
sg21
S'-'
sg23
S'/'
sg25
(i__main__
Node
p26
(dp27
g12
S'indiv.target()'
p28
sg13
I3
sg14
Nsg20
g15
sg21
S'indiv.getEnergy()'
p29
sg23
g29
sg25
Nsbsbsg20
Nsg21
S'-'
sg23
S'+'
sg25
(i__main__
Node
p30
(dp31
g12
S'+'
sg13
I2
sg14
(i__main__
Node
p32
(dp33
g12
g28
sg13
I3
sg14
Nsg20
g30
sg21
S'indiv.getNumPredatorsNeigh()'
p34
sg23
S'indiv.getNumPreysNeigh()'
p35
sg25
Nsbsg20
g10
sg21
S'*'
sg23
S'-'
sg25
(i__main__
Node
p36
(dp37
g12
g28
sg13
I3
sg14
Nsg20
g30
sg21
g29
sg23
g24
sg25
NsbsbsbsS'accel_x'
p38
F0
sS'accel_y'
p39
F0
sS'visionAngle'
p40
I150
sS'maxAccel'
p41
I2
sS'maxVel'
p42
F0.5
sS'age'
p43
I0
sS'tailSize'
p44
F7.7727968540461569
sS'sexualgeno'
p45
NsS'tailBrigh'
p46
F3.0184526042918813
sS'maxSteering'
p47
I30
sS'energy'
p48
F0.5
sS'lastScale'
p49
F5.5
sb.(i__main__
Data_mobile
p1
(dp2
S'vel_y'
p3
I0
sS'vel_x'
p4
F0.075063395362530705
sS'pos_x'
p5
I-9579
sS'pos_y'
p6
I9779
sS'isAlive'
p7
I00
sS'cumulativeEnergy'
p8
F0.5
sS'geno'
p9
(i__main__
Node
p10
(dp11
S'right'
p12
(i__main__
Node
p13
(dp14
g12
(i__main__
Node
p15
(dp16
g12
NsS'parent'
p17
g13
sS'depth'
p18
I3
sS'vector'
p19
S'indiv.target()'
p20
sS'float_size'
p21
S'indiv.getNumPreysNeigh()'
p22
sS'float_bright'
p23
S'indiv.getTailSize()'
p24
sS'left'
p25
Nsbsg17
g10
sg18
I2
sg19
S'/'
sg21
S'/'
sg23
S'/'
sg25
(i__main__
Node
p26
(dp27
g12
Nsg17
g13
sg18
I3
sg19
S'indiv.cohesion()'
p28
sg21
S'indiv.getEnergy()'
p29
sg23
S'indiv.getTailBrightness()'
p30
sg25
Nsbsbsg17
Nsg18
I1
sg19
S'*'
sg21
S'/'
sg23
S'/'
sg25
(i__main__
Node
p31
(dp32
g12
(i__main__
Node
p33
(dp34
g12
Nsg17
g31
sg18
I3
sg19
S'indiv.flee()'
p35
sg21
g24
sg23
S'indiv.randF()'
p36
sg25
Nsbsg17
g10
sg18
I2
sg19
S'*'
sg21
S'*'
sg23
S'/'
sg25
(i__main__
Node
p37
(dp38
g12
Nsg17
g31
sg18
I3
sg19
S'indiv.currentVelocity()'
p39
sg21
g24
sg23
g29
sg25
NsbsbsbsS'accel_x'
p40
F0
sS'accel_y'
p41
F0
sS'visionAngle'
p42
I150
sS'maxAccel'
p43
I2
sS'maxVel'
p44
F0.5
sS'age'
p45
I0
sS'tailSize'
p46
F0.75063395362530705
sS'sexualgeno'
p47
NsS'tailBrigh'
p48
F9.7873205235777476
sS'maxSteering'
p49
I30
sS'energy'
p50
F0.5
sS'lastScale'
p51
F5.5
sb.(i__main__
Data_mobile
p1
(dp2
S'vel_y'
p3
I0
sS'vel_x'
p4
F0.49278074712021402
sS'pos_x'
p5
I-9579
sS'pos_y'
p6
I9779
sS'isAlive'
p7
I00
sS'cumulativeEnergy'
p8
F0.5
sS'geno'
p9
(i__main__
Node
p10
(dp11
S'vector'
p12
S'+'
sS'depth'
p13
I1
sS'right'
p14
(i__main__
Node
p15
(dp16
g12
S'+'
sg13
I2
sg14
(i__main__
Node
p17
(dp18
g12
S'indiv.target()'
p19
sg13
I3
sg14
NsS'parent'
p20
g15
sS'float_size'
p21
S'indiv.getNumPredatorsNeigh()'
p22
sS'float_bright'
p23
S'indiv.getNumPreysNeigh()'
p24
sS'left'
p25
Nsbsg20
g10
sg21
S'*'
sg23
S'-'
sg25
(i__main__
Node
p26
(dp27
g12
g19
sg13
I3
sg14
Nsg20
g15
sg21
S'indiv.getEnergy()'
p28
sg23
S'indiv.randF()'
p29
sg25
Nsbsbsg20
Nsg21
S'-'
sg23
S'+'
sg25
(i__main__
Node
p30
(dp31
g12
S'+'
sg13
I2
sg14
(i__main__
Node
p32
(dp33
g12
g19
sg13
I3
sg14
Nsg20
g30
sg21
g22
sg23
g24
sg25
Nsbsg20
g10
sg21
S'*'
sg23
S'-'
sg25
(i__main__
Node
p34
(dp35
g12
g19
sg13
I3
sg14
Nsg20
g30
sg21
g28
sg23
g29
sg25
NsbsbsbsS'accel_x'
p36
F0
sS'accel_y'
p37
F0
sS'visionAngle'
p38
I150
sS'maxAccel'
p39
I2
sS'maxVel'
p40
F0.5
sS'age'
p41
I0
sS'tailSize'
p42
F4.92780747120214
sS'sexualgeno'
p43
NsS'tailBrigh'
p44
F4.334186669257436
sS'maxSteering'
p45
I30
sS'energy'
p46
F0.5
sS'lastScale'
p47
F5.5
sb.(i__main__
Data_mobile
p1
(dp2
S'vel_y'
p3
I0
sS'vel_x'
p4
F0.062172137198119426
sS'pos_x'
p5
I-9579
sS'pos_y'
p6
I9779
sS'isAlive'
p7
I00
sS'cumulativeEnergy'
p8
F0.5
sS'geno'
p9
(i__main__
Node
p10
(dp11
S'right'
p12
(i__main__
Node
p13
(dp14
g12
(i__main__
Node
p15
(dp16
g12
NsS'parent'
p17
g13
sS'depth'
p18
I3
sS'vector'
p19
S'indiv.flee()'
p20
sS'float_size'
p21
S'indiv.randF()'
p22
sS'float_bright'
p23
S'indiv.getNumPreysNeigh()'
p24
sS'left'
p25
Nsbsg17
g10
sg18
I2
sg19
S'+'
sg21
S'+'
sg23
S'*'
sg25
(i__main__
Node
p26
(dp27
g12
Nsg17
g13
sg18
I3
sg19
S'indiv.cohesion()'
p28
sg21
S'indiv.getNumPredatorsNeigh()'
p29
sg23
g29
sg25
Nsbsbsg17
Nsg18
I1
sg19
S'*'
sg21
S'-'
sg23
S'*'
sg25
(i__main__
Node
p30
(dp31
g12
(i__main__
Node
p32
(dp33
g12
Nsg17
g30
sg18
I3
sg19
S'indiv.currentEnergy()'
p34
sg21
S'indiv.distanceMatingSeason()'
p35
sg23
S'indiv.getTailSize()'
p36
sg25
Nsbsg17
g10
sg18
I2
sg19
S'/'
sg21
S'*'
sg23
S'/'
sg25
(i__main__
Node
p37
(dp38
g12
Nsg17
g30
sg18
I3
sg19
S'indiv.target()'
p39
sg21
g29
sg23
S'indiv.getTailBrightness()'
p40
sg25
NsbsbsbsS'accel_x'
p41
F0
sS'accel_y'
p42
F0
sS'visionAngle'
p43
I150
sS'maxAccel'
p44
I2
sS'maxVel'
p45
F0.5
sS'age'
p46
I0
sS'tailSize'
p47
F0.62172137198119426
sS'sexualgeno'
p48
NsS'tailBrigh'
p49
F6.7729552373733917
sS'maxSteering'
p50
I30
sS'energy'
p51
F0.5
sS'lastScale'
p52
F5.5
sb.(i__main__
Data_mobile
p1
(dp2
S'vel_y'
p3
I0
sS'vel_x'
p4
F0.73315017300560303
sS'pos_x'
p5
I-9579
sS'pos_y'
p6
I9779
sS'isAlive'
p7
I00
sS'cumulativeEnergy'
p8
F0.5
sS'geno'
p9
(i__main__
Node
p10
(dp11
S'vector'
p12
S'+'
sS'depth'
p13
I1
sS'right'
p14
(i__main__
Node
p15
(dp16
g12
S'+'
sg13
I2
sg14
(i__main__
Node
p17
(dp18
g12
S'indiv.target()'
p19
sg13
I3
sg14
NsS'parent'
p20
g15
sS'float_size'
p21
S'indiv.getNumPredatorsNeigh()'
p22
sS'float_bright'
p23
S'indiv.getNumPreysNeigh()'
p24
sS'left'
p25
Nsbsg20
g10
sg21
S'*'
sg23
S'-'
sg25
(i__main__
Node
p26
(dp27
g12
g19
sg13
I3
sg14
Nsg20
g15
sg21
S'indiv.getEnergy()'
p28
sg23
S'indiv.randF()'
p29
sg25
Nsbsbsg20
Nsg21
S'-'
sg23
S'+'
sg25
(i__main__
Node
p30
(dp31
g12
S'indiv.flee()'
p32
sg13
I2
sg14
Nsg20
g10
sg21
g24
sg23
g24
sg25
NsbsbsS'accel_x'
p33
F0
sS'accel_y'
p34
F0
sS'visionAngle'
p35
I150
sS'maxAccel'
p36
I2
sS'maxVel'
p37
F0.5
sS'age'
p38
I0
sS'tailSize'
p39
F7.3315017300560301
sS'sexualgeno'
p40
NsS'tailBrigh'
p41
F8.2036363210462149
sS'maxSteering'
p42
I30
sS'energy'
p43
F0.5
sS'lastScale'
p44
F5.5
sb.(i__main__
Data_mobile
p1
(dp2
S'vel_y'
p3
I0
sS'vel_x'
p4
F0.81290982789909683
sS'pos_x'
p5
I-9579
sS'pos_y'
p6
I9779
sS'isAlive'
p7
I00
sS'cumulativeEnergy'
p8
F0.5
sS'geno'
p9
(i__main__
Node
p10
(dp11
S'vector'
p12
S'+'
sS'depth'
p13
I1
sS'right'
p14
(i__main__
Node
p15
(dp16
g12
S'-'
sg13
I2
sg14
(i__main__
Node
p17
(dp18
g12
S'indiv.separation()'
p19
sg13
I3
sg14
NsS'parent'
p20
g15
sS'float_size'
p21
S'indiv.distanceMatingSeason()'
p22
sS'float_bright'
p23
S'indiv.randF()'
p24
sS'left'
p25
Nsbsg20
g10
sg21
S'-'
sg23
S'/'
sg25
(i__main__
Node
p26
(dp27
g12
S'indiv.target()'
p28
sg13
I3
sg14
Nsg20
g15
sg21
S'indiv.getEnergy()'
p29
sg23
g29
sg25
Nsbsbsg20
Nsg21
S'-'
sg23
S'+'
sg25
(i__main__
Node
p30
(dp31
g12
S'+'
sg13
I2
sg14
(i__main__
Node
p32
(dp33
g12
g28
sg13
I3
sg14
Nsg20
g30
sg21
S'indiv.getNumPredatorsNeigh()'
p34
sg23
S'indiv.getNumPreysNeigh()'
p35
sg25
Nsbsg20
g10
sg21
S'*'
sg23
S'-'
sg25
(i__main__
Node
p36
(dp37
g12
g28
sg13
I3
sg14
Nsg20
g30
sg21
g29
sg23
g24
sg25
NsbsbsbsS'accel_x'
p38
F0
sS'accel_y'
p39
F0
sS'visionAngle'
p40
I150
sS'maxAccel'
p41
I2
sS'maxVel'
p42
F0.5
sS'age'
p43
I0
sS'tailSize'
p44
F8.129098278990968
sS'sexualgeno'
p45
NsS'tailBrigh'
p46
F9.4240418918571276
sS'maxSteering'
p47
I30
sS'energy'
p48
F0.5
sS'lastScale'
p49
F5.5
sb.(i__main__
Data_mobile
p1
(dp2
S'vel_y'
p3
I0
sS'vel_x'
p4
F0.49557825318474508
sS'pos_x'
p5
I-9579
sS'pos_y'
p6
I9779
sS'isAlive'
p7
I00
sS'cumulativeEnergy'
p8
F0.5
sS'geno'
p9
(i__main__
Node
p10
(dp11
S'vector'
p12
S'+'
sS'depth'
p13
I1
sS'right'
p14
(i__main__
Node
p15
(dp16
g12
S'+'
sg13
I2
sg14
(i__main__
Node
p17
(dp18
g12
S'indiv.target()'
p19
sg13
I3
sg14
NsS'parent'
p20
g15
sS'float_size'
p21
S'indiv.getNumPredatorsNeigh()'
p22
sS'float_bright'
p23
S'indiv.getNumPreysNeigh()'
p24
sS'left'
p25
Nsbsg20
g10
sg21
S'*'
sg23
S'-'
sg25
(i__main__
Node
p26
(dp27
g12
g19
sg13
I3
sg14
Nsg20
g15
sg21
S'indiv.getEnergy()'
p28
sg23
S'indiv.randF()'
p29
sg25
Nsbsbsg20
Nsg21
S'-'
sg23
S'+'
sg25
(i__main__
Node
p30
(dp31
g12
S'+'
sg13
I2
sg14
(i__main__
Node
p32
(dp33
g12
g19
sg13
I3
sg14
Nsg20
g30
sg21
g22
sg23
g24
sg25
Nsbsg20
g10
sg21
S'*'
sg23
S'-'
sg25
(i__main__
Node
p34
(dp35
g12
g19
sg13
I3
sg14
Nsg20
g30
sg21
g28
sg23
g29
sg25
NsbsbsbsS'accel_x'
p36
F0
sS'accel_y'
p37
F0
sS'visionAngle'
p38
I150
sS'maxAccel'
p39
I2
sS'maxVel'
p40
F0.5
sS'age'
p41
I0
sS'tailSize'
p42
F4.9557825318474507
sS'sexualgeno'
p43
NsS'tailBrigh'
p44
F2.8082498876336413
sS'maxSteering'
p45
I30
sS'energy'
p46
F0.5
sS'lastScale'
p47
F5.5
sb.(i__main__
Data_mobile
p1
(dp2
S'vel_y'
p3
I0
sS'vel_x'
p4
F0.082627884316969991
sS'pos_x'
p5
I-9579
sS'pos_y'
p6
I9779
sS'isAlive'
p7
I00
sS'cumulativeEnergy'
p8
F0.5
sS'geno'
p9
(i__main__
Node
p10
(dp11
S'vector'
p12
S'+'
sS'depth'
p13
I1
sS'right'
p14
(i__main__
Node
p15
(dp16
g12
S'indiv.currentVelocity()'
p17
sg13
I2
sg14
NsS'parent'
p18
g10
sS'float_size'
p19
S'indiv.getEnergy()'
p20
sS'float_bright'
p21
S'indiv.getNumPredatorsNeigh()'
p22
sS'left'
p23
Nsbsg18
Nsg19
S'-'
sg21
S'+'
sg23
(i__main__
Node
p24
(dp25
g14
(i__main__
Node
p26
(dp27
g14
(i__main__
Node
p28
(dp29
g14
Nsg18
g26
sg13
I4
sg12
S'indiv.alignment()'
p30
sg19
S'indiv.getTailSize()'
p31
sg21
S'indiv.getNumPreysNeigh()'
p32
sg23
Nsbsg18
g24
sg13
I3
sg12
S'*'
sg19
S'*'
sg21
S'+'
sg23
(i__main__
Node
p33
(dp34
g14
Nsg18
g26
sg13
I4
sg12
S'indiv.cohesion()'
p35
sg19
S'indiv.randF()'
p36
sg21
g32
sg23
Nsbsbsg18
g10
sg13
I2
sg12
S'/'
sg19
S'/'
sg21
S'+'
sg23
(i__main__
Node
p37
(dp38
g14
(i__main__
Node
p39
(dp40
g14
Nsg18
g37
sg13
I4
sg12
S'indiv.separation()'
p41
sg19
g31
sg21
S'indiv.getTailBrightness()'
p42
sg23
Nsbsg18
g24
sg13
I3
sg12
S'-'
sg19
S'-'
sg21
S'+'
sg23
(i__main__
Node
p43
(dp44
g14
Nsg18
g37
sg13
I4
sg12
S'indiv.randV()'
p45
sg19
g42
sg21
g22
sg23
NsbsbsbsbsS'accel_x'
p46
F0
sS'accel_y'
p47
F0
sS'visionAngle'
p48
I150
sS'maxAccel'
p49
I2
sS'maxVel'
p50
F0.5
sS'age'
p51
I0
sS'tailSize'
p52
F0.82627884316969991
sS'sexualgeno'
p53
NsS'tailBrigh'
p54
F5.8543789619227971
sS'maxSteering'
p55
I30
sS'energy'
p56
F0.5
sS'lastScale'
p57
F5.5
sb.(i__main__
Data_mobile
p1
(dp2
S'vel_y'
p3
I0
sS'vel_x'
p4
F0.91499157420018595
sS'pos_x'
p5
I-9579
sS'pos_y'
p6
I9779
sS'isAlive'
p7
I00
sS'cumulativeEnergy'
p8
F0.5
sS'geno'
p9
(i__main__
Node
p10
(dp11
S'vector'
p12
S'+'
sS'depth'
p13
I1
sS'right'
p14
(i__main__
Node
p15
(dp16
g12
S'indiv.currentVelocity()'
p17
sg13
I2
sg14
NsS'parent'
p18
g10
sS'float_size'
p19
S'indiv.getEnergy()'
p20
sS'float_bright'
p21
S'indiv.getNumPredatorsNeigh()'
p22
sS'left'
p23
Nsbsg18
Nsg19
S'-'
sg21
S'+'
sg23
(i__main__
Node
p24
(dp25
g12
S'-'
sg13
I2
sg14
(i__main__
Node
p26
(dp27
g12
S'indiv.separation()'
p28
sg13
I3
sg14
Nsg18
g24
sg19
S'indiv.distanceMatingSeason()'
p29
sg21
S'indiv.randF()'
p30
sg23
Nsbsg18
g10
sg19
S'-'
sg21
S'/'
sg23
(i__main__
Node
p31
(dp32
g12
S'indiv.target()'
p33
sg13
I3
sg14
Nsg18
g24
sg19
g20
sg21
g20
sg23
NsbsbsbsS'accel_x'
p34
F0
sS'accel_y'
p35
F0
sS'visionAngle'
p36
I150
sS'maxAccel'
p37
I2
sS'maxVel'
p38
F0.5
sS'age'
p39
I0
sS'tailSize'
p40
F9.1499157420018591
sS'sexualgeno'
p41
NsS'tailBrigh'
p42
F4.6099712398817285
sS'maxSteering'
p43
I30
sS'energy'
p44
F0.5
sS'lastScale'
p45
F5.5
sb.(i__main__
Data_mobile
p1
(dp2
S'vel_y'
p3
I0
sS'vel_x'
p4
F0.5851559564552814
sS'pos_x'
p5
I-9579
sS'pos_y'
p6
I9779
sS'isAlive'
p7
I00
sS'cumulativeEnergy'
p8
F0.5
sS'geno'
p9
(i__main__
Node
p10
(dp11
S'vector'
p12
S'+'
sS'depth'
p13
I1
sS'right'
p14
(i__main__
Node
p15
(dp16
g12
S'+'
sg13
I2
sg14
(i__main__
Node
p17
(dp18
g12
S'indiv.target()'
p19
sg13
I3
sg14
NsS'parent'
p20
g15
sS'float_size'
p21
S'indiv.getNumPredatorsNeigh()'
p22
sS'float_bright'
p23
S'indiv.getNumPreysNeigh()'
p24
sS'left'
p25
Nsbsg20
g10
sg21
S'*'
sg23
S'-'
sg25
(i__main__
Node
p26
(dp27
g12
g19
sg13
I3
sg14
Nsg20
g15
sg21
S'indiv.getEnergy()'
p28
sg23
S'indiv.randF()'
p29
sg25
Nsbsbsg20
Nsg21
S'-'
sg23
S'+'
sg25
(i__main__
Node
p30
(dp31
g12
S'indiv.flee()'
p32
sg13
I2
sg14
Nsg20
g10
sg21
g24
sg23
g24
sg25
NsbsbsS'accel_x'
p33
F0
sS'accel_y'
p34
F0
sS'visionAngle'
p35
I150
sS'maxAccel'
p36
I2
sS'maxVel'
p37
F0.5
sS'age'
p38
I0
sS'tailSize'
p39
F5.8515595645528142
sS'sexualgeno'
p40
NsS'tailBrigh'
p41
F9.100750135830932
sS'maxSteering'
p42
I30
sS'energy'
p43
F0.5
sS'lastScale'
p44
F5.5
sb.(i__main__
Data_mobile
p1
(dp2
S'vel_y'
p3
I0
sS'vel_x'
p4
F0.80192212999125467
sS'pos_x'
p5
I-9579
sS'pos_y'
p6
I9779
sS'isAlive'
p7
I00
sS'cumulativeEnergy'
p8
F0.5
sS'geno'
p9
(i__main__
Node
p10
(dp11
S'vector'
p12
S'+'
sS'depth'
p13
I1
sS'right'
p14
(i__main__
Node
p15
(dp16
g12
S'+'
sg13
I2
sg14
(i__main__
Node
p17
(dp18
g12
S'indiv.target()'
p19
sg13
I3
sg14
NsS'parent'
p20
g15
sS'float_size'
p21
S'indiv.getNumPredatorsNeigh()'
p22
sS'float_bright'
p23
S'indiv.getNumPreysNeigh()'
p24
sS'left'
p25
Nsbsg20
g10
sg21
S'*'
sg23
S'-'
sg25
(i__main__
Node
p26
(dp27
g12
g19
sg13
I3
sg14
Nsg20
g15
sg21
S'indiv.getEnergy()'
p28
sg23
S'indiv.randF()'
p29
sg25
Nsbsbsg20
Nsg21
S'/'
sg23
S'/'
sg25
(i__main__
Node
p30
(dp31
g12
S'indiv.currentEnergy()'
p32
sg13
I2
sg14
Nsg20
g10
sg21
g28
sg23
S'indiv.getTailBrightness()'
p33
sg25
NsbsbsS'accel_x'
p34
F0
sS'accel_y'
p35
F0
sS'visionAngle'
p36
I150
sS'maxAccel'
p37
I2
sS'maxVel'
p38
F0.5
sS'age'
p39
I0
sS'tailSize'
p40
F8.0192212999125463
sS'sexualgeno'
p41
NsS'tailBrigh'
p42
F2.6928105564567684
sS'maxSteering'
p43
I30
sS'energy'
p44
F0.5
sS'lastScale'
p45
F5.5
sb.(i__main__
Data_mobile
p1
(dp2
S'vel_y'
p3
I0
sS'vel_x'
p4
F0.92036447335411753
sS'pos_x'
p5
I-9579
sS'pos_y'
p6
I9779
sS'isAlive'
p7
I00
sS'cumulativeEnergy'
p8
F0.5
sS'geno'
p9
(i__main__
Node
p10
(dp11
S'vector'
p12
S'+'
sS'depth'
p13
I1
sS'right'
p14
(i__main__
Node
p15
(dp16
g12
S'indiv.currentVelocity()'
p17
sg13
I2
sg14
NsS'parent'
p18
g10
sS'float_size'
p19
S'indiv.getEnergy()'
p20
sS'float_bright'
p21
S'indiv.getNumPredatorsNeigh()'
p22
sS'left'
p23
Nsbsg18
Nsg19
S'-'
sg21
S'+'
sg23
(i__main__
Node
p24
(dp25
g12
S'-'
sg13
I2
sg14
(i__main__
Node
p26
(dp27
g12
S'indiv.separation()'
p28
sg13
I3
sg14
Nsg18
g24
sg19
S'indiv.distanceMatingSeason()'
p29
sg21
S'indiv.randF()'
p30
sg23
Nsbsg18
g10
sg19
S'-'
sg21
S'/'
sg23
(i__main__
Node
p31
(dp32
g12
S'indiv.target()'
p33
sg13
I3
sg14
Nsg18
g24
sg19
g20
sg21
g20
sg23
NsbsbsbsS'accel_x'
p34
F0
sS'accel_y'
p35
F0
sS'visionAngle'
p36
I150
sS'maxAccel'
p37
I2
sS'maxVel'
p38
F0.5
sS'age'
p39
I0
sS'tailSize'
p40
F9.2036447335411751
sS'sexualgeno'
p41
NsS'tailBrigh'
p42
F1.2449970770671437
sS'maxSteering'
p43
I30
sS'energy'
p44
F0.5
sS'lastScale'
p45
F5.5
sb.(i__main__
Data_mobile
p1
(dp2
S'vel_y'
p3
I0
sS'vel_x'
p4
F0.22529754746932715
sS'pos_x'
p5
I-9579
sS'pos_y'
p6
I9779
sS'isAlive'
p7
I00
sS'cumulativeEnergy'
p8
F0.5
sS'geno'
p9
(i__main__
Node
p10
(dp11
S'vector'
p12
S'+'
sS'depth'
p13
I1
sS'right'
p14
(i__main__
Node
p15
(dp16
g12
S'+'
sg13
I2
sg14
(i__main__
Node
p17
(dp18
g12
S'indiv.target()'
p19
sg13
I3
sg14
NsS'parent'
p20
g15
sS'float_size'
p21
S'indiv.getNumPredatorsNeigh()'
p22
sS'float_bright'
p23
S'indiv.getNumPreysNeigh()'
p24
sS'left'
p25
Nsbsg20
g10
sg21
S'*'
sg23
S'-'
sg25
(i__main__
Node
p26
(dp27
g12
g19
sg13
I3
sg14
Nsg20
g15
sg21
S'indiv.getEnergy()'
p28
sg23
S'indiv.randF()'
p29
sg25
Nsbsbsg20
Nsg21
S'-'
sg23
S'+'
sg25
(i__main__
Node
p30
(dp31
g12
S'-'
sg13
I2
sg14
(i__main__
Node
p32
(dp33
g12
S'indiv.separation()'
p34
sg13
I3
sg14
Nsg20
g30
sg21
S'indiv.distanceMatingSeason()'
p35
sg23
g29
sg25
Nsbsg20
g10
sg21
S'-'
sg23
S'/'
sg25
(i__main__
Node
p36
(dp37
g12
g19
sg13
I3
sg14
Nsg20
g30
sg21
g28
sg23
g28
sg25
NsbsbsbsS'accel_x'
p38
F0
sS'accel_y'
p39
F0
sS'visionAngle'
p40
I150
sS'maxAccel'
p41
I2
sS'maxVel'
p42
F0.5
sS'age'
p43
I0
sS'tailSize'
p44
F2.2529754746932715
sS'sexualgeno'
p45
NsS'tailBrigh'
p46
F3.5509878264388428
sS'maxSteering'
p47
I30
sS'energy'
p48
F0.5
sS'lastScale'
p49
F5.5
sb.(i__main__
Data_mobile
p1
(dp2
S'vel_y'
p3
I0
sS'vel_x'
p4
F0.15424766363015574
sS'pos_x'
p5
I-9579
sS'pos_y'
p6
I9779
sS'isAlive'
p7
I00
sS'cumulativeEnergy'
p8
F0.5
sS'geno'
p9
(i__main__
Node
p10
(dp11
S'vector'
p12
S'+'
sS'depth'
p13
I1
sS'right'
p14
(i__main__
Node
p15
(dp16
g12
S'indiv.currentVelocity()'
p17
sg13
I2
sg14
NsS'parent'
p18
g10
sS'float_size'
p19
S'indiv.getEnergy()'
p20
sS'float_bright'
p21
S'indiv.getNumPredatorsNeigh()'
p22
sS'left'
p23
Nsbsg18
Nsg19
S'-'
sg21
S'+'
sg23
(i__main__
Node
p24
(dp25
g12
S'+'
sg13
I2
sg14
(i__main__
Node
p26
(dp27
g12
S'indiv.target()'
p28
sg13
I3
sg14
Nsg18
g24
sg19
g22
sg21
S'indiv.getNumPreysNeigh()'
p29
sg23
Nsbsg18
g10
sg19
S'*'
sg21
S'-'
sg23
(i__main__
Node
p30
(dp31
g12
g28
sg13
I3
sg14
Nsg18
g24
sg19
g20
sg21
S'indiv.randF()'
p32
sg23
NsbsbsbsS'accel_x'
p33
F0
sS'accel_y'
p34
F0
sS'visionAngle'
p35
I150
sS'maxAccel'
p36
I2
sS'maxVel'
p37
F0.5
sS'age'
p38
I0
sS'tailSize'
p39
F1.5424766363015574
sS'sexualgeno'
p40
NsS'tailBrigh'
p41
F2.8242613945329973
sS'maxSteering'
p42
I30
sS'energy'
p43
F0.5
sS'lastScale'
p44
F5.5
sb.(i__main__
Data_mobile
p1
(dp2
S'vel_y'
p3
I0
sS'vel_x'
p4
F0.30443334967937752
sS'pos_x'
p5
I-9579
sS'pos_y'
p6
I9779
sS'isAlive'
p7
I00
sS'cumulativeEnergy'
p8
F0.5
sS'geno'
p9
(i__main__
Node
p10
(dp11
S'vector'
p12
S'+'
sS'depth'
p13
I1
sS'right'
p14
(i__main__
Node
p15
(dp16
g12
S'+'
sg13
I2
sg14
(i__main__
Node
p17
(dp18
g12
S'+'
sg13
I3
sg14
(i__main__
Node
p19
(dp20
g12
S'-'
sg13
I4
sg14
(i__main__
Node
p21
(dp22
g12
S'indiv.separation()'
p23
sg13
I5
sg14
NsS'parent'
p24
g19
sS'float_size'
p25
S'indiv.distanceMatingSeason()'
p26
sS'float_bright'
p27
S'indiv.randF()'
p28
sS'left'
p29
Nsbsg24
g17
sg25
S'-'
sg27
S'/'
sg29
(i__main__
Node
p30
(dp31
g12
S'indiv.target()'
p32
sg13
I5
sg14
Nsg24
g19
sg25
S'indiv.getEnergy()'
p33
sg27
g33
sg29
Nsbsbsg24
g15
sg25
S'-'
sg27
S'/'
sg29
(i__main__
Node
p34
(dp35
g12
S'-'
sg13
I4
sg14
(i__main__
Node
p36
(dp37
g12
g23
sg13
I5
sg14
Nsg24
g34
sg25
g26
sg27
g28
sg29
Nsbsg24
g17
sg25
S'-'
sg27
S'/'
sg29
(i__main__
Node
p38
(dp39
g12
g32
sg13
I5
sg14
Nsg24
g34
sg25
g33
sg27
g33
sg29
Nsbsbsbsg24
g10
sg25
S'-'
sg27
S'/'
sg29
(i__main__
Node
p40
(dp41
g12
S'-'
sg13
I3
sg14
(i__main__
Node
p42
(dp43
g12
g23
sg13
I4
sg14
Nsg24
g40
sg25
g26
sg27
g28
sg29
Nsbsg24
g15
sg25
S'-'
sg27
S'/'
sg29
(i__main__
Node
p44
(dp45
g12
g32
sg13
I4
sg14
Nsg24
g40
sg25
g33
sg27
g33
sg29
Nsbsbsbsg24
Nsg25
S'/'
sg27
S'/'
sg29
(i__main__
Node
p46
(dp47
g12
S'indiv.currentEnergy()'
p48
sg13
I2
sg14
Nsg24
g10
sg25
g33
sg27
S'indiv.getTailBrightness()'
p49
sg29
NsbsbsS'accel_x'
p50
F0
sS'accel_y'
p51
F0
sS'visionAngle'
p52
I150
sS'maxAccel'
p53
I2
sS'maxVel'
p54
F0.5
sS'age'
p55
I0
sS'tailSize'
p56
F3.044333496793775
sS'sexualgeno'
p57
NsS'tailBrigh'
p58
F3.6018258424606331
sS'maxSteering'
p59
I30
sS'energy'
p60
F0.5
sS'lastScale'
p61
F5.5
sb.(i__main__
Data_mobile
p1
(dp2
S'vel_y'
p3
I0
sS'vel_x'
p4
F0.5423096834948079
sS'pos_x'
p5
I-9579
sS'pos_y'
p6
I9779
sS'isAlive'
p7
I00
sS'cumulativeEnergy'
p8
F0.5
sS'geno'
p9
(i__main__
Node
p10
(dp11
S'vector'
p12
S'+'
sS'depth'
p13
I1
sS'right'
p14
(i__main__
Node
p15
(dp16
g12
S'indiv.currentVelocity()'
p17
sg13
I2
sg14
NsS'parent'
p18
g10
sS'float_size'
p19
S'indiv.getEnergy()'
p20
sS'float_bright'
p21
S'indiv.getNumPredatorsNeigh()'
p22
sS'left'
p23
Nsbsg18
Nsg19
S'-'
sg21
S'+'
sg23
(i__main__
Node
p24
(dp25
g12
S'+'
sg13
I2
sg14
(i__main__
Node
p26
(dp27
g12
S'indiv.target()'
p28
sg13
I3
sg14
Nsg18
g24
sg19
g22
sg21
S'indiv.getNumPreysNeigh()'
p29
sg23
Nsbsg18
g10
sg19
S'*'
sg21
S'-'
sg23
(i__main__
Node
p30
(dp31
g12
g28
sg13
I3
sg14
Nsg18
g24
sg19
g20
sg21
S'indiv.randF()'
p32
sg23
NsbsbsbsS'accel_x'
p33
F0
sS'accel_y'
p34
F0
sS'visionAngle'
p35
I150
sS'maxAccel'
p36
I2
sS'maxVel'
p37
F0.5
sS'age'
p38
I0
sS'tailSize'
p39
F5.4230968349480788
sS'sexualgeno'
p40
NsS'tailBrigh'
p41
F6.7961521752580829
sS'maxSteering'
p42
I30
sS'energy'
p43
F0.5
sS'lastScale'
p44
F5.5
sb.(i__main__
Data_mobile
p1
(dp2
S'vel_y'
p3
I0
sS'vel_x'
p4
F0.53029097401450598
sS'pos_x'
p5
I-9579
sS'pos_y'
p6
I9779
sS'isAlive'
p7
I00
sS'cumulativeEnergy'
p8
F0.5
sS'geno'
p9
(i__main__
Node
p10
(dp11
S'vector'
p12
S'+'
sS'depth'
p13
I1
sS'right'
p14
(i__main__
Node
p15
(dp16
g12
S'indiv.currentVelocity()'
p17
sg13
I2
sg14
NsS'parent'
p18
g10
sS'float_size'
p19
S'indiv.getEnergy()'
p20
sS'float_bright'
p21
S'indiv.getNumPredatorsNeigh()'
p22
sS'left'
p23
Nsbsg18
Nsg19
S'-'
sg21
S'+'
sg23
(i__main__
Node
p24
(dp25
g12
S'-'
sg13
I2
sg14
(i__main__
Node
p26
(dp27
g12
S'indiv.separation()'
p28
sg13
I3
sg14
Nsg18
g24
sg19
S'indiv.distanceMatingSeason()'
p29
sg21
S'indiv.randF()'
p30
sg23
Nsbsg18
g10
sg19
S'-'
sg21
S'/'
sg23
(i__main__
Node
p31
(dp32
g12
S'indiv.target()'
p33
sg13
I3
sg14
Nsg18
g24
sg19
g20
sg21
g20
sg23
NsbsbsbsS'accel_x'
p34
F0
sS'accel_y'
p35
F0
sS'visionAngle'
p36
I150
sS'maxAccel'
p37
I2
sS'maxVel'
p38
F0.5
sS'age'
p39
I0
sS'tailSize'
p40
F5.3029097401450596
sS'sexualgeno'
p41
NsS'tailBrigh'
p42
F1.3747809209969397
sS'maxSteering'
p43
I30
sS'energy'
p44
F0.5
sS'lastScale'
p45
F5.5
sb.(i__main__
Data_mobile
p1
(dp2
S'vel_y'
p3
I0
sS'vel_x'
p4
F0.77975038473578795
sS'pos_x'
p5
I-9579
sS'pos_y'
p6
I9779
sS'isAlive'
p7
I00
sS'cumulativeEnergy'
p8
F0.5
sS'geno'
p9
(i__main__
Node
p10
(dp11
S'vector'
p12
S'+'
sS'depth'
p13
I1
sS'right'
p14
(i__main__
Node
p15
(dp16
g12
S'-'
sg13
I2
sg14
(i__main__
Node
p17
(dp18
g12
S'indiv.separation()'
p19
sg13
I3
sg14
NsS'parent'
p20
g15
sS'float_size'
p21
S'indiv.distanceMatingSeason()'
p22
sS'float_bright'
p23
S'indiv.randF()'
p24
sS'left'
p25
Nsbsg20
g10
sg21
S'-'
sg23
S'/'
sg25
(i__main__
Node
p26
(dp27
g12
S'indiv.target()'
p28
sg13
I3
sg14
Nsg20
g15
sg21
S'indiv.getEnergy()'
p29
sg23
g29
sg25
Nsbsbsg20
Nsg21
S'-'
sg23
S'+'
sg25
(i__main__
Node
p30
(dp31
g12
S'indiv.flee()'
p32
sg13
I2
sg14
Nsg20
g10
sg21
S'indiv.getNumPreysNeigh()'
p33
sg23
g33
sg25
NsbsbsS'accel_x'
p34
F0
sS'accel_y'
p35
F0
sS'visionAngle'
p36
I150
sS'maxAccel'
p37
I2
sS'maxVel'
p38
F0.5
sS'age'
p39
I0
sS'tailSize'
p40
F7.7975038473578797
sS'sexualgeno'
p41
NsS'tailBrigh'
p42
F6.3900180584836397
sS'maxSteering'
p43
I30
sS'energy'
p44
F0.5
sS'lastScale'
p45
F5.5
sb.(i__main__
Data_mobile
p1
(dp2
S'vel_y'
p3
I0
sS'vel_x'
p4
F0.8495286110754614
sS'pos_x'
p5
I-9579
sS'pos_y'
p6
I9779
sS'isAlive'
p7
I00
sS'cumulativeEnergy'
p8
F0.5
sS'geno'
p9
(i__main__
Node
p10
(dp11
S'vector'
p12
S'+'
sS'depth'
p13
I1
sS'right'
p14
(i__main__
Node
p15
(dp16
g12
S'-'
sg13
I2
sg14
(i__main__
Node
p17
(dp18
g12
S'indiv.randV()'
p19
sg13
I3
sg14
NsS'parent'
p20
g15
sS'float_size'
p21
S'indiv.getNumPredatorsNeigh()'
p22
sS'float_bright'
p23
S'indiv.distanceMatingSeason()'
p24
sS'left'
p25
Nsbsg20
g10
sg21
S'+'
sg23
S'*'
sg25
(i__main__
Node
p26
(dp27
g12
S'indiv.currentEnergy()'
p28
sg13
I3
sg14
Nsg20
g15
sg21
S'indiv.randF()'
p29
sg23
g24
sg25
Nsbsbsg20
Nsg21
S'+'
sg23
S'*'
sg25
(i__main__
Node
p30
(dp31
g12
S'-'
sg13
I2
sg14
(i__main__
Node
p32
(dp33
g12
S'indiv.separation()'
p34
sg13
I3
sg14
Nsg20
g30
sg21
g24
sg23
g29
sg25
Nsbsg20
g10
sg21
S'-'
sg23
S'/'
sg25
(i__main__
Node
p35
(dp36
g12
S'indiv.target()'
p37
sg13
I3
sg14
Nsg20
g30
sg21
S'indiv.getEnergy()'
p38
sg23
g38
sg25
NsbsbsbsS'accel_x'
p39
F0
sS'accel_y'
p40
F0
sS'visionAngle'
p41
I150
sS'maxAccel'
p42
I2
sS'maxVel'
p43
F0.5
sS'age'
p44
I0
sS'tailSize'
p45
F8.4952861107546145
sS'sexualgeno'
p46
NsS'tailBrigh'
p47
F6.52999743320043
sS'maxSteering'
p48
I30
sS'energy'
p49
F0.5
sS'lastScale'
p50
F5.5
sb.