(i__main__
Data_mobile
p1
(dp2
S'vel_y'
p3
F-0.17185609847890268
sS'vel_x'
p4
F-0.46953751864532584
sS'pos_x'
p5
F-90.854544952507524
sS'pos_y'
p6
F96.035052762749672
sS'isAlive'
p7
I01
sS'geno'
p8
(lp9
(lp10
S'POINT.*'
p11
aaS'POINT./'
p12
a(lp13
(lp14
S'currentVelocity'
p15
aa(lp16
(lp17
S'target'
p18
aaaS'POINT.+'
p19
a(lp20
(lp21
S'POINT.*'
p22
aaS'POINT.*'
p23
a(lp24
S'target'
p25
aaS'mostEnergizedNeighbor'
p26
aaS'POINT./'
p27
aS'POINT.*'
p28
aa(lp29
S'POINT./'
p30
aS'POINT.*'
p31
aS'POINT./'
p32
a(lp33
S'currentVelocity'
p34
aS'POINT./'
p35
aS'target'
p36
a(lp37
(lp38
S'POINT./'
p39
aaS'mostEnergizedNeighbor'
p40
aS'POINT.*'
p41
aS'mostEnergizedNeighbor'
p42
aaS'target'
p43
a(lp44
S'POINT.*'
p45
aaaa(lp46
S'POINT.*'
p47
aa(lp48
S'POINT./'
p49
aasS'accel_x'
p50
F-0.15208377588707833
sS'accel_y'
p51
F0.5937133358043809
sS'maxAccel'
p52
I2
sS'maxVel'
p53
F0.5
sS'age'
p54
I250
sS'gener'
p55
S'm'
sS'lastScale'
p56
F15.300000405049802
sS'energy'
p57
F0.98000004050498013
sb.(i__main__
Data_mobile
p1
(dp2
S'vel_y'
p3
F-0.41131398376670092
sS'vel_x'
p4
F0.28429000467474425
sS'pos_x'
p5
F-33.933180457158521
sS'pos_y'
p6
F69.027662843484336
sS'isAlive'
p7
I01
sS'geno'
p8
(lp9
S'POINT./'
p10
aS'POINT./'
p11
a(lp12
(lp13
S'randV'
p14
aaS'separation'
p15
aS'POINT.+'
p16
a(lp17
(lp18
(lp19
(lp20
S'mostEnergizedNeighbor'
p21
aaS'POINT.+'
p22
aS'target'
p23
a(lp24
S'currentVelocity'
p25
aS'POINT.*'
p26
aS'target'
p27
aS'POINT.*'
p28
aaS'POINT.*'
p29
aS'POINT.+'
p30
aaaS'POINT.*'
p31
aS'POINT.*'
p32
aS'target'
p33
aaS'POINT./'
p34
aS'currentVelocity'
p35
aa(lp36
(lp37
S'POINT./'
p38
aa(lp39
(lp40
S'target'
p41
aS'POINT.*'
p42
aS'POINT./'
p43
aS'POINT.*'
p44
aaaS'currentVelocity'
p45
aS'POINT.+'
p46
aaS'target'
p47
aS'POINT./'
p48
asS'accel_x'
p49
F0.22456149848587614
sS'accel_y'
p50
F-0.32489787926363078
sS'maxAccel'
p51
I2
sS'maxVel'
p52
F0.5
sS'age'
p53
I250
sS'gener'
p54
S'm'
sS'lastScale'
p55
F15.300000405049802
sS'energy'
p56
F0.98000004050498013
sb.(i__main__
Data_mobile
p1
(dp2
S'vel_y'
p3
F0.36276816097535397
sS'vel_x'
p4
F-0.34409193739836402
sS'pos_x'
p5
F-149.06652956912421
sS'pos_y'
p6
F-96.841297690173491
sS'isAlive'
p7
I01
sS'geno'
p8
(lp9
S'POINT./'
p10
aS'POINT./'
p11
aS'target'
p12
a(lp13
(lp14
S'POINT./'
p15
aa(lp16
(lp17
S'target'
p18
aS'POINT.*'
p19
aS'POINT./'
p20
aS'POINT.*'
p21
aaaS'currentVelocity'
p22
aS'POINT.+'
p23
aaS'target'
p24
aS'POINT./'
p25
asS'accel_x'
p26
F-0.094930766949289591
sS'accel_y'
p27
F-0.1090265872145153
sS'maxAccel'
p28
I2
sS'maxVel'
p29
F0.5
sS'age'
p30
I200
sS'gener'
p31
S'm'
sS'lastScale'
p32
F15.30002611903191
sS'energy'
p33
F0.98000261190319093
sb.(i__main__
Data_mobile
p1
(dp2
S'vel_y'
p3
F-0.48162327609766548
sS'vel_x'
p4
F0.13430941858615852
sS'pos_x'
p5
F-91.871809112526492
sS'pos_y'
p6
F96.194788748438356
sS'isAlive'
p7
I01
sS'geno'
p8
(lp9
S'POINT.*'
p10
a(lp11
(lp12
S'mostEnergizedNeighbor'
p13
aaS'POINT.+'
p14
aS'POINT.+'
p15
a(lp16
S'target'
p17
aaS'POINT.*'
p18
aS'POINT.+'
p19
aaS'POINT.+'
p20
a(lp21
S'POINT.*'
p22
aS'target'
p23
aS'POINT.*'
p24
aa(lp25
S'target'
p26
aa(lp27
(lp28
S'POINT./'
p29
aa(lp30
(lp31
S'target'
p32
aS'POINT.*'
p33
aS'POINT./'
p34
aS'POINT.*'
p35
aaaS'currentVelocity'
p36
aS'POINT.+'
p37
aasS'accel_x'
p38
F0.99948980271804799
sS'accel_y'
p39
F-0.04764592598196854
sS'maxAccel'
p40
I2
sS'maxVel'
p41
F0.5
sS'age'
p42
I200
sS'gener'
p43
S'm'
sS'lastScale'
p44
F15.30002611903191
sS'energy'
p45
F0.98000261190319093
sb.(i__main__
Data_mobile
p1
(dp2
S'vel_y'
p3
F-0.19990222797204327
sS'vel_x'
p4
F-0.45830022829125155
sS'pos_x'
p5
F-166.12919905437334
sS'pos_y'
p6
F40.630670876000991
sS'isAlive'
p7
I01
sS'geno'
p8
(lp9
S'POINT./'
p10
aS'POINT./'
p11
a(lp12
(lp13
S'currentVelocity'
p14
aaS'separation'
p15
aS'POINT.+'
p16
a(lp17
(lp18
(lp19
(lp20
S'mostEnergizedNeighbor'
p21
aaS'POINT.+'
p22
aS'target'
p23
a(lp24
S'currentVelocity'
p25
aS'POINT.*'
p26
aS'target'
p27
aS'POINT.*'
p28
aaS'POINT.*'
p29
aS'POINT.+'
p30
aaaS'POINT.*'
p31
aS'POINT.*'
p32
aS'target'
p33
aaS'POINT./'
p34
aS'target'
p35
aa(lp36
(lp37
S'POINT./'
p38
aa(lp39
(lp40
S'target'
p41
aS'POINT.*'
p42
aS'POINT./'
p43
aS'POINT.*'
p44
aaaS'currentVelocity'
p45
aS'POINT.+'
p46
aaS'POINT./'
p47
aS'POINT./'
p48
asS'accel_x'
p49
F-0.66795454765244378
sS'accel_y'
p50
F0.74504142319087263
sS'maxAccel'
p51
I2
sS'maxVel'
p52
F0.5
sS'age'
p53
I200
sS'gener'
p54
S'm'
sS'lastScale'
p55
F15.30002611903191
sS'energy'
p56
F0.98000261190319093
sb.(i__main__
Data_mobile
p1
(dp2
S'vel_y'
p3
F0.029078731778554034
sS'vel_x'
p4
F0.30880804507946913
sS'pos_x'
p5
F-90.415634302619651
sS'pos_y'
p6
F96.701367535632457
sS'isAlive'
p7
I01
sS'geno'
p8
(lp9
S'POINT./'
p10
aS'POINT./'
p11
a(lp12
(lp13
S'currentVelocity'
p14
aaS'separation'
p15
aS'POINT.+'
p16
aS'POINT.+'
p17
aS'POINT./'
p18
aS'target'
p19
aa(lp20
(lp21
S'POINT./'
p22
aa(lp23
(lp24
S'target'
p25
aS'POINT.*'
p26
aS'POINT./'
p27
aS'POINT.*'
p28
aaaS'currentVelocity'
p29
aS'POINT.+'
p30
aaS'target'
p31
aS'POINT./'
p32
asS'accel_x'
p33
F-0.59099442577495154
sS'accel_y'
p34
F-0.072601437078404274
sS'maxAccel'
p35
I2
sS'maxVel'
p36
F0.5
sS'age'
p37
I200
sS'gener'
p38
S'm'
sS'lastScale'
p39
F15.30002611903191
sS'energy'
p40
F0.98000261190319093
sb.(i__main__
Data_mobile
p1
(dp2
S'vel_y'
p3
F0.31060207379667021
sS'vel_x'
p4
F-0.39182438892086319
sS'pos_x'
p5
F-115.17527991097944
sS'pos_y'
p6
F-100.5578265598206
sS'isAlive'
p7
I01
sS'geno'
p8
(lp9
S'POINT./'
p10
aS'POINT./'
p11
a(lp12
(lp13
S'currentVelocity'
p14
aaS'separation'
p15
aS'POINT.+'
p16
a(lp17
(lp18
(lp19
(lp20
S'mostEnergizedNeighbor'
p21
aaS'POINT.+'
p22
aS'target'
p23
a(lp24
S'currentVelocity'
p25
aS'POINT.*'
p26
a(lp27
(lp28
S'target'
p29
aaaS'POINT.*'
p30
aaS'POINT.*'
p31
aS'POINT.+'
p32
aaaS'POINT.*'
p33
aS'POINT.*'
p34
aS'target'
p35
aaS'POINT./'
p36
aS'target'
p37
aa(lp38
(lp39
S'POINT./'
p40
aa(lp41
(lp42
S'target'
p43
aS'POINT.*'
p44
aS'POINT./'
p45
aS'POINT.*'
p46
aaaS'currentVelocity'
p47
aS'POINT.+'
p48
aaS'target'
p49
aS'POINT./'
p50
asS'accel_x'
p51
F0.34375611704129844
sS'accel_y'
p52
F0.93972428509465256
sS'maxAccel'
p53
I2
sS'maxVel'
p54
F0.5
sS'age'
p55
I200
sS'gener'
p56
S'm'
sS'lastScale'
p57
F15.30002611903191
sS'energy'
p58
F0.98000261190319093
sb.(i__main__
Data_mobile
p1
(dp2
S'vel_y'
p3
F-0.42124934638521799
sS'vel_x'
p4
F0.18850494057845071
sS'pos_x'
p5
F-33.921692234486542
sS'pos_y'
p6
F69.178917038240826
sS'isAlive'
p7
I01
sS'geno'
p8
(lp9
S'POINT.*'
p10
a(lp11
(lp12
S'mostEnergizedNeighbor'
p13
aaS'POINT.+'
p14
aS'POINT.+'
p15
a(lp16
S'currentVelocity'
p17
a(lp18
S'POINT.*'
p19
aS'target'
p20
aS'POINT.-'
p21
aaS'POINT./'
p22
aS'POINT.*'
p23
aaS'POINT.*'
p24
aS'POINT.+'
p25
aaS'POINT.+'
p26
a(lp27
S'POINT.*'
p28
aS'target'
p29
aS'target'
p30
aa(lp31
S'target'
p32
aa(lp33
S'target'
p34
aasS'accel_x'
p35
F0.21307327581389757
sS'accel_y'
p36
F-0.47615207402012061
sS'maxAccel'
p37
I2
sS'maxVel'
p38
F0.5
sS'age'
p39
I200
sS'gener'
p40
S'm'
sS'lastScale'
p41
F15.30002611903191
sS'energy'
p42
F0.98000261190319093
sb.(i__main__
Data_mobile
p1
(dp2
S'vel_y'
p3
F0.4555549366216694
sS'vel_x'
p4
F-0.20608177920337062
sS'pos_x'
p5
F-166.9197056881313
sS'pos_y'
p6
F41.380075301278602
sS'isAlive'
p7
I01
sS'geno'
p8
(lp9
S'POINT./'
p10
aS'POINT./'
p11
a(lp12
(lp13
S'currentVelocity'
p14
aaS'separation'
p15
aS'POINT.+'
p16
a(lp17
(lp18
(lp19
(lp20
S'mostEnergizedNeighbor'
p21
aaS'POINT.+'
p22
aS'target'
p23
a(lp24
S'currentVelocity'
p25
aS'POINT.*'
p26
aS'target'
p27
aS'POINT.*'
p28
aaS'POINT.*'
p29
aS'POINT.+'
p30
aaaS'POINT.*'
p31
aS'POINT.*'
p32
aS'target'
p33
aaS'POINT./'
p34
aS'target'
p35
aa(lp36
(lp37
S'POINT./'
p38
aa(lp39
(lp40
S'target'
p41
aS'POINT.*'
p42
aS'POINT./'
p43
aS'POINT.*'
p44
aaaS'currentVelocity'
p45
aS'POINT.+'
p46
aaS'target'
p47
aS'POINT./'
p48
asS'accel_x'
p49
F0.58085231439676477
sS'accel_y'
p50
F0.19553922588530526
sS'maxAccel'
p51
I2
sS'maxVel'
p52
F0.5
sS'age'
p53
I200
sS'gener'
p54
S'm'
sS'lastScale'
p55
F15.30002611903191
sS'energy'
p56
F0.98000261190319093
sb.(i__main__
Data_mobile
p1
(dp2
S'vel_y'
p3
F0.49336303051786473
sS'vel_x'
p4
F-0.081196798694458935
sS'pos_x'
p5
F-156.23216139496219
sS'pos_y'
p6
F-15.139989426376253
sS'isAlive'
p7
I01
sS'geno'
p8
(lp9
S'POINT./'
p10
aS'POINT./'
p11
a(lp12
(lp13
(lp14
S'POINT./'
p15
aaaS'separation'
p16
aS'POINT.+'
p17
a(lp18
(lp19
(lp20
(lp21
S'mostEnergizedNeighbor'
p22
aaS'POINT.+'
p23
aS'target'
p24
a(lp25
S'currentVelocity'
p26
aS'POINT.*'
p27
a(lp28
S'target'
p29
aaS'POINT.*'
p30
aaS'POINT.*'
p31
aS'POINT.+'
p32
aaaS'POINT.*'
p33
aS'POINT.*'
p34
aS'target'
p35
aaS'POINT./'
p36
aS'target'
p37
aa(lp38
(lp39
S'POINT./'
p40
aa(lp41
(lp42
S'target'
p43
aS'POINT.*'
p44
aS'POINT./'
p45
aS'POINT.*'
p46
aaaS'currentVelocity'
p47
aS'POINT.+'
p48
aaS'target'
p49
aS'POINT./'
p50
asS'accel_x'
p51
F-0.19559700880747732
sS'accel_y'
p52
F1.1739031987516335
sS'maxAccel'
p53
I2
sS'maxVel'
p54
F0.5
sS'age'
p55
I200
sS'gener'
p56
S'm'
sS'lastScale'
p57
F15.30002611903191
sS'energy'
p58
F0.98000261190319093
sb.(i__main__
Data_mobile
p1
(dp2
S'vel_y'
p3
F-0.40840844596947296
sS'vel_x'
p4
F-0.28844850712180858
sS'pos_x'
p5
F-48.785816796963836
sS'pos_y'
p6
F-51.692059815781022
sS'isAlive'
p7
I01
sS'geno'
p8
(lp9
S'POINT./'
p10
aS'POINT./'
p11
a(lp12
(lp13
S'currentVelocity'
p14
aaS'separation'
p15
aS'POINT.+'
p16
a(lp17
(lp18
(lp19
(lp20
S'mostEnergizedNeighbor'
p21
aaS'POINT.+'
p22
aS'target'
p23
a(lp24
S'currentVelocity'
p25
aS'POINT.*'
p26
aS'target'
p27
aS'POINT.*'
p28
aaS'POINT.*'
p29
aS'POINT.+'
p30
aaaS'POINT.*'
p31
aS'POINT.*'
p32
aS'target'
p33
aaS'target'
p34
aS'target'
p35
aa(lp36
(lp37
S'POINT./'
p38
aa(lp39
(lp40
S'target'
p41
aS'POINT.*'
p42
aS'POINT./'
p43
aS'POINT.*'
p44
aaaS'currentVelocity'
p45
aS'POINT.+'
p46
aaS'target'
p47
aS'POINT./'
p48
asS'accel_x'
p49
F0.5945776263260123
sS'accel_y'
p50
F-0.804815162799843
sS'maxAccel'
p51
I2
sS'maxVel'
p52
F0.5
sS'age'
p53
I150
sS'gener'
p54
S'm'
sS'lastScale'
p55
F15.301657194409474
sS'energy'
p56
F0.98016571944094744
sb.(i__main__
Data_mobile
p1
(dp2
S'vel_y'
p3
F-0.44481738743210292
sS'vel_x'
p4
F0.22833635680302525
sS'pos_x'
p5
F-79.193519200863179
sS'pos_y'
p6
F-8.7916918510049467
sS'isAlive'
p7
I01
sS'geno'
p8
(lp9
S'POINT./'
p10
aS'POINT./'
p11
a(lp12
(lp13
S'target'
p14
aaS'separation'
p15
aS'POINT.+'
p16
a(lp17
(lp18
(lp19
(lp20
S'target'
p21
aaS'POINT.+'
p22
aS'POINT.*'
p23
a(lp24
S'currentVelocity'
p25
aS'POINT.*'
p26
a(lp27
S'target'
p28
aaS'POINT.*'
p29
aaS'POINT.*'
p30
aS'POINT.+'
p31
aaaS'POINT.*'
p32
aS'POINT.*'
p33
aS'target'
p34
aaS'POINT./'
p35
aS'POINT.*'
p36
aa(lp37
(lp38
S'POINT./'
p39
aa(lp40
(lp41
S'POINT.*'
p42
aS'POINT.*'
p43
aS'POINT./'
p44
aS'POINT.*'
p45
aaaS'currentVelocity'
p46
aS'POINT.+'
p47
aaS'target'
p48
aS'target'
p49
asS'accel_x'
p50
F0.51454162559387839
sS'accel_y'
p51
F0.3329743466563766
sS'maxAccel'
p52
I2
sS'maxVel'
p53
F0.5
sS'age'
p54
I150
sS'gener'
p55
S'm'
sS'lastScale'
p56
F15.301657194409474
sS'energy'
p57
F0.98016571944094744
sb.(i__main__
Data_mobile
p1
(dp2
S'vel_y'
p3
F-0.48987574301713432
sS'vel_x'
p4
F-0.10010872291369291
sS'pos_x'
p5
F-166.94858296531106
sS'pos_y'
p6
F41.637701765445954
sS'isAlive'
p7
I01
sS'geno'
p8
(lp9
S'POINT./'
p10
aS'POINT./'
p11
a(lp12
(lp13
S'currentVelocity'
p14
aaS'separation'
p15
aS'POINT.+'
p16
a(lp17
(lp18
(lp19
(lp20
S'mostEnergizedNeighbor'
p21
aaS'POINT.+'
p22
aS'target'
p23
a(lp24
S'currentVelocity'
p25
aS'POINT.*'
p26
aS'target'
p27
aS'POINT.*'
p28
aaS'POINT.*'
p29
aS'POINT.+'
p30
aaaS'POINT./'
p31
aS'POINT.*'
p32
aS'target'
p33
aaS'POINT./'
p34
aS'target'
p35
aa(lp36
(lp37
S'POINT./'
p38
aa(lp39
(lp40
S'target'
p41
aS'POINT.*'
p42
aS'POINT./'
p43
aS'POINT.*'
p44
aaaS'currentVelocity'
p45
aS'POINT.+'
p46
aaS'target'
p47
aS'POINT./'
p48
asS'accel_x'
p49
F0.6097295915765244
sS'accel_y'
p50
F-0.062087238282046542
sS'maxAccel'
p51
I2
sS'maxVel'
p52
F0.5
sS'age'
p53
I100
sS'gener'
p54
S'm'
sS'lastScale'
p55
F15.352082128537274
sS'energy'
p56
F0.98520821285372739
sb.(i__main__
Data_mobile
p1
(dp2
S'vel_y'
p3
F-0.28575257771021845
sS'vel_x'
p4
F0.41029923754738507
sS'pos_x'
p5
F-166.08754693316618
sS'pos_y'
p6
F41.400598574209148
sS'isAlive'
p7
I01
sS'geno'
p8
(lp9
(lp10
(lp11
S'target'
p12
aaaS'POINT.+'
p13
a(lp14
(lp15
S'currentVelocity'
p16
aa(lp17
(lp18
S'target'
p19
aaaS'POINT.+'
p20
a(lp21
(lp22
S'POINT.*'
p23
aaS'alignment'
p24
aS'currentVelocity'
p25
aS'target'
p26
aaS'POINT./'
p27
aS'target'
p28
aa(lp29
S'currentVelocity'
p30
aS'POINT.*'
p31
aS'target'
p32
aS'POINT.*'
p33
aa(lp34
S'POINT.*'
p35
aa(lp36
S'target'
p37
aasS'accel_x'
p38
F-0.25130644056835649
sS'accel_y'
p39
F0.1750159529547588
sS'maxAccel'
p40
I2
sS'maxVel'
p41
F0.5
sS'age'
p42
I100
sS'gener'
p43
S'm'
sS'lastScale'
p44
F15.352082128537274
sS'energy'
p45
F0.98520821285372739
sb.(i__main__
Data_mobile
p1
(dp2
S'vel_y'
p3
F0.21597264002862898
sS'vel_x'
p4
F-0.0012269432347034592
sS'pos_x'
p5
F-92.168668458458725
sS'pos_y'
p6
F-64.025886888202479
sS'isAlive'
p7
I01
sS'geno'
p8
(lp9
S'POINT./'
p10
aS'POINT./'
p11
a(lp12
(lp13
S'target'
p14
aaS'separation'
p15
aS'POINT.+'
p16
a(lp17
S'currentVelocity'
p18
aS'POINT.*'
p19
aS'POINT.*'
p20
aS'target'
p21
aaS'POINT./'
p22
aS'POINT.*'
p23
aa(lp24
(lp25
S'POINT./'
p26
aa(lp27
(lp28
S'POINT.*'
p29
aS'POINT.*'
p30
aS'POINT./'
p31
aS'POINT.*'
p32
aaaS'currentVelocity'
p33
aS'POINT.+'
p34
aaS'target'
p35
aS'target'
p36
asS'accel_x'
p37
F0.0032027756180212918
sS'accel_y'
p38
F-0.64271403972786345
sS'maxAccel'
p39
I2
sS'maxVel'
p40
F0.5
sS'age'
p41
I100
sS'gener'
p42
S'm'
sS'lastScale'
p43
F15.352082128537274
sS'energy'
p44
F0.98520821285372739
sb.(i__main__
Data_mobile
p1
(dp2
S'vel_y'
p3
F-0.15647043431244775
sS'vel_x'
p4
F-0.47488630553646627
sS'pos_x'
p5
F-48.164302933763437
sS'pos_y'
p6
F-52.987508644848582
sS'isAlive'
p7
I01
sS'geno'
p8
(lp9
(lp10
S'target'
p11
aa(lp12
(lp13
S'target'
p14
aaS'POINT./'
p15
a(lp16
(lp17
S'POINT./'
p18
aa(lp19
(lp20
S'target'
p21
aS'POINT.*'
p22
aS'POINT.+'
p23
aS'POINT.*'
p24
aaaS'currentVelocity'
p25
aS'POINT.+'
p26
aaS'target'
p27
aS'target'
p28
aS'POINT.*'
p29
aaS'target'
p30
aS'POINT.*'
p31
a(lp32
(lp33
S'POINT.*'
p34
aaS'POINT.*'
p35
a(lp36
S'target'
p37
aaS'mostEnergizedNeighbor'
p38
aaS'POINT.*'
p39
asS'accel_x'
p40
F-0.62151386320039848
sS'accel_y'
p41
F1.2954488290675599
sS'maxAccel'
p42
I2
sS'maxVel'
p43
F0.5
sS'age'
p44
I100
sS'gener'
p45
S'm'
sS'lastScale'
p46
F15.352082128537274
sS'energy'
p47
F0.98520821285372739
sb.(i__main__
Data_mobile
p1
(dp2
S'vel_y'
p3
F0.40543521024890572
sS'vel_x'
p4
F-0.29261286760910843
sS'pos_x'
p5
F-167.16620972821278
sS'pos_y'
p6
F41.179613443417352
sS'isAlive'
p7
I01
sS'geno'
p8
(lp9
S'POINT./'
p10
aS'POINT./'
p11
a(lp12
(lp13
S'currentVelocity'
p14
aaS'separation'
p15
aS'POINT.+'
p16
a(lp17
(lp18
(lp19
(lp20
S'mostEnergizedNeighbor'
p21
aaS'POINT.+'
p22
aS'target'
p23
a(lp24
S'currentVelocity'
p25
aS'POINT.*'
p26
aS'target'
p27
aS'POINT.*'
p28
aaS'POINT.*'
p29
aS'POINT.+'
p30
aaaS'POINT.*'
p31
aS'POINT.*'
p32
a(lp33
S'target'
p34
aaaS'POINT./'
p35
aS'target'
p36
aa(lp37
(lp38
S'POINT./'
p39
aa(lp40
(lp41
S'target'
p42
aS'POINT.*'
p43
aS'POINT./'
p44
aS'POINT.*'
p45
aaaS'currentVelocity'
p46
aS'POINT.+'
p47
aaS'target'
p48
aS'POINT./'
p49
asS'accel_x'
p50
F0.53474348686913209
sS'accel_y'
p51
F0.80143629399546035
sS'maxAccel'
p52
I2
sS'maxVel'
p53
F0.5
sS'age'
p54
I100
sS'gener'
p55
S'm'
sS'lastScale'
p56
F15.352082128537274
sS'energy'
p57
F0.98520821285372739
sb.(i__main__
Data_mobile
p1
(dp2
S'vel_y'
p3
F-0.34108614741414822
sS'vel_x'
p4
F-0.3655957330743535
sS'pos_x'
p5
F-48.686550950031837
sS'pos_y'
p6
F-51.520493603748129
sS'isAlive'
p7
I01
sS'geno'
p8
(lp9
S'POINT./'
p10
aS'POINT./'
p11
a(lp12
(lp13
S'currentVelocity'
p14
aaS'separation'
p15
aS'POINT.+'
p16
a(lp17
(lp18
(lp19
(lp20
S'mostEnergizedNeighbor'
p21
aaS'POINT.+'
p22
aS'target'
p23
a(lp24
S'currentVelocity'
p25
aS'POINT.*'
p26
a(lp27
S'target'
p28
aaS'POINT.*'
p29
aaS'POINT.*'
p30
aS'POINT.+'
p31
aaaS'POINT.*'
p32
aS'POINT.*'
p33
aS'target'
p34
aaS'POINT./'
p35
aS'target'
p36
aa(lp37
(lp38
S'POINT./'
p39
aa(lp40
(lp41
S'target'
p42
aS'POINT.*'
p43
aS'POINT./'
p44
aS'POINT.*'
p45
aaaS'currentVelocity'
p46
aS'POINT.+'
p47
aaS'POINT./'
p48
aS'POINT./'
p49
asS'accel_x'
p50
F0.41816455344146825
sS'accel_y'
p51
F-0.90905907627741112
sS'maxAccel'
p52
I2
sS'maxVel'
p53
F0.5
sS'age'
p54
I100
sS'gener'
p55
S'm'
sS'lastScale'
p56
F15.352082128537274
sS'energy'
p57
F0.98520821285372739
sb.(i__main__
Data_mobile
p1
(dp2
S'vel_y'
p3
F-0.042513180435430814
sS'vel_x'
p4
F-0.49818935103960676
sS'pos_x'
p5
F-78.944700160305061
sS'pos_y'
p6
F-7.527983952086343
sS'isAlive'
p7
I01
sS'geno'
p8
(lp9
S'POINT./'
p10
aS'POINT./'
p11
a(lp12
(lp13
S'currentVelocity'
p14
aaS'separation'
p15
aS'POINT.+'
p16
a(lp17
(lp18
(lp19
(lp20
S'mostEnergizedNeighbor'
p21
aaS'POINT.+'
p22
aS'target'
p23
a(lp24
S'currentVelocity'
p25
aS'POINT.*'
p26
a(lp27
(lp28
S'target'
p29
aaaS'POINT.*'
p30
aaS'POINT.*'
p31
aS'POINT.+'
p32
aaaS'POINT.*'
p33
aS'POINT.*'
p34
aS'target'
p35
aaS'POINT./'
p36
aS'target'
p37
aa(lp38
(lp39
S'POINT./'
p40
aa(lp41
(lp42
S'target'
p43
aS'POINT.*'
p44
aS'POINT./'
p45
aS'POINT.*'
p46
aaaS'currentVelocity'
p47
aS'POINT.+'
p48
aaS'target'
p49
aS'POINT./'
p50
asS'accel_x'
p51
F-0.23246676600384625
sS'accel_y'
p52
F-0.97324673269765793
sS'maxAccel'
p53
I2
sS'maxVel'
p54
F0.5
sS'age'
p55
I100
sS'gener'
p56
S'm'
sS'lastScale'
p57
F15.352082128537274
sS'energy'
p58
F0.94469006375249953
sb.(i__main__
Data_mobile
p1
(dp2
S'vel_y'
p3
F0.11848530260325912
sS'vel_x'
p4
F0.093520873273625987
sS'pos_x'
p5
F156.60785419102265
sS'pos_y'
p6
F67.149950656082581
sS'isAlive'
p7
I01
sS'geno'
p8
(lp9
(lp10
S'randV'
p11
aaS'POINT./'
p12
aS'target'
p13
aS'target'
p14
a(lp15
S'target'
p16
aS'POINT./'
p17
a(lp18
(lp19
S'POINT./'
p20
aa(lp21
(lp22
S'target'
p23
aS'POINT.*'
p24
aS'POINT./'
p25
aS'POINT.*'
p26
aaaS'currentVelocity'
p27
aS'POINT.+'
p28
aa(lp29
S'currentVelocity'
p30
aaS'target'
p31
aS'POINT.*'
p32
aaS'POINT.*'
p33
asS'accel_x'
p34
F-0.41845275183428043
sS'accel_y'
p35
F-0.53015229307510481
sS'maxAccel'
p36
I2
sS'maxVel'
p37
F0.5
sS'age'
p38
I100
sS'gener'
p39
S'm'
sS'lastScale'
p40
F10.781915222938203
sS'energy'
p41
F0.38384317974738247
sb.(i__main__
Data_mobile
p1
(dp2
S'vel_y'
p3
F-0.32120811152333839
sS'vel_x'
p4
F-0.38317796008070537
sS'pos_x'
p5
F-67.095140516248861
sS'pos_y'
p6
F74.301717717604433
sS'isAlive'
p7
I01
sS'geno'
p8
(lp9
S'POINT.*'
p10
a(lp11
(lp12
S'mostEnergizedNeighbor'
p13
aaS'POINT.+'
p14
aS'POINT.+'
p15
a(lp16
S'currentVelocity'
p17
a(lp18
S'POINT.*'
p19
aS'target'
p20
aS'POINT.-'
p21
aaS'POINT./'
p22
aS'POINT.*'
p23
aaS'POINT.*'
p24
aS'POINT.+'
p25
aaS'POINT.+'
p26
a(lp27
(lp28
S'currentVelocity'
p29
aS'POINT.*'
p30
aS'target'
p31
aS'POINT.*'
p32
aaS'target'
p33
aS'target'
p34
aa(lp35
S'target'
p36
aa(lp37
S'target'
p38
aasS'accel_x'
p39
F0
sS'accel_y'
p40
F0
sS'maxAccel'
p41
I2
sS'maxVel'
p42
F0.5
sS'age'
p43
I100
sS'gener'
p44
S'm'
sS'lastScale'
p45
F7.4995949319930206
sS'energy'
p46
F0.099959493199302057
sb.(i__main__
Data_mobile
p1
(dp2
S'vel_y'
p3
F0.38174393029245535
sS'vel_x'
p4
F-0.3229110894423865
sS'pos_x'
p5
F-91.739760029152109
sS'pos_y'
p6
F-64.22769001976711
sS'isAlive'
p7
I01
sS'geno'
p8
(lp9
S'POINT.*'
p10
a(lp11
(lp12
S'mostEnergizedNeighbor'
p13
aaS'POINT.+'
p14
aS'POINT.+'
p15
aS'POINT./'
p16
aS'POINT.*'
p17
aS'POINT.+'
p18
aaS'POINT.+'
p19
a(lp20
S'POINT.*'
p21
aS'target'
p22
aS'target'
p23
aa(lp24
S'target'
p25
aa(lp26
S'target'
p27
aasS'accel_x'
p28
F-0.42570565368859548
sS'accel_y'
p29
F-0.44091090816323231
sS'maxAccel'
p30
I2
sS'maxVel'
p31
F0.5
sS'age'
p32
I50
sS'gener'
p33
S'm'
sS'lastScale'
p34
F15.398593637295674
sS'energy'
p35
F0.98985936372956751
sb.(i__main__
Data_mobile
p1
(dp2
S'vel_y'
p3
F0.15320913572526237
sS'vel_x'
p4
F-0.47594848537453938
sS'pos_x'
p5
F-91.474407149607899
sS'pos_y'
p6
F95.781383784984968
sS'isAlive'
p7
I01
sS'geno'
p8
(lp9
S'POINT.*'
p10
a(lp11
(lp12
S'mostEnergizedNeighbor'
p13
aaS'POINT.+'
p14
aS'POINT.+'
p15
a(lp16
S'target'
p17
aaS'POINT.*'
p18
aS'POINT.+'
p19
aaS'POINT.+'
p20
a(lp21
S'POINT.*'
p22
aS'target'
p23
aS'POINT.*'
p24
aa(lp25
S'target'
p26
aa(lp27
S'target'
p28
a(lp29
(lp30
S'target'
p31
aS'POINT.*'
p32
aS'POINT./'
p33
aS'POINT.*'
p34
aaaS'currentVelocity'
p35
aS'POINT.+'
p36
aasS'accel_x'
p37
F-0.0081700641612431069
sS'accel_y'
p38
F1.0005914492943473
sS'maxAccel'
p39
I2
sS'maxVel'
p40
F0.5
sS'age'
p41
I50
sS'gener'
p42
S'm'
sS'lastScale'
p43
F15.398593637295674
sS'energy'
p44
F0.98985936372956751
sb.(i__main__
Data_mobile
p1
(dp2
S'vel_y'
p3
F0.36964208874789661
sS'vel_x'
p4
F0.33669678677720122
sS'pos_x'
p5
F-33.514101587141937
sS'pos_y'
p6
F68.916368608871693
sS'isAlive'
p7
I01
sS'geno'
p8
(lp9
S'POINT.*'
p10
a(lp11
(lp12
S'mostEnergizedNeighbor'
p13
aaS'POINT.+'
p14
aS'POINT.+'
p15
a(lp16
S'currentVelocity'
p17
a(lp18
S'POINT.*'
p19
aS'target'
p20
aS'POINT.-'
p21
aaS'POINT./'
p22
aS'POINT.*'
p23
aaS'POINT.*'
p24
aS'POINT.+'
p25
aaS'POINT.+'
p26
a(lp27
S'POINT.*'
p28
aS'POINT.*'
p29
aS'target'
p30
aa(lp31
S'target'
p32
aa(lp33
S'target'
p34
aasS'accel_x'
p35
F-0.19451737153070781
sS'accel_y'
p36
F-0.21360364465098769
sS'maxAccel'
p37
I2
sS'maxVel'
p38
F0.5
sS'age'
p39
I50
sS'gener'
p40
S'm'
sS'lastScale'
p41
F15.398593637295674
sS'energy'
p42
F0.98985936372956751
sb.(i__main__
Data_mobile
p1
(dp2
S'vel_y'
p3
F0.3243113096951003
sS'vel_x'
p4
F-0.3805550872132033
sS'pos_x'
p5
F-115.19714257379061
sS'pos_y'
p6
F-100.53132635574936
sS'isAlive'
p7
I01
sS'geno'
p8
(lp9
S'POINT./'
p10
aS'POINT./'
p11
a(lp12
(lp13
S'currentVelocity'
p14
aaS'separation'
p15
aS'POINT.+'
p16
a(lp17
(lp18
(lp19
(lp20
S'mostEnergizedNeighbor'
p21
aaS'POINT.+'
p22
aS'target'
p23
a(lp24
S'currentVelocity'
p25
aS'POINT.*'
p26
a(lp27
(lp28
S'target'
p29
aaaS'POINT.*'
p30
aaS'POINT.*'
p31
aS'POINT.+'
p32
aaaS'POINT.*'
p33
aS'POINT.*'
p34
aS'target'
p35
aaS'POINT./'
p36
aS'target'
p37
aa(lp38
(lp39
S'POINT./'
p40
aa(lp41
(lp42
S'target'
p43
aS'POINT.*'
p44
aS'POINT./'
p45
aS'POINT.*'
p46
aaaS'currentVelocity'
p47
aS'POINT.+'
p48
aaS'target'
p49
aS'POINT./'
p50
asS'accel_x'
p51
F0.37688808156013187
sS'accel_y'
p52
F0.92693331692184233
sS'maxAccel'
p53
I2
sS'maxVel'
p54
F0.5
sS'age'
p55
I50
sS'gener'
p56
S'm'
sS'lastScale'
p57
F15.398593637295674
sS'energy'
p58
F0.98985936372956751
sb.(i__main__
Data_mobile
p1
(dp2
S'vel_y'
p3
F0.34891345452112266
sS'vel_x'
p4
F0.35813321718899027
sS'pos_x'
p5
F-166.65503297320188
sS'pos_y'
p6
F42.255709314950074
sS'isAlive'
p7
I01
sS'geno'
p8
(lp9
S'POINT./'
p10
aS'POINT./'
p11
a(lp12
(lp13
S'currentVelocity'
p14
aaS'separation'
p15
aS'POINT.+'
p16
a(lp17
(lp18
(lp19
(lp20
S'mostEnergizedNeighbor'
p21
aaS'POINT.+'
p22
aS'target'
p23
a(lp24
S'currentVelocity'
p25
aS'POINT.*'
p26
aS'target'
p27
aS'POINT.*'
p28
aaS'POINT.*'
p29
aS'POINT.+'
p30
aaaS'POINT.*'
p31
aS'POINT.*'
p32
aS'target'
p33
aaS'POINT./'
p34
aS'target'
p35
aa(lp36
(lp37
S'POINT./'
p38
aa(lp39
(lp40
S'target'
p41
aS'POINT.*'
p42
aS'POINT./'
p43
aS'POINT.*'
p44
aaaS'currentVelocity'
p45
aS'POINT.+'
p46
aaS'POINT.+'
p47
aS'POINT./'
p48
asS'accel_x'
p49
F0.99049241612368399
sS'accel_y'
p50
F-1.0112761210512122
sS'maxAccel'
p51
I2
sS'maxVel'
p52
F0.5
sS'age'
p53
I50
sS'gener'
p54
S'm'
sS'lastScale'
p55
F15.398593637295674
sS'energy'
p56
F0.98985936372956751
sb.(i__main__
Data_mobile
p1
(dp2
S'vel_y'
p3
F-0.49940911270463645
sS'vel_x'
p4
F-0.02430099067049946
sS'pos_x'
p5
F-165.39904116185153
sS'pos_y'
p6
F41.344040686022275
sS'isAlive'
p7
I01
sS'geno'
p8
(lp9
S'POINT./'
p10
aS'POINT./'
p11
a(lp12
(lp13
S'currentVelocity'
p14
aaS'separation'
p15
aS'POINT.+'
p16
a(lp17
(lp18
(lp19
(lp20
S'mostEnergizedNeighbor'
p21
aaS'POINT.+'
p22
aS'target'
p23
a(lp24
S'currentVelocity'
p25
aS'POINT.*'
p26
aS'target'
p27
aS'POINT.*'
p28
aaS'POINT.*'
p29
aS'POINT.+'
p30
aaaS'POINT.*'
p31
aS'POINT.*'
p32
aS'target'
p33
aa(lp34
S'POINT./'
p35
aaS'target'
p36
aa(lp37
(lp38
S'POINT./'
p39
aa(lp40
(lp41
S'target'
p42
aS'POINT.*'
p43
aS'POINT./'
p44
aS'POINT.*'
p45
aaaS'currentVelocity'
p46
aS'POINT.+'
p47
aaS'target'
p48
aS'POINT./'
p49
asS'accel_x'
p50
F-0.9641132025535083
sS'accel_y'
p51
F-0.26783527156300452
sS'maxAccel'
p52
I2
sS'maxVel'
p53
F0.5
sS'age'
p54
I50
sS'gener'
p55
S'm'
sS'lastScale'
p56
F15.398593637295674
sS'energy'
p57
F0.98985936372956751
sb.(i__main__
Data_mobile
p1
(dp2
S'vel_y'
p3
F-0.021761482379423158
sS'vel_x'
p4
F-0.0013256410286411674
sS'pos_x'
p5
F-91.051641232977346
sS'pos_y'
p6
F95.889841240235242
sS'isAlive'
p7
I01
sS'geno'
p8
(lp9
S'POINT./'
p10
aS'POINT./'
p11
a(lp12
(lp13
S'currentVelocity'
p14
aaS'separation'
p15
aS'POINT.+'
p16
aS'POINT.+'
p17
aS'POINT./'
p18
aS'target'
p19
aa(lp20
(lp21
S'POINT./'
p22
aa(lp23
(lp24
S'target'
p25
aS'POINT.*'
p26
aS'POINT./'
p27
aS'POINT.*'
p28
aaa(lp29
(lp30
S'target'
p31
aaaS'POINT.+'
p32
aaS'target'
p33
aS'POINT./'
p34
asS'accel_x'
p35
F0.045012504582743418
sS'accel_y'
p36
F0.73892485831881061
sS'maxAccel'
p37
I2
sS'maxVel'
p38
F0.5
sS'age'
p39
I50
sS'gener'
p40
S'm'
sS'lastScale'
p41
F15.398593637295674
sS'energy'
p42
F0.98985936372956751
sb.(i__main__
Data_mobile
p1
(dp2
S'vel_y'
p3
F-0.021281068274837191
sS'vel_x'
p4
F0.027312435674779284
sS'pos_x'
p5
F-33.129743033056656
sS'pos_y'
p6
F68.251721438798469
sS'isAlive'
p7
I01
sS'geno'
p8
(lp9
S'POINT.*'
p10
a(lp11
(lp12
S'mostEnergizedNeighbor'
p13
aaS'POINT.+'
p14
aS'POINT.+'
p15
a(lp16
S'currentVelocity'
p17
a(lp18
S'POINT.*'
p19
aS'target'
p20
aS'POINT.-'
p21
aaS'POINT./'
p22
aS'POINT.*'
p23
aaS'POINT.*'
p24
aS'POINT.+'
p25
aaS'cohesion'
p26
a(lp27
S'POINT.*'
p28
aS'target'
p29
aS'target'
p30
aa(lp31
S'target'
p32
aa(lp33
S'target'
p34
aasS'accel_x'
p35
F-0.57887592561598922
sS'accel_y'
p36
F0.4510435254222358
sS'maxAccel'
p37
I2
sS'maxVel'
p38
F0.5
sS'age'
p39
I50
sS'gener'
p40
S'm'
sS'lastScale'
p41
F15.398593637295674
sS'energy'
p42
F0.98985936372956751
sb.(i__main__
Data_mobile
p1
(dp2
S'vel_y'
p3
F0.2948461263030982
sS'vel_x'
p4
F-0.082439091944321197
sS'pos_x'
p5
F-114.6080043494524
sS'pos_y'
p6
F-45.277820794633982
sS'isAlive'
p7
I01
sS'geno'
p8
(lp9
S'POINT./'
p10
aS'POINT./'
p11
a(lp12
(lp13
S'currentVelocity'
p14
aaS'separation'
p15
aS'POINT.*'
p16
aS'POINT.+'
p17
aS'POINT./'
p18
aS'target'
p19
aa(lp20
(lp21
S'POINT./'
p22
aa(lp23
(lp24
S'target'
p25
aS'POINT.*'
p26
aS'POINT./'
p27
aS'POINT.*'
p28
aaaS'currentVelocity'
p29
aS'POINT.+'
p30
aaS'target'
p31
aS'POINT./'
p32
asS'accel_x'
p33
F0.23493506225685223
sS'accel_y'
p34
F-0.55041073611610614
sS'maxAccel'
p35
I2
sS'maxVel'
p36
F0.5
sS'age'
p37
I50
sS'gener'
p38
S'm'
sS'lastScale'
p39
F15.398593637295674
sS'energy'
p40
F0.98985936372956751
sb.(i__main__
Data_mobile
p1
(dp2
S'vel_y'
p3
F0.13810351984678298
sS'vel_x'
p4
F-0.15056740688120074
sS'pos_x'
p5
F-167.68672571914342
sS'pos_y'
p6
F-53.771744473358964
sS'isAlive'
p7
I01
sS'geno'
p8
(lp9
S'POINT./'
p10
aS'POINT./'
p11
aS'target'
p12
a(lp13
(lp14
S'POINT./'
p15
aaS'POINT.+'
p16
aS'currentVelocity'
p17
aS'POINT.+'
p18
aaS'target'
p19
aS'POINT./'
p20
asS'accel_x'
p21
F0.47797463932187156
sS'accel_y'
p22
F-0.43840718921828881
sS'maxAccel'
p23
I2
sS'maxVel'
p24
F0.5
sS'age'
p25
I50
sS'gener'
p26
S'm'
sS'lastScale'
p27
F15.398593637295674
sS'energy'
p28
F0.98985936372956751
sb.(i__main__
Data_mobile
p1
(dp2
S'vel_y'
p3
F-0.29818168907575054
sS'vel_x'
p4
F-0.19422091541381326
sS'pos_x'
p5
F-167.52116553599791
sS'pos_y'
p6
F-54.68981356089877
sS'isAlive'
p7
I01
sS'geno'
p8
(lp9
S'POINT./'
p10
aS'POINT./'
p11
a(lp12
(lp13
S'currentVelocity'
p14
aaS'separation'
p15
aS'POINT.+'
p16
a(lp17
(lp18
(lp19
(lp20
S'mostEnergizedNeighbor'
p21
aaS'POINT.+'
p22
aS'target'
p23
a(lp24
S'currentVelocity'
p25
aS'POINT.*'
p26
aS'target'
p27
aS'POINT.*'
p28
aaS'POINT.*'
p29
aS'POINT.+'
p30
aaaS'POINT.*'
p31
aS'POINT.*'
p32
aS'target'
p33
aaS'POINT./'
p34
aS'target'
p35
aa(lp36
(lp37
S'POINT./'
p38
aa(lp39
S'target'
p40
aaS'currentVelocity'
p41
aS'POINT.+'
p42
aaS'target'
p43
aS'POINT./'
p44
asS'accel_x'
p45
F0.31241445617635577
sS'accel_y'
p46
F0.47966189832151684
sS'maxAccel'
p47
I2
sS'maxVel'
p48
F0.5
sS'age'
p49
I50
sS'gener'
p50
S'm'
sS'lastScale'
p51
F15.398593637295674
sS'energy'
p52
F0.98985936372956751
sb.(i__main__
Data_mobile
p1
(dp2
S'vel_y'
p3
F-0.19715156406603668
sS'vel_x'
p4
F-0.22035747922965787
sS'pos_x'
p5
F-113.9228214918772
sS'pos_y'
p6
F-45.425399442231026
sS'isAlive'
p7
I01
sS'geno'
p8
(lp9
S'POINT./'
p10
aS'POINT./'
p11
aS'target'
p12
a(lp13
(lp14
(lp15
S'currentVelocity'
p16
aaS'separation'
p17
aS'POINT.+'
p18
a(lp19
(lp20
(lp21
(lp22
S'POINT.*'
p23
aaS'POINT.+'
p24
aS'target'
p25
a(lp26
S'currentVelocity'
p27
aS'POINT.*'
p28
aS'target'
p29
aS'POINT.*'
p30
aaS'POINT.*'
p31
aS'POINT.+'
p32
aaaS'POINT.*'
p33
aS'POINT.*'
p34
aS'target'
p35
aaS'POINT./'
p36
aS'target'
p37
aa(lp38
(lp39
S'target'
p40
aS'POINT.*'
p41
aS'POINT./'
p42
aS'POINT.*'
p43
aaaS'currentVelocity'
p44
aS'POINT.+'
p45
aaS'target'
p46
aS'POINT./'
p47
asS'accel_x'
p48
F-0.45024779531834724
sS'accel_y'
p49
F-0.40283208851906238
sS'maxAccel'
p50
I2
sS'maxVel'
p51
F0.5
sS'age'
p52
I50
sS'gener'
p53
S'm'
sS'lastScale'
p54
F15.398593637295674
sS'energy'
p55
F0.98985936372956751
sb.(i__main__
Data_mobile
p1
(dp2
S'vel_y'
p3
F0.28178484397792847
sS'vel_x'
p4
F-0.41303426214338995
sS'pos_x'
p5
F-33.375166440041959
sS'pos_y'
p6
F68.475363123314068
sS'isAlive'
p7
I01
sS'geno'
p8
(lp9
S'POINT.*'
p10
a(lp11
(lp12
S'mostEnergizedNeighbor'
p13
aaS'POINT.+'
p14
aS'POINT.+'
p15
a(lp16
S'currentVelocity'
p17
a(lp18
S'POINT.*'
p19
aS'target'
p20
aS'POINT.-'
p21
aaS'POINT./'
p22
aS'POINT.*'
p23
aaS'POINT.*'
p24
aS'POINT.+'
p25
aaS'POINT.+'
p26
a(lp27
S'POINT.*'
p28
aS'target'
p29
aS'target'
p30
aa(lp31
S'target'
p32
aa(lp33
S'target'
p34
aasS'accel_x'
p35
F-0.33345251863068626
sS'accel_y'
p36
F0.22740184090663718
sS'maxAccel'
p37
I2
sS'maxVel'
p38
F0.5
sS'age'
p39
I50
sS'gener'
p40
S'm'
sS'lastScale'
p41
F15.398593637295674
sS'energy'
p42
F0.98985936372956751
sb.(i__main__
Data_mobile
p1
(dp2
S'vel_y'
p3
F-0.39719428516009647
sS'vel_x'
p4
F-0.30370495523807317
sS'pos_x'
p5
F-113.50869826618805
sS'pos_y'
p6
F-101.1992184662693
sS'isAlive'
p7
I01
sS'geno'
p8
(lp9
S'POINT./'
p10
aS'POINT./'
p11
a(lp12
(lp13
S'target'
p14
aaS'separation'
p15
aS'POINT.+'
p16
a(lp17
(lp18
(lp19
(lp20
S'target'
p21
aaS'currentVelocity'
p22
aS'POINT.*'
p23
a(lp24
S'currentVelocity'
p25
aS'POINT.*'
p26
a(lp27
S'target'
p28
aaS'POINT.*'
p29
aaS'POINT.*'
p30
aS'POINT.+'
p31
aaaS'POINT.*'
p32
aS'POINT.*'
p33
aS'target'
p34
aaS'POINT./'
p35
aS'mostEnergizedNeighbor'
p36
aa(lp37
(lp38
S'POINT./'
p39
aa(lp40
(lp41
S'POINT.*'
p42
aS'POINT.*'
p43
aS'POINT./'
p44
aS'POINT.*'
p45
aaaS'currentVelocity'
p46
aS'POINT.+'
p47
aaS'POINT./'
p48
aS'target'
p49
asS'accel_x'
p50
F-1.9817878181077146
sS'accel_y'
p51
F0.26928988840998747
sS'maxAccel'
p52
I2
sS'maxVel'
p53
F0.5
sS'age'
p54
I50
sS'gener'
p55
S'm'
sS'lastScale'
p56
F15.398593637295674
sS'energy'
p57
F0.98985936372956751
sb.(i__main__
Data_mobile
p1
(dp2
S'vel_y'
p3
F0.43813334149035427
sS'vel_x'
p4
F0.24091321066827492
sS'pos_x'
p5
F-47.794836751646869
sS'pos_y'
p6
F-51.917295742396327
sS'isAlive'
p7
I01
sS'geno'
p8
(lp9
S'POINT./'
p10
aS'POINT./'
p11
a(lp12
(lp13
S'currentVelocity'
p14
aaS'separation'
p15
aS'POINT.+'
p16
a(lp17
(lp18
(lp19
(lp20
S'mostEnergizedNeighbor'
p21
aaS'POINT.+'
p22
aS'POINT./'
p23
a(lp24
S'currentVelocity'
p25
aS'POINT.*'
p26
aS'target'
p27
aS'POINT.*'
p28
aaS'POINT.*'
p29
aS'POINT.+'
p30
aaaS'POINT.*'
p31
aS'POINT.*'
p32
aS'target'
p33
aaS'POINT./'
p34
aS'target'
p35
aa(lp36
(lp37
S'POINT./'
p38
aaS'POINT.*'
p39
aS'currentVelocity'
p40
aS'POINT.+'
p41
aaS'target'
p42
aS'POINT./'
p43
asS'accel_x'
p44
F-0.10795391186914571
sS'accel_y'
p45
F-0.17117079021506498
sS'maxAccel'
p46
I2
sS'maxVel'
p47
F0.5
sS'age'
p48
I50
sS'gener'
p49
S'm'
sS'lastScale'
p50
F15.398593637295674
sS'energy'
p51
F0.96960028917895358
sb.(i__main__
Data_mobile
p1
(dp2
S'vel_y'
p3
F0.34097705041580711
sS'vel_x'
p4
F0.36569748575801853
sS'pos_x'
p5
F-92.473068706180811
sS'pos_y'
p6
F71.707883387246895
sS'isAlive'
p7
I01
sS'geno'
p8
(lp9
S'POINT./'
p10
aS'POINT./'
p11
a(lp12
(lp13
S'currentVelocity'
p14
aaS'separation'
p15
aS'POINT.+'
p16
a(lp17
(lp18
(lp19
(lp20
S'mostEnergizedNeighbor'
p21
aaS'POINT.+'
p22
aS'target'
p23
a(lp24
S'currentVelocity'
p25
aS'POINT.*'
p26
aS'target'
p27
aS'POINT.*'
p28
aaS'POINT.*'
p29
aS'POINT.+'
p30
aaaS'POINT.*'
p31
aS'POINT.*'
p32
aS'target'
p33
aaS'POINT./'
p34
aS'target'
p35
aa(lp36
(lp37
S'POINT.+'
p38
aa(lp39
(lp40
S'target'
p41
aS'POINT.*'
p42
aS'POINT./'
p43
aS'POINT.*'
p44
aaaS'currentVelocity'
p45
aS'POINT.+'
p46
aaS'POINT./'
p47
aS'POINT./'
p48
asS'accel_x'
p49
F0.1446716820049313
sS'accel_y'
p50
F1.9947606634445807
sS'maxAccel'
p51
I2
sS'maxVel'
p52
F0.5
sS'age'
p53
I100
sS'gener'
p54
S'm'
sS'lastScale'
p55
F5.7937413024865734
sS'energy'
p56
F0.029374130248657301
sb.(i__main__
Data_mobile
p1
(dp2
S'vel_y'
p3
F-0.24222821471181932
sS'vel_x'
p4
F0.33035619229174151
sS'pos_x'
p5
F-110.72869221466379
sS'pos_y'
p6
F5.8561834065632778
sS'isAlive'
p7
I01
sS'geno'
p8
(lp9
S'POINT./'
p10
aS'POINT./'
p11
a(lp12
(lp13
S'currentVelocity'
p14
aaS'separation'
p15
aS'POINT.+'
p16
a(lp17
(lp18
(lp19
(lp20
S'mostEnergizedNeighbor'
p21
aaS'POINT.+'
p22
aS'target'
p23
a(lp24
S'currentVelocity'
p25
aS'POINT.*'
p26
aS'target'
p27
aS'POINT.*'
p28
aaS'POINT.*'
p29
aS'POINT.+'
p30
aaaS'POINT.*'
p31
aS'POINT.*'
p32
aS'target'
p33
aaS'POINT./'
p34
aS'target'
p35
aa(lp36
(lp37
S'POINT./'
p38
aa(lp39
(lp40
S'target'
p41
aS'POINT.*'
p42
aS'POINT./'
p43
aS'POINT.*'
p44
aaaS'currentVelocity'
p45
aS'POINT.+'
p46
aaS'target'
p47
aS'POINT./'
p48
asS'accel_x'
p49
F0
sS'accel_y'
p50
F0
sS'maxAccel'
p51
I2
sS'maxVel'
p52
F0.5
sS'age'
p53
I100
sS'gener'
p54
S'm'
sS'lastScale'
p55
F5.693686024622882
sS'energy'
p56
F0.019368602462288206
sb.(i__main__
Data_mobile
p1
(dp2
S'vel_y'
p3
F0.45516461668709524
sS'vel_x'
p4
F0.20694243575470372
sS'pos_x'
p5
F-121.56877775151969
sS'pos_y'
p6
F66.491225363231834
sS'isAlive'
p7
I01
sS'geno'
p8
(lp9
S'POINT./'
p10
aS'POINT./'
p11
a(lp12
(lp13
S'currentVelocity'
p14
aaS'separation'
p15
aS'POINT.+'
p16
a(lp17
(lp18
(lp19
(lp20
S'mostEnergizedNeighbor'
p21
aaS'POINT.+'
p22
aS'target'
p23
a(lp24
S'currentVelocity'
p25
aS'POINT.*'
p26
aS'target'
p27
aS'POINT.*'
p28
aaS'POINT.*'
p29
aS'POINT.+'
p30
aaaS'POINT.*'
p31
aS'POINT.*'
p32
aS'target'
p33
aaS'POINT./'
p34
aS'target'
p35
aa(lp36
(lp37
S'POINT./'
p38
aa(lp39
(lp40
S'target'
p41
aS'POINT.*'
p42
aS'POINT./'
p43
aS'POINT.*'
p44
aaaS'currentVelocity'
p45
aS'POINT.+'
p46
aaS'target'
p47
aS'POINT./'
p48
asS'accel_x'
p49
F0
sS'accel_y'
p50
F0
sS'maxAccel'
p51
I2
sS'maxVel'
p52
F0.5
sS'age'
p53
I100
sS'gener'
p54
S'm'
sS'lastScale'
p55
F5.693686024622882
sS'energy'
p56
F0.019368602462288206
sb.(i__main__
Data_mobile
p1
(dp2
S'vel_y'
p3
F-0.32572609635045613
sS'vel_x'
p4
F0.18696316917863848
sS'pos_x'
p5
F-92.060868110837532
sS'pos_y'
p6
F-63.566989244146399
sS'isAlive'
p7
I01
sS'geno'
p8
(lp9
S'POINT./'
p10
aS'POINT./'
p11
a(lp12
(lp13
S'currentVelocity'
p14
aaS'separation'
p15
aS'POINT.+'
p16
a(lp17
S'currentVelocity'
p18
aS'cohesion'
p19
aS'POINT.*'
p20
aS'target'
p21
aaS'POINT./'
p22
aS'POINT.*'
p23
aa(lp24
(lp25
S'POINT./'
p26
aa(lp27
(lp28
S'POINT.*'
p29
aS'POINT.*'
p30
aS'POINT./'
p31
aS'POINT.*'
p32
aaaS'currentVelocity'
p33
aS'POINT.+'
p34
aaS'target'
p35
aS'target'
p36
asS'accel_x'
p37
F0
sS'accel_y'
p38
F0
sS'maxAccel'
p39
I2
sS'maxVel'
p40
F0.5
sS'age'
p41
I0
sS'gener'
p42
S'm'
sS'lastScale'
p43
F5.5
sS'energy'
p44
F0.5
sb.(i__main__
Data_mobile
p1
(dp2
S'vel_y'
p3
F0.032491145484071803
sS'vel_x'
p4
F-0.46967095787631219
sS'pos_x'
p5
F-133.56157117783175
sS'pos_y'
p6
F-77.092822429724478
sS'isAlive'
p7
I01
sS'geno'
p8
(lp9
S'POINT./'
p10
aS'POINT./'
p11
a(lp12
S'POINT./'
p13
aS'separation'
p14
aS'POINT.+'
p15
a(lp16
(lp17
(lp18
(lp19
S'mostEnergizedNeighbor'
p20
aaS'POINT.+'
p21
aS'target'
p22
a(lp23
S'currentVelocity'
p24
aS'POINT.*'
p25
a(lp26
(lp27
S'target'
p28
aaaS'POINT.*'
p29
aaS'POINT.*'
p30
aS'POINT.+'
p31
aaaS'POINT.*'
p32
aS'POINT.*'
p33
aS'target'
p34
aaS'POINT./'
p35
aS'target'
p36
aa(lp37
(lp38
S'POINT./'
p39
aa(lp40
(lp41
S'target'
p42
aS'POINT.*'
p43
aS'POINT./'
p44
aS'POINT.*'
p45
aaaS'currentVelocity'
p46
aS'POINT.+'
p47
aaS'target'
p48
aS'POINT./'
p49
asS'accel_x'
p50
F0
sS'accel_y'
p51
F0
sS'maxAccel'
p52
I2
sS'maxVel'
p53
F0.5
sS'age'
p54
I0
sS'gener'
p55
S'm'
sS'lastScale'
p56
F5.5
sS'energy'
p57
F0.5
sb.(i__main__
Data_mobile
p1
(dp2
S'vel_y'
p3
F-0.1030127873063296
sS'vel_x'
p4
F-0.24237637536026743
sS'pos_x'
p5
F-67.448036128912861
sS'pos_y'
p6
F84.769344295003677
sS'isAlive'
p7
I01
sS'geno'
p8
(lp9
S'POINT.*'
p10
aS'POINT.*'
p11
aS'cohesion'
p12
a(lp13
S'POINT.*'
p14
aS'target'
p15
aS'target'
p16
aa(lp17
S'target'
p18
aa(lp19
S'target'
p20
aasS'accel_x'
p21
F0
sS'accel_y'
p22
F0
sS'maxAccel'
p23
I2
sS'maxVel'
p24
F0.5
sS'age'
p25
I0
sS'gener'
p26
S'm'
sS'lastScale'
p27
F5.5
sS'energy'
p28
F0.5
sb.(i__main__
Data_mobile
p1
(dp2
S'vel_y'
p3
F-0.03296868297991154
sS'vel_x'
p4
F-0.081618445871478165
sS'pos_x'
p5
F-156.51697632993893
sS'pos_y'
p6
F48.960662731006266
sS'isAlive'
p7
I01
sS'geno'
p8
(lp9
S'POINT./'
p10
aS'POINT./'
p11
a(lp12
(lp13
S'currentVelocity'
p14
aaS'separation'
p15
aS'POINT.+'
p16
a(lp17
(lp18
(lp19
(lp20
S'mostEnergizedNeighbor'
p21
aaS'POINT.+'
p22
aS'target'
p23
a(lp24
S'currentVelocity'
p25
aS'POINT.*'
p26
aS'target'
p27
aS'POINT.*'
p28
aaS'POINT.*'
p29
aS'POINT.+'
p30
aaaS'POINT.*'
p31
aS'POINT.*'
p32
a(lp33
S'target'
p34
aaaS'POINT./'
p35
aS'target'
p36
aa(lp37
(lp38
S'POINT.*'
p39
aa(lp40
(lp41
S'target'
p42
aS'POINT.*'
p43
aS'POINT./'
p44
aS'POINT.*'
p45
aaaS'currentVelocity'
p46
aS'POINT.+'
p47
aaS'target'
p48
aS'POINT./'
p49
asS'accel_x'
p50
F0
sS'accel_y'
p51
F0
sS'maxAccel'
p52
I2
sS'maxVel'
p53
F0.5
sS'age'
p54
I0
sS'gener'
p55
S'm'
sS'lastScale'
p56
F5.5
sS'energy'
p57
F0.5
sb.(i__main__
Data_mobile
p1
(dp2
S'vel_y'
p3
F0.44030575348849055
sS'vel_x'
p4
F-0.036627996572357227
sS'pos_x'
p5
F-143.84180893304492
sS'pos_y'
p6
F5.9148108464205738
sS'isAlive'
p7
I01
sS'geno'
p8
(lp9
S'POINT./'
p10
aS'POINT./'
p11
a(lp12
(lp13
S'separation'
p14
aaS'separation'
p15
aS'POINT.+'
p16
a(lp17
(lp18
(lp19
(lp20
S'mostEnergizedNeighbor'
p21
aaS'POINT.+'
p22
aS'target'
p23
a(lp24
S'currentVelocity'
p25
aS'POINT.*'
p26
a(lp27
S'target'
p28
aaS'POINT.*'
p29
aaS'POINT.*'
p30
aS'POINT.+'
p31
aaaS'POINT.*'
p32
aS'POINT.*'
p33
aS'target'
p34
aaS'POINT./'
p35
aS'target'
p36
aa(lp37
(lp38
S'POINT./'
p39
aa(lp40
(lp41
S'target'
p42
aS'POINT.*'
p43
aS'POINT./'
p44
aS'POINT.*'
p45
aaaS'currentVelocity'
p46
aS'POINT.+'
p47
aaS'target'
p48
aS'POINT./'
p49
asS'accel_x'
p50
F0
sS'accel_y'
p51
F0
sS'maxAccel'
p52
I2
sS'maxVel'
p53
F0.5
sS'age'
p54
I0
sS'gener'
p55
S'm'
sS'lastScale'
p56
F5.5
sS'energy'
p57
F0.5
sb.(i__main__
Data_mobile
p1
(dp2
S'vel_y'
p3
F-0.31858898587637802
sS'vel_x'
p4
F-0.041409375316339314
sS'pos_x'
p5
F-91.429959999333491
sS'pos_y'
p6
F56.676794760308169
sS'isAlive'
p7
I01
sS'geno'
p8
(lp9
S'POINT./'
p10
aS'POINT./'
p11
a(lp12
(lp13
S'currentVelocity'
p14
aaS'separation'
p15
aS'POINT.+'
p16
a(lp17
(lp18
(lp19
(lp20
S'mostEnergizedNeighbor'
p21
aaS'POINT.+'
p22
aS'target'
p23
a(lp24
S'currentVelocity'
p25
aS'POINT.*'
p26
aS'target'
p27
aS'POINT.*'
p28
aaS'POINT.*'
p29
aS'POINT.+'
p30
aaaS'POINT.*'
p31
aS'POINT.*'
p32
aS'target'
p33
aaS'POINT./'
p34
aS'target'
p35
aa(lp36
(lp37
S'POINT./'
p38
aa(lp39
(lp40
S'target'
p41
aS'POINT.*'
p42
aS'POINT./'
p43
aS'POINT.*'
p44
aaaS'currentVelocity'
p45
aS'POINT.+'
p46
aaS'POINT./'
p47
aS'POINT./'
p48
asS'accel_x'
p49
F0
sS'accel_y'
p50
F0
sS'maxAccel'
p51
I2
sS'maxVel'
p52
F0.5
sS'age'
p53
I0
sS'gener'
p54
S'm'
sS'lastScale'
p55
F5.5
sS'energy'
p56
F0.5
sb.(i__main__
Data_mobile
p1
(dp2
S'vel_y'
p3
F-0.44349534247509792
sS'vel_x'
p4
F0.21564219326608425
sS'pos_x'
p5
F-50.396056685648446
sS'pos_y'
p6
F76.747021096117464
sS'isAlive'
p7
I01
sS'geno'
p8
(lp9
(lp10
S'POINT.*'
p11
aS'target'
p12
aS'POINT.*'
p13
aaS'POINT./'
p14
a(lp15
(lp16
S'randV'
p17
aaS'separation'
p18
aS'POINT.+'
p19
a(lp20
(lp21
(lp22
(lp23
S'mostEnergizedNeighbor'
p24
aaS'POINT.+'
p25
aS'target'
p26
a(lp27
S'currentVelocity'
p28
aS'POINT.*'
p29
aS'target'
p30
aS'POINT.*'
p31
aaS'POINT.*'
p32
aS'POINT.+'
p33
aaaS'POINT.*'
p34
aS'POINT.*'
p35
aS'target'
p36
aaS'POINT./'
p37
aS'currentVelocity'
p38
aa(lp39
(lp40
S'POINT./'
p41
aa(lp42
(lp43
S'target'
p44
aS'POINT.*'
p45
aS'POINT./'
p46
aS'POINT.*'
p47
aaaS'currentVelocity'
p48
aS'POINT.+'
p49
aaS'target'
p50
aS'POINT./'
p51
asS'accel_x'
p52
F0
sS'accel_y'
p53
F0
sS'maxAccel'
p54
I2
sS'maxVel'
p55
F0.5
sS'age'
p56
I0
sS'gener'
p57
S'm'
sS'lastScale'
p58
F5.5
sS'energy'
p59
F0.5
sb.(i__main__
Data_mobile
p1
(dp2
S'vel_y'
p3
F-0.45666802482906077
sS'vel_x'
p4
F0.18754282610838027
sS'pos_x'
p5
F-84.027726174790189
sS'pos_y'
p6
F92.516738478281667
sS'isAlive'
p7
I01
sS'geno'
p8
(lp9
S'POINT.*'
p10
a(lp11
(lp12
S'mostEnergizedNeighbor'
p13
aaS'POINT.+'
p14
aS'POINT.+'
p15
a(lp16
S'target'
p17
aaS'POINT.*'
p18
aS'POINT.+'
p19
aaS'POINT.+'
p20
a(lp21
S'POINT.*'
p22
aS'target'
p23
aS'POINT.*'
p24
aa(lp25
S'target'
p26
aa(lp27
(lp28
S'POINT./'
p29
aa(lp30
S'POINT.+'
p31
aaS'currentVelocity'
p32
aS'POINT.+'
p33
aasS'accel_x'
p34
F0
sS'accel_y'
p35
F0
sS'maxAccel'
p36
I2
sS'maxVel'
p37
F0.5
sS'age'
p38
I0
sS'gener'
p39
S'm'
sS'lastScale'
p40
F5.5
sS'energy'
p41
F0.5
sb.(i__main__
Data_mobile
p1
(dp2
S'vel_y'
p3
F-0.088192136172891858
sS'vel_x'
p4
F0.10444212996299662
sS'pos_x'
p5
F-79.97748019377552
sS'pos_y'
p6
F-12.128952450047924
sS'isAlive'
p7
I01
sS'geno'
p8
(lp9
S'POINT./'
p10
aS'POINT./'
p11
a(lp12
(lp13
S'target'
p14
aaS'separation'
p15
aS'POINT.+'
p16
a(lp17
(lp18
(lp19
(lp20
S'target'
p21
aaS'POINT.+'
p22
aS'POINT.*'
p23
a(lp24
S'currentVelocity'
p25
aS'POINT.*'
p26
a(lp27
S'target'
p28
aaS'POINT.*'
p29
aaS'POINT.*'
p30
aS'POINT.+'
p31
aaaS'POINT.*'
p32
aS'POINT.*'
p33
aS'target'
p34
aaS'POINT./'
p35
aS'POINT.*'
p36
aa(lp37
(lp38
S'POINT./'
p39
aa(lp40
S'POINT.*'
p41
aaS'currentVelocity'
p42
aS'POINT.+'
p43
aaS'target'
p44
aS'target'
p45
asS'accel_x'
p46
F0
sS'accel_y'
p47
F0
sS'maxAccel'
p48
I2
sS'maxVel'
p49
F0.5
sS'age'
p50
I0
sS'gener'
p51
S'm'
sS'lastScale'
p52
F5.5
sS'energy'
p53
F0.5
sb.(i__main__
Data_mobile
p1
(dp2
S'vel_y'
p3
F-0.4080506393790414
sS'vel_x'
p4
F-0.28893528966179249
sS'pos_x'
p5
F-78.15960171415486
sS'pos_y'
p6
F-74.160352281285284
sS'isAlive'
p7
I01
sS'geno'
p8
(lp9
S'POINT./'
p10
aS'POINT./'
p11
a(lp12
(lp13
S'target'
p14
aaS'separation'
p15
aS'POINT.+'
p16
a(lp17
(lp18
(lp19
(lp20
S'target'
p21
aaS'currentVelocity'
p22
aS'currentVelocity'
p23
a(lp24
S'currentVelocity'
p25
aS'POINT.*'
p26
a(lp27
S'target'
p28
aaS'POINT.*'
p29
aaS'POINT.*'
p30
aS'POINT.+'
p31
aaaS'POINT.*'
p32
aS'POINT.*'
p33
aS'target'
p34
aaS'POINT./'
p35
aS'mostEnergizedNeighbor'
p36
aa(lp37
S'POINT.-'
p38
a(lp39
(lp40
S'POINT.*'
p41
aS'POINT.*'
p42
aS'POINT./'
p43
aS'POINT.*'
p44
aaaS'currentVelocity'
p45
aS'POINT.+'
p46
aaS'POINT./'
p47
aS'target'
p48
asS'accel_x'
p49
F0
sS'accel_y'
p50
F0
sS'maxAccel'
p51
I2
sS'maxVel'
p52
F0.5
sS'age'
p53
I0
sS'gener'
p54
S'm'
sS'lastScale'
p55
F5.5
sS'energy'
p56
F0.5
sb.(i__main__
Data_mobile
p1
(dp2
S'vel_y'
p3
F-0.28524930364371015
sS'vel_x'
p4
F0.41013699864798508
sS'pos_x'
p5
F-142.05216215310156
sS'pos_y'
p6
F58.965573667553301
sS'isAlive'
p7
I01
sS'geno'
p8
(lp9
S'POINT./'
p10
aS'POINT./'
p11
a(lp12
(lp13
S'currentVelocity'
p14
aaS'separation'
p15
aS'POINT.+'
p16
aS'POINT.+'
p17
aS'POINT./'
p18
aS'target'
p19
aa(lp20
(lp21
S'currentVelocity'
p22
aa(lp23
(lp24
S'target'
p25
aS'POINT.*'
p26
aS'POINT./'
p27
aS'POINT.*'
p28
aaaS'currentVelocity'
p29
aS'POINT.+'
p30
aaS'target'
p31
aS'POINT./'
p32
asS'accel_x'
p33
F0
sS'accel_y'
p34
F0
sS'maxAccel'
p35
I2
sS'maxVel'
p36
F0.5
sS'age'
p37
I0
sS'gener'
p38
S'm'
sS'lastScale'
p39
F5.5
sS'energy'
p40
F0.5
sb.(i__main__
Data_mobile
p1
(dp2
S'vel_y'
p3
F-0.31516114032259629
sS'vel_x'
p4
F-0.22084926978417951
sS'pos_x'
p5
F39.646847909526514
sS'pos_y'
p6
F-0.52438938781427424
sS'isAlive'
p7
I01
sS'geno'
p8
(lp9
S'POINT./'
p10
aS'POINT./'
p11
a(lp12
(lp13
S'currentVelocity'
p14
aaS'separation'
p15
aS'POINT.+'
p16
a(lp17
(lp18
(lp19
(lp20
S'mostEnergizedNeighbor'
p21
aaS'POINT.+'
p22
aS'target'
p23
a(lp24
S'currentVelocity'
p25
aS'POINT.*'
p26
aS'target'
p27
aS'POINT.*'
p28
aaS'POINT./'
p29
aS'POINT.+'
p30
aaaS'POINT.*'
p31
aS'POINT.*'
p32
aS'target'
p33
aaS'target'
p34
aS'target'
p35
aa(lp36
(lp37
S'POINT./'
p38
aa(lp39
(lp40
S'target'
p41
aS'POINT.*'
p42
aS'POINT./'
p43
aS'POINT.*'
p44
aaaS'currentVelocity'
p45
aS'POINT.+'
p46
aaS'target'
p47
aS'POINT./'
p48
asS'accel_x'
p49
F0
sS'accel_y'
p50
F0
sS'maxAccel'
p51
I2
sS'maxVel'
p52
F0.5
sS'age'
p53
I0
sS'gener'
p54
S'm'
sS'lastScale'
p55
F5.5
sS'energy'
p56
F0.5
sb.(i__main__
Data_mobile
p1
(dp2
S'vel_y'
p3
F0.01140223092484521
sS'vel_x'
p4
F0.27660320980098624
sS'pos_x'
p5
F-59.059418954995216
sS'pos_y'
p6
F-14.676027405967162
sS'isAlive'
p7
I01
sS'geno'
p8
(lp9
S'POINT./'
p10
aS'POINT./'
p11
a(lp12
(lp13
S'POINT.*'
p14
aaS'separation'
p15
aS'POINT.+'
p16
aS'POINT.+'
p17
aS'POINT./'
p18
aS'target'
p19
aa(lp20
(lp21
S'POINT./'
p22
aa(lp23
(lp24
S'target'
p25
aS'POINT.*'
p26
aS'POINT./'
p27
aS'POINT.*'
p28
aaaS'currentVelocity'
p29
aS'POINT.+'
p30
aaS'target'
p31
aS'POINT./'
p32
asS'accel_x'
p33
F0
sS'accel_y'
p34
F0
sS'maxAccel'
p35
I2
sS'maxVel'
p36
F0.5
sS'age'
p37
I0
sS'gener'
p38
S'm'
sS'lastScale'
p39
F5.5
sS'energy'
p40
F0.5
sb.(i__main__
Data_mobile
p1
(dp2
S'vel_y'
p3
F-0.046440397001837316
sS'vel_x'
p4
F-0.055705388142313426
sS'pos_x'
p5
F-85.813955084352202
sS'pos_y'
p6
F93.608983313944478
sS'isAlive'
p7
I01
sS'geno'
p8
(lp9
(lp10
S'POINT.*'
p11
aaS'POINT./'
p12
a(lp13
S'cohesion'
p14
a(lp15
(lp16
S'target'
p17
aaaS'POINT.+'
p18
a(lp19
(lp20
S'POINT.*'
p21
aaS'POINT.*'
p22
a(lp23
S'target'
p24
aaS'mostEnergizedNeighbor'
p25
aaS'POINT./'
p26
aS'POINT.*'
p27
aa(lp28
S'POINT./'
p29
aS'POINT.*'
p30
aS'POINT./'
p31
a(lp32
S'currentVelocity'
p33
aS'POINT./'
p34
aS'target'
p35
a(lp36
(lp37
S'POINT./'
p38
aaS'mostEnergizedNeighbor'
p39
aS'POINT.*'
p40
aS'mostEnergizedNeighbor'
p41
aaS'target'
p42
a(lp43
S'POINT.*'
p44
aaaa(lp45
S'POINT.*'
p46
aa(lp47
S'POINT./'
p48
aasS'accel_x'
p49
F0
sS'accel_y'
p50
F0
sS'maxAccel'
p51
I2
sS'maxVel'
p52
F0.5
sS'age'
p53
I0
sS'gener'
p54
S'm'
sS'lastScale'
p55
F5.5
sS'energy'
p56
F0.5
sb.(i__main__
Data_mobile
p1
(dp2
S'vel_y'
p3
F0.37884893993975116
sS'vel_x'
p4
F-0.27981746406301677
sS'pos_x'
p5
F-115.01431394241433
sS'pos_y'
p6
F79.285311419412011
sS'isAlive'
p7
I01
sS'geno'
p8
(lp9
S'POINT.*'
p10
a(lp11
(lp12
S'mostEnergizedNeighbor'
p13
aaS'POINT.+'
p14
aS'POINT.+'
p15
a(lp16
S'target'
p17
aaS'POINT.*'
p18
aS'POINT.+'
p19
aaS'POINT.+'
p20
a(lp21
S'POINT.*'
p22
aS'target'
p23
aS'POINT.*'
p24
aa(lp25
S'target'
p26
aa(lp27
(lp28
S'POINT./'
p29
aa(lp30
(lp31
S'POINT.*'
p32
aS'POINT.*'
p33
aS'POINT./'
p34
aS'POINT.*'
p35
aaaS'currentVelocity'
p36
aS'POINT.+'
p37
aasS'accel_x'
p38
F0
sS'accel_y'
p39
F0
sS'maxAccel'
p40
I2
sS'maxVel'
p41
F0.5
sS'age'
p42
I0
sS'gener'
p43
S'm'
sS'lastScale'
p44
F5.5
sS'energy'
p45
F0.5
sb.(i__main__
Data_mobile
p1
(dp2
S'vel_y'
p3
F-0.083485128924617263
sS'vel_x'
p4
F0.10372783026449228
sS'pos_x'
p5
F-87.264718390916272
sS'pos_y'
p6
F85.509302357009261
sS'isAlive'
p7
I01
sS'geno'
p8
(lp9
S'POINT./'
p10
aS'POINT./'
p11
a(lp12
(lp13
S'currentVelocity'
p14
aaS'POINT./'
p15
aS'POINT.+'
p16
a(lp17
(lp18
(lp19
(lp20
S'mostEnergizedNeighbor'
p21
aaS'POINT.+'
p22
aS'target'
p23
a(lp24
S'currentVelocity'
p25
aS'POINT.*'
p26
a(lp27
S'target'
p28
aaS'POINT.*'
p29
aaS'POINT.*'
p30
aS'POINT.+'
p31
aaaS'POINT.*'
p32
aS'POINT.*'
p33
aS'target'
p34
aaS'POINT./'
p35
aS'target'
p36
aa(lp37
(lp38
S'POINT./'
p39
aa(lp40
(lp41
S'target'
p42
aS'POINT.*'
p43
aS'POINT./'
p44
aS'POINT.*'
p45
aaaS'currentVelocity'
p46
aS'POINT.+'
p47
aaS'POINT./'
p48
aS'POINT./'
p49
asS'accel_x'
p50
F0
sS'accel_y'
p51
F0
sS'maxAccel'
p52
I2
sS'maxVel'
p53
F0.5
sS'age'
p54
I0
sS'gener'
p55
S'm'
sS'lastScale'
p56
F5.5
sS'energy'
p57
F0.5
sb.(i__main__
Data_mobile
p1
(dp2
S'vel_y'
p3
F-0.39855658456815085
sS'vel_x'
p4
F-0.30185159763146374
sS'pos_x'
p5
F-72.679988016535972
sS'pos_y'
p6
F-69.968942713087969
sS'isAlive'
p7
I01
sS'geno'
p8
(lp9
S'POINT./'
p10
aS'POINT./'
p11
a(lp12
(lp13
S'currentVelocity'
p14
aaS'separation'
p15
aS'POINT.+'
p16
a(lp17
(lp18
(lp19
(lp20
S'mostEnergizedNeighbor'
p21
aaS'POINT.+'
p22
aS'target'
p23
a(lp24
S'currentVelocity'
p25
aS'POINT.*'
p26
aS'target'
p27
aS'POINT.*'
p28
aaS'POINT.*'
p29
aS'POINT.+'
p30
aaaS'POINT.*'
p31
aS'POINT.*'
p32
aS'target'
p33
aaS'target'
p34
aS'target'
p35
aa(lp36
(lp37
S'POINT./'
p38
aa(lp39
(lp40
S'target'
p41
aS'POINT.*'
p42
aS'POINT./'
p43
aS'POINT.*'
p44
aaaS'currentVelocity'
p45
aS'POINT.+'
p46
aaS'target'
p47
aS'target'
p48
asS'accel_x'
p49
F0
sS'accel_y'
p50
F0
sS'maxAccel'
p51
I2
sS'maxVel'
p52
F0.5
sS'age'
p53
I0
sS'gener'
p54
S'm'
sS'lastScale'
p55
F5.5
sS'energy'
p56
F0.5
sb.(i__main__
Data_mobile
p1
(dp2
S'vel_y'
p3
F-0.073939364470632041
sS'vel_x'
p4
F0.34201766915110959
sS'pos_x'
p5
F-92.331767610019909
sS'pos_y'
p6
F95.301064019462899
sS'isAlive'
p7
I01
sS'geno'
p8
(lp9
(lp10
(lp11
S'target'
p12
aaaS'POINT.+'
p13
a(lp14
(lp15
S'currentVelocity'
p16
aa(lp17
(lp18
S'target'
p19
aaaS'POINT.+'
p20
a(lp21
(lp22
S'target'
p23
aS'POINT.*'
p24
aS'POINT./'
p25
aS'POINT.*'
p26
aaaS'POINT./'
p27
aS'target'
p28
aa(lp29
S'currentVelocity'
p30
aS'POINT.*'
p31
aS'target'
p32
aS'POINT.*'
p33
aa(lp34
S'POINT.*'
p35
aa(lp36
S'target'
p37
aasS'accel_x'
p38
F0
sS'accel_y'
p39
F0
sS'maxAccel'
p40
I2
sS'maxVel'
p41
F0.5
sS'age'
p42
I0
sS'gener'
p43
S'm'
sS'lastScale'
p44
F5.5
sS'energy'
p45
F0.5
sb.(i__main__
Data_mobile
p1
(dp2
S'vel_y'
p3
F0.15387209220874853
sS'vel_x'
p4
F-0.42351909238334917
sS'pos_x'
p5
F-128.38911698091249
sS'pos_y'
p6
F-70.504730984020782
sS'isAlive'
p7
I01
sS'geno'
p8
(lp9
S'POINT./'
p10
aS'POINT./'
p11
aS'target'
p12
a(lp13
(lp14
S'POINT./'
p15
aa(lp16
(lp17
S'target'
p18
aS'POINT.*'
p19
aS'POINT./'
p20
aS'POINT.*'
p21
aaaS'currentVelocity'
p22
aS'mostEnergizedNeighbor'
p23
aaS'target'
p24
aS'POINT./'
p25
asS'accel_x'
p26
F0
sS'accel_y'
p27
F0
sS'maxAccel'
p28
I2
sS'maxVel'
p29
F0.5
sS'age'
p30
I0
sS'gener'
p31
S'm'
sS'lastScale'
p32
F5.5
sS'energy'
p33
F0.5
sb.(i__main__
Data_mobile
p1
(dp2
S'vel_y'
p3
F0.48035963065023907
sS'vel_x'
p4
F-0.070273773841639631
sS'pos_x'
p5
F-138.95231993123301
sS'pos_y'
p6
F14.22346991690325
sS'isAlive'
p7
I01
sS'geno'
p8
(lp9
S'POINT./'
p10
aS'POINT./'
p11
a(lp12
(lp13
S'currentVelocity'
p14
aaS'separation'
p15
aS'POINT.+'
p16
aS'POINT.+'
p17
aS'POINT./'
p18
aS'target'
p19
aa(lp20
(lp21
S'POINT./'
p22
aa(lp23
(lp24
S'target'
p25
aS'POINT.*'
p26
aS'POINT.*'
p27
aS'POINT.*'
p28
aaaS'currentVelocity'
p29
aS'POINT.+'
p30
aaS'target'
p31
aS'POINT./'
p32
asS'accel_x'
p33
F0
sS'accel_y'
p34
F0
sS'maxAccel'
p35
I2
sS'maxVel'
p36
F0.5
sS'age'
p37
I0
sS'gener'
p38
S'm'
sS'lastScale'
p39
F5.5
sS'energy'
p40
F0.5
sb.(i__main__
Data_mobile
p1
(dp2
S'vel_y'
p3
F-0.22967590923789327
sS'vel_x'
p4
F-0.35371926577875173
sS'pos_x'
p5
F-105.26623737908668
sS'pos_y'
p6
F53.704627657380001
sS'isAlive'
p7
I01
sS'geno'
p8
(lp9
S'target'
p10
aS'POINT.*'
p11
aS'POINT./'
p12
aS'POINT.*'
p13
asS'accel_x'
p14
F0
sS'accel_y'
p15
F0
sS'maxAccel'
p16
I2
sS'maxVel'
p17
F0.5
sS'age'
p18
I0
sS'gener'
p19
S'm'
sS'lastScale'
p20
F5.5
sS'energy'
p21
F0.5
sb.(i__main__
Data_mobile
p1
(dp2
S'vel_y'
p3
F-0.32156197259878938
sS'vel_x'
p4
F-0.22548952589876703
sS'pos_x'
p5
F-10.344208156850687
sS'pos_y'
p6
F-29.449514392700188
sS'isAlive'
p7
I01
sS'geno'
p8
(lp9
(lp10
S'randV'
p11
aaS'POINT./'
p12
aS'target'
p13
aS'target'
p14
a(lp15
S'target'
p16
aS'POINT./'
p17
a(lp18
(lp19
S'POINT./'
p20
aa(lp21
(lp22
S'target'
p23
aS'POINT.*'
p24
aS'POINT./'
p25
aS'POINT.*'
p26
aaaS'currentVelocity'
p27
aS'POINT.+'
p28
aa(lp29
S'currentVelocity'
p30
aaS'target'
p31
aS'POINT.*'
p32
aaS'POINT.*'
p33
asS'accel_x'
p34
F0
sS'accel_y'
p35
F0
sS'maxAccel'
p36
I2
sS'maxVel'
p37
F0.5
sS'age'
p38
I0
sS'gener'
p39
S'm'
sS'lastScale'
p40
F5.5
sS'energy'
p41
F0.5
sb.(i__main__
Data_mobile
p1
(dp2
S'vel_y'
p3
F0.18898207372991085
sS'vel_x'
p4
F-0.28025673900186626
sS'pos_x'
p5
F-62.51474372848925
sS'pos_y'
p6
F40.343888999941221
sS'isAlive'
p7
I01
sS'geno'
p8
(lp9
S'POINT./'
p10
aS'POINT./'
p11
a(lp12
(lp13
S'currentVelocity'
p14
aaS'separation'
p15
aS'POINT.+'
p16
a(lp17
(lp18
(lp19
(lp20
S'POINT.*'
p21
aaS'target'
p22
aS'target'
p23
a(lp24
S'currentVelocity'
p25
aS'POINT.*'
p26
aS'target'
p27
aS'POINT.*'
p28
aaS'POINT.*'
p29
aS'POINT.+'
p30
aaaS'POINT.*'
p31
aS'POINT.*'
p32
aS'target'
p33
aaS'POINT./'
p34
aS'target'
p35
aa(lp36
(lp37
S'POINT./'
p38
aaS'POINT.*'
p39
aS'currentVelocity'
p40
aS'POINT.+'
p41
aaS'target'
p42
aS'POINT./'
p43
asS'accel_x'
p44
F0
sS'accel_y'
p45
F0
sS'maxAccel'
p46
I2
sS'maxVel'
p47
F0.5
sS'age'
p48
I50
sS'gener'
p49
S'm'
sS'lastScale'
p50
F5.5
sS'energy'
p51
I0
sb.(i__main__
Data_mobile
p1
(dp2
S'vel_y'
p3
F-0.12257627209608378
sS'vel_x'
p4
F0.23060310272858409
sS'pos_x'
p5
F-80.899654994533151
sS'pos_y'
p6
F63.248639337041055
sS'isAlive'
p7
I01
sS'geno'
p8
(lp9
(lp10
(lp11
S'target'
p12
aaaS'POINT./'
p13
a(lp14
(lp15
S'currentVelocity'
p16
aa(lp17
(lp18
S'POINT./'
p19
aaaS'POINT.+'
p20
a(lp21
(lp22
S'POINT.*'
p23
aaS'alignment'
p24
aS'currentVelocity'
p25
aS'target'
p26
aaS'POINT./'
p27
aS'target'
p28
aa(lp29
S'currentVelocity'
p30
aS'POINT./'
p31
aS'target'
p32
aS'POINT.*'
p33
aa(lp34
S'POINT.*'
p35
aa(lp36
S'target'
p37
aasS'accel_x'
p38
F0
sS'accel_y'
p39
F0
sS'maxAccel'
p40
I2
sS'maxVel'
p41
F0.5
sS'age'
p42
I50
sS'gener'
p43
S'm'
sS'lastScale'
p44
F5.5
sS'energy'
p45
I0
sb.(i__main__
Data_mobile
p1
(dp2
S'vel_y'
p3
F0.24670830117072379
sS'vel_x'
p4
F-0.21923518900889422
sS'pos_x'
p5
F-116.38457436175295
sS'pos_y'
p6
F-5.4345350362626803
sS'isAlive'
p7
I01
sS'geno'
p8
(lp9
S'POINT./'
p10
aS'POINT./'
p11
a(lp12
(lp13
S'currentVelocity'
p14
aaS'separation'
p15
aS'POINT.+'
p16
a(lp17
(lp18
(lp19
(lp20
S'mostEnergizedNeighbor'
p21
aaS'POINT.+'
p22
aS'target'
p23
a(lp24
S'currentVelocity'
p25
aS'POINT.*'
p26
a(lp27
(lp28
S'target'
p29
aaaS'POINT.*'
p30
aaS'POINT.*'
p31
aS'POINT.+'
p32
aaaS'POINT.*'
p33
aS'POINT.*'
p34
aS'target'
p35
aaS'POINT./'
p36
aS'target'
p37
aa(lp38
(lp39
S'POINT./'
p40
aa(lp41
S'POINT./'
p42
aaS'currentVelocity'
p43
aS'POINT.+'
p44
aaS'target'
p45
aS'POINT./'
p46
asS'accel_x'
p47
F0
sS'accel_y'
p48
F0
sS'maxAccel'
p49
I2
sS'maxVel'
p50
F0.5
sS'age'
p51
I50
sS'gener'
p52
S'm'
sS'lastScale'
p53
F5.5
sS'energy'
p54
I0
sb.(i__main__
Data_mobile
p1
(dp2
S'vel_y'
p3
I0
sS'vel_x'
p4
I0
sS'pos_x'
p5
I-9579
sS'pos_y'
p6
I9779
sS'isAlive'
p7
I00
sS'geno'
p8
(lp9
S'POINT./'
p10
aS'POINT./'
p11
a(lp12
(lp13
S'currentVelocity'
p14
aaS'separation'
p15
aS'POINT.+'
p16
a(lp17
(lp18
(lp19
(lp20
S'mostEnergizedNeighbor'
p21
aaS'POINT.+'
p22
aS'POINT.*'
p23
a(lp24
S'currentVelocity'
p25
aS'POINT.*'
p26
aS'target'
p27
aS'POINT.*'
p28
aaS'POINT.*'
p29
aS'POINT.+'
p30
aaaS'POINT.*'
p31
aS'POINT.*'
p32
aS'target'
p33
aaS'POINT./'
p34
aS'target'
p35
aa(lp36
(lp37
S'POINT./'
p38
aaS'POINT.*'
p39
aS'currentVelocity'
p40
aS'POINT.+'
p41
aaS'target'
p42
aS'POINT./'
p43
asS'accel_x'
p44
F0
sS'accel_y'
p45
F0
sS'maxAccel'
p46
I2
sS'maxVel'
p47
F0.5
sS'age'
p48
I0
sS'gener'
p49
S'm'
sS'lastScale'
p50
F5.5
sS'energy'
p51
F0.5
sb.(i__main__
Data_mobile
p1
(dp2
S'vel_y'
p3
I0
sS'vel_x'
p4
I0
sS'pos_x'
p5
I-9579
sS'pos_y'
p6
I9779
sS'isAlive'
p7
I00
sS'geno'
p8
(lp9
S'POINT./'
p10
aS'POINT./'
p11
a(lp12
(lp13
S'currentVelocity'
p14
aaS'separation'
p15
aS'POINT.+'
p16
a(lp17
(lp18
(lp19
(lp20
S'mostEnergizedNeighbor'
p21
aaS'POINT.+'
p22
aS'target'
p23
a(lp24
S'currentVelocity'
p25
aS'POINT.*'
p26
aS'target'
p27
aS'POINT.*'
p28
aaS'POINT.*'
p29
aS'POINT.+'
p30
aaaS'POINT.*'
p31
aS'POINT.*'
p32
aS'target'
p33
aaS'POINT./'
p34
aS'POINT.*'
p35
aa(lp36
(lp37
S'POINT./'
p38
aa(lp39
(lp40
S'target'
p41
aS'POINT.*'
p42
aS'POINT./'
p43
aS'POINT.*'
p44
aaaS'currentVelocity'
p45
aS'POINT.+'
p46
aaS'target'
p47
aS'POINT./'
p48
asS'accel_x'
p49
F0
sS'accel_y'
p50
F0
sS'maxAccel'
p51
I2
sS'maxVel'
p52
F0.5
sS'age'
p53
I0
sS'gener'
p54
S'm'
sS'lastScale'
p55
F5.5
sS'energy'
p56
F0.5
sb.(i__main__
Data_mobile
p1
(dp2
S'vel_y'
p3
I0
sS'vel_x'
p4
I0
sS'pos_x'
p5
I-9579
sS'pos_y'
p6
I9779
sS'isAlive'
p7
I00
sS'geno'
p8
(lp9
S'POINT./'
p10
aS'POINT./'
p11
a(lp12
(lp13
S'currentVelocity'
p14
aaS'separation'
p15
aS'POINT.+'
p16
a(lp17
(lp18
(lp19
(lp20
S'POINT.*'
p21
aaS'POINT.+'
p22
aS'target'
p23
a(lp24
S'currentVelocity'
p25
aS'POINT.*'
p26
aS'target'
p27
aS'POINT.*'
p28
aaS'POINT.*'
p29
aS'POINT.+'
p30
aaaS'POINT.*'
p31
aS'POINT.*'
p32
aS'target'
p33
aaS'POINT./'
p34
aS'target'
p35
aa(lp36
(lp37
S'POINT./'
p38
aaS'POINT.*'
p39
aS'currentVelocity'
p40
aS'POINT.+'
p41
aaS'target'
p42
aS'POINT./'
p43
asS'accel_x'
p44
F0
sS'accel_y'
p45
F0
sS'maxAccel'
p46
I2
sS'maxVel'
p47
F0.5
sS'age'
p48
I0
sS'gener'
p49
S'm'
sS'lastScale'
p50
F5.5
sS'energy'
p51
F0.5
sb.(i__main__
Data_mobile
p1
(dp2
S'vel_y'
p3
I0
sS'vel_x'
p4
I0
sS'pos_x'
p5
I-9579
sS'pos_y'
p6
I9779
sS'isAlive'
p7
I00
sS'geno'
p8
(lp9
S'POINT./'
p10
aS'POINT./'
p11
a(lp12
(lp13
S'currentVelocity'
p14
aaS'separation'
p15
aS'POINT.+'
p16
a(lp17
(lp18
(lp19
(lp20
S'mostEnergizedNeighbor'
p21
aaS'POINT.+'
p22
aS'target'
p23
a(lp24
S'currentVelocity'
p25
aS'POINT.*'
p26
a(lp27
(lp28
S'target'
p29
aaaS'POINT.*'
p30
aaS'POINT.*'
p31
aS'target'
p32
aaaS'POINT.*'
p33
aS'POINT.*'
p34
aS'target'
p35
aaS'POINT./'
p36
aS'target'
p37
aa(lp38
(lp39
S'POINT./'
p40
aa(lp41
(lp42
S'target'
p43
aS'POINT.*'
p44
aS'POINT./'
p45
aS'POINT.*'
p46
aaaS'currentVelocity'
p47
aS'POINT.+'
p48
aaS'target'
p49
aS'POINT./'
p50
asS'accel_x'
p51
F0
sS'accel_y'
p52
F0
sS'maxAccel'
p53
I2
sS'maxVel'
p54
F0.5
sS'age'
p55
I0
sS'gener'
p56
S'm'
sS'lastScale'
p57
F5.5
sS'energy'
p58
F0.5
sb.(i__main__
Data_mobile
p1
(dp2
S'vel_y'
p3
I0
sS'vel_x'
p4
I0
sS'pos_x'
p5
I-9579
sS'pos_y'
p6
I9779
sS'isAlive'
p7
I00
sS'geno'
p8
(lp9
S'POINT./'
p10
aS'POINT./'
p11
a(lp12
(lp13
S'target'
p14
aaS'separation'
p15
aS'POINT.+'
p16
a(lp17
(lp18
(lp19
(lp20
S'target'
p21
aaS'currentVelocity'
p22
aS'POINT.*'
p23
a(lp24
S'currentVelocity'
p25
aS'POINT.*'
p26
a(lp27
S'target'
p28
aaS'POINT.*'
p29
aaS'POINT.*'
p30
aS'POINT.+'
p31
aaaS'POINT.*'
p32
aS'POINT.*'
p33
aS'target'
p34
aaS'POINT./'
p35
aS'target'
p36
aa(lp37
(lp38
S'POINT./'
p39
aa(lp40
(lp41
S'POINT.*'
p42
aS'POINT.*'
p43
aS'POINT./'
p44
aS'POINT.*'
p45
aaaS'currentVelocity'
p46
aS'POINT.+'
p47
aaS'POINT./'
p48
aS'target'
p49
asS'accel_x'
p50
F0
sS'accel_y'
p51
F0
sS'maxAccel'
p52
I2
sS'maxVel'
p53
F0.5
sS'age'
p54
I0
sS'gener'
p55
S'm'
sS'lastScale'
p56
F5.5
sS'energy'
p57
F0.5
sb.(i__main__
Data_mobile
p1
(dp2
S'vel_y'
p3
I0
sS'vel_x'
p4
I0
sS'pos_x'
p5
I-9579
sS'pos_y'
p6
I9779
sS'isAlive'
p7
I00
sS'geno'
p8
(lp9
S'POINT./'
p10
aS'POINT./'
p11
a(lp12
(lp13
S'currentVelocity'
p14
aaS'separation'
p15
aS'POINT.+'
p16
a(lp17
(lp18
(lp19
(lp20
S'mostEnergizedNeighbor'
p21
aaS'POINT.+'
p22
aS'target'
p23
a(lp24
S'currentVelocity'
p25
aS'POINT.*'
p26
aS'target'
p27
aS'POINT.*'
p28
aaS'POINT.*'
p29
aS'POINT.+'
p30
aaaS'POINT.*'
p31
aS'POINT.*'
p32
aS'target'
p33
aaS'POINT./'
p34
aS'target'
p35
aa(lp36
(lp37
S'POINT./'
p38
aa(lp39
(lp40
S'target'
p41
aS'POINT.*'
p42
aS'currentVelocity'
p43
aS'POINT.*'
p44
aaaS'currentVelocity'
p45
aS'POINT.+'
p46
aaS'target'
p47
aS'POINT./'
p48
asS'accel_x'
p49
F0
sS'accel_y'
p50
F0
sS'maxAccel'
p51
I2
sS'maxVel'
p52
F0.5
sS'age'
p53
I0
sS'gener'
p54
S'm'
sS'lastScale'
p55
F5.5
sS'energy'
p56
F0.5
sb.(i__main__
Data_mobile
p1
(dp2
S'vel_y'
p3
I0
sS'vel_x'
p4
I0
sS'pos_x'
p5
I-9579
sS'pos_y'
p6
I9779
sS'isAlive'
p7
I00
sS'geno'
p8
(lp9
S'POINT./'
p10
aS'POINT./'
p11
a(lp12
(lp13
S'currentVelocity'
p14
aaS'separation'
p15
aS'POINT.+'
p16
a(lp17
(lp18
(lp19
(lp20
S'mostEnergizedNeighbor'
p21
aaS'POINT.+'
p22
aS'target'
p23
a(lp24
S'currentVelocity'
p25
aS'POINT.*'
p26
a(lp27
(lp28
S'target'
p29
aaaS'POINT.*'
p30
aaS'POINT.*'
p31
aS'POINT.+'
p32
aaaS'POINT.*'
p33
aS'POINT.*'
p34
aS'target'
p35
aaS'POINT./'
p36
aS'target'
p37
aa(lp38
(lp39
S'POINT./'
p40
aa(lp41
(lp42
S'mostEnergizedNeighbor'
p43
aaS'POINT.+'
p44
aS'POINT.*'
p45
a(lp46
S'randV'
p47
aS'POINT.*'
p48
aS'target'
p49
aS'POINT.*'
p50
aaS'POINT.*'
p51
aS'POINT.+'
p52
aaS'currentVelocity'
p53
aS'POINT.+'
p54
aaS'target'
p55
aS'POINT./'
p56
asS'accel_x'
p57
F0
sS'accel_y'
p58
F0
sS'maxAccel'
p59
I2
sS'maxVel'
p60
F0.5
sS'age'
p61
I0
sS'gener'
p62
S'm'
sS'lastScale'
p63
F5.5
sS'energy'
p64
F0.5
sb.(i__main__
Data_mobile
p1
(dp2
S'vel_y'
p3
I0
sS'vel_x'
p4
I0
sS'pos_x'
p5
I-9579
sS'pos_y'
p6
I9779
sS'isAlive'
p7
I00
sS'geno'
p8
(lp9
S'POINT./'
p10
aS'POINT./'
p11
a(lp12
(lp13
S'currentVelocity'
p14
aaS'separation'
p15
aS'POINT.+'
p16
a(lp17
(lp18
(lp19
(lp20
S'mostEnergizedNeighbor'
p21
aaS'POINT.+'
p22
aS'target'
p23
a(lp24
S'currentVelocity'
p25
aS'POINT.*'
p26
aS'target'
p27
aS'POINT.*'
p28
aaS'POINT.*'
p29
aS'target'
p30
aaaS'POINT.*'
p31
aS'POINT.*'
p32
aS'target'
p33
aaS'POINT./'
p34
aS'target'
p35
aa(lp36
(lp37
S'POINT./'
p38
aa(lp39
(lp40
S'target'
p41
aS'POINT.*'
p42
aS'POINT./'
p43
aS'POINT.*'
p44
aaaS'currentVelocity'
p45
aS'POINT.+'
p46
aaS'target'
p47
aS'POINT./'
p48
asS'accel_x'
p49
F0
sS'accel_y'
p50
F0
sS'maxAccel'
p51
I2
sS'maxVel'
p52
F0.5
sS'age'
p53
I0
sS'gener'
p54
S'm'
sS'lastScale'
p55
F5.5
sS'energy'
p56
F0.5
sb.(i__main__
Data_mobile
p1
(dp2
S'vel_y'
p3
I0
sS'vel_x'
p4
I0
sS'pos_x'
p5
I-9579
sS'pos_y'
p6
I9779
sS'isAlive'
p7
I00
sS'geno'
p8
(lp9
S'POINT./'
p10
aS'POINT./'
p11
a(lp12
(lp13
S'currentVelocity'
p14
aaS'separation'
p15
aS'POINT.+'
p16
a(lp17
(lp18
(lp19
(lp20
S'mostEnergizedNeighbor'
p21
aaS'POINT./'
p22
aS'target'
p23
a(lp24
S'currentVelocity'
p25
aS'POINT.*'
p26
aS'target'
p27
aS'POINT.*'
p28
aaS'POINT.*'
p29
aS'POINT.+'
p30
aaaS'POINT.*'
p31
aS'POINT.*'
p32
aS'target'
p33
aaS'POINT./'
p34
aS'target'
p35
aa(lp36
(lp37
S'POINT./'
p38
aaS'POINT.*'
p39
aS'currentVelocity'
p40
aS'POINT.+'
p41
aaS'target'
p42
aS'POINT./'
p43
asS'accel_x'
p44
F0
sS'accel_y'
p45
F0
sS'maxAccel'
p46
I2
sS'maxVel'
p47
F0.5
sS'age'
p48
I0
sS'gener'
p49
S'm'
sS'lastScale'
p50
F5.5
sS'energy'
p51
F0.5
sb.(i__main__
Data_mobile
p1
(dp2
S'vel_y'
p3
I0
sS'vel_x'
p4
I0
sS'pos_x'
p5
I-9579
sS'pos_y'
p6
I9779
sS'isAlive'
p7
I00
sS'geno'
p8
(lp9
S'POINT./'
p10
aS'POINT./'
p11
a(lp12
(lp13
S'currentVelocity'
p14
aaS'separation'
p15
aS'POINT.+'
p16
a(lp17
(lp18
(lp19
(lp20
S'mostEnergizedNeighbor'
p21
aaS'POINT.+'
p22
aS'target'
p23
a(lp24
S'currentVelocity'
p25
aS'POINT.*'
p26
aS'target'
p27
aS'POINT.*'
p28
aaS'POINT.*'
p29
aS'POINT.+'
p30
aaaS'POINT.*'
p31
aS'target'
p32
aS'target'
p33
aaS'POINT./'
p34
aS'target'
p35
aa(lp36
(lp37
S'POINT./'
p38
aa(lp39
(lp40
S'target'
p41
aS'POINT.*'
p42
aS'POINT./'
p43
aS'POINT.*'
p44
aaaS'currentVelocity'
p45
aS'POINT.+'
p46
aaS'target'
p47
aS'POINT./'
p48
asS'accel_x'
p49
F0
sS'accel_y'
p50
F0
sS'maxAccel'
p51
I2
sS'maxVel'
p52
F0.5
sS'age'
p53
I0
sS'gener'
p54
S'm'
sS'lastScale'
p55
F5.5
sS'energy'
p56
F0.5
sb.(i__main__
Data_mobile
p1
(dp2
S'vel_y'
p3
I0
sS'vel_x'
p4
I0
sS'pos_x'
p5
I-9579
sS'pos_y'
p6
I9779
sS'isAlive'
p7
I00
sS'geno'
p8
(lp9
S'POINT./'
p10
aS'POINT./'
p11
a(lp12
(lp13
S'currentVelocity'
p14
aaS'separation'
p15
aS'POINT.*'
p16
a(lp17
(lp18
(lp19
(lp20
S'mostEnergizedNeighbor'
p21
aaS'POINT.+'
p22
aS'POINT.*'
p23
a(lp24
S'currentVelocity'
p25
aS'POINT.*'
p26
aS'target'
p27
aS'POINT.*'
p28
aaS'POINT.*'
p29
aS'POINT.+'
p30
aaaS'POINT.*'
p31
aS'POINT.*'
p32
aS'target'
p33
aaS'POINT./'
p34
aS'target'
p35
aa(lp36
(lp37
S'POINT./'
p38
aaS'POINT.*'
p39
aS'currentVelocity'
p40
aS'POINT.+'
p41
aaS'target'
p42
aS'POINT./'
p43
asS'accel_x'
p44
F0
sS'accel_y'
p45
F0
sS'maxAccel'
p46
I2
sS'maxVel'
p47
F0.5
sS'age'
p48
I0
sS'gener'
p49
S'm'
sS'lastScale'
p50
F5.5
sS'energy'
p51
F0.5
sb.(i__main__
Data_mobile
p1
(dp2
S'vel_y'
p3
I0
sS'vel_x'
p4
I0
sS'pos_x'
p5
I-9579
sS'pos_y'
p6
I9779
sS'isAlive'
p7
I00
sS'geno'
p8
(lp9
(lp10
(lp11
S'target'
p12
aaaS'POINT./'
p13
a(lp14
S'currentVelocity'
p15
a(lp16
(lp17
S'target'
p18
aaaS'POINT.+'
p19
a(lp20
(lp21
S'POINT.*'
p22
aaS'alignment'
p23
aS'currentVelocity'
p24
aS'target'
p25
aaS'POINT./'
p26
aS'target'
p27
aa(lp28
S'currentVelocity'
p29
aS'POINT.*'
p30
aS'target'
p31
aS'POINT.*'
p32
aa(lp33
S'POINT.*'
p34
aa(lp35
S'target'
p36
aasS'accel_x'
p37
F0
sS'accel_y'
p38
F0
sS'maxAccel'
p39
I2
sS'maxVel'
p40
F0.5
sS'age'
p41
I0
sS'gener'
p42
S'm'
sS'lastScale'
p43
F5.5
sS'energy'
p44
F0.5
sb.(i__main__
Data_mobile
p1
(dp2
S'vel_y'
p3
I0
sS'vel_x'
p4
I0
sS'pos_x'
p5
I-9579
sS'pos_y'
p6
I9779
sS'isAlive'
p7
I00
sS'geno'
p8
(lp9
S'POINT./'
p10
aS'POINT./'
p11
a(lp12
(lp13
S'currentVelocity'
p14
aaS'separation'
p15
aS'POINT.+'
p16
a(lp17
(lp18
(lp19
(lp20
S'mostEnergizedNeighbor'
p21
aaS'POINT.+'
p22
aS'POINT.*'
p23
a(lp24
S'currentVelocity'
p25
aS'POINT.*'
p26
aS'target'
p27
aS'POINT.*'
p28
aaS'POINT.*'
p29
aS'POINT.+'
p30
aaaS'POINT.*'
p31
aS'POINT.*'
p32
aS'target'
p33
aaS'POINT./'
p34
aS'target'
p35
aa(lp36
(lp37
S'POINT./'
p38
aaS'POINT.*'
p39
aS'currentVelocity'
p40
aS'POINT.+'
p41
aaS'target'
p42
aS'POINT./'
p43
asS'accel_x'
p44
F0
sS'accel_y'
p45
F0
sS'maxAccel'
p46
I2
sS'maxVel'
p47
F0.5
sS'age'
p48
I0
sS'gener'
p49
S'm'
sS'lastScale'
p50
F5.5
sS'energy'
p51
F0.5
sb.(i__main__
Data_mobile
p1
(dp2
S'vel_y'
p3
I0
sS'vel_x'
p4
I0
sS'pos_x'
p5
I-9579
sS'pos_y'
p6
I9779
sS'isAlive'
p7
I00
sS'geno'
p8
(lp9
S'POINT./'
p10
aS'POINT./'
p11
a(lp12
(lp13
S'currentVelocity'
p14
aaS'separation'
p15
aS'POINT.+'
p16
a(lp17
(lp18
(lp19
(lp20
S'mostEnergizedNeighbor'
p21
aaS'POINT.+'
p22
aS'target'
p23
a(lp24
S'currentVelocity'
p25
aS'POINT.*'
p26
aS'target'
p27
aS'POINT.*'
p28
aaS'POINT.*'
p29
aS'POINT.+'
p30
aaaS'POINT.*'
p31
aS'POINT.*'
p32
aS'target'
p33
aaS'POINT./'
p34
aS'target'
p35
aa(lp36
(lp37
S'POINT./'
p38
aa(lp39
(lp40
S'target'
p41
aS'POINT.*'
p42
aS'POINT./'
p43
aS'POINT.*'
p44
aaaS'currentVelocity'
p45
aS'POINT.+'
p46
aaS'target'
p47
aS'POINT./'
p48
asS'accel_x'
p49
F0
sS'accel_y'
p50
F0
sS'maxAccel'
p51
I2
sS'maxVel'
p52
F0.5
sS'age'
p53
I0
sS'gener'
p54
S'm'
sS'lastScale'
p55
F5.5
sS'energy'
p56
F0.5
sb.(i__main__
Data_mobile
p1
(dp2
S'vel_y'
p3
I0
sS'vel_x'
p4
I0
sS'pos_x'
p5
I-9579
sS'pos_y'
p6
I9779
sS'isAlive'
p7
I00
sS'geno'
p8
(lp9
(lp10
(lp11
S'target'
p12
aaaS'POINT./'
p13
a(lp14
(lp15
S'currentVelocity'
p16
aa(lp17
(lp18
S'target'
p19
aaaS'POINT.+'
p20
a(lp21
(lp22
S'POINT.*'
p23
aaS'alignment'
p24
aS'currentVelocity'
p25
aS'target'
p26
aaS'POINT./'
p27
aS'target'
p28
aa(lp29
S'currentVelocity'
p30
aS'POINT.*'
p31
aS'target'
p32
aS'POINT.*'
p33
aa(lp34
S'POINT.*'
p35
aa(lp36
S'target'
p37
aasS'accel_x'
p38
F0
sS'accel_y'
p39
F0
sS'maxAccel'
p40
I2
sS'maxVel'
p41
F0.5
sS'age'
p42
I0
sS'gener'
p43
S'm'
sS'lastScale'
p44
F5.5
sS'energy'
p45
F0.5
sb.(i__main__
Data_mobile
p1
(dp2
S'vel_y'
p3
I0
sS'vel_x'
p4
I0
sS'pos_x'
p5
I-9579
sS'pos_y'
p6
I9779
sS'isAlive'
p7
I00
sS'geno'
p8
(lp9
S'POINT./'
p10
aS'target'
p11
aS'POINT./'
p12
aS'target'
p13
aS'target'
p14
aS'POINT./'
p15
asS'accel_x'
p16
F0
sS'accel_y'
p17
F0
sS'maxAccel'
p18
I2
sS'maxVel'
p19
F0.5
sS'age'
p20
I0
sS'gener'
p21
S'm'
sS'lastScale'
p22
F5.5
sS'energy'
p23
F0.5
sb.(i__main__
Data_mobile
p1
(dp2
S'vel_y'
p3
I0
sS'vel_x'
p4
I0
sS'pos_x'
p5
I-9579
sS'pos_y'
p6
I9779
sS'isAlive'
p7
I00
sS'geno'
p8
(lp9
S'POINT./'
p10
aS'POINT./'
p11
a(lp12
(lp13
S'target'
p14
aaS'separation'
p15
aS'POINT.+'
p16
a(lp17
(lp18
(lp19
(lp20
S'mostEnergizedNeighbor'
p21
aaS'POINT.+'
p22
aS'target'
p23
a(lp24
S'currentVelocity'
p25
aS'POINT.*'
p26
a(lp27
(lp28
S'target'
p29
aaaS'POINT.*'
p30
aaS'POINT.*'
p31
aS'POINT.+'
p32
aaaS'POINT.*'
p33
aS'POINT.*'
p34
aS'target'
p35
aaS'POINT./'
p36
aS'target'
p37
aa(lp38
(lp39
S'POINT./'
p40
aa(lp41
(lp42
S'target'
p43
a(lp44
S'target'
p45
aS'POINT.*'
p46
a(lp47
S'target'
p48
aaS'POINT.*'
p49
aaS'POINT./'
p50
aS'POINT.*'
p51
aaaS'currentVelocity'
p52
aS'POINT.+'
p53
aaS'target'
p54
aS'randV'
p55
asS'accel_x'
p56
F0
sS'accel_y'
p57
F0
sS'maxAccel'
p58
I2
sS'maxVel'
p59
F0.5
sS'age'
p60
I0
sS'gener'
p61
S'm'
sS'lastScale'
p62
F5.5
sS'energy'
p63
F0.5
sb.(i__main__
Data_mobile
p1
(dp2
S'vel_y'
p3
I0
sS'vel_x'
p4
I0
sS'pos_x'
p5
I-9579
sS'pos_y'
p6
I9779
sS'isAlive'
p7
I00
sS'geno'
p8
(lp9
S'POINT./'
p10
aS'POINT./'
p11
aS'POINT./'
p12
a(lp13
(lp14
S'POINT./'
p15
aa(lp16
(lp17
S'POINT.*'
p18
aS'POINT.*'
p19
aS'POINT./'
p20
aS'POINT.*'
p21
aaa(lp22
S'POINT.*'
p23
a(lp24
S'currentVelocity'
p25
a(lp26
(lp27
(lp28
(lp29
S'target'
p30
aaS'POINT.+'
p31
aS'POINT.*'
p32
a(lp33
S'currentVelocity'
p34
aS'POINT.*'
p35
a(lp36
S'target'
p37
aaS'POINT.*'
p38
aaS'POINT.*'
p39
aS'POINT.+'
p40
aaaS'POINT.*'
p41
aS'POINT.*'
p42
aS'target'
p43
aaS'target'
p44
aS'POINT.*'
p45
aaS'POINT.*'
p46
aaS'POINT.+'
p47
aa(lp48
S'target'
p49
aS'POINT.*'
p50
aS'POINT./'
p51
aS'POINT.*'
p52
aaS'POINT./'
p53
asS'accel_x'
p54
F0
sS'accel_y'
p55
F0
sS'maxAccel'
p56
I2
sS'maxVel'
p57
F0.5
sS'age'
p58
I0
sS'gener'
p59
S'm'
sS'lastScale'
p60
F5.5
sS'energy'
p61
F0.5
sb.(i__main__
Data_mobile
p1
(dp2
S'vel_y'
p3
I0
sS'vel_x'
p4
I0
sS'pos_x'
p5
I-9579
sS'pos_y'
p6
I9779
sS'isAlive'
p7
I00
sS'geno'
p8
(lp9
S'POINT./'
p10
aS'POINT./'
p11
aS'target'
p12
a(lp13
(lp14
(lp15
S'POINT./'
p16
aaa(lp17
(lp18
S'target'
p19
aS'POINT.*'
p20
aS'POINT./'
p21
aS'POINT.*'
p22
aaaS'currentVelocity'
p23
aS'POINT.+'
p24
aaS'target'
p25
aS'POINT./'
p26
asS'accel_x'
p27
F0
sS'accel_y'
p28
F0
sS'maxAccel'
p29
I2
sS'maxVel'
p30
F0.5
sS'age'
p31
I0
sS'gener'
p32
S'm'
sS'lastScale'
p33
F5.5
sS'energy'
p34
F0.5
sb.(i__main__
Data_mobile
p1
(dp2
S'vel_y'
p3
I0
sS'vel_x'
p4
I0
sS'pos_x'
p5
I-9579
sS'pos_y'
p6
I9779
sS'isAlive'
p7
I00
sS'geno'
p8
(lp9
S'POINT./'
p10
aS'POINT./'
p11
a(lp12
(lp13
S'currentVelocity'
p14
aaS'separation'
p15
aS'POINT.+'
p16
a(lp17
(lp18
(lp19
(lp20
S'mostEnergizedNeighbor'
p21
aaS'POINT.+'
p22
aS'target'
p23
a(lp24
S'currentVelocity'
p25
aS'POINT.*'
p26
aS'target'
p27
aS'POINT.*'
p28
aaS'POINT.*'
p29
aS'POINT.+'
p30
aaaS'POINT.*'
p31
aS'POINT.*'
p32
aS'target'
p33
aaS'target'
p34
aS'target'
p35
aa(lp36
(lp37
S'POINT./'
p38
aa(lp39
(lp40
(lp41
S'separation'
p42
aaS'currentVelocity'
p43
aS'randV'
p44
aaaS'currentVelocity'
p45
aS'POINT.+'
p46
aaS'POINT.*'
p47
aS'POINT./'
p48
asS'accel_x'
p49
F0
sS'accel_y'
p50
F0
sS'maxAccel'
p51
I2
sS'maxVel'
p52
F0.5
sS'age'
p53
I0
sS'gener'
p54
S'm'
sS'lastScale'
p55
F5.5
sS'energy'
p56
F0.5
sb.(i__main__
Data_mobile
p1
(dp2
S'vel_y'
p3
I0
sS'vel_x'
p4
I0
sS'pos_x'
p5
I-9579
sS'pos_y'
p6
I9779
sS'isAlive'
p7
I00
sS'geno'
p8
(lp9
S'POINT./'
p10
aS'POINT./'
p11
a(lp12
(lp13
S'currentVelocity'
p14
aaS'separation'
p15
aS'POINT.+'
p16
a(lp17
(lp18
(lp19
(lp20
S'POINT.+'
p21
aaS'POINT.+'
p22
aS'target'
p23
a(lp24
S'currentVelocity'
p25
aS'POINT.*'
p26
aS'target'
p27
aS'POINT.*'
p28
aaS'POINT.*'
p29
aS'POINT.+'
p30
aaaS'POINT.*'
p31
aS'POINT.*'
p32
aS'target'
p33
aaS'POINT./'
p34
aS'target'
p35
aa(lp36
(lp37
S'POINT./'
p38
aa(lp39
(lp40
S'target'
p41
aS'POINT.*'
p42
aS'POINT./'
p43
aS'POINT.*'
p44
aaaS'currentVelocity'
p45
aS'POINT.+'
p46
aaS'target'
p47
aS'POINT./'
p48
asS'accel_x'
p49
F0
sS'accel_y'
p50
F0
sS'maxAccel'
p51
I2
sS'maxVel'
p52
F0.5
sS'age'
p53
I0
sS'gener'
p54
S'm'
sS'lastScale'
p55
F5.5
sS'energy'
p56
F0.5
sb.(i__main__
Data_mobile
p1
(dp2
S'vel_y'
p3
I0
sS'vel_x'
p4
I0
sS'pos_x'
p5
I-9579
sS'pos_y'
p6
I9779
sS'isAlive'
p7
I00
sS'geno'
p8
(lp9
S'POINT./'
p10
aS'POINT./'
p11
a(lp12
(lp13
S'target'
p14
aaS'separation'
p15
aS'POINT.+'
p16
a(lp17
(lp18
(lp19
(lp20
S'mostEnergizedNeighbor'
p21
aaS'POINT.+'
p22
aS'target'
p23
a(lp24
S'currentVelocity'
p25
aS'POINT.*'
p26
a(lp27
(lp28
S'target'
p29
aaaS'POINT.*'
p30
aaS'POINT.*'
p31
aS'POINT.+'
p32
aaaS'POINT.*'
p33
aS'POINT.*'
p34
aS'target'
p35
aaS'POINT./'
p36
aS'target'
p37
aa(lp38
(lp39
S'POINT./'
p40
aa(lp41
(lp42
S'target'
p43
aS'POINT.*'
p44
a(lp45
S'target'
p46
aaS'POINT.*'
p47
aaaS'currentVelocity'
p48
aS'POINT.+'
p49
aaS'POINT.*'
p50
aS'POINT./'
p51
asS'accel_x'
p52
F0
sS'accel_y'
p53
F0
sS'maxAccel'
p54
I2
sS'maxVel'
p55
F0.5
sS'age'
p56
I0
sS'gener'
p57
S'm'
sS'lastScale'
p58
F5.5
sS'energy'
p59
F0.5
sb.(i__main__
Data_mobile
p1
(dp2
S'vel_y'
p3
I0
sS'vel_x'
p4
I0
sS'pos_x'
p5
I-9579
sS'pos_y'
p6
I9779
sS'isAlive'
p7
I00
sS'geno'
p8
(lp9
(lp10
S'POINT.*'
p11
aaS'POINT./'
p12
a(lp13
(lp14
S'POINT.*'
p15
aa(lp16
(lp17
S'target'
p18
aaaS'POINT.+'
p19
a(lp20
(lp21
S'POINT.*'
p22
aaS'POINT.*'
p23
aS'currentVelocity'
p24
aS'mostEnergizedNeighbor'
p25
aaS'POINT./'
p26
aS'target'
p27
aaS'POINT.*'
p28
a(lp29
S'POINT.*'
p30
aa(lp31
S'POINT./'
p32
aasS'accel_x'
p33
F0
sS'accel_y'
p34
F0
sS'maxAccel'
p35
I2
sS'maxVel'
p36
F0.5
sS'age'
p37
I0
sS'gener'
p38
S'm'
sS'lastScale'
p39
F5.5
sS'energy'
p40
F0.5
sb.(i__main__
Data_mobile
p1
(dp2
S'vel_y'
p3
I0
sS'vel_x'
p4
I0
sS'pos_x'
p5
I-9579
sS'pos_y'
p6
I9779
sS'isAlive'
p7
I00
sS'geno'
p8
(lp9
(lp10
S'target'
p11
aa(lp12
(lp13
S'target'
p14
aaS'POINT./'
p15
a(lp16
(lp17
S'POINT./'
p18
aa(lp19
(lp20
S'target'
p21
aS'POINT.*'
p22
a(lp23
S'target'
p24
aaS'POINT.*'
p25
aaaS'currentVelocity'
p26
aS'POINT.+'
p27
aaS'target'
p28
aS'target'
p29
aS'POINT.*'
p30
aaS'target'
p31
aS'POINT.*'
p32
aS'target'
p33
aS'POINT.*'
p34
asS'accel_x'
p35
F0
sS'accel_y'
p36
F0
sS'maxAccel'
p37
I2
sS'maxVel'
p38
F0.5
sS'age'
p39
I0
sS'gener'
p40
S'm'
sS'lastScale'
p41
F5.5
sS'energy'
p42
F0.5
sb.(i__main__
Data_mobile
p1
(dp2
S'vel_y'
p3
I0
sS'vel_x'
p4
I0
sS'pos_x'
p5
I-9579
sS'pos_y'
p6
I9779
sS'isAlive'
p7
I00
sS'geno'
p8
(lp9
S'POINT./'
p10
aS'POINT./'
p11
a(lp12
(lp13
S'target'
p14
aaS'separation'
p15
aS'POINT.+'
p16
a(lp17
(lp18
(lp19
(lp20
S'target'
p21
aaS'POINT.+'
p22
aS'POINT.*'
p23
a(lp24
S'currentVelocity'
p25
aS'POINT.*'
p26
aS'target'
p27
aS'POINT.*'
p28
aaS'POINT.*'
p29
aS'POINT.+'
p30
aaaS'POINT.*'
p31
aS'POINT.*'
p32
aS'target'
p33
aaS'POINT./'
p34
aS'target'
p35
aa(lp36
(lp37
S'POINT./'
p38
aa(lp39
(lp40
S'POINT.*'
p41
aS'POINT.*'
p42
aS'POINT./'
p43
aS'POINT.*'
p44
aaaS'currentVelocity'
p45
aS'POINT.+'
p46
aaS'target'
p47
aS'target'
p48
asS'accel_x'
p49
F0
sS'accel_y'
p50
F0
sS'maxAccel'
p51
I2
sS'maxVel'
p52
F0.5
sS'age'
p53
I0
sS'gener'
p54
S'm'
sS'lastScale'
p55
F5.5
sS'energy'
p56
F0.5
sb.(i__main__
Data_mobile
p1
(dp2
S'vel_y'
p3
I0
sS'vel_x'
p4
I0
sS'pos_x'
p5
I-9579
sS'pos_y'
p6
I9779
sS'isAlive'
p7
I00
sS'geno'
p8
(lp9
(lp10
S'randV'
p11
aaS'POINT./'
p12
aS'target'
p13
aS'target'
p14
a(lp15
S'target'
p16
aS'POINT./'
p17
a(lp18
(lp19
S'POINT./'
p20
aa(lp21
(lp22
S'target'
p23
aS'POINT.*'
p24
aS'POINT./'
p25
aS'POINT.*'
p26
aaaS'currentVelocity'
p27
aS'POINT.+'
p28
aaS'target'
p29
aS'target'
p30
aS'POINT.*'
p31
aaS'POINT.*'
p32
asS'accel_x'
p33
F0
sS'accel_y'
p34
F0
sS'maxAccel'
p35
I2
sS'maxVel'
p36
F0.5
sS'age'
p37
I0
sS'gener'
p38
S'm'
sS'lastScale'
p39
F5.5
sS'energy'
p40
F0.5
sb.(i__main__
Data_mobile
p1
(dp2
S'vel_y'
p3
I0
sS'vel_x'
p4
I0
sS'pos_x'
p5
I-9579
sS'pos_y'
p6
I9779
sS'isAlive'
p7
I00
sS'geno'
p8
(lp9
S'POINT./'
p10
aS'POINT./'
p11
a(lp12
(lp13
S'currentVelocity'
p14
aaS'separation'
p15
aS'POINT.+'
p16
a(lp17
(lp18
(lp19
(lp20
S'mostEnergizedNeighbor'
p21
aaS'POINT./'
p22
aS'target'
p23
a(lp24
S'currentVelocity'
p25
a(lp26
S'target'
p27
aaS'target'
p28
aS'POINT.*'
p29
aaS'POINT.*'
p30
aS'POINT.+'
p31
aaaS'POINT.*'
p32
aS'POINT.*'
p33
aS'target'
p34
aaS'POINT./'
p35
aS'target'
p36
aa(lp37
(lp38
S'POINT./'
p39
aaS'POINT.*'
p40
aS'currentVelocity'
p41
aS'POINT.+'
p42
aaS'target'
p43
aS'POINT./'
p44
asS'accel_x'
p45
F0
sS'accel_y'
p46
F0
sS'maxAccel'
p47
I2
sS'maxVel'
p48
F0.5
sS'age'
p49
I0
sS'gener'
p50
S'm'
sS'lastScale'
p51
F5.5
sS'energy'
p52
F0.5
sb.(i__main__
Data_mobile
p1
(dp2
S'vel_y'
p3
I0
sS'vel_x'
p4
I0
sS'pos_x'
p5
I-9579
sS'pos_y'
p6
I9779
sS'isAlive'
p7
I00
sS'geno'
p8
(lp9
S'currentVelocity'
p10
aS'POINT./'
p11
a(lp12
S'target'
p13
aS'separation'
p14
aS'POINT.+'
p15
a(lp16
(lp17
(lp18
(lp19
S'mostEnergizedNeighbor'
p20
aaS'POINT.+'
p21
aS'target'
p22
a(lp23
S'currentVelocity'
p24
aS'POINT.*'
p25
a(lp26
(lp27
S'target'
p28
aaaS'POINT.*'
p29
aaS'POINT.*'
p30
aS'POINT.+'
p31
aaaS'POINT.*'
p32
aS'POINT.*'
p33
aS'target'
p34
aaS'POINT./'
p35
aS'target'
p36
aa(lp37
(lp38
S'POINT./'
p39
aa(lp40
(lp41
S'target'
p42
aS'POINT.*'
p43
aS'POINT./'
p44
aS'POINT.*'
p45
aaaS'currentVelocity'
p46
aS'POINT.+'
p47
aaS'target'
p48
aS'POINT./'
p49
asS'accel_x'
p50
F0
sS'accel_y'
p51
F0
sS'maxAccel'
p52
I2
sS'maxVel'
p53
F0.5
sS'age'
p54
I0
sS'gener'
p55
S'm'
sS'lastScale'
p56
F5.5
sS'energy'
p57
F0.5
sb.(i__main__
Data_mobile
p1
(dp2
S'vel_y'
p3
I0
sS'vel_x'
p4
I0
sS'pos_x'
p5
I-9579
sS'pos_y'
p6
I9779
sS'isAlive'
p7
I00
sS'geno'
p8
(lp9
S'POINT./'
p10
aS'POINT./'
p11
a(lp12
(lp13
S'currentVelocity'
p14
aaS'separation'
p15
aS'POINT.+'
p16
a(lp17
(lp18
(lp19
(lp20
S'mostEnergizedNeighbor'
p21
aaS'POINT.+'
p22
aS'target'
p23
a(lp24
S'currentVelocity'
p25
aS'POINT.*'
p26
aS'target'
p27
aS'POINT.*'
p28
aaS'POINT.*'
p29
aS'POINT.+'
p30
aaaS'POINT.*'
p31
aS'POINT.*'
p32
aS'target'
p33
aaS'POINT./'
p34
aS'target'
p35
aa(lp36
(lp37
(lp38
S'POINT./'
p39
aaa(lp40
(lp41
S'target'
p42
aS'POINT.*'
p43
aS'POINT./'
p44
aS'POINT.*'
p45
aaaS'currentVelocity'
p46
aS'POINT.+'
p47
aaS'target'
p48
aS'POINT./'
p49
asS'accel_x'
p50
F0
sS'accel_y'
p51
F0
sS'maxAccel'
p52
I2
sS'maxVel'
p53
F0.5
sS'age'
p54
I0
sS'gener'
p55
S'm'
sS'lastScale'
p56
F5.5
sS'energy'
p57
F0.5
sb.(i__main__
Data_mobile
p1
(dp2
S'vel_y'
p3
I0
sS'vel_x'
p4
I0
sS'pos_x'
p5
I-9579
sS'pos_y'
p6
I9779
sS'isAlive'
p7
I00
sS'geno'
p8
(lp9
S'POINT./'
p10
aS'alignment'
p11
a(lp12
(lp13
S'target'
p14
aaS'separation'
p15
aS'POINT.+'
p16
a(lp17
(lp18
(lp19
(lp20
S'mostEnergizedNeighbor'
p21
aaS'POINT.+'
p22
aS'target'
p23
a(lp24
S'currentVelocity'
p25
aS'POINT.*'
p26
a(lp27
(lp28
S'target'
p29
aaaS'POINT.*'
p30
aaS'POINT.*'
p31
aS'POINT.+'
p32
aaaS'POINT.*'
p33
aS'POINT.*'
p34
aS'target'
p35
aaS'POINT./'
p36
aS'target'
p37
aaS'target'
p38
aS'POINT.*'
p39
aS'POINT./'
p40
asS'accel_x'
p41
F0
sS'accel_y'
p42
F0
sS'maxAccel'
p43
I2
sS'maxVel'
p44
F0.5
sS'age'
p45
I0
sS'gener'
p46
S'm'
sS'lastScale'
p47
F5.5
sS'energy'
p48
F0.5
sb.(i__main__
Data_mobile
p1
(dp2
S'vel_y'
p3
I0
sS'vel_x'
p4
I0
sS'pos_x'
p5
I-9579
sS'pos_y'
p6
I9779
sS'isAlive'
p7
I00
sS'geno'
p8
(lp9
S'POINT.*'
p10
a(lp11
(lp12
S'mostEnergizedNeighbor'
p13
aaS'POINT.+'
p14
aS'POINT.+'
p15
a(lp16
S'target'
p17
aaS'POINT./'
p18
aS'POINT.+'
p19
aaS'POINT.+'
p20
a(lp21
S'POINT.*'
p22
aS'target'
p23
aS'POINT.*'
p24
aa(lp25
S'target'
p26
aa(lp27
S'target'
p28
aasS'accel_x'
p29
F0
sS'accel_y'
p30
F0
sS'maxAccel'
p31
I2
sS'maxVel'
p32
F0.5
sS'age'
p33
I0
sS'gener'
p34
S'm'
sS'lastScale'
p35
F5.5
sS'energy'
p36
F0.5
sb.(i__main__
Data_mobile
p1
(dp2
S'vel_y'
p3
I0
sS'vel_x'
p4
I0
sS'pos_x'
p5
I-9579
sS'pos_y'
p6
I9779
sS'isAlive'
p7
I00
sS'geno'
p8
(lp9
S'POINT.*'
p10
aS'target'
p11
aS'POINT.+'
p12
a(lp13
S'POINT.*'
p14
aS'target'
p15
aS'POINT.*'
p16
aa(lp17
S'target'
p18
aa(lp19
S'target'
p20
aasS'accel_x'
p21
F0
sS'accel_y'
p22
F0
sS'maxAccel'
p23
I2
sS'maxVel'
p24
F0.5
sS'age'
p25
I0
sS'gener'
p26
S'm'
sS'lastScale'
p27
F5.5
sS'energy'
p28
F0.5
sb.(i__main__
Data_mobile
p1
(dp2
S'vel_y'
p3
I0
sS'vel_x'
p4
I0
sS'pos_x'
p5
I-9579
sS'pos_y'
p6
I9779
sS'isAlive'
p7
I00
sS'geno'
p8
(lp9
S'POINT./'
p10
aS'POINT./'
p11
a(lp12
(lp13
S'randV'
p14
aaS'separation'
p15
aS'POINT.+'
p16
a(lp17
(lp18
(lp19
(lp20
S'mostEnergizedNeighbor'
p21
aaS'POINT.+'
p22
aS'target'
p23
a(lp24
S'currentVelocity'
p25
aS'POINT.*'
p26
aS'target'
p27
aS'POINT.*'
p28
aaS'POINT.*'
p29
aS'POINT.+'
p30
aaaS'POINT.*'
p31
aS'POINT.*'
p32
aS'target'
p33
aaS'POINT./'
p34
aS'currentVelocity'
p35
aa(lp36
(lp37
S'POINT./'
p38
aa(lp39
(lp40
S'currentVelocity'
p41
a(lp42
S'POINT.*'
p43
aS'target'
p44
aS'POINT.-'
p45
aaS'POINT./'
p46
aS'POINT.*'
p47
aaaS'currentVelocity'
p48
aS'POINT.+'
p49
aaS'target'
p50
aS'POINT./'
p51
asS'accel_x'
p52
F0
sS'accel_y'
p53
F0
sS'maxAccel'
p54
I2
sS'maxVel'
p55
F0.5
sS'age'
p56
I0
sS'gener'
p57
S'm'
sS'lastScale'
p58
F5.5
sS'energy'
p59
F0.5
sb.(i__main__
Data_mobile
p1
(dp2
S'vel_y'
p3
I0
sS'vel_x'
p4
I0
sS'pos_x'
p5
I-9579
sS'pos_y'
p6
I9779
sS'isAlive'
p7
I00
sS'geno'
p8
(lp9
S'POINT./'
p10
aS'POINT./'
p11
a(lp12
(lp13
S'target'
p14
aaS'separation'
p15
aS'POINT.+'
p16
a(lp17
(lp18
(lp19
S'mostEnergizedNeighbor'
p20
aS'POINT.+'
p21
aS'target'
p22
a(lp23
S'currentVelocity'
p24
aS'POINT.*'
p25
a(lp26
(lp27
S'target'
p28
aaaS'POINT.*'
p29
aaS'POINT.*'
p30
aS'POINT.+'
p31
aaaS'POINT.*'
p32
aS'POINT.*'
p33
aS'target'
p34
aaS'POINT./'
p35
aS'target'
p36
aa(lp37
(lp38
S'POINT./'
p39
aa(lp40
(lp41
(lp42
(lp43
S'POINT./'
p44
aaaS'POINT.*'
p45
aS'POINT./'
p46
aS'POINT.*'
p47
aaaS'currentVelocity'
p48
aS'POINT.+'
p49
aaS'target'
p50
aS'POINT./'
p51
asS'accel_x'
p52
F0
sS'accel_y'
p53
F0
sS'maxAccel'
p54
I2
sS'maxVel'
p55
F0.5
sS'age'
p56
I0
sS'gener'
p57
S'm'
sS'lastScale'
p58
F5.5
sS'energy'
p59
F0.5
sb.(i__main__
Data_mobile
p1
(dp2
S'vel_y'
p3
I0
sS'vel_x'
p4
I0
sS'pos_x'
p5
I-9579
sS'pos_y'
p6
I9779
sS'isAlive'
p7
I00
sS'geno'
p8
(lp9
S'POINT./'
p10
aS'POINT./'
p11
aS'POINT./'
p12
aS'target'
p13
aS'target'
p14
aS'POINT./'
p15
asS'accel_x'
p16
F0
sS'accel_y'
p17
F0
sS'maxAccel'
p18
I2
sS'maxVel'
p19
F0.5
sS'age'
p20
I0
sS'gener'
p21
S'm'
sS'lastScale'
p22
F5.5
sS'energy'
p23
F0.5
sb.(i__main__
Data_mobile
p1
(dp2
S'vel_y'
p3
I0
sS'vel_x'
p4
I0
sS'pos_x'
p5
I-9579
sS'pos_y'
p6
I9779
sS'isAlive'
p7
I00
sS'geno'
p8
(lp9
S'POINT./'
p10
aS'POINT./'
p11
a(lp12
(lp13
S'target'
p14
aaS'separation'
p15
aS'POINT.+'
p16
a(lp17
(lp18
(lp19
(lp20
S'target'
p21
aaS'POINT.+'
p22
aS'POINT.*'
p23
a(lp24
S'currentVelocity'
p25
aS'POINT.*'
p26
a(lp27
S'target'
p28
aaS'POINT.*'
p29
aaS'POINT.*'
p30
aS'POINT.+'
p31
aaaS'POINT.*'
p32
aS'POINT.*'
p33
aS'target'
p34
aaS'POINT./'
p35
aS'target'
p36
aa(lp37
(lp38
S'POINT./'
p39
aa(lp40
(lp41
S'POINT.*'
p42
aS'POINT.*'
p43
aS'POINT./'
p44
aS'POINT.*'
p45
aaaS'currentVelocity'
p46
aS'POINT.+'
p47
aaS'target'
p48
aS'target'
p49
asS'accel_x'
p50
F0
sS'accel_y'
p51
F0
sS'maxAccel'
p52
I2
sS'maxVel'
p53
F0.5
sS'age'
p54
I0
sS'gener'
p55
S'm'
sS'lastScale'
p56
F5.5
sS'energy'
p57
F0.5
sb.(i__main__
Data_mobile
p1
(dp2
S'vel_y'
p3
I0
sS'vel_x'
p4
I0
sS'pos_x'
p5
I-9579
sS'pos_y'
p6
I9779
sS'isAlive'
p7
I00
sS'geno'
p8
(lp9
(lp10
S'POINT.*'
p11
aaS'POINT./'
p12
a(lp13
(lp14
S'currentVelocity'
p15
aa(lp16
(lp17
S'target'
p18
aaaS'POINT.+'
p19
a(lp20
(lp21
S'POINT.*'
p22
aaS'POINT.*'
p23
aS'currentVelocity'
p24
aS'mostEnergizedNeighbor'
p25
aaS'POINT./'
p26
aS'target'
p27
aa(lp28
S'POINT./'
p29
aS'POINT.*'
p30
aS'POINT./'
p31
aS'target'
p32
aa(lp33
S'POINT.*'
p34
aa(lp35
(lp36
(lp37
S'target'
p38
aaS'POINT./'
p39
aS'target'
p40
a(lp41
S'POINT./'
p42
aaS'target'
p43
aS'POINT.*'
p44
aaasS'accel_x'
p45
F0
sS'accel_y'
p46
F0
sS'maxAccel'
p47
I2
sS'maxVel'
p48
F0.5
sS'age'
p49
I0
sS'gener'
p50
S'm'
sS'lastScale'
p51
F5.5
sS'energy'
p52
F0.5
sb.(i__main__
Data_mobile
p1
(dp2
S'vel_y'
p3
I0
sS'vel_x'
p4
I0
sS'pos_x'
p5
I-9579
sS'pos_y'
p6
I9779
sS'isAlive'
p7
I00
sS'geno'
p8
(lp9
(lp10
S'target'
p11
aa(lp12
(lp13
S'target'
p14
aaS'POINT./'
p15
a(lp16
(lp17
S'POINT./'
p18
aa(lp19
(lp20
S'target'
p21
aS'POINT.*'
p22
a(lp23
S'target'
p24
aaS'POINT.*'
p25
aaaS'currentVelocity'
p26
aS'POINT.+'
p27
aaS'target'
p28
aS'target'
p29
aS'POINT.*'
p30
aaS'target'
p31
aS'POINT.*'
p32
aS'target'
p33
aS'target'
p34
asS'accel_x'
p35
F0
sS'accel_y'
p36
F0
sS'maxAccel'
p37
I2
sS'maxVel'
p38
F0.5
sS'age'
p39
I0
sS'gener'
p40
S'm'
sS'lastScale'
p41
F5.5
sS'energy'
p42
F0.5
sb.(i__main__
Data_mobile
p1
(dp2
S'vel_y'
p3
I0
sS'vel_x'
p4
I0
sS'pos_x'
p5
I-9579
sS'pos_y'
p6
I9779
sS'isAlive'
p7
I00
sS'geno'
p8
(lp9
S'randV'
p10
aS'POINT./'
p11
aS'POINT./'
p12
aS'target'
p13
aS'target'
p14
aS'POINT./'
p15
asS'accel_x'
p16
F0
sS'accel_y'
p17
F0
sS'maxAccel'
p18
I2
sS'maxVel'
p19
F0.5
sS'age'
p20
I0
sS'gener'
p21
S'm'
sS'lastScale'
p22
F5.5
sS'energy'
p23
F0.5
sb.(i__main__
Data_mobile
p1
(dp2
S'vel_y'
p3
I0
sS'vel_x'
p4
I0
sS'pos_x'
p5
I-9579
sS'pos_y'
p6
I9779
sS'isAlive'
p7
I00
sS'geno'
p8
(lp9
(lp10
S'target'
p11
aa(lp12
(lp13
S'target'
p14
aaS'POINT./'
p15
a(lp16
(lp17
S'POINT./'
p18
aa(lp19
(lp20
S'target'
p21
aS'POINT.*'
p22
a(lp23
S'target'
p24
aaS'POINT.*'
p25
aaaS'currentVelocity'
p26
aS'POINT.+'
p27
aaS'target'
p28
aS'target'
p29
aS'POINT.*'
p30
aaS'target'
p31
aS'POINT.*'
p32
a(lp33
(lp34
S'POINT.*'
p35
aaS'POINT.*'
p36
a(lp37
S'target'
p38
aaS'mostEnergizedNeighbor'
p39
aaS'POINT.*'
p40
asS'accel_x'
p41
F0
sS'accel_y'
p42
F0
sS'maxAccel'
p43
I2
sS'maxVel'
p44
F0.5
sS'age'
p45
I0
sS'gener'
p46
S'm'
sS'lastScale'
p47
F5.5
sS'energy'
p48
F0.5
sb.(i__main__
Data_mobile
p1
(dp2
S'vel_y'
p3
I0
sS'vel_x'
p4
I0
sS'pos_x'
p5
I-9579
sS'pos_y'
p6
I9779
sS'isAlive'
p7
I00
sS'geno'
p8
(lp9
(lp10
S'target'
p11
aa(lp12
(lp13
S'target'
p14
aaS'POINT./'
p15
a(lp16
(lp17
S'POINT./'
p18
aa(lp19
(lp20
S'target'
p21
aS'POINT.*'
p22
a(lp23
S'target'
p24
aaS'POINT./'
p25
aaaS'currentVelocity'
p26
aS'POINT.+'
p27
aaS'target'
p28
aS'target'
p29
aS'POINT.*'
p30
aaS'target'
p31
aS'POINT.*'
p32
aS'target'
p33
aS'POINT.*'
p34
asS'accel_x'
p35
F0
sS'accel_y'
p36
F0
sS'maxAccel'
p37
I2
sS'maxVel'
p38
F0.5
sS'age'
p39
I0
sS'gener'
p40
S'm'
sS'lastScale'
p41
F5.5
sS'energy'
p42
F0.5
sb.(i__main__
Data_mobile
p1
(dp2
S'vel_y'
p3
I0
sS'vel_x'
p4
I0
sS'pos_x'
p5
I-9579
sS'pos_y'
p6
I9779
sS'isAlive'
p7
I00
sS'geno'
p8
(lp9
S'POINT./'
p10
aS'POINT./'
p11
aS'POINT./'
p12
aS'currentVelocity'
p13
aS'target'
p14
aS'POINT./'
p15
asS'accel_x'
p16
F0
sS'accel_y'
p17
F0
sS'maxAccel'
p18
I2
sS'maxVel'
p19
F0.5
sS'age'
p20
I0
sS'gener'
p21
S'm'
sS'lastScale'
p22
F5.5
sS'energy'
p23
F0.5
sb.(i__main__
Data_mobile
p1
(dp2
S'vel_y'
p3
I0
sS'vel_x'
p4
I0
sS'pos_x'
p5
I-9579
sS'pos_y'
p6
I9779
sS'isAlive'
p7
I00
sS'geno'
p8
(lp9
S'POINT./'
p10
aS'POINT./'
p11
a(lp12
(lp13
S'currentVelocity'
p14
aaS'separation'
p15
aS'POINT.+'
p16
a(lp17
(lp18
(lp19
(lp20
S'mostEnergizedNeighbor'
p21
aaS'POINT.+'
p22
aS'target'
p23
a(lp24
S'currentVelocity'
p25
aS'POINT.*'
p26
a(lp27
S'target'
p28
aaS'POINT.*'
p29
aaS'target'
p30
aS'POINT.+'
p31
aaaS'POINT.*'
p32
aS'POINT.*'
p33
aS'target'
p34
aaS'POINT./'
p35
aS'target'
p36
aa(lp37
(lp38
S'POINT./'
p39
aa(lp40
(lp41
S'target'
p42
aS'POINT.*'
p43
aS'POINT./'
p44
aS'POINT.*'
p45
aaaS'currentVelocity'
p46
aS'POINT.+'
p47
aaS'target'
p48
aS'POINT./'
p49
asS'accel_x'
p50
F0
sS'accel_y'
p51
F0
sS'maxAccel'
p52
I2
sS'maxVel'
p53
F0.5
sS'age'
p54
I0
sS'gener'
p55
S'm'
sS'lastScale'
p56
F5.5
sS'energy'
p57
F0.5
sb.(i__main__
Data_mobile
p1
(dp2
S'vel_y'
p3
I0
sS'vel_x'
p4
I0
sS'pos_x'
p5
I-9579
sS'pos_y'
p6
I9779
sS'isAlive'
p7
I00
sS'geno'
p8
(lp9
(lp10
S'POINT.*'
p11
aaS'POINT./'
p12
a(lp13
(lp14
S'currentVelocity'
p15
aa(lp16
(lp17
S'POINT./'
p18
aaaS'POINT.+'
p19
a(lp20
(lp21
S'POINT.*'
p22
aaS'POINT.*'
p23
aS'currentVelocity'
p24
aS'mostEnergizedNeighbor'
p25
aaS'POINT./'
p26
aS'target'
p27
aa(lp28
S'POINT./'
p29
aS'currentVelocity'
p30
aS'POINT./'
p31
a(lp32
S'currentVelocity'
p33
aS'POINT./'
p34
aS'target'
p35
a(lp36
(lp37
S'POINT./'
p38
aaS'mostEnergizedNeighbor'
p39
aS'POINT.*'
p40
aS'mostEnergizedNeighbor'
p41
aaS'target'
p42
a(lp43
S'target'
p44
aaaa(lp45
S'POINT.*'
p46
aa(lp47
S'POINT./'
p48
aasS'accel_x'
p49
F0
sS'accel_y'
p50
F0
sS'maxAccel'
p51
I2
sS'maxVel'
p52
F0.5
sS'age'
p53
I0
sS'gener'
p54
S'm'
sS'lastScale'
p55
F5.5
sS'energy'
p56
F0.5
sb.(i__main__
Data_mobile
p1
(dp2
S'vel_y'
p3
I0
sS'vel_x'
p4
I0
sS'pos_x'
p5
I-9579
sS'pos_y'
p6
I9779
sS'isAlive'
p7
I00
sS'geno'
p8
(lp9
S'POINT.*'
p10
a(lp11
(lp12
S'mostEnergizedNeighbor'
p13
aaS'POINT.+'
p14
aS'POINT.+'
p15
a(lp16
S'target'
p17
aaS'POINT.*'
p18
aS'POINT.+'
p19
aaS'POINT.+'
p20
a(lp21
S'POINT.*'
p22
aS'target'
p23
aS'POINT.*'
p24
aa(lp25
S'target'
p26
aa(lp27
S'target'
p28
aasS'accel_x'
p29
F0
sS'accel_y'
p30
F0
sS'maxAccel'
p31
I2
sS'maxVel'
p32
F0.5
sS'age'
p33
I0
sS'gener'
p34
S'm'
sS'lastScale'
p35
F5.5
sS'energy'
p36
F0.5
sb.(i__main__
Data_mobile
p1
(dp2
S'vel_y'
p3
I0
sS'vel_x'
p4
I0
sS'pos_x'
p5
I-9579
sS'pos_y'
p6
I9779
sS'isAlive'
p7
I00
sS'geno'
p8
(lp9
S'POINT./'
p10
aS'POINT./'
p11
a(lp12
(lp13
S'target'
p14
aaS'separation'
p15
aS'POINT.+'
p16
a(lp17
(lp18
(lp19
(lp20
S'mostEnergizedNeighbor'
p21
aaS'POINT.+'
p22
aS'target'
p23
a(lp24
S'currentVelocity'
p25
aS'POINT.*'
p26
a(lp27
(lp28
S'target'
p29
aaaS'POINT.*'
p30
aaS'POINT.*'
p31
aS'POINT.+'
p32
aaaS'POINT.*'
p33
aS'POINT.*'
p34
aS'target'
p35
aaS'POINT./'
p36
aS'target'
p37
aa(lp38
(lp39
S'POINT./'
p40
aa(lp41
(lp42
S'target'
p43
aS'POINT.*'
p44
a(lp45
S'target'
p46
aaS'POINT.*'
p47
aaaS'currentVelocity'
p48
aS'POINT.+'
p49
aaS'POINT.*'
p50
aS'POINT./'
p51
asS'accel_x'
p52
F0
sS'accel_y'
p53
F0
sS'maxAccel'
p54
I2
sS'maxVel'
p55
F0.5
sS'age'
p56
I0
sS'gener'
p57
S'm'
sS'lastScale'
p58
F5.5
sS'energy'
p59
F0.5
sb.(i__main__
Data_mobile
p1
(dp2
S'vel_y'
p3
I0
sS'vel_x'
p4
I0
sS'pos_x'
p5
I-9579
sS'pos_y'
p6
I9779
sS'isAlive'
p7
I00
sS'geno'
p8
(lp9
(lp10
S'target'
p11
aaS'POINT./'
p12
aS'target'
p13
aS'POINT./'
p14
aS'target'
p15
aS'POINT.*'
p16
asS'accel_x'
p17
F0
sS'accel_y'
p18
F0
sS'maxAccel'
p19
I2
sS'maxVel'
p20
F0.5
sS'age'
p21
I0
sS'gener'
p22
S'm'
sS'lastScale'
p23
F5.5
sS'energy'
p24
F0.5
sb.(i__main__
Data_mobile
p1
(dp2
S'vel_y'
p3
I0
sS'vel_x'
p4
I0
sS'pos_x'
p5
I-9579
sS'pos_y'
p6
I9779
sS'isAlive'
p7
I00
sS'geno'
p8
(lp9
(lp10
S'POINT.*'
p11
aaS'POINT./'
p12
a(lp13
(lp14
S'currentVelocity'
p15
aa(lp16
(lp17
S'POINT./'
p18
aaaS'POINT.+'
p19
a(lp20
(lp21
S'POINT.*'
p22
aaS'POINT.*'
p23
aS'currentVelocity'
p24
aS'mostEnergizedNeighbor'
p25
aaS'POINT./'
p26
aS'target'
p27
aa(lp28
S'POINT./'
p29
aS'currentVelocity'
p30
aS'POINT./'
p31
a(lp32
S'currentVelocity'
p33
aS'POINT./'
p34
aS'target'
p35
a(lp36
(lp37
S'POINT./'
p38
aaS'mostEnergizedNeighbor'
p39
aS'POINT.*'
p40
aS'mostEnergizedNeighbor'
p41
aaS'target'
p42
a(lp43
S'POINT./'
p44
aaaa(lp45
S'POINT.*'
p46
aa(lp47
S'POINT./'
p48
aasS'accel_x'
p49
F0
sS'accel_y'
p50
F0
sS'maxAccel'
p51
I2
sS'maxVel'
p52
F0.5
sS'age'
p53
I0
sS'gener'
p54
S'm'
sS'lastScale'
p55
F5.5
sS'energy'
p56
F0.5
sb.(i__main__
Data_mobile
p1
(dp2
S'vel_y'
p3
I0
sS'vel_x'
p4
I0
sS'pos_x'
p5
I-9579
sS'pos_y'
p6
I9779
sS'isAlive'
p7
I00
sS'geno'
p8
(lp9
(lp10
S'POINT.*'
p11
aaS'POINT./'
p12
a(lp13
(lp14
S'currentVelocity'
p15
aa(lp16
(lp17
S'POINT./'
p18
aaaS'POINT.+'
p19
a(lp20
(lp21
S'POINT.*'
p22
aaS'POINT.*'
p23
aS'currentVelocity'
p24
aS'mostEnergizedNeighbor'
p25
aaS'POINT./'
p26
aS'target'
p27
aa(lp28
S'POINT./'
p29
aS'currentVelocity'
p30
aS'POINT./'
p31
a(lp32
S'currentVelocity'
p33
aS'POINT./'
p34
aS'target'
p35
a(lp36
(lp37
S'POINT./'
p38
aaS'mostEnergizedNeighbor'
p39
aS'POINT.*'
p40
aS'mostEnergizedNeighbor'
p41
aaS'target'
p42
a(lp43
S'target'
p44
aaaa(lp45
S'POINT.*'
p46
aa(lp47
S'POINT./'
p48
aasS'accel_x'
p49
F0
sS'accel_y'
p50
F0
sS'maxAccel'
p51
I2
sS'maxVel'
p52
F0.5
sS'age'
p53
I0
sS'gener'
p54
S'm'
sS'lastScale'
p55
F5.5
sS'energy'
p56
F0.5
sb.(i__main__
Data_mobile
p1
(dp2
S'vel_y'
p3
I0
sS'vel_x'
p4
I0
sS'pos_x'
p5
I-9579
sS'pos_y'
p6
I9779
sS'isAlive'
p7
I00
sS'geno'
p8
(lp9
S'POINT./'
p10
aS'POINT./'
p11
a(lp12
S'POINT.*'
p13
aS'separation'
p14
aS'POINT.+'
p15
a(lp16
(lp17
(lp18
S'mostEnergizedNeighbor'
p19
aS'POINT.+'
p20
aS'target'
p21
a(lp22
S'currentVelocity'
p23
aS'POINT.*'
p24
a(lp25
(lp26
S'target'
p27
aaaS'POINT.*'
p28
aaS'POINT.*'
p29
aS'POINT.+'
p30
aaaS'POINT.*'
p31
aS'POINT.*'
p32
aS'target'
p33
aaS'POINT./'
p34
aS'target'
p35
aa(lp36
(lp37
S'POINT./'
p38
aa(lp39
(lp40
S'target'
p41
aS'POINT.*'
p42
aS'POINT./'
p43
aS'POINT.*'
p44
aaaS'currentVelocity'
p45
aS'POINT.+'
p46
aaS'target'
p47
aS'POINT./'
p48
asS'accel_x'
p49
F0
sS'accel_y'
p50
F0
sS'maxAccel'
p51
I2
sS'maxVel'
p52
F0.5
sS'age'
p53
I0
sS'gener'
p54
S'm'
sS'lastScale'
p55
F5.5
sS'energy'
p56
F0.5
sb.(i__main__
Data_mobile
p1
(dp2
S'vel_y'
p3
I0
sS'vel_x'
p4
I0
sS'pos_x'
p5
I-9579
sS'pos_y'
p6
I9779
sS'isAlive'
p7
I00
sS'geno'
p8
(lp9
S'POINT./'
p10
aS'POINT./'
p11
a(lp12
(lp13
S'currentVelocity'
p14
aaS'separation'
p15
aS'POINT.+'
p16
a(lp17
(lp18
(lp19
(lp20
S'mostEnergizedNeighbor'
p21
aaS'POINT.+'
p22
aS'target'
p23
a(lp24
S'currentVelocity'
p25
aS'POINT.*'
p26
aS'target'
p27
aS'POINT.*'
p28
aaS'POINT.*'
p29
aS'POINT.+'
p30
aaaS'POINT.*'
p31
aS'POINT.*'
p32
aS'target'
p33
aaS'POINT./'
p34
aS'target'
p35
aa(lp36
(lp37
S'POINT./'
p38
aa(lp39
(lp40
S'target'
p41
aS'POINT.*'
p42
aS'POINT./'
p43
aS'POINT.*'
p44
aaaS'currentVelocity'
p45
aS'POINT.+'
p46
aaS'target'
p47
aS'POINT./'
p48
asS'accel_x'
p49
F0
sS'accel_y'
p50
F0
sS'maxAccel'
p51
I2
sS'maxVel'
p52
F0.5
sS'age'
p53
I0
sS'gener'
p54
S'm'
sS'lastScale'
p55
F5.5
sS'energy'
p56
F0.5
sb.(i__main__
Data_mobile
p1
(dp2
S'vel_y'
p3
I0
sS'vel_x'
p4
I0
sS'pos_x'
p5
I-9579
sS'pos_y'
p6
I9779
sS'isAlive'
p7
I00
sS'geno'
p8
(lp9
S'POINT./'
p10
aS'POINT./'
p11
a(lp12
S'target'
p13
aS'separation'
p14
aS'POINT.+'
p15
a(lp16
(lp17
(lp18
(lp19
S'mostEnergizedNeighbor'
p20
aaS'POINT.+'
p21
aS'target'
p22
a(lp23
S'currentVelocity'
p24
aS'POINT.*'
p25
a(lp26
(lp27
S'target'
p28
aaaS'POINT.*'
p29
aaS'POINT.*'
p30
aS'POINT.+'
p31
aaaS'POINT.*'
p32
aS'POINT.*'
p33
aS'target'
p34
aaS'POINT./'
p35
aS'target'
p36
aa(lp37
(lp38
S'POINT./'
p39
aa(lp40
(lp41
S'target'
p42
aS'POINT.*'
p43
aS'POINT./'
p44
aS'POINT.*'
p45
aaaS'currentVelocity'
p46
aS'POINT.+'
p47
aaS'target'
p48
aS'POINT./'
p49
asS'accel_x'
p50
F0
sS'accel_y'
p51
F0
sS'maxAccel'
p52
I2
sS'maxVel'
p53
F0.5
sS'age'
p54
I0
sS'gener'
p55
S'm'
sS'lastScale'
p56
F5.5
sS'energy'
p57
F0.5
sb.(i__main__
Data_mobile
p1
(dp2
S'vel_y'
p3
I0
sS'vel_x'
p4
I0
sS'pos_x'
p5
I-9579
sS'pos_y'
p6
I9779
sS'isAlive'
p7
I00
sS'geno'
p8
(lp9
S'POINT./'
p10
aS'POINT./'
p11
aS'POINT./'
p12
aS'target'
p13
aS'target'
p14
aS'POINT./'
p15
asS'accel_x'
p16
F0
sS'accel_y'
p17
F0
sS'maxAccel'
p18
I2
sS'maxVel'
p19
F0.5
sS'age'
p20
I0
sS'gener'
p21
S'm'
sS'lastScale'
p22
F5.5
sS'energy'
p23
F0.5
sb.(i__main__
Data_mobile
p1
(dp2
S'vel_y'
p3
I0
sS'vel_x'
p4
I0
sS'pos_x'
p5
I-9579
sS'pos_y'
p6
I9779
sS'isAlive'
p7
I00
sS'geno'
p8
(lp9
S'POINT./'
p10
aS'POINT./'
p11
a(lp12
(lp13
S'target'
p14
aaS'target'
p15
aS'POINT.+'
p16
a(lp17
(lp18
(lp19
(lp20
S'mostEnergizedNeighbor'
p21
aaS'POINT.+'
p22
aS'target'
p23
a(lp24
S'currentVelocity'
p25
aS'POINT.*'
p26
a(lp27
(lp28
S'target'
p29
aaaS'POINT.*'
p30
aaS'POINT.*'
p31
aS'POINT.+'
p32
aaaS'POINT.*'
p33
aS'POINT.*'
p34
aS'target'
p35
aaS'POINT./'
p36
aS'target'
p37
aa(lp38
(lp39
S'POINT./'
p40
aa(lp41
(lp42
S'target'
p43
aS'POINT.*'
p44
aS'POINT./'
p45
aS'POINT.*'
p46
aaaS'currentVelocity'
p47
aS'POINT.+'
p48
aaS'target'
p49
aS'randV'
p50
asS'accel_x'
p51
F0
sS'accel_y'
p52
F0
sS'maxAccel'
p53
I2
sS'maxVel'
p54
F0.5
sS'age'
p55
I0
sS'gener'
p56
S'm'
sS'lastScale'
p57
F5.5
sS'energy'
p58
F0.5
sb.(i__main__
Data_mobile
p1
(dp2
S'vel_y'
p3
I0
sS'vel_x'
p4
I0
sS'pos_x'
p5
I-9579
sS'pos_y'
p6
I9779
sS'isAlive'
p7
I00
sS'geno'
p8
(lp9
S'POINT./'
p10
aS'POINT./'
p11
a(lp12
(lp13
S'target'
p14
aaS'separation'
p15
aS'POINT.+'
p16
a(lp17
(lp18
(lp19
S'mostEnergizedNeighbor'
p20
aS'POINT.+'
p21
aS'target'
p22
a(lp23
S'currentVelocity'
p24
aS'POINT.*'
p25
a(lp26
(lp27
S'target'
p28
aaaS'POINT.*'
p29
aaS'POINT.*'
p30
aS'POINT.*'
p31
aaaS'POINT.*'
p32
aS'POINT.*'
p33
aS'target'
p34
aaS'POINT./'
p35
aS'target'
p36
aa(lp37
(lp38
S'POINT./'
p39
aa(lp40
(lp41
(lp42
S'POINT./'
p43
aaS'POINT.*'
p44
aS'POINT./'
p45
aS'POINT.*'
p46
aaaS'currentVelocity'
p47
aS'POINT.+'
p48
aaS'target'
p49
aS'POINT./'
p50
asS'accel_x'
p51
F0
sS'accel_y'
p52
F0
sS'maxAccel'
p53
I2
sS'maxVel'
p54
F0.5
sS'age'
p55
I0
sS'gener'
p56
S'm'
sS'lastScale'
p57
F5.5
sS'energy'
p58
F0.5
sb.(i__main__
Data_mobile
p1
(dp2
S'vel_y'
p3
I0
sS'vel_x'
p4
I0
sS'pos_x'
p5
I-9579
sS'pos_y'
p6
I9779
sS'isAlive'
p7
I00
sS'geno'
p8
(lp9
(lp10
(lp11
S'target'
p12
aaaS'POINT./'
p13
a(lp14
(lp15
S'currentVelocity'
p16
aa(lp17
(lp18
S'target'
p19
aaaS'POINT.+'
p20
a(lp21
(lp22
S'POINT.*'
p23
aaS'alignment'
p24
aS'currentVelocity'
p25
aS'target'
p26
aaS'POINT./'
p27
aS'target'
p28
aa(lp29
S'currentVelocity'
p30
aS'POINT.*'
p31
aS'target'
p32
aS'POINT.*'
p33
aa(lp34
S'POINT.*'
p35
aa(lp36
S'target'
p37
aasS'accel_x'
p38
F0
sS'accel_y'
p39
F0
sS'maxAccel'
p40
I2
sS'maxVel'
p41
F0.5
sS'age'
p42
I0
sS'gener'
p43
S'm'
sS'lastScale'
p44
F5.5
sS'energy'
p45
F0.5
sb.(i__main__
Data_mobile
p1
(dp2
S'vel_y'
p3
I0
sS'vel_x'
p4
I0
sS'pos_x'
p5
I-9579
sS'pos_y'
p6
I9779
sS'isAlive'
p7
I00
sS'geno'
p8
(lp9
S'POINT./'
p10
aS'POINT./'
p11
aS'POINT./'
p12
a(lp13
(lp14
S'POINT./'
p15
aa(lp16
S'POINT./'
p17
aa(lp18
S'POINT.*'
p19
aS'target'
p20
aS'POINT.*'
p21
aaS'POINT.+'
p22
aaS'target'
p23
aS'POINT./'
p24
asS'accel_x'
p25
F0
sS'accel_y'
p26
F0
sS'maxAccel'
p27
I2
sS'maxVel'
p28
F0.5
sS'age'
p29
I0
sS'gener'
p30
S'm'
sS'lastScale'
p31
F5.5
sS'energy'
p32
F0.5
sb.(i__main__
Data_mobile
p1
(dp2
S'vel_y'
p3
I0
sS'vel_x'
p4
I0
sS'pos_x'
p5
I-9579
sS'pos_y'
p6
I9779
sS'isAlive'
p7
I00
sS'geno'
p8
(lp9
(lp10
S'POINT.*'
p11
aaS'POINT./'
p12
a(lp13
(lp14
S'currentVelocity'
p15
aa(lp16
(lp17
(lp18
S'target'
p19
aaaaS'POINT.+'
p20
a(lp21
(lp22
S'POINT.*'
p23
aaS'POINT.*'
p24
aS'currentVelocity'
p25
aS'mostEnergizedNeighbor'
p26
aaS'POINT./'
p27
aS'POINT.*'
p28
aa(lp29
S'POINT./'
p30
aS'target'
p31
aS'POINT./'
p32
a(lp33
S'currentVelocity'
p34
aS'POINT./'
p35
aS'target'
p36
a(lp37
(lp38
S'POINT./'
p39
aaS'mostEnergizedNeighbor'
p40
aS'POINT.*'
p41
aS'mostEnergizedNeighbor'
p42
aaS'target'
p43
a(lp44
S'target'
p45
aaaa(lp46
S'POINT.*'
p47
aa(lp48
S'POINT./'
p49
aasS'accel_x'
p50
F0
sS'accel_y'
p51
F0
sS'maxAccel'
p52
I2
sS'maxVel'
p53
F0.5
sS'age'
p54
I0
sS'gener'
p55
S'm'
sS'lastScale'
p56
F5.5
sS'energy'
p57
F0.5
sb.(i__main__
Data_mobile
p1
(dp2
S'vel_y'
p3
I0
sS'vel_x'
p4
I0
sS'pos_x'
p5
I-9579
sS'pos_y'
p6
I9779
sS'isAlive'
p7
I00
sS'geno'
p8
(lp9
S'POINT./'
p10
aS'POINT./'
p11
a(lp12
(lp13
S'flee'
p14
aaS'POINT./'
p15
aS'target'
p16
a(lp17
(lp18
S'target'
p19
aaS'POINT./'
p20
aS'target'
p21
aS'target'
p22
aS'target'
p23
aS'POINT.*'
p24
aaS'target'
p25
aS'POINT.*'
p26
aaS'target'
p27
aS'target'
p28
aS'POINT./'
p29
asS'accel_x'
p30
F0
sS'accel_y'
p31
F0
sS'maxAccel'
p32
I2
sS'maxVel'
p33
F0.5
sS'age'
p34
I0
sS'gener'
p35
S'm'
sS'lastScale'
p36
F5.5
sS'energy'
p37
F0.5
sb.(i__main__
Data_mobile
p1
(dp2
S'vel_y'
p3
I0
sS'vel_x'
p4
I0
sS'pos_x'
p5
I-9579
sS'pos_y'
p6
I9779
sS'isAlive'
p7
I00
sS'geno'
p8
(lp9
(lp10
S'POINT.*'
p11
aaS'POINT./'
p12
a(lp13
(lp14
S'currentVelocity'
p15
aaS'mostEnergizedNeighbor'
p16
aS'POINT.+'
p17
a(lp18
(lp19
S'POINT.*'
p20
aaS'POINT.*'
p21
aS'currentVelocity'
p22
aS'mostEnergizedNeighbor'
p23
aaS'POINT./'
p24
aS'POINT.*'
p25
aa(lp26
S'POINT./'
p27
aS'POINT.*'
p28
aS'POINT./'
p29
a(lp30
S'currentVelocity'
p31
aS'POINT./'
p32
aS'target'
p33
a(lp34
(lp35
S'POINT./'
p36
aaS'mostEnergizedNeighbor'
p37
aS'POINT.*'
p38
aS'mostEnergizedNeighbor'
p39
aaS'target'
p40
a(lp41
S'target'
p42
aaaa(lp43
S'POINT.*'
p44
aa(lp45
S'POINT./'
p46
aasS'accel_x'
p47
F0
sS'accel_y'
p48
F0
sS'maxAccel'
p49
I2
sS'maxVel'
p50
F0.5
sS'age'
p51
I0
sS'gener'
p52
S'm'
sS'lastScale'
p53
F5.5
sS'energy'
p54
F0.5
sb.(i__main__
Data_mobile
p1
(dp2
S'vel_y'
p3
I0
sS'vel_x'
p4
I0
sS'pos_x'
p5
I-9579
sS'pos_y'
p6
I9779
sS'isAlive'
p7
I00
sS'geno'
p8
(lp9
S'POINT./'
p10
aS'POINT./'
p11
a(lp12
(lp13
S'target'
p14
aaS'separation'
p15
aS'POINT.+'
p16
a(lp17
(lp18
(lp19
(lp20
S'mostEnergizedNeighbor'
p21
aaS'POINT.+'
p22
aS'target'
p23
a(lp24
S'currentVelocity'
p25
aS'POINT.*'
p26
a(lp27
(lp28
S'target'
p29
aaaS'POINT.*'
p30
aaS'POINT.*'
p31
aS'POINT.+'
p32
aaaS'POINT.*'
p33
aS'POINT.*'
p34
aS'target'
p35
aaS'POINT./'
p36
aS'target'
p37
aa(lp38
(lp39
S'POINT./'
p40
aa(lp41
(lp42
S'target'
p43
aS'POINT.*'
p44
aS'POINT./'
p45
aS'POINT.*'
p46
aaaS'currentVelocity'
p47
aS'POINT.+'
p48
aaS'target'
p49
aS'randV'
p50
asS'accel_x'
p51
F0
sS'accel_y'
p52
F0
sS'maxAccel'
p53
I2
sS'maxVel'
p54
F0.5
sS'age'
p55
I0
sS'gener'
p56
S'm'
sS'lastScale'
p57
F5.5
sS'energy'
p58
F0.5
sb.(i__main__
Data_mobile
p1
(dp2
S'vel_y'
p3
I0
sS'vel_x'
p4
I0
sS'pos_x'
p5
I-9579
sS'pos_y'
p6
I9779
sS'isAlive'
p7
I00
sS'geno'
p8
(lp9
S'POINT./'
p10
aS'POINT./'
p11
a(lp12
S'target'
p13
aS'separation'
p14
aS'POINT.+'
p15
a(lp16
(lp17
(lp18
(lp19
S'mostEnergizedNeighbor'
p20
aaS'POINT.+'
p21
aS'target'
p22
a(lp23
S'currentVelocity'
p24
aS'POINT.*'
p25
a(lp26
(lp27
S'target'
p28
aaaS'POINT.*'
p29
aaS'POINT.*'
p30
aS'POINT.+'
p31
aaaS'POINT.*'
p32
aS'POINT.*'
p33
aS'target'
p34
aaS'POINT./'
p35
aS'target'
p36
aa(lp37
(lp38
S'target'
p39
aaS'flee'
p40
a(lp41
S'randV'
p42
aaaS'target'
p43
aS'POINT./'
p44
asS'accel_x'
p45
F0
sS'accel_y'
p46
F0
sS'maxAccel'
p47
I2
sS'maxVel'
p48
F0.5
sS'age'
p49
I0
sS'gener'
p50
S'm'
sS'lastScale'
p51
F5.5
sS'energy'
p52
F0.5
sb.(i__main__
Data_mobile
p1
(dp2
S'vel_y'
p3
I0
sS'vel_x'
p4
I0
sS'pos_x'
p5
I-9579
sS'pos_y'
p6
I9779
sS'isAlive'
p7
I00
sS'geno'
p8
(lp9
(lp10
S'target'
p11
aa(lp12
(lp13
(lp14
S'target'
p15
aaaS'POINT./'
p16
a(lp17
(lp18
S'POINT./'
p19
aa(lp20
(lp21
S'target'
p22
aS'POINT.*'
p23
a(lp24
S'target'
p25
aaS'POINT.*'
p26
aaaS'currentVelocity'
p27
aS'POINT.+'
p28
aaS'target'
p29
aS'target'
p30
aS'POINT.*'
p31
aaS'target'
p32
aS'POINT.*'
p33
a(lp34
(lp35
S'POINT.*'
p36
aaS'POINT.*'
p37
a(lp38
S'target'
p39
aaS'mostEnergizedNeighbor'
p40
aaS'POINT.*'
p41
asS'accel_x'
p42
F0
sS'accel_y'
p43
F0
sS'maxAccel'
p44
I2
sS'maxVel'
p45
F0.5
sS'age'
p46
I0
sS'gener'
p47
S'm'
sS'lastScale'
p48
F5.5
sS'energy'
p49
F0.5
sb.(i__main__
Data_mobile
p1
(dp2
S'vel_y'
p3
I0
sS'vel_x'
p4
I0
sS'pos_x'
p5
I-9579
sS'pos_y'
p6
I9779
sS'isAlive'
p7
I00
sS'geno'
p8
(lp9
(lp10
S'POINT.*'
p11
aaS'POINT./'
p12
a(lp13
(lp14
S'currentVelocity'
p15
aa(lp16
(lp17
S'target'
p18
aaaS'POINT.+'
p19
a(lp20
(lp21
S'POINT.*'
p22
aaS'POINT.*'
p23
aS'currentVelocity'
p24
aS'mostEnergizedNeighbor'
p25
aaS'POINT./'
p26
aS'target'
p27
aa(lp28
S'POINT./'
p29
aS'POINT.*'
p30
aS'POINT./'
p31
aS'target'
p32
aa(lp33
S'POINT.*'
p34
aa(lp35
(lp36
(lp37
S'target'
p38
aaS'POINT./'
p39
aS'target'
p40
a(lp41
S'POINT./'
p42
aaS'target'
p43
aS'POINT.*'
p44
aaasS'accel_x'
p45
F0
sS'accel_y'
p46
F0
sS'maxAccel'
p47
I2
sS'maxVel'
p48
F0.5
sS'age'
p49
I0
sS'gener'
p50
S'm'
sS'lastScale'
p51
F5.5
sS'energy'
p52
F0.5
sb.(i__main__
Data_mobile
p1
(dp2
S'vel_y'
p3
I0
sS'vel_x'
p4
I0
sS'pos_x'
p5
I-9579
sS'pos_y'
p6
I9779
sS'isAlive'
p7
I00
sS'geno'
p8
(lp9
S'POINT./'
p10
aS'POINT./'
p11
a(lp12
(lp13
S'target'
p14
aaS'separation'
p15
aS'POINT.+'
p16
a(lp17
(lp18
(lp19
(lp20
S'mostEnergizedNeighbor'
p21
aaS'POINT.+'
p22
aS'target'
p23
a(lp24
S'currentVelocity'
p25
aS'POINT.*'
p26
a(lp27
S'target'
p28
aaS'POINT.*'
p29
aaS'POINT.*'
p30
aS'POINT.+'
p31
aaaS'POINT.*'
p32
aS'POINT.*'
p33
aS'target'
p34
aaS'POINT./'
p35
aS'target'
p36
aa(lp37
(lp38
S'POINT./'
p39
aa(lp40
S'POINT.+'
p41
aaS'currentVelocity'
p42
aS'POINT.+'
p43
aaS'target'
p44
aS'POINT./'
p45
asS'accel_x'
p46
F0
sS'accel_y'
p47
F0
sS'maxAccel'
p48
I2
sS'maxVel'
p49
F0.5
sS'age'
p50
I0
sS'gener'
p51
S'm'
sS'lastScale'
p52
F5.5
sS'energy'
p53
F0.5
sb.(i__main__
Data_mobile
p1
(dp2
S'vel_y'
p3
I0
sS'vel_x'
p4
I0
sS'pos_x'
p5
I-9579
sS'pos_y'
p6
I9779
sS'isAlive'
p7
I00
sS'geno'
p8
(lp9
S'POINT./'
p10
aS'POINT./'
p11
a(lp12
(lp13
S'target'
p14
aaS'separation'
p15
aS'POINT./'
p16
a(lp17
(lp18
(lp19
S'alignment'
p20
aaS'target'
p21
aS'alignment'
p22
aaS'POINT./'
p23
aS'separation'
p24
aS'target'
p25
a(lp26
S'target'
p27
a(lp28
S'POINT.*'
p29
aaS'POINT.+'
p30
a(lp31
S'currentVelocity'
p32
aaS'mostEnergizedNeighbor'
p33
aaaS'POINT./'
p34
aS'target'
p35
aa(lp36
(lp37
S'POINT./'
p38
aa(lp39
(lp40
(lp41
(lp42
S'flee'
p43
aaaS'POINT.*'
p44
aS'POINT./'
p45
aS'POINT.*'
p46
aaaS'currentVelocity'
p47
aS'POINT.+'
p48
aaS'target'
p49
aS'target'
p50
asS'accel_x'
p51
F0
sS'accel_y'
p52
F0
sS'maxAccel'
p53
I2
sS'maxVel'
p54
F0.5
sS'age'
p55
I0
sS'gener'
p56
S'm'
sS'lastScale'
p57
F5.5
sS'energy'
p58
F0.5
sb.(i__main__
Data_mobile
p1
(dp2
S'vel_y'
p3
I0
sS'vel_x'
p4
I0
sS'pos_x'
p5
I-9579
sS'pos_y'
p6
I9779
sS'isAlive'
p7
I00
sS'geno'
p8
(lp9
(lp10
S'POINT.*'
p11
aa(lp12
S'mostEnergizedNeighbor'
p13
aa(lp14
(lp15
S'currentVelocity'
p16
aa(lp17
(lp18
S'target'
p19
aaaS'POINT.+'
p20
a(lp21
(lp22
S'POINT.*'
p23
aaS'POINT.*'
p24
aS'currentVelocity'
p25
aS'mostEnergizedNeighbor'
p26
aaS'POINT./'
p27
aS'target'
p28
aa(lp29
S'POINT./'
p30
aS'POINT.*'
p31
aS'POINT./'
p32
aS'target'
p33
aa(lp34
S'POINT.*'
p35
aa(lp36
(lp37
(lp38
S'target'
p39
aaS'POINT./'
p40
aS'target'
p41
a(lp42
S'POINT./'
p43
aaS'target'
p44
aS'POINT.*'
p45
aaasS'accel_x'
p46
F0
sS'accel_y'
p47
F0
sS'maxAccel'
p48
I2
sS'maxVel'
p49
F0.5
sS'age'
p50
I0
sS'gener'
p51
S'm'
sS'lastScale'
p52
F5.5
sS'energy'
p53
F0.5
sb.(i__main__
Data_mobile
p1
(dp2
S'vel_y'
p3
I0
sS'vel_x'
p4
I0
sS'pos_x'
p5
I-9579
sS'pos_y'
p6
I9779
sS'isAlive'
p7
I00
sS'geno'
p8
(lp9
(lp10
(lp11
S'target'
p12
aaaS'POINT./'
p13
a(lp14
(lp15
S'currentVelocity'
p16
aa(lp17
(lp18
S'target'
p19
aaaS'POINT.+'
p20
a(lp21
(lp22
S'POINT.*'
p23
aaS'alignment'
p24
aS'POINT./'
p25
aS'target'
p26
aaS'POINT./'
p27
aS'target'
p28
aa(lp29
S'currentVelocity'
p30
aS'POINT.*'
p31
aS'target'
p32
aS'POINT.*'
p33
aa(lp34
S'POINT.*'
p35
aa(lp36
S'target'
p37
aasS'accel_x'
p38
F0
sS'accel_y'
p39
F0
sS'maxAccel'
p40
I2
sS'maxVel'
p41
F0.5
sS'age'
p42
I0
sS'gener'
p43
S'm'
sS'lastScale'
p44
F5.5
sS'energy'
p45
F0.5
sb.(i__main__
Data_mobile
p1
(dp2
S'vel_y'
p3
I0
sS'vel_x'
p4
I0
sS'pos_x'
p5
I-9579
sS'pos_y'
p6
I9779
sS'isAlive'
p7
I00
sS'geno'
p8
(lp9
S'POINT./'
p10
aS'POINT./'
p11
aS'target'
p12
a(lp13
S'POINT.*'
p14
aS'POINT.*'
p15
aS'POINT./'
p16
aS'POINT.*'
p17
aaS'target'
p18
aS'POINT./'
p19
asS'accel_x'
p20
F0
sS'accel_y'
p21
F0
sS'maxAccel'
p22
I2
sS'maxVel'
p23
F0.5
sS'age'
p24
I0
sS'gener'
p25
S'm'
sS'lastScale'
p26
F5.5
sS'energy'
p27
F0.5
sb.(i__main__
Data_mobile
p1
(dp2
S'vel_y'
p3
I0
sS'vel_x'
p4
I0
sS'pos_x'
p5
I-9579
sS'pos_y'
p6
I9779
sS'isAlive'
p7
I00
sS'geno'
p8
(lp9
(lp10
S'POINT.*'
p11
aaS'POINT./'
p12
a(lp13
(lp14
S'currentVelocity'
p15
aa(lp16
(lp17
S'target'
p18
aaaS'POINT.+'
p19
a(lp20
(lp21
S'POINT.*'
p22
aaS'POINT.*'
p23
aS'currentVelocity'
p24
aS'mostEnergizedNeighbor'
p25
aaS'POINT./'
p26
aS'target'
p27
aa(lp28
S'POINT./'
p29
aS'POINT.*'
p30
aS'POINT./'
p31
aS'target'
p32
aa(lp33
S'POINT.*'
p34
aa(lp35
(lp36
(lp37
S'target'
p38
aaS'POINT./'
p39
aS'target'
p40
a(lp41
S'POINT./'
p42
aaS'target'
p43
aS'POINT.*'
p44
aaasS'accel_x'
p45
F0
sS'accel_y'
p46
F0
sS'maxAccel'
p47
I2
sS'maxVel'
p48
F0.5
sS'age'
p49
I0
sS'gener'
p50
S'm'
sS'lastScale'
p51
F5.5
sS'energy'
p52
F0.5
sb.(i__main__
Data_mobile
p1
(dp2
S'vel_y'
p3
I0
sS'vel_x'
p4
I0
sS'pos_x'
p5
I-9579
sS'pos_y'
p6
I9779
sS'isAlive'
p7
I00
sS'geno'
p8
(lp9
(lp10
S'POINT.*'
p11
aaS'POINT./'
p12
a(lp13
(lp14
S'currentVelocity'
p15
aa(lp16
(lp17
(lp18
S'target'
p19
aaaaS'POINT.+'
p20
a(lp21
(lp22
S'POINT.*'
p23
aaS'POINT.*'
p24
aS'currentVelocity'
p25
aS'mostEnergizedNeighbor'
p26
aaS'POINT./'
p27
aS'POINT.*'
p28
aa(lp29
S'POINT./'
p30
aS'POINT.*'
p31
aS'POINT./'
p32
a(lp33
S'currentVelocity'
p34
aS'POINT./'
p35
aS'target'
p36
a(lp37
(lp38
S'POINT./'
p39
aaS'mostEnergizedNeighbor'
p40
aS'POINT.*'
p41
aS'mostEnergizedNeighbor'
p42
aaS'target'
p43
a(lp44
S'target'
p45
aaaa(lp46
S'POINT.*'
p47
aa(lp48
S'POINT./'
p49
aasS'accel_x'
p50
F0
sS'accel_y'
p51
F0
sS'maxAccel'
p52
I2
sS'maxVel'
p53
F0.5
sS'age'
p54
I0
sS'gener'
p55
S'm'
sS'lastScale'
p56
F5.5
sS'energy'
p57
F0.5
sb.(i__main__
Data_mobile
p1
(dp2
S'vel_y'
p3
I0
sS'vel_x'
p4
I0
sS'pos_x'
p5
I-9579
sS'pos_y'
p6
I9779
sS'isAlive'
p7
I00
sS'geno'
p8
(lp9
(lp10
S'target'
p11
aa(lp12
(lp13
S'target'
p14
aaS'POINT./'
p15
a(lp16
(lp17
S'POINT./'
p18
aa(lp19
(lp20
S'target'
p21
aS'POINT.*'
p22
a(lp23
S'target'
p24
aaS'POINT.*'
p25
aaaS'currentVelocity'
p26
aS'POINT.+'
p27
aaS'target'
p28
aS'target'
p29
aS'POINT.*'
p30
aaS'target'
p31
aS'POINT.*'
p32
a(lp33
(lp34
S'POINT.*'
p35
aaS'POINT.*'
p36
a(lp37
S'target'
p38
aaS'mostEnergizedNeighbor'
p39
aaS'POINT.*'
p40
asS'accel_x'
p41
F0
sS'accel_y'
p42
F0
sS'maxAccel'
p43
I2
sS'maxVel'
p44
F0.5
sS'age'
p45
I0
sS'gener'
p46
S'm'
sS'lastScale'
p47
F5.5
sS'energy'
p48
F0.5
sb.(i__main__
Data_mobile
p1
(dp2
S'vel_y'
p3
I0
sS'vel_x'
p4
I0
sS'pos_x'
p5
I-9579
sS'pos_y'
p6
I9779
sS'isAlive'
p7
I00
sS'geno'
p8
(lp9
S'POINT./'
p10
aS'POINT./'
p11
aS'POINT./'
p12
a(lp13
S'POINT.*'
p14
aS'POINT.*'
p15
aS'POINT./'
p16
aS'POINT.*'
p17
aaS'target'
p18
aS'target'
p19
asS'accel_x'
p20
F0
sS'accel_y'
p21
F0
sS'maxAccel'
p22
I2
sS'maxVel'
p23
F0.5
sS'age'
p24
I0
sS'gener'
p25
S'm'
sS'lastScale'
p26
F5.5
sS'energy'
p27
F0.5
sb.(i__main__
Data_mobile
p1
(dp2
S'vel_y'
p3
I0
sS'vel_x'
p4
I0
sS'pos_x'
p5
I-9579
sS'pos_y'
p6
I9779
sS'isAlive'
p7
I00
sS'geno'
p8
(lp9
S'POINT./'
p10
aS'POINT./'
p11
a(lp12
(lp13
S'target'
p14
aaS'separation'
p15
aS'POINT.+'
p16
a(lp17
(lp18
(lp19
(lp20
S'mostEnergizedNeighbor'
p21
aaS'POINT.+'
p22
aS'POINT.*'
p23
a(lp24
S'currentVelocity'
p25
aS'POINT.*'
p26
a(lp27
S'target'
p28
aaS'POINT.*'
p29
aaS'POINT.*'
p30
aS'POINT.+'
p31
aaaS'POINT.*'
p32
aS'POINT.*'
p33
aS'target'
p34
aaS'POINT./'
p35
aS'target'
p36
aa(lp37
(lp38
S'POINT./'
p39
aa(lp40
(lp41
S'POINT.*'
p42
aS'POINT.*'
p43
aS'POINT./'
p44
aS'POINT.*'
p45
aaaS'currentVelocity'
p46
aS'POINT.+'
p47
aaS'target'
p48
aS'target'
p49
asS'accel_x'
p50
F0
sS'accel_y'
p51
F0
sS'maxAccel'
p52
I2
sS'maxVel'
p53
F0.5
sS'age'
p54
I0
sS'gener'
p55
S'm'
sS'lastScale'
p56
F5.5
sS'energy'
p57
F0.5
sb.(i__main__
Data_mobile
p1
(dp2
S'vel_y'
p3
I0
sS'vel_x'
p4
I0
sS'pos_x'
p5
I-9579
sS'pos_y'
p6
I9779
sS'isAlive'
p7
I00
sS'geno'
p8
(lp9
S'POINT./'
p10
aS'POINT./'
p11
aS'POINT./'
p12
a(lp13
S'POINT.*'
p14
a(lp15
(lp16
(lp17
S'target'
p18
aaaS'POINT./'
p19
a(lp20
(lp21
S'currentVelocity'
p22
aa(lp23
(lp24
S'target'
p25
aaaS'POINT.+'
p26
a(lp27
(lp28
S'POINT.*'
p29
aaS'alignment'
p30
aS'currentVelocity'
p31
aS'target'
p32
aaS'POINT./'
p33
aS'target'
p34
aa(lp35
S'currentVelocity'
p36
aS'POINT.*'
p37
aS'target'
p38
aS'POINT.*'
p39
aa(lp40
S'POINT.*'
p41
aa(lp42
S'target'
p43
aaaS'POINT./'
p44
aS'POINT.*'
p45
aaS'target'
p46
aS'POINT./'
p47
asS'accel_x'
p48
F0
sS'accel_y'
p49
F0
sS'maxAccel'
p50
I2
sS'maxVel'
p51
F0.5
sS'age'
p52
I0
sS'gener'
p53
S'm'
sS'lastScale'
p54
F5.5
sS'energy'
p55
F0.5
sb.(i__main__
Data_mobile
p1
(dp2
S'vel_y'
p3
I0
sS'vel_x'
p4
I0
sS'pos_x'
p5
I-9579
sS'pos_y'
p6
I9779
sS'isAlive'
p7
I00
sS'geno'
p8
(lp9
(lp10
S'target'
p11
aa(lp12
(lp13
S'target'
p14
aaS'POINT./'
p15
a(lp16
(lp17
S'POINT./'
p18
aa(lp19
(lp20
S'target'
p21
aS'POINT.*'
p22
a(lp23
S'target'
p24
aaS'currentVelocity'
p25
aaaS'currentVelocity'
p26
aS'POINT.+'
p27
aaS'target'
p28
aS'target'
p29
aS'POINT.*'
p30
aaS'target'
p31
aS'POINT.*'
p32
aS'target'
p33
aS'POINT.*'
p34
asS'accel_x'
p35
F0
sS'accel_y'
p36
F0
sS'maxAccel'
p37
I2
sS'maxVel'
p38
F0.5
sS'age'
p39
I0
sS'gener'
p40
S'm'
sS'lastScale'
p41
F5.5
sS'energy'
p42
F0.5
sb.(i__main__
Data_mobile
p1
(dp2
S'vel_y'
p3
I0
sS'vel_x'
p4
I0
sS'pos_x'
p5
I-9579
sS'pos_y'
p6
I9779
sS'isAlive'
p7
I00
sS'geno'
p8
(lp9
S'POINT./'
p10
aS'POINT./'
p11
a(lp12
(lp13
S'target'
p14
aaS'separation'
p15
aS'POINT./'
p16
a(lp17
(lp18
(lp19
(lp20
S'mostEnergizedNeighbor'
p21
aaS'POINT.+'
p22
aS'POINT.*'
p23
a(lp24
S'currentVelocity'
p25
aS'POINT.*'
p26
a(lp27
S'target'
p28
aaS'POINT.*'
p29
aaS'POINT.*'
p30
aS'POINT.+'
p31
aaaS'POINT.*'
p32
aS'POINT.*'
p33
aS'target'
p34
aaS'POINT./'
p35
aS'target'
p36
aa(lp37
(lp38
S'POINT./'
p39
aa(lp40
(lp41
S'POINT.*'
p42
aS'POINT.*'
p43
aS'POINT./'
p44
aS'POINT.*'
p45
aaaS'currentVelocity'
p46
aS'POINT.+'
p47
aaS'target'
p48
aS'target'
p49
asS'accel_x'
p50
F0
sS'accel_y'
p51
F0
sS'maxAccel'
p52
I2
sS'maxVel'
p53
F0.5
sS'age'
p54
I0
sS'gener'
p55
S'm'
sS'lastScale'
p56
F5.5
sS'energy'
p57
F0.5
sb.(i__main__
Data_mobile
p1
(dp2
S'vel_y'
p3
I0
sS'vel_x'
p4
I0
sS'pos_x'
p5
I-9579
sS'pos_y'
p6
I9779
sS'isAlive'
p7
I00
sS'geno'
p8
(lp9
S'POINT./'
p10
aS'POINT./'
p11
a(lp12
(lp13
S'target'
p14
aaS'separation'
p15
aS'POINT.+'
p16
a(lp17
(lp18
(lp19
(lp20
S'mostEnergizedNeighbor'
p21
aaS'POINT.+'
p22
aS'POINT.*'
p23
a(lp24
S'currentVelocity'
p25
aS'POINT.*'
p26
a(lp27
S'target'
p28
aaS'POINT.*'
p29
aaS'POINT.*'
p30
aS'POINT.+'
p31
aaaS'POINT.*'
p32
aS'POINT.*'
p33
aS'target'
p34
aaS'POINT./'
p35
aS'target'
p36
aa(lp37
(lp38
S'POINT./'
p39
aa(lp40
(lp41
S'POINT.*'
p42
aS'POINT.*'
p43
aS'POINT./'
p44
aS'POINT.*'
p45
aaaS'currentVelocity'
p46
aS'POINT.+'
p47
aaS'target'
p48
aS'target'
p49
asS'accel_x'
p50
F0
sS'accel_y'
p51
F0
sS'maxAccel'
p52
I2
sS'maxVel'
p53
F0.5
sS'age'
p54
I0
sS'gener'
p55
S'm'
sS'lastScale'
p56
F5.5
sS'energy'
p57
F0.5
sb.(i__main__
Data_mobile
p1
(dp2
S'vel_y'
p3
I0
sS'vel_x'
p4
I0
sS'pos_x'
p5
I-9579
sS'pos_y'
p6
I9779
sS'isAlive'
p7
I00
sS'geno'
p8
(lp9
S'POINT./'
p10
aS'POINT./'
p11
a(lp12
S'target'
p13
aS'separation'
p14
aS'POINT.+'
p15
a(lp16
(lp17
S'currentVelocity'
p18
aaS'POINT.*'
p19
aS'POINT.*'
p20
aS'target'
p21
aaS'POINT./'
p22
aS'target'
p23
aa(lp24
(lp25
S'POINT./'
p26
aa(lp27
(lp28
S'target'
p29
aS'POINT.*'
p30
aS'POINT.+'
p31
aS'POINT.*'
p32
aaaS'currentVelocity'
p33
aS'POINT.+'
p34
aaS'target'
p35
aS'POINT./'
p36
asS'accel_x'
p37
F0
sS'accel_y'
p38
F0
sS'maxAccel'
p39
I2
sS'maxVel'
p40
F0.5
sS'age'
p41
I0
sS'gener'
p42
S'm'
sS'lastScale'
p43
F5.5
sS'energy'
p44
F0.5
sb.(i__main__
Data_mobile
p1
(dp2
S'vel_y'
p3
I0
sS'vel_x'
p4
I0
sS'pos_x'
p5
I-9579
sS'pos_y'
p6
I9779
sS'isAlive'
p7
I00
sS'geno'
p8
(lp9
S'POINT./'
p10
aS'POINT./'
p11
aS'POINT./'
p12
a(lp13
S'POINT.*'
p14
aS'POINT.*'
p15
aS'POINT./'
p16
aS'POINT.*'
p17
aaS'target'
p18
aS'POINT./'
p19
asS'accel_x'
p20
F0
sS'accel_y'
p21
F0
sS'maxAccel'
p22
I2
sS'maxVel'
p23
F0.5
sS'age'
p24
I0
sS'gener'
p25
S'm'
sS'lastScale'
p26
F5.5
sS'energy'
p27
F0.5
sb.(i__main__
Data_mobile
p1
(dp2
S'vel_y'
p3
I0
sS'vel_x'
p4
I0
sS'pos_x'
p5
I-9579
sS'pos_y'
p6
I9779
sS'isAlive'
p7
I00
sS'geno'
p8
(lp9
S'POINT./'
p10
aS'POINT./'
p11
a(lp12
(lp13
S'target'
p14
aaS'separation'
p15
aS'POINT.+'
p16
a(lp17
(lp18
(lp19
S'POINT./'
p20
aS'POINT./'
p21
aS'POINT./'
p22
a(lp23
S'POINT.*'
p24
aS'POINT.*'
p25
aS'POINT./'
p26
aS'POINT.*'
p27
aaS'target'
p28
aS'POINT./'
p29
aaaS'POINT.*'
p30
aS'POINT.*'
p31
aS'target'
p32
aaS'POINT./'
p33
aS'target'
p34
aa(lp35
(lp36
S'POINT./'
p37
aa(lp38
(lp39
S'POINT.*'
p40
aS'POINT.*'
p41
aS'POINT./'
p42
aS'POINT.*'
p43
aaaS'currentVelocity'
p44
aS'POINT.+'
p45
aaS'target'
p46
aS'target'
p47
asS'accel_x'
p48
F0
sS'accel_y'
p49
F0
sS'maxAccel'
p50
I2
sS'maxVel'
p51
F0.5
sS'age'
p52
I0
sS'gener'
p53
S'm'
sS'lastScale'
p54
F5.5
sS'energy'
p55
F0.5
sb.(i__main__
Data_mobile
p1
(dp2
S'vel_y'
p3
I0
sS'vel_x'
p4
I0
sS'pos_x'
p5
I-9579
sS'pos_y'
p6
I9779
sS'isAlive'
p7
I00
sS'geno'
p8
(lp9
S'POINT./'
p10
aS'POINT./'
p11
aS'POINT./'
p12
a(lp13
(lp14
S'POINT./'
p15
aa(lp16
(lp17
S'flee'
p18
aaa(lp19
S'POINT.*'
p20
aS'target'
p21
aS'POINT.*'
p22
aaS'POINT.+'
p23
aaS'target'
p24
aS'POINT./'
p25
asS'accel_x'
p26
F0
sS'accel_y'
p27
F0
sS'maxAccel'
p28
I2
sS'maxVel'
p29
F0.5
sS'age'
p30
I0
sS'gener'
p31
S'm'
sS'lastScale'
p32
F5.5
sS'energy'
p33
F0.5
sb.(i__main__
Data_mobile
p1
(dp2
S'vel_y'
p3
I0
sS'vel_x'
p4
I0
sS'pos_x'
p5
I-9579
sS'pos_y'
p6
I9779
sS'isAlive'
p7
I00
sS'geno'
p8
(lp9
S'POINT./'
p10
aS'POINT./'
p11
a(lp12
(lp13
S'target'
p14
aaS'separation'
p15
aS'POINT.+'
p16
a(lp17
(lp18
(lp19
S'mostEnergizedNeighbor'
p20
aS'POINT.+'
p21
aS'target'
p22
a(lp23
S'currentVelocity'
p24
aS'POINT.*'
p25
a(lp26
(lp27
S'target'
p28
aaaS'POINT.*'
p29
aaS'POINT.*'
p30
aS'POINT.+'
p31
aaaS'POINT.*'
p32
aS'POINT.*'
p33
aS'target'
p34
aaS'POINT./'
p35
aS'target'
p36
aa(lp37
(lp38
S'POINT./'
p39
aa(lp40
(lp41
S'target'
p42
aaaS'currentVelocity'
p43
aS'POINT.+'
p44
aaS'target'
p45
aS'POINT./'
p46
asS'accel_x'
p47
F0
sS'accel_y'
p48
F0
sS'maxAccel'
p49
I2
sS'maxVel'
p50
F0.5
sS'age'
p51
I0
sS'gener'
p52
S'm'
sS'lastScale'
p53
F5.5
sS'energy'
p54
F0.5
sb.(i__main__
Data_mobile
p1
(dp2
S'vel_y'
p3
I0
sS'vel_x'
p4
I0
sS'pos_x'
p5
I-9579
sS'pos_y'
p6
I9779
sS'isAlive'
p7
I00
sS'geno'
p8
(lp9
S'POINT./'
p10
aS'POINT./'
p11
a(lp12
(lp13
S'target'
p14
aaS'separation'
p15
aS'POINT.+'
p16
a(lp17
(lp18
(lp19
S'mostEnergizedNeighbor'
p20
aS'POINT.+'
p21
aS'target'
p22
a(lp23
S'currentVelocity'
p24
aS'POINT.*'
p25
a(lp26
(lp27
S'target'
p28
aaaS'POINT.*'
p29
aaS'POINT.*'
p30
aS'POINT.+'
p31
aaaS'POINT.*'
p32
aS'POINT.*'
p33
aS'target'
p34
aaS'POINT./'
p35
aS'target'
p36
aa(lp37
(lp38
S'POINT./'
p39
aa(lp40
(lp41
(lp42
S'POINT./'
p43
aaS'POINT.*'
p44
aS'POINT./'
p45
aS'POINT.*'
p46
aaaS'currentVelocity'
p47
aS'POINT.+'
p48
aaS'target'
p49
aS'POINT./'
p50
asS'accel_x'
p51
F0
sS'accel_y'
p52
F0
sS'maxAccel'
p53
I2
sS'maxVel'
p54
F0.5
sS'age'
p55
I0
sS'gener'
p56
S'm'
sS'lastScale'
p57
F5.5
sS'energy'
p58
F0.5
sb.(i__main__
Data_mobile
p1
(dp2
S'vel_y'
p3
I0
sS'vel_x'
p4
I0
sS'pos_x'
p5
I-9579
sS'pos_y'
p6
I9779
sS'isAlive'
p7
I00
sS'geno'
p8
(lp9
S'POINT./'
p10
aS'POINT./'
p11
a(lp12
(lp13
S'currentVelocity'
p14
aaS'separation'
p15
aS'POINT.+'
p16
a(lp17
(lp18
(lp19
(lp20
S'mostEnergizedNeighbor'
p21
aaS'POINT.+'
p22
aS'target'
p23
a(lp24
S'currentVelocity'
p25
aS'POINT.*'
p26
a(lp27
S'target'
p28
aaS'POINT.*'
p29
aaS'POINT.*'
p30
aS'POINT.+'
p31
aaaS'POINT.*'
p32
aS'POINT.*'
p33
aS'target'
p34
aaS'POINT./'
p35
aS'target'
p36
aa(lp37
(lp38
S'POINT./'
p39
aa(lp40
(lp41
S'target'
p42
aS'POINT.*'
p43
aS'POINT./'
p44
aS'POINT.*'
p45
aaaS'currentVelocity'
p46
aS'POINT.+'
p47
aaS'target'
p48
aS'POINT./'
p49
asS'accel_x'
p50
F0
sS'accel_y'
p51
F0
sS'maxAccel'
p52
I2
sS'maxVel'
p53
F0.5
sS'age'
p54
I0
sS'gener'
p55
S'm'
sS'lastScale'
p56
F5.5
sS'energy'
p57
F0.5
sb.(i__main__
Data_mobile
p1
(dp2
S'vel_y'
p3
I0
sS'vel_x'
p4
I0
sS'pos_x'
p5
I-9579
sS'pos_y'
p6
I9779
sS'isAlive'
p7
I00
sS'geno'
p8
(lp9
S'POINT./'
p10
aS'POINT./'
p11
a(lp12
(lp13
S'target'
p14
aaS'separation'
p15
aS'POINT.+'
p16
a(lp17
(lp18
(lp19
S'mostEnergizedNeighbor'
p20
aS'POINT.+'
p21
aS'target'
p22
a(lp23
S'currentVelocity'
p24
aS'POINT.*'
p25
a(lp26
(lp27
S'target'
p28
aaaS'POINT.*'
p29
aaS'POINT.*'
p30
aS'POINT.+'
p31
aaaS'POINT.*'
p32
aS'POINT.*'
p33
aS'target'
p34
aaS'POINT./'
p35
aS'target'
p36
aa(lp37
(lp38
S'POINT./'
p39
aa(lp40
(lp41
S'target'
p42
aS'POINT.*'
p43
aS'POINT./'
p44
aS'POINT.*'
p45
aaaS'currentVelocity'
p46
aS'POINT.+'
p47
aaS'target'
p48
aS'POINT./'
p49
asS'accel_x'
p50
F0
sS'accel_y'
p51
F0
sS'maxAccel'
p52
I2
sS'maxVel'
p53
F0.5
sS'age'
p54
I0
sS'gener'
p55
S'm'
sS'lastScale'
p56
F5.5
sS'energy'
p57
F0.5
sb.(i__main__
Data_mobile
p1
(dp2
S'vel_y'
p3
I0
sS'vel_x'
p4
I0
sS'pos_x'
p5
I-9579
sS'pos_y'
p6
I9779
sS'isAlive'
p7
I00
sS'geno'
p8
(lp9
S'POINT./'
p10
aS'POINT./'
p11
a(lp12
(lp13
S'target'
p14
aaS'separation'
p15
aS'POINT.+'
p16
a(lp17
(lp18
(lp19
(lp20
S'mostEnergizedNeighbor'
p21
aaS'POINT.+'
p22
aS'target'
p23
a(lp24
S'currentVelocity'
p25
aS'POINT.*'
p26
a(lp27
(lp28
S'target'
p29
aaaS'POINT.*'
p30
aaS'POINT.*'
p31
aS'POINT.+'
p32
aaaS'POINT.*'
p33
aS'POINT.*'
p34
aS'target'
p35
aaS'POINT./'
p36
aS'target'
p37
aa(lp38
(lp39
S'POINT./'
p40
aa(lp41
(lp42
S'target'
p43
aS'POINT.*'
p44
aS'POINT./'
p45
aS'POINT.*'
p46
aaaS'currentVelocity'
p47
aS'POINT.+'
p48
aaS'target'
p49
aS'randV'
p50
asS'accel_x'
p51
F0
sS'accel_y'
p52
F0
sS'maxAccel'
p53
I2
sS'maxVel'
p54
F0.5
sS'age'
p55
I0
sS'gener'
p56
S'm'
sS'lastScale'
p57
F5.5
sS'energy'
p58
F0.5
sb.(i__main__
Data_mobile
p1
(dp2
S'vel_y'
p3
I0
sS'vel_x'
p4
I0
sS'pos_x'
p5
I-9579
sS'pos_y'
p6
I9779
sS'isAlive'
p7
I00
sS'geno'
p8
(lp9
S'POINT./'
p10
aS'POINT./'
p11
aS'POINT./'
p12
a(lp13
S'POINT.*'
p14
aS'target'
p15
aS'POINT./'
p16
aS'POINT.*'
p17
aaS'target'
p18
aS'POINT./'
p19
asS'accel_x'
p20
F0
sS'accel_y'
p21
F0
sS'maxAccel'
p22
I2
sS'maxVel'
p23
F0.5
sS'age'
p24
I0
sS'gener'
p25
S'm'
sS'lastScale'
p26
F5.5
sS'energy'
p27
F0.5
sb.(i__main__
Data_mobile
p1
(dp2
S'vel_y'
p3
I0
sS'vel_x'
p4
I0
sS'pos_x'
p5
I-9579
sS'pos_y'
p6
I9779
sS'isAlive'
p7
I00
sS'geno'
p8
(lp9
(lp10
S'POINT.*'
p11
aaS'POINT./'
p12
a(lp13
(lp14
S'currentVelocity'
p15
aa(lp16
(lp17
S'target'
p18
aaaS'POINT.+'
p19
a(lp20
(lp21
S'POINT.*'
p22
aaS'POINT.*'
p23
a(lp24
S'target'
p25
aaS'mostEnergizedNeighbor'
p26
aaS'POINT./'
p27
aS'POINT.*'
p28
aa(lp29
S'POINT./'
p30
aS'POINT.*'
p31
aS'POINT./'
p32
a(lp33
S'currentVelocity'
p34
aS'POINT./'
p35
aS'target'
p36
a(lp37
(lp38
S'POINT.*'
p39
aaS'mostEnergizedNeighbor'
p40
aS'POINT.*'
p41
aS'mostEnergizedNeighbor'
p42
aaS'target'
p43
a(lp44
S'target'
p45
aaaa(lp46
S'POINT.*'
p47
aa(lp48
S'POINT./'
p49
aasS'accel_x'
p50
F0
sS'accel_y'
p51
F0
sS'maxAccel'
p52
I2
sS'maxVel'
p53
F0.5
sS'age'
p54
I0
sS'gener'
p55
S'm'
sS'lastScale'
p56
F5.5
sS'energy'
p57
F0.5
sb.(i__main__
Data_mobile
p1
(dp2
S'vel_y'
p3
I0
sS'vel_x'
p4
I0
sS'pos_x'
p5
I-9579
sS'pos_y'
p6
I9779
sS'isAlive'
p7
I00
sS'geno'
p8
(lp9
S'POINT./'
p10
aS'POINT./'
p11
a(lp12
(lp13
S'currentVelocity'
p14
aaS'separation'
p15
aS'POINT.+'
p16
a(lp17
(lp18
(lp19
(lp20
S'mostEnergizedNeighbor'
p21
aaS'POINT.+'
p22
aS'target'
p23
a(lp24
(lp25
S'POINT./'
p26
aS'POINT./'
p27
aS'target'
p28
aS'flee'
p29
aS'target'
p30
aS'POINT.*'
p31
aaS'POINT.*'
p32
aS'target'
p33
aS'POINT.*'
p34
aaS'POINT.*'
p35
a(lp36
S'POINT./'
p37
aaaaS'POINT.*'
p38
aS'POINT.*'
p39
aS'target'
p40
aaS'POINT./'
p41
aS'target'
p42
aa(lp43
(lp44
S'POINT./'
p45
aaS'POINT.*'
p46
aS'currentVelocity'
p47
aS'POINT.+'
p48
aaS'target'
p49
aS'POINT./'
p50
asS'accel_x'
p51
F0
sS'accel_y'
p52
F0
sS'maxAccel'
p53
I2
sS'maxVel'
p54
F0.5
sS'age'
p55
I0
sS'gener'
p56
S'm'
sS'lastScale'
p57
F5.5
sS'energy'
p58
F0.5
sb.(i__main__
Data_mobile
p1
(dp2
S'vel_y'
p3
I0
sS'vel_x'
p4
I0
sS'pos_x'
p5
I-9579
sS'pos_y'
p6
I9779
sS'isAlive'
p7
I00
sS'geno'
p8
(lp9
S'POINT./'
p10
aS'POINT./'
p11
aS'POINT./'
p12
a(lp13
(lp14
S'POINT./'
p15
aa(lp16
(lp17
S'POINT.*'
p18
aS'POINT.*'
p19
aS'POINT./'
p20
aS'POINT.*'
p21
aaa(lp22
S'POINT.*'
p23
a(lp24
S'currentVelocity'
p25
aS'POINT.*'
p26
aS'target'
p27
aS'POINT.*'
p28
aaS'POINT.*'
p29
aaS'POINT.+'
p30
aa(lp31
S'target'
p32
aS'POINT.*'
p33
aS'POINT./'
p34
aS'POINT.*'
p35
aaS'POINT./'
p36
asS'accel_x'
p37
F0
sS'accel_y'
p38
F0
sS'maxAccel'
p39
I2
sS'maxVel'
p40
F0.5
sS'age'
p41
I0
sS'gener'
p42
S'm'
sS'lastScale'
p43
F5.5
sS'energy'
p44
F0.5
sb.(i__main__
Data_mobile
p1
(dp2
S'vel_y'
p3
I0
sS'vel_x'
p4
I0
sS'pos_x'
p5
I-9579
sS'pos_y'
p6
I9779
sS'isAlive'
p7
I00
sS'geno'
p8
(lp9
S'POINT./'
p10
aS'POINT./'
p11
a(lp12
(lp13
S'currentVelocity'
p14
aaS'separation'
p15
aS'POINT.+'
p16
a(lp17
(lp18
(lp19
(lp20
S'mostEnergizedNeighbor'
p21
aaS'POINT.+'
p22
aS'target'
p23
a(lp24
(lp25
S'target'
p26
aS'POINT.*'
p27
aS'POINT./'
p28
aS'POINT.*'
p29
aaaS'POINT.*'
p30
aS'POINT.+'
p31
aaaS'POINT.*'
p32
aS'POINT.*'
p33
aS'target'
p34
aaS'POINT./'
p35
aS'target'
p36
aa(lp37
(lp38
S'POINT./'
p39
aa(lp40
(lp41
S'target'
p42
aS'POINT.*'
p43
aS'POINT./'
p44
aS'POINT.*'
p45
aaaS'currentVelocity'
p46
aS'POINT.+'
p47
aaS'target'
p48
aS'POINT./'
p49
asS'accel_x'
p50
F0
sS'accel_y'
p51
F0
sS'maxAccel'
p52
I2
sS'maxVel'
p53
F0.5
sS'age'
p54
I0
sS'gener'
p55
S'm'
sS'lastScale'
p56
F5.5
sS'energy'
p57
F0.5
sb.(i__main__
Data_mobile
p1
(dp2
S'vel_y'
p3
I0
sS'vel_x'
p4
I0
sS'pos_x'
p5
I-9579
sS'pos_y'
p6
I9779
sS'isAlive'
p7
I00
sS'geno'
p8
(lp9
S'POINT./'
p10
aS'POINT./'
p11
a(lp12
(lp13
S'currentVelocity'
p14
aaS'separation'
p15
aS'POINT.+'
p16
a(lp17
(lp18
(lp19
(lp20
S'mostEnergizedNeighbor'
p21
aaS'POINT.+'
p22
aS'target'
p23
a(lp24
S'currentVelocity'
p25
aS'POINT.*'
p26
aS'target'
p27
aS'POINT.*'
p28
aaS'POINT.*'
p29
aS'POINT.+'
p30
aaaS'POINT.*'
p31
aS'target'
p32
aS'target'
p33
aaS'POINT./'
p34
aS'target'
p35
aa(lp36
(lp37
S'POINT./'
p38
aa(lp39
(lp40
S'target'
p41
aS'POINT.*'
p42
aS'POINT./'
p43
aS'POINT.*'
p44
aaaS'currentVelocity'
p45
aS'POINT.+'
p46
aaS'target'
p47
aS'POINT./'
p48
asS'accel_x'
p49
F0
sS'accel_y'
p50
F0
sS'maxAccel'
p51
I2
sS'maxVel'
p52
F0.5
sS'age'
p53
I0
sS'gener'
p54
S'm'
sS'lastScale'
p55
F5.5
sS'energy'
p56
F0.5
sb.(i__main__
Data_mobile
p1
(dp2
S'vel_y'
p3
I0
sS'vel_x'
p4
I0
sS'pos_x'
p5
I-9579
sS'pos_y'
p6
I9779
sS'isAlive'
p7
I00
sS'geno'
p8
(lp9
S'POINT./'
p10
aS'POINT./'
p11
a(lp12
(lp13
S'currentVelocity'
p14
aaS'separation'
p15
aS'POINT.+'
p16
a(lp17
(lp18
(lp19
(lp20
S'mostEnergizedNeighbor'
p21
aaS'POINT.+'
p22
aS'target'
p23
a(lp24
S'currentVelocity'
p25
a(lp26
S'mostEnergizedNeighbor'
p27
aaS'target'
p28
aS'POINT.*'
p29
aaS'POINT.*'
p30
aS'POINT.+'
p31
aaaS'POINT.*'
p32
aS'POINT.*'
p33
aS'target'
p34
aaS'POINT./'
p35
aS'target'
p36
aa(lp37
(lp38
S'POINT./'
p39
aa(lp40
(lp41
S'target'
p42
aS'POINT.*'
p43
aS'POINT./'
p44
aS'POINT.*'
p45
aaaS'currentVelocity'
p46
aS'POINT.+'
p47
aaS'target'
p48
aS'POINT./'
p49
asS'accel_x'
p50
F0
sS'accel_y'
p51
F0
sS'maxAccel'
p52
I2
sS'maxVel'
p53
F0.5
sS'age'
p54
I0
sS'gener'
p55
S'm'
sS'lastScale'
p56
F5.5
sS'energy'
p57
F0.5
sb.(i__main__
Data_mobile
p1
(dp2
S'vel_y'
p3
I0
sS'vel_x'
p4
I0
sS'pos_x'
p5
I-9579
sS'pos_y'
p6
I9779
sS'isAlive'
p7
I00
sS'geno'
p8
(lp9
S'POINT.*'
p10
aS'POINT./'
p11
aS'target'
p12
aS'target'
p13
aS'target'
p14
aS'POINT.*'
p15
asS'accel_x'
p16
F0
sS'accel_y'
p17
F0
sS'maxAccel'
p18
I2
sS'maxVel'
p19
F0.5
sS'age'
p20
I0
sS'gener'
p21
S'm'
sS'lastScale'
p22
F5.5
sS'energy'
p23
F0.5
sb.(i__main__
Data_mobile
p1
(dp2
S'vel_y'
p3
I0
sS'vel_x'
p4
I0
sS'pos_x'
p5
I-9579
sS'pos_y'
p6
I9779
sS'isAlive'
p7
I00
sS'geno'
p8
(lp9
S'POINT.*'
p10
a(lp11
(lp12
S'mostEnergizedNeighbor'
p13
aaS'POINT.+'
p14
aS'POINT.+'
p15
a(lp16
S'currentVelocity'
p17
a(lp18
S'POINT.*'
p19
aS'target'
p20
aS'POINT.-'
p21
aaS'POINT./'
p22
aS'POINT.*'
p23
aaS'POINT.*'
p24
aS'POINT.+'
p25
aaS'POINT.+'
p26
a(lp27
S'POINT.*'
p28
aS'target'
p29
aS'POINT.*'
p30
aa(lp31
S'target'
p32
aa(lp33
S'target'
p34
aasS'accel_x'
p35
F0
sS'accel_y'
p36
F0
sS'maxAccel'
p37
I2
sS'maxVel'
p38
F0.5
sS'age'
p39
I0
sS'gener'
p40
S'm'
sS'lastScale'
p41
F5.5
sS'energy'
p42
F0.5
sb.(i__main__
Data_mobile
p1
(dp2
S'vel_y'
p3
I0
sS'vel_x'
p4
I0
sS'pos_x'
p5
I-9579
sS'pos_y'
p6
I9779
sS'isAlive'
p7
I00
sS'geno'
p8
(lp9
(lp10
S'POINT.*'
p11
aaS'POINT./'
p12
a(lp13
(lp14
S'currentVelocity'
p15
aa(lp16
(lp17
(lp18
S'target'
p19
aaaaS'POINT.+'
p20
a(lp21
(lp22
S'POINT.*'
p23
aaS'POINT.*'
p24
aS'currentVelocity'
p25
aS'mostEnergizedNeighbor'
p26
aaS'POINT./'
p27
aS'POINT.*'
p28
aa(lp29
S'POINT./'
p30
aS'POINT.*'
p31
aS'POINT./'
p32
a(lp33
S'currentVelocity'
p34
aS'POINT./'
p35
aS'target'
p36
a(lp37
(lp38
S'POINT./'
p39
aaS'mostEnergizedNeighbor'
p40
aS'POINT.*'
p41
aS'mostEnergizedNeighbor'
p42
aaS'target'
p43
a(lp44
S'target'
p45
aaaa(lp46
S'POINT.*'
p47
aa(lp48
S'POINT./'
p49
aasS'accel_x'
p50
F0
sS'accel_y'
p51
F0
sS'maxAccel'
p52
I2
sS'maxVel'
p53
F0.5
sS'age'
p54
I0
sS'gener'
p55
S'm'
sS'lastScale'
p56
F5.5
sS'energy'
p57
F0.5
sb.(i__main__
Data_mobile
p1
(dp2
S'vel_y'
p3
I0
sS'vel_x'
p4
I0
sS'pos_x'
p5
I-9579
sS'pos_y'
p6
I9779
sS'isAlive'
p7
I00
sS'geno'
p8
(lp9
S'POINT./'
p10
aS'POINT./'
p11
a(lp12
(lp13
S'currentVelocity'
p14
aaS'separation'
p15
aS'POINT.+'
p16
a(lp17
(lp18
(lp19
(lp20
S'mostEnergizedNeighbor'
p21
aaS'POINT.+'
p22
aS'target'
p23
a(lp24
(lp25
S'POINT./'
p26
aS'POINT./'
p27
aS'target'
p28
aS'flee'
p29
aS'target'
p30
aS'POINT.*'
p31
aaS'POINT.*'
p32
aS'target'
p33
aS'POINT.*'
p34
aaS'POINT.*'
p35
aS'POINT.+'
p36
aaaS'POINT.*'
p37
aS'POINT.*'
p38
aS'target'
p39
aaS'POINT./'
p40
aS'target'
p41
aa(lp42
(lp43
S'POINT./'
p44
aaS'POINT.*'
p45
aS'currentVelocity'
p46
aS'POINT.+'
p47
aaS'target'
p48
aS'POINT./'
p49
asS'accel_x'
p50
F0
sS'accel_y'
p51
F0
sS'maxAccel'
p52
I2
sS'maxVel'
p53
F0.5
sS'age'
p54
I0
sS'gener'
p55
S'm'
sS'lastScale'
p56
F5.5
sS'energy'
p57
F0.5
sb.(i__main__
Data_mobile
p1
(dp2
S'vel_y'
p3
I0
sS'vel_x'
p4
I0
sS'pos_x'
p5
I-9579
sS'pos_y'
p6
I9779
sS'isAlive'
p7
I00
sS'geno'
p8
(lp9
S'POINT./'
p10
aS'POINT./'
p11
a(lp12
(lp13
S'target'
p14
aaS'separation'
p15
aS'POINT.+'
p16
a(lp17
(lp18
(lp19
(lp20
S'mostEnergizedNeighbor'
p21
aaS'POINT.+'
p22
aS'target'
p23
a(lp24
S'currentVelocity'
p25
aS'POINT.*'
p26
aS'target'
p27
aS'POINT.*'
p28
aaS'POINT.*'
p29
aS'POINT.+'
p30
aaaS'POINT.*'
p31
aS'POINT.*'
p32
aS'target'
p33
aaS'POINT./'
p34
aS'currentVelocity'
p35
aa(lp36
(lp37
S'POINT./'
p38
aa(lp39
(lp40
S'target'
p41
aS'POINT.*'
p42
aS'POINT./'
p43
aS'POINT.*'
p44
aaaS'currentVelocity'
p45
aS'POINT.+'
p46
aaS'target'
p47
aS'POINT./'
p48
asS'accel_x'
p49
F0
sS'accel_y'
p50
F0
sS'maxAccel'
p51
I2
sS'maxVel'
p52
F0.5
sS'age'
p53
I0
sS'gener'
p54
S'm'
sS'lastScale'
p55
F5.5
sS'energy'
p56
F0.5
sb.(i__main__
Data_mobile
p1
(dp2
S'vel_y'
p3
I0
sS'vel_x'
p4
I0
sS'pos_x'
p5
I-9579
sS'pos_y'
p6
I9779
sS'isAlive'
p7
I00
sS'geno'
p8
(lp9
S'POINT./'
p10
aS'POINT./'
p11
a(lp12
(lp13
S'target'
p14
aaS'separation'
p15
aS'POINT.+'
p16
a(lp17
(lp18
(lp19
S'mostEnergizedNeighbor'
p20
aS'POINT.+'
p21
aS'target'
p22
a(lp23
S'currentVelocity'
p24
aS'POINT.*'
p25
a(lp26
(lp27
S'target'
p28
aaaS'POINT.*'
p29
aaS'POINT.*'
p30
aS'POINT./'
p31
aaaS'POINT.*'
p32
aS'POINT.*'
p33
aS'target'
p34
aaS'POINT./'
p35
aS'target'
p36
aa(lp37
(lp38
S'POINT.-'
p39
aa(lp40
(lp41
(lp42
S'POINT./'
p43
aaS'POINT.*'
p44
aS'POINT./'
p45
aS'POINT.*'
p46
aaaS'currentVelocity'
p47
aS'POINT.+'
p48
aaS'target'
p49
aS'POINT./'
p50
asS'accel_x'
p51
F0
sS'accel_y'
p52
F0
sS'maxAccel'
p53
I2
sS'maxVel'
p54
F0.5
sS'age'
p55
I0
sS'gener'
p56
S'm'
sS'lastScale'
p57
F5.5
sS'energy'
p58
F0.5
sb.(i__main__
Data_mobile
p1
(dp2
S'vel_y'
p3
I0
sS'vel_x'
p4
I0
sS'pos_x'
p5
I-9579
sS'pos_y'
p6
I9779
sS'isAlive'
p7
I00
sS'geno'
p8
(lp9
S'separation'
p10
aS'POINT./'
p11
a(lp12
(lp13
S'currentVelocity'
p14
aa(lp15
(lp16
S'target'
p17
aaaS'POINT.+'
p18
a(lp19
(lp20
S'POINT.*'
p21
aaS'POINT.*'
p22
a(lp23
S'target'
p24
aaS'mostEnergizedNeighbor'
p25
aaS'POINT./'
p26
aS'POINT.*'
p27
aa(lp28
S'POINT./'
p29
aS'POINT.*'
p30
aS'POINT./'
p31
a(lp32
S'currentVelocity'
p33
aS'POINT./'
p34
aS'target'
p35
a(lp36
(lp37
S'POINT./'
p38
aaS'mostEnergizedNeighbor'
p39
aS'POINT.*'
p40
aS'mostEnergizedNeighbor'
p41
aaS'target'
p42
a(lp43
S'target'
p44
aaaa(lp45
S'POINT.*'
p46
aa(lp47
S'POINT./'
p48
aasS'accel_x'
p49
F0
sS'accel_y'
p50
F0
sS'maxAccel'
p51
I2
sS'maxVel'
p52
F0.5
sS'age'
p53
I0
sS'gener'
p54
S'm'
sS'lastScale'
p55
F5.5
sS'energy'
p56
F0.5
sb.(i__main__
Data_mobile
p1
(dp2
S'vel_y'
p3
I0
sS'vel_x'
p4
I0
sS'pos_x'
p5
I-9579
sS'pos_y'
p6
I9779
sS'isAlive'
p7
I00
sS'geno'
p8
(lp9
S'POINT./'
p10
aS'POINT./'
p11
aS'POINT./'
p12
a(lp13
(lp14
S'POINT./'
p15
aa(lp16
(lp17
S'flee'
p18
aaa(lp19
S'POINT.*'
p20
aS'target'
p21
aS'POINT.*'
p22
aaS'POINT.+'
p23
aaS'target'
p24
aS'POINT./'
p25
asS'accel_x'
p26
F0
sS'accel_y'
p27
F0
sS'maxAccel'
p28
I2
sS'maxVel'
p29
F0.5
sS'age'
p30
I0
sS'gener'
p31
S'm'
sS'lastScale'
p32
F5.5
sS'energy'
p33
F0.5
sb.(i__main__
Data_mobile
p1
(dp2
S'vel_y'
p3
I0
sS'vel_x'
p4
I0
sS'pos_x'
p5
I-9579
sS'pos_y'
p6
I9779
sS'isAlive'
p7
I00
sS'geno'
p8
(lp9
S'POINT./'
p10
aS'POINT./'
p11
a(lp12
(lp13
S'target'
p14
aaS'separation'
p15
aS'POINT.+'
p16
a(lp17
(lp18
(lp19
(lp20
S'mostEnergizedNeighbor'
p21
aaS'POINT.+'
p22
aS'target'
p23
a(lp24
S'currentVelocity'
p25
aS'POINT.*'
p26
a(lp27
(lp28
S'target'
p29
aaaS'POINT.*'
p30
aaS'POINT.*'
p31
aS'POINT.+'
p32
aaaS'POINT.*'
p33
aS'POINT.*'
p34
aS'target'
p35
aaS'POINT./'
p36
aS'target'
p37
aa(lp38
S'target'
p39
aaS'target'
p40
aS'POINT./'
p41
asS'accel_x'
p42
F0
sS'accel_y'
p43
F0
sS'maxAccel'
p44
I2
sS'maxVel'
p45
F0.5
sS'age'
p46
I0
sS'gener'
p47
S'm'
sS'lastScale'
p48
F5.5
sS'energy'
p49
F0.5
sb.(i__main__
Data_mobile
p1
(dp2
S'vel_y'
p3
I0
sS'vel_x'
p4
I0
sS'pos_x'
p5
I-9579
sS'pos_y'
p6
I9779
sS'isAlive'
p7
I00
sS'geno'
p8
(lp9
S'POINT.*'
p10
a(lp11
(lp12
S'mostEnergizedNeighbor'
p13
aaS'POINT.+'
p14
aS'POINT.+'
p15
a(lp16
S'target'
p17
aaS'cohesion'
p18
aS'POINT.+'
p19
aaS'POINT.+'
p20
a(lp21
S'POINT.*'
p22
aS'target'
p23
aS'POINT.*'
p24
aa(lp25
S'target'
p26
aa(lp27
(lp28
S'currentVelocity'
p29
aaasS'accel_x'
p30
F0
sS'accel_y'
p31
F0
sS'maxAccel'
p32
I2
sS'maxVel'
p33
F0.5
sS'age'
p34
I0
sS'gener'
p35
S'm'
sS'lastScale'
p36
F5.5
sS'energy'
p37
F0.5
sb.(i__main__
Data_mobile
p1
(dp2
S'vel_y'
p3
I0
sS'vel_x'
p4
I0
sS'pos_x'
p5
I-9579
sS'pos_y'
p6
I9779
sS'isAlive'
p7
I00
sS'geno'
p8
(lp9
S'POINT.*'
p10
a(lp11
(lp12
S'mostEnergizedNeighbor'
p13
aaS'POINT.+'
p14
aS'POINT.+'
p15
a(lp16
S'target'
p17
aaS'POINT.*'
p18
aS'POINT.+'
p19
aaS'POINT.+'
p20
a(lp21
(lp22
(lp23
S'POINT.*'
p24
aS'POINT.*'
p25
aS'POINT./'
p26
aS'POINT.*'
p27
aaaS'target'
p28
aS'POINT.*'
p29
aa(lp30
S'target'
p31
aa(lp32
S'target'
p33
aasS'accel_x'
p34
F0
sS'accel_y'
p35
F0
sS'maxAccel'
p36
I2
sS'maxVel'
p37
F0.5
sS'age'
p38
I0
sS'gener'
p39
S'm'
sS'lastScale'
p40
F5.5
sS'energy'
p41
F0.5
sb.(i__main__
Data_mobile
p1
(dp2
S'vel_y'
p3
I0
sS'vel_x'
p4
I0
sS'pos_x'
p5
I-9579
sS'pos_y'
p6
I9779
sS'isAlive'
p7
I00
sS'geno'
p8
(lp9
S'POINT.*'
p10
aS'POINT./'
p11
aS'target'
p12
aS'POINT./'
p13
aS'alignment'
p14
aS'POINT.*'
p15
asS'accel_x'
p16
F0
sS'accel_y'
p17
F0
sS'maxAccel'
p18
I2
sS'maxVel'
p19
F0.5
sS'age'
p20
I0
sS'gener'
p21
S'm'
sS'lastScale'
p22
F5.5
sS'energy'
p23
F0.5
sb.(i__main__
Data_mobile
p1
(dp2
S'vel_y'
p3
I0
sS'vel_x'
p4
I0
sS'pos_x'
p5
I-9579
sS'pos_y'
p6
I9779
sS'isAlive'
p7
I00
sS'geno'
p8
(lp9
S'POINT./'
p10
aS'POINT./'
p11
a(lp12
(lp13
S'target'
p14
aaS'separation'
p15
aS'POINT.+'
p16
a(lp17
(lp18
S'POINT.*'
p19
aaS'POINT.*'
p20
aS'POINT.*'
p21
aS'target'
p22
aaS'POINT./'
p23
aS'target'
p24
aa(lp25
(lp26
S'POINT./'
p27
aa(lp28
(lp29
S'POINT.*'
p30
aS'POINT.*'
p31
aS'POINT./'
p32
aS'POINT.*'
p33
aaaS'currentVelocity'
p34
aS'POINT.+'
p35
aaS'target'
p36
aS'POINT./'
p37
asS'accel_x'
p38
F0
sS'accel_y'
p39
F0
sS'maxAccel'
p40
I2
sS'maxVel'
p41
F0.5
sS'age'
p42
I0
sS'gener'
p43
S'm'
sS'lastScale'
p44
F5.5
sS'energy'
p45
F0.5
sb.(i__main__
Data_mobile
p1
(dp2
S'vel_y'
p3
I0
sS'vel_x'
p4
I0
sS'pos_x'
p5
I-9579
sS'pos_y'
p6
I9779
sS'isAlive'
p7
I00
sS'geno'
p8
(lp9
(lp10
S'POINT.*'
p11
aaS'POINT./'
p12
a(lp13
(lp14
S'currentVelocity'
p15
aa(lp16
(lp17
S'POINT./'
p18
aaaS'POINT.+'
p19
a(lp20
(lp21
S'POINT.*'
p22
aaS'POINT.*'
p23
aS'currentVelocity'
p24
aS'mostEnergizedNeighbor'
p25
aaS'POINT./'
p26
aS'POINT./'
p27
aa(lp28
S'POINT./'
p29
aS'currentVelocity'
p30
aS'POINT./'
p31
a(lp32
S'currentVelocity'
p33
aS'POINT./'
p34
aS'target'
p35
a(lp36
(lp37
S'POINT./'
p38
aaS'mostEnergizedNeighbor'
p39
aS'POINT.*'
p40
aS'mostEnergizedNeighbor'
p41
aaS'target'
p42
a(lp43
S'target'
p44
aaaa(lp45
S'POINT.*'
p46
aa(lp47
S'POINT./'
p48
aasS'accel_x'
p49
F0
sS'accel_y'
p50
F0
sS'maxAccel'
p51
I2
sS'maxVel'
p52
F0.5
sS'age'
p53
I0
sS'gener'
p54
S'm'
sS'lastScale'
p55
F5.5
sS'energy'
p56
F0.5
sb.(i__main__
Data_mobile
p1
(dp2
S'vel_y'
p3
I0
sS'vel_x'
p4
I0
sS'pos_x'
p5
I-9579
sS'pos_y'
p6
I9779
sS'isAlive'
p7
I00
sS'geno'
p8
(lp9
S'POINT./'
p10
aS'POINT./'
p11
a(lp12
(lp13
S'currentVelocity'
p14
aaS'separation'
p15
aS'POINT.+'
p16
a(lp17
(lp18
(lp19
(lp20
S'mostEnergizedNeighbor'
p21
aaS'POINT.+'
p22
aS'target'
p23
a(lp24
(lp25
S'target'
p26
aS'POINT.*'
p27
aS'POINT./'
p28
aS'POINT.*'
p29
aaaS'POINT.*'
p30
aS'POINT.+'
p31
aaaS'POINT.*'
p32
aS'POINT.*'
p33
aS'target'
p34
aaS'POINT./'
p35
aS'target'
p36
aa(lp37
(lp38
S'POINT./'
p39
aa(lp40
(lp41
S'target'
p42
aS'POINT.*'
p43
aS'POINT./'
p44
aS'POINT.*'
p45
aaaS'currentVelocity'
p46
aS'POINT.+'
p47
aaS'target'
p48
aS'POINT./'
p49
asS'accel_x'
p50
F0
sS'accel_y'
p51
F0
sS'maxAccel'
p52
I2
sS'maxVel'
p53
F0.5
sS'age'
p54
I0
sS'gener'
p55
S'm'
sS'lastScale'
p56
F5.5
sS'energy'
p57
F0.5
sb.(i__main__
Data_mobile
p1
(dp2
S'vel_y'
p3
I0
sS'vel_x'
p4
I0
sS'pos_x'
p5
I-9579
sS'pos_y'
p6
I9779
sS'isAlive'
p7
I00
sS'geno'
p8
(lp9
(lp10
S'target'
p11
aaS'POINT./'
p12
aS'target'
p13
aS'flee'
p14
aS'target'
p15
a(lp16
S'POINT./'
p17
aS'POINT./'
p18
aS'target'
p19
aS'flee'
p20
a(lp21
S'mostEnergizedNeighbor'
p22
aaS'POINT.*'
p23
aasS'accel_x'
p24
F0
sS'accel_y'
p25
F0
sS'maxAccel'
p26
I2
sS'maxVel'
p27
F0.5
sS'age'
p28
I0
sS'gener'
p29
S'm'
sS'lastScale'
p30
F5.5
sS'energy'
p31
F0.5
sb.(i__main__
Data_mobile
p1
(dp2
S'vel_y'
p3
I0
sS'vel_x'
p4
I0
sS'pos_x'
p5
I-9579
sS'pos_y'
p6
I9779
sS'isAlive'
p7
I00
sS'geno'
p8
(lp9
S'POINT.*'
p10
a(lp11
(lp12
S'mostEnergizedNeighbor'
p13
aaS'POINT.+'
p14
aS'POINT.+'
p15
a(lp16
S'currentVelocity'
p17
a(lp18
S'POINT.*'
p19
aS'target'
p20
aS'POINT.-'
p21
aaS'POINT./'
p22
aS'POINT.*'
p23
aaS'POINT.*'
p24
aS'POINT.+'
p25
aaS'POINT.+'
p26
a(lp27
S'POINT.*'
p28
aS'target'
p29
aS'POINT.*'
p30
aa(lp31
S'target'
p32
aa(lp33
S'mostEnergizedNeighbor'
p34
aasS'accel_x'
p35
F0
sS'accel_y'
p36
F0
sS'maxAccel'
p37
I2
sS'maxVel'
p38
F0.5
sS'age'
p39
I0
sS'gener'
p40
S'm'
sS'lastScale'
p41
F5.5
sS'energy'
p42
F0.5
sb.(i__main__
Data_mobile
p1
(dp2
S'vel_y'
p3
I0
sS'vel_x'
p4
I0
sS'pos_x'
p5
I-9579
sS'pos_y'
p6
I9779
sS'isAlive'
p7
I00
sS'geno'
p8
(lp9
S'POINT./'
p10
aS'POINT./'
p11
a(lp12
(lp13
S'target'
p14
aaS'separation'
p15
aS'POINT.+'
p16
a(lp17
(lp18
(lp19
(lp20
S'mostEnergizedNeighbor'
p21
aaS'POINT.+'
p22
aS'target'
p23
a(lp24
S'currentVelocity'
p25
aS'POINT.*'
p26
a(lp27
S'target'
p28
aaS'POINT.*'
p29
aaS'POINT.*'
p30
aS'POINT.+'
p31
aaaS'POINT.*'
p32
aS'POINT.*'
p33
aS'target'
p34
aaS'POINT./'
p35
aS'target'
p36
aa(lp37
(lp38
S'POINT./'
p39
aa(lp40
(lp41
S'POINT.*'
p42
aS'POINT.*'
p43
aS'POINT./'
p44
aS'POINT.*'
p45
aaaS'currentVelocity'
p46
aS'POINT.+'
p47
aaS'target'
p48
aS'POINT./'
p49
asS'accel_x'
p50
F0
sS'accel_y'
p51
F0
sS'maxAccel'
p52
I2
sS'maxVel'
p53
F0.5
sS'age'
p54
I0
sS'gener'
p55
S'm'
sS'lastScale'
p56
F5.5
sS'energy'
p57
F0.5
sb.(i__main__
Data_mobile
p1
(dp2
S'vel_y'
p3
I0
sS'vel_x'
p4
I0
sS'pos_x'
p5
I-9579
sS'pos_y'
p6
I9779
sS'isAlive'
p7
I00
sS'geno'
p8
(lp9
S'POINT./'
p10
aS'POINT./'
p11
a(lp12
(lp13
S'currentVelocity'
p14
aaS'separation'
p15
aS'POINT.+'
p16
a(lp17
(lp18
(lp19
(lp20
S'mostEnergizedNeighbor'
p21
aaS'POINT.+'
p22
aS'target'
p23
a(lp24
S'currentVelocity'
p25
aS'POINT.*'
p26
aS'target'
p27
aS'POINT.*'
p28
aaS'POINT.*'
p29
aS'POINT.+'
p30
aaaS'POINT.*'
p31
aS'POINT.*'
p32
aS'target'
p33
aaS'POINT./'
p34
aS'target'
p35
aa(lp36
(lp37
S'POINT./'
p38
aaS'POINT.*'
p39
aS'currentVelocity'
p40
aS'POINT.+'
p41
aaS'target'
p42
aS'POINT./'
p43
asS'accel_x'
p44
F0
sS'accel_y'
p45
F0
sS'maxAccel'
p46
I2
sS'maxVel'
p47
F0.5
sS'age'
p48
I0
sS'gener'
p49
S'm'
sS'lastScale'
p50
F5.5
sS'energy'
p51
F0.5
sb.(i__main__
Data_mobile
p1
(dp2
S'vel_y'
p3
I0
sS'vel_x'
p4
I0
sS'pos_x'
p5
I-9579
sS'pos_y'
p6
I9779
sS'isAlive'
p7
I00
sS'geno'
p8
(lp9
(lp10
S'target'
p11
aaS'target'
p12
aS'target'
p13
aS'flee'
p14
aS'target'
p15
a(lp16
S'POINT./'
p17
aS'POINT./'
p18
aS'target'
p19
aS'flee'
p20
aS'target'
p21
aS'POINT.*'
p22
aasS'accel_x'
p23
F0
sS'accel_y'
p24
F0
sS'maxAccel'
p25
I2
sS'maxVel'
p26
F0.5
sS'age'
p27
I0
sS'gener'
p28
S'm'
sS'lastScale'
p29
F5.5
sS'energy'
p30
F0.5
sb.(i__main__
Data_mobile
p1
(dp2
S'vel_y'
p3
I0
sS'vel_x'
p4
I0
sS'pos_x'
p5
I-9579
sS'pos_y'
p6
I9779
sS'isAlive'
p7
I00
sS'geno'
p8
(lp9
S'POINT./'
p10
aS'POINT./'
p11
a(lp12
(lp13
S'currentVelocity'
p14
aaS'separation'
p15
aS'POINT.+'
p16
a(lp17
(lp18
(lp19
(lp20
S'mostEnergizedNeighbor'
p21
aaS'POINT.+'
p22
aS'target'
p23
a(lp24
S'currentVelocity'
p25
aS'POINT.*'
p26
a(lp27
S'target'
p28
aaS'POINT.*'
p29
aaS'POINT.*'
p30
aS'POINT.+'
p31
aaaS'POINT.*'
p32
aS'POINT.*'
p33
aS'target'
p34
aaS'POINT./'
p35
aS'target'
p36
aa(lp37
(lp38
S'POINT./'
p39
aa(lp40
(lp41
S'target'
p42
aS'POINT.*'
p43
aS'POINT./'
p44
aS'POINT.*'
p45
aaaS'currentVelocity'
p46
aS'POINT.+'
p47
aaS'target'
p48
aS'POINT./'
p49
asS'accel_x'
p50
F0
sS'accel_y'
p51
F0
sS'maxAccel'
p52
I2
sS'maxVel'
p53
F0.5
sS'age'
p54
I0
sS'gener'
p55
S'm'
sS'lastScale'
p56
F5.5
sS'energy'
p57
F0.5
sb.(i__main__
Data_mobile
p1
(dp2
S'vel_y'
p3
I0
sS'vel_x'
p4
I0
sS'pos_x'
p5
I-9579
sS'pos_y'
p6
I9779
sS'isAlive'
p7
I00
sS'geno'
p8
(lp9
S'POINT./'
p10
aS'POINT./'
p11
a(lp12
(lp13
S'currentVelocity'
p14
aaS'separation'
p15
aS'POINT.+'
p16
a(lp17
(lp18
(lp19
(lp20
S'mostEnergizedNeighbor'
p21
aaS'POINT.+'
p22
aS'target'
p23
a(lp24
S'currentVelocity'
p25
aS'POINT.*'
p26
a(lp27
S'target'
p28
aaS'POINT.*'
p29
aaS'POINT.*'
p30
aS'POINT.+'
p31
aaaS'POINT.*'
p32
aS'POINT.*'
p33
aS'target'
p34
aaS'POINT./'
p35
aS'target'
p36
aa(lp37
(lp38
S'POINT./'
p39
aa(lp40
(lp41
S'target'
p42
aS'POINT.*'
p43
aS'POINT./'
p44
aS'POINT.*'
p45
aaaS'currentVelocity'
p46
aS'POINT.+'
p47
aaS'target'
p48
aS'POINT./'
p49
asS'accel_x'
p50
F0
sS'accel_y'
p51
F0
sS'maxAccel'
p52
I2
sS'maxVel'
p53
F0.5
sS'age'
p54
I0
sS'gener'
p55
S'm'
sS'lastScale'
p56
F5.5
sS'energy'
p57
F0.5
sb.(i__main__
Data_mobile
p1
(dp2
S'vel_y'
p3
I0
sS'vel_x'
p4
I0
sS'pos_x'
p5
I-9579
sS'pos_y'
p6
I9779
sS'isAlive'
p7
I00
sS'geno'
p8
(lp9
(lp10
S'POINT.*'
p11
aaS'POINT./'
p12
aS'currentVelocity'
p13
a(lp14
S'POINT./'
p15
aS'POINT.*'
p16
aS'POINT./'
p17
a(lp18
S'currentVelocity'
p19
aS'POINT./'
p20
aS'target'
p21
a(lp22
(lp23
S'POINT./'
p24
aaS'mostEnergizedNeighbor'
p25
aS'POINT.*'
p26
aS'mostEnergizedNeighbor'
p27
aaS'target'
p28
a(lp29
S'target'
p30
aaaa(lp31
S'POINT.*'
p32
aa(lp33
S'POINT./'
p34
aasS'accel_x'
p35
F0
sS'accel_y'
p36
F0
sS'maxAccel'
p37
I2
sS'maxVel'
p38
F0.5
sS'age'
p39
I0
sS'gener'
p40
S'm'
sS'lastScale'
p41
F5.5
sS'energy'
p42
F0.5
sb.(i__main__
Data_mobile
p1
(dp2
S'vel_y'
p3
I0
sS'vel_x'
p4
I0
sS'pos_x'
p5
I-9579
sS'pos_y'
p6
I9779
sS'isAlive'
p7
I00
sS'geno'
p8
(lp9
(lp10
S'POINT.*'
p11
aaS'POINT./'
p12
a(lp13
(lp14
S'currentVelocity'
p15
aa(lp16
(lp17
S'target'
p18
aaaS'POINT.+'
p19
a(lp20
(lp21
S'POINT.*'
p22
aaS'POINT.*'
p23
aS'currentVelocity'
p24
aS'mostEnergizedNeighbor'
p25
aaS'POINT./'
p26
aS'target'
p27
aaS'POINT.*'
p28
a(lp29
S'POINT.*'
p30
aa(lp31
S'POINT./'
p32
aasS'accel_x'
p33
F0
sS'accel_y'
p34
F0
sS'maxAccel'
p35
I2
sS'maxVel'
p36
F0.5
sS'age'
p37
I0
sS'gener'
p38
S'm'
sS'lastScale'
p39
F5.5
sS'energy'
p40
F0.5
sb.(i__main__
Data_mobile
p1
(dp2
S'vel_y'
p3
I0
sS'vel_x'
p4
I0
sS'pos_x'
p5
I-9579
sS'pos_y'
p6
I9779
sS'isAlive'
p7
I00
sS'geno'
p8
(lp9
S'POINT./'
p10
aS'POINT./'
p11
a(lp12
(lp13
S'currentVelocity'
p14
aaS'separation'
p15
aS'POINT.+'
p16
a(lp17
(lp18
(lp19
(lp20
S'mostEnergizedNeighbor'
p21
aaS'POINT.+'
p22
aS'target'
p23
a(lp24
S'mostEnergizedNeighbor'
p25
aS'POINT.*'
p26
aS'target'
p27
aS'POINT.*'
p28
aaS'POINT.*'
p29
aS'POINT.+'
p30
aaaS'POINT.*'
p31
aS'POINT.*'
p32
aS'target'
p33
aaS'POINT./'
p34
aS'target'
p35
aa(lp36
(lp37
S'POINT./'
p38
aa(lp39
(lp40
S'target'
p41
aS'POINT.*'
p42
aS'POINT./'
p43
aS'POINT.*'
p44
aaaS'currentVelocity'
p45
aS'POINT.+'
p46
aaS'target'
p47
aS'POINT./'
p48
asS'accel_x'
p49
F0
sS'accel_y'
p50
F0
sS'maxAccel'
p51
I2
sS'maxVel'
p52
F0.5
sS'age'
p53
I0
sS'gener'
p54
S'm'
sS'lastScale'
p55
F5.5
sS'energy'
p56
F0.5
sb.(i__main__
Data_mobile
p1
(dp2
S'vel_y'
p3
I0
sS'vel_x'
p4
I0
sS'pos_x'
p5
I-9579
sS'pos_y'
p6
I9779
sS'isAlive'
p7
I00
sS'geno'
p8
(lp9
(lp10
S'POINT.*'
p11
aaS'POINT./'
p12
aS'POINT.*'
p13
a(lp14
S'POINT./'
p15
aS'POINT.*'
p16
aS'POINT./'
p17
a(lp18
S'currentVelocity'
p19
aS'POINT./'
p20
aS'target'
p21
a(lp22
(lp23
S'POINT./'
p24
aaS'mostEnergizedNeighbor'
p25
aS'POINT.*'
p26
aS'mostEnergizedNeighbor'
p27
aaS'target'
p28
a(lp29
S'target'
p30
aaaa(lp31
S'POINT.*'
p32
aa(lp33
S'POINT./'
p34
aasS'accel_x'
p35
F0
sS'accel_y'
p36
F0
sS'maxAccel'
p37
I2
sS'maxVel'
p38
F0.5
sS'age'
p39
I0
sS'gener'
p40
S'm'
sS'lastScale'
p41
F5.5
sS'energy'
p42
F0.5
sb.(i__main__
Data_mobile
p1
(dp2
S'vel_y'
p3
I0
sS'vel_x'
p4
I0
sS'pos_x'
p5
I-9579
sS'pos_y'
p6
I9779
sS'isAlive'
p7
I00
sS'geno'
p8
(lp9
(lp10
S'POINT.*'
p11
aaS'POINT./'
p12
a(lp13
(lp14
S'currentVelocity'
p15
aa(lp16
(lp17
S'target'
p18
aaaS'POINT.+'
p19
a(lp20
(lp21
S'POINT.*'
p22
aaS'POINT.*'
p23
a(lp24
S'target'
p25
aaS'mostEnergizedNeighbor'
p26
aaS'POINT./'
p27
aS'POINT.*'
p28
aa(lp29
S'POINT./'
p30
aS'POINT.*'
p31
aS'POINT./'
p32
a(lp33
S'currentVelocity'
p34
aS'POINT./'
p35
aS'target'
p36
a(lp37
(lp38
S'POINT./'
p39
aaS'mostEnergizedNeighbor'
p40
aS'POINT.*'
p41
aS'mostEnergizedNeighbor'
p42
aaS'target'
p43
a(lp44
S'target'
p45
aaaa(lp46
S'POINT.*'
p47
aa(lp48
S'POINT./'
p49
aasS'accel_x'
p50
F0
sS'accel_y'
p51
F0
sS'maxAccel'
p52
I2
sS'maxVel'
p53
F0.5
sS'age'
p54
I0
sS'gener'
p55
S'm'
sS'lastScale'
p56
F5.5
sS'energy'
p57
F0.5
sb.(i__main__
Data_mobile
p1
(dp2
S'vel_y'
p3
I0
sS'vel_x'
p4
I0
sS'pos_x'
p5
I-9579
sS'pos_y'
p6
I9779
sS'isAlive'
p7
I00
sS'geno'
p8
(lp9
S'POINT./'
p10
aS'POINT./'
p11
aS'POINT./'
p12
a(lp13
(lp14
S'POINT./'
p15
aa(lp16
(lp17
S'flee'
p18
aaa(lp19
S'POINT.*'
p20
aS'target'
p21
aS'POINT.*'
p22
aaS'POINT.+'
p23
aaS'target'
p24
a(lp25
(lp26
(lp27
S'mostEnergizedNeighbor'
p28
aaS'POINT.+'
p29
aS'POINT.*'
p30
a(lp31
S'currentVelocity'
p32
aS'POINT.*'
p33
a(lp34
S'target'
p35
aaS'POINT.*'
p36
aaS'POINT.*'
p37
aS'POINT.+'
p38
aaasS'accel_x'
p39
F0
sS'accel_y'
p40
F0
sS'maxAccel'
p41
I2
sS'maxVel'
p42
F0.5
sS'age'
p43
I0
sS'gener'
p44
S'm'
sS'lastScale'
p45
F5.5
sS'energy'
p46
F0.5
sb.(i__main__
Data_mobile
p1
(dp2
S'vel_y'
p3
I0
sS'vel_x'
p4
I0
sS'pos_x'
p5
I-9579
sS'pos_y'
p6
I9779
sS'isAlive'
p7
I00
sS'geno'
p8
(lp9
(lp10
S'target'
p11
aa(lp12
(lp13
S'target'
p14
aaS'POINT./'
p15
a(lp16
(lp17
S'POINT.*'
p18
aa(lp19
(lp20
S'target'
p21
aS'POINT.*'
p22
a(lp23
S'target'
p24
aaS'POINT.*'
p25
aaaS'currentVelocity'
p26
aS'POINT.+'
p27
aaS'target'
p28
aS'target'
p29
aS'POINT.*'
p30
aaS'target'
p31
aS'POINT.*'
p32
aS'target'
p33
aS'POINT.*'
p34
asS'accel_x'
p35
F0
sS'accel_y'
p36
F0
sS'maxAccel'
p37
I2
sS'maxVel'
p38
F0.5
sS'age'
p39
I0
sS'gener'
p40
S'm'
sS'lastScale'
p41
F5.5
sS'energy'
p42
F0.5
sb.(i__main__
Data_mobile
p1
(dp2
S'vel_y'
p3
I0
sS'vel_x'
p4
I0
sS'pos_x'
p5
I-9579
sS'pos_y'
p6
I9779
sS'isAlive'
p7
I00
sS'geno'
p8
(lp9
(lp10
S'POINT.*'
p11
aaS'POINT./'
p12
a(lp13
(lp14
S'currentVelocity'
p15
aa(lp16
(lp17
S'target'
p18
aaaS'POINT.+'
p19
a(lp20
(lp21
S'POINT.*'
p22
aaS'POINT.*'
p23
aS'currentVelocity'
p24
aS'mostEnergizedNeighbor'
p25
aaS'POINT./'
p26
aS'POINT.*'
p27
aa(lp28
S'POINT./'
p29
aS'POINT.*'
p30
aS'POINT./'
p31
a(lp32
S'currentVelocity'
p33
aS'POINT./'
p34
aS'target'
p35
a(lp36
(lp37
S'POINT./'
p38
aaS'mostEnergizedNeighbor'
p39
aS'POINT.*'
p40
aS'mostEnergizedNeighbor'
p41
aaS'target'
p42
a(lp43
S'target'
p44
aaaa(lp45
S'POINT.*'
p46
aa(lp47
S'POINT./'
p48
aasS'accel_x'
p49
F0
sS'accel_y'
p50
F0
sS'maxAccel'
p51
I2
sS'maxVel'
p52
F0.5
sS'age'
p53
I0
sS'gener'
p54
S'm'
sS'lastScale'
p55
F5.5
sS'energy'
p56
F0.5
sb.(i__main__
Data_mobile
p1
(dp2
S'vel_y'
p3
I0
sS'vel_x'
p4
I0
sS'pos_x'
p5
I-9579
sS'pos_y'
p6
I9779
sS'isAlive'
p7
I00
sS'geno'
p8
(lp9
S'POINT./'
p10
aS'POINT./'
p11
a(lp12
(lp13
S'currentVelocity'
p14
aaS'separation'
p15
aS'POINT.+'
p16
a(lp17
(lp18
(lp19
(lp20
S'mostEnergizedNeighbor'
p21
aaS'POINT.+'
p22
aS'target'
p23
a(lp24
S'currentVelocity'
p25
aS'POINT.*'
p26
a(lp27
S'target'
p28
aaS'POINT.*'
p29
aaS'target'
p30
aS'POINT.+'
p31
aaaS'POINT.*'
p32
aS'POINT.*'
p33
aS'target'
p34
aaS'POINT./'
p35
aS'target'
p36
aa(lp37
(lp38
S'POINT./'
p39
aaS'target'
p40
aS'currentVelocity'
p41
aS'POINT.+'
p42
aaS'target'
p43
aS'POINT./'
p44
asS'accel_x'
p45
F0
sS'accel_y'
p46
F0
sS'maxAccel'
p47
I2
sS'maxVel'
p48
F0.5
sS'age'
p49
I0
sS'gener'
p50
S'm'
sS'lastScale'
p51
F5.5
sS'energy'
p52
F0.5
sb.(i__main__
Data_mobile
p1
(dp2
S'vel_y'
p3
I0
sS'vel_x'
p4
I0
sS'pos_x'
p5
I-9579
sS'pos_y'
p6
I9779
sS'isAlive'
p7
I00
sS'geno'
p8
(lp9
S'POINT./'
p10
aS'POINT./'
p11
a(lp12
S'mostEnergizedNeighbor'
p13
aa(lp14
(lp15
S'POINT./'
p16
aa(lp17
(lp18
S'target'
p19
aS'POINT.*'
p20
aS'POINT./'
p21
aS'POINT.*'
p22
aaaS'currentVelocity'
p23
aS'POINT.+'
p24
aaS'target'
p25
aS'POINT./'
p26
asS'accel_x'
p27
F0
sS'accel_y'
p28
F0
sS'maxAccel'
p29
I2
sS'maxVel'
p30
F0.5
sS'age'
p31
I0
sS'gener'
p32
S'm'
sS'lastScale'
p33
F5.5
sS'energy'
p34
F0.5
sb.(i__main__
Data_mobile
p1
(dp2
S'vel_y'
p3
I0
sS'vel_x'
p4
I0
sS'pos_x'
p5
I-9579
sS'pos_y'
p6
I9779
sS'isAlive'
p7
I00
sS'geno'
p8
(lp9
S'POINT./'
p10
aS'POINT./'
p11
a(lp12
(lp13
S'currentVelocity'
p14
aaS'currentVelocity'
p15
aS'POINT.+'
p16
a(lp17
(lp18
(lp19
(lp20
S'mostEnergizedNeighbor'
p21
aaS'POINT.+'
p22
aS'target'
p23
a(lp24
S'currentVelocity'
p25
aS'POINT.*'
p26
a(lp27
S'target'
p28
aaS'POINT.*'
p29
aaS'POINT.*'
p30
aS'POINT.+'
p31
aaaS'POINT.*'
p32
aS'POINT.*'
p33
aS'target'
p34
aa(lp35
S'target'
p36
aaS'target'
p37
aa(lp38
(lp39
S'POINT./'
p40
aa(lp41
(lp42
S'target'
p43
aS'POINT.*'
p44
aS'POINT./'
p45
aS'POINT.*'
p46
aaaS'currentVelocity'
p47
aS'POINT.+'
p48
aaS'target'
p49
aS'POINT./'
p50
asS'accel_x'
p51
F0
sS'accel_y'
p52
F0
sS'maxAccel'
p53
I2
sS'maxVel'
p54
F0.5
sS'age'
p55
I0
sS'gener'
p56
S'm'
sS'lastScale'
p57
F5.5
sS'energy'
p58
F0.5
sb.(i__main__
Data_mobile
p1
(dp2
S'vel_y'
p3
I0
sS'vel_x'
p4
I0
sS'pos_x'
p5
I-9579
sS'pos_y'
p6
I9779
sS'isAlive'
p7
I00
sS'geno'
p8
(lp9
(lp10
S'POINT.*'
p11
aaS'POINT./'
p12
a(lp13
(lp14
S'currentVelocity'
p15
aa(lp16
(lp17
S'POINT./'
p18
aaaS'POINT.+'
p19
a(lp20
(lp21
S'POINT.*'
p22
aaS'POINT.*'
p23
aS'currentVelocity'
p24
aS'mostEnergizedNeighbor'
p25
aaS'POINT./'
p26
aS'target'
p27
aa(lp28
S'POINT./'
p29
aS'currentVelocity'
p30
aS'POINT./'
p31
a(lp32
S'currentVelocity'
p33
aS'POINT./'
p34
aS'target'
p35
a(lp36
(lp37
S'POINT./'
p38
aaS'target'
p39
aS'POINT.*'
p40
aS'mostEnergizedNeighbor'
p41
aaS'target'
p42
a(lp43
S'target'
p44
aaaa(lp45
S'POINT.*'
p46
aa(lp47
S'POINT./'
p48
aasS'accel_x'
p49
F0
sS'accel_y'
p50
F0
sS'maxAccel'
p51
I2
sS'maxVel'
p52
F0.5
sS'age'
p53
I0
sS'gener'
p54
S'm'
sS'lastScale'
p55
F5.5
sS'energy'
p56
F0.5
sb.(i__main__
Data_mobile
p1
(dp2
S'vel_y'
p3
I0
sS'vel_x'
p4
I0
sS'pos_x'
p5
I-9579
sS'pos_y'
p6
I9779
sS'isAlive'
p7
I00
sS'geno'
p8
(lp9
S'POINT./'
p10
aS'POINT./'
p11
a(lp12
(lp13
S'currentVelocity'
p14
aaS'separation'
p15
aS'POINT.+'
p16
a(lp17
(lp18
(lp19
(lp20
S'mostEnergizedNeighbor'
p21
aaS'randV'
p22
aS'target'
p23
a(lp24
S'currentVelocity'
p25
aS'POINT.*'
p26
aS'target'
p27
aS'POINT.*'
p28
aaS'POINT.*'
p29
aS'POINT.+'
p30
aaaS'POINT.*'
p31
aS'POINT.*'
p32
aS'target'
p33
aaS'POINT./'
p34
aS'target'
p35
aa(lp36
(lp37
S'POINT./'
p38
aaS'currentVelocity'
p39
aS'currentVelocity'
p40
aS'POINT.+'
p41
aaS'target'
p42
aS'POINT./'
p43
asS'accel_x'
p44
F0
sS'accel_y'
p45
F0
sS'maxAccel'
p46
I2
sS'maxVel'
p47
F0.5
sS'age'
p48
I0
sS'gener'
p49
S'm'
sS'lastScale'
p50
F5.5
sS'energy'
p51
F0.5
sb.(i__main__
Data_mobile
p1
(dp2
S'vel_y'
p3
I0
sS'vel_x'
p4
I0
sS'pos_x'
p5
I-9579
sS'pos_y'
p6
I9779
sS'isAlive'
p7
I00
sS'geno'
p8
(lp9
(lp10
S'target'
p11
aaS'target'
p12
aS'target'
p13
aS'flee'
p14
aS'target'
p15
a(lp16
S'POINT./'
p17
aS'POINT./'
p18
aS'target'
p19
aS'flee'
p20
aS'target'
p21
aS'POINT.*'
p22
aasS'accel_x'
p23
F0
sS'accel_y'
p24
F0
sS'maxAccel'
p25
I2
sS'maxVel'
p26
F0.5
sS'age'
p27
I0
sS'gener'
p28
S'm'
sS'lastScale'
p29
F5.5
sS'energy'
p30
F0.5
sb.(i__main__
Data_mobile
p1
(dp2
S'vel_y'
p3
I0
sS'vel_x'
p4
I0
sS'pos_x'
p5
I-9579
sS'pos_y'
p6
I9779
sS'isAlive'
p7
I00
sS'geno'
p8
(lp9
S'POINT./'
p10
aS'POINT./'
p11
a(lp12
(lp13
S'currentVelocity'
p14
aaS'separation'
p15
aS'POINT.+'
p16
a(lp17
(lp18
(lp19
(lp20
S'mostEnergizedNeighbor'
p21
aaS'POINT.+'
p22
aS'target'
p23
a(lp24
S'currentVelocity'
p25
aS'POINT.*'
p26
a(lp27
S'target'
p28
aaS'POINT.*'
p29
aaS'POINT.*'
p30
aS'POINT.+'
p31
aaaS'POINT.*'
p32
aS'POINT.*'
p33
aS'target'
p34
aaS'POINT./'
p35
aS'target'
p36
aa(lp37
(lp38
S'POINT./'
p39
aa(lp40
(lp41
S'target'
p42
aS'POINT.*'
p43
aS'POINT./'
p44
aS'POINT.*'
p45
aaaS'currentVelocity'
p46
aS'POINT.+'
p47
aaS'target'
p48
aS'POINT./'
p49
asS'accel_x'
p50
F0
sS'accel_y'
p51
F0
sS'maxAccel'
p52
I2
sS'maxVel'
p53
F0.5
sS'age'
p54
I0
sS'gener'
p55
S'm'
sS'lastScale'
p56
F5.5
sS'energy'
p57
F0.5
sb.(i__main__
Data_mobile
p1
(dp2
S'vel_y'
p3
I0
sS'vel_x'
p4
I0
sS'pos_x'
p5
I-9579
sS'pos_y'
p6
I9779
sS'isAlive'
p7
I00
sS'geno'
p8
(lp9
(lp10
S'target'
p11
aaS'POINT./'
p12
aS'POINT.*'
p13
aS'POINT./'
p14
aS'target'
p15
aS'POINT.*'
p16
asS'accel_x'
p17
F0
sS'accel_y'
p18
F0
sS'maxAccel'
p19
I2
sS'maxVel'
p20
F0.5
sS'age'
p21
I0
sS'gener'
p22
S'm'
sS'lastScale'
p23
F5.5
sS'energy'
p24
F0.5
sb.(i__main__
Data_mobile
p1
(dp2
S'vel_y'
p3
I0
sS'vel_x'
p4
I0
sS'pos_x'
p5
I-9579
sS'pos_y'
p6
I9779
sS'isAlive'
p7
I00
sS'geno'
p8
(lp9
(lp10
S'POINT.*'
p11
aaS'POINT./'
p12
a(lp13
(lp14
S'currentVelocity'
p15
aa(lp16
(lp17
S'POINT./'
p18
aaaS'POINT.+'
p19
a(lp20
(lp21
S'POINT.*'
p22
aaS'POINT.*'
p23
aS'currentVelocity'
p24
aS'mostEnergizedNeighbor'
p25
aaS'POINT./'
p26
aS'target'
p27
aa(lp28
S'currentVelocity'
p29
aS'currentVelocity'
p30
aS'POINT./'
p31
a(lp32
S'currentVelocity'
p33
aS'POINT./'
p34
aS'target'
p35
a(lp36
(lp37
S'POINT./'
p38
aaS'mostEnergizedNeighbor'
p39
aS'POINT.*'
p40
aS'mostEnergizedNeighbor'
p41
aaS'target'
p42
a(lp43
S'target'
p44
aaaa(lp45
S'POINT.*'
p46
aa(lp47
S'POINT./'
p48
aasS'accel_x'
p49
F0
sS'accel_y'
p50
F0
sS'maxAccel'
p51
I2
sS'maxVel'
p52
F0.5
sS'age'
p53
I0
sS'gener'
p54
S'm'
sS'lastScale'
p55
F5.5
sS'energy'
p56
F0.5
sb.(i__main__
Data_mobile
p1
(dp2
S'vel_y'
p3
I0
sS'vel_x'
p4
I0
sS'pos_x'
p5
I-9579
sS'pos_y'
p6
I9779
sS'isAlive'
p7
I00
sS'geno'
p8
(lp9
S'POINT./'
p10
aS'POINT./'
p11
aS'POINT./'
p12
a(lp13
(lp14
S'POINT./'
p15
aa(lp16
(lp17
S'target'
p18
aS'POINT.+'
p19
aS'POINT./'
p20
aS'POINT.*'
p21
aaa(lp22
S'POINT.*'
p23
aS'target'
p24
aS'POINT.*'
p25
aaS'POINT.+'
p26
aa(lp27
S'target'
p28
aS'POINT.*'
p29
aS'POINT./'
p30
aS'POINT.*'
p31
aaS'POINT./'
p32
asS'accel_x'
p33
F0
sS'accel_y'
p34
F0
sS'maxAccel'
p35
I2
sS'maxVel'
p36
F0.5
sS'age'
p37
I0
sS'gener'
p38
S'm'
sS'lastScale'
p39
F5.5
sS'energy'
p40
F0.5
sb.(i__main__
Data_mobile
p1
(dp2
S'vel_y'
p3
I0
sS'vel_x'
p4
I0
sS'pos_x'
p5
I-9579
sS'pos_y'
p6
I9779
sS'isAlive'
p7
I00
sS'geno'
p8
(lp9
S'POINT./'
p10
aS'POINT./'
p11
a(lp12
(lp13
S'currentVelocity'
p14
aaS'separation'
p15
aS'POINT.+'
p16
aS'POINT.+'
p17
aS'POINT./'
p18
aS'target'
p19
aa(lp20
(lp21
S'POINT./'
p22
aaS'POINT.*'
p23
aS'currentVelocity'
p24
aS'POINT.+'
p25
aaS'target'
p26
aS'POINT./'
p27
asS'accel_x'
p28
F0
sS'accel_y'
p29
F0
sS'maxAccel'
p30
I2
sS'maxVel'
p31
F0.5
sS'age'
p32
I0
sS'gener'
p33
S'm'
sS'lastScale'
p34
F5.5
sS'energy'
p35
F0.5
sb.(i__main__
Data_mobile
p1
(dp2
S'vel_y'
p3
I0
sS'vel_x'
p4
I0
sS'pos_x'
p5
I-9579
sS'pos_y'
p6
I9779
sS'isAlive'
p7
I00
sS'geno'
p8
(lp9
(lp10
S'target'
p11
aa(lp12
(lp13
S'target'
p14
aaS'POINT./'
p15
a(lp16
(lp17
S'POINT./'
p18
aa(lp19
(lp20
S'target'
p21
aS'POINT.*'
p22
a(lp23
S'target'
p24
aaS'POINT.*'
p25
aaaS'currentVelocity'
p26
aS'POINT.+'
p27
aaS'target'
p28
aS'target'
p29
aS'POINT.*'
p30
aaS'target'
p31
aS'POINT.*'
p32
aS'target'
p33
aS'POINT.*'
p34
asS'accel_x'
p35
F0
sS'accel_y'
p36
F0
sS'maxAccel'
p37
I2
sS'maxVel'
p38
F0.5
sS'age'
p39
I0
sS'gener'
p40
S'm'
sS'lastScale'
p41
F5.5
sS'energy'
p42
F0.5
sb.(i__main__
Data_mobile
p1
(dp2
S'vel_y'
p3
I0
sS'vel_x'
p4
I0
sS'pos_x'
p5
I-9579
sS'pos_y'
p6
I9779
sS'isAlive'
p7
I00
sS'geno'
p8
(lp9
S'POINT./'
p10
aS'POINT./'
p11
a(lp12
(lp13
S'currentVelocity'
p14
aS'POINT.*'
p15
a(lp16
S'target'
p17
aaS'POINT.*'
p18
aaS'separation'
p19
aS'POINT.+'
p20
a(lp21
(lp22
(lp23
(lp24
S'mostEnergizedNeighbor'
p25
aaS'POINT.+'
p26
aS'target'
p27
a(lp28
S'currentVelocity'
p29
aS'POINT.*'
p30
aS'target'
p31
aS'POINT.*'
p32
aaS'POINT.*'
p33
aS'POINT.+'
p34
aaaS'POINT.*'
p35
aS'POINT.*'
p36
aS'target'
p37
aaS'POINT./'
p38
aS'target'
p39
aa(lp40
(lp41
S'POINT./'
p42
aa(lp43
(lp44
S'target'
p45
aS'POINT.*'
p46
aS'POINT./'
p47
aS'POINT.*'
p48
aaaS'currentVelocity'
p49
aS'POINT.+'
p50
aaS'target'
p51
aS'POINT./'
p52
asS'accel_x'
p53
F0
sS'accel_y'
p54
F0
sS'maxAccel'
p55
I2
sS'maxVel'
p56
F0.5
sS'age'
p57
I0
sS'gener'
p58
S'm'
sS'lastScale'
p59
F5.5
sS'energy'
p60
F0.5
sb.(i__main__
Data_mobile
p1
(dp2
S'vel_y'
p3
I0
sS'vel_x'
p4
I0
sS'pos_x'
p5
I-9579
sS'pos_y'
p6
I9779
sS'isAlive'
p7
I00
sS'geno'
p8
(lp9
S'POINT./'
p10
aS'POINT./'
p11
a(lp12
(lp13
S'target'
p14
aaS'separation'
p15
aS'POINT.+'
p16
a(lp17
(lp18
(lp19
(lp20
S'mostEnergizedNeighbor'
p21
aaS'POINT.+'
p22
aS'target'
p23
a(lp24
S'currentVelocity'
p25
aS'POINT.*'
p26
a(lp27
S'target'
p28
aaS'POINT.*'
p29
aaS'POINT.*'
p30
aS'POINT.+'
p31
aaaS'randV'
p32
aS'POINT.*'
p33
aS'target'
p34
aaS'POINT./'
p35
aS'target'
p36
aaS'target'
p37
aS'target'
p38
aS'POINT./'
p39
asS'accel_x'
p40
F0
sS'accel_y'
p41
F0
sS'maxAccel'
p42
I2
sS'maxVel'
p43
F0.5
sS'age'
p44
I0
sS'gener'
p45
S'm'
sS'lastScale'
p46
F5.5
sS'energy'
p47
F0.5
sb.(i__main__
Data_mobile
p1
(dp2
S'vel_y'
p3
I0
sS'vel_x'
p4
I0
sS'pos_x'
p5
I-9579
sS'pos_y'
p6
I9779
sS'isAlive'
p7
I00
sS'geno'
p8
(lp9
S'POINT./'
p10
aS'POINT./'
p11
a(lp12
(lp13
S'flee'
p14
aaS'POINT./'
p15
aS'target'
p16
a(lp17
(lp18
S'target'
p19
aaS'POINT./'
p20
aS'target'
p21
aS'target'
p22
aS'target'
p23
aS'POINT.*'
p24
aaS'target'
p25
aS'POINT.*'
p26
aaS'target'
p27
aS'target'
p28
aS'POINT./'
p29
asS'accel_x'
p30
F0
sS'accel_y'
p31
F0
sS'maxAccel'
p32
I2
sS'maxVel'
p33
F0.5
sS'age'
p34
I0
sS'gener'
p35
S'm'
sS'lastScale'
p36
F5.5
sS'energy'
p37
F0.5
sb.(i__main__
Data_mobile
p1
(dp2
S'vel_y'
p3
I0
sS'vel_x'
p4
I0
sS'pos_x'
p5
I-9579
sS'pos_y'
p6
I9779
sS'isAlive'
p7
I00
sS'geno'
p8
(lp9
(lp10
S'target'
p11
aaS'POINT./'
p12
aS'target'
p13
aS'flee'
p14
aS'target'
p15
a(lp16
S'POINT./'
p17
aS'POINT./'
p18
aS'target'
p19
aS'flee'
p20
aS'target'
p21
aS'POINT.*'
p22
aasS'accel_x'
p23
F0
sS'accel_y'
p24
F0
sS'maxAccel'
p25
I2
sS'maxVel'
p26
F0.5
sS'age'
p27
I0
sS'gener'
p28
S'm'
sS'lastScale'
p29
F5.5
sS'energy'
p30
F0.5
sb.(i__main__
Data_mobile
p1
(dp2
S'vel_y'
p3
I0
sS'vel_x'
p4
I0
sS'pos_x'
p5
I-9579
sS'pos_y'
p6
I9779
sS'isAlive'
p7
I00
sS'geno'
p8
(lp9
S'POINT./'
p10
aS'POINT./'
p11
a(lp12
(lp13
S'currentVelocity'
p14
aaS'currentVelocity'
p15
aS'POINT.+'
p16
a(lp17
(lp18
(lp19
(lp20
S'mostEnergizedNeighbor'
p21
aaS'POINT.+'
p22
aS'target'
p23
a(lp24
S'currentVelocity'
p25
aS'POINT.*'
p26
a(lp27
S'target'
p28
aaS'POINT.*'
p29
aaS'POINT.*'
p30
aS'POINT.+'
p31
aaaS'POINT.*'
p32
aS'POINT.*'
p33
aS'target'
p34
aaS'POINT./'
p35
aS'target'
p36
aa(lp37
(lp38
S'POINT./'
p39
aa(lp40
(lp41
S'target'
p42
aS'POINT.*'
p43
aS'POINT./'
p44
aS'POINT.*'
p45
aaaS'currentVelocity'
p46
aS'POINT.+'
p47
aaS'target'
p48
aS'POINT./'
p49
asS'accel_x'
p50
F0
sS'accel_y'
p51
F0
sS'maxAccel'
p52
I2
sS'maxVel'
p53
F0.5
sS'age'
p54
I0
sS'gener'
p55
S'm'
sS'lastScale'
p56
F5.5
sS'energy'
p57
F0.5
sb.(i__main__
Data_mobile
p1
(dp2
S'vel_y'
p3
I0
sS'vel_x'
p4
I0
sS'pos_x'
p5
I-9579
sS'pos_y'
p6
I9779
sS'isAlive'
p7
I00
sS'geno'
p8
(lp9
(lp10
S'POINT.*'
p11
aaS'POINT./'
p12
aS'POINT./'
p13
a(lp14
S'POINT./'
p15
aS'POINT.*'
p16
a(lp17
S'randV'
p18
a(lp19
S'randV'
p20
aaS'POINT.-'
p21
aS'separation'
p22
aS'POINT.*'
p23
aS'POINT.*'
p24
aa(lp25
S'currentVelocity'
p26
aS'POINT./'
p27
aS'target'
p28
a(lp29
(lp30
S'POINT./'
p31
aaS'mostEnergizedNeighbor'
p32
aS'POINT./'
p33
aS'mostEnergizedNeighbor'
p34
aaS'target'
p35
a(lp36
S'target'
p37
aaaa(lp38
S'POINT.*'
p39
aa(lp40
S'target'
p41
aasS'accel_x'
p42
F0
sS'accel_y'
p43
F0
sS'maxAccel'
p44
I2
sS'maxVel'
p45
F0.5
sS'age'
p46
I0
sS'gener'
p47
S'm'
sS'lastScale'
p48
F5.5
sS'energy'
p49
F0.5
sb.(i__main__
Data_mobile
p1
(dp2
S'vel_y'
p3
I0
sS'vel_x'
p4
I0
sS'pos_x'
p5
I-9579
sS'pos_y'
p6
I9779
sS'isAlive'
p7
I00
sS'geno'
p8
(lp9
(lp10
S'target'
p11
aaS'POINT./'
p12
aS'target'
p13
aS'flee'
p14
aS'target'
p15
a(lp16
S'POINT./'
p17
aS'POINT./'
p18
aS'target'
p19
aS'flee'
p20
aS'POINT.*'
p21
aS'POINT.*'
p22
aasS'accel_x'
p23
F0
sS'accel_y'
p24
F0
sS'maxAccel'
p25
I2
sS'maxVel'
p26
F0.5
sS'age'
p27
I0
sS'gener'
p28
S'm'
sS'lastScale'
p29
F5.5
sS'energy'
p30
F0.5
sb.(i__main__
Data_mobile
p1
(dp2
S'vel_y'
p3
I0
sS'vel_x'
p4
I0
sS'pos_x'
p5
I-9579
sS'pos_y'
p6
I9779
sS'isAlive'
p7
I00
sS'geno'
p8
(lp9
S'POINT./'
p10
aS'POINT./'
p11
a(lp12
(lp13
S'currentVelocity'
p14
aaS'separation'
p15
aS'POINT.+'
p16
a(lp17
(lp18
(lp19
(lp20
S'mostEnergizedNeighbor'
p21
aaS'POINT.+'
p22
aS'target'
p23
a(lp24
(lp25
S'target'
p26
aaS'POINT./'
p27
aS'target'
p28
aS'flee'
p29
aS'target'
p30
a(lp31
S'POINT./'
p32
aS'POINT./'
p33
aS'target'
p34
aS'flee'
p35
aS'target'
p36
aS'POINT.*'
p37
aaaS'POINT.*'
p38
aS'POINT.+'
p39
aaaS'POINT.*'
p40
aS'POINT.*'
p41
aS'target'
p42
aaS'POINT./'
p43
aS'POINT.*'
p44
aa(lp45
(lp46
S'POINT./'
p47
aa(lp48
(lp49
S'target'
p50
aS'POINT.*'
p51
aS'POINT./'
p52
aS'POINT.*'
p53
aaaS'currentVelocity'
p54
aS'POINT.+'
p55
aaS'target'
p56
aS'POINT./'
p57
asS'accel_x'
p58
F0
sS'accel_y'
p59
F0
sS'maxAccel'
p60
I2
sS'maxVel'
p61
F0.5
sS'age'
p62
I0
sS'gener'
p63
S'm'
sS'lastScale'
p64
F5.5
sS'energy'
p65
F0.5
sb.(i__main__
Data_mobile
p1
(dp2
S'vel_y'
p3
I0
sS'vel_x'
p4
I0
sS'pos_x'
p5
I-9579
sS'pos_y'
p6
I9779
sS'isAlive'
p7
I00
sS'geno'
p8
(lp9
(lp10
S'randV'
p11
aaS'POINT./'
p12
aS'target'
p13
aS'target'
p14
a(lp15
(lp16
S'target'
p17
aaS'POINT./'
p18
a(lp19
(lp20
(lp21
(lp22
S'POINT.*'
p23
aS'POINT.*'
p24
aS'POINT./'
p25
aS'POINT.*'
p26
aaaa(lp27
(lp28
S'target'
p29
aS'POINT.*'
p30
aS'POINT./'
p31
aS'POINT.*'
p32
aaaS'currentVelocity'
p33
aS'POINT.+'
p34
aaS'target'
p35
aS'target'
p36
aS'POINT.*'
p37
aaS'POINT.*'
p38
asS'accel_x'
p39
F0
sS'accel_y'
p40
F0
sS'maxAccel'
p41
I2
sS'maxVel'
p42
F0.5
sS'age'
p43
I0
sS'gener'
p44
S'm'
sS'lastScale'
p45
F5.5
sS'energy'
p46
F0.5
sb.(i__main__
Data_mobile
p1
(dp2
S'vel_y'
p3
I0
sS'vel_x'
p4
I0
sS'pos_x'
p5
I-9579
sS'pos_y'
p6
I9779
sS'isAlive'
p7
I00
sS'geno'
p8
(lp9
(lp10
S'target'
p11
aaS'POINT./'
p12
aS'target'
p13
aS'POINT./'
p14
aS'POINT.+'
p15
aS'POINT.*'
p16
asS'accel_x'
p17
F0
sS'accel_y'
p18
F0
sS'maxAccel'
p19
I2
sS'maxVel'
p20
F0.5
sS'age'
p21
I0
sS'gener'
p22
S'm'
sS'lastScale'
p23
F5.5
sS'energy'
p24
F0.5
sb.(i__main__
Data_mobile
p1
(dp2
S'vel_y'
p3
I0
sS'vel_x'
p4
I0
sS'pos_x'
p5
I-9579
sS'pos_y'
p6
I9779
sS'isAlive'
p7
I00
sS'geno'
p8
(lp9
(lp10
S'target'
p11
aaS'POINT./'
p12
aS'target'
p13
aS'POINT./'
p14
aS'target'
p15
aS'POINT.*'
p16
asS'accel_x'
p17
F0
sS'accel_y'
p18
F0
sS'maxAccel'
p19
I2
sS'maxVel'
p20
F0.5
sS'age'
p21
I0
sS'gener'
p22
S'm'
sS'lastScale'
p23
F5.5
sS'energy'
p24
F0.5
sb.(i__main__
Data_mobile
p1
(dp2
S'vel_y'
p3
I0
sS'vel_x'
p4
I0
sS'pos_x'
p5
I-9579
sS'pos_y'
p6
I9779
sS'isAlive'
p7
I00
sS'geno'
p8
(lp9
S'POINT./'
p10
aS'POINT./'
p11
aS'POINT./'
p12
a(lp13
(lp14
S'POINT.*'
p15
aa(lp16
(lp17
S'target'
p18
aS'POINT.*'
p19
aS'POINT./'
p20
aS'POINT.*'
p21
aaa(lp22
S'POINT.*'
p23
aS'target'
p24
aS'POINT.*'
p25
aaS'POINT.+'
p26
aa(lp27
S'target'
p28
aS'POINT.*'
p29
aS'POINT./'
p30
aS'POINT.*'
p31
aaS'POINT./'
p32
asS'accel_x'
p33
F0
sS'accel_y'
p34
F0
sS'maxAccel'
p35
I2
sS'maxVel'
p36
F0.5
sS'age'
p37
I0
sS'gener'
p38
S'm'
sS'lastScale'
p39
F5.5
sS'energy'
p40
F0.5
sb.(i__main__
Data_mobile
p1
(dp2
S'vel_y'
p3
I0
sS'vel_x'
p4
I0
sS'pos_x'
p5
I-9579
sS'pos_y'
p6
I9779
sS'isAlive'
p7
I00
sS'geno'
p8
(lp9
(lp10
S'target'
p11
aaS'POINT./'
p12
a(lp13
(lp14
S'POINT./'
p15
aa(lp16
(lp17
S'target'
p18
aS'POINT.+'
p19
aS'POINT./'
p20
aS'POINT.*'
p21
aaaS'currentVelocity'
p22
aS'POINT.+'
p23
aaS'target'
p24
aS'target'
p25
aS'POINT.*'
p26
asS'accel_x'
p27
F0
sS'accel_y'
p28
F0
sS'maxAccel'
p29
I2
sS'maxVel'
p30
F0.5
sS'age'
p31
I0
sS'gener'
p32
S'm'
sS'lastScale'
p33
F5.5
sS'energy'
p34
F0.5
sb.(i__main__
Data_mobile
p1
(dp2
S'vel_y'
p3
I0
sS'vel_x'
p4
I0
sS'pos_x'
p5
I-9579
sS'pos_y'
p6
I9779
sS'isAlive'
p7
I00
sS'geno'
p8
(lp9
S'POINT./'
p10
aS'POINT./'
p11
aS'POINT./'
p12
a(lp13
S'POINT.*'
p14
aS'target'
p15
aS'POINT.*'
p16
aa(lp17
S'target'
p18
aS'POINT.*'
p19
aS'POINT./'
p20
aS'POINT.*'
p21
aaS'POINT./'
p22
asS'accel_x'
p23
F0
sS'accel_y'
p24
F0
sS'maxAccel'
p25
I2
sS'maxVel'
p26
F0.5
sS'age'
p27
I0
sS'gener'
p28
S'm'
sS'lastScale'
p29
F5.5
sS'energy'
p30
F0.5
sb.(i__main__
Data_mobile
p1
(dp2
S'vel_y'
p3
I0
sS'vel_x'
p4
I0
sS'pos_x'
p5
I-9579
sS'pos_y'
p6
I9779
sS'isAlive'
p7
I00
sS'geno'
p8
(lp9
(lp10
S'target'
p11
aaS'POINT./'
p12
aS'target'
p13
aS'flee'
p14
aS'target'
p15
a(lp16
S'POINT./'
p17
aS'POINT./'
p18
aS'target'
p19
aS'flee'
p20
aS'target'
p21
a(lp22
(lp23
S'target'
p24
aaS'POINT./'
p25
aS'target'
p26
aS'POINT./'
p27
aS'target'
p28
aS'POINT.*'
p29
aaasS'accel_x'
p30
F0
sS'accel_y'
p31
F0
sS'maxAccel'
p32
I2
sS'maxVel'
p33
F0.5
sS'age'
p34
I0
sS'gener'
p35
S'm'
sS'lastScale'
p36
F5.5
sS'energy'
p37
F0.5
sb.