(i__main__
Data_mobile
p1
(dp2
S'vel_y'
p3
F-0.48416762299163163
sS'vel_x'
p4
F-0.12482673129836114
sS'pos_x'
p5
F-116.71573168033295
sS'pos_y'
p6
F-34.505619938558063
sS'isAlive'
p7
I01
sS'cumulativeEnergy'
p8
F49
sS'geno'
p9
(lp10
F-0.90779972158645528
aF-0.59203772533429655
aF0.82187085305602059
aF4.3324737430668963
aF0.70797249175436527
aF-0.4178718972082045
asS'accel_x'
p11
F0.76756898393739814
sS'accel_y'
p12
F1.8468453792608928
sS'visionAngle'
p13
I150
sS'maxAccel'
p14
I2
sS'maxVel'
p15
F0.5
sS'age'
p16
I100
sS'tailSize'
p17
I0
sS'sexualgeno'
p18
NsS'tailBrigh'
p19
I0
sS'maxSteering'
p20
I30
sS'energy'
p21
F1
sS'lastScale'
p22
F15.5
sb.(i__main__
Data_mobile
p1
(dp2
S'vel_y'
p3
F0.37671151486911597
sS'vel_x'
p4
F0.32876805587680791
sS'pos_x'
p5
F-187.94565824702971
sS'pos_y'
p6
F1.9805671974217764
sS'isAlive'
p7
I01
sS'cumulativeEnergy'
p8
F49
sS'geno'
p9
(lp10
F-1.3331656882462526
aF-0.59203772533429655
aF1.0524684023489828
aF4.345268371324603
aF0.20855770657829142
aF1.7880884268305295
asS'accel_x'
p11
F-1.4860467018084382
sS'accel_y'
p12
F-1.3385309858364365
sS'visionAngle'
p13
I150
sS'maxAccel'
p14
I2
sS'maxVel'
p15
F0.5
sS'age'
p16
I250
sS'tailSize'
p17
I0
sS'sexualgeno'
p18
NsS'tailBrigh'
p19
I0
sS'maxSteering'
p20
I30
sS'energy'
p21
F1
sS'lastScale'
p22
F15.5
sb.(i__main__
Data_mobile
p1
(dp2
S'vel_y'
p3
F0.0024066512248909211
sS'vel_x'
p4
F0.49999420799633448
sS'pos_x'
p5
F-116.60996238655683
sS'pos_y'
p6
F-33.974370433908241
sS'isAlive'
p7
I01
sS'cumulativeEnergy'
p8
F49
sS'geno'
p9
(lp10
F-0.69380945444272402
aF-0.59203772533429655
aF0.82187085305602059
aF4.0390559750946133
aF1.2019205515690021
aF1.2682818416668149
asS'accel_x'
p11
F1.0139485022411607
sS'accel_y'
p12
F-1.7239223981383001
sS'visionAngle'
p13
I150
sS'maxAccel'
p14
I2
sS'maxVel'
p15
F0.5
sS'age'
p16
I100
sS'tailSize'
p17
I0
sS'sexualgeno'
p18
NsS'tailBrigh'
p19
I0
sS'maxSteering'
p20
I30
sS'energy'
p21
F1
sS'lastScale'
p22
F15.5
sb.(i__main__
Data_mobile
p1
(dp2
S'vel_y'
p3
F-0.45876564528765812
sS'vel_x'
p4
F-0.1988317950022048
sS'pos_x'
p5
F-102.73836183085869
sS'pos_y'
p6
F-5.2743816824357994
sS'isAlive'
p7
I01
sS'cumulativeEnergy'
p8
F48.969166239527823
sS'geno'
p9
(lp10
F-0.96978720077199521
aF-0.59203772533429655
aF0.82187085305602059
aF4.3324737430668963
aF1.0159387961218296
aF1.9668956098983412
asS'accel_x'
p11
F1.6724545004450482
sS'accel_y'
p12
F1.0967661300118199
sS'visionAngle'
p13
I150
sS'maxAccel'
p14
I2
sS'maxVel'
p15
F0.5
sS'age'
p16
I100
sS'tailSize'
p17
I0
sS'sexualgeno'
p18
NsS'tailBrigh'
p19
I0
sS'maxSteering'
p20
I30
sS'energy'
p21
F1
sS'lastScale'
p22
F15.5
sb.(i__main__
Data_mobile
p1
(dp2
S'vel_y'
p3
F-0.18891247125982921
sS'vel_x'
p4
F-0.46293852529521046
sS'pos_x'
p5
F4.7890943741589558
sS'pos_y'
p6
F29.700018372943504
sS'isAlive'
p7
I01
sS'cumulativeEnergy'
p8
F48.663030763498107
sS'geno'
p9
(lp10
F-0.90779972158645528
aF-0.59203772533429655
aF0.82187085305602059
aF4.0390559750946133
aF1.2019205515690021
aF1.9668956098983412
asS'accel_x'
p11
F1.4727222320545037
sS'accel_y'
p12
F1.3531774559208414
sS'visionAngle'
p13
I150
sS'maxAccel'
p14
I2
sS'maxVel'
p15
F0.5
sS'age'
p16
I100
sS'tailSize'
p17
I0
sS'sexualgeno'
p18
NsS'tailBrigh'
p19
I0
sS'maxSteering'
p20
I30
sS'energy'
p21
F1
sS'lastScale'
p22
F15.5
sb.(i__main__
Data_mobile
p1
(dp2
S'vel_y'
p3
F0.30506312090677934
sS'vel_x'
p4
F-0.39615210748223428
sS'pos_x'
p5
F4.2795454437155778
sS'pos_y'
p6
F30.260432324675659
sS'isAlive'
p7
I01
sS'cumulativeEnergy'
p8
F47.791513361023362
sS'geno'
p9
(lp10
F-1.3331656882462526
aF0.95733636369027353
aF0.82187085305602059
aF4.3324737430668963
aF0.70797249175436527
aF-0.48034722110418882
asS'accel_x'
p11
F1.6886869132176838
sS'accel_y'
p12
F-1.0716046421732834
sS'visionAngle'
p13
I150
sS'maxAccel'
p14
I2
sS'maxVel'
p15
F0.5
sS'age'
p16
I100
sS'tailSize'
p17
I0
sS'sexualgeno'
p18
NsS'tailBrigh'
p19
I0
sS'maxSteering'
p20
I30
sS'energy'
p21
F1
sS'lastScale'
p22
F15.5
sb.(i__main__
Data_mobile
p1
(dp2
S'vel_y'
p3
F0.49288061726162757
sS'vel_x'
p4
F0.084075544171875502
sS'pos_x'
p5
F-21.269497506166179
sS'pos_y'
p6
F97.827797379771326
sS'isAlive'
p7
I01
sS'cumulativeEnergy'
p8
F47.297559802132817
sS'geno'
p9
(lp10
F-1.091216080601376
aF-0.59203772533429655
aF1.2132540209661895
aF4.3324737430668963
aF1.0196001324795749
aF1.9668956098983412
asS'accel_x'
p11
F-0.30229112203748959
sS'accel_y'
p12
F0.80800954972577421
sS'visionAngle'
p13
I150
sS'maxAccel'
p14
I2
sS'maxVel'
p15
F0.5
sS'age'
p16
I250
sS'tailSize'
p17
I0
sS'sexualgeno'
p18
NsS'tailBrigh'
p19
I0
sS'maxSteering'
p20
I30
sS'energy'
p21
F0.76000080086890531
sS'lastScale'
p22
F13.100008008689052
sb.(i__main__
Data_mobile
p1
(dp2
S'vel_y'
p3
F0.085785552693609934
sS'vel_x'
p4
F0.49258586961975659
sS'pos_x'
p5
F-27.541860040533138
sS'pos_y'
p6
F104.43797542430526
sS'isAlive'
p7
I01
sS'cumulativeEnergy'
p8
F47.140085162211953
sS'geno'
p9
(lp10
F-1.091216080601376
aF-0.59203772533429655
aF1.1076803104535642
aF4.3324737430668963
aF1.3848895856013679
aF1.9668956098983412
asS'accel_x'
p11
F1.0726072687106498
sS'accel_y'
p12
F0.025492381805244158
sS'visionAngle'
p13
I150
sS'maxAccel'
p14
I2
sS'maxVel'
p15
F0.5
sS'age'
p16
I350
sS'tailSize'
p17
I0
sS'sexualgeno'
p18
NsS'tailBrigh'
p19
I0
sS'maxSteering'
p20
I30
sS'energy'
p21
F0.74000709689649669
sS'lastScale'
p22
F12.900070968964966
sb.(i__main__
Data_mobile
p1
(dp2
S'vel_y'
p3
F-0.069454898184819425
sS'vel_x'
p4
F0.49515251904654228
sS'pos_x'
p5
F-14.699582308269418
sS'pos_y'
p6
F104.36978512935252
sS'isAlive'
p7
I01
sS'cumulativeEnergy'
p8
F47.065394553972617
sS'geno'
p9
(lp10
F-1.091216080601376
aF-0.14808030599680422
aF1.0279113270681322
aF4.3324737430668963
aF1.3848895856013679
aF1.9668956098983412
asS'accel_x'
p11
F1.9970411633343175
sS'accel_y'
p12
F0.10875013539447119
sS'visionAngle'
p13
I150
sS'maxAccel'
p14
I2
sS'maxVel'
p15
F0.5
sS'age'
p16
I150
sS'tailSize'
p17
I0
sS'sexualgeno'
p18
NsS'tailBrigh'
p19
I0
sS'maxSteering'
p20
I30
sS'energy'
p21
F0.62285900799150784
sS'lastScale'
p22
F11.928563960883169
sb.(i__main__
Data_mobile
p1
(dp2
S'vel_y'
p3
F-0.46405832696642496
sS'vel_x'
p4
F-0.18614475327852445
sS'pos_x'
p5
F4.8086496310564213
sS'pos_y'
p6
F30.021039338019975
sS'isAlive'
p7
I01
sS'cumulativeEnergy'
p8
F46.851614715006022
sS'geno'
p9
(lp10
F-1.091216080601376
aF-1.0482452697965754
aF1.2132540209661895
aF4.0404957894666396
aF1.0196001324795749
aF1.9668956098983412
asS'accel_x'
p11
F1.8437445401632124
sS'accel_y'
p12
F0.77498778739948182
sS'visionAngle'
p13
I150
sS'maxAccel'
p14
I2
sS'maxVel'
p15
F0.5
sS'age'
p16
I100
sS'tailSize'
p17
I0
sS'sexualgeno'
p18
NsS'tailBrigh'
p19
I0
sS'maxSteering'
p20
I30
sS'energy'
p21
F1
sS'lastScale'
p22
F15.5
sb.(i__main__
Data_mobile
p1
(dp2
S'vel_y'
p3
F0.2118181205847289
sS'vel_x'
p4
F0.4529161995247612
sS'pos_x'
p5
F159.72193769800231
sS'pos_y'
p6
F81.932626428818338
sS'isAlive'
p7
I01
sS'cumulativeEnergy'
p8
F46.600773834809601
sS'geno'
p9
(lp10
F-0.96978720077199521
aF-0.59203772533429655
aF1.0524684023489828
aF4.3905306593537992
aF0.65592783863779969
aF2.1556760211362076
asS'accel_x'
p11
F1.6924338781394443
sS'accel_y'
p12
F1.0656770468232297
sS'visionAngle'
p13
I150
sS'maxAccel'
p14
I2
sS'maxVel'
p15
F0.5
sS'age'
p16
I200
sS'tailSize'
p17
I0
sS'sexualgeno'
p18
NsS'tailBrigh'
p19
I0
sS'maxSteering'
p20
I30
sS'energy'
p21
F0.68008393532093836
sS'lastScale'
p22
F12.300839353209383
sb.(i__main__
Data_mobile
p1
(dp2
S'vel_y'
p3
F0.43401907903939829
sS'vel_x'
p4
F0.24824874426629537
sS'pos_x'
p5
F147.39434755883801
sS'pos_y'
p6
F79.225151334645275
sS'isAlive'
p7
I01
sS'cumulativeEnergy'
p8
F46.600000186135546
sS'geno'
p9
(lp10
F-1.1972309374669186
aF-0.14808030599680422
aF0.82187085305602059
aF4.3324737430668963
aF0.70797249175436527
aF1.9668956098983412
asS'accel_x'
p11
F0.78286422344055939
sS'accel_y'
p12
F-0.074028436850665513
sS'visionAngle'
p13
I150
sS'maxAccel'
p14
I2
sS'maxVel'
p15
F0.5
sS'age'
p16
I300
sS'tailSize'
p17
I0
sS'sexualgeno'
p18
NsS'tailBrigh'
p19
I0
sS'maxSteering'
p20
I30
sS'energy'
p21
F0.68000002018759298
sS'lastScale'
p22
F12.300000201875932
sb.(i__main__
Data_mobile
p1
(dp2
S'vel_y'
p3
F0.19608833585493382
sS'vel_x'
p4
F-0.45994495816525993
sS'pos_x'
p5
F61.191935669145799
sS'pos_y'
p6
F-49.666790043085129
sS'isAlive'
p7
I01
sS'cumulativeEnergy'
p8
F46.163249706248301
sS'geno'
p9
(lp10
F-0.69065958564300345
aF-0.59203772533429655
aF1.7679144506502993
aF3.8435782558894931
aF0.94561187644924682
aF-0.77779332648091692
asS'accel_x'
p11
F1.9999937500660565
sS'accel_y'
p12
F-0.004999969671229329
sS'visionAngle'
p13
I150
sS'maxAccel'
p14
I2
sS'maxVel'
p15
F0.5
sS'age'
p16
I150
sS'tailSize'
p17
I0
sS'sexualgeno'
p18
NsS'tailBrigh'
p19
I0
sS'maxSteering'
p20
I30
sS'energy'
p21
F1
sS'lastScale'
p22
F15.5
sb.(i__main__
Data_mobile
p1
(dp2
S'vel_y'
p3
F0.31860571976096769
sS'vel_x'
p4
F0.38534451512327988
sS'pos_x'
p5
F-142.54517299915005
sS'pos_y'
p6
F51.526515193169899
sS'isAlive'
p7
I01
sS'cumulativeEnergy'
p8
F45.756520285256549
sS'geno'
p9
(lp10
F-1.091216080601376
aF-0.59203772533429655
aF1.2132540209661895
aF4.4830087861905268
aF1.024492523253608
aF1.9668956098983412
asS'accel_x'
p11
F1.9262215886921037
sS'accel_y'
p12
F0.53821035967033126
sS'visionAngle'
p13
I150
sS'maxAccel'
p14
I2
sS'maxVel'
p15
F0.5
sS'age'
p16
I50
sS'tailSize'
p17
I0
sS'sexualgeno'
p18
NsS'tailBrigh'
p19
I0
sS'maxSteering'
p20
I30
sS'energy'
p21
F0.90906887192213437
sS'lastScale'
p22
F14.590688719221344
sb.(i__main__
Data_mobile
p1
(dp2
S'vel_y'
p3
F-0.097820731009373246
sS'vel_x'
p4
F0.4903377454212472
sS'pos_x'
p5
F-170.8558505686612
sS'pos_y'
p6
F-27.592459068765876
sS'isAlive'
p7
I01
sS'cumulativeEnergy'
p8
F44.849553583047594
sS'geno'
p9
(lp10
F-0.88783210712940241
aF-0.59203772533429655
aF0.82187085305602059
aF4.1453355106722292
aF0.72079501191871564
aF-0.91071493412749116
asS'accel_x'
p11
F-1.9739901537734985
sS'accel_y'
p12
F-0.32150096859151095
sS'visionAngle'
p13
I150
sS'maxAccel'
p14
I2
sS'maxVel'
p15
F0.5
sS'age'
p16
I50
sS'tailSize'
p17
I0
sS'sexualgeno'
p18
NsS'tailBrigh'
p19
I0
sS'maxSteering'
p20
I30
sS'energy'
p21
F1
sS'lastScale'
p22
F15.5
sb.(i__main__
Data_mobile
p1
(dp2
S'vel_y'
p3
F-0.49953138778441641
sS'vel_x'
p4
F-0.021642380141171733
sS'pos_x'
p5
F-96.439305016703159
sS'pos_y'
p6
F-0.84413680254924661
sS'isAlive'
p7
I01
sS'cumulativeEnergy'
p8
F44.763362668813322
sS'geno'
p9
(lp10
F-1.091216080601376
aF-1.5005598215397211
aF1.2132540209661895
aF4.0404957894666396
aF0.20855770657829142
aF1.7880884268305295
asS'accel_x'
p11
F-0.72607971326613008
sS'accel_y'
p12
F0.32964228676041629
sS'visionAngle'
p13
I150
sS'maxAccel'
p14
I2
sS'maxVel'
p15
F0.5
sS'age'
p16
I100
sS'tailSize'
p17
I0
sS'sexualgeno'
p18
NsS'tailBrigh'
p19
I0
sS'maxSteering'
p20
I30
sS'energy'
p21
F0.67181250041163976
sS'lastScale'
p22
F12.218125004116398
sb.(i__main__
Data_mobile
p1
(dp2
S'vel_y'
p3
F-0.45329291342006428
sS'vel_x'
p4
F0.21101074532627517
sS'pos_x'
p5
F70.670050525896855
sS'pos_y'
p6
F85.99931390268415
sS'isAlive'
p7
I01
sS'cumulativeEnergy'
p8
F44.20614136781073
sS'geno'
p9
(lp10
F-0.62495355972267763
aF-0.59203772533429655
aF1.3001195299733639
aF4.2354700965105971
aF0.70797249175436527
aF1.9668956098983412
asS'accel_x'
p11
F0.94922729453827959
sS'accel_y'
p12
F1.7603884637498446
sS'visionAngle'
p13
I150
sS'maxAccel'
p14
I2
sS'maxVel'
p15
F0.5
sS'age'
p16
I100
sS'tailSize'
p17
I0
sS'sexualgeno'
p18
NsS'tailBrigh'
p19
I0
sS'maxSteering'
p20
I30
sS'energy'
p21
F1
sS'lastScale'
p22
F15.5
sb.(i__main__
Data_mobile
p1
(dp2
S'vel_y'
p3
F0.33389551520891542
sS'vel_x'
p4
F0.37217440121987561
sS'pos_x'
p5
F-144.30982303963265
sS'pos_y'
p6
F44.714796546713551
sS'isAlive'
p7
I01
sS'cumulativeEnergy'
p8
F43.850000000085188
sS'geno'
p9
(lp10
F-1.091216080601376
aF-0.59203772533429655
aF1.2132540209661895
aF4.3324737430668963
aF1.0159387961218296
aF1.9668956098983412
asS'accel_x'
p11
F1.9669234912619238
sS'accel_y'
p12
F0.36223194160924665
sS'visionAngle'
p13
I150
sS'maxAccel'
p14
I2
sS'maxVel'
p15
F0.5
sS'age'
p16
I410
sS'tailSize'
p17
I0
sS'sexualgeno'
p18
NsS'tailBrigh'
p19
I0
sS'maxSteering'
p20
I30
sS'energy'
p21
F0.60000000000530773
sS'lastScale'
p22
F11.500000000053078
sb.(i__main__
Data_mobile
p1
(dp2
S'vel_y'
p3
F-0.22239618759178359
sS'vel_x'
p4
F0.44781685513682962
sS'pos_x'
p5
F-170.85769903864349
sS'pos_y'
p6
F-27.248974073675342
sS'isAlive'
p7
I01
sS'cumulativeEnergy'
p8
F43.347164565924224
sS'geno'
p9
(lp10
F-0.60092485736889645
aF-0.75833733070889975
aF1.2132540209661895
aF4.0390559750946133
aF1.2019205515690021
aF1.1236961455634202
asS'accel_x'
p11
F-1.8535544243251567
sS'accel_y'
p12
F0.7512230002233935
sS'visionAngle'
p13
I150
sS'maxAccel'
p14
I2
sS'maxVel'
p15
F0.5
sS'age'
p16
I100
sS'tailSize'
p17
I0
sS'sexualgeno'
p18
NsS'tailBrigh'
p19
I0
sS'maxSteering'
p20
I30
sS'energy'
p21
F1
sS'lastScale'
p22
F15.5
sb.(i__main__
Data_mobile
p1
(dp2
S'vel_y'
p3
F-0.31882869474353598
sS'vel_x'
p4
F-0.38516004908107115
sS'pos_x'
p5
F-148.73586529074575
sS'pos_y'
p6
F-109.71512673597221
sS'isAlive'
p7
I01
sS'cumulativeEnergy'
p8
F42.935801514920854
sS'geno'
p9
(lp10
F-0.96978720077199521
aF-0.59203772533429655
aF0.82187085305602059
aF4.1453355106722292
aF0.72079501191871564
aF-0.77779332648091692
asS'accel_x'
p11
F-0.74129338792557231
sS'accel_y'
p12
F-0.2354709573091282
sS'visionAngle'
p13
I150
sS'maxAccel'
p14
I2
sS'maxVel'
p15
F0.5
sS'age'
p16
I100
sS'tailSize'
p17
I0
sS'sexualgeno'
p18
NsS'tailBrigh'
p19
I0
sS'maxSteering'
p20
I30
sS'energy'
p21
F0.59644457530748018
sS'lastScale'
p22
F11.464445753074802
sb.(i__main__
Data_mobile
p1
(dp2
S'vel_y'
p3
F-0.47833938863366876
sS'vel_x'
p4
F-0.14557276284239423
sS'pos_x'
p5
F-132.61461131550465
sS'pos_y'
p6
F-103.40121641373112
sS'isAlive'
p7
I01
sS'cumulativeEnergy'
p8
F42.935801514920854
sS'geno'
p9
(lp10
F-1.091216080601376
aF0.086849375617038316
aF0.82187085305602059
aF4.3324737430668963
aF0.70797249175436527
aF-0.77779332648091692
asS'accel_x'
p11
F-0.072869428769187714
sS'accel_y'
p12
F-0.77437232974138648
sS'visionAngle'
p13
I150
sS'maxAccel'
p14
I2
sS'maxVel'
p15
F0.5
sS'age'
p16
I100
sS'tailSize'
p17
I0
sS'sexualgeno'
p18
NsS'tailBrigh'
p19
I0
sS'maxSteering'
p20
I30
sS'energy'
p21
F0.59644457530748018
sS'lastScale'
p22
F11.464445753074802
sb.(i__main__
Data_mobile
p1
(dp2
S'vel_y'
p3
F-0.23014533582370592
sS'vel_x'
p4
F-0.44388413397934567
sS'pos_x'
p5
F-73.246228548739268
sS'pos_y'
p6
F50.541236723869481
sS'isAlive'
p7
I01
sS'cumulativeEnergy'
p8
F40.99439715176225
sS'geno'
p9
(lp10
F-0.96978720077199521
aF-0.56230112222715201
aF0.98403981141394592
aF3.9158665482013708
aF0.65592783863779969
aF1.7335828706146701
asS'accel_x'
p11
F-0.18585643604394517
sS'accel_y'
p12
F1.9913456217294481
sS'visionAngle'
p13
I150
sS'maxAccel'
p14
I2
sS'maxVel'
p15
F0.5
sS'age'
p16
I100
sS'tailSize'
p17
I0
sS'sexualgeno'
p18
NsS'tailBrigh'
p19
I0
sS'maxSteering'
p20
I30
sS'energy'
p21
F1
sS'lastScale'
p22
F15.5
sb.(i__main__
Data_mobile
p1
(dp2
S'vel_y'
p3
F0.47879569273371281
sS'vel_x'
p4
F0.14406486254338408
sS'pos_x'
p5
F70.681318696842837
sS'pos_y'
p6
F87.027111900049277
sS'isAlive'
p7
I01
sS'cumulativeEnergy'
p8
F40.901408258672767
sS'geno'
p9
(lp10
F-1.091216080601376
aF-0.59203772533429655
aF1.107933843405621
aF4.7850063250984149
aF0.65592783863779969
aF2.1556760211362076
asS'accel_x'
p11
F1.2619214296364418
sS'accel_y'
p12
F-1.5516295644980211
sS'visionAngle'
p13
I150
sS'maxAccel'
p14
I2
sS'maxVel'
p15
F0.5
sS'age'
p16
I100
sS'tailSize'
p17
I0
sS'sexualgeno'
p18
NsS'tailBrigh'
p19
I0
sS'maxSteering'
p20
I30
sS'energy'
p21
F1
sS'lastScale'
p22
F15.5
sb.(i__main__
Data_mobile
p1
(dp2
S'vel_y'
p3
F-0.32009556244633813
sS'vel_x'
p4
F-0.38410783759533268
sS'pos_x'
p5
F-84.070980379979531
sS'pos_y'
p6
F-37.319736371864082
sS'isAlive'
p7
I01
sS'cumulativeEnergy'
p8
F40.667033014028654
sS'geno'
p9
(lp10
F-1.091216080601376
aF-0.5855628143201006
aF0.82187085305602059
aF4.3324737430668963
aF0.70797249175436527
aF-0.77779332648091692
asS'accel_x'
p11
F-0.26525839034765636
sS'accel_y'
p12
F-0.73116376077348133
sS'visionAngle'
p13
I150
sS'maxAccel'
p14
I2
sS'maxVel'
p15
F0.5
sS'age'
p16
I150
sS'tailSize'
p17
I0
sS'sexualgeno'
p18
NsS'tailBrigh'
p19
I0
sS'maxSteering'
p20
I30
sS'energy'
p21
F0.41964101650949726
sS'lastScale'
p22
F9.6964101650949726
sb.(i__main__
Data_mobile
p1
(dp2
S'vel_y'
p3
F0.39037153834630689
sS'vel_x'
p4
F0.31242609053844694
sS'pos_x'
p5
F-72.120463490388261
sS'pos_y'
p6
F51.812767536871156
sS'isAlive'
p7
I01
sS'cumulativeEnergy'
p8
F39.248260402477513
sS'geno'
p9
(lp10
F-0.60092485736889645
aF-0.75833733070889975
aF1.2132540209661895
aF4.3324737430668963
aF1.3848895856013679
aF1.9668956098983412
asS'accel_x'
p11
F-0.2076382222682065
sS'accel_y'
p12
F-0.21648734142149206
sS'visionAngle'
p13
I150
sS'maxAccel'
p14
I2
sS'maxVel'
p15
F0.5
sS'age'
p16
I50
sS'tailSize'
p17
I0
sS'sexualgeno'
p18
NsS'tailBrigh'
p19
I0
sS'maxSteering'
p20
I30
sS'energy'
p21
F1
sS'lastScale'
p22
F15.5
sb.(i__main__
Data_mobile
p1
(dp2
S'vel_y'
p3
F0.42773347430101144
sS'vel_x'
p4
F0.25892870633127185
sS'pos_x'
p5
F-81.346380391815956
sS'pos_y'
p6
F8.5582261560288853
sS'isAlive'
p7
I01
sS'cumulativeEnergy'
p8
F39.231138920287933
sS'geno'
p9
(lp10
F-1.3331656882462526
aF-0.59203772533429655
aF0.85397947810883279
aF4.345268371324603
aF1.0196001324795749
aF1.9668956098983412
asS'accel_x'
p11
F1.4083684229222528
sS'accel_y'
p12
F1.3730173799165308
sS'visionAngle'
p13
I150
sS'maxAccel'
p14
I2
sS'maxVel'
p15
F0.5
sS'age'
p16
I100
sS'tailSize'
p17
I0
sS'sexualgeno'
p18
NsS'tailBrigh'
p19
I0
sS'maxSteering'
p20
I30
sS'energy'
p21
F0.77439705445995966
sS'lastScale'
p22
F13.243970544599597
sb.(i__main__
Data_mobile
p1
(dp2
S'vel_y'
p3
F-0.40547838970437555
sS'vel_x'
p4
F0.29255303020605777
sS'pos_x'
p5
F-143.57336480912332
sS'pos_y'
p6
F-92.385845778339075
sS'isAlive'
p7
I01
sS'cumulativeEnergy'
p8
F38.999649921563368
sS'geno'
p9
(lp10
F-0.96978720077199521
aF-0.59203772533429655
aF0.82187085305602059
aF4.1453355106722292
aF0.72079501191871564
aF-0.77779332648091692
asS'accel_x'
p11
F0.55350559670624044
sS'accel_y'
p12
F-0.72373337540137017
sS'visionAngle'
p13
I150
sS'maxAccel'
p14
I2
sS'maxVel'
p15
F0.5
sS'age'
p16
I150
sS'tailSize'
p17
I0
sS'sexualgeno'
p18
NsS'tailBrigh'
p19
I0
sS'maxSteering'
p20
I30
sS'energy'
p21
F0.3651203577041377
sS'lastScale'
p22
F9.1512035770413771
sb.(i__main__
Data_mobile
p1
(dp2
S'vel_y'
p3
F0.47060044907152038
sS'vel_x'
p4
F-0.16892370269942389
sS'pos_x'
p5
F70.444080502164937
sS'pos_y'
p6
F86.939436576989522
sS'isAlive'
p7
I01
sS'cumulativeEnergy'
p8
F38.61760999961453
sS'geno'
p9
(lp10
F-0.62495355972267763
aF-0.59203772533429655
aF1.0524684023489828
aF4.7850063250984149
aF0.65592783863779969
aF2.1556760211362076
asS'accel_x'
p11
F1.7046655877095294
sS'accel_y'
p12
F-1.0459996338808755
sS'visionAngle'
p13
I150
sS'maxAccel'
p14
I2
sS'maxVel'
p15
F0.5
sS'age'
p16
I200
sS'tailSize'
p17
I0
sS'sexualgeno'
p18
NsS'tailBrigh'
p19
I0
sS'maxSteering'
p20
I30
sS'energy'
p21
F1
sS'lastScale'
p22
F15.5
sb.(i__main__
Data_mobile
p1
(dp2
S'vel_y'
p3
F0.49320662559326034
sS'vel_x'
p4
F0.082141490556901314
sS'pos_x'
p5
F71.273719327571627
sS'pos_y'
p6
F87.334437088173729
sS'isAlive'
p7
I01
sS'cumulativeEnergy'
p8
F38.488046860086634
sS'geno'
p9
(lp10
F-1.091216080601376
aF-0.59203772533429655
aF1.2132540209661895
aF4.3324737430668963
aF1.0159387961218296
aF1.9668956098983412
asS'accel_x'
p11
F-1.1444284272700924
sS'accel_y'
p12
F-1.6402083937280967
sS'visionAngle'
p13
I150
sS'maxAccel'
p14
I2
sS'maxVel'
p15
F0.5
sS'age'
p16
I50
sS'tailSize'
p17
I0
sS'sexualgeno'
p18
NsS'tailBrigh'
p19
I0
sS'maxSteering'
p20
I30
sS'energy'
p21
F1
sS'lastScale'
p22
F15.5
sb.(i__main__
Data_mobile
p1
(dp2
S'vel_y'
p3
F0.49999297123582032
sS'vel_x'
p4
F0.0026511723399566256
sS'pos_x'
p5
F-111.08221346005136
sS'pos_y'
p6
F-67.797193465084419
sS'isAlive'
p7
I01
sS'cumulativeEnergy'
p8
F38.488046860086634
sS'geno'
p9
(lp10
F-1.091216080601376
aF-1.0342445541101442
aF1.2132540209661895
aF4.3324737430668963
aF0.72079501191871564
aF-0.77779332648091692
asS'accel_x'
p11
F1.0607753202288399
sS'accel_y'
p12
F-1.6955104600070747
sS'visionAngle'
p13
I150
sS'maxAccel'
p14
I2
sS'maxVel'
p15
F0.5
sS'age'
p16
I50
sS'tailSize'
p17
I0
sS'sexualgeno'
p18
NsS'tailBrigh'
p19
I0
sS'maxSteering'
p20
I30
sS'energy'
p21
F1
sS'lastScale'
p22
F15.5
sb.(i__main__
Data_mobile
p1
(dp2
S'vel_y'
p3
F0.47990724892907755
sS'vel_x'
p4
F0.14031761266970155
sS'pos_x'
p5
F-141.34056211451215
sS'pos_y'
p6
F-87.369654523456035
sS'isAlive'
p7
I01
sS'cumulativeEnergy'
p8
F37.780176143636083
sS'geno'
p9
(lp10
F-0.96978720077199521
aF-0.59203772533429655
aF0.82187085305602059
aF4.1453355106722292
aF0.72079501191871564
aF-0.77779332648091692
asS'accel_x'
p11
F-0.258398954694875
sS'accel_y'
p12
F0.53630404807466336
sS'visionAngle'
p13
I150
sS'maxAccel'
p14
I2
sS'maxVel'
p15
F0.5
sS'age'
p16
I250
sS'tailSize'
p17
I0
sS'sexualgeno'
p18
NsS'tailBrigh'
p19
I0
sS'maxSteering'
p20
I30
sS'energy'
p21
F0.32000745813679804
sS'lastScale'
p22
F8.7000745813679803
sb.(i__main__
Data_mobile
p1
(dp2
S'vel_y'
p3
F0.3411630633079184
sS'vel_x'
p4
F0.36552395849568775
sS'pos_x'
p5
F5.9327081215370674
sS'pos_y'
p6
F30.210025955138029
sS'isAlive'
p7
I01
sS'cumulativeEnergy'
p8
F37.754085156077622
sS'geno'
p9
(lp10
F-1.091216080601376
aF-0.64354308413197259
aF1.2132540209661895
aF4.0404957894666396
aF1.0196001324795749
aF1.9668956098983412
asS'accel_x'
p11
F-0.88197002107631528
sS'accel_y'
p12
F1.6262643683993725
sS'visionAngle'
p13
I150
sS'maxAccel'
p14
I2
sS'maxVel'
p15
F0.5
sS'age'
p16
I100
sS'tailSize'
p17
I0
sS'sexualgeno'
p18
NsS'tailBrigh'
p19
I0
sS'maxSteering'
p20
I30
sS'energy'
p21
F0.11600724133538978
sS'lastScale'
p22
F6.8079902848166238
sb.(i__main__
Data_mobile
p1
(dp2
S'vel_y'
p3
F0.2987144335977584
sS'vel_x'
p4
F0.40096095465814419
sS'pos_x'
p5
F159.10467812135863
sS'pos_y'
p6
F77.178104842795733
sS'isAlive'
p7
I01
sS'cumulativeEnergy'
p8
F37.730043167106153
sS'geno'
p9
(lp10
F-0.96978720077199521
aF-0.59203772533429655
aF1.3001195299733639
aF4.3324737430668963
aF0.70797249175436527
aF1.9668956098983412
asS'accel_x'
p11
F1.1362222854657233
sS'accel_y'
p12
F1.6459036782300014
sS'visionAngle'
p13
I150
sS'maxAccel'
p14
I2
sS'maxVel'
p15
F0.5
sS'age'
p16
I300
sS'tailSize'
p17
I0
sS'sexualgeno'
p18
NsS'tailBrigh'
p19
I0
sS'maxSteering'
p20
I30
sS'energy'
p21
F0.66000002256996204
sS'lastScale'
p22
F12.10000022569962
sb.(i__main__
Data_mobile
p1
(dp2
S'vel_y'
p3
F-0.39772340611470691
sS'vel_x'
p4
F-0.30301170312137443
sS'pos_x'
p5
F-160.15655979892315
sS'pos_y'
p6
F-104.14735321132774
sS'isAlive'
p7
I01
sS'cumulativeEnergy'
p8
F37.581245061703299
sS'geno'
p9
(lp10
F-0.96978720077199521
aF-0.59203772533429655
aF0.82187085305602059
aF4.1453355106722292
aF0.72079501191871564
aF-0.77779332648091692
asS'accel_x'
p11
F-0.77045291753643175
sS'accel_y'
p12
F-0.10660563107946243
sS'visionAngle'
p13
I150
sS'maxAccel'
p14
I2
sS'maxVel'
p15
F0.5
sS'age'
p16
I50
sS'tailSize'
p17
I0
sS'sexualgeno'
p18
NsS'tailBrigh'
p19
I0
sS'maxSteering'
p20
I30
sS'energy'
p21
F0.64825676022440015
sS'lastScale'
p22
F11.982567602244004
sb.(i__main__
Data_mobile
p1
(dp2
S'vel_y'
p3
F-0.3575967150457644
sS'vel_x'
p4
F0.34946328761184398
sS'pos_x'
p5
F-132.89244125226503
sS'pos_y'
p6
F-91.660768508610985
sS'isAlive'
p7
I01
sS'cumulativeEnergy'
p8
F37.581245061703299
sS'geno'
p9
(lp10
F-0.96978720077199521
aF-0.59203772533429655
aF0.82187085305602059
aF4.1453355106722292
aF0.70797249175436527
aF-0.4178718972082045
asS'accel_x'
p11
F-0.37200534756302694
sS'accel_y'
p12
F-0.19033902348413939
sS'visionAngle'
p13
I150
sS'maxAccel'
p14
I2
sS'maxVel'
p15
F0.5
sS'age'
p16
I50
sS'tailSize'
p17
I0
sS'sexualgeno'
p18
NsS'tailBrigh'
p19
I0
sS'maxSteering'
p20
I30
sS'energy'
p21
F0.64825676022440015
sS'lastScale'
p22
F11.982567602244004
sb.(i__main__
Data_mobile
p1
(dp2
S'vel_y'
p3
F-0.4752182248226941
sS'vel_x'
p4
F0.15545944421735
sS'pos_x'
p5
F-65.287009815311706
sS'pos_y'
p6
F-91.26532702304462
sS'isAlive'
p7
I01
sS'cumulativeEnergy'
p8
F37.077302531069378
sS'geno'
p9
(lp10
F-0.90779972158645528
aF-0.59203772533429655
aF0.82187085305602059
aF4.0390559750946133
aF0.65592783863779969
aF-0.77779332648091692
asS'accel_x'
p11
F-0.33446464861010727
sS'accel_y'
p12
F1.9718350333712293
sS'visionAngle'
p13
I150
sS'maxAccel'
p14
I2
sS'maxVel'
p15
F0.5
sS'age'
p16
I150
sS'tailSize'
p17
I0
sS'sexualgeno'
p18
NsS'tailBrigh'
p19
I0
sS'maxSteering'
p20
I30
sS'energy'
p21
F1
sS'lastScale'
p22
F15.5
sb.(i__main__
Data_mobile
p1
(dp2
S'vel_y'
p3
F-0.28086393606837584
sS'vel_x'
p4
F0.41366103202523119
sS'pos_x'
p5
F-110.51222555076595
sS'pos_y'
p6
F-68.812410988787988
sS'isAlive'
p7
I01
sS'cumulativeEnergy'
p8
F36.937555145072906
sS'geno'
p9
(lp10
F-0.90779972158645528
aF-0.59203772533429655
aF0.82187085305602059
aF4.7973887558271144
aF0.72079501191871564
aF-0.77779332648091692
asS'accel_x'
p11
F-0.033940955059544566
sS'accel_y'
p12
F1.9997119821538414
sS'visionAngle'
p13
I150
sS'maxAccel'
p14
I2
sS'maxVel'
p15
F0.5
sS'age'
p16
I50
sS'tailSize'
p17
I0
sS'sexualgeno'
p18
NsS'tailBrigh'
p19
I0
sS'maxSteering'
p20
I30
sS'energy'
p21
F1
sS'lastScale'
p22
F15.5
sb.(i__main__
Data_mobile
p1
(dp2
S'vel_y'
p3
F0.44601694865446179
sS'vel_x'
p4
F0.22598425058610425
sS'pos_x'
p5
F149.42058363558758
sS'pos_y'
p6
F79.275674551887079
sS'isAlive'
p7
I01
sS'cumulativeEnergy'
p8
F35.543133079536361
sS'geno'
p9
(lp10
F-0.90779972158645528
aF-0.59203772533429655
aF0.82187085305602059
aF4.0390559750946133
aF0.72079501191871564
aF1.9668956098983412
asS'accel_x'
p11
F0.66889751365809103
sS'accel_y'
p12
F0.064643496396021849
sS'visionAngle'
p13
I150
sS'maxAccel'
p14
I2
sS'maxVel'
p15
F0.5
sS'age'
p16
I150
sS'tailSize'
p17
I0
sS'sexualgeno'
p18
NsS'tailBrigh'
p19
I0
sS'maxSteering'
p20
I30
sS'energy'
p21
F0.66344211605430814
sS'lastScale'
p22
F12.134421160543083
sb.(i__main__
Data_mobile
p1
(dp2
S'vel_y'
p3
F-0.35902829268952408
sS'vel_x'
p4
F-0.34799236349156487
sS'pos_x'
p5
F-116.59033567052983
sS'pos_y'
p6
F-34.407279600390282
sS'isAlive'
p7
I01
sS'cumulativeEnergy'
p8
F32.84492826699519
sS'geno'
p9
(lp10
F-1.091216080601376
aF-0.14808030599680422
aF1.0279113270681322
aF4.0390559750946133
aF1.2019205515690021
aF1.1236961455634202
asS'accel_x'
p11
F0.7149797633647208
sS'accel_y'
p12
F1.867834023134531
sS'visionAngle'
p13
I150
sS'maxAccel'
p14
I2
sS'maxVel'
p15
F0.5
sS'age'
p16
I50
sS'tailSize'
p17
I0
sS'sexualgeno'
p18
NsS'tailBrigh'
p19
I0
sS'maxSteering'
p20
I30
sS'energy'
p21
F1
sS'lastScale'
p22
F15.5
sb.(i__main__
Data_mobile
p1
(dp2
S'vel_y'
p3
F-0.49486382991919109
sS'vel_x'
p4
F0.071482793997646621
sS'pos_x'
p5
F5.480417422064968
sS'pos_y'
p6
F29.584529085561016
sS'isAlive'
p7
I01
sS'cumulativeEnergy'
p8
F32.755737336444007
sS'geno'
p9
(lp10
F-1.091216080601376
aF-0.59203772533429655
aF1.7011551482225808
aF4.3324737430668963
aF0.70797249175436527
aF1.2682818416668149
asS'accel_x'
p11
F0.17490639858795046
sS'accel_y'
p12
F1.9923372585315451
sS'visionAngle'
p13
I150
sS'maxAccel'
p14
I2
sS'maxVel'
p15
F0.5
sS'age'
p16
I100
sS'tailSize'
p17
I0
sS'sexualgeno'
p18
NsS'tailBrigh'
p19
I0
sS'maxSteering'
p20
I30
sS'energy'
p21
F0.99825473971604406
sS'lastScale'
p22
F15.482547397160442
sb.(i__main__
Data_mobile
p1
(dp2
S'vel_y'
p3
F-0.33814353128704444
sS'vel_x'
p4
F0.36831909025833515
sS'pos_x'
p5
F-109.86008272674299
sS'pos_y'
p6
F-68.608500477541085
sS'isAlive'
p7
I01
sS'cumulativeEnergy'
p8
F31.113826995062446
sS'geno'
p9
(lp10
F-0.96978720077199521
aF-0.59203772533429655
aF0.82187085305602059
aF4.1453355106722292
aF0.72079501191871564
aF-0.6967931658830816
asS'accel_x'
p11
F-1.9809575148658309
sS'accel_y'
p12
F0.27533129915901616
sS'visionAngle'
p13
I150
sS'maxAccel'
p14
I2
sS'maxVel'
p15
F0.5
sS'age'
p16
I50
sS'tailSize'
p17
I0
sS'sexualgeno'
p18
NsS'tailBrigh'
p19
I0
sS'maxSteering'
p20
I30
sS'energy'
p21
F1
sS'lastScale'
p22
F15.5
sb.(i__main__
Data_mobile
p1
(dp2
S'vel_y'
p3
F-0.095298665847102254
sS'vel_x'
p4
F-0.49083415150920612
sS'pos_x'
p5
F4.3408972324817965
sS'pos_y'
p6
F29.576049844096534
sS'isAlive'
p7
I01
sS'cumulativeEnergy'
p8
F30.417515027175178
sS'geno'
p9
(lp10
F-1.3331656882462526
aF0.95733636369027353
aF0.82187085305602059
aF4.3324737430668963
aF0.70797249175436527
aF-0.77779332648091692
asS'accel_x'
p11
F0.82871104392286887
sS'accel_y'
p12
F0.30105131521762452
sS'visionAngle'
p13
I150
sS'maxAccel'
p14
I2
sS'maxVel'
p15
F0.5
sS'age'
p16
I200
sS'tailSize'
p17
I0
sS'sexualgeno'
p18
NsS'tailBrigh'
p19
I0
sS'maxSteering'
p20
I30
sS'energy'
p21
F0.077818283610405187
sS'lastScale'
p22
F6.4261007075667784
sb.(i__main__
Data_mobile
p1
(dp2
S'vel_y'
p3
F0.40448302612828313
sS'vel_x'
p4
F0.29392768085722498
sS'pos_x'
p5
F20.730758639499019
sS'pos_y'
p6
F92.625326701034098
sS'isAlive'
p7
I01
sS'cumulativeEnergy'
p8
F30.233200134074696
sS'geno'
p9
(lp10
F-0.62495355972267763
aF-0.59203772533429655
aF1.0524684023489828
aF4.7850063250984149
aF0.65592783863779969
aF2.1556760211362076
asS'accel_x'
p11
F-1.156903710474706
sS'accel_y'
p12
F-1.6314330524694716
sS'visionAngle'
p13
I150
sS'maxAccel'
p14
I2
sS'maxVel'
p15
F0.5
sS'age'
p16
I50
sS'tailSize'
p17
I0
sS'sexualgeno'
p18
NsS'tailBrigh'
p19
I0
sS'maxSteering'
p20
I30
sS'energy'
p21
F1
sS'lastScale'
p22
F15.5
sb.(i__main__
Data_mobile
p1
(dp2
S'vel_y'
p3
F0.1940236848047025
sS'vel_x'
p4
F0.46081971500230479
sS'pos_x'
p5
F-42.884523468842829
sS'pos_y'
p6
F0.15261438034857325
sS'isAlive'
p7
I01
sS'cumulativeEnergy'
p8
F29.981245061703302
sS'geno'
p9
(lp10
F-0.90779972158645528
aF-0.51020731713597423
aF0.98403981141394592
aF3.9158665482013708
aF0.40715193972245811
aF1.7335828706146701
asS'accel_x'
p11
F1.5791289508998183
sS'accel_y'
p12
F0.71530505780306008
sS'visionAngle'
p13
I150
sS'maxAccel'
p14
I2
sS'maxVel'
p15
F0.5
sS'age'
p16
I50
sS'tailSize'
p17
I0
sS'sexualgeno'
p18
NsS'tailBrigh'
p19
I0
sS'maxSteering'
p20
I30
sS'energy'
p21
F0.49825676022440007
sS'lastScale'
p22
F10.482567602244002
sb.(i__main__
Data_mobile
p1
(dp2
S'vel_y'
p3
F-0.26119515667737869
sS'vel_x'
p4
F-0.426353245710971
sS'pos_x'
p5
F-37.290345255715359
sS'pos_y'
p6
F13.067484409906971
sS'isAlive'
p7
I01
sS'cumulativeEnergy'
p8
F28.844560887509537
sS'geno'
p9
(lp10
F-1.091216080601376
aF-0.59203772533429655
aF1.1076803104535642
aF4.357440810233963
aF0.70797249175436527
aF-0.6967931658830816
asS'accel_x'
p11
F-0.30423499692079775
sS'accel_y'
p12
F0.25252234837673909
sS'visionAngle'
p13
I150
sS'maxAccel'
p14
I2
sS'maxVel'
p15
F0.5
sS'age'
p16
I150
sS'tailSize'
p17
I0
sS'sexualgeno'
p18
NsS'tailBrigh'
p19
I0
sS'maxSteering'
p20
I30
sS'energy'
p21
F0.010842841233415945
sS'lastScale'
p22
F6.1084284123341597
sb.(i__main__
Data_mobile
p1
(dp2
S'vel_y'
p3
F-0.20682938051931285
sS'vel_x'
p4
F-0.45521600076666607
sS'pos_x'
p5
F-67.585772049890139
sS'pos_y'
p6
F55.528907555017078
sS'isAlive'
p7
I01
sS'cumulativeEnergy'
p8
F28.681245061703297
sS'geno'
p9
(lp10
F-1.4529021151190979
aF-0.59203772533429655
aF0.82187085305602059
aF3.7315404498610265
aF1.0196001324795749
aF1.9668956098983412
asS'accel_x'
p11
F-0.8314608123554057
sS'accel_y'
p12
F-1.8189757880514215
sS'visionAngle'
p13
I150
sS'maxAccel'
p14
I2
sS'maxVel'
p15
F0.5
sS'age'
p16
I50
sS'tailSize'
p17
I0
sS'sexualgeno'
p18
NsS'tailBrigh'
p19
I0
sS'maxSteering'
p20
I30
sS'energy'
p21
F0.69825676022440009
sS'lastScale'
p22
F12.482567602244
sb.(i__main__
Data_mobile
p1
(dp2
S'vel_y'
p3
F-0.45852270041928955
sS'vel_x'
p4
F0.1993914070370198
sS'pos_x'
p5
F5.285920329586931
sS'pos_y'
p6
F30.239121006098959
sS'isAlive'
p7
I01
sS'cumulativeEnergy'
p8
F28.479817346969135
sS'geno'
p9
(lp10
F-1.1972309374669186
aF-0.14808030599680422
aF0.82187085305602059
aF4.3324737430668963
aF1.2019205515690021
aF1.1522436771052749
asS'accel_x'
p11
F-0.99090003556511652
sS'accel_y'
p12
F-1.7372728972493212
sS'visionAngle'
p13
I150
sS'maxAccel'
p14
I2
sS'maxVel'
p15
F0.5
sS'age'
p16
I50
sS'tailSize'
p17
I0
sS'sexualgeno'
p18
NsS'tailBrigh'
p19
I0
sS'maxSteering'
p20
I30
sS'energy'
p21
F0.35218528734529542
sS'lastScale'
p22
F9.0218528734529535
sb.(i__main__
Data_mobile
p1
(dp2
S'vel_y'
p3
F0.22200879212752858
sS'vel_x'
p4
F0.44800903586655011
sS'pos_x'
p5
F-121.51988229184687
sS'pos_y'
p6
F-35.385376068505629
sS'isAlive'
p7
I01
sS'cumulativeEnergy'
p8
F26.440014093675284
sS'geno'
p9
(lp10
F-0.90779972158645528
aF-0.59203772533429655
aF0.82187085305602059
aF4.0390559750946133
aF1.2019205515690021
aF1.2682818416668149
asS'accel_x'
p11
F1.7103647780571518
sS'accel_y'
p12
F1.0366543908080015
sS'visionAngle'
p13
I150
sS'maxAccel'
p14
I2
sS'maxVel'
p15
F0.5
sS'age'
p16
I300
sS'tailSize'
p17
I0
sS'sexualgeno'
p18
NsS'tailBrigh'
p19
I0
sS'maxSteering'
p20
I30
sS'energy'
p21
F0.040000387310170409
sS'lastScale'
p22
F5.9000038731017046
sb.(i__main__
Data_mobile
p1
(dp2
S'vel_y'
p3
F-0.20003604535358471
sS'vel_x'
p4
F0.45824183632586257
sS'pos_x'
p5
F71.047112837970133
sS'pos_y'
p6
F86.482818179244958
sS'isAlive'
p7
I01
sS'cumulativeEnergy'
p8
F25.810000066469826
sS'geno'
p9
(lp10
F-1.091216080601376
aF-0.59203772533429655
aF1.0524684023489828
aF4.4051331136941876
aF0.65592783863779969
aF2.1556760211362076
asS'accel_x'
p11
F-1.5772113402865306
sS'accel_y'
p12
F1.2297985152339246
sS'visionAngle'
p13
I150
sS'maxAccel'
p14
I2
sS'maxVel'
p15
F0.5
sS'age'
p16
I400
sS'tailSize'
p17
I0
sS'sexualgeno'
p18
NsS'tailBrigh'
p19
I0
sS'maxSteering'
p20
I30
sS'energy'
p21
F1
sS'lastScale'
p22
F15.5
sb.(i__main__
Data_mobile
p1
(dp2
S'vel_y'
p3
F0.29492812443600352
sS'vel_x'
p4
F-0.40375413486014139
sS'pos_x'
p5
F-172.53726421094581
sS'pos_y'
p6
F-26.625138034443772
sS'isAlive'
p7
I01
sS'cumulativeEnergy'
p8
F25.622847665208461
sS'geno'
p9
(lp10
F-0.60092485736889645
aF-0.6878180309589782
aF1.2132540209661895
aF3.925996468489009
aF1.2019205515690021
aF1.2682818416668149
asS'accel_x'
p11
F1.7552795408901012
sS'accel_y'
p12
F-0.95864160838794965
sS'visionAngle'
p13
I150
sS'maxAccel'
p14
I2
sS'maxVel'
p15
F0.5
sS'age'
p16
I50
sS'tailSize'
p17
I0
sS'sexualgeno'
p18
NsS'tailBrigh'
p19
I0
sS'maxSteering'
p20
I30
sS'energy'
p21
F1
sS'lastScale'
p22
F15.5
sb.(i__main__
Data_mobile
p1
(dp2
S'vel_y'
p3
F0.49920200480631766
sS'vel_x'
p4
F0.028237535256343232
sS'pos_x'
p5
F5.5619491659392972
sS'pos_y'
p6
F30.908459343402402
sS'isAlive'
p7
I01
sS'cumulativeEnergy'
p8
F25.320924355987167
sS'geno'
p9
(lp10
F-1.091216080601376
aF-1.0482452697965754
aF1.2132540209661895
aF4.0404957894666396
aF1.0196001324795749
aF1.9668956098983412
asS'accel_x'
p11
F1.202191247235102
sS'accel_y'
p12
F-0.91282994780568893
sS'visionAngle'
p13
I150
sS'maxAccel'
p14
I2
sS'maxVel'
p15
F0.5
sS'age'
p16
I150
sS'tailSize'
p17
I0
sS'sexualgeno'
p18
NsS'tailBrigh'
p19
I0
sS'maxSteering'
p20
I30
sS'energy'
p21
F1
sS'lastScale'
p22
F15.5
sb.(i__main__
Data_mobile
p1
(dp2
S'vel_y'
p3
F0.47021566911142293
sS'vel_x'
p4
F0.16999183663369483
sS'pos_x'
p5
F153.29777666539229
sS'pos_y'
p6
F81.429088668483942
sS'isAlive'
p7
I01
sS'cumulativeEnergy'
p8
F24.669813688415992
sS'geno'
p9
(lp10
F-0.96978720077199521
aF-0.59203772533429655
aF1.3001195299733639
aF4.3324737430668963
aF0.94561187644924682
aF1.9668956098983412
asS'accel_x'
p11
F0.24805130623763016
sS'accel_y'
p12
F0.3769845178386968
sS'visionAngle'
p13
I150
sS'maxAccel'
p14
I2
sS'maxVel'
p15
F0.5
sS'age'
p16
I200
sS'tailSize'
p17
I0
sS'sexualgeno'
p18
NsS'tailBrigh'
p19
I0
sS'maxSteering'
p20
I30
sS'energy'
p21
F0.38653452470677341
sS'lastScale'
p22
F9.3653452470677347
sb.(i__main__
Data_mobile
p1
(dp2
S'vel_y'
p3
F0.20320062811557918
sS'vel_x'
p4
F0.45684735386497988
sS'pos_x'
p5
F-20.009394349509083
sS'pos_y'
p6
F104.25467871563717
sS'isAlive'
p7
I01
sS'cumulativeEnergy'
p8
F21.932615054634432
sS'geno'
p9
(lp10
F-1.091216080601376
aF-0.59203772533429655
aF1.2132540209661895
aF4.3324737430668963
aF1.0196001324795749
aF1.9668956098983412
asS'accel_x'
p11
F1.0837012988201569
sS'accel_y'
p12
F-0.012953648363525971
sS'visionAngle'
p13
I150
sS'maxAccel'
p14
I2
sS'maxVel'
p15
F0.5
sS'age'
p16
I50
sS'tailSize'
p17
I0
sS'sexualgeno'
p18
NsS'tailBrigh'
p19
I0
sS'maxSteering'
p20
I30
sS'energy'
p21
F0.4283501854952998
sS'lastScale'
p22
F9.7835018549529984
sb.(i__main__
Data_mobile
p1
(dp2
S'vel_y'
p3
F-0.10981215349544217
sS'vel_x'
p4
F0.48779226207955917
sS'pos_x'
p5
F179.35521647306263
sS'pos_y'
p6
F90.735110373819467
sS'isAlive'
p7
I01
sS'cumulativeEnergy'
p8
F19.647989436745085
sS'geno'
p9
(lp10
F-0.90779972158645528
aF-0.59203772533429655
aF1.2932667918472225
aF4.3324737430668963
aF0.70797249175436527
aF1.9668956098983412
asS'accel_x'
p11
F-1.7347323801942736
sS'accel_y'
p12
F0.99534093109120714
sS'visionAngle'
p13
I150
sS'maxAccel'
p14
I2
sS'maxVel'
p15
F0.5
sS'age'
p16
I200
sS'tailSize'
p17
I0
sS'sexualgeno'
p18
NsS'tailBrigh'
p19
I0
sS'maxSteering'
p20
I30
sS'energy'
p21
F0.7371095399787958
sS'lastScale'
p22
F12.871095399787958
sb.(i__main__
Data_mobile
p1
(dp2
S'vel_y'
p3
F0.20706155361806841
sS'vel_x'
p4
F0.45511044045733756
sS'pos_x'
p5
F-119.92778224292019
sS'pos_y'
p6
F-33.447941432638636
sS'isAlive'
p7
I01
sS'cumulativeEnergy'
p8
F17.081245061703292
sS'geno'
p9
(lp10
F-0.93884459799370423
aF-0.59203772533429655
aF0.82187085305602059
aF4.0390559750946133
aF1.2019205515690021
aF1.1236961455634202
asS'accel_x'
p11
F1.9785563496729572
sS'accel_y'
p12
F0.29208692399493441
sS'visionAngle'
p13
I150
sS'maxAccel'
p14
I2
sS'maxVel'
p15
F0.5
sS'age'
p16
I50
sS'tailSize'
p17
I0
sS'sexualgeno'
p18
NsS'tailBrigh'
p19
I0
sS'maxSteering'
p20
I30
sS'energy'
p21
F0.098256760224399775
sS'lastScale'
p22
F6.4825676022439982
sb.(i__main__
Data_mobile
p1
(dp2
S'vel_y'
p3
F0.19967992625969502
sS'vel_x'
p4
F0.45839712809846744
sS'pos_x'
p5
F-133.74125099411563
sS'pos_y'
p6
F-37.539141685175714
sS'isAlive'
p7
I01
sS'cumulativeEnergy'
p8
F17.081245061703292
sS'geno'
p9
(lp10
F-0.60092485736889645
aF-0.75833733070889975
aF1.2132540209661895
aF4.0390559750946133
aF1.2019205515690021
aF1.2682818416668149
asS'accel_x'
p11
F1.9353968444033536
sS'accel_y'
p12
F0.50422123584151102
sS'visionAngle'
p13
I150
sS'maxAccel'
p14
I2
sS'maxVel'
p15
F0.5
sS'age'
p16
I50
sS'tailSize'
p17
I0
sS'sexualgeno'
p18
NsS'tailBrigh'
p19
I0
sS'maxSteering'
p20
I30
sS'energy'
p21
F0.098256760224399775
sS'lastScale'
p22
F6.4825676022439982
sb.(i__main__
Data_mobile
p1
(dp2
S'vel_y'
p3
F0.18277258667641741
sS'vel_x'
p4
F0.46539680011750345
sS'pos_x'
p5
F-118.67151621357087
sS'pos_y'
p6
F-34.68615530474095
sS'isAlive'
p7
I01
sS'cumulativeEnergy'
p8
F17.081245061703292
sS'geno'
p9
(lp10
F-0.90779972158645528
aF-0.59203772533429655
aF0.82187085305602059
aF4.0390559750946133
aF1.2019205515690021
aF1.1236961455634202
asS'accel_x'
p11
F1.8345540554730051
sS'accel_y'
p12
F0.79649947743080751
sS'visionAngle'
p13
I150
sS'maxAccel'
p14
I2
sS'maxVel'
p15
F0.5
sS'age'
p16
I50
sS'tailSize'
p17
I0
sS'sexualgeno'
p18
NsS'tailBrigh'
p19
I0
sS'maxSteering'
p20
I30
sS'energy'
p21
F0.098256760224399775
sS'lastScale'
p22
F6.4825676022439982
sb.(i__main__
Data_mobile
p1
(dp2
S'vel_y'
p3
F-0.15286016318408716
sS'vel_x'
p4
F0.47606067944258351
sS'pos_x'
p5
F-4.6440126890616709
sS'pos_y'
p6
F-10.214393514884897
sS'isAlive'
p7
I01
sS'cumulativeEnergy'
p8
F16.231245061703291
sS'geno'
p9
(lp10
F-0.90779972158645528
aF-0.59203772533429655
aF0.82187085305602059
aF4.0390559750946133
aF0.70797249175436527
aF1.9668956098983412
asS'accel_x'
p11
F-0.0065384902298901218
sS'accel_y'
p12
F1.9999893120078203
sS'visionAngle'
p13
I150
sS'maxAccel'
p14
I2
sS'maxVel'
p15
F0.5
sS'age'
p16
I50
sS'tailSize'
p17
I0
sS'sexualgeno'
p18
NsS'tailBrigh'
p19
I0
sS'maxSteering'
p20
I30
sS'energy'
p21
F0.49825676022439952
sS'lastScale'
p22
F10.482567602243995
sb.(i__main__
Data_mobile
p1
(dp2
S'vel_y'
p3
F0.004057413700696455
sS'vel_x'
p4
F0.49998353712303517
sS'pos_x'
p5
F-109.2295895867678
sS'pos_y'
p6
F-68.006546600672735
sS'isAlive'
p7
I01
sS'cumulativeEnergy'
p8
F15.731245061703289
sS'geno'
p9
(lp10
F-1.3331656882462526
aF-0.13782220217185748
aF1.0524684023489828
aF4.345268371324603
aF0.20855770657829142
aF1.7880884268305295
asS'accel_x'
p11
F-0.42012606795970453
sS'accel_y'
p12
F0.10943449388333326
sS'visionAngle'
p13
I150
sS'maxAccel'
p14
I2
sS'maxVel'
p15
F0.5
sS'age'
p16
I50
sS'tailSize'
p17
I0
sS'sexualgeno'
p18
NsS'tailBrigh'
p19
I0
sS'maxSteering'
p20
I30
sS'energy'
p21
F0.24825676022439969
sS'lastScale'
p22
F7.9825676022439964
sb.(i__main__
Data_mobile
p1
(dp2
S'vel_y'
p3
F-0.22328884771108409
sS'vel_x'
p4
F-0.44737242928890508
sS'pos_x'
p5
F-191.12902163112935
sS'pos_y'
p6
F-95.94123482517243
sS'isAlive'
p7
I01
sS'cumulativeEnergy'
p8
F14.481245061703293
sS'geno'
p9
(lp10
F-0.90779972158645528
aF-0.59203772533429655
aF0.82187085305602059
aF4.1453355106722292
aF0.72079501191871564
aF-0.77779332648091692
asS'accel_x'
p11
F1.9626811757441678
sS'accel_y'
p12
F0.38455507067192735
sS'visionAngle'
p13
I150
sS'maxAccel'
p14
I2
sS'maxVel'
p15
F0.5
sS'age'
p16
I50
sS'tailSize'
p17
I0
sS'sexualgeno'
p18
NsS'tailBrigh'
p19
I0
sS'maxSteering'
p20
I30
sS'energy'
p21
F0.49825676022439963
sS'lastScale'
p22
F10.482567602243996
sb.(i__main__
Data_mobile
p1
(dp2
S'vel_y'
p3
F0.47360353598989768
sS'vel_x'
p4
F0.16031123072905917
sS'pos_x'
p5
F-51.641720263584276
sS'pos_y'
p6
F12.743499531984192
sS'isAlive'
p7
I01
sS'cumulativeEnergy'
p8
F13.731245061703293
sS'geno'
p9
(lp10
F-0.6991421214880581
aF-0.59203772533429655
aF1.0524684023489828
aF4.3905306593537992
aF0.35469448178499974
aF2.1556760211362076
asS'accel_x'
p11
F0.78160138549486124
sS'accel_y'
p12
F1.8409506441489716
sS'visionAngle'
p13
I150
sS'maxAccel'
p14
I2
sS'maxVel'
p15
F0.5
sS'age'
p16
I50
sS'tailSize'
p17
I0
sS'sexualgeno'
p18
NsS'tailBrigh'
p19
I0
sS'maxSteering'
p20
I30
sS'energy'
p21
F0.048256760224399661
sS'lastScale'
p22
F5.9825676022439964
sb.(i__main__
Data_mobile
p1
(dp2
S'vel_y'
p3
F0.28601450109176757
sS'vel_x'
p4
F0.41011669700857989
sS'pos_x'
p5
F-115.8064483798864
sS'pos_y'
p6
F-33.313653588373029
sS'isAlive'
p7
I01
sS'cumulativeEnergy'
p8
F12.531245061703295
sS'geno'
p9
(lp10
F-0.96978720077199521
aF-0.59203772533429655
aF0.82187085305602059
aF4.0390559750946133
aF1.2019205515690021
aF1.2682818416668149
asS'accel_x'
p11
F-0.75810475714564451
sS'accel_y'
p12
F-1.228933718537268
sS'visionAngle'
p13
I150
sS'maxAccel'
p14
I2
sS'maxVel'
p15
F0.5
sS'age'
p16
I50
sS'tailSize'
p17
I0
sS'sexualgeno'
p18
NsS'tailBrigh'
p19
I0
sS'maxSteering'
p20
I30
sS'energy'
p21
F0.1982567602243997
sS'lastScale'
p22
F7.4825676022439964
sb.(i__main__
Data_mobile
p1
(dp2
S'vel_y'
p3
F-0.16284509451231746
sS'vel_x'
p4
F0.4727382734592942
sS'pos_x'
p5
F-116.24595945778478
sS'pos_y'
p6
F-33.483971453757057
sS'isAlive'
p7
I01
sS'cumulativeEnergy'
p8
F12.281245061703295
sS'geno'
p9
(lp10
F-0.90779972158645528
aF-0.59203772533429655
aF0.82187085305602059
aF4.0390559750946133
aF1.3661580001522624
aF1.2682818416668149
asS'accel_x'
p11
F0.0045524076286177764
sS'accel_y'
p12
F-1.9999948188894849
sS'visionAngle'
p13
I150
sS'maxAccel'
p14
I2
sS'maxVel'
p15
F0.5
sS'age'
p16
I50
sS'tailSize'
p17
I0
sS'sexualgeno'
p18
NsS'tailBrigh'
p19
I0
sS'maxSteering'
p20
I30
sS'energy'
p21
F0.09825676022439972
sS'lastScale'
p22
F6.4825676022439982
sb.(i__main__
Data_mobile
p1
(dp2
S'vel_y'
p3
F0.044868820805349624
sS'vel_x'
p4
F0.49798271949891737
sS'pos_x'
p5
F-14.584816666374376
sS'pos_y'
p6
F95.096199096212629
sS'isAlive'
p7
I01
sS'cumulativeEnergy'
p8
F12.231245061703294
sS'geno'
p9
(lp10
F-1.091216080601376
aF-0.59203772533429655
aF1.2132540209661895
aF4.3324737430668963
aF1.0196001324795749
aF1.9668956098983412
asS'accel_x'
p11
F0.28083600299241862
sS'accel_y'
p12
F0.55132705412009186
sS'visionAngle'
p13
I150
sS'maxAccel'
p14
I2
sS'maxVel'
p15
F0.5
sS'age'
p16
I50
sS'tailSize'
p17
I0
sS'sexualgeno'
p18
NsS'tailBrigh'
p19
I0
sS'maxSteering'
p20
I30
sS'energy'
p21
I0
sS'lastScale'
p22
F5.5
sb.(i__main__
Data_mobile
p1
(dp2
S'vel_y'
p3
F0.37284195197560571
sS'vel_x'
p4
F0.33314993448449021
sS'pos_x'
p5
F-8.4284541100855481
sS'pos_y'
p6
F52.825759090658543
sS'isAlive'
p7
I01
sS'cumulativeEnergy'
p8
F12.231245061703294
sS'geno'
p9
(lp10
F-0.90779972158645528
aF-0.51020731713597423
aF0.98403981141394592
aF3.9158665482013708
aF0.40715193972245811
aF1.7335828706146701
asS'accel_x'
p11
F0.6134132373040041
sS'accel_y'
p12
F1.6214295450585638
sS'visionAngle'
p13
I150
sS'maxAccel'
p14
I2
sS'maxVel'
p15
F0.5
sS'age'
p16
I50
sS'tailSize'
p17
I0
sS'sexualgeno'
p18
NsS'tailBrigh'
p19
I0
sS'maxSteering'
p20
I30
sS'energy'
p21
I0
sS'lastScale'
p22
F5.5
sb.(i__main__
Data_mobile
p1
(dp2
S'vel_y'
p3
F0.40364833436217917
sS'vel_x'
p4
F-0.29507290991658053
sS'pos_x'
p5
F71.291136734110481
sS'pos_y'
p6
F86.20291120099165
sS'isAlive'
p7
I01
sS'cumulativeEnergy'
p8
F12.231245061703294
sS'geno'
p9
(lp10
F-1.091216080601376
aF-0.59203772533429655
aF1.0524684023489828
aF4.345268371324603
aF0.18795222929519673
aF1.7880884268305295
asS'accel_x'
p11
F-1.4346874864409054
sS'accel_y'
p12
F1.3934388455364219
sS'visionAngle'
p13
I150
sS'maxAccel'
p14
I2
sS'maxVel'
p15
F0.5
sS'age'
p16
I50
sS'tailSize'
p17
I0
sS'sexualgeno'
p18
NsS'tailBrigh'
p19
I0
sS'maxSteering'
p20
I30
sS'energy'
p21
F0.050000000000000003
sS'lastScale'
p22
F6
sb.(i__main__
Data_mobile
p1
(dp2
S'vel_y'
p3
F0.17048558125967125
sS'vel_x'
p4
F0.47003687789635407
sS'pos_x'
p5
F-74.555276968032402
sS'pos_y'
p6
F51.950593211142873
sS'isAlive'
p7
I01
sS'cumulativeEnergy'
p8
F12.231245061703294
sS'geno'
p9
(lp10
F-0.46660202863540712
aF-0.96440835905225364
aF1.2932667918472225
aF4.0908604213852895
aF0.20855770657829142
aF1.7880884268305295
asS'accel_x'
p11
F1.9948912939025005
sS'accel_y'
p12
F-0.14285911070703952
sS'visionAngle'
p13
I150
sS'maxAccel'
p14
I2
sS'maxVel'
p15
F0.5
sS'age'
p16
I50
sS'tailSize'
p17
I0
sS'sexualgeno'
p18
NsS'tailBrigh'
p19
I0
sS'maxSteering'
p20
I30
sS'energy'
p21
F0.050000000000000003
sS'lastScale'
p22
F6
sb.(i__main__
Data_mobile
p1
(dp2
S'vel_y'
p3
F0.051909264957731141
sS'vel_x'
p4
F0.49314595917120352
sS'pos_x'
p5
F-19.832398312763097
sS'pos_y'
p6
F104.39703950311562
sS'isAlive'
p7
I01
sS'cumulativeEnergy'
p8
F0.5
sS'geno'
p9
(lp10
F-1.091216080601376
aF-0.14808030599680422
aF0.93059780591907781
aF4.3324737430668963
aF1.3848895856013679
aF1.9668956098983412
asS'accel_x'
p11
F0
sS'accel_y'
p12
F0
sS'visionAngle'
p13
I150
sS'maxAccel'
p14
I2
sS'maxVel'
p15
F0.5
sS'age'
p16
I0
sS'tailSize'
p17
I0
sS'sexualgeno'
p18
NsS'tailBrigh'
p19
I0
sS'maxSteering'
p20
I30
sS'energy'
p21
F0.5
sS'lastScale'
p22
F5.5
sb.(i__main__
Data_mobile
p1
(dp2
S'vel_y'
p3
F0.37613813206570318
sS'vel_x'
p4
F0.32919975546642632
sS'pos_x'
p5
F-3.7029383149822195
sS'pos_y'
p6
F44.350304926127585
sS'isAlive'
p7
I01
sS'cumulativeEnergy'
p8
F0.5
sS'geno'
p9
(lp10
F-1.3331656882462526
aF-0.59203772533429655
aF1.0524684023489828
aF4.345268371324603
aF0.20855770657829142
aF1.7880884268305295
asS'accel_x'
p11
F0
sS'accel_y'
p12
F0
sS'visionAngle'
p13
I150
sS'maxAccel'
p14
I2
sS'maxVel'
p15
F0.5
sS'age'
p16
I0
sS'tailSize'
p17
I0
sS'sexualgeno'
p18
NsS'tailBrigh'
p19
I0
sS'maxSteering'
p20
I30
sS'energy'
p21
F0.5
sS'lastScale'
p22
F5.5
sb.(i__main__
Data_mobile
p1
(dp2
S'vel_y'
p3
F-0.17074820455402728
sS'vel_x'
p4
F-0.13830497667150771
sS'pos_x'
p5
F-106.73149648914065
sS'pos_y'
p6
F-35.196055479826974
sS'isAlive'
p7
I01
sS'cumulativeEnergy'
p8
F0.5
sS'geno'
p9
(lp10
F-1.091216080601376
aF-1.0342445541101442
aF1.2132540209661895
aF4.3324737430668963
aF0.72560076239982096
aF1.9668956098983412
asS'accel_x'
p11
F0
sS'accel_y'
p12
F0
sS'visionAngle'
p13
I150
sS'maxAccel'
p14
I2
sS'maxVel'
p15
F0.5
sS'age'
p16
I0
sS'tailSize'
p17
I0
sS'sexualgeno'
p18
NsS'tailBrigh'
p19
I0
sS'maxSteering'
p20
I30
sS'energy'
p21
F0.5
sS'lastScale'
p22
F5.5
sb.(i__main__
Data_mobile
p1
(dp2
S'vel_y'
p3
F-0.49422054781451336
sS'vel_x'
p4
F-0.046270809666448698
sS'pos_x'
p5
F-17.477777753605867
sS'pos_y'
p6
F23.22707980407468
sS'isAlive'
p7
I01
sS'cumulativeEnergy'
p8
F0.5
sS'geno'
p9
(lp10
F-1.091216080601376
aF-1.0482452697965754
aF1.2132540209661895
aF4.0404957894666396
aF1.0196001324795749
aF1.9668956098983412
asS'accel_x'
p11
F0
sS'accel_y'
p12
F0
sS'visionAngle'
p13
I150
sS'maxAccel'
p14
I2
sS'maxVel'
p15
F0.5
sS'age'
p16
I0
sS'tailSize'
p17
I0
sS'sexualgeno'
p18
NsS'tailBrigh'
p19
I0
sS'maxSteering'
p20
I30
sS'energy'
p21
F0.5
sS'lastScale'
p22
F5.5
sb.(i__main__
Data_mobile
p1
(dp2
S'vel_y'
p3
F-0.1697110719537511
sS'vel_x'
p4
F0.32112172793064697
sS'pos_x'
p5
F-114.21237927837072
sS'pos_y'
p6
F-30.036348629843364
sS'isAlive'
p7
I01
sS'cumulativeEnergy'
p8
F0.5
sS'geno'
p9
(lp10
F-1.091216080601376
aF-1.5005598215397211
aF1.2132540209661895
aF4.0390559750946133
aF1.2019205515690021
aF1.2682818416668149
asS'accel_x'
p11
F0
sS'accel_y'
p12
F0
sS'visionAngle'
p13
I150
sS'maxAccel'
p14
I2
sS'maxVel'
p15
F0.5
sS'age'
p16
I0
sS'tailSize'
p17
I0
sS'sexualgeno'
p18
NsS'tailBrigh'
p19
I0
sS'maxSteering'
p20
I30
sS'energy'
p21
F0.5
sS'lastScale'
p22
F5.5
sb.(i__main__
Data_mobile
p1
(dp2
S'vel_y'
p3
F0.34219679419037691
sS'vel_x'
p4
F-0.030509668604189851
sS'pos_x'
p5
F-104.43058835191187
sS'pos_y'
p6
F-17.954707864080902
sS'isAlive'
p7
I01
sS'cumulativeEnergy'
p8
F0.5
sS'geno'
p9
(lp10
F-0.96978720077199521
aF-0.59203772533429655
aF0.82187085305602059
aF4.3324737430668963
aF0.72079501191871564
aF-0.77779332648091692
asS'accel_x'
p11
F0
sS'accel_y'
p12
F0
sS'visionAngle'
p13
I150
sS'maxAccel'
p14
I2
sS'maxVel'
p15
F0.5
sS'age'
p16
I0
sS'tailSize'
p17
I0
sS'sexualgeno'
p18
NsS'tailBrigh'
p19
I0
sS'maxSteering'
p20
I30
sS'energy'
p21
F0.5
sS'lastScale'
p22
F5.5
sb.(i__main__
Data_mobile
p1
(dp2
S'vel_y'
p3
F-0.27286460131583501
sS'vel_x'
p4
F-0.13166438307726297
sS'pos_x'
p5
F-108.27259145867779
sS'pos_y'
p6
F-17.044024032409819
sS'isAlive'
p7
I01
sS'cumulativeEnergy'
p8
F0.5
sS'geno'
p9
(lp10
F-0.96978720077199521
aF-0.72516487645736871
aF0.95749863151135917
aF4.3324737430668963
aF0.57525222047870739
aF1.9668956098983412
asS'accel_x'
p11
F0
sS'accel_y'
p12
F0
sS'visionAngle'
p13
I150
sS'maxAccel'
p14
I2
sS'maxVel'
p15
F0.5
sS'age'
p16
I0
sS'tailSize'
p17
I0
sS'sexualgeno'
p18
NsS'tailBrigh'
p19
I0
sS'maxSteering'
p20
I30
sS'energy'
p21
F0.5
sS'lastScale'
p22
F5.5
sb.(i__main__
Data_mobile
p1
(dp2
S'vel_y'
p3
F-0.34523899477990411
sS'vel_x'
p4
F-0.1578137827511871
sS'pos_x'
p5
F-112.53678879288486
sS'pos_y'
p6
F-26.112689575496024
sS'isAlive'
p7
I01
sS'cumulativeEnergy'
p8
F0.5
sS'geno'
p9
(lp10
F-0.96978720077199521
aF-0.59203772533429655
aF0.82187085305602059
aF4.0807326759186946
aF0.72079501191871564
aF-0.43556832197998951
asS'accel_x'
p11
F0
sS'accel_y'
p12
F0
sS'visionAngle'
p13
I150
sS'maxAccel'
p14
I2
sS'maxVel'
p15
F0.5
sS'age'
p16
I0
sS'tailSize'
p17
I0
sS'sexualgeno'
p18
NsS'tailBrigh'
p19
I0
sS'maxSteering'
p20
I30
sS'energy'
p21
F0.5
sS'lastScale'
p22
F5.5
sb.(i__main__
Data_mobile
p1
(dp2
S'vel_y'
p3
F-0.24457259539938003
sS'vel_x'
p4
F-0.12302914994547698
sS'pos_x'
p5
F-131.56495208250109
sS'pos_y'
p6
F-82.289467361974232
sS'isAlive'
p7
I01
sS'cumulativeEnergy'
p8
F0.5
sS'geno'
p9
(lp10
F-1.091216080601376
aF-0.14808030599680422
aF1.0279113270681322
aF4.1453355106722292
aF0.72079501191871564
aF-0.99547251008166515
asS'accel_x'
p11
F0
sS'accel_y'
p12
F0
sS'visionAngle'
p13
I150
sS'maxAccel'
p14
I2
sS'maxVel'
p15
F0.5
sS'age'
p16
I0
sS'tailSize'
p17
I0
sS'sexualgeno'
p18
NsS'tailBrigh'
p19
I0
sS'maxSteering'
p20
I30
sS'energy'
p21
F0.5
sS'lastScale'
p22
F5.5
sb.(i__main__
Data_mobile
p1
(dp2
S'vel_y'
p3
F-0.012008730389815236
sS'vel_x'
p4
F0.49902296823815678
sS'pos_x'
p5
F-85.739868628915005
sS'pos_y'
p6
F7.9320285980539644
sS'isAlive'
p7
I01
sS'cumulativeEnergy'
p8
F0.5
sS'geno'
p9
(lp10
F-1.091216080601376
aF-0.94791071976545571
aF0.82187085305602059
aF3.9291260919097111
aF1.2019205515690021
aF1.2682818416668149
asS'accel_x'
p11
F0
sS'accel_y'
p12
F0
sS'visionAngle'
p13
I150
sS'maxAccel'
p14
I2
sS'maxVel'
p15
F0.5
sS'age'
p16
I0
sS'tailSize'
p17
I0
sS'sexualgeno'
p18
NsS'tailBrigh'
p19
I0
sS'maxSteering'
p20
I30
sS'energy'
p21
F0.5
sS'lastScale'
p22
F5.5
sb.(i__main__
Data_mobile
p1
(dp2
S'vel_y'
p3
F0.40180648730707197
sS'vel_x'
p4
F0.2313850418717685
sS'pos_x'
p5
F157.04390120746021
sS'pos_y'
p6
F80.426634528118143
sS'isAlive'
p7
I01
sS'cumulativeEnergy'
p8
F0.5
sS'geno'
p9
(lp10
F-0.80514210379278295
aF-0.34037217226179772
aF1.0477815571752029
aF4.1453355106722292
aF0.72079501191871564
aF-0.77779332648091692
asS'accel_x'
p11
F0
sS'accel_y'
p12
F0
sS'visionAngle'
p13
I150
sS'maxAccel'
p14
I2
sS'maxVel'
p15
F0.5
sS'age'
p16
I0
sS'tailSize'
p17
I0
sS'sexualgeno'
p18
NsS'tailBrigh'
p19
I0
sS'maxSteering'
p20
I30
sS'energy'
p21
F0.5
sS'lastScale'
p22
F5.5
sb.(i__main__
Data_mobile
p1
(dp2
S'vel_y'
p3
F0.33381084243206927
sS'vel_x'
p4
F0.35692940183290556
sS'pos_x'
p5
F80.020078357074951
sS'pos_y'
p6
F71.578141034993138
sS'isAlive'
p7
I01
sS'cumulativeEnergy'
p8
F0.5
sS'geno'
p9
(lp10
F-0.96978720077199521
aF-0.75833733070889975
aF1.2132540209661895
aF4.3324737430668963
aF1.3848895856013679
aF1.9668956098983412
asS'accel_x'
p11
F0
sS'accel_y'
p12
F0
sS'visionAngle'
p13
I150
sS'maxAccel'
p14
I2
sS'maxVel'
p15
F0.5
sS'age'
p16
I0
sS'tailSize'
p17
I0
sS'sexualgeno'
p18
NsS'tailBrigh'
p19
I0
sS'maxSteering'
p20
I30
sS'energy'
p21
F0.5
sS'lastScale'
p22
F5.5
sb.(i__main__
Data_mobile
p1
(dp2
S'vel_y'
p3
F-0.019995656305971363
sS'vel_x'
p4
F0.4984848472086395
sS'pos_x'
p5
F-73.479857454548409
sS'pos_y'
p6
F24.575091766015326
sS'isAlive'
p7
I01
sS'cumulativeEnergy'
p8
F0.5
sS'geno'
p9
(lp10
F-1.0938778691912601
aF-0.14808030599680422
aF1.0279113270681322
aF4.3324737430668963
aF1.0585144251424374
aF1.9668956098983412
asS'accel_x'
p11
F0
sS'accel_y'
p12
F0
sS'visionAngle'
p13
I150
sS'maxAccel'
p14
I2
sS'maxVel'
p15
F0.5
sS'age'
p16
I0
sS'tailSize'
p17
I0
sS'sexualgeno'
p18
NsS'tailBrigh'
p19
I0
sS'maxSteering'
p20
I30
sS'energy'
p21
F0.5
sS'lastScale'
p22
F5.5
sb.(i__main__
Data_mobile
p1
(dp2
S'vel_y'
p3
F-0.16292794958481197
sS'vel_x'
p4
F0.16518400164749297
sS'pos_x'
p5
F-42.145933423717338
sS'pos_y'
p6
F60.532030688313426
sS'isAlive'
p7
I01
sS'cumulativeEnergy'
p8
F0.5
sS'geno'
p9
(lp10
F-0.96978720077199521
aF-0.59203772533429655
aF0.82187085305602059
aF4.3324737430668963
aF1.3848895856013679
aF1.9668956098983412
asS'accel_x'
p11
F0
sS'accel_y'
p12
F0
sS'visionAngle'
p13
I150
sS'maxAccel'
p14
I2
sS'maxVel'
p15
F0.5
sS'age'
p16
I0
sS'tailSize'
p17
I0
sS'sexualgeno'
p18
NsS'tailBrigh'
p19
I0
sS'maxSteering'
p20
I30
sS'energy'
p21
F0.5
sS'lastScale'
p22
F5.5
sb.(i__main__
Data_mobile
p1
(dp2
S'vel_y'
p3
F-0.38685621258956659
sS'vel_x'
p4
F-0.31436442587938673
sS'pos_x'
p5
F-155.04926846389276
sS'pos_y'
p6
F-99.661508311000333
sS'isAlive'
p7
I01
sS'cumulativeEnergy'
p8
F0.5
sS'geno'
p9
(lp10
F-0.96978720077199521
aF-0.59203772533429655
aF0.82187085305602059
aF4.1453355106722292
aF0.72079501191871564
aF-0.77779332648091692
asS'accel_x'
p11
F0
sS'accel_y'
p12
F0
sS'visionAngle'
p13
I150
sS'maxAccel'
p14
I2
sS'maxVel'
p15
F0.5
sS'age'
p16
I0
sS'tailSize'
p17
I0
sS'sexualgeno'
p18
NsS'tailBrigh'
p19
I0
sS'maxSteering'
p20
I30
sS'energy'
p21
F0.5
sS'lastScale'
p22
F5.5
sb.(i__main__
Data_mobile
p1
(dp2
S'vel_y'
p3
F0.24112271101571042
sS'vel_x'
p4
F0.41874631873300905
sS'pos_x'
p5
F-24.571640626088453
sS'pos_y'
p6
F-21.704735230490627
sS'isAlive'
p7
I01
sS'cumulativeEnergy'
p8
F0.5
sS'geno'
p9
(lp10
F-0.96978720077199521
aF-0.59203772533429655
aF1.0524684023489828
aF4.3905306593537992
aF0.65592783863779969
aF2.5424151507791652
asS'accel_x'
p11
F0
sS'accel_y'
p12
F0
sS'visionAngle'
p13
I150
sS'maxAccel'
p14
I2
sS'maxVel'
p15
F0.5
sS'age'
p16
I0
sS'tailSize'
p17
I0
sS'sexualgeno'
p18
NsS'tailBrigh'
p19
I0
sS'maxSteering'
p20
I30
sS'energy'
p21
F0.5
sS'lastScale'
p22
F5.5
sb.(i__main__
Data_mobile
p1
(dp2
S'vel_y'
p3
F0.2993013011371719
sS'vel_x'
p4
F-0.37909173020891057
sS'pos_x'
p5
F-48.757747345462882
sS'pos_y'
p6
F2.0789953885164856
sS'isAlive'
p7
I01
sS'cumulativeEnergy'
p8
F0.5
sS'geno'
p9
(lp10
F-1.3331656882462526
aF0.95733636369027353
aF0.82187085305602059
aF4.3324737430668963
aF1.2019205515690021
aF1.2682818416668149
asS'accel_x'
p11
F0
sS'accel_y'
p12
F0
sS'visionAngle'
p13
I150
sS'maxAccel'
p14
I2
sS'maxVel'
p15
F0.5
sS'age'
p16
I0
sS'tailSize'
p17
I0
sS'sexualgeno'
p18
NsS'tailBrigh'
p19
I0
sS'maxSteering'
p20
I30
sS'energy'
p21
F0.5
sS'lastScale'
p22
F5.5
sb.(i__main__
Data_mobile
p1
(dp2
S'vel_y'
p3
F0.014718485877407594
sS'vel_x'
p4
F0.49376084846885815
sS'pos_x'
p5
F-19.23984140737706
sS'pos_y'
p6
F104.39389312744947
sS'isAlive'
p7
I01
sS'cumulativeEnergy'
p8
F0.5
sS'geno'
p9
(lp10
F-1.091216080601376
aF-0.59203772533429655
aF1.1076803104535642
aF4.3324737430668963
aF1.3848895856013679
aF1.9668956098983412
asS'accel_x'
p11
F0
sS'accel_y'
p12
F0
sS'visionAngle'
p13
I150
sS'maxAccel'
p14
I2
sS'maxVel'
p15
F0.5
sS'age'
p16
I0
sS'tailSize'
p17
I0
sS'sexualgeno'
p18
NsS'tailBrigh'
p19
I0
sS'maxSteering'
p20
I30
sS'energy'
p21
F0.5
sS'lastScale'
p22
F5.5
sb.(i__main__
Data_mobile
p1
(dp2
S'vel_y'
p3
F0.28940826328477554
sS'vel_x'
p4
F-0.3497990822452528
sS'pos_x'
p5
F-88.704636614733161
sS'pos_y'
p6
F-19.146838011625881
sS'isAlive'
p7
I01
sS'cumulativeEnergy'
p8
F0.5
sS'geno'
p9
(lp10
F-0.69380945444272402
aF-0.59203772533429655
aF0.82187085305602059
aF4.0390559750946133
aF0.70797249175436527
aF-0.37544446222244743
asS'accel_x'
p11
F0
sS'accel_y'
p12
F0
sS'visionAngle'
p13
I150
sS'maxAccel'
p14
I2
sS'maxVel'
p15
F0.5
sS'age'
p16
I0
sS'tailSize'
p17
I0
sS'sexualgeno'
p18
NsS'tailBrigh'
p19
I0
sS'maxSteering'
p20
I30
sS'energy'
p21
F0.5
sS'lastScale'
p22
F5.5
sb.(i__main__
Data_mobile
p1
(dp2
S'vel_y'
p3
F-0.11746962411534564
sS'vel_x'
p4
F-0.34881852961498666
sS'pos_x'
p5
F-62.69463122362022
sS'pos_y'
p6
F36.495863626320883
sS'isAlive'
p7
I01
sS'cumulativeEnergy'
p8
F0.5
sS'geno'
p9
(lp10
F-0.90779972158645528
aF-0.59203772533429655
aF1.2132540209661895
aF4.3324737430668963
aF1.0159387961218296
aF1.9668956098983412
asS'accel_x'
p11
F0
sS'accel_y'
p12
F0
sS'visionAngle'
p13
I150
sS'maxAccel'
p14
I2
sS'maxVel'
p15
F0.5
sS'age'
p16
I0
sS'tailSize'
p17
I0
sS'sexualgeno'
p18
NsS'tailBrigh'
p19
I0
sS'maxSteering'
p20
I30
sS'energy'
p21
F0.5
sS'lastScale'
p22
F5.5
sb.(i__main__
Data_mobile
p1
(dp2
S'vel_y'
p3
F0.30611177329727257
sS'vel_x'
p4
F0.38192256152700477
sS'pos_x'
p5
F42.288289984465621
sS'pos_y'
p6
F54.926767765947439
sS'isAlive'
p7
I01
sS'cumulativeEnergy'
p8
F0.5
sS'geno'
p9
(lp10
F-0.77878802109005285
aF-0.59203772533429655
aF1.0524684023489828
aF4.3905306593537992
aF0.65592783863779969
aF2.4466937195044602
asS'accel_x'
p11
F0
sS'accel_y'
p12
F0
sS'visionAngle'
p13
I150
sS'maxAccel'
p14
I2
sS'maxVel'
p15
F0.5
sS'age'
p16
I0
sS'tailSize'
p17
I0
sS'sexualgeno'
p18
NsS'tailBrigh'
p19
I0
sS'maxSteering'
p20
I30
sS'energy'
p21
F0.5
sS'lastScale'
p22
F5.5
sb.(i__main__
Data_mobile
p1
(dp2
S'vel_y'
p3
F-0.0055349983256453017
sS'vel_x'
p4
F0.47918451073045959
sS'pos_x'
p5
F78.183228363989429
sS'pos_y'
p6
F54.917701566514722
sS'isAlive'
p7
I01
sS'cumulativeEnergy'
p8
F0.5
sS'geno'
p9
(lp10
F-0.96978720077199521
aF-0.59203772533429655
aF1.0524684023489828
aF4.3391734711356662
aF0.72079501191871564
aF-1.2738774606906262
asS'accel_x'
p11
F0
sS'accel_y'
p12
F0
sS'visionAngle'
p13
I150
sS'maxAccel'
p14
I2
sS'maxVel'
p15
F0.5
sS'age'
p16
I0
sS'tailSize'
p17
I0
sS'sexualgeno'
p18
NsS'tailBrigh'
p19
I0
sS'maxSteering'
p20
I30
sS'energy'
p21
F0.5
sS'lastScale'
p22
F5.5
sb.(i__main__
Data_mobile
p1
(dp2
S'vel_y'
p3
F-0.19074064424313236
sS'vel_x'
p4
F0.42531301803503774
sS'pos_x'
p5
F-112.69055750533204
sS'pos_y'
p6
F-54.085125764579246
sS'isAlive'
p7
I01
sS'cumulativeEnergy'
p8
F0.5
sS'geno'
p9
(lp10
F-0.96978720077199521
aF-0.59203772533429655
aF0.82187085305602059
aF4.5774544932828753
aF1.2019205515690021
aF1.2682818416668149
asS'accel_x'
p11
F0
sS'accel_y'
p12
F0
sS'visionAngle'
p13
I150
sS'maxAccel'
p14
I2
sS'maxVel'
p15
F0.5
sS'age'
p16
I0
sS'tailSize'
p17
I0
sS'sexualgeno'
p18
NsS'tailBrigh'
p19
I0
sS'maxSteering'
p20
I30
sS'energy'
p21
F0.5
sS'lastScale'
p22
F5.5
sb.(i__main__
Data_mobile
p1
(dp2
S'vel_y'
p3
F-0.26999878299801633
sS'vel_x'
p4
F0.39466753525988679
sS'pos_x'
p5
F-113.35205426119217
sS'pos_y'
p6
F-50.69093715373625
sS'isAlive'
p7
I01
sS'cumulativeEnergy'
p8
F0.5
sS'geno'
p9
(lp10
F-0.69380945444272402
aF-0.59203772533429655
aF0.82187085305602059
aF3.9661340042053004
aF0.72079501191871564
aF-0.6967931658830816
asS'accel_x'
p11
F0
sS'accel_y'
p12
F0
sS'visionAngle'
p13
I150
sS'maxAccel'
p14
I2
sS'maxVel'
p15
F0.5
sS'age'
p16
I0
sS'tailSize'
p17
I0
sS'sexualgeno'
p18
NsS'tailBrigh'
p19
I0
sS'maxSteering'
p20
I30
sS'energy'
p21
F0.5
sS'lastScale'
p22
F5.5
sb.(i__main__
Data_mobile
p1
(dp2
S'vel_y'
p3
F-0.28783879643847965
sS'vel_x'
p4
F0.4010728535116988
sS'pos_x'
p5
F6.9001001686391419
sS'pos_y'
p6
F31.489733179365391
sS'isAlive'
p7
I01
sS'cumulativeEnergy'
p8
F0.5
sS'geno'
p9
(lp10
F-1.091216080601376
aF-0.59203772533429655
aF1.0524684023489828
aF4.4051331136941876
aF0.65592783863779969
aF-0.6967931658830816
asS'accel_x'
p11
F0
sS'accel_y'
p12
F0
sS'visionAngle'
p13
I150
sS'maxAccel'
p14
I2
sS'maxVel'
p15
F0.5
sS'age'
p16
I0
sS'tailSize'
p17
I0
sS'sexualgeno'
p18
NsS'tailBrigh'
p19
I0
sS'maxSteering'
p20
I30
sS'energy'
p21
F0.5
sS'lastScale'
p22
F5.5
sb.(i__main__
Data_mobile
p1
(dp2
S'vel_y'
p3
F-0.029881310996790894
sS'vel_x'
p4
F-0.20890840125024157
sS'pos_x'
p5
F-60.387468834510038
sS'pos_y'
p6
F36.263524370716397
sS'isAlive'
p7
I01
sS'cumulativeEnergy'
p8
F0.5
sS'geno'
p9
(lp10
F-1.091216080601376
aF-0.59203772533429655
aF1.2971124019281155
aF4.0390559750946133
aF1.2019205515690021
aF2.2711451384897461
asS'accel_x'
p11
F0
sS'accel_y'
p12
F0
sS'visionAngle'
p13
I150
sS'maxAccel'
p14
I2
sS'maxVel'
p15
F0.5
sS'age'
p16
I0
sS'tailSize'
p17
I0
sS'sexualgeno'
p18
NsS'tailBrigh'
p19
I0
sS'maxSteering'
p20
I30
sS'energy'
p21
F0.5
sS'lastScale'
p22
F5.5
sb.(i__main__
Data_mobile
p1
(dp2
S'vel_y'
p3
F0.099086612223331372
sS'vel_x'
p4
F0.46654041784364381
sS'pos_x'
p5
F68.508489584269697
sS'pos_y'
p6
F51.712324104309545
sS'isAlive'
p7
I01
sS'cumulativeEnergy'
p8
F0.5
sS'geno'
p9
(lp10
F-0.88783210712940241
aF-0.59203772533429655
aF0.82187085305602059
aF4.3905306593537992
aF0.65592783863779969
aF2.4584619729367718
asS'accel_x'
p11
F0
sS'accel_y'
p12
F0
sS'visionAngle'
p13
I150
sS'maxAccel'
p14
I2
sS'maxVel'
p15
F0.5
sS'age'
p16
I0
sS'tailSize'
p17
I0
sS'sexualgeno'
p18
NsS'tailBrigh'
p19
I0
sS'maxSteering'
p20
I30
sS'energy'
p21
F0.5
sS'lastScale'
p22
F5.5
sb.(i__main__
Data_mobile
p1
(dp2
S'vel_y'
p3
F-0.45607717857837532
sS'vel_x'
p4
F0.023517188707588808
sS'pos_x'
p5
F-115.18462605810531
sS'pos_y'
p6
F-31.633260538529299
sS'isAlive'
p7
I01
sS'cumulativeEnergy'
p8
F0.5
sS'geno'
p9
(lp10
F-0.69380945444272402
aF-0.59203772533429655
aF0.82187085305602059
aF4.0404957894666396
aF0.20855770657829142
aF1.7880884268305295
asS'accel_x'
p11
F0
sS'accel_y'
p12
F0
sS'visionAngle'
p13
I150
sS'maxAccel'
p14
I2
sS'maxVel'
p15
F0.5
sS'age'
p16
I0
sS'tailSize'
p17
I0
sS'sexualgeno'
p18
NsS'tailBrigh'
p19
I0
sS'maxSteering'
p20
I30
sS'energy'
p21
F0.5
sS'lastScale'
p22
F5.5
sb.(i__main__
Data_mobile
p1
(dp2
S'vel_y'
p3
F0.26144966628686989
sS'vel_x'
p4
F0.41386490970759449
sS'pos_x'
p5
F131.35961651862434
sS'pos_y'
p6
F78.247928947287392
sS'isAlive'
p7
I01
sS'cumulativeEnergy'
p8
F0.5
sS'geno'
p9
(lp10
F-0.60092485736889645
aF-0.59203772533429655
aF1.0524684023489828
aF4.3905306593537992
aF0.65592783863779969
aF1.9018917877287349
asS'accel_x'
p11
F0
sS'accel_y'
p12
F0
sS'visionAngle'
p13
I150
sS'maxAccel'
p14
I2
sS'maxVel'
p15
F0.5
sS'age'
p16
I0
sS'tailSize'
p17
I0
sS'sexualgeno'
p18
NsS'tailBrigh'
p19
I0
sS'maxSteering'
p20
I30
sS'energy'
p21
F0.5
sS'lastScale'
p22
F5.5
sb.(i__main__
Data_mobile
p1
(dp2
S'vel_y'
p3
F-0.40161137196036245
sS'vel_x'
p4
F-0.29616199705945528
sS'pos_x'
p5
F-98.231646798846469
sS'pos_y'
p6
F-53.783000238436031
sS'isAlive'
p7
I01
sS'cumulativeEnergy'
p8
F0.5
sS'geno'
p9
(lp10
F-0.96978720077199521
aF-1.0482452697965754
aF1.2132540209661895
aF4.0404957894666396
aF1.0196001324795749
aF1.9668956098983412
asS'accel_x'
p11
F0
sS'accel_y'
p12
F0
sS'visionAngle'
p13
I150
sS'maxAccel'
p14
I2
sS'maxVel'
p15
F0.5
sS'age'
p16
I0
sS'tailSize'
p17
I0
sS'sexualgeno'
p18
NsS'tailBrigh'
p19
I0
sS'maxSteering'
p20
I30
sS'energy'
p21
F0.5
sS'lastScale'
p22
F5.5
sb.(i__main__
Data_mobile
p1
(dp2
S'vel_y'
p3
F-0.37663205376476994
sS'vel_x'
p4
F-0.32504538415102124
sS'pos_x'
p5
F-92.782531613188382
sS'pos_y'
p6
F-44.97128101851353
sS'isAlive'
p7
I01
sS'cumulativeEnergy'
p8
F0.5
sS'geno'
p9
(lp10
F-1.091216080601376
aF-0.5855628143201006
aF0.82187085305602059
aF4.3324737430668963
aF0.70797249175436527
aF-0.77779332648091692
asS'accel_x'
p11
F0
sS'accel_y'
p12
F0
sS'visionAngle'
p13
I150
sS'maxAccel'
p14
I2
sS'maxVel'
p15
F0.5
sS'age'
p16
I0
sS'tailSize'
p17
I0
sS'sexualgeno'
p18
NsS'tailBrigh'
p19
I0
sS'maxSteering'
p20
I30
sS'energy'
p21
F0.5
sS'lastScale'
p22
F5.5
sb.(i__main__
Data_mobile
p1
(dp2
S'vel_y'
p3
F-0.41932835972735899
sS'vel_x'
p4
F-0.26494871913363494
sS'pos_x'
p5
F-36.49068197549969
sS'pos_y'
p6
F-3.5682547571452261
sS'isAlive'
p7
I01
sS'cumulativeEnergy'
p8
F0.5
sS'geno'
p9
(lp10
F-1.091216080601376
aF-0.59203772533429655
aF0.82187085305602059
aF4.1453355106722292
aF0.72079501191871564
aF-0.77779332648091692
asS'accel_x'
p11
F0
sS'accel_y'
p12
F0
sS'visionAngle'
p13
I150
sS'maxAccel'
p14
I2
sS'maxVel'
p15
F0.5
sS'age'
p16
I0
sS'tailSize'
p17
I0
sS'sexualgeno'
p18
NsS'tailBrigh'
p19
I0
sS'maxSteering'
p20
I30
sS'energy'
p21
F0.5
sS'lastScale'
p22
F5.5
sb.(i__main__
Data_mobile
p1
(dp2
S'vel_y'
p3
F-0.29606481897067205
sS'vel_x'
p4
F0.39571683294330984
sS'pos_x'
p5
F-7.3821208944034353
sS'pos_y'
p6
F19.245618228046922
sS'isAlive'
p7
I01
sS'cumulativeEnergy'
p8
F0.5
sS'geno'
p9
(lp10
F-0.96978720077199521
aF-0.59203772533429655
aF0.82187085305602059
aF4.1453355106722292
aF0.72079501191871564
aF2.1556760211362076
asS'accel_x'
p11
F0
sS'accel_y'
p12
F0
sS'visionAngle'
p13
I150
sS'maxAccel'
p14
I2
sS'maxVel'
p15
F0.5
sS'age'
p16
I0
sS'tailSize'
p17
I0
sS'sexualgeno'
p18
NsS'tailBrigh'
p19
I0
sS'maxSteering'
p20
I30
sS'energy'
p21
F0.5
sS'lastScale'
p22
F5.5
sb.(i__main__
Data_mobile
p1
(dp2
S'vel_y'
p3
F-0.47384443644372098
sS'vel_x'
p4
F-0.14076275928998638
sS'pos_x'
p5
F-89.88598301403114
sS'pos_y'
p6
F1.1536263979226318
sS'isAlive'
p7
I01
sS'cumulativeEnergy'
p8
F0.5
sS'geno'
p9
(lp10
F-1.091216080601376
aF-1.5005598215397211
aF1.2132540209661895
aF4.0404957894666396
aF0.20855770657829142
aF1.7880884268305295
asS'accel_x'
p11
F0
sS'accel_y'
p12
F0
sS'visionAngle'
p13
I150
sS'maxAccel'
p14
I2
sS'maxVel'
p15
F0.5
sS'age'
p16
I0
sS'tailSize'
p17
I0
sS'sexualgeno'
p18
NsS'tailBrigh'
p19
I0
sS'maxSteering'
p20
I30
sS'energy'
p21
F0.5
sS'lastScale'
p22
F5.5
sb.(i__main__
Data_mobile
p1
(dp2
S'vel_y'
p3
I0
sS'vel_x'
p4
I0
sS'pos_x'
p5
I-9579
sS'pos_y'
p6
I9779
sS'isAlive'
p7
I00
sS'cumulativeEnergy'
p8
F0.5
sS'geno'
p9
(lp10
F-1.3331656882462526
aF-0.59203772533429655
aF1.0524684023489828
aF4.345268371324603
aF1.3817157177804202
aF1.9668956098983412
asS'accel_x'
p11
F0
sS'accel_y'
p12
F0
sS'visionAngle'
p13
I150
sS'maxAccel'
p14
I2
sS'maxVel'
p15
F0.5
sS'age'
p16
I0
sS'tailSize'
p17
I0
sS'sexualgeno'
p18
NsS'tailBrigh'
p19
I0
sS'maxSteering'
p20
I30
sS'energy'
p21
F0.5
sS'lastScale'
p22
F5.5
sb.(i__main__
Data_mobile
p1
(dp2
S'vel_y'
p3
I0
sS'vel_x'
p4
I0
sS'pos_x'
p5
I-9579
sS'pos_y'
p6
I9779
sS'isAlive'
p7
I00
sS'cumulativeEnergy'
p8
F0.5
sS'geno'
p9
(lp10
F-1.091216080601376
aF-0.59203772533429655
aF1.2132540209661895
aF4.3324737430668963
aF1.0159387961218296
aF1.9668956098983412
asS'accel_x'
p11
F0
sS'accel_y'
p12
F0
sS'visionAngle'
p13
I150
sS'maxAccel'
p14
I2
sS'maxVel'
p15
F0.5
sS'age'
p16
I0
sS'tailSize'
p17
I0
sS'sexualgeno'
p18
NsS'tailBrigh'
p19
I0
sS'maxSteering'
p20
I30
sS'energy'
p21
F0.5
sS'lastScale'
p22
F5.5
sb.(i__main__
Data_mobile
p1
(dp2
S'vel_y'
p3
I0
sS'vel_x'
p4
I0
sS'pos_x'
p5
I-9579
sS'pos_y'
p6
I9779
sS'isAlive'
p7
I00
sS'cumulativeEnergy'
p8
F0.5
sS'geno'
p9
(lp10
F-1.091216080601376
aF-0.59203772533429655
aF1.1076803104535642
aF4.357440810233963
aF0.70797249175436527
aF-0.77779332648091692
asS'accel_x'
p11
F0
sS'accel_y'
p12
F0
sS'visionAngle'
p13
I150
sS'maxAccel'
p14
I2
sS'maxVel'
p15
F0.5
sS'age'
p16
I0
sS'tailSize'
p17
I0
sS'sexualgeno'
p18
NsS'tailBrigh'
p19
I0
sS'maxSteering'
p20
I30
sS'energy'
p21
F0.5
sS'lastScale'
p22
F5.5
sb.(i__main__
Data_mobile
p1
(dp2
S'vel_y'
p3
I0
sS'vel_x'
p4
I0
sS'pos_x'
p5
I-9579
sS'pos_y'
p6
I9779
sS'isAlive'
p7
I00
sS'cumulativeEnergy'
p8
F0.5
sS'geno'
p9
(lp10
F-0.90779972158645528
aF-0.51020731713597423
aF0.98403981141394592
aF3.9158665482013708
aF0.40715193972245811
aF1.7335828706146701
asS'accel_x'
p11
F0
sS'accel_y'
p12
F0
sS'visionAngle'
p13
I150
sS'maxAccel'
p14
I2
sS'maxVel'
p15
F0.5
sS'age'
p16
I0
sS'tailSize'
p17
I0
sS'sexualgeno'
p18
NsS'tailBrigh'
p19
I0
sS'maxSteering'
p20
I30
sS'energy'
p21
F0.5
sS'lastScale'
p22
F5.5
sb.(i__main__
Data_mobile
p1
(dp2
S'vel_y'
p3
I0
sS'vel_x'
p4
I0
sS'pos_x'
p5
I-9579
sS'pos_y'
p6
I9779
sS'isAlive'
p7
I00
sS'cumulativeEnergy'
p8
F0.5
sS'geno'
p9
(lp10
F-1.091216080601376
aF-0.75833733070889975
aF1.0107532970922704
aF4.3324737430668963
aF0.70797249175436527
aF1.9668956098983412
asS'accel_x'
p11
F0
sS'accel_y'
p12
F0
sS'visionAngle'
p13
I150
sS'maxAccel'
p14
I2
sS'maxVel'
p15
F0.5
sS'age'
p16
I0
sS'tailSize'
p17
I0
sS'sexualgeno'
p18
NsS'tailBrigh'
p19
I0
sS'maxSteering'
p20
I30
sS'energy'
p21
F0.5
sS'lastScale'
p22
F5.5
sb.(i__main__
Data_mobile
p1
(dp2
S'vel_y'
p3
I0
sS'vel_x'
p4
I0
sS'pos_x'
p5
I-9579
sS'pos_y'
p6
I9779
sS'isAlive'
p7
I00
sS'cumulativeEnergy'
p8
F0.5
sS'geno'
p9
(lp10
F-1.178787037892147
aF-0.44347186956064166
aF0.98403981141394592
aF3.9158665482013708
aF0.40715193972245811
aF1.7335828706146701
asS'accel_x'
p11
F0
sS'accel_y'
p12
F0
sS'visionAngle'
p13
I150
sS'maxAccel'
p14
I2
sS'maxVel'
p15
F0.5
sS'age'
p16
I0
sS'tailSize'
p17
I0
sS'sexualgeno'
p18
NsS'tailBrigh'
p19
I0
sS'maxSteering'
p20
I30
sS'energy'
p21
F0.5
sS'lastScale'
p22
F5.5
sb.(i__main__
Data_mobile
p1
(dp2
S'vel_y'
p3
I0
sS'vel_x'
p4
I0
sS'pos_x'
p5
I-9579
sS'pos_y'
p6
I9779
sS'isAlive'
p7
I00
sS'cumulativeEnergy'
p8
F0.5
sS'geno'
p9
(lp10
F-0.90779972158645528
aF-0.51020731713597423
aF1.0984083661671558
aF4.3324737430668963
aF1.0970367814890647
aF1.9668956098983412
asS'accel_x'
p11
F0
sS'accel_y'
p12
F0
sS'visionAngle'
p13
I150
sS'maxAccel'
p14
I2
sS'maxVel'
p15
F0.5
sS'age'
p16
I0
sS'tailSize'
p17
I0
sS'sexualgeno'
p18
NsS'tailBrigh'
p19
I0
sS'maxSteering'
p20
I30
sS'energy'
p21
F0.5
sS'lastScale'
p22
F5.5
sb.(i__main__
Data_mobile
p1
(dp2
S'vel_y'
p3
I0
sS'vel_x'
p4
I0
sS'pos_x'
p5
I-9579
sS'pos_y'
p6
I9779
sS'isAlive'
p7
I00
sS'cumulativeEnergy'
p8
F0.5
sS'geno'
p9
(lp10
F-1.3331656882462526
aF-0.59203772533429655
aF1.0524684023489828
aF4.6954044288443537
aF0.65592783863779969
aF2.1556760211362076
asS'accel_x'
p11
F0
sS'accel_y'
p12
F0
sS'visionAngle'
p13
I150
sS'maxAccel'
p14
I2
sS'maxVel'
p15
F0.5
sS'age'
p16
I0
sS'tailSize'
p17
I0
sS'sexualgeno'
p18
NsS'tailBrigh'
p19
I0
sS'maxSteering'
p20
I30
sS'energy'
p21
F0.5
sS'lastScale'
p22
F5.5
sb.(i__main__
Data_mobile
p1
(dp2
S'vel_y'
p3
I0
sS'vel_x'
p4
I0
sS'pos_x'
p5
I-9579
sS'pos_y'
p6
I9779
sS'isAlive'
p7
I00
sS'cumulativeEnergy'
p8
F0.5
sS'geno'
p9
(lp10
F-0.6991421214880581
aF-0.59203772533429655
aF1.0524684023489828
aF4.3905306593537992
aF0.35469448178499974
aF2.1556760211362076
asS'accel_x'
p11
F0
sS'accel_y'
p12
F0
sS'visionAngle'
p13
I150
sS'maxAccel'
p14
I2
sS'maxVel'
p15
F0.5
sS'age'
p16
I0
sS'tailSize'
p17
I0
sS'sexualgeno'
p18
NsS'tailBrigh'
p19
I0
sS'maxSteering'
p20
I30
sS'energy'
p21
F0.5
sS'lastScale'
p22
F5.5
sb.(i__main__
Data_mobile
p1
(dp2
S'vel_y'
p3
I0
sS'vel_x'
p4
I0
sS'pos_x'
p5
I-9579
sS'pos_y'
p6
I9779
sS'isAlive'
p7
I00
sS'cumulativeEnergy'
p8
F0.5
sS'geno'
p9
(lp10
F-1.091216080601376
aF-0.59203772533429655
aF1.0524684023489828
aF4.4051331136941876
aF0.65592783863779969
aF2.1556760211362076
asS'accel_x'
p11
F0
sS'accel_y'
p12
F0
sS'visionAngle'
p13
I150
sS'maxAccel'
p14
I2
sS'maxVel'
p15
F0.5
sS'age'
p16
I0
sS'tailSize'
p17
I0
sS'sexualgeno'
p18
NsS'tailBrigh'
p19
I0
sS'maxSteering'
p20
I30
sS'energy'
p21
F0.5
sS'lastScale'
p22
F5.5
sb.(i__main__
Data_mobile
p1
(dp2
S'vel_y'
p3
I0
sS'vel_x'
p4
I0
sS'pos_x'
p5
I-9579
sS'pos_y'
p6
I9779
sS'isAlive'
p7
I00
sS'cumulativeEnergy'
p8
F0.5
sS'geno'
p9
(lp10
F-0.46660202863540712
aF-0.96440835905225364
aF1.2932667918472225
aF4.0908604213852895
aF1.3817157177804202
aF1.9668956098983412
asS'accel_x'
p11
F0
sS'accel_y'
p12
F0
sS'visionAngle'
p13
I150
sS'maxAccel'
p14
I2
sS'maxVel'
p15
F0.5
sS'age'
p16
I0
sS'tailSize'
p17
I0
sS'sexualgeno'
p18
NsS'tailBrigh'
p19
I0
sS'maxSteering'
p20
I30
sS'energy'
p21
F0.5
sS'lastScale'
p22
F5.5
sb.(i__main__
Data_mobile
p1
(dp2
S'vel_y'
p3
I0
sS'vel_x'
p4
I0
sS'pos_x'
p5
I-9579
sS'pos_y'
p6
I9779
sS'isAlive'
p7
I00
sS'cumulativeEnergy'
p8
F0.5
sS'geno'
p9
(lp10
F-0.96978720077199521
aF-0.59203772533429655
aF1.3001195299733639
aF4.3287139438513975
aF1.2019205515690021
aF1.8837675137285075
asS'accel_x'
p11
F0
sS'accel_y'
p12
F0
sS'visionAngle'
p13
I150
sS'maxAccel'
p14
I2
sS'maxVel'
p15
F0.5
sS'age'
p16
I0
sS'tailSize'
p17
I0
sS'sexualgeno'
p18
NsS'tailBrigh'
p19
I0
sS'maxSteering'
p20
I30
sS'energy'
p21
F0.5
sS'lastScale'
p22
F5.5
sb.(i__main__
Data_mobile
p1
(dp2
S'vel_y'
p3
I0
sS'vel_x'
p4
I0
sS'pos_x'
p5
I-9579
sS'pos_y'
p6
I9779
sS'isAlive'
p7
I00
sS'cumulativeEnergy'
p8
F0.5
sS'geno'
p9
(lp10
F-0.96978720077199521
aF-0.59203772533429655
aF0.82187085305602059
aF3.6611175056210254
aF0.72079501191871564
aF-0.77779332648091692
asS'accel_x'
p11
F0
sS'accel_y'
p12
F0
sS'visionAngle'
p13
I150
sS'maxAccel'
p14
I2
sS'maxVel'
p15
F0.5
sS'age'
p16
I0
sS'tailSize'
p17
I0
sS'sexualgeno'
p18
NsS'tailBrigh'
p19
I0
sS'maxSteering'
p20
I30
sS'energy'
p21
F0.5
sS'lastScale'
p22
F5.5
sb.(i__main__
Data_mobile
p1
(dp2
S'vel_y'
p3
I0
sS'vel_x'
p4
I0
sS'pos_x'
p5
I-9579
sS'pos_y'
p6
I9779
sS'isAlive'
p7
I00
sS'cumulativeEnergy'
p8
F0.5
sS'geno'
p9
(lp10
F-1.091216080601376
aF-0.75833733070889975
aF1.2132540209661895
aF4.3324737430668963
aF0.70797249175436527
aF-0.77779332648091692
asS'accel_x'
p11
F0
sS'accel_y'
p12
F0
sS'visionAngle'
p13
I150
sS'maxAccel'
p14
I2
sS'maxVel'
p15
F0.5
sS'age'
p16
I0
sS'tailSize'
p17
I0
sS'sexualgeno'
p18
NsS'tailBrigh'
p19
I0
sS'maxSteering'
p20
I30
sS'energy'
p21
F0.5
sS'lastScale'
p22
F5.5
sb.(i__main__
Data_mobile
p1
(dp2
S'vel_y'
p3
I0
sS'vel_x'
p4
I0
sS'pos_x'
p5
I-9579
sS'pos_y'
p6
I9779
sS'isAlive'
p7
I00
sS'cumulativeEnergy'
p8
F0.5
sS'geno'
p9
(lp10
F-1.091216080601376
aF-0.59203772533429655
aF1.0524684023489828
aF4.4051331136941876
aF0.65592783863779969
aF2.1556760211362076
asS'accel_x'
p11
F0
sS'accel_y'
p12
F0
sS'visionAngle'
p13
I150
sS'maxAccel'
p14
I2
sS'maxVel'
p15
F0.5
sS'age'
p16
I0
sS'tailSize'
p17
I0
sS'sexualgeno'
p18
NsS'tailBrigh'
p19
I0
sS'maxSteering'
p20
I30
sS'energy'
p21
F0.5
sS'lastScale'
p22
F5.5
sb.(i__main__
Data_mobile
p1
(dp2
S'vel_y'
p3
I0
sS'vel_x'
p4
I0
sS'pos_x'
p5
I-9579
sS'pos_y'
p6
I9779
sS'isAlive'
p7
I00
sS'cumulativeEnergy'
p8
F0.5
sS'geno'
p9
(lp10
F-1.091216080601376
aF-0.14808030599680422
aF0.82187085305602059
aF4.4656416074552636
aF0.70797249175436527
aF1.9668956098983412
asS'accel_x'
p11
F0
sS'accel_y'
p12
F0
sS'visionAngle'
p13
I150
sS'maxAccel'
p14
I2
sS'maxVel'
p15
F0.5
sS'age'
p16
I0
sS'tailSize'
p17
I0
sS'sexualgeno'
p18
NsS'tailBrigh'
p19
I0
sS'maxSteering'
p20
I30
sS'energy'
p21
F0.5
sS'lastScale'
p22
F5.5
sb.(i__main__
Data_mobile
p1
(dp2
S'vel_y'
p3
I0
sS'vel_x'
p4
I0
sS'pos_x'
p5
I-9579
sS'pos_y'
p6
I9779
sS'isAlive'
p7
I00
sS'cumulativeEnergy'
p8
F0.5
sS'geno'
p9
(lp10
F-1.3000756722042648
aF0.10002851800923729
aF0.82187085305602059
aF4.3324737430668963
aF0.70797249175436527
aF-0.77779332648091692
asS'accel_x'
p11
F0
sS'accel_y'
p12
F0
sS'visionAngle'
p13
I150
sS'maxAccel'
p14
I2
sS'maxVel'
p15
F0.5
sS'age'
p16
I0
sS'tailSize'
p17
I0
sS'sexualgeno'
p18
NsS'tailBrigh'
p19
I0
sS'maxSteering'
p20
I30
sS'energy'
p21
F0.5
sS'lastScale'
p22
F5.5
sb.(i__main__
Data_mobile
p1
(dp2
S'vel_y'
p3
I0
sS'vel_x'
p4
I0
sS'pos_x'
p5
I-9579
sS'pos_y'
p6
I9779
sS'isAlive'
p7
I00
sS'cumulativeEnergy'
p8
F0.5
sS'geno'
p9
(lp10
F-1.3917766633920756
aF-0.30619837921895887
aF1.3001195299733639
aF4.8193961463835437
aF1.2019205515690021
aF1.7335828706146701
asS'accel_x'
p11
F0
sS'accel_y'
p12
F0
sS'visionAngle'
p13
I150
sS'maxAccel'
p14
I2
sS'maxVel'
p15
F0.5
sS'age'
p16
I0
sS'tailSize'
p17
I0
sS'sexualgeno'
p18
NsS'tailBrigh'
p19
I0
sS'maxSteering'
p20
I30
sS'energy'
p21
F0.5
sS'lastScale'
p22
F5.5
sb.(i__main__
Data_mobile
p1
(dp2
S'vel_y'
p3
I0
sS'vel_x'
p4
I0
sS'pos_x'
p5
I-9579
sS'pos_y'
p6
I9779
sS'isAlive'
p7
I00
sS'cumulativeEnergy'
p8
F0.5
sS'geno'
p9
(lp10
F-1.091216080601376
aF-0.59203772533429655
aF1.3001195299733639
aF4.3324737430668963
aF0.70797249175436527
aF1.9668956098983412
asS'accel_x'
p11
F0
sS'accel_y'
p12
F0
sS'visionAngle'
p13
I150
sS'maxAccel'
p14
I2
sS'maxVel'
p15
F0.5
sS'age'
p16
I0
sS'tailSize'
p17
I0
sS'sexualgeno'
p18
NsS'tailBrigh'
p19
I0
sS'maxSteering'
p20
I30
sS'energy'
p21
F0.5
sS'lastScale'
p22
F5.5
sb.(i__main__
Data_mobile
p1
(dp2
S'vel_y'
p3
I0
sS'vel_x'
p4
I0
sS'pos_x'
p5
I-9579
sS'pos_y'
p6
I9779
sS'isAlive'
p7
I00
sS'cumulativeEnergy'
p8
F0.5
sS'geno'
p9
(lp10
F-1.091216080601376
aF-0.3282175827528141
aF1.2132540209661895
aF4.0404957894666396
aF1.0196001324795749
aF1.9668956098983412
asS'accel_x'
p11
F0
sS'accel_y'
p12
F0
sS'visionAngle'
p13
I150
sS'maxAccel'
p14
I2
sS'maxVel'
p15
F0.5
sS'age'
p16
I0
sS'tailSize'
p17
I0
sS'sexualgeno'
p18
NsS'tailBrigh'
p19
I0
sS'maxSteering'
p20
I30
sS'energy'
p21
F0.5
sS'lastScale'
p22
F5.5
sb.(i__main__
Data_mobile
p1
(dp2
S'vel_y'
p3
I0
sS'vel_x'
p4
I0
sS'pos_x'
p5
I-9579
sS'pos_y'
p6
I9779
sS'isAlive'
p7
I00
sS'cumulativeEnergy'
p8
F0.5
sS'geno'
p9
(lp10
F-1.178787037892147
aF-0.59203772533429655
aF1.2132540209661895
aF4.3324737430668963
aF1.0970367814890647
aF1.9668956098983412
asS'accel_x'
p11
F0
sS'accel_y'
p12
F0
sS'visionAngle'
p13
I150
sS'maxAccel'
p14
I2
sS'maxVel'
p15
F0.5
sS'age'
p16
I0
sS'tailSize'
p17
I0
sS'sexualgeno'
p18
NsS'tailBrigh'
p19
I0
sS'maxSteering'
p20
I30
sS'energy'
p21
F0.5
sS'lastScale'
p22
F5.5
sb.(i__main__
Data_mobile
p1
(dp2
S'vel_y'
p3
I0
sS'vel_x'
p4
I0
sS'pos_x'
p5
I-9579
sS'pos_y'
p6
I9779
sS'isAlive'
p7
I00
sS'cumulativeEnergy'
p8
F0.5
sS'geno'
p9
(lp10
F-0.90779972158645528
aF-0.59203772533429655
aF0.82187085305602059
aF4.0390559750946133
aF0.65592783863779969
aF-0.77779332648091692
asS'accel_x'
p11
F0
sS'accel_y'
p12
F0
sS'visionAngle'
p13
I150
sS'maxAccel'
p14
I2
sS'maxVel'
p15
F0.5
sS'age'
p16
I0
sS'tailSize'
p17
I0
sS'sexualgeno'
p18
NsS'tailBrigh'
p19
I0
sS'maxSteering'
p20
I30
sS'energy'
p21
F0.5
sS'lastScale'
p22
F5.5
sb.(i__main__
Data_mobile
p1
(dp2
S'vel_y'
p3
I0
sS'vel_x'
p4
I0
sS'pos_x'
p5
I-9579
sS'pos_y'
p6
I9779
sS'isAlive'
p7
I00
sS'cumulativeEnergy'
p8
F0.5
sS'geno'
p9
(lp10
F-0.90779972158645528
aF-0.56230112222715201
aF0.98403981141394592
aF3.9158665482013708
aF0.65592783863779969
aF1.7335828706146701
asS'accel_x'
p11
F0
sS'accel_y'
p12
F0
sS'visionAngle'
p13
I150
sS'maxAccel'
p14
I2
sS'maxVel'
p15
F0.5
sS'age'
p16
I0
sS'tailSize'
p17
I0
sS'sexualgeno'
p18
NsS'tailBrigh'
p19
I0
sS'maxSteering'
p20
I30
sS'energy'
p21
F0.5
sS'lastScale'
p22
F5.5
sb.(i__main__
Data_mobile
p1
(dp2
S'vel_y'
p3
I0
sS'vel_x'
p4
I0
sS'pos_x'
p5
I-9579
sS'pos_y'
p6
I9779
sS'isAlive'
p7
I00
sS'cumulativeEnergy'
p8
F0.5
sS'geno'
p9
(lp10
F-0.96978720077199521
aF-0.56230112222715201
aF0.98403981141394592
aF3.9158665482013708
aF0.65592783863779969
aF1.7335828706146701
asS'accel_x'
p11
F0
sS'accel_y'
p12
F0
sS'visionAngle'
p13
I150
sS'maxAccel'
p14
I2
sS'maxVel'
p15
F0.5
sS'age'
p16
I0
sS'tailSize'
p17
I0
sS'sexualgeno'
p18
NsS'tailBrigh'
p19
I0
sS'maxSteering'
p20
I30
sS'energy'
p21
F0.5
sS'lastScale'
p22
F5.5
sb.(i__main__
Data_mobile
p1
(dp2
S'vel_y'
p3
I0
sS'vel_x'
p4
I0
sS'pos_x'
p5
I-9579
sS'pos_y'
p6
I9779
sS'isAlive'
p7
I00
sS'cumulativeEnergy'
p8
F0.5
sS'geno'
p9
(lp10
F-0.60050486166395811
aF-0.044101296722013683
aF0.82187085305602059
aF4.4656416074552636
aF0.30606967475308544
aF2.4575539125043102
asS'accel_x'
p11
F0
sS'accel_y'
p12
F0
sS'visionAngle'
p13
I150
sS'maxAccel'
p14
I2
sS'maxVel'
p15
F0.5
sS'age'
p16
I0
sS'tailSize'
p17
I0
sS'sexualgeno'
p18
NsS'tailBrigh'
p19
I0
sS'maxSteering'
p20
I30
sS'energy'
p21
F0.5
sS'lastScale'
p22
F5.5
sb.(i__main__
Data_mobile
p1
(dp2
S'vel_y'
p3
I0
sS'vel_x'
p4
I0
sS'pos_x'
p5
I-9579
sS'pos_y'
p6
I9779
sS'isAlive'
p7
I00
sS'cumulativeEnergy'
p8
F0.5
sS'geno'
p9
(lp10
F-0.82087101807953888
aF-0.59203772533429655
aF1.7547227337360627
aF4.3287139438513975
aF1.2019205515690021
aF1.7335828706146701
asS'accel_x'
p11
F0
sS'accel_y'
p12
F0
sS'visionAngle'
p13
I150
sS'maxAccel'
p14
I2
sS'maxVel'
p15
F0.5
sS'age'
p16
I0
sS'tailSize'
p17
I0
sS'sexualgeno'
p18
NsS'tailBrigh'
p19
I0
sS'maxSteering'
p20
I30
sS'energy'
p21
F0.5
sS'lastScale'
p22
F5.5
sb.(i__main__
Data_mobile
p1
(dp2
S'vel_y'
p3
I0
sS'vel_x'
p4
I0
sS'pos_x'
p5
I-9579
sS'pos_y'
p6
I9779
sS'isAlive'
p7
I00
sS'cumulativeEnergy'
p8
F0.5
sS'geno'
p9
(lp10
F-0.96978720077199521
aF-0.59203772533429655
aF0.82187085305602059
aF4.0390559750946133
aF0.95847773594020369
aF-0.77779332648091692
asS'accel_x'
p11
F0
sS'accel_y'
p12
F0
sS'visionAngle'
p13
I150
sS'maxAccel'
p14
I2
sS'maxVel'
p15
F0.5
sS'age'
p16
I0
sS'tailSize'
p17
I0
sS'sexualgeno'
p18
NsS'tailBrigh'
p19
I0
sS'maxSteering'
p20
I30
sS'energy'
p21
F0.5
sS'lastScale'
p22
F5.5
sb.(i__main__
Data_mobile
p1
(dp2
S'vel_y'
p3
I0
sS'vel_x'
p4
I0
sS'pos_x'
p5
I-9579
sS'pos_y'
p6
I9779
sS'isAlive'
p7
I00
sS'cumulativeEnergy'
p8
F0.5
sS'geno'
p9
(lp10
F-0.90779972158645528
aF-0.59203772533429655
aF0.82187085305602059
aF3.5649736754584529
aF1.3571920702080584
aF-0.77876739011486895
asS'accel_x'
p11
F0
sS'accel_y'
p12
F0
sS'visionAngle'
p13
I150
sS'maxAccel'
p14
I2
sS'maxVel'
p15
F0.5
sS'age'
p16
I0
sS'tailSize'
p17
I0
sS'sexualgeno'
p18
NsS'tailBrigh'
p19
I0
sS'maxSteering'
p20
I30
sS'energy'
p21
F0.5
sS'lastScale'
p22
F5.5
sb.(i__main__
Data_mobile
p1
(dp2
S'vel_y'
p3
I0
sS'vel_x'
p4
I0
sS'pos_x'
p5
I-9579
sS'pos_y'
p6
I9779
sS'isAlive'
p7
I00
sS'cumulativeEnergy'
p8
F0.5
sS'geno'
p9
(lp10
F-0.90779972158645528
aF-0.59203772533429655
aF0.82187085305602059
aF4.0390559750946133
aF0.72079501191871564
aF-0.29791235140060512
asS'accel_x'
p11
F0
sS'accel_y'
p12
F0
sS'visionAngle'
p13
I150
sS'maxAccel'
p14
I2
sS'maxVel'
p15
F0.5
sS'age'
p16
I0
sS'tailSize'
p17
I0
sS'sexualgeno'
p18
NsS'tailBrigh'
p19
I0
sS'maxSteering'
p20
I30
sS'energy'
p21
F0.5
sS'lastScale'
p22
F5.5
sb.(i__main__
Data_mobile
p1
(dp2
S'vel_y'
p3
I0
sS'vel_x'
p4
I0
sS'pos_x'
p5
I-9579
sS'pos_y'
p6
I9779
sS'isAlive'
p7
I00
sS'cumulativeEnergy'
p8
F0.5
sS'geno'
p9
(lp10
F-0.90779972158645528
aF-0.59203772533429655
aF0.82187085305602059
aF4.0390559750946133
aF0.72079501191871564
aF-0.77779332648091692
asS'accel_x'
p11
F0
sS'accel_y'
p12
F0
sS'visionAngle'
p13
I150
sS'maxAccel'
p14
I2
sS'maxVel'
p15
F0.5
sS'age'
p16
I0
sS'tailSize'
p17
I0
sS'sexualgeno'
p18
NsS'tailBrigh'
p19
I0
sS'maxSteering'
p20
I30
sS'energy'
p21
F0.5
sS'lastScale'
p22
F5.5
sb.(i__main__
Data_mobile
p1
(dp2
S'vel_y'
p3
I0
sS'vel_x'
p4
I0
sS'pos_x'
p5
I-9579
sS'pos_y'
p6
I9779
sS'isAlive'
p7
I00
sS'cumulativeEnergy'
p8
F0.5
sS'geno'
p9
(lp10
F-1.091216080601376
aF-0.75833733070889975
aF1.2132540209661895
aF4.3324737430668963
aF0.70797249175436527
aF-0.77779332648091692
asS'accel_x'
p11
F0
sS'accel_y'
p12
F0
sS'visionAngle'
p13
I150
sS'maxAccel'
p14
I2
sS'maxVel'
p15
F0.5
sS'age'
p16
I0
sS'tailSize'
p17
I0
sS'sexualgeno'
p18
NsS'tailBrigh'
p19
I0
sS'maxSteering'
p20
I30
sS'energy'
p21
F0.5
sS'lastScale'
p22
F5.5
sb.(i__main__
Data_mobile
p1
(dp2
S'vel_y'
p3
I0
sS'vel_x'
p4
I0
sS'pos_x'
p5
I-9579
sS'pos_y'
p6
I9779
sS'isAlive'
p7
I00
sS'cumulativeEnergy'
p8
F0.5
sS'geno'
p9
(lp10
F-0.96978720077199521
aF-0.4750125755181972
aF1.3001195299733639
aF4.3287139438513975
aF0.70797249175436527
aF-0.77779332648091692
asS'accel_x'
p11
F0
sS'accel_y'
p12
F0
sS'visionAngle'
p13
I150
sS'maxAccel'
p14
I2
sS'maxVel'
p15
F0.5
sS'age'
p16
I0
sS'tailSize'
p17
I0
sS'sexualgeno'
p18
NsS'tailBrigh'
p19
I0
sS'maxSteering'
p20
I30
sS'energy'
p21
F0.5
sS'lastScale'
p22
F5.5
sb.(i__main__
Data_mobile
p1
(dp2
S'vel_y'
p3
I0
sS'vel_x'
p4
I0
sS'pos_x'
p5
I-9579
sS'pos_y'
p6
I9779
sS'isAlive'
p7
I00
sS'cumulativeEnergy'
p8
F0.5
sS'geno'
p9
(lp10
F-0.90779972158645528
aF0.94282969885914258
aF1.3001195299733639
aF4.3287139438513975
aF1.2019205515690021
aF1.7335828706146701
asS'accel_x'
p11
F0
sS'accel_y'
p12
F0
sS'visionAngle'
p13
I150
sS'maxAccel'
p14
I2
sS'maxVel'
p15
F0.5
sS'age'
p16
I0
sS'tailSize'
p17
I0
sS'sexualgeno'
p18
NsS'tailBrigh'
p19
I0
sS'maxSteering'
p20
I30
sS'energy'
p21
F0.5
sS'lastScale'
p22
F5.5
sb.(i__main__
Data_mobile
p1
(dp2
S'vel_y'
p3
I0
sS'vel_x'
p4
I0
sS'pos_x'
p5
I-9579
sS'pos_y'
p6
I9779
sS'isAlive'
p7
I00
sS'cumulativeEnergy'
p8
F0.5
sS'geno'
p9
(lp10
F-0.96978720077199521
aF-0.47938852459819725
aF1.3001195299733639
aF4.3324737430668963
aF0.47489424509583289
aF1.9668956098983412
asS'accel_x'
p11
F0
sS'accel_y'
p12
F0
sS'visionAngle'
p13
I150
sS'maxAccel'
p14
I2
sS'maxVel'
p15
F0.5
sS'age'
p16
I0
sS'tailSize'
p17
I0
sS'sexualgeno'
p18
NsS'tailBrigh'
p19
I0
sS'maxSteering'
p20
I30
sS'energy'
p21
F0.5
sS'lastScale'
p22
F5.5
sb.(i__main__
Data_mobile
p1
(dp2
S'vel_y'
p3
I0
sS'vel_x'
p4
I0
sS'pos_x'
p5
I-9579
sS'pos_y'
p6
I9779
sS'isAlive'
p7
I00
sS'cumulativeEnergy'
p8
F0.5
sS'geno'
p9
(lp10
F-1.091216080601376
aF-0.39465850867801266
aF0.82187085305602059
aF4.7708209129410157
aF0.70797249175436527
aF-0.77779332648091692
asS'accel_x'
p11
F0
sS'accel_y'
p12
F0
sS'visionAngle'
p13
I150
sS'maxAccel'
p14
I2
sS'maxVel'
p15
F0.5
sS'age'
p16
I0
sS'tailSize'
p17
I0
sS'sexualgeno'
p18
NsS'tailBrigh'
p19
I0
sS'maxSteering'
p20
I30
sS'energy'
p21
F0.5
sS'lastScale'
p22
F5.5
sb.(i__main__
Data_mobile
p1
(dp2
S'vel_y'
p3
I0
sS'vel_x'
p4
I0
sS'pos_x'
p5
I-9579
sS'pos_y'
p6
I9779
sS'isAlive'
p7
I00
sS'cumulativeEnergy'
p8
F0.5
sS'geno'
p9
(lp10
F-1.091216080601376
aF-0.39465850867801266
aF1.0970706814335229
aF4.3324737430668963
aF0.70797249175436527
aF-0.81152382879044749
asS'accel_x'
p11
F0
sS'accel_y'
p12
F0
sS'visionAngle'
p13
I150
sS'maxAccel'
p14
I2
sS'maxVel'
p15
F0.5
sS'age'
p16
I0
sS'tailSize'
p17
I0
sS'sexualgeno'
p18
NsS'tailBrigh'
p19
I0
sS'maxSteering'
p20
I30
sS'energy'
p21
F0.5
sS'lastScale'
p22
F5.5
sb.(i__main__
Data_mobile
p1
(dp2
S'vel_y'
p3
I0
sS'vel_x'
p4
I0
sS'pos_x'
p5
I-9579
sS'pos_y'
p6
I9779
sS'isAlive'
p7
I00
sS'cumulativeEnergy'
p8
F0.5
sS'geno'
p9
(lp10
F-1.4974339712931881
aF-0.30619837921895887
aF1.3001195299733639
aF4.8193961463835437
aF1.2019205515690021
aF1.7335828706146701
asS'accel_x'
p11
F0
sS'accel_y'
p12
F0
sS'visionAngle'
p13
I150
sS'maxAccel'
p14
I2
sS'maxVel'
p15
F0.5
sS'age'
p16
I0
sS'tailSize'
p17
I0
sS'sexualgeno'
p18
NsS'tailBrigh'
p19
I0
sS'maxSteering'
p20
I30
sS'energy'
p21
F0.5
sS'lastScale'
p22
F5.5
sb.(i__main__
Data_mobile
p1
(dp2
S'vel_y'
p3
I0
sS'vel_x'
p4
I0
sS'pos_x'
p5
I-9579
sS'pos_y'
p6
I9779
sS'isAlive'
p7
I00
sS'cumulativeEnergy'
p8
F0.5
sS'geno'
p9
(lp10
F-1.091216080601376
aF-0.14808030599680422
aF1.2132540209661895
aF4.3324737430668963
aF0.70797249175436527
aF-0.77779332648091692
asS'accel_x'
p11
F0
sS'accel_y'
p12
F0
sS'visionAngle'
p13
I150
sS'maxAccel'
p14
I2
sS'maxVel'
p15
F0.5
sS'age'
p16
I0
sS'tailSize'
p17
I0
sS'sexualgeno'
p18
NsS'tailBrigh'
p19
I0
sS'maxSteering'
p20
I30
sS'energy'
p21
F0.5
sS'lastScale'
p22
F5.5
sb.(i__main__
Data_mobile
p1
(dp2
S'vel_y'
p3
I0
sS'vel_x'
p4
I0
sS'pos_x'
p5
I-9579
sS'pos_y'
p6
I9779
sS'isAlive'
p7
I00
sS'cumulativeEnergy'
p8
F0.5
sS'geno'
p9
(lp10
F-1.3912204950226876
aF0.95733636369027353
aF0.82187085305602059
aF4.1453355106722292
aF0.72079501191871564
aF-0.77779332648091692
asS'accel_x'
p11
F0
sS'accel_y'
p12
F0
sS'visionAngle'
p13
I150
sS'maxAccel'
p14
I2
sS'maxVel'
p15
F0.5
sS'age'
p16
I0
sS'tailSize'
p17
I0
sS'sexualgeno'
p18
NsS'tailBrigh'
p19
I0
sS'maxSteering'
p20
I30
sS'energy'
p21
F0.5
sS'lastScale'
p22
F5.5
sb.(i__main__
Data_mobile
p1
(dp2
S'vel_y'
p3
I0
sS'vel_x'
p4
I0
sS'pos_x'
p5
I-9579
sS'pos_y'
p6
I9779
sS'isAlive'
p7
I00
sS'cumulativeEnergy'
p8
F0.5
sS'geno'
p9
(lp10
F-0.90779972158645528
aF-0.51020731713597423
aF0.98403981141394592
aF4.4051331136941876
aF0.65592783863779969
aF-0.77779332648091692
asS'accel_x'
p11
F0
sS'accel_y'
p12
F0
sS'visionAngle'
p13
I150
sS'maxAccel'
p14
I2
sS'maxVel'
p15
F0.5
sS'age'
p16
I0
sS'tailSize'
p17
I0
sS'sexualgeno'
p18
NsS'tailBrigh'
p19
I0
sS'maxSteering'
p20
I30
sS'energy'
p21
F0.5
sS'lastScale'
p22
F5.5
sb.(i__main__
Data_mobile
p1
(dp2
S'vel_y'
p3
I0
sS'vel_x'
p4
I0
sS'pos_x'
p5
I-9579
sS'pos_y'
p6
I9779
sS'isAlive'
p7
I00
sS'cumulativeEnergy'
p8
F0.5
sS'geno'
p9
(lp10
F-1.091216080601376
aF-0.39465850867801266
aF0.82187085305602059
aF4.3324737430668963
aF0.70797249175436527
aF-0.77779332648091692
asS'accel_x'
p11
F0
sS'accel_y'
p12
F0
sS'visionAngle'
p13
I150
sS'maxAccel'
p14
I2
sS'maxVel'
p15
F0.5
sS'age'
p16
I0
sS'tailSize'
p17
I0
sS'sexualgeno'
p18
NsS'tailBrigh'
p19
I0
sS'maxSteering'
p20
I30
sS'energy'
p21
F0.5
sS'lastScale'
p22
F5.5
sb.(i__main__
Data_mobile
p1
(dp2
S'vel_y'
p3
I0
sS'vel_x'
p4
I0
sS'pos_x'
p5
I-9579
sS'pos_y'
p6
I9779
sS'isAlive'
p7
I00
sS'cumulativeEnergy'
p8
F0.5
sS'geno'
p9
(lp10
F-1.3331656882462526
aF1.3470830356008276
aF0.82187085305602059
aF4.3324737430668963
aF1.3300020282270277
aF1.9668956098983412
asS'accel_x'
p11
F0
sS'accel_y'
p12
F0
sS'visionAngle'
p13
I150
sS'maxAccel'
p14
I2
sS'maxVel'
p15
F0.5
sS'age'
p16
I0
sS'tailSize'
p17
I0
sS'sexualgeno'
p18
NsS'tailBrigh'
p19
I0
sS'maxSteering'
p20
I30
sS'energy'
p21
F0.5
sS'lastScale'
p22
F5.5
sb.(i__main__
Data_mobile
p1
(dp2
S'vel_y'
p3
I0
sS'vel_x'
p4
I0
sS'pos_x'
p5
I-9579
sS'pos_y'
p6
I9779
sS'isAlive'
p7
I00
sS'cumulativeEnergy'
p8
F0.5
sS'geno'
p9
(lp10
F-1.091216080601376
aF-0.14808030599680422
aF0.82187085305602059
aF4.4656416074552636
aF0.70797249175436527
aF-0.77779332648091692
asS'accel_x'
p11
F0
sS'accel_y'
p12
F0
sS'visionAngle'
p13
I150
sS'maxAccel'
p14
I2
sS'maxVel'
p15
F0.5
sS'age'
p16
I0
sS'tailSize'
p17
I0
sS'sexualgeno'
p18
NsS'tailBrigh'
p19
I0
sS'maxSteering'
p20
I30
sS'energy'
p21
F0.5
sS'lastScale'
p22
F5.5
sb.(i__main__
Data_mobile
p1
(dp2
S'vel_y'
p3
I0
sS'vel_x'
p4
I0
sS'pos_x'
p5
I-9579
sS'pos_y'
p6
I9779
sS'isAlive'
p7
I00
sS'cumulativeEnergy'
p8
F0.5
sS'geno'
p9
(lp10
F-1.091216080601376
aF-0.14808030599680422
aF0.82187085305602059
aF4.4656416074552636
aF0.70797249175436527
aF1.9668956098983412
asS'accel_x'
p11
F0
sS'accel_y'
p12
F0
sS'visionAngle'
p13
I150
sS'maxAccel'
p14
I2
sS'maxVel'
p15
F0.5
sS'age'
p16
I0
sS'tailSize'
p17
I0
sS'sexualgeno'
p18
NsS'tailBrigh'
p19
I0
sS'maxSteering'
p20
I30
sS'energy'
p21
F0.5
sS'lastScale'
p22
F5.5
sb.(i__main__
Data_mobile
p1
(dp2
S'vel_y'
p3
I0
sS'vel_x'
p4
I0
sS'pos_x'
p5
I-9579
sS'pos_y'
p6
I9779
sS'isAlive'
p7
I00
sS'cumulativeEnergy'
p8
F0.5
sS'geno'
p9
(lp10
F-1.091216080601376
aF-0.59203772533429655
aF0.82187085305602059
aF4.0390559750946133
aF0.72079501191871564
aF-0.77779332648091692
asS'accel_x'
p11
F0
sS'accel_y'
p12
F0
sS'visionAngle'
p13
I150
sS'maxAccel'
p14
I2
sS'maxVel'
p15
F0.5
sS'age'
p16
I0
sS'tailSize'
p17
I0
sS'sexualgeno'
p18
NsS'tailBrigh'
p19
I0
sS'maxSteering'
p20
I30
sS'energy'
p21
F0.5
sS'lastScale'
p22
F5.5
sb.(i__main__
Data_mobile
p1
(dp2
S'vel_y'
p3
I0
sS'vel_x'
p4
I0
sS'pos_x'
p5
I-9579
sS'pos_y'
p6
I9779
sS'isAlive'
p7
I00
sS'cumulativeEnergy'
p8
F0.5
sS'geno'
p9
(lp10
F-0.90779972158645528
aF-0.59203772533429655
aF0.82187085305602059
aF4.0390559750946133
aF0.72079501191871564
aF-0.77779332648091692
asS'accel_x'
p11
F0
sS'accel_y'
p12
F0
sS'visionAngle'
p13
I150
sS'maxAccel'
p14
I2
sS'maxVel'
p15
F0.5
sS'age'
p16
I0
sS'tailSize'
p17
I0
sS'sexualgeno'
p18
NsS'tailBrigh'
p19
I0
sS'maxSteering'
p20
I30
sS'energy'
p21
F0.5
sS'lastScale'
p22
F5.5
sb.(i__main__
Data_mobile
p1
(dp2
S'vel_y'
p3
I0
sS'vel_x'
p4
I0
sS'pos_x'
p5
I-9579
sS'pos_y'
p6
I9779
sS'isAlive'
p7
I00
sS'cumulativeEnergy'
p8
F0.5
sS'geno'
p9
(lp10
F-1.3331656882462526
aF-0.59203772533429655
aF1.0524684023489828
aF4.345268371324603
aF0.20855770657829142
aF1.7880884268305295
asS'accel_x'
p11
F0
sS'accel_y'
p12
F0
sS'visionAngle'
p13
I150
sS'maxAccel'
p14
I2
sS'maxVel'
p15
F0.5
sS'age'
p16
I0
sS'tailSize'
p17
I0
sS'sexualgeno'
p18
NsS'tailBrigh'
p19
I0
sS'maxSteering'
p20
I30
sS'energy'
p21
F0.5
sS'lastScale'
p22
F5.5
sb.(i__main__
Data_mobile
p1
(dp2
S'vel_y'
p3
I0
sS'vel_x'
p4
I0
sS'pos_x'
p5
I-9579
sS'pos_y'
p6
I9779
sS'isAlive'
p7
I00
sS'cumulativeEnergy'
p8
F0.5
sS'geno'
p9
(lp10
F-1.3331656882462526
aF-0.59203772533429655
aF1.0524684023489828
aF4.345268371324603
aF0.20855770657829142
aF1.7880884268305295
asS'accel_x'
p11
F0
sS'accel_y'
p12
F0
sS'visionAngle'
p13
I150
sS'maxAccel'
p14
I2
sS'maxVel'
p15
F0.5
sS'age'
p16
I0
sS'tailSize'
p17
I0
sS'sexualgeno'
p18
NsS'tailBrigh'
p19
I0
sS'maxSteering'
p20
I30
sS'energy'
p21
F0.5
sS'lastScale'
p22
F5.5
sb.(i__main__
Data_mobile
p1
(dp2
S'vel_y'
p3
I0
sS'vel_x'
p4
I0
sS'pos_x'
p5
I-9579
sS'pos_y'
p6
I9779
sS'isAlive'
p7
I00
sS'cumulativeEnergy'
p8
F0.5
sS'geno'
p9
(lp10
F-1.091216080601376
aF-0.75833733070889975
aF1.2132540209661895
aF4.3324737430668963
aF0.30213665607327322
aF-0.77779332648091692
asS'accel_x'
p11
F0
sS'accel_y'
p12
F0
sS'visionAngle'
p13
I150
sS'maxAccel'
p14
I2
sS'maxVel'
p15
F0.5
sS'age'
p16
I0
sS'tailSize'
p17
I0
sS'sexualgeno'
p18
NsS'tailBrigh'
p19
I0
sS'maxSteering'
p20
I30
sS'energy'
p21
F0.5
sS'lastScale'
p22
F5.5
sb.