(i__main__
Data_mobile
p1
(dp2
S'vel_y'
p3
F0.10633387280923511
sS'vel_x'
p4
F0.48856228619633491
sS'pos_x'
p5
F165.17287244019531
sS'pos_y'
p6
F-76.001004351250742
sS'isAlive'
p7
I01
sS'geno'
p8
(lp9
F0.23965863968022827
aF-0.35663259403670367
aF1.0385372400775399
aF3.7694375432007572
aF-3.6717499402223766
aF-0.77212247465408812
asS'accel_x'
p10
F-1.3290437227778069
sS'accel_y'
p11
F0.34008125225414831
sS'maxAccel'
p12
I2
sS'maxVel'
p13
F0.5
sS'age'
p14
I450
sS'gener'
p15
S'm'
sS'lastScale'
p16
F15.300000000000026
sS'energy'
p17
F0.98000000000000254
sb.(i__main__
Data_mobile
p1
(dp2
S'vel_y'
p3
F0.39132073792146144
sS'vel_x'
p4
F-0.31123637331231524
sS'pos_x'
p5
F143.55631687361142
sS'pos_y'
p6
F63.326312883801386
sS'isAlive'
p7
I01
sS'geno'
p8
(lp9
F3.8526486809082954
aF-1.295104703273029
aF2.8375496223567334
aF4.4281924238522823
aF4.4021604296056296
aF-1.0979883073300045
asS'accel_x'
p10
F1.9582289586017005
sS'accel_y'
p11
F0.40661941135870322
sS'maxAccel'
p12
I2
sS'maxVel'
p13
F0.5
sS'age'
p14
I400
sS'gener'
p15
S'm'
sS'lastScale'
p16
F15.300000000003774
sS'energy'
p17
F0.98000000000037746
sb.(i__main__
Data_mobile
p1
(dp2
S'vel_y'
p3
F0.33890248498609077
sS'vel_x'
p4
F0.36762087219070211
sS'pos_x'
p5
F164.21794357267876
sS'pos_y'
p6
F-76.899777308498031
sS'isAlive'
p7
I01
sS'geno'
p8
(lp9
F0.56084163487518524
aF3.803331803005491
aF1.5409811541675777
aF2.5971870967405462
aF0.74728928717367182
aF-0.57817398432854539
asS'accel_x'
p10
F-1.9969918897993604
sS'accel_y'
p11
F-0.10965122924791669
sS'maxAccel'
p12
I2
sS'maxVel'
p13
F0.5
sS'age'
p14
I300
sS'gener'
p15
S'm'
sS'lastScale'
p16
F15.300000011253516
sS'energy'
p17
F0.98000000112535157
sb.(i__main__
Data_mobile
p1
(dp2
S'vel_y'
p3
F0.41276123226460842
sS'vel_x'
p4
F0.28218462952365414
sS'pos_x'
p5
F-57.212006988639153
sS'pos_y'
p6
F98.451093805931592
sS'isAlive'
p7
I01
sS'geno'
p8
(lp9
F-0.92703862681314675
aF3.0450318479046814
aF-0.66605501165633463
aF3.5157613726122996
aF0.1749121424816984
aF1.1762281059160031
asS'accel_x'
p10
F-1.8314665260647083
sS'accel_y'
p11
F0.80357349626805696
sS'maxAccel'
p12
I2
sS'maxVel'
p13
F0.5
sS'age'
p14
I300
sS'gener'
p15
S'm'
sS'lastScale'
p16
F15.300000011253516
sS'energy'
p17
F0.98000000112535157
sb.(i__main__
Data_mobile
p1
(dp2
S'vel_y'
p3
F0.3529340862518302
sS'vel_x'
p4
F-0.35417161202104502
sS'pos_x'
p5
F-8.9048594352278538
sS'pos_y'
p6
F-59.482055801105787
sS'isAlive'
p7
I01
sS'geno'
p8
(lp9
F0.16690538018485324
aF3.9613076389630297
aF-2.6091436041922353
aF4.7466477592051817
aF0.43958242413259274
aF-1.0659026377598124
asS'accel_x'
p10
F1.3190481208555727
sS'accel_y'
p11
F-1.5033669062698509
sS'maxAccel'
p12
I2
sS'maxVel'
p13
F0.5
sS'age'
p14
I300
sS'gener'
p15
S'm'
sS'lastScale'
p16
F15.300000011253516
sS'energy'
p17
F0.98000000112535157
sb.(i__main__
Data_mobile
p1
(dp2
S'vel_y'
p3
F0.19822894251567541
sS'vel_x'
p4
F0.45902645495561262
sS'pos_x'
p5
F163.95377132758495
sS'pos_y'
p6
F-76.802131626478186
sS'isAlive'
p7
I01
sS'geno'
p8
(lp9
F-0.22331228370193745
aF3.0332906970037428
aF-0.48738584771018267
aF4.5311184877428659
aF0.74728928717367182
aF-0.57817398432854539
asS'accel_x'
p10
F0.19383956289808243
sS'accel_y'
p11
F-1.9905843925479474
sS'maxAccel'
p12
I2
sS'maxVel'
p13
F0.5
sS'age'
p14
I300
sS'gener'
p15
S'm'
sS'lastScale'
p16
F15.300000011253516
sS'energy'
p17
F0.98000000112535157
sb.(i__main__
Data_mobile
p1
(dp2
S'vel_y'
p3
F0.49894180158419804
sS'vel_x'
p4
F0.032512745684034748
sS'pos_x'
p5
F146.61858311965864
sS'pos_y'
p6
F61.939626842903067
sS'isAlive'
p7
I01
sS'geno'
p8
(lp9
F3.8526486809082954
aF-1.295104703273029
aF2.8375496223567334
aF4.4281924238522823
aF4.4021604296056296
aF-1.0979883073300045
asS'accel_x'
p10
F1.9691690155766264
sS'accel_y'
p11
F-0.34981907908657534
sS'maxAccel'
p12
I2
sS'maxVel'
p13
F0.5
sS'age'
p14
I250
sS'gener'
p15
S'm'
sS'lastScale'
p16
F15.30000061441746
sS'energy'
p17
F0.98000006144174601
sb.(i__main__
Data_mobile
p1
(dp2
S'vel_y'
p3
F-0.055795738186341003
sS'vel_x'
p4
F0.49687708298958738
sS'pos_x'
p5
F-58.058412699972301
sS'pos_y'
p6
F97.423954774552413
sS'isAlive'
p7
I01
sS'geno'
p8
(lp9
F-0.23380009166182703
aF0.33456449757374163
aF-4.7520220451608672
aF3.7917787485310783
aF0.1749121424816984
aF0.92626810022228767
asS'accel_x'
p10
F-1.9312073361644508
sS'accel_y'
p11
F-0.52003675326327226
sS'maxAccel'
p12
I2
sS'maxVel'
p13
F0.5
sS'age'
p14
I250
sS'gener'
p15
S'm'
sS'lastScale'
p16
F15.30000061441746
sS'energy'
p17
F0.98000006144174601
sb.(i__main__
Data_mobile
p1
(dp2
S'vel_y'
p3
F0.30782414557737153
sS'vel_x'
p4
F-0.39401052701617145
sS'pos_x'
p5
F57.020199224381265
sS'pos_y'
p6
F-81.87879415413444
sS'isAlive'
p7
I01
sS'geno'
p8
(lp9
F-0.23380009166182703
aF0.21777004558991919
aF-4.7520220451608672
aF2.9526485278521797
aF0.57168463008856474
aF-1.1668581019985313
asS'accel_x'
p10
F0.9397257468196446
sS'accel_y'
p11
F-1.7654788361133817
sS'maxAccel'
p12
I2
sS'maxVel'
p13
F0.5
sS'age'
p14
I250
sS'gener'
p15
S'm'
sS'lastScale'
p16
F15.30000061441746
sS'energy'
p17
F0.98000006144174601
sb.(i__main__
Data_mobile
p1
(dp2
S'vel_y'
p3
F0.14686795355606561
sS'vel_x'
p4
F-0.47794330648964356
sS'pos_x'
p5
F57.427007138876704
sS'pos_y'
p6
F-82.330080782445535
sS'isAlive'
p7
I01
sS'geno'
p8
(lp9
F-0.23380009166182703
aF0.21777004558991919
aF-4.7520220451608672
aF4.1176178264155823
aF0.57168463008856474
aF-0.87264977661869947
asS'accel_x'
p10
F-0.80973160347163819
sS'accel_y'
p11
F1.8287522331740977
sS'maxAccel'
p12
I2
sS'maxVel'
p13
F0.5
sS'age'
p14
I250
sS'gener'
p15
S'm'
sS'lastScale'
p16
F15.30000061441746
sS'energy'
p17
F0.98000006144174601
sb.(i__main__
Data_mobile
p1
(dp2
S'vel_y'
p3
F0.36039596269539065
sS'vel_x'
p4
F-0.346575749400997
sS'pos_x'
p5
F56.035144958435247
sS'pos_y'
p6
F-81.39776203487753
sS'isAlive'
p7
I01
sS'geno'
p8
(lp9
F-1.3820252822376231
aF2.2948500325273393
aF2.3144390252171698
aF4.1176178264155823
aF0.57168463008856474
aF-1.1668581019985313
asS'accel_x'
p10
F-1.9636327327678182
sS'accel_y'
p11
F-0.37966628873629144
sS'maxAccel'
p12
I2
sS'maxVel'
p13
F0.5
sS'age'
p14
I250
sS'gener'
p15
S'm'
sS'lastScale'
p16
F15.30000061441746
sS'energy'
p17
F0.98000006144174601
sb.(i__main__
Data_mobile
p1
(dp2
S'vel_y'
p3
F0.38069793249695877
sS'vel_x'
p4
F-0.32414361661544566
sS'pos_x'
p5
F-115.64420480938512
sS'pos_y'
p6
F-94.716174693966664
sS'isAlive'
p7
I01
sS'geno'
p8
(lp9
F-4.1741574225537343
aF-2.9759248200358179
aF-4.6054688476004344
aF3.8925745291350573
aF-0.19007931193356509
aF-2.3231148836080751
asS'accel_x'
p10
F0.94518649406236188
sS'accel_y'
p11
F1.7625613440224144
sS'maxAccel'
p12
I2
sS'maxVel'
p13
F0.5
sS'age'
p14
I250
sS'gener'
p15
S'm'
sS'lastScale'
p16
F15.30000061441746
sS'energy'
p17
F0.98000006144174601
sb.(i__main__
Data_mobile
p1
(dp2
S'vel_y'
p3
F0.01596943545195512
sS'vel_x'
p4
F0.49974491206148947
sS'pos_x'
p5
F87.562964664830986
sS'pos_y'
p6
F-81.187636430152594
sS'isAlive'
p7
I01
sS'geno'
p8
(lp9
F1.4788969826633194
aF3.0450318479046814
aF-0.66605501165633463
aF4.3359479876336886
aF4.4021604296056296
aF-3.4957920486045921
asS'accel_x'
p10
F1.6903368104392849
sS'accel_y'
p11
F1.069000218556547
sS'maxAccel'
p12
I2
sS'maxVel'
p13
F0.5
sS'age'
p14
I200
sS'gener'
p15
S'm'
sS'lastScale'
p16
F15.300033535013046
sS'energy'
p17
F0.98000335350130463
sb.(i__main__
Data_mobile
p1
(dp2
S'vel_y'
p3
F0.46456373860788114
sS'vel_x'
p4
F0.18487977923685511
sS'pos_x'
p5
F139.68715996535968
sS'pos_y'
p6
F-13.531978747940052
sS'isAlive'
p7
I01
sS'geno'
p8
(lp9
F-0.92703862681314675
aF-1.7931402213574943
aF3.1840587058368062
aF4.4281924238522823
aF4.4021604296056296
aF-1.0979883073300045
asS'accel_x'
p10
F-1.7946553783996677
sS'accel_y'
p11
F0.88272989797624102
sS'maxAccel'
p12
I2
sS'maxVel'
p13
F0.5
sS'age'
p14
I200
sS'gener'
p15
S'm'
sS'lastScale'
p16
F15.300033535013046
sS'energy'
p17
F0.98000335350130463
sb.(i__main__
Data_mobile
p1
(dp2
S'vel_y'
p3
F0.47707342437536066
sS'vel_x'
p4
F-0.14966946166391798
sS'pos_x'
p5
F-86.644939976653049
sS'pos_y'
p6
F-77.86698618902318
sS'isAlive'
p7
I01
sS'geno'
p8
(lp9
F0.32564651670421529
aF3.0450318479046814
aF-0.66605501165633463
aF3.5157613726122996
aF0.1749121424816984
aF0.92626810022228767
asS'accel_x'
p10
F1.9097252448079369
sS'accel_y'
p11
F0.59409552206969718
sS'maxAccel'
p12
I2
sS'maxVel'
p13
F0.5
sS'age'
p14
I200
sS'gener'
p15
S'm'
sS'lastScale'
p16
F15.300033535013046
sS'energy'
p17
F0.98000335350130463
sb.(i__main__
Data_mobile
p1
(dp2
S'vel_y'
p3
F-0.32703774860585022
sS'vel_x'
p4
F-0.37821463613511408
sS'pos_x'
p5
F162.53027678529409
sS'pos_y'
p6
F-77.715550314234434
sS'isAlive'
p7
I01
sS'geno'
p8
(lp9
F-0.22331228370193745
aF3.0332906970037428
aF-0.48738584771018267
aF4.1872523225257989
aF1.0801426298367476
aF-0.94111978770595162
asS'accel_x'
p10
F1.8582124446046693
sS'accel_y'
p11
F0.73962592620617307
sS'maxAccel'
p12
I2
sS'maxVel'
p13
F0.5
sS'age'
p14
I200
sS'gener'
p15
S'm'
sS'lastScale'
p16
F15.300033535013046
sS'energy'
p17
F0.98000335350130463
sb.(i__main__
Data_mobile
p1
(dp2
S'vel_y'
p3
F-0.48417620794782606
sS'vel_x'
p4
F-0.12479342794099176
sS'pos_x'
p5
F45.752888032833525
sS'pos_y'
p6
F17.43448817689751
sS'isAlive'
p7
I01
sS'geno'
p8
(lp9
F1.4788969826633194
aF3.0450318479046814
aF-0.66605501165633463
aF3.5157613726122996
aF-2.3244378772504293
aF-2.3231148836080751
asS'accel_x'
p10
F-1.9060038255912239
sS'accel_y'
p11
F-0.60592855753101793
sS'maxAccel'
p12
I2
sS'maxVel'
p13
F0.5
sS'age'
p14
I200
sS'gener'
p15
S'm'
sS'lastScale'
p16
F15.300033535013046
sS'energy'
p17
F0.98000335350130463
sb.(i__main__
Data_mobile
p1
(dp2
S'vel_y'
p3
F-0.43742790448542906
sS'vel_x'
p4
F-0.24219171822646277
sS'pos_x'
p5
F145.02975752159784
sS'pos_y'
p6
F61.844348249253301
sS'isAlive'
p7
I01
sS'geno'
p8
(lp9
F2.5702619516500782
aF2.2829499865195544
aF-4.9895409876492156
aF4.8904562987467699
aF2.8804808344274324
aF-2.7897219830653852
asS'accel_x'
p10
F-1.820669867095956
sS'accel_y'
p11
F0.82774466778638534
sS'maxAccel'
p12
I2
sS'maxVel'
p13
F0.5
sS'age'
p14
I200
sS'gener'
p15
S'm'
sS'lastScale'
p16
F15.300033535013046
sS'energy'
p17
F0.98000335350130463
sb.(i__main__
Data_mobile
p1
(dp2
S'vel_y'
p3
F0.21833711028275232
sS'vel_x'
p4
F-0.44980985568724174
sS'pos_x'
p5
F145.19468134115397
sS'pos_y'
p6
F62.114896928742297
sS'isAlive'
p7
I01
sS'geno'
p8
(lp9
F1.4788969826633194
aF3.0450318479046814
aF-0.39816185374503665
aF3.2310224223013044
aF0.1749121424816984
aF0.92626810022228767
asS'accel_x'
p10
F-1.9009707068625432
sS'accel_y'
p11
F0.62153871291378349
sS'maxAccel'
p12
I2
sS'maxVel'
p13
F0.5
sS'age'
p14
I200
sS'gener'
p15
S'm'
sS'lastScale'
p16
F15.300033535013046
sS'energy'
p17
F0.98000335350130463
sb.(i__main__
Data_mobile
p1
(dp2
S'vel_y'
p3
F-0.083705241783524717
sS'vel_x'
p4
F-0.49294364028554183
sS'pos_x'
p5
F88.390067954775745
sS'pos_y'
p6
F-80.26069035748263
sS'isAlive'
p7
I01
sS'geno'
p8
(lp9
F-0.23380009166182703
aF0.21777004558991919
aF-4.9895409876492156
aF4.8904562987467699
aF2.8804808344274324
aF-2.7897219830653852
asS'accel_x'
p10
F-1.1984636650996439
sS'accel_y'
p11
F-1.6011510995018328
sS'maxAccel'
p12
I2
sS'maxVel'
p13
F0.5
sS'age'
p14
I200
sS'gener'
p15
S'm'
sS'lastScale'
p16
F15.300033535013046
sS'energy'
p17
F0.98000335350130463
sb.(i__main__
Data_mobile
p1
(dp2
S'vel_y'
p3
F0.48691816739545396
sS'vel_x'
p4
F-0.11362525362019055
sS'pos_x'
p5
F-175.22432162366113
sS'pos_y'
p6
F42.435218575465278
sS'isAlive'
p7
I01
sS'geno'
p8
(lp9
F-0.22331228370193745
aF3.4451892686623302
aF-0.85138313118050646
aF4.1872523225257989
aF1.0801426298367476
aF1.2350575972552678
asS'accel_x'
p10
F1.9999969033170975
sS'accel_y'
p11
F0.0035194775209673431
sS'maxAccel'
p12
I2
sS'maxVel'
p13
F0.5
sS'age'
p14
I150
sS'gener'
p15
S'm'
sS'lastScale'
p16
F15.301798620996209
sS'energy'
p17
F0.98017986209962094
sb.(i__main__
Data_mobile
p1
(dp2
S'vel_y'
p3
F-0.18030623839880044
sS'vel_x'
p4
F-0.46635786730200551
sS'pos_x'
p5
F144.1363368922454
sS'pos_y'
p6
F61.205366971029314
sS'isAlive'
p7
I01
sS'geno'
p8
(lp9
F2.5702619516500782
aF2.2829499865195544
aF-4.9895409876492156
aF4.8904562987467699
aF2.8804808344274324
aF-2.7897219830653852
asS'accel_x'
p10
F0.96494642708030565
sS'accel_y'
p11
F1.7518214500527591
sS'maxAccel'
p12
I2
sS'maxVel'
p13
F0.5
sS'age'
p14
I150
sS'gener'
p15
S'm'
sS'lastScale'
p16
F15.301798620996209
sS'energy'
p17
F0.98017986209962094
sb.(i__main__
Data_mobile
p1
(dp2
S'vel_y'
p3
F0.34729080957129865
sS'vel_x'
p4
F0.35970695515559886
sS'pos_x'
p5
F90.615703088837535
sS'pos_y'
p6
F-56.327171982436802
sS'isAlive'
p7
I01
sS'geno'
p8
(lp9
F-0.18660484149365097
aF-0.35663259403670367
aF1.25236962520365
aF3.7694375432007572
aF-3.6717499402223766
aF-2.7897219830653852
asS'accel_x'
p10
F-1.7545830111371712
sS'accel_y'
p11
F0.95991585934852575
sS'maxAccel'
p12
I2
sS'maxVel'
p13
F0.5
sS'age'
p14
I150
sS'gener'
p15
S'm'
sS'lastScale'
p16
F15.301798620996209
sS'energy'
p17
F0.98017986209962094
sb.(i__main__
Data_mobile
p1
(dp2
S'vel_y'
p3
F-0.49167294199093176
sS'vel_x'
p4
F0.090871987509803548
sS'pos_x'
p5
F19.083485188328929
sS'pos_y'
p6
F-36.45688724789067
sS'isAlive'
p7
I01
sS'geno'
p8
(lp9
F0.32564651670421529
aF-2.2621238050258361
aF4.3525313194303212
aF4.1872523225257989
aF1.2730364444165543
aF1.2350575972552678
asS'accel_x'
p10
F1.8246672771644366
sS'accel_y'
p11
F0.81889518721587395
sS'maxAccel'
p12
I2
sS'maxVel'
p13
F0.5
sS'age'
p14
I150
sS'gener'
p15
S'm'
sS'lastScale'
p16
F15.301798620996209
sS'energy'
p17
F0.98017986209962094
sb.(i__main__
Data_mobile
p1
(dp2
S'vel_y'
p3
F0.49158512104926017
sS'vel_x'
p4
F0.091345874362142157
sS'pos_x'
p5
F87.641614224886908
sS'pos_y'
p6
F-56.504136525999215
sS'isAlive'
p7
I01
sS'geno'
p8
(lp9
F-0.23380009166182703
aF0.21777004558991919
aF-4.7520220451608672
aF2.7875536711291087
aF-1.2720557631868634
aF0.96752029292374608
asS'accel_x'
p10
F0.55483576578909533
sS'accel_y'
p11
F1.9214987049179157
sS'maxAccel'
p12
I2
sS'maxVel'
p13
F0.5
sS'age'
p14
I150
sS'gener'
p15
S'm'
sS'lastScale'
p16
F15.301798620996209
sS'energy'
p17
F0.98017986209962094
sb.(i__main__
Data_mobile
p1
(dp2
S'vel_y'
p3
F-0.28866028042626762
sS'vel_x'
p4
F0.40825879354182754
sS'pos_x'
p5
F40.736554395431732
sS'pos_y'
p6
F67.092592434080714
sS'isAlive'
p7
I01
sS'geno'
p8
(lp9
F-1.302343598260046
aF-1.7931402213574943
aF2.3144390252171698
aF4.1176178264155823
aF0.57168463008856474
aF-2.7897219830653852
asS'accel_x'
p10
F-1.9507620337130127
sS'accel_y'
p11
F-0.44105270413395092
sS'maxAccel'
p12
I2
sS'maxVel'
p13
F0.5
sS'age'
p14
I150
sS'gener'
p15
S'm'
sS'lastScale'
p16
F15.301798620996209
sS'energy'
p17
F0.98017986209962094
sb.(i__main__
Data_mobile
p1
(dp2
S'vel_y'
p3
F-0.10003962482014746
sS'vel_x'
p4
F0.489889858504791
sS'pos_x'
p5
F88.542314640553016
sS'pos_y'
p6
F-55.401887080406247
sS'isAlive'
p7
I01
sS'geno'
p8
(lp9
F-0.92703862681314675
aF-1.7931402213574943
aF3.5655273325323371
aF2.9526485278521797
aF0.57168463008856474
aF-1.1668581019985313
asS'accel_x'
p10
F1.7119303114818361
sS'accel_y'
p11
F1.0340670232773617
sS'maxAccel'
p12
I2
sS'maxVel'
p13
F0.5
sS'age'
p14
I150
sS'gener'
p15
S'm'
sS'lastScale'
p16
F15.301798620996209
sS'energy'
p17
F0.98017986209962094
sb.(i__main__
Data_mobile
p1
(dp2
S'vel_y'
p3
F0.39311200392320234
sS'vel_x'
p4
F-0.30897079533749494
sS'pos_x'
p5
F143.42399613501021
sS'pos_y'
p6
F62.475223727567702
sS'isAlive'
p7
I01
sS'geno'
p8
(lp9
F-0.22331228370193745
aF3.0332906970037428
aF-0.48738584771018267
aF4.1872523225257989
aF1.0801426298367476
aF-1.0979883073300045
asS'accel_x'
p10
F1.9998830069332794
sS'accel_y'
p11
F-0.021632350300070723
sS'maxAccel'
p12
I2
sS'maxVel'
p13
F0.5
sS'age'
p14
I150
sS'gener'
p15
S'm'
sS'lastScale'
p16
F15.301798620996209
sS'energy'
p17
F0.98017986209962094
sb.(i__main__
Data_mobile
p1
(dp2
S'vel_y'
p3
F-0.28310153708106567
sS'vel_x'
p4
F0.41213289082811394
sS'pos_x'
p5
F56.196222997256001
sS'pos_y'
p6
F-83.098735784109337
sS'isAlive'
p7
I01
sS'geno'
p8
(lp9
F-0.92703862681314675
aF-1.7931402213574943
aF2.3144390252171698
aF4.1176178264155823
aF0.57168463008856474
aF-1.1668581019985313
asS'accel_x'
p10
F1.8819024122833499
sS'accel_y'
p11
F0.67708441913996875
sS'maxAccel'
p12
I2
sS'maxVel'
p13
F0.5
sS'age'
p14
I150
sS'gener'
p15
S'm'
sS'lastScale'
p16
F15.301798620996209
sS'energy'
p17
F0.98017986209962094
sb.(i__main__
Data_mobile
p1
(dp2
S'vel_y'
p3
F-0.085469360829518129
sS'vel_x'
p4
F-0.49264083099088896
sS'pos_x'
p5
F56.205951734468712
sS'pos_y'
p6
F-83.137386333976451
sS'isAlive'
p7
I01
sS'geno'
p8
(lp9
F0.11066828521229743
aF3.9613076389630297
aF-4.7520220451608672
aF4.1176178264155823
aF0.57168463008856474
aF-0.87264977661869947
asS'accel_x'
p10
F-0.60375052532936868
sS'accel_y'
p11
F1.9066948636749697
sS'maxAccel'
p12
I2
sS'maxVel'
p13
F0.5
sS'age'
p14
I150
sS'gener'
p15
S'm'
sS'lastScale'
p16
F15.301798620996209
sS'energy'
p17
F0.98017986209962094
sb.(i__main__
Data_mobile
p1
(dp2
S'vel_y'
p3
F-0.1958209422640152
sS'vel_x'
p4
F-0.46005886424547154
sS'pos_x'
p5
F-174.46609640789825
sS'pos_y'
p6
F42.039650387598236
sS'isAlive'
p7
I01
sS'geno'
p8
(lp9
F-0.23380009166182703
aF0.21777004558991919
aF-4.7520220451608672
aF2.9526485278521797
aF2.6739599267064591
aF1.2350575972552678
asS'accel_x'
p10
F-1.0553587066606553
sS'accel_y'
p11
F1.6988872829812895
sS'maxAccel'
p12
I2
sS'maxVel'
p13
F0.5
sS'age'
p14
I150
sS'gener'
p15
S'm'
sS'lastScale'
p16
F15.301798620996209
sS'energy'
p17
F0.98017986209962094
sb.(i__main__
Data_mobile
p1
(dp2
S'vel_y'
p3
F-0.31411388596797224
sS'vel_x'
p4
F-0.38901473833532285
sS'pos_x'
p5
F196.51419081258251
sS'pos_y'
p6
F55.567498711701987
sS'isAlive'
p7
I01
sS'geno'
p8
(lp9
F4.9672681453670382
aF-3.3847053557538374
aF-4.5144783645154369
aF4.8669910878426741
aF0.75680666490570658
aF-2.0403030210657147
asS'accel_x'
p10
F0.34378958680274502
sS'accel_y'
p11
F-1.970230626095838
sS'maxAccel'
p12
I2
sS'maxVel'
p13
F0.5
sS'age'
p14
I150
sS'gener'
p15
S'm'
sS'lastScale'
p16
F15.301798620996209
sS'energy'
p17
F0.98017986209962094
sb.(i__main__
Data_mobile
p1
(dp2
S'vel_y'
p3
F-0.42389448860866408
sS'vel_x'
p4
F0.26516685789743627
sS'pos_x'
p5
F-173.90695059664085
sS'pos_y'
p6
F42.465076864271779
sS'isAlive'
p7
I01
sS'geno'
p8
(lp9
F-0.23380009166182703
aF0.21777004558991919
aF-4.7520220451608672
aF3.0620263728708625
aF2.6739599267064591
aF1.2350575972552678
asS'accel_x'
p10
F-1.9652422549365716
sS'accel_y'
p11
F-0.3712450395787395
sS'maxAccel'
p12
I2
sS'maxVel'
p13
F0.5
sS'age'
p14
I150
sS'gener'
p15
S'm'
sS'lastScale'
p16
F15.301798620996209
sS'energy'
p17
F0.98017986209962094
sb.(i__main__
Data_mobile
p1
(dp2
S'vel_y'
p3
F-0.49060253135690463
sS'vel_x'
p4
F-0.09648396875231377
sS'pos_x'
p5
F63.569472251904173
sS'pos_y'
p6
F-1.4937797703785451
sS'isAlive'
p7
I01
sS'geno'
p8
(lp9
F0.32564651670421529
aF-2.2621238050258361
aF3.8924866826903504
aF2.819072383401017
aF-2.8059470568317022
aF-2.3231148836080751
asS'accel_x'
p10
F1.2960066049400543
sS'accel_y'
p11
F-1.5232750506562345
sS'maxAccel'
p12
I2
sS'maxVel'
p13
F0.5
sS'age'
p14
I150
sS'gener'
p15
S'm'
sS'lastScale'
p16
F15.301798620996209
sS'energy'
p17
F0.98017986209962094
sb.(i__main__
Data_mobile
p1
(dp2
S'vel_y'
p3
F0.41229111954653125
sS'vel_x'
p4
F0.2828710532081144
sS'pos_x'
p5
F-57.157702802656978
sS'pos_y'
p6
F99.013026516816907
sS'isAlive'
p7
I01
sS'geno'
p8
(lp9
F-0.65993670174602082
aF3.0450318479046814
aF-0.66605501165633463
aF3.5157613726122996
aF0.55201413345143435
aF0.92626810022228767
asS'accel_x'
p10
F-1.9259244016593351
sS'accel_y'
p11
F0.53927284290341537
sS'maxAccel'
p12
I2
sS'maxVel'
p13
F0.5
sS'age'
p14
I150
sS'gener'
p15
S'm'
sS'lastScale'
p16
F15.301798620996209
sS'energy'
p17
F0.98017986209962094
sb.(i__main__
Data_mobile
p1
(dp2
S'vel_y'
p3
F0.29182366917277486
sS'vel_x'
p4
F-0.4060036281987377
sS'pos_x'
p5
F-10.901242414411765
sS'pos_y'
p6
F-58.443530834216787
sS'isAlive'
p7
I01
sS'geno'
p8
(lp9
F-2.0940759103200124
aF-0.012388256007095144
aF1.9686553453003661
aF2.8900005734417604
aF0.75680666490570658
aF-2.0403030210657147
asS'accel_x'
p10
F0.86837730305074123
sS'accel_y'
p11
F-1.8016439325089519
sS'maxAccel'
p12
I2
sS'maxVel'
p13
F0.5
sS'age'
p14
I500
sS'gener'
p15
S'm'
sS'lastScale'
p16
F15.100000000000001
sS'energy'
p17
F0.96000000000000019
sb.(i__main__
Data_mobile
p1
(dp2
S'vel_y'
p3
F0.31078864969267972
sS'vel_x'
p4
F0.39167641647436574
sS'pos_x'
p5
F-7.8044976767813683
sS'pos_y'
p6
F-58.410059325828314
sS'isAlive'
p7
I01
sS'geno'
p8
(lp9
F-2.0940759103200124
aF-0.012388256007095144
aF1.9686553453003661
aF2.8900005734417604
aF0.75680666490570658
aF-0.84838702846869007
asS'accel_x'
p10
F0.11356000609636552
sS'accel_y'
p11
F1.9967734285630387
sS'maxAccel'
p12
I2
sS'maxVel'
p13
F0.5
sS'age'
p14
I300
sS'gener'
p15
S'm'
sS'lastScale'
p16
F15.100000022507032
sS'energy'
p17
F0.96000000225070314
sb.(i__main__
Data_mobile
p1
(dp2
S'vel_y'
p3
F-0.40032837487017014
sS'vel_x'
p4
F-0.29956166689649816
sS'pos_x'
p5
F54.871189546559862
sS'pos_y'
p6
F-81.545002165191278
sS'isAlive'
p7
I01
sS'geno'
p8
(lp9
F-0.92703862681314675
aF-2.0311506664122625
aF3.705786091433823
aF2.8900005734417604
aF0.75680666490570658
aF-1.946472227410732
asS'accel_x'
p10
F1.8933911375906138
sS'accel_y'
p11
F0.64425926465462724
sS'maxAccel'
p12
I2
sS'maxVel'
p13
F0.5
sS'age'
p14
I200
sS'gener'
p15
S'm'
sS'lastScale'
p16
F15.100067070026093
sS'energy'
p17
F0.96000670700260926
sb.(i__main__
Data_mobile
p1
(dp2
S'vel_y'
p3
F0.29315241698062094
sS'vel_x'
p4
F0.40504525724716262
sS'pos_x'
p5
F64.626579028291303
sS'pos_y'
p6
F-52.573266721575443
sS'isAlive'
p7
I01
sS'geno'
p8
(lp9
F-0.23380009166182703
aF0.21777004558991919
aF2.3144390252171698
aF4.1176178264155823
aF0.57168463008856474
aF-1.1668581019985313
asS'accel_x'
p10
F1.5429528305095688
sS'accel_y'
p11
F1.2725158399102581
sS'maxAccel'
p12
I2
sS'maxVel'
p13
F0.5
sS'age'
p14
I200
sS'gener'
p15
S'm'
sS'lastScale'
p16
F14.907540974735563
sS'energy'
p17
F0.94075409747355621
sb.(i__main__
Data_mobile
p1
(dp2
S'vel_y'
p3
F-0.40529680238664834
sS'vel_x'
p4
F-0.29280454568732039
sS'pos_x'
p5
F-9.9554151373093873
sS'pos_y'
p6
F-61.991063101198094
sS'isAlive'
p7
I01
sS'geno'
p8
(lp9
F-0.22331228370193745
aF3.0332906970037428
aF-0.48738584771018267
aF4.1872523225257989
aF0.75680666490570658
aF-2.0403030210657147
asS'accel_x'
p10
F0.83053337400700056
sS'accel_y'
p11
F1.8193994379081653
sS'maxAccel'
p12
I2
sS'maxVel'
p13
F0.5
sS'age'
p14
I200
sS'gener'
p15
S'm'
sS'lastScale'
p16
F14.904809657343849
sS'energy'
p17
F0.94048096573438489
sb.(i__main__
Data_mobile
p1
(dp2
S'vel_y'
p3
F-0.13894486287764432
sS'vel_x'
p4
F-0.4803064907742895
sS'pos_x'
p5
F-84.926041552351208
sS'pos_y'
p6
F-80.476991753401208
sS'isAlive'
p7
I01
sS'geno'
p8
(lp9
F0.32564651670421529
aF-2.2621238050258361
aF4.3525313194303212
aF2.819072383401017
aF0.33530741360834337
aF-0.94111978770595162
asS'accel_x'
p10
F-0.10812195803993924
sS'accel_y'
p11
F1.997075272038991
sS'maxAccel'
p12
I2
sS'maxVel'
p13
F0.5
sS'age'
p14
I250
sS'gener'
p15
S'm'
sS'lastScale'
p16
F14.900001843252381
sS'energy'
p17
F0.94000018432523802
sb.(i__main__
Data_mobile
p1
(dp2
S'vel_y'
p3
F-0.49126356646745395
sS'vel_x'
p4
F0.093059702673485178
sS'pos_x'
p5
F-7.2850567060336262
sS'pos_y'
p6
F-60.305873000464494
sS'isAlive'
p7
I01
sS'geno'
p8
(lp9
F-0.23380009166182703
aF0.21777004558991919
aF-2.6091436041922353
aF4.7466477592051817
aF0.43958242413259274
aF-1.0659026377598124
asS'accel_x'
p10
F1.9936728382685807
sS'accel_y'
p11
F-0.15896104538565858
sS'maxAccel'
p12
I2
sS'maxVel'
p13
F0.5
sS'age'
p14
I150
sS'gener'
p15
S'm'
sS'lastScale'
p16
F15.103597241992418
sS'energy'
p17
F0.94053958629886281
sb.(i__main__
Data_mobile
p1
(dp2
S'vel_y'
p3
F-0.28218357985331249
sS'vel_x'
p4
F-0.41276194987082948
sS'pos_x'
p5
F-57.112067852836809
sS'pos_y'
p6
F99.970016511266039
sS'isAlive'
p7
I01
sS'geno'
p8
(lp9
F0.32564651670421529
aF-2.2621238050258361
aF4.3525313194303212
aF3.8925745291350573
aF-0.19007931193356509
aF2.6034736892966626
asS'accel_x'
p10
F1.6478389984808559
sS'accel_y'
p11
F-1.1334137087072882
sS'maxAccel'
p12
I2
sS'maxVel'
p13
F0.5
sS'age'
p14
I200
sS'gener'
p15
S'm'
sS'lastScale'
p16
F14.500680770768824
sS'energy'
p17
F0.90006807707688219
sb.(i__main__
Data_mobile
p1
(dp2
S'vel_y'
p3
F-0.10746868653633578
sS'vel_x'
p4
F-0.48831391687535874
sS'pos_x'
p5
F-10.939608363793413
sS'pos_y'
p6
F-58.018770235131598
sS'isAlive'
p7
I01
sS'geno'
p8
(lp9
F-2.0940759103200124
aF-0.012388256007095144
aF1.9686553453003661
aF2.8900005734417604
aF0.75680666490570658
aF-2.0403030210657147
asS'accel_x'
p10
F-0.80785331618575462
sS'accel_y'
p11
F1.829582744651818
sS'maxAccel'
p12
I2
sS'maxVel'
p13
F0.5
sS'age'
p14
I200
sS'gener'
p15
S'm'
sS'lastScale'
p16
F14.500225245171624
sS'energy'
p17
F0.90002252451716247
sb.(i__main__
Data_mobile
p1
(dp2
S'vel_y'
p3
F-0.21533582341526539
sS'vel_x'
p4
F-0.45125434419412475
sS'pos_x'
p5
F-145.51539689214292
sS'pos_y'
p6
F-105.74531678534491
sS'isAlive'
p7
I01
sS'geno'
p8
(lp9
F0.32564651670421529
aF-2.2621238050258361
aF4.3525313194303212
aF2.819072383401017
aF-2.8059470568317022
aF-2.3231148836080751
asS'accel_x'
p10
F-1.563812485664686
sS'accel_y'
p11
F-1.2467920875908847
sS'maxAccel'
p12
I2
sS'maxVel'
p13
F0.5
sS'age'
p14
I400
sS'gener'
p15
S'm'
sS'lastScale'
p16
F14.300000000022647
sS'energy'
p17
F0.88000000000226475
sb.(i__main__
Data_mobile
p1
(dp2
S'vel_y'
p3
F-0.47768863924086213
sS'vel_x'
p4
F0.14769415675717668
sS'pos_x'
p5
F98.959477822787434
sS'pos_y'
p6
F70.792474122702856
sS'isAlive'
p7
I01
sS'geno'
p8
(lp9
F-1.3820252822376231
aF-2.2072481747561716
aF-1.7384522612080167
aF4.244619897418092
aF-4.2016815775799206
aF-3.4957920486045921
asS'accel_x'
p10
F-0.97884646840524103
sS'accel_y'
p11
F1.7440927702649847
sS'maxAccel'
p12
I2
sS'maxVel'
p13
F0.5
sS'age'
p14
I250
sS'gener'
p15
S'm'
sS'lastScale'
p16
F14.300003686504761
sS'energy'
p17
F0.88000036865047604
sb.(i__main__
Data_mobile
p1
(dp2
S'vel_y'
p3
F0.49564831603999554
sS'vel_x'
p4
F-0.065823603720220739
sS'pos_x'
p5
F15.971347816073589
sS'pos_y'
p6
F10.055005706547423
sS'isAlive'
p7
I01
sS'geno'
p8
(lp9
F3.8526486809082954
aF-1.295104703273029
aF2.3144390252171698
aF4.1176178264155823
aF0.57168463008856474
aF-1.1668581019985313
asS'accel_x'
p10
F0.57520394274229869
sS'accel_y'
p11
F-1.9155000454851767
sS'maxAccel'
p12
I2
sS'maxVel'
p13
F0.5
sS'age'
p14
I150
sS'gener'
p15
S'm'
sS'lastScale'
p16
F15.103597241992418
sS'energy'
p17
F0.86035972419924189
sb.(i__main__
Data_mobile
p1
(dp2
S'vel_y'
p3
F-0.36220811118111129
sS'vel_x'
p4
F0.34468142420880721
sS'pos_x'
p5
F179.40953698116655
sS'pos_y'
p6
F97.76315370395902
sS'isAlive'
p7
I01
sS'geno'
p8
(lp9
F0.26057662106218871
aF-4.543951755670391
aF-3.0045878307794545
aF4.6939287115267287
aF3.1221650868080841
aF4.2886649331556006
asS'accel_x'
p10
F-0.13879699748005159
sS'accel_y'
p11
F-0.87808669270305018
sS'maxAccel'
p12
I2
sS'maxVel'
p13
F0.5
sS'age'
p14
I300
sS'gener'
p15
S'm'
sS'lastScale'
p16
F13.500000151208571
sS'energy'
p17
F0.80000001512085706
sb.(i__main__
Data_mobile
p1
(dp2
S'vel_y'
p3
F0.49972839733406271
sS'vel_x'
p4
F0.016478133933464003
sS'pos_x'
p5
F165.04547296569118
sS'pos_y'
p6
F-78.003571557450229
sS'isAlive'
p7
I01
sS'geno'
p8
(lp9
F3.0454083517987014
aF2.2948500325273393
aF2.3144390252171698
aF4.1176178264155823
aF0.57168463008856474
aF-1.1668581019985313
asS'accel_x'
p10
F-1.9693797510138187
sS'accel_y'
p11
F-0.34863074491035623
sS'maxAccel'
p12
I2
sS'maxVel'
p13
F0.5
sS'age'
p14
I150
sS'gener'
p15
S'm'
sS'lastScale'
p16
F13.485611032030315
sS'energy'
p17
F0.79856110320303153
sb.(i__main__
Data_mobile
p1
(dp2
S'vel_y'
p3
F0.31462632226874226
sS'vel_x'
p4
F0.38860040830607157
sS'pos_x'
p5
F-42.360673955668268
sS'pos_y'
p6
F-19.205824009628049
sS'isAlive'
p7
I01
sS'geno'
p8
(lp9
F-0.23380009166182703
aF0.21777004558991919
aF2.3144390252171698
aF4.1176178264155823
aF0.57168463008856474
aF-1.1668581019985313
asS'accel_x'
p10
F1.3119801120689845
sS'accel_y'
p11
F1.5095390639315884
sS'maxAccel'
p12
I2
sS'maxVel'
p13
F0.5
sS'age'
p14
I250
sS'gener'
p15
S'm'
sS'lastScale'
p16
F13.265541327651242
sS'energy'
p17
F0.77655413276512431
sb.(i__main__
Data_mobile
p1
(dp2
S'vel_y'
p3
F0.16952924326434907
sS'vel_x'
p4
F0.47038264814746006
sS'pos_x'
p5
F106.59157874112368
sS'pos_y'
p6
F74.458845540124386
sS'isAlive'
p7
I01
sS'geno'
p8
(lp9
F0.32564651670421529
aF-2.2621238050258361
aF4.5357103958329263
aF3.8925745291350573
aF-0.19007931193356509
aF2.6034736892966626
asS'accel_x'
p10
F0.97550809729144927
sS'accel_y'
p11
F1.7459621851915397
sS'maxAccel'
p12
I2
sS'maxVel'
p13
F0.5
sS'age'
p14
I200
sS'gener'
p15
S'm'
sS'lastScale'
p16
F13.300656735675474
sS'energy'
p17
F0.76006902706885215
sb.(i__main__
Data_mobile
p1
(dp2
S'vel_y'
p3
F-0.49994418757768999
sS'vel_x'
p4
F-0.0074705627153224203
sS'pos_x'
p5
F38.03057860424137
sS'pos_y'
p6
F65.852372358588369
sS'isAlive'
p7
I01
sS'geno'
p8
(lp9
F-0.92703862681314675
aF-1.7931402213574943
aF2.3144390252171698
aF4.1176178264155823
aF0.57168463008856474
aF-2.7897219830653852
asS'accel_x'
p10
F-1.4089857274993325
sS'accel_y'
p11
F1.4194221428818057
sS'maxAccel'
p12
I2
sS'maxVel'
p13
F0.5
sS'age'
p14
I250
sS'gener'
p15
S'm'
sS'lastScale'
p16
F12.684570958949177
sS'energy'
p17
F0.71845709589491757
sb.(i__main__
Data_mobile
p1
(dp2
S'vel_y'
p3
F-0.13994270369056455
sS'vel_x'
p4
F0.48001670771315336
sS'pos_x'
p5
F122.09198664929899
sS'pos_y'
p6
F34.666485915924483
sS'isAlive'
p7
I01
sS'geno'
p8
(lp9
F3.8526486809082954
aF-1.295104703273029
aF2.8375496223567334
aF4.3359479876336886
aF4.4021604296056296
aF-3.4957920486045921
asS'accel_x'
p10
F1.8631009425109766
sS'accel_y'
p11
F-0.72722409064518112
sS'maxAccel'
p12
I2
sS'maxVel'
p13
F0.5
sS'age'
p14
I300
sS'gener'
p15
S'm'
sS'lastScale'
p16
F12.100000365340129
sS'energy'
p17
F0.66000003653401274
sb.(i__main__
Data_mobile
p1
(dp2
S'vel_y'
p3
F-0.26046437166911401
sS'vel_x'
p4
F-0.42680008328374724
sS'pos_x'
p5
F85.709143949504409
sS'pos_y'
p6
F25.718816684606402
sS'isAlive'
p7
I01
sS'geno'
p8
(lp9
F-0.23380009166182703
aF0.21777004558991919
aF2.8375496223567334
aF4.4281924238522823
aF4.4021604296056296
aF-1.0979883073300045
asS'accel_x'
p10
F-1.876157013328448
sS'accel_y'
p11
F-0.69284548157470016
sS'maxAccel'
p12
I2
sS'maxVel'
p13
F0.5
sS'age'
p14
I150
sS'gener'
p15
S'm'
sS'lastScale'
p16
F12.196269166412129
sS'energy'
p17
F0.66962691664121299
sb.(i__main__
Data_mobile
p1
(dp2
S'vel_y'
p3
F0.037245409189740265
sS'vel_x'
p4
F0.4986108497558881
sS'pos_x'
p5
F112.64721779228171
sS'pos_y'
p6
F50.494130893345385
sS'isAlive'
p7
I01
sS'geno'
p8
(lp9
F-0.22046537126120169
aF-4.543951755670391
aF-3.0045878307794545
aF4.6939287115267287
aF3.1221650868080841
aF4.2886649331556006
asS'accel_x'
p10
F1.8800604692670764
sS'accel_y'
p11
F-0.68218225709795532
sS'maxAccel'
p12
I2
sS'maxVel'
p13
F0.5
sS'age'
p14
I150
sS'gener'
p15
S'm'
sS'lastScale'
p16
F12.008189458614343
sS'energy'
p17
F0.65081894586143418
sb.(i__main__
Data_mobile
p1
(dp2
S'vel_y'
p3
F-0.18717744739178982
sS'vel_x'
p4
F0.46364275383952003
sS'pos_x'
p5
F149.18437080080855
sS'pos_y'
p6
F62.647581037363835
sS'isAlive'
p7
I01
sS'geno'
p8
(lp9
F3.8526486809082954
aF-1.295104703273029
aF2.8375496223567334
aF4.4281924238522823
aF4.4021604296056296
aF-1.0979883073300045
asS'accel_x'
p10
F1.9647012866329425
sS'accel_y'
p11
F0.37409738612139665
sS'maxAccel'
p12
I2
sS'maxVel'
p13
F0.5
sS'age'
p14
I500
sS'gener'
p15
S'm'
sS'lastScale'
p16
F11.700000000000024
sS'energy'
p17
F0.62000000000000244
sb.(i__main__
Data_mobile
p1
(dp2
S'vel_y'
p3
F0.036229912785285881
sS'vel_x'
p4
F-0.49868566594556391
sS'pos_x'
p5
F81.822936565426261
sS'pos_y'
p6
F34.578666644395227
sS'isAlive'
p7
I01
sS'geno'
p8
(lp9
F-2.0940759103200124
aF-0.012388256007095144
aF1.9686553453003661
aF2.8900005734417604
aF1.0801426298367476
aF1.2350575972552678
asS'accel_x'
p10
F-1.9008068818376085
sS'accel_y'
p11
F0.62203954694118013
sS'maxAccel'
p12
I2
sS'maxVel'
p13
F0.5
sS'age'
p14
I200
sS'gener'
p15
S'm'
sS'lastScale'
p16
F11.502216450748111
sS'energy'
p17
F0.60022164507481124
sb.(i__main__
Data_mobile
p1
(dp2
S'vel_y'
p3
F0.15581396152521382
sS'vel_x'
p4
F0.47510210417742754
sS'pos_x'
p5
F-150.90053092112413
sS'pos_y'
p6
F-100.83123610778287
sS'isAlive'
p7
I01
sS'geno'
p8
(lp9
F1.4788969826633194
aF3.0450318479046814
aF-0.66605501165633463
aF3.5157613726122996
aF0.1749121424816984
aF0.92626810022228767
asS'accel_x'
p10
F1.2725568357240862
sS'accel_y'
p11
F1.5429190192138733
sS'maxAccel'
p12
I2
sS'maxVel'
p13
F0.5
sS'age'
p14
I500
sS'gener'
p15
S'm'
sS'lastScale'
p16
F11.100000000000033
sS'energy'
p17
F0.56000000000000338
sb.(i__main__
Data_mobile
p1
(dp2
S'vel_y'
p3
F0.23878002672199219
sS'vel_x'
p4
F0.43929955478994587
sS'pos_x'
p5
F-152.0958835002412
sS'pos_y'
p6
F-101.19565110002536
sS'isAlive'
p7
I01
sS'geno'
p8
(lp9
F1.4788969826633194
aF3.090502828040258
aF-0.66605501165633463
aF3.5157613726122996
aF0.032379190729147078
aF0.92626810022228767
asS'accel_x'
p10
F1.9402916808330157
sS'accel_y'
p11
F0.48504452712116158
sS'maxAccel'
p12
I2
sS'maxVel'
p13
F0.5
sS'age'
p14
I350
sS'gener'
p15
S'm'
sS'lastScale'
p16
F11.100000008784502
sS'energy'
p17
F0.56000000087845025
sb.(i__main__
Data_mobile
p1
(dp2
S'vel_y'
p3
F0.49945794007723809
sS'vel_x'
p4
F-0.023275869345784534
sS'pos_x'
p5
F65.168057779289413
sS'pos_y'
p6
F0.9393998152625106
sS'isAlive'
p7
I01
sS'geno'
p8
(lp9
F2.5702619516500782
aF2.2829499865195544
aF-4.9895409876492156
aF5.0074785926345458
aF0.1749121424816984
aF0.92626810022228767
asS'accel_x'
p10
F1.5524345487542566
sS'accel_y'
p11
F-1.2609309940810274
sS'maxAccel'
p12
I2
sS'maxVel'
p13
F0.5
sS'age'
p14
I100
sS'gener'
p15
S'm'
sS'lastScale'
p16
F15.373105857863001
sS'energy'
p17
F0.98731058578630004
sb.(i__main__
Data_mobile
p1
(dp2
S'vel_y'
p3
F0.078781654668548112
sS'vel_x'
p4
F-0.49375444391689843
sS'pos_x'
p5
F44.684990738431267
sS'pos_y'
p6
F17.73005895151557
sS'isAlive'
p7
I01
sS'geno'
p8
(lp9
F0.23965863968022827
aF-0.35663259403670367
aF1.0385372400775399
aF3.7694375432007572
aF0.1749121424816984
aF1.1762281059160031
asS'accel_x'
p10
F1.7388552671492148
sS'accel_y'
p11
F-0.98812062012055646
sS'maxAccel'
p12
I2
sS'maxVel'
p13
F0.5
sS'age'
p14
I100
sS'gener'
p15
S'm'
sS'lastScale'
p16
F15.373105857863001
sS'energy'
p17
F0.98731058578630004
sb.(i__main__
Data_mobile
p1
(dp2
S'vel_y'
p3
F0.46988794204516182
sS'vel_x'
p4
F-0.17089564628908091
sS'pos_x'
p5
F173.36976374667094
sS'pos_y'
p6
F89.628507861757157
sS'isAlive'
p7
I01
sS'geno'
p8
(lp9
F-1.3820252822376231
aF2.2948500325273393
aF2.3144390252171698
aF4.1176178264155823
aF2.8804808344274324
aF-1.1668581019985313
asS'accel_x'
p10
F0.6170682072724446
sS'accel_y'
p11
F-1.9024265629909534
sS'maxAccel'
p12
I2
sS'maxVel'
p13
F0.5
sS'age'
p14
I100
sS'gener'
p15
S'm'
sS'lastScale'
p16
F15.373105857863001
sS'energy'
p17
F0.98731058578630004
sb.(i__main__
Data_mobile
p1
(dp2
S'vel_y'
p3
F-0.10917516108540223
sS'vel_x'
p4
F-0.48793522541621903
sS'pos_x'
p5
F57.430663981738277
sS'pos_y'
p6
F-81.73251285782662
sS'isAlive'
p7
I01
sS'geno'
p8
(lp9
F-0.22331228370193745
aF3.0332906970037428
aF-0.48738584771018267
aF4.1353896321006225
aF1.0801426298367476
aF1.078733745083736
asS'accel_x'
p10
F0.028896944852352956
sS'accel_y'
p11
F-1.9997912307484
sS'maxAccel'
p12
I2
sS'maxVel'
p13
F0.5
sS'age'
p14
I100
sS'gener'
p15
S'm'
sS'lastScale'
p16
F15.373105857863001
sS'energy'
p17
F0.98731058578630004
sb.(i__main__
Data_mobile
p1
(dp2
S'vel_y'
p3
F0.063230454441402226
sS'vel_x'
p4
F0.49598579579574026
sS'pos_x'
p5
F163.21535740946089
sS'pos_y'
p6
F-76.220908151804906
sS'isAlive'
p7
I01
sS'geno'
p8
(lp9
F-0.92703862681314675
aF3.0450318479046814
aF-0.66605501165633463
aF3.5157613726122996
aF-3.6717499402223766
aF-0.77212247465408812
asS'accel_x'
p10
F1.3857612372703716
sS'accel_y'
p11
F1.4421046401974056
sS'maxAccel'
p12
I2
sS'maxVel'
p13
F0.5
sS'age'
p14
I100
sS'gener'
p15
S'm'
sS'lastScale'
p16
F15.373105857863001
sS'energy'
p17
F0.98731058578630004
sb.(i__main__
Data_mobile
p1
(dp2
S'vel_y'
p3
F-0.30157850041861228
sS'vel_x'
p4
F-0.39881124367958964
sS'pos_x'
p5
F65.237181406600484
sS'pos_y'
p6
F-51.973330758270052
sS'isAlive'
p7
I01
sS'geno'
p8
(lp9
F1.4788969826633194
aF2.6322655189264506
aF-0.66605501165633463
aF3.5157613726122996
aF2.8804808344274324
aF-1.0593785521407195
asS'accel_x'
p10
F0.85806737277941147
sS'accel_y'
p11
F-1.8065769797524371
sS'maxAccel'
p12
I2
sS'maxVel'
p13
F0.5
sS'age'
p14
I100
sS'gener'
p15
S'm'
sS'lastScale'
p16
F15.373105857863001
sS'energy'
p17
F0.98731058578630004
sb.(i__main__
Data_mobile
p1
(dp2
S'vel_y'
p3
F0.34083156569469664
sS'vel_x'
p4
F0.36583308191865554
sS'pos_x'
p5
F-53.905892652302441
sS'pos_y'
p6
F15.337553421588863
sS'isAlive'
p7
I01
sS'geno'
p8
(lp9
F-0.55435768026378629
aF0.21777004558991919
aF2.3144390252171698
aF4.1176178264155823
aF2.6739599267064591
aF0.36949786636491488
asS'accel_x'
p10
F1.3857178804173733
sS'accel_y'
p11
F1.4421463018333411
sS'maxAccel'
p12
I2
sS'maxVel'
p13
F0.5
sS'age'
p14
I100
sS'gener'
p15
S'm'
sS'lastScale'
p16
F15.373105857863001
sS'energy'
p17
F0.98731058578630004
sb.(i__main__
Data_mobile
p1
(dp2
S'vel_y'
p3
F-0.2845464984838571
sS'vel_x'
p4
F0.41113658338875209
sS'pos_x'
p5
F-16.710564759373263
sS'pos_y'
p6
F-13.793639465657535
sS'isAlive'
p7
I01
sS'geno'
p8
(lp9
F-1.3820252822376231
aF-2.2072481747561716
aF-2.6091436041922353
aF4.7466477592051817
aF-0.039085553227464098
aF2.6034736892966626
asS'accel_x'
p10
F0.52258344165350157
sS'accel_y'
p11
F-1.9305197607146065
sS'maxAccel'
p12
I2
sS'maxVel'
p13
F0.5
sS'age'
p14
I100
sS'gener'
p15
S'm'
sS'lastScale'
p16
F15.373105857863001
sS'energy'
p17
F0.98731058578630004
sb.(i__main__
Data_mobile
p1
(dp2
S'vel_y'
p3
F0.40390513531119071
sS'vel_x'
p4
F0.29472129490291121
sS'pos_x'
p5
F-5.7096974109290572
sS'pos_y'
p6
F-58.659681355921336
sS'isAlive'
p7
I01
sS'geno'
p8
(lp9
F-2.0940759103200124
aF-0.012388256007095144
aF1.9686553453003661
aF2.8900005734417604
aF0.75680666490570658
aF-0.84838702846869007
asS'accel_x'
p10
F-1.9806683108821048
sS'accel_y'
p11
F0.27740411364547046
sS'maxAccel'
p12
I2
sS'maxVel'
p13
F0.5
sS'age'
p14
I100
sS'gener'
p15
S'm'
sS'lastScale'
p16
F15.246211715726002
sS'energy'
p17
F0.97462117157260009
sb.(i__main__
Data_mobile
p1
(dp2
S'vel_y'
p3
F0.22127384850936219
sS'vel_x'
p4
F0.44837248350657721
sS'pos_x'
p5
F162.95729329227154
sS'pos_y'
p6
F-73.452230192415314
sS'isAlive'
p7
I01
sS'geno'
p8
(lp9
F-1.2076464285049275
aF1.8249245211052578
aF2.3144390252171698
aF4.1176178264155823
aF-3.6717499402223766
aF-0.77212247465408812
asS'accel_x'
p10
F1.9992528373370451
sS'accel_y'
p11
F0.054663446651072402
sS'maxAccel'
p12
I2
sS'maxVel'
p13
F0.5
sS'age'
p14
I100
sS'gener'
p15
S'm'
sS'lastScale'
p16
F15.119317573589001
sS'energy'
p17
F0.96193175735890013
sb.(i__main__
Data_mobile
p1
(dp2
S'vel_y'
p3
F-0.26059986770615651
sS'vel_x'
p4
F0.42671736424890622
sS'pos_x'
p5
F-181.469044352775
sS'pos_y'
p6
F-63.623823410145185
sS'isAlive'
p7
I01
sS'geno'
p8
(lp9
F0.87614611555931421
aF3.960899806462896
aF1.5409811541675777
aF2.5971870967405462
aF0.75680666490570658
aF-0.40730917425551827
asS'accel_x'
p10
F1.2938783154015012
sS'accel_y'
p11
F-1.5250832452472138
sS'maxAccel'
p12
I2
sS'maxVel'
p13
F0.5
sS'age'
p14
I100
sS'gener'
p15
S'm'
sS'lastScale'
p16
F15.373105857863001
sS'energy'
p17
F0.93725036427966646
sb.(i__main__
Data_mobile
p1
(dp2
S'vel_y'
p3
F0.29687990323696861
sS'vel_x'
p4
F-0.40232116903539655
sS'pos_x'
p5
F66.124785314961301
sS'pos_y'
p6
F-52.021024256472664
sS'isAlive'
p7
I01
sS'geno'
p8
(lp9
F1.4788969826633194
aF3.0450318479046814
aF-0.66605501165633463
aF3.5157613726122996
aF-2.3244378772504293
aF-2.3231148836080751
asS'accel_x'
p10
F-1.5671229928981016
sS'accel_y'
p11
F-1.242628474295554
sS'maxAccel'
p12
I2
sS'maxVel'
p13
F0.5
sS'age'
p14
I100
sS'gener'
p15
S'm'
sS'lastScale'
p16
F14.796286089387404
sS'energy'
p17
F0.92962860893874055
sb.(i__main__
Data_mobile
p1
(dp2
S'vel_y'
p3
F-0.26110413104205288
sS'vel_x'
p4
F-0.42640899703544538
sS'pos_x'
p5
F-172.18559048048189
sS'pos_y'
p6
F107.35606529040317
sS'isAlive'
p7
I01
sS'geno'
p8
(lp9
F1.4788969826633194
aF3.0450318479046814
aF-0.35147223796551952
aF3.5157613726122996
aF0.74728928717367182
aF-0.57817398432854539
asS'accel_x'
p10
F-1.639247054441076
sS'accel_y'
p11
F-1.1458049984645098
sS'maxAccel'
p12
I2
sS'maxVel'
p13
F0.5
sS'age'
p14
I250
sS'gener'
p15
S'm'
sS'lastScale'
p16
F10.100226279144607
sS'energy'
p17
F0.46002262791446069
sb.(i__main__
Data_mobile
p1
(dp2
S'vel_y'
p3
F-0.49568540557824797
sS'vel_x'
p4
F-0.065543715920962628
sS'pos_x'
p5
F45.024459451345678
sS'pos_y'
p6
F20.619218795309511
sS'isAlive'
p7
I01
sS'geno'
p8
(lp9
F0.29178837664005586
aF-2.2621238050258361
aF4.3525313194303212
aF2.3234022177031153
aF0.1749121424816984
aF0.71717825869389995
asS'accel_x'
p10
F1.4119741969330089
sS'accel_y'
p11
F1.4164493874457307
sS'maxAccel'
p12
I2
sS'maxVel'
p13
F0.5
sS'age'
p14
I100
sS'gener'
p15
S'm'
sS'lastScale'
p16
F14.665562824328049
sS'energy'
p17
F0.89655963593410948
sb.(i__main__
Data_mobile
p1
(dp2
S'vel_y'
p3
F0.16174843698270311
sS'vel_x'
p4
F0.47311461944612582
sS'pos_x'
p5
F-142.60265131589571
sS'pos_y'
p6
F-98.228044174211007
sS'isAlive'
p7
I01
sS'geno'
p8
(lp9
F1.4788969826633194
aF3.0450318479046814
aF4.5357103958329263
aF3.8925745291350573
aF-0.19007931193356509
aF2.6034736892966626
asS'accel_x'
p10
F1.9633314923234844
sS'accel_y'
p11
F0.38122100053753621
sS'maxAccel'
p12
I2
sS'maxVel'
p13
F0.5
sS'age'
p14
I100
sS'gener'
p15
S'm'
sS'lastScale'
p16
F13.766524014139121
sS'energy'
p17
F0.82665240141391216
sb.(i__main__
Data_mobile
p1
(dp2
S'vel_y'
p3
F-0.19644878576424107
sS'vel_x'
p4
F0.45979112058820287
sS'pos_x'
p5
F55.080839274701752
sS'pos_y'
p6
F-55.236976170070044
sS'isAlive'
p7
I01
sS'geno'
p8
(lp9
F-2.0940759103200124
aF3.3623653295148235
aF-1.7849983759800383
aF4.244619897418092
aF-4.2016815775799206
aF-3.4957920486045921
asS'accel_x'
p10
F1.9769234187124354
sS'accel_y'
p11
F-0.30294190292255102
sS'maxAccel'
p12
I2
sS'maxVel'
p13
F0.5
sS'age'
p14
I150
sS'gener'
p15
S'm'
sS'lastScale'
p16
F9.2918107911910344
sS'energy'
p17
F0.37918107911910354
sb.(i__main__
Data_mobile
p1
(dp2
S'vel_y'
p3
F0.3267837843158265
sS'vel_x'
p4
F0.37843408713833832
sS'pos_x'
p5
F-45.42337939399242
sS'pos_y'
p6
F-21.984328687619797
sS'isAlive'
p7
I01
sS'geno'
p8
(lp9
F0.32564651670421529
aF-2.2621238050258361
aF-4.6054688476004344
aF3.8925745291350573
aF2.6739599267064591
aF0.36949786636491488
asS'accel_x'
p10
F1.7166018813826642
sS'accel_y'
p11
F1.0262933210508085
sS'maxAccel'
p12
I2
sS'maxVel'
p13
F0.5
sS'age'
p14
I250
sS'gener'
p15
S'm'
sS'lastScale'
p16
F9.5205551427809123
sS'energy'
p17
F0.3693661000850027
sb.(i__main__
Data_mobile
p1
(dp2
S'vel_y'
p3
F-0.23157919091113444
sS'vel_x'
p4
F-0.44313776451228387
sS'pos_x'
p5
F20.576032754781057
sS'pos_y'
p6
F-30.509870011096272
sS'isAlive'
p7
I01
sS'geno'
p8
(lp9
F-2.0940759103200124
aF0.2052594732578048
aF2.3242412289007128
aF3.1689734099469744
aF0.593469611532085
aF-0.88865332885528137
asS'accel_x'
p10
F-1.6297825200221532
sS'accel_y'
p11
F-1.1592277332044123
sS'maxAccel'
p12
I2
sS'maxVel'
p13
F0.5
sS'age'
p14
I200
sS'gener'
p15
S'm'
sS'lastScale'
p16
F9.1068716896431354
sS'energy'
p17
F0.36068716896431358
sb.(i__main__
Data_mobile
p1
(dp2
S'vel_y'
p3
F0.27702822531595794
sS'vel_x'
p4
F-0.41623954927215989
sS'pos_x'
p5
F-129.67795982396262
sS'pos_y'
p6
F66.048710257096616
sS'isAlive'
p7
I01
sS'geno'
p8
(lp9
F4.5775511733188363
aF3.3400959445788825
aF-1.7857095376764476
aF4.244619897418092
aF-4.2016815775799206
aF-3.4957920486045921
asS'accel_x'
p10
F-1.5283284249826177
sS'accel_y'
p11
F1.2900434974798918
sS'maxAccel'
p12
I2
sS'maxVel'
p13
F0.5
sS'age'
p14
I150
sS'gener'
p15
S'm'
sS'lastScale'
p16
F8.5993873597390333
sS'energy'
p17
F0.30993873597390342
sb.(i__main__
Data_mobile
p1
(dp2
S'vel_y'
p3
F-0.47319321010821086
sS'vel_x'
p4
F0.16151837637707531
sS'pos_x'
p5
F70.578866351776057
sS'pos_y'
p6
F105.61669635438042
sS'isAlive'
p7
I01
sS'geno'
p8
(lp9
F0.16690538018485324
aF3.9613076389630297
aF-2.6091436041922353
aF4.7466477592051817
aF0.43958242413259274
aF-0.57817398432854539
asS'accel_x'
p10
F-1.2327140302654058
sS'accel_y'
p11
F-1.5749336873617314
sS'maxAccel'
p12
I2
sS'maxVel'
p13
F0.5
sS'age'
p14
I100
sS'gener'
p15
S'm'
sS'lastScale'
p16
F11.47488062254968
sS'energy'
p17
F0.59748806225496809
sb.(i__main__
Data_mobile
p1
(dp2
S'vel_y'
p3
F-0.1159049679045267
sS'vel_x'
p4
F-0.48638054896865546
sS'pos_x'
p5
F-206.4373592914389
sS'pos_y'
p6
F92.114115844986557
sS'isAlive'
p7
I01
sS'geno'
p8
(lp9
F3.5095103126191347
aF2.2948500325273393
aF2.3144390252171698
aF4.1176178264155823
aF0.57168463008856474
aF-1.1668581019985313
asS'accel_x'
p10
F-1.9089589943897223
sS'accel_y'
p11
F-0.59655306364025951
sS'maxAccel'
p12
I2
sS'maxVel'
p13
F0.5
sS'age'
p14
I150
sS'gener'
p15
S'm'
sS'lastScale'
p16
F8.4262815018760335
sS'energy'
p17
F0.29262815018760341
sb.(i__main__
Data_mobile
p1
(dp2
S'vel_y'
p3
F-0.21370048871484892
sS'vel_x'
p4
F-0.4520310842442527
sS'pos_x'
p5
F49.050734713602232
sS'pos_y'
p6
F-53.556876413148103
sS'isAlive'
p7
I01
sS'geno'
p8
(lp9
F-0.92703862681314675
aF-1.7931402213574943
aF2.3144390252171698
aF4.1176178264155823
aF0.57168463008856474
aF-2.7897219830653852
asS'accel_x'
p10
F-1.3307656721770114
sS'accel_y'
p11
F0.098499545995165416
sS'maxAccel'
p12
I2
sS'maxVel'
p13
F0.5
sS'age'
p14
I100
sS'gener'
p15
S'm'
sS'lastScale'
p16
F11.173718498123961
sS'energy'
p17
F0.56737184981239608
sb.(i__main__
Data_mobile
p1
(dp2
S'vel_y'
p3
F0.48917699435983847
sS'vel_x'
p4
F-0.10346916540242571
sS'pos_x'
p5
F65.406233930603534
sS'pos_y'
p6
F105.85018844266554
sS'isAlive'
p7
I01
sS'geno'
p8
(lp9
F0.32564651670421529
aF-2.2621238050258361
aF-0.66605501165633463
aF3.8926449621104569
aF0.1749121424816984
aF0.92626810022228767
asS'accel_x'
p10
F1.4953279190732407
sS'accel_y'
p11
F1.3281545145200884
sS'maxAccel'
p12
I2
sS'maxVel'
p13
F0.5
sS'age'
p14
I100
sS'gener'
p15
S'm'
sS'lastScale'
p16
F11.167830565480866
sS'energy'
p17
F0.56678305654808669
sb.(i__main__
Data_mobile
p1
(dp2
S'vel_y'
p3
F-0.19598030539338673
sS'vel_x'
p4
F0.45999099980099051
sS'pos_x'
p5
F-209.21509143839594
sS'pos_y'
p6
F93.082089443687437
sS'isAlive'
p7
I01
sS'geno'
p8
(lp9
F3.5095103126191347
aF2.2948500325273393
aF2.3144390252171698
aF4.1176178264155823
aF0.57168463008856474
aF-1.1668581019985313
asS'accel_x'
p10
F-1.8594978535196653
sS'accel_y'
p11
F0.73638830297320512
sS'maxAccel'
p12
I2
sS'maxVel'
p13
F0.5
sS'age'
p14
I250
sS'gener'
p15
S'm'
sS'lastScale'
p16
F8.3001522423990171
sS'energy'
p17
F0.28001522423990172
sb.(i__main__
Data_mobile
p1
(dp2
S'vel_y'
p3
F-0.12328352064295117
sS'vel_x'
p4
F-0.48456286850921526
sS'pos_x'
p5
F203.80980233530454
sS'pos_y'
p6
F93.553590808654718
sS'isAlive'
p7
I01
sS'geno'
p8
(lp9
F2.5702619516500782
aF2.2829499865195544
aF-4.9895409876492156
aF4.8904562987467699
aF2.8804808344274324
aF-1.1668581019985313
asS'accel_x'
p10
F-0.18873236541310964
sS'accel_y'
p11
F-1.9910751101466695
sS'maxAccel'
p12
I2
sS'maxVel'
p13
F0.5
sS'age'
p14
I300
sS'gener'
p15
S'm'
sS'lastScale'
p16
F8.3000023590741421
sS'energy'
p17
F0.2800002359074143
sb.(i__main__
Data_mobile
p1
(dp2
S'vel_y'
p3
F0.037408270965841359
sS'vel_x'
p4
F0.49859865750255106
sS'pos_x'
p5
F-194.48043936678823
sS'pos_y'
p6
F-92.679638771416123
sS'isAlive'
p7
I01
sS'geno'
p8
(lp9
F1.4788969826633194
aF3.0450318479046814
aF-0.66605501165633463
aF2.9526485278521797
aF2.6739599267064591
aF1.2350575972552678
asS'accel_x'
p10
F1.6443576673475833
sS'accel_y'
p11
F1.1384585463841952
sS'maxAccel'
p12
I2
sS'maxVel'
p13
F0.5
sS'age'
p14
I350
sS'gener'
p15
S'm'
sS'lastScale'
p16
F8.3000000353403607
sS'energy'
p17
F0.28000000353403609
sb.(i__main__
Data_mobile
p1
(dp2
S'vel_y'
p3
F-0.44052550925569839
sS'vel_x'
p4
F-0.23651062490934219
sS'pos_x'
p5
F204.0708744701071
sS'pos_y'
p6
F105.52468758860731
sS'isAlive'
p7
I01
sS'geno'
p8
(lp9
F3.8526486809082954
aF-1.763946020107992
aF2.8375496223567334
aF4.4281924238522823
aF4.3577719393105765
aF-0.94111978770595162
asS'accel_x'
p10
F-0.59217914062204591
sS'accel_y'
p11
F-1.786658804769091
sS'maxAccel'
p12
I2
sS'maxVel'
p13
F0.5
sS'age'
p14
I150
sS'gener'
p15
S'm'
sS'lastScale'
p16
F7.5707419057824712
sS'energy'
p17
F0.20707419057824719
sb.(i__main__
Data_mobile
p1
(dp2
S'vel_y'
p3
F-0.37670448350328972
sS'vel_x'
p4
F0.32877611243598537
sS'pos_x'
p5
F53.181195158079859
sS'pos_y'
p6
F-82.265542370105393
sS'isAlive'
p7
I01
sS'geno'
p8
(lp9
F-1.3820252822376231
aF-2.2072481747561716
aF3.5655273325323371
aF2.8900005734417604
aF0.75680666490570658
aF-2.0403030210657147
asS'accel_x'
p10
F-0.85718520191076542
sS'accel_y'
p11
F-1.8069957193156825
sS'maxAccel'
p12
I2
sS'maxVel'
p13
F0.5
sS'age'
p14
I250
sS'gener'
p15
S'm'
sS'lastScale'
p16
F7.0388961982079792
sS'energy'
p17
F0.15388961982079796
sb.(i__main__
Data_mobile
p1
(dp2
S'vel_y'
p3
F-0.005660425805858643
sS'vel_x'
p4
F-0.49996795855304205
sS'pos_x'
p5
F70.446434526422848
sS'pos_y'
p6
F105.311108296036
sS'isAlive'
p7
I01
sS'geno'
p8
(lp9
F2.5702619516500782
aF2.2829499865195544
aF-4.9895409876492156
aF4.8904562987467699
aF2.8804808344274324
aF-2.7897219830653852
asS'accel_x'
p10
F-1.0899482299278767
sS'accel_y'
p11
F1.6769057385783761
sS'maxAccel'
p12
I2
sS'maxVel'
p13
F0.5
sS'age'
p14
I100
sS'gener'
p15
S'm'
sS'lastScale'
p16
F8.0402913847560491
sS'energy'
p17
F0.24133972426190486
sb.(i__main__
Data_mobile
p1
(dp2
S'vel_y'
p3
F0.12023129379990008
sS'vel_x'
p4
F-0.48532920372794597
sS'pos_x'
p5
F69.518419554014727
sS'pos_y'
p6
F109.4275254767731
sS'isAlive'
p7
I01
sS'geno'
p8
(lp9
F3.8526486809082954
aF3.0450318479046814
aF-0.66605501165633463
aF3.5157613726122996
aF0.74728928717367182
aF-0.57817398432854539
asS'accel_x'
p10
F-0.74211075811023808
sS'accel_y'
p11
F1.8572214791717889
sS'maxAccel'
p12
I2
sS'maxVel'
p13
F0.5
sS'age'
p14
I150
sS'gener'
p15
S'm'
sS'lastScale'
p16
F6.6665873724292126
sS'energy'
p17
F0.11665873724292133
sb.(i__main__
Data_mobile
p1
(dp2
S'vel_y'
p3
F0.19132223792925601
sS'vel_x'
p4
F0.46194783393121469
sS'pos_x'
p5
F-55.302258787965201
sS'pos_y'
p6
F-16.541284942979416
sS'isAlive'
p7
I01
sS'geno'
p8
(lp9
F-2.0940759103200124
aF-0.012388256007095144
aF1.9686553453003661
aF2.8900005734417604
aF1.2756191843780131
aF0.81709144730560268
asS'accel_x'
p10
F1.8724714440427499
sS'accel_y'
p11
F0.70274511114945393
sS'maxAccel'
p12
I2
sS'maxVel'
p13
F0.5
sS'age'
p14
I100
sS'gener'
p15
S'm'
sS'lastScale'
p16
F6.8514438934417523
sS'energy'
p17
F0.12507746083493249
sb.(i__main__
Data_mobile
p1
(dp2
S'vel_y'
p3
F0.48193250396801957
sS'vel_x'
p4
F-0.13319557657488018
sS'pos_x'
p5
F-58.073034706668452
sS'pos_y'
p6
F98.927069990750695
sS'isAlive'
p7
I01
sS'geno'
p8
(lp9
F0.32564651670421529
aF-2.2621238050258361
aF4.3525313194303212
aF3.8925745291350573
aF-0.19007931193356509
aF1.2350575972552678
asS'accel_x'
p10
F-1.7703826925239132
sS'accel_y'
p11
F0.93045425573306895
sS'maxAccel'
p12
I2
sS'maxVel'
p13
F0.5
sS'age'
p14
I50
sS'gener'
p15
S'm'
sS'lastScale'
p16
F15.39933071490757
sS'energy'
p17
F0.98993307149075715
sb.(i__main__
Data_mobile
p1
(dp2
S'vel_y'
p3
F-0.49284916170647786
sS'vel_x'
p4
F0.084259740120783841
sS'pos_x'
p5
F47.024042807172236
sS'pos_y'
p6
F16.638620487317144
sS'isAlive'
p7
I01
sS'geno'
p8
(lp9
F0.17326145352380884
aF-2.1517137837903011
aF4.3525313194303212
aF4.1872523225257989
aF1.2730364444165543
aF1.2350575972552678
asS'accel_x'
p10
F1.8376551087858022
sS'accel_y'
p11
F-0.78931850425125705
sS'maxAccel'
p12
I2
sS'maxVel'
p13
F0.5
sS'age'
p14
I50
sS'gener'
p15
S'm'
sS'lastScale'
p16
F15.39933071490757
sS'energy'
p17
F0.98993307149075715
sb.(i__main__
Data_mobile
p1
(dp2
S'vel_y'
p3
F-0.44083568230079712
sS'vel_x'
p4
F-0.23593198428867307
sS'pos_x'
p5
F-115.68510047823996
sS'pos_y'
p6
F-95.376429125503321
sS'isAlive'
p7
I01
sS'geno'
p8
(lp9
F0.32564651670421529
aF3.0450318479046814
aF-0.51425104344663175
aF3.5157613726122996
aF0.1749121424816984
aF-2.3231148836080751
asS'accel_x'
p10
F-1.9360749531434223
sS'accel_y'
p11
F0.50161117990999282
sS'maxAccel'
p12
I2
sS'maxVel'
p13
F0.5
sS'age'
p14
I50
sS'gener'
p15
S'm'
sS'lastScale'
p16
F15.39933071490757
sS'energy'
p17
F0.98993307149075715
sb.(i__main__
Data_mobile
p1
(dp2
S'vel_y'
p3
F0.31083126387440729
sS'vel_x'
p4
F-0.39164259905970206
sS'pos_x'
p5
F-121.07197696238404
sS'pos_y'
p6
F69.196742037683762
sS'isAlive'
p7
I01
sS'geno'
p8
(lp9
F-2.0940759103200124
aF-0.012388256007095144
aF1.9686553453003661
aF2.8900005734417604
aF0.74728928717367182
aF-0.57817398432854539
asS'accel_x'
p10
F1.6712906288921086
sS'accel_y'
p11
F-1.0985388631165578
sS'maxAccel'
p12
I2
sS'maxVel'
p13
F0.5
sS'age'
p14
I50
sS'gener'
p15
S'm'
sS'lastScale'
p16
F15.39933071490757
sS'energy'
p17
F0.98993307149075715
sb.(i__main__
Data_mobile
p1
(dp2
S'vel_y'
p3
F0.48206779359917878
sS'vel_x'
p4
F0.13270509551038159
sS'pos_x'
p5
F16.919543069266222
sS'pos_y'
p6
F-36.977360008660312
sS'isAlive'
p7
I01
sS'geno'
p8
(lp9
F-2.0940759103200124
aF3.3623653295148235
aF-1.7849983759800383
aF4.7466477592051817
aF0.39733380272451979
aF-1.0659026377598124
asS'accel_x'
p10
F0.70434990487813598
sS'accel_y'
p11
F-1.8718683745119904
sS'maxAccel'
p12
I2
sS'maxVel'
p13
F0.5
sS'age'
p14
I50
sS'gener'
p15
S'm'
sS'lastScale'
p16
F15.39933071490757
sS'energy'
p17
F0.98993307149075715
sb.(i__main__
Data_mobile
p1
(dp2
S'vel_y'
p3
F-0.45123205640968794
sS'vel_x'
p4
F-0.21538252312637676
sS'pos_x'
p5
F143.55789128868668
sS'pos_y'
p6
F60.254491157527518
sS'isAlive'
p7
I01
sS'geno'
p8
(lp9
F0.32564651670421529
aF-2.2621238050258361
aF4.5357103958329263
aF3.8925745291350573
aF-0.072323179811555227
aF0.92626810022228767
asS'accel_x'
p10
F0.59628399348210948
sS'accel_y'
p11
F-1.9090430584764264
sS'maxAccel'
p12
I2
sS'maxVel'
p13
F0.5
sS'age'
p14
I50
sS'gener'
p15
S'm'
sS'lastScale'
p16
F15.39933071490757
sS'energy'
p17
F0.98993307149075715
sb.(i__main__
Data_mobile
p1
(dp2
S'vel_y'
p3
F0.32901249250244252
sS'vel_x'
p4
F0.37649804750799193
sS'pos_x'
p5
F57.814613259333825
sS'pos_y'
p6
F-82.875117856693834
sS'isAlive'
p7
I01
sS'geno'
p8
(lp9
F2.5702619516500782
aF2.2829499865195544
aF-4.9895409876492156
aF4.8904562987467699
aF2.8447096337286335
aF-1.0659026377598124
asS'accel_x'
p10
F0.15935882129228224
sS'accel_y'
p11
F1.9936410825613355
sS'maxAccel'
p12
I2
sS'maxVel'
p13
F0.5
sS'age'
p14
I50
sS'gener'
p15
S'm'
sS'lastScale'
p16
F15.39933071490757
sS'energy'
p17
F0.98993307149075715
sb.(i__main__
Data_mobile
p1
(dp2
S'vel_y'
p3
F-0.45436668581012474
sS'vel_x'
p4
F-0.20868855940353653
sS'pos_x'
p5
F-85.058685747575893
sS'pos_y'
p6
F-78.198461017737529
sS'isAlive'
p7
I01
sS'geno'
p8
(lp9
F-2.0940759103200124
aF-2.9759248200358179
aF-4.6054688476004344
aF3.8925745291350573
aF-0.19007931193356509
aF-2.3231148836080751
asS'accel_x'
p10
F-1.9982596918285782
sS'accel_y'
p11
F0.083415849891709984
sS'maxAccel'
p12
I2
sS'maxVel'
p13
F0.5
sS'age'
p14
I50
sS'gener'
p15
S'm'
sS'lastScale'
p16
F15.39933071490757
sS'energy'
p17
F0.98993307149075715
sb.(i__main__
Data_mobile
p1
(dp2
S'vel_y'
p3
F0.38945730116267413
sS'vel_x'
p4
F0.3135650021464228
sS'pos_x'
p5
F139.68212868491585
sS'pos_y'
p6
F-14.556995855000743
sS'isAlive'
p7
I01
sS'geno'
p8
(lp9
F1.4788969826633194
aF3.0450318479046814
aF-0.66605501165633463
aF4.3359479876336886
aF2.8804808344274324
aF-2.7897219830653852
asS'accel_x'
p10
F0.21399531138669195
sS'accel_y'
p11
F1.9885185457280787
sS'maxAccel'
p12
I2
sS'maxVel'
p13
F0.5
sS'age'
p14
I50
sS'gener'
p15
S'm'
sS'lastScale'
p16
F15.39933071490757
sS'energy'
p17
F0.98993307149075715
sb.(i__main__
Data_mobile
p1
(dp2
S'vel_y'
p3
F0.41012253037933982
sS'vel_x'
p4
F-0.28600613642935618
sS'pos_x'
p5
F17.153620734829005
sS'pos_y'
p6
F-36.417426027908576
sS'isAlive'
p7
I01
sS'geno'
p8
(lp9
F-0.65993670174602082
aF3.4709860338523253
aF-0.66605501165633463
aF3.5157613726122996
aF0.55201413345143435
aF0.92626810022228767
asS'accel_x'
p10
F-0.063915124506468149
sS'accel_y'
p11
F-1.9989784533254287
sS'maxAccel'
p12
I2
sS'maxVel'
p13
F0.5
sS'age'
p14
I50
sS'gener'
p15
S'm'
sS'lastScale'
p16
F15.39933071490757
sS'energy'
p17
F0.98993307149075715
sb.(i__main__
Data_mobile
p1
(dp2
S'vel_y'
p3
F-0.22983511590124142
sS'vel_x'
p4
F0.44404483951360468
sS'pos_x'
p5
F40.688178179836186
sS'pos_y'
p6
F70.029449330317107
sS'isAlive'
p7
I01
sS'geno'
p8
(lp9
F3.8526486809082954
aF-1.0053839614420148
aF2.8375496223567334
aF4.4281924238522823
aF4.4021604296056296
aF-1.0979883073300045
asS'accel_x'
p10
F-1.4711260331899341
sS'accel_y'
p11
F-1.3549126150681636
sS'maxAccel'
p12
I2
sS'maxVel'
p13
F0.5
sS'age'
p14
I50
sS'gener'
p15
S'm'
sS'lastScale'
p16
F15.39933071490757
sS'energy'
p17
F0.98993307149075715
sb.(i__main__
Data_mobile
p1
(dp2
S'vel_y'
p3
F0.30308595201288857
sS'vel_x'
p4
F0.39766682749814697
sS'pos_x'
p5
F90.203458630621796
sS'pos_y'
p6
F-57.612881469124979
sS'isAlive'
p7
I01
sS'geno'
p8
(lp9
F2.5702619516500782
aF2.0314370075686856
aF-4.9895409876492156
aF4.8904562987467699
aF4.3699295416748498
aF-3.4957920486045921
asS'accel_x'
p10
F1.0059491113557697
sS'accel_y'
p11
F1.7286024370463375
sS'maxAccel'
p12
I2
sS'maxVel'
p13
F0.5
sS'age'
p14
I50
sS'gener'
p15
S'm'
sS'lastScale'
p16
F15.39933071490757
sS'energy'
p17
F0.98993307149075715
sb.(i__main__
Data_mobile
p1
(dp2
S'vel_y'
p3
F-0.0021896327416745702
sS'vel_x'
p4
F-0.49999520548546922
sS'pos_x'
p5
F-89.105853676140612
sS'pos_y'
p6
F-78.665674315954377
sS'isAlive'
p7
I01
sS'geno'
p8
(lp9
F0.53193077603226235
aF-2.2621238050258361
aF4.3525313194303212
aF4.1176178264155823
aF0.57168463008856474
aF-1.1668581019985313
asS'accel_x'
p10
F0.39551988238181868
sS'accel_y'
p11
F1.9605009621626488
sS'maxAccel'
p12
I2
sS'maxVel'
p13
F0.5
sS'age'
p14
I50
sS'gener'
p15
S'm'
sS'lastScale'
p16
F15.298661429815143
sS'energy'
p17
F0.97986614298151431
sb.(i__main__
Data_mobile
p1
(dp2
S'vel_y'
p3
F-0.29968609483032377
sS'vel_x'
p4
F0.40023523653640264
sS'pos_x'
p5
F15.274040194893894
sS'pos_y'
p6
F-35.681468932134536
sS'isAlive'
p7
I01
sS'geno'
p8
(lp9
F-2.0940759103200124
aF0.2052594732578048
aF2.3242412289007128
aF3.1689734099469744
aF0.43958242413259274
aF-1.0659026377598124
asS'accel_x'
p10
F1.5929572802559897
sS'accel_y'
p11
F-1.2093333300953213
sS'maxAccel'
p12
I2
sS'maxVel'
p13
F0.5
sS'age'
p14
I50
sS'gener'
p15
S'm'
sS'lastScale'
p16
F15.197992144722715
sS'energy'
p17
F0.96979921447227146
sb.(i__main__
Data_mobile
p1
(dp2
S'vel_y'
p3
F-0.3319752762193553
sS'vel_x'
p4
F0.37388823995825649
sS'pos_x'
p5
F-84.872374766773888
sS'pos_y'
p6
F-74.587042466333216
sS'isAlive'
p7
I01
sS'geno'
p8
(lp9
F-0.021435456338214198
aF-2.2621238050258361
aF4.3525313194303212
aF2.819072383401017
aF-2.8059470568317022
aF0.92626810022228767
asS'accel_x'
p10
F-0.54183097167661798
sS'accel_y'
p11
F-1.9252062741773859
sS'maxAccel'
p12
I2
sS'maxVel'
p13
F0.5
sS'age'
p14
I50
sS'gener'
p15
S'm'
sS'lastScale'
p16
F15.097322859630285
sS'energy'
p17
F0.95973228596302862
sb.(i__main__
Data_mobile
p1
(dp2
S'vel_y'
p3
F0.36732638576630094
sS'vel_x'
p4
F-0.33922164777600311
sS'pos_x'
p5
F14.753102755304006
sS'pos_y'
p6
F-39.647826697645982
sS'isAlive'
p7
I01
sS'geno'
p8
(lp9
F1.2964744357332716
aF2.7011747204587571
aF-0.66605501165633463
aF3.5157613726122996
aF-2.3244378772504293
aF-2.3231148836080751
asS'accel_x'
p10
F0.35323722128809343
sS'accel_y'
p11
F-1.9685587279775696
sS'maxAccel'
p12
I2
sS'maxVel'
p13
F0.5
sS'age'
p14
I50
sS'gener'
p15
S'm'
sS'lastScale'
p16
F15.097322859630285
sS'energy'
p17
F0.95973228596302862
sb.(i__main__
Data_mobile
p1
(dp2
S'vel_y'
p3
F-0.47274381798865195
sS'vel_x'
p4
F0.16282899788892749
sS'pos_x'
p5
F147.5876148249946
sS'pos_y'
p6
F62.515732964412102
sS'isAlive'
p7
I01
sS'geno'
p8
(lp9
F3.8526486809082954
aF-1.295104703273029
aF2.8375496223567334
aF4.4281924238522823
aF4.4021604296056296
aF-1.0979883073300045
asS'accel_x'
p10
F-1.9853125397637037
sS'accel_y'
p11
F0.24193825546405962
sS'maxAccel'
p12
I2
sS'maxVel'
p13
F0.5
sS'age'
p14
I50
sS'gener'
p15
S'm'
sS'lastScale'
p16
F15.097322859630285
sS'energy'
p17
F0.95973228596302862
sb.(i__main__
Data_mobile
p1
(dp2
S'vel_y'
p3
F-0.49864113483486833
sS'vel_x'
p4
F-0.036837734058905829
sS'pos_x'
p5
F98.706141684718176
sS'pos_y'
p6
F70.852351093770025
sS'isAlive'
p7
I01
sS'geno'
p8
(lp9
F-0.22331228370193745
aF3.0332906970037428
aF-0.48738584771018267
aF4.1872523225257989
aF1.0801426298367476
aF-1.0979883073300045
asS'accel_x'
p10
F0.77802842753528878
sS'accel_y'
p11
F-1.8424635046445195
sS'maxAccel'
p12
I2
sS'maxVel'
p13
F0.5
sS'age'
p14
I50
sS'gener'
p15
S'm'
sS'lastScale'
p16
F14.795315004353002
sS'energy'
p17
F0.92953150043530008
sb.(i__main__
Data_mobile
p1
(dp2
S'vel_y'
p3
F0.49691055752211655
sS'vel_x'
p4
F-0.055496827144074209
sS'pos_x'
p5
F-37.533884192898597
sS'pos_y'
p6
F60.816937589199654
sS'isAlive'
p7
I01
sS'geno'
p8
(lp9
F-0.23380009166182703
aF0.21777004558991919
aF-4.7520220451608672
aF4.1176178264155823
aF0.57168463008856474
aF-0.87264977661869947
asS'accel_x'
p10
F0.99305536782285564
sS'accel_y'
p11
F1.7360417726651085
sS'maxAccel'
p12
I2
sS'maxVel'
p13
F0.5
sS'age'
p14
I50
sS'gener'
p15
S'm'
sS'lastScale'
p16
F15.167094639161252
sS'energy'
p17
F0.91402004970318018
sb.(i__main__
Data_mobile
p1
(dp2
S'vel_y'
p3
F-0.015159529429133289
sS'vel_x'
p4
F-0.49977013582995061
sS'pos_x'
p5
F80.152407828370372
sS'pos_y'
p6
F39.570352853648366
sS'isAlive'
p7
I01
sS'geno'
p8
(lp9
F-2.0940759103200124
aF-0.012388256007095144
aF1.9686553453003661
aF3.0176604522597068
aF1.0801426298367476
aF1.2350575972552678
asS'accel_x'
p10
F-1.9986455005642987
sS'accel_y'
p11
F0.073594585901981743
sS'maxAccel'
p12
I2
sS'maxVel'
p13
F0.5
sS'age'
p14
I50
sS'gener'
p15
S'm'
sS'lastScale'
p16
F13.79157631286607
sS'energy'
p17
F0.82915763128660702
sb.(i__main__
Data_mobile
p1
(dp2
S'vel_y'
p3
F-0.13783388524250606
sS'vel_x'
p4
F-0.48062648707593686
sS'pos_x'
p5
F-100.03459810619523
sS'pos_y'
p6
F-33.725635544455166
sS'isAlive'
p7
I01
sS'geno'
p8
(lp9
F-0.18660484149365097
aF-0.35663259403670367
aF1.25236962520365
aF3.7694375432007572
aF-3.6717499402223766
aF-2.3231148836080751
asS'accel_x'
p10
F-1.9999949398988934
sS'accel_y'
p11
F-0.0044989308531228379
sS'maxAccel'
p12
I2
sS'maxVel'
p13
F0.5
sS'age'
p14
I50
sS'gener'
p15
S'm'
sS'lastScale'
p16
F13.79157631286607
sS'energy'
p17
F0.82915763128660702
sb.(i__main__
Data_mobile
p1
(dp2
S'vel_y'
p3
F0.20532208930955204
sS'vel_x'
p4
F-0.45589783904023973
sS'pos_x'
p5
F87.885791120445802
sS'pos_y'
p6
F44.092402846285573
sS'isAlive'
p7
I01
sS'geno'
p8
(lp9
F0.32564651670421529
aF3.0450318479046814
aF-0.71732570117536443
aF3.5157613726122996
aF0.1749121424816984
aF0.92626810022228767
asS'accel_x'
p10
F-1.8704622062249867
sS'accel_y'
p11
F0.70807565632773717
sS'maxAccel'
p12
I2
sS'maxVel'
p13
F0.5
sS'age'
p14
I50
sS'gener'
p15
S'm'
sS'lastScale'
p16
F13.79157631286607
sS'energy'
p17
F0.82915763128660702
sb.(i__main__
Data_mobile
p1
(dp2
S'vel_y'
p3
F-0.10179540758699694
sS'vel_x'
p4
F-0.48952803289923774
sS'pos_x'
p5
F-86.402456851609202
sS'pos_y'
p6
F-36.804005777743008
sS'isAlive'
p7
I01
sS'geno'
p8
(lp9
F-4.200647706975813
aF-2.9759248200358179
aF-4.6054688476004344
aF3.8925745291350573
aF-0.19007931193356509
aF-2.7897219830653852
asS'accel_x'
p10
F-1.8823143324485276
sS'accel_y'
p11
F-0.67593842460600884
sS'maxAccel'
p12
I2
sS'maxVel'
p13
F0.5
sS'age'
p14
I50
sS'gener'
p15
S'm'
sS'lastScale'
p16
F13.691329050550406
sS'energy'
p17
F0.81913290505504066
sb.(i__main__
Data_mobile
p1
(dp2
S'vel_y'
p3
F0.14184474456909643
sS'vel_x'
p4
F0.47945809873035594
sS'pos_x'
p5
F102.46271497089987
sS'pos_y'
p6
F58.271355731669743
sS'isAlive'
p7
I01
sS'geno'
p8
(lp9
F-2.0940759103200124
aF-0.012388256007095144
aF1.9686553453003661
aF2.8900005734417604
aF1.0801426298367476
aF2.6034736892966626
asS'accel_x'
p10
F1.9977020190040828
sS'accel_y'
p11
F-0.095846978392702578
sS'maxAccel'
p12
I2
sS'maxVel'
p13
F0.5
sS'age'
p14
I50
sS'gener'
p15
S'm'
sS'lastScale'
p16
F13.49083452591908
sS'energy'
p17
F0.79908345259190794
sb.(i__main__
Data_mobile
p1
(dp2
S'vel_y'
p3
F-0.20150512006765775
sS'vel_x'
p4
F0.45759773446392726
sS'pos_x'
p5
F125.72858620140296
sS'pos_y'
p6
F38.708902193842476
sS'isAlive'
p7
I01
sS'geno'
p8
(lp9
F4.2519765200005528
aF-1.295104703273029
aF2.8375496223567334
aF4.4281924238522823
aF4.6574710496250074
aF-1.0979883073300045
asS'accel_x'
p10
F1.6946499579538545
sS'accel_y'
p11
F-1.0621494810086756
sS'maxAccel'
p12
I2
sS'maxVel'
p13
F0.5
sS'age'
p14
I50
sS'gener'
p15
S'm'
sS'lastScale'
p16
F13.390587263603415
sS'energy'
p17
F0.78905872636034158
sb.(i__main__
Data_mobile
p1
(dp2
S'vel_y'
p3
F-0.14832965130074593
sS'vel_x'
p4
F0.47749169055073526
sS'pos_x'
p5
F58.379366077566807
sS'pos_y'
p6
F-55.208091316296375
sS'isAlive'
p7
I01
sS'geno'
p8
(lp9
F0.16690538018485324
aF3.9613076389630297
aF-2.6091436041922353
aF4.7466477592051817
aF0.17495842949481177
aF-0.88865332885528137
asS'accel_x'
p10
F0.5759648307308054
sS'accel_y'
p11
F-0.92615304663646603
sS'maxAccel'
p12
I2
sS'maxVel'
p13
F0.5
sS'age'
p14
I50
sS'gener'
p15
S'm'
sS'lastScale'
p16
F11.488794961867521
sS'energy'
p17
F0.59887949618675207
sb.(i__main__
Data_mobile
p1
(dp2
S'vel_y'
p3
F-0.048386138213474303
sS'vel_x'
p4
F-0.49765327450825292
sS'pos_x'
p5
F-61.827134032737085
sS'pos_y'
p6
F71.828327770329963
sS'isAlive'
p7
I01
sS'geno'
p8
(lp9
F0.32564651670421529
aF-2.2621238050258361
aF4.3525313194303212
aF3.8925745291350573
aF-0.15892641709045463
aF2.6034736892966626
asS'accel_x'
p10
F1.8141488560948735
sS'accel_y'
p11
F-0.84194057268293088
sS'maxAccel'
p12
I2
sS'maxVel'
p13
F0.5
sS'age'
p14
I50
sS'gener'
p15
S'm'
sS'lastScale'
p16
F12.707765311138541
sS'energy'
p17
F0.52077653111385425
sb.(i__main__
Data_mobile
p1
(dp2
S'vel_y'
p3
F-0.18633746100694223
sS'vel_x'
p4
F-0.46398098088767203
sS'pos_x'
p5
F-109.7661397414834
sS'pos_y'
p6
F-34.350799540439503
sS'isAlive'
p7
I01
sS'geno'
p8
(lp9
F3.8526486809082954
aF-1.295104703273029
aF2.395224092658427
aF2.819072383401017
aF-2.8059470568317022
aF-2.3231148836080751
asS'accel_x'
p10
F-1.9654232043513387
sS'accel_y'
p11
F-0.37028587307284172
sS'maxAccel'
p12
I2
sS'maxVel'
p13
F0.5
sS'age'
p14
I50
sS'gener'
p15
S'm'
sS'lastScale'
p16
F9.4887949618675158
sS'energy'
p17
F0.39887949618675167
sb.(i__main__
Data_mobile
p1
(dp2
S'vel_y'
p3
F-0.46503380071304479
sS'vel_x'
p4
F0.18369421382934234
sS'pos_x'
p5
F-12.070302789384103
sS'pos_y'
p6
F-66.938073350195921
sS'isAlive'
p7
I01
sS'geno'
p8
(lp9
F1.4788969826633194
aF3.0450318479046814
aF-0.66605501165633463
aF3.5157613726122996
aF0.1749121424816984
aF-2.0403030210657147
asS'accel_x'
p10
F-1.9556071764624079
sS'accel_y'
p11
F-0.41904721854312382
sS'maxAccel'
p12
I2
sS'maxVel'
p13
F0.5
sS'age'
p14
I50
sS'gener'
p15
S'm'
sS'lastScale'
p16
F9.113051992730858
sS'energy'
p17
F0.3613051992730858
sb.(i__main__
Data_mobile
p1
(dp2
S'vel_y'
p3
F0.38669629979940684
sS'vel_x'
p4
F0.31696367571292344
sS'pos_x'
p5
F-78.058227016304343
sS'pos_y'
p6
F-70.797250111083841
sS'isAlive'
p7
I01
sS'geno'
p8
(lp9
F-4.3606999718358495
aF-0.012388256007095144
aF1.9686553453003661
aF2.8900005734417604
aF0.75680666490570658
aF-0.84838702846869007
asS'accel_x'
p10
F0.97865324859265224
sS'accel_y'
p11
F0.78133739801504509
sS'maxAccel'
p12
I2
sS'maxVel'
p13
F0.5
sS'age'
p14
I50
sS'gener'
p15
S'm'
sS'lastScale'
p16
F8.4887949618675211
sS'energy'
p17
F0.29887949618675214
sb.(i__main__
Data_mobile
p1
(dp2
S'vel_y'
p3
F-0.14173116360029925
sS'vel_x'
p4
F-0.47949168633512845
sS'pos_x'
p5
F-54.159128290142753
sS'pos_y'
p6
F103.30991015599707
sS'isAlive'
p7
I01
sS'geno'
p8
(lp9
F0.32564651670421529
aF-2.2621238050258361
aF4.3525313194303212
aF3.8925745291350573
aF-0.19007931193356509
aF2.9704695726643831
asS'accel_x'
p10
F-0.95580002857634272
sS'accel_y'
p11
F-1.7568284792128865
sS'maxAccel'
p12
I2
sS'maxVel'
p13
F0.5
sS'age'
p14
I50
sS'gener'
p15
S'm'
sS'lastScale'
p16
F8.4887949618675158
sS'energy'
p17
F0.29887949618675169
sb.(i__main__
Data_mobile
p1
(dp2
S'vel_y'
p3
F-0.36712746040777877
sS'vel_x'
p4
F-0.33943692759411837
sS'pos_x'
p5
F16.222300701283217
sS'pos_y'
p6
F-35.330868419018806
sS'isAlive'
p7
I01
sS'geno'
p8
(lp9
F-2.0398127179371661
aF0.2052594732578048
aF2.3242412289007128
aF3.1689734099469744
aF0.593469611532085
aF-0.88865332885528137
asS'accel_x'
p10
F0.96309916739010759
sS'accel_y'
p11
F1.7528376974986823
sS'maxAccel'
p12
I2
sS'maxVel'
p13
F0.5
sS'age'
p14
I50
sS'gener'
p15
S'm'
sS'lastScale'
p16
F6.4887949618675158
sS'energy'
p17
F0.098879496186751681
sb.(i__main__
Data_mobile
p1
(dp2
S'vel_y'
p3
F-0.21421569056915488
sS'vel_x'
p4
F0.26953288397301978
sS'pos_x'
p5
F57.114446303652073
sS'pos_y'
p6
F-82.52528272013322
sS'isAlive'
p7
I01
sS'geno'
p8
(lp9
F-0.23380009166182703
aF0.21777004558991919
aF-4.7520220451608672
aF4.1176178264155823
aF0.57168463008856474
aF-1.1668581019985313
asS'accel_x'
p10
F0
sS'accel_y'
p11
F0
sS'maxAccel'
p12
I2
sS'maxVel'
p13
F0.5
sS'age'
p14
I0
sS'gener'
p15
S'm'
sS'lastScale'
p16
F5.5
sS'energy'
p17
F0.5
sb.(i__main__
Data_mobile
p1
(dp2
S'vel_y'
p3
F0.39199624203262601
sS'vel_x'
p4
F-0.26303900043415701
sS'pos_x'
p5
F-106.2264641904324
sS'pos_y'
p6
F-12.38032723034916
sS'isAlive'
p7
I01
sS'geno'
p8
(lp9
F0.32564651670421529
aF3.0450318479046814
aF-0.66605501165633463
aF4.5827449949721428
aF-4.2016815775799206
aF-3.4957920486045921
asS'accel_x'
p10
F0
sS'accel_y'
p11
F0
sS'maxAccel'
p12
I2
sS'maxVel'
p13
F0.5
sS'age'
p14
I0
sS'gener'
p15
S'm'
sS'lastScale'
p16
F5.5
sS'energy'
p17
F0.5
sb.(i__main__
Data_mobile
p1
(dp2
S'vel_y'
p3
F0.14023046157607527
sS'vel_x'
p4
F-0.41598886935613377
sS'pos_x'
p5
F-35.859699036513355
sS'pos_y'
p6
F-32.158647696879108
sS'isAlive'
p7
I01
sS'geno'
p8
(lp9
F-0.23380009166182703
aF0.21777004558991919
aF-4.7520220451608672
aF2.9526485278521797
aF2.6739599267064591
aF1.2350575972552678
asS'accel_x'
p10
F0
sS'accel_y'
p11
F0
sS'maxAccel'
p12
I2
sS'maxVel'
p13
F0.5
sS'age'
p14
I0
sS'gener'
p15
S'm'
sS'lastScale'
p16
F5.5
sS'energy'
p17
F0.5
sb.(i__main__
Data_mobile
p1
(dp2
S'vel_y'
p3
F0.41236504862669376
sS'vel_x'
p4
F0.27469265795283715
sS'pos_x'
p5
F-59.082718871302305
sS'pos_y'
p6
F92.26682694619619
sS'isAlive'
p7
I01
sS'geno'
p8
(lp9
F-0.92703862681314675
aF-2.9759248200358179
aF-4.6054688476004344
aF3.8925745291350573
aF0.16588402813272596
aF-2.3231148836080751
asS'accel_x'
p10
F0
sS'accel_y'
p11
F0
sS'maxAccel'
p12
I2
sS'maxVel'
p13
F0.5
sS'age'
p14
I0
sS'gener'
p15
S'm'
sS'lastScale'
p16
F5.5
sS'energy'
p17
F0.5
sb.(i__main__
Data_mobile
p1
(dp2
S'vel_y'
p3
F-0.10840391490842528
sS'vel_x'
p4
F-0.40538464099191029
sS'pos_x'
p5
F72.333606427082799
sS'pos_y'
p6
F-69.119752293815125
sS'isAlive'
p7
I01
sS'geno'
p8
(lp9
F-0.22331228370193745
aF3.0332906970037428
aF3.5655273325323371
aF2.9526485278521797
aF0.57168463008856474
aF-1.1668581019985313
asS'accel_x'
p10
F0
sS'accel_y'
p11
F0
sS'maxAccel'
p12
I2
sS'maxVel'
p13
F0.5
sS'age'
p14
I0
sS'gener'
p15
S'm'
sS'lastScale'
p16
F5.5
sS'energy'
p17
F0.5
sb.(i__main__
Data_mobile
p1
(dp2
S'vel_y'
p3
F0.4126189715038503
sS'vel_x'
p4
F-0.28092246298828633
sS'pos_x'
p5
F-18.653425408354877
sS'pos_y'
p6
F-50.716143689602788
sS'isAlive'
p7
I01
sS'geno'
p8
(lp9
F0.32564651670421529
aF3.0450318479046814
aF-0.66605501165633463
aF3.5157613726122996
aF0.26280865345740356
aF0.92626810022228767
asS'accel_x'
p10
F0
sS'accel_y'
p11
F0
sS'maxAccel'
p12
I2
sS'maxVel'
p13
F0.5
sS'age'
p14
I0
sS'gener'
p15
S'm'
sS'lastScale'
p16
F5.5
sS'energy'
p17
F0.5
sb.(i__main__
Data_mobile
p1
(dp2
S'vel_y'
p3
F-0.18155804839157924
sS'vel_x'
p4
F0.14005271843247985
sS'pos_x'
p5
F93.345721091557394
sS'pos_y'
p6
F-23.052283653989758
sS'isAlive'
p7
I01
sS'geno'
p8
(lp9
F0.32564651670421529
aF-2.2621238050258361
aF3.8924866826903504
aF4.1176178264155823
aF-3.6717499402223766
aF-0.77212247465408812
asS'accel_x'
p10
F0
sS'accel_y'
p11
F0
sS'maxAccel'
p12
I2
sS'maxVel'
p13
F0.5
sS'age'
p14
I0
sS'gener'
p15
S'm'
sS'lastScale'
p16
F5.5
sS'energy'
p17
F0.5
sb.(i__main__
Data_mobile
p1
(dp2
S'vel_y'
p3
F0.074301906302766896
sS'vel_x'
p4
F-0.32772494728027735
sS'pos_x'
p5
F56.613534413030521
sS'pos_y'
p6
F-82.838114529626722
sS'isAlive'
p7
I01
sS'geno'
p8
(lp9
F-0.92703862681314675
aF-1.7931402213574943
aF2.3144390252171698
aF4.1176178264155823
aF0.57168463008856474
aF-0.87264977661869947
asS'accel_x'
p10
F0
sS'accel_y'
p11
F0
sS'maxAccel'
p12
I2
sS'maxVel'
p13
F0.5
sS'age'
p14
I0
sS'gener'
p15
S'm'
sS'lastScale'
p16
F5.5
sS'energy'
p17
F0.5
sb.(i__main__
Data_mobile
p1
(dp2
S'vel_y'
p3
F0.39588448241781127
sS'vel_x'
p4
F-0.25785772847664834
sS'pos_x'
p5
F-99.857399587287688
sS'pos_y'
p6
F-33.680444473438868
sS'isAlive'
p7
I01
sS'geno'
p8
(lp9
F4.5775511733188363
aF3.3400959445788825
aF-1.7857095376764476
aF3.8919256763156334
aF0.1749121424816984
aF0.92626810022228767
asS'accel_x'
p10
F0
sS'accel_y'
p11
F0
sS'maxAccel'
p12
I2
sS'maxVel'
p13
F0.5
sS'age'
p14
I0
sS'gener'
p15
S'm'
sS'lastScale'
p16
F5.5
sS'energy'
p17
F0.5
sb.(i__main__
Data_mobile
p1
(dp2
S'vel_y'
p3
F0.37781342725847333
sS'vel_x'
p4
F-0.3263442189410386
sS'pos_x'
p5
F55.574290209338919
sS'pos_y'
p6
F-7.5437238680065626
sS'isAlive'
p7
I01
sS'geno'
p8
(lp9
F0.16690538018485324
aF3.9613076389630297
aF-2.6091436041922353
aF4.7466477592051817
aF0.43958242413259274
aF-1.0659026377598124
asS'accel_x'
p10
F0
sS'accel_y'
p11
F0
sS'maxAccel'
p12
I2
sS'maxVel'
p13
F0.5
sS'age'
p14
I0
sS'gener'
p15
S'm'
sS'lastScale'
p16
F5.5
sS'energy'
p17
F0.5
sb.(i__main__
Data_mobile
p1
(dp2
S'vel_y'
p3
F-0.046583247081344009
sS'vel_x'
p4
F-0.29332824419557324
sS'pos_x'
p5
F120.6697881562819
sS'pos_y'
p6
F22.635531919297303
sS'isAlive'
p7
I01
sS'geno'
p8
(lp9
F-1.3820252822376231
aF2.2948500325273393
aF2.3144390252171698
aF4.1176178264155823
aF0.57168463008856474
aF-2.7897219830653852
asS'accel_x'
p10
F0
sS'accel_y'
p11
F0
sS'maxAccel'
p12
I2
sS'maxVel'
p13
F0.5
sS'age'
p14
I0
sS'gener'
p15
S'm'
sS'lastScale'
p16
F5.5
sS'energy'
p17
F0.5
sb.(i__main__
Data_mobile
p1
(dp2
S'vel_y'
p3
F0.19946980603382253
sS'vel_x'
p4
F0.31270217457283644
sS'pos_x'
p5
F62.95071470710171
sS'pos_y'
p6
F-57.451481105969293
sS'isAlive'
p7
I01
sS'geno'
p8
(lp9
F-0.18660484149365097
aF-0.35663259403670367
aF1.25236962520365
aF3.7694375432007572
aF-3.6717499402223766
aF-3.0838746633524718
asS'accel_x'
p10
F0
sS'accel_y'
p11
F0
sS'maxAccel'
p12
I2
sS'maxVel'
p13
F0.5
sS'age'
p14
I0
sS'gener'
p15
S'm'
sS'lastScale'
p16
F5.5
sS'energy'
p17
F0.5
sb.(i__main__
Data_mobile
p1
(dp2
S'vel_y'
p3
F0.38637123855711536
sS'vel_x'
p4
F-0.31677235854295793
sS'pos_x'
p5
F99.74696784649106
sS'pos_y'
p6
F28.03762616745437
sS'isAlive'
p7
I01
sS'geno'
p8
(lp9
F3.8526486809082954
aF-1.295104703273029
aF2.8375496223567334
aF4.4281924238522823
aF4.4021604296056296
aF-1.0979883073300045
asS'accel_x'
p10
F0
sS'accel_y'
p11
F0
sS'maxAccel'
p12
I2
sS'maxVel'
p13
F0.5
sS'age'
p14
I0
sS'gener'
p15
S'm'
sS'lastScale'
p16
F5.5
sS'energy'
p17
F0.5
sb.(i__main__
Data_mobile
p1
(dp2
S'vel_y'
p3
F0.18602410856920945
sS'vel_x'
p4
F-0.26124569233444006
sS'pos_x'
p5
F96.92929283465817
sS'pos_y'
p6
F25.5404990704459
sS'isAlive'
p7
I01
sS'geno'
p8
(lp9
F0.32564651670421529
aF-2.2621238050258361
aF3.8924866826903504
aF2.819072383401017
aF-2.8059470568317022
aF-1.0979883073300045
asS'accel_x'
p10
F0
sS'accel_y'
p11
F0
sS'maxAccel'
p12
I2
sS'maxVel'
p13
F0.5
sS'age'
p14
I0
sS'gener'
p15
S'm'
sS'lastScale'
p16
F5.5
sS'energy'
p17
F0.5
sb.(i__main__
Data_mobile
p1
(dp2
S'vel_y'
p3
F-0.0047236792945415523
sS'vel_x'
p4
F0.49425785884607221
sS'pos_x'
p5
F19.067985765123126
sS'pos_y'
p6
F37.505639593367235
sS'isAlive'
p7
I01
sS'geno'
p8
(lp9
F0.23965863968022827
aF-0.71254769799405504
aF0.99767021831312064
aF3.7694375432007572
aF-3.3127395135344893
aF-1.0283071288447223
asS'accel_x'
p10
F0
sS'accel_y'
p11
F0
sS'maxAccel'
p12
I2
sS'maxVel'
p13
F0.5
sS'age'
p14
I0
sS'gener'
p15
S'm'
sS'lastScale'
p16
F5.5
sS'energy'
p17
F0.5
sb.(i__main__
Data_mobile
p1
(dp2
S'vel_y'
p3
F0.041448602348545437
sS'vel_x'
p4
F0.35878670271231089
sS'pos_x'
p5
F164.95974886803904
sS'pos_y'
p6
F-76.139281336448775
sS'isAlive'
p7
I01
sS'geno'
p8
(lp9
F0.23965863968022827
aF-0.35663259403670367
aF1.0385372400775399
aF3.7694375432007572
aF-3.6717499402223766
aF-0.77212247465408812
asS'accel_x'
p10
F0
sS'accel_y'
p11
F0
sS'maxAccel'
p12
I2
sS'maxVel'
p13
F0.5
sS'age'
p14
I0
sS'gener'
p15
S'm'
sS'lastScale'
p16
F5.5
sS'energy'
p17
F0.5
sb.(i__main__
Data_mobile
p1
(dp2
S'vel_y'
p3
F-0.35992936593646718
sS'vel_x'
p4
F0.0035307519633729079
sS'pos_x'
p5
F110.45293717886571
sS'pos_y'
p6
F-35.438195205241684
sS'isAlive'
p7
I01
sS'geno'
p8
(lp9
F-1.2076464285049275
aF1.8249245211052578
aF2.3144390252171698
aF2.819072383401017
aF-2.8059470568317022
aF-2.3231148836080751
asS'accel_x'
p10
F0
sS'accel_y'
p11
F0
sS'maxAccel'
p12
I2
sS'maxVel'
p13
F0.5
sS'age'
p14
I0
sS'gener'
p15
S'm'
sS'lastScale'
p16
F5.5
sS'energy'
p17
F0.5
sb.(i__main__
Data_mobile
p1
(dp2
S'vel_y'
p3
F0.19397941441044689
sS'vel_x'
p4
F0.075219006690245005
sS'pos_x'
p5
F33.24167703017541
sS'pos_y'
p6
F-21.349302593045685
sS'isAlive'
p7
I01
sS'geno'
p8
(lp9
F-0.22046537126120169
aF-4.543951755670391
aF-3.0045878307794545
aF4.6939287115267287
aF0.43958242413259274
aF-1.0659026377598124
asS'accel_x'
p10
F0
sS'accel_y'
p11
F0
sS'maxAccel'
p12
I2
sS'maxVel'
p13
F0.5
sS'age'
p14
I0
sS'gener'
p15
S'm'
sS'lastScale'
p16
F5.5
sS'energy'
p17
F0.5
sb.(i__main__
Data_mobile
p1
(dp2
S'vel_y'
p3
F-0.20471800294749778
sS'vel_x'
p4
F-0.16609817674646066
sS'pos_x'
p5
F87.181339528979535
sS'pos_y'
p6
F17.640909588562145
sS'isAlive'
p7
I01
sS'geno'
p8
(lp9
F3.4328407182996399
aF-1.295104703273029
aF2.8375496223567334
aF4.4281924238522823
aF4.5236589877117659
aF-2.3231148836080751
asS'accel_x'
p10
F0
sS'accel_y'
p11
F0
sS'maxAccel'
p12
I2
sS'maxVel'
p13
F0.5
sS'age'
p14
I0
sS'gener'
p15
S'm'
sS'lastScale'
p16
F5.5
sS'energy'
p17
F0.5
sb.(i__main__
Data_mobile
p1
(dp2
S'vel_y'
p3
F0.22491881014175352
sS'vel_x'
p4
F-0.40518606780738264
sS'pos_x'
p5
F163.19693438139532
sS'pos_y'
p6
F-69.438635344935008
sS'isAlive'
p7
I01
sS'geno'
p8
(lp9
F0.56084163487518524
aF3.803331803005491
aF-0.39816185374503665
aF3.2310224223013044
aF0.1749121424816984
aF0.92626810022228767
asS'accel_x'
p10
F0
sS'accel_y'
p11
F0
sS'maxAccel'
p12
I2
sS'maxVel'
p13
F0.5
sS'age'
p14
I0
sS'gener'
p15
S'm'
sS'lastScale'
p16
F5.5
sS'energy'
p17
F0.5
sb.(i__main__
Data_mobile
p1
(dp2
S'vel_y'
p3
F0.079935457558890352
sS'vel_x'
p4
F0.48991612561606002
sS'pos_x'
p5
F155.22097409542513
sS'pos_y'
p6
F-68.26952727543582
sS'isAlive'
p7
I01
sS'geno'
p8
(lp9
F-0.23380009166182703
aF0.33456449757374163
aF-4.7520220451608672
aF3.6288353276870868
aF0.1749121424816984
aF0.92626810022228767
asS'accel_x'
p10
F0
sS'accel_y'
p11
F0
sS'maxAccel'
p12
I2
sS'maxVel'
p13
F0.5
sS'age'
p14
I0
sS'gener'
p15
S'm'
sS'lastScale'
p16
F5.5
sS'energy'
p17
F0.5
sb.(i__main__
Data_mobile
p1
(dp2
S'vel_y'
p3
F0.08666117758002273
sS'vel_x'
p4
F-0.31076140300396066
sS'pos_x'
p5
F144.2707018182677
sS'pos_y'
p6
F60.622603048766628
sS'isAlive'
p7
I01
sS'geno'
p8
(lp9
F2.5702619516500782
aF2.2829499865195544
aF-4.9895409876492156
aF4.8904562987467699
aF2.8804808344274324
aF-1.1668581019985313
asS'accel_x'
p10
F0
sS'accel_y'
p11
F0
sS'maxAccel'
p12
I2
sS'maxVel'
p13
F0.5
sS'age'
p14
I0
sS'gener'
p15
S'm'
sS'lastScale'
p16
F5.5
sS'energy'
p17
F0.5
sb.(i__main__
Data_mobile
p1
(dp2
S'vel_y'
p3
F-0.16974521583514182
sS'vel_x'
p4
F0.32161499806962351
sS'pos_x'
p5
F-55.839447206805168
sS'pos_y'
p6
F-42.810471322348548
sS'isAlive'
p7
I01
sS'geno'
p8
(lp9
F0.32564651670421529
aF3.0450318479046814
aF-1.0917707660451708
aF3.5157613726122996
aF-0.13130769525536712
aF0.92626810022228767
asS'accel_x'
p10
F0
sS'accel_y'
p11
F0
sS'maxAccel'
p12
I2
sS'maxVel'
p13
F0.5
sS'age'
p14
I0
sS'gener'
p15
S'm'
sS'lastScale'
p16
F5.5
sS'energy'
p17
F0.5
sb.(i__main__
Data_mobile
p1
(dp2
S'vel_y'
p3
F0.14414267578697879
sS'vel_x'
p4
F0.092910263506178287
sS'pos_x'
p5
F-22.781372377793097
sS'pos_y'
p6
F-5.1905280101212554
sS'isAlive'
p7
I01
sS'geno'
p8
(lp9
F-1.302343598260046
aF-1.7931402213574943
aF2.3144390252171698
aF4.1176178264155823
aF0.57168463008856474
aF-2.7897219830653852
asS'accel_x'
p10
F0
sS'accel_y'
p11
F0
sS'maxAccel'
p12
I2
sS'maxVel'
p13
F0.5
sS'age'
p14
I0
sS'gener'
p15
S'm'
sS'lastScale'
p16
F5.5
sS'energy'
p17
F0.5
sb.(i__main__
Data_mobile
p1
(dp2
S'vel_y'
p3
F-0.27947092163877435
sS'vel_x'
p4
F0.16040647046004752
sS'pos_x'
p5
F24.058740351168357
sS'pos_y'
p6
F-59.032056561024802
sS'isAlive'
p7
I01
sS'geno'
p8
(lp9
F-0.23380009166182703
aF0.21777004558991919
aF-2.6644291131076998
aF4.7466477592051817
aF0.43958242413259274
aF-1.0659026377598124
asS'accel_x'
p10
F0
sS'accel_y'
p11
F0
sS'maxAccel'
p12
I2
sS'maxVel'
p13
F0.5
sS'age'
p14
I0
sS'gener'
p15
S'm'
sS'lastScale'
p16
F5.5
sS'energy'
p17
F0.5
sb.(i__main__
Data_mobile
p1
(dp2
S'vel_y'
p3
F0.41612431872807065
sS'vel_x'
p4
F-0.27378428519969894
sS'pos_x'
p5
F-9.2497323534117299
sS'pos_y'
p6
F-46.960995849923684
sS'isAlive'
p7
I01
sS'geno'
p8
(lp9
F-0.65993670174602082
aF3.4709860338523253
aF-0.57412513695541845
aF3.5157613726122996
aF0.1749121424816984
aF0.92626810022228767
asS'accel_x'
p10
F0
sS'accel_y'
p11
F0
sS'maxAccel'
p12
I2
sS'maxVel'
p13
F0.5
sS'age'
p14
I0
sS'gener'
p15
S'm'
sS'lastScale'
p16
F5.5
sS'energy'
p17
F0.5
sb.(i__main__
Data_mobile
p1
(dp2
S'vel_y'
p3
F0.2945074080671003
sS'vel_x'
p4
F0.06662317588376393
sS'pos_x'
p5
F162.11564609665723
sS'pos_y'
p6
F-61.536996980810812
sS'isAlive'
p7
I01
sS'geno'
p8
(lp9
F1.4788969826633194
aF3.0450318479046814
aF1.5409811541675777
aF2.5971870967405462
aF0.74728928717367182
aF-0.57817398432854539
asS'accel_x'
p10
F0
sS'accel_y'
p11
F0
sS'maxAccel'
p12
I2
sS'maxVel'
p13
F0.5
sS'age'
p14
I0
sS'gener'
p15
S'm'
sS'lastScale'
p16
F5.5
sS'energy'
p17
F0.5
sb.(i__main__
Data_mobile
p1
(dp2
S'vel_y'
p3
F0.18784909683662443
sS'vel_x'
p4
F-0.40974413123396169
sS'pos_x'
p5
F56.669619662386445
sS'pos_y'
p6
F-81.691123113428304
sS'isAlive'
p7
I01
sS'geno'
p8
(lp9
F-0.23380009166182703
aF0.21777004558991919
aF-4.7520220451608672
aF2.9526485278521797
aF0.57168463008856474
aF-1.1668581019985313
asS'accel_x'
p10
F0
sS'accel_y'
p11
F0
sS'maxAccel'
p12
I2
sS'maxVel'
p13
F0.5
sS'age'
p14
I0
sS'gener'
p15
S'm'
sS'lastScale'
p16
F5.5
sS'energy'
p17
F0.5
sb.(i__main__
Data_mobile
p1
(dp2
S'vel_y'
p3
F0.14808536241008416
sS'vel_x'
p4
F0.19919444670290748
sS'pos_x'
p5
F18.072191156117434
sS'pos_y'
p6
F-35.074137648079009
sS'isAlive'
p7
I01
sS'geno'
p8
(lp9
F0.16690538018485324
aF4.45780440690889
aF-2.6091436041922353
aF4.7466477592051817
aF3.1221650868080841
aF4.2886649331556006
asS'accel_x'
p10
F0
sS'accel_y'
p11
F0
sS'maxAccel'
p12
I2
sS'maxVel'
p13
F0.5
sS'age'
p14
I0
sS'gener'
p15
S'm'
sS'lastScale'
p16
F5.5
sS'energy'
p17
F0.5
sb.(i__main__
Data_mobile
p1
(dp2
S'vel_y'
p3
F0.29736761537720807
sS'vel_x'
p4
F-0.40190223288754789
sS'pos_x'
p5
F16.36663706619553
sS'pos_y'
p6
F-56.969030007034831
sS'isAlive'
p7
I01
sS'geno'
p8
(lp9
F0.16690538018485324
aF3.9613076389630297
aF-2.6091436041922353
aF4.7466477592051817
aF0.43958242413259274
aF-1.0659026377598124
asS'accel_x'
p10
F0
sS'accel_y'
p11
F0
sS'maxAccel'
p12
I2
sS'maxVel'
p13
F0.5
sS'age'
p14
I0
sS'gener'
p15
S'm'
sS'lastScale'
p16
F5.5
sS'energy'
p17
F0.5
sb.(i__main__
Data_mobile
p1
(dp2
S'vel_y'
p3
F-0.1012452128170435
sS'vel_x'
p4
F0.36084935666555257
sS'pos_x'
p5
F59.204722269692333
sS'pos_y'
p6
F-80.231079668063856
sS'isAlive'
p7
I01
sS'geno'
p8
(lp9
F-0.92703862681314675
aF-1.7232147979438168
aF-0.48738584771018267
aF4.1353896321006225
aF1.0801426298367476
aF1.078733745083736
asS'accel_x'
p10
F0
sS'accel_y'
p11
F0
sS'maxAccel'
p12
I2
sS'maxVel'
p13
F0.5
sS'age'
p14
I0
sS'gener'
p15
S'm'
sS'lastScale'
p16
F5.5
sS'energy'
p17
F0.5
sb.(i__main__
Data_mobile
p1
(dp2
S'vel_y'
p3
F0.34069069262071666
sS'vel_x'
p4
F-0.36468847174468333
sS'pos_x'
p5
F44.716327684573471
sS'pos_y'
p6
F-54.149905157269714
sS'isAlive'
p7
I01
sS'geno'
p8
(lp9
F1.4788969826633194
aF3.0989326120435381
aF-0.66605501165633463
aF3.5157613726122996
aF-2.3244378772504293
aF-2.3231148836080751
asS'accel_x'
p10
F0
sS'accel_y'
p11
F0
sS'maxAccel'
p12
I2
sS'maxVel'
p13
F0.5
sS'age'
p14
I0
sS'gener'
p15
S'm'
sS'lastScale'
p16
F5.5
sS'energy'
p17
F0.5
sb.(i__main__
Data_mobile
p1
(dp2
S'vel_y'
p3
F-0.12430529712453865
sS'vel_x'
p4
F0.23435303302320781
sS'pos_x'
p5
F142.67458179315156
sS'pos_y'
p6
F63.358610768198901
sS'isAlive'
p7
I01
sS'geno'
p8
(lp9
F-1.302343598260046
aF-1.7931402213574943
aF2.3144390252171698
aF4.1176178264155823
aF0.57168463008856474
aF-2.7897219830653852
asS'accel_x'
p10
F0
sS'accel_y'
p11
F0
sS'maxAccel'
p12
I2
sS'maxVel'
p13
F0.5
sS'age'
p14
I0
sS'gener'
p15
S'm'
sS'lastScale'
p16
F5.5
sS'energy'
p17
F0.5
sb.(i__main__
Data_mobile
p1
(dp2
S'vel_y'
p3
F-0.016573160982860186
sS'vel_x'
p4
F0.12036051091258078
sS'pos_x'
p5
F136.80042023414822
sS'pos_y'
p6
F63.573780829104322
sS'isAlive'
p7
I01
sS'geno'
p8
(lp9
F3.8526486809082954
aF-1.295104703273029
aF2.8375496223567334
aF4.4281924238522823
aF4.4000577345327478
aF-1.0979883073300045
asS'accel_x'
p10
F0
sS'accel_y'
p11
F0
sS'maxAccel'
p12
I2
sS'maxVel'
p13
F0.5
sS'age'
p14
I0
sS'gener'
p15
S'm'
sS'lastScale'
p16
F5.5
sS'energy'
p17
F0.5
sb.(i__main__
Data_mobile
p1
(dp2
S'vel_y'
p3
F-0.18007292555585977
sS'vel_x'
p4
F-0.084273568655187647
sS'pos_x'
p5
F163.55704928998574
sS'pos_y'
p6
F-77.049368694826768
sS'isAlive'
p7
I01
sS'geno'
p8
(lp9
F-0.22331228370193745
aF3.0332906970037428
aF-0.48738584771018267
aF4.1872523225257989
aF1.0801426298367476
aF-0.94111978770595162
asS'accel_x'
p10
F0
sS'accel_y'
p11
F0
sS'maxAccel'
p12
I2
sS'maxVel'
p13
F0.5
sS'age'
p14
I0
sS'gener'
p15
S'm'
sS'lastScale'
p16
F5.5
sS'energy'
p17
F0.5
sb.(i__main__
Data_mobile
p1
(dp2
S'vel_y'
p3
F0.39227601027808556
sS'vel_x'
p4
F-0.10519810428312959
sS'pos_x'
p5
F-91.663620816013349
sS'pos_y'
p6
F-15.440294617668151
sS'isAlive'
p7
I01
sS'geno'
p8
(lp9
F-4.1741574225537343
aF3.0450318479046814
aF-0.66605501165633463
aF3.5157613726122996
aF-0.23983382195870451
aF1.1762281059160031
asS'accel_x'
p10
F0
sS'accel_y'
p11
F0
sS'maxAccel'
p12
I2
sS'maxVel'
p13
F0.5
sS'age'
p14
I0
sS'gener'
p15
S'm'
sS'lastScale'
p16
F5.5
sS'energy'
p17
F0.5
sb.(i__main__
Data_mobile
p1
(dp2
S'vel_y'
p3
F0.45869871032697745
sS'vel_x'
p4
F-0.19898616319826756
sS'pos_x'
p5
F3.5029059264917528
sS'pos_y'
p6
F-73.677305748464534
sS'isAlive'
p7
I01
sS'geno'
p8
(lp9
F-0.92703862681314675
aF3.0450318479046814
aF-0.66605501165633463
aF3.5157613726122996
aF0.1749121424816984
aF1.1762281059160031
asS'accel_x'
p10
F-0.83021062333711493
sS'accel_y'
p11
F1.8195467350134757
sS'maxAccel'
p12
I2
sS'maxVel'
p13
F0.5
sS'age'
p14
I50
sS'gener'
p15
S'm'
sS'lastScale'
p16
F5.5
sS'energy'
p17
I0
sb.(i__main__
Data_mobile
p1
(dp2
S'vel_y'
p3
F0.38845630750202598
sS'vel_x'
p4
F-0.31480422036861483
sS'pos_x'
p5
F-0.53232340390218869
sS'pos_y'
p6
F-68.493940724934504
sS'isAlive'
p7
I01
sS'geno'
p8
(lp9
F0.16690538018485324
aF3.9613076389630297
aF-2.6091436041922353
aF4.7466477592051817
aF0.16993186205472188
aF-1.1668581019985313
asS'accel_x'
p10
F-1.2868215323318746
sS'accel_y'
p11
F1.5310422410655582
sS'maxAccel'
p12
I2
sS'maxVel'
p13
F0.5
sS'age'
p14
I50
sS'gener'
p15
S'm'
sS'lastScale'
p16
F5.5
sS'energy'
p17
I0
sb.(i__main__
Data_mobile
p1
(dp2
S'vel_y'
p3
F-0.082375675091278383
sS'vel_x'
p4
F0.4931675659988764
sS'pos_x'
p5
F56.081273849945873
sS'pos_y'
p6
F-55.362761574365287
sS'isAlive'
p7
I01
sS'geno'
p8
(lp9
F-0.30269394459137833
aF3.9613076389630297
aF-2.6091436041922353
aF4.244619897418092
aF-4.2016815775799206
aF-3.4957920486045921
asS'accel_x'
p10
F1.5837474789614836
sS'accel_y'
p11
F-1.2213696913232885
sS'maxAccel'
p12
I2
sS'maxVel'
p13
F0.5
sS'age'
p14
I50
sS'gener'
p15
S'm'
sS'lastScale'
p16
F5.5
sS'energy'
p17
I0
sb.(i__main__
Data_mobile
p1
(dp2
S'vel_y'
p3
F-0.36912280538906611
sS'vel_x'
p4
F-0.33726599968230653
sS'pos_x'
p5
F72.794286321191464
sS'pos_y'
p6
F3.793642779941393
sS'isAlive'
p7
I01
sS'geno'
p8
(lp9
F-0.22046537126120169
aF-4.543951755670391
aF-3.0045878307794545
aF4.6939287115267287
aF3.2947022839718056
aF4.2886649331556006
asS'accel_x'
p10
F-0.10112487032196932
sS'accel_y'
p11
F-1.997441804058973
sS'maxAccel'
p12
I2
sS'maxVel'
p13
F0.5
sS'age'
p14
I50
sS'gener'
p15
S'm'
sS'lastScale'
p16
F5.5
sS'energy'
p17
I0
sb.(i__main__
Data_mobile
p1
(dp2
S'vel_y'
p3
F-0.1385349767394301
sS'vel_x'
p4
F-0.48042487468885864
sS'pos_x'
p5
F154.39638966669898
sS'pos_y'
p6
F66.555370189362833
sS'isAlive'
p7
I01
sS'geno'
p8
(lp9
F1.4788969826633194
aF2.975589122315323
aF-0.39816185374503665
aF3.2310224223013044
aF0.1749121424816984
aF2.6034736892966626
asS'accel_x'
p10
F0.76045536609935083
sS'accel_y'
p11
F1.8497858352173375
sS'maxAccel'
p12
I2
sS'maxVel'
p13
F0.5
sS'age'
p14
I50
sS'gener'
p15
S'm'
sS'lastScale'
p16
F5.5
sS'energy'
p17
I0
sb.(i__main__
Data_mobile
p1
(dp2
S'vel_y'
p3
F-0.12433568445572553
sS'vel_x'
p4
F-0.48429395780964096
sS'pos_x'
p5
F-179.0719884220124
sS'pos_y'
p6
F97.776350649967043
sS'isAlive'
p7
I01
sS'geno'
p8
(lp9
F1.4788969826633194
aF3.0450318479046814
aF-0.35147223796551952
aF3.5157613726122996
aF0.75680666490570658
aF-2.0403030210657147
asS'accel_x'
p10
F-1.9833281497195216
sS'accel_y'
p11
F-0.25770031146690314
sS'maxAccel'
p12
I2
sS'maxVel'
p13
F0.5
sS'age'
p14
I50
sS'gener'
p15
S'm'
sS'lastScale'
p16
F5.5
sS'energy'
p17
I0
sb.(i__main__
Data_mobile
p1
(dp2
S'vel_y'
p3
F-0.45844795157422041
sS'vel_x'
p4
F-0.19956321228473259
sS'pos_x'
p5
F-3.9886867577158296
sS'pos_y'
p6
F-49.965345360532204
sS'isAlive'
p7
I01
sS'geno'
p8
(lp9
F-2.0940759103200124
aF-0.012388256007095144
aF1.9686553453003661
aF2.8900005734417604
aF0.75680666490570658
aF0.92626810022228767
asS'accel_x'
p10
F-0.34683945042355424
sS'accel_y'
p11
F1.856970693782356
sS'maxAccel'
p12
I2
sS'maxVel'
p13
F0.5
sS'age'
p14
I50
sS'gener'
p15
S'm'
sS'lastScale'
p16
F5.5
sS'energy'
p17
I0
sb.(i__main__
Data_mobile
p1
(dp2
S'vel_y'
p3
F0.067236887662793218
sS'vel_x'
p4
F0.49545857640918978
sS'pos_x'
p5
F136.81409337952118
sS'pos_y'
p6
F56.886675145814465
sS'isAlive'
p7
I01
sS'geno'
p8
(lp9
F-1.3820252822376231
aF-2.2072481747561716
aF-1.7384522612080167
aF4.244619897418092
aF-4.2016815775799206
aF-3.4957920486045921
asS'accel_x'
p10
F1.8457147015220075
sS'accel_y'
p11
F-0.77028387013199684
sS'maxAccel'
p12
I2
sS'maxVel'
p13
F0.5
sS'age'
p14
I50
sS'gener'
p15
S'm'
sS'lastScale'
p16
F5.5
sS'energy'
p17
I0
sb.(i__main__
Data_mobile
p1
(dp2
S'vel_y'
p3
I0
sS'vel_x'
p4
I0
sS'pos_x'
p5
I-9579
sS'pos_y'
p6
I9779
sS'isAlive'
p7
I00
sS'geno'
p8
(lp9
F4.1945076438685795
aF3.3400959445788825
aF-1.7384522612080167
aF4.7466477592051817
aF0.43958242413259274
aF-1.0659026377598124
asS'accel_x'
p10
F0
sS'accel_y'
p11
F0
sS'maxAccel'
p12
I2
sS'maxVel'
p13
F0.5
sS'age'
p14
I0
sS'gener'
p15
S'm'
sS'lastScale'
p16
F5.5
sS'energy'
p17
F0.5
sb.