(i__main__
Data_mobile
p1
(dp2
S'vel_y'
p3
F0.11205767491006667
sS'vel_x'
p4
F-0.48728131248155804
sS'pos_x'
p5
F-181.94748609108174
sS'pos_y'
p6
F22.260240772903686
sS'isAlive'
p7
I01
sS'geno'
p8
(i__main__
Node
p9
(dp10
S'node'
p11
(lp12
S'+'
aS'-'
aS'*'
aS'/'
asS'right'
p13
(i__main__
Node
p14
(dp15
g11
(lp16
S'+'
aS'-'
aS'*'
aS'/'
asg13
(i__main__
Node
p17
(dp18
g11
(lp19
S'+'
aS'-'
aS'*'
aS'/'
asg13
NsS'leaf'
p20
(lp21
S'indiv.alignment()'
p22
aS'indiv.cohesion()'
p23
aS'indiv.separation()'
p24
aS'indiv.target()'
p25
aS'indiv.flee()'
p26
aS'indiv.currentVelocity()'
p27
aS'indiv.mostEnergizedNeighbor()'
p28
aS'indiv.randV()'
p29
asS'parent'
p30
g14
sS'data'
p31
g22
sS'left'
p32
Nsbsg20
(lp33
g22
ag23
ag24
ag25
ag26
ag27
ag28
ag29
asg30
g9
sg31
S'+'
sg32
(i__main__
Node
p34
(dp35
g11
(lp36
S'+'
aS'-'
aS'*'
aS'/'
asg13
Nsg20
(lp37
g22
ag23
ag24
ag25
ag26
ag27
ag28
ag29
asg30
g14
sg31
g25
sg32
Nsbsbsg20
(lp38
g22
ag23
ag24
ag25
ag26
ag27
ag28
ag29
asg30
Nsg31
S'+'
sg32
(i__main__
Node
p39
(dp40
g11
(lp41
S'+'
aS'-'
aS'*'
aS'/'
asg13
Nsg20
(lp42
g22
ag23
ag24
ag25
ag26
ag27
ag28
ag29
asg30
g9
sg31
g26
sg32
NsbsbsS'accel_x'
p43
F-0.076978334418043914
sS'accel_y'
p44
F-0.60802905854323797
sS'maxAccel'
p45
I2
sS'maxVel'
p46
F0.5
sS'age'
p47
I156
sS'gener'
p48
S'm'
sS'lastScale'
p49
F15.301011736297498
sS'energy'
p50
F0.9801011736297498
sb.(i__main__
Data_mobile
p1
(dp2
S'vel_y'
p3
F0.1606262411772009
sS'vel_x'
p4
F0.473496790533245
sS'pos_x'
p5
F15.900932867940703
sS'pos_y'
p6
F-67.176483104252284
sS'isAlive'
p7
I01
sS'geno'
p8
(i__main__
Node
p9
(dp10
S'node'
p11
(lp12
S'+'
aS'-'
aS'*'
aS'/'
asS'right'
p13
(i__main__
Node
p14
(dp15
g11
(lp16
S'+'
aS'-'
aS'*'
aS'/'
asg13
(i__main__
Node
p17
(dp18
g11
(lp19
S'+'
aS'-'
aS'*'
aS'/'
asg13
NsS'leaf'
p20
(lp21
S'indiv.alignment()'
p22
aS'indiv.cohesion()'
p23
aS'indiv.separation()'
p24
aS'indiv.target()'
p25
aS'indiv.flee()'
p26
aS'indiv.currentVelocity()'
p27
aS'indiv.mostEnergizedNeighbor()'
p28
aS'indiv.randV()'
p29
asS'parent'
p30
g14
sS'data'
p31
g22
sS'left'
p32
Nsbsg20
(lp33
g22
ag23
ag24
ag25
ag26
ag27
ag28
ag29
asg30
g9
sg31
S'+'
sg32
(i__main__
Node
p34
(dp35
g11
(lp36
S'+'
aS'-'
aS'*'
aS'/'
asg13
Nsg20
(lp37
g22
ag23
ag24
ag25
ag26
ag27
ag28
ag29
asg30
g14
sg31
g25
sg32
Nsbsbsg20
(lp38
g22
ag23
ag24
ag25
ag26
ag27
ag28
ag29
asg30
Nsg31
S'+'
sg32
(i__main__
Node
p39
(dp40
g11
(lp41
S'+'
aS'-'
aS'*'
aS'/'
asg13
Nsg20
(lp42
g22
ag23
ag24
ag25
ag26
ag27
ag28
ag29
asg30
g9
sg31
g26
sg32
NsbsbsS'accel_x'
p43
F-0.35968992536669864
sS'accel_y'
p44
F-0.38596792055795465
sS'maxAccel'
p45
I2
sS'maxVel'
p46
F0.5
sS'age'
p47
I156
sS'gener'
p48
S'm'
sS'lastScale'
p49
F15.301011736297498
sS'energy'
p50
F0.9801011736297498
sb.(i__main__
Data_mobile
p1
(dp2
S'vel_y'
p3
F-0.45176132683078318
sS'vel_x'
p4
F-0.21427016493224221
sS'pos_x'
p5
F-7.5795367812072048
sS'pos_y'
p6
F-10.109025953534728
sS'isAlive'
p7
I01
sS'geno'
p8
(i__main__
Node
p9
(dp10
S'node'
p11
(lp12
S'+'
aS'-'
aS'*'
aS'/'
asS'right'
p13
(i__main__
Node
p14
(dp15
g11
(lp16
S'+'
aS'-'
aS'*'
aS'/'
asg13
(i__main__
Node
p17
(dp18
g11
(lp19
S'+'
aS'-'
aS'*'
aS'/'
asg13
NsS'leaf'
p20
(lp21
S'indiv.alignment()'
p22
aS'indiv.cohesion()'
p23
aS'indiv.separation()'
p24
aS'indiv.target()'
p25
aS'indiv.flee()'
p26
aS'indiv.currentVelocity()'
p27
aS'indiv.mostEnergizedNeighbor()'
p28
aS'indiv.randV()'
p29
asS'parent'
p30
g14
sS'data'
p31
g22
sS'left'
p32
Nsbsg20
(lp33
g22
ag23
ag24
ag25
ag26
ag27
ag28
ag29
asg30
g9
sg31
S'+'
sg32
(i__main__
Node
p34
(dp35
g11
(lp36
S'+'
aS'-'
aS'*'
aS'/'
asg13
Nsg20
(lp37
g22
ag23
ag24
ag25
ag26
ag27
ag28
ag29
asg30
g14
sg31
g25
sg32
Nsbsbsg20
(lp38
g22
ag23
ag24
ag25
ag26
ag27
ag28
ag29
asg30
Nsg31
S'+'
sg32
(i__main__
Node
p39
(dp40
g11
(lp41
S'+'
aS'-'
aS'*'
aS'/'
asg13
Nsg20
(lp42
g22
ag23
ag24
ag25
ag26
ag27
ag28
ag29
asg30
g9
sg31
g26
sg32
NsbsbsS'accel_x'
p43
F-0.47028702434788378
sS'accel_y'
p44
F-1.0248246629520463
sS'maxAccel'
p45
I2
sS'maxVel'
p46
F0.5
sS'age'
p47
I156
sS'gener'
p48
S'm'
sS'lastScale'
p49
F15.301011736297498
sS'energy'
p50
F0.9801011736297498
sb.(i__main__
Data_mobile
p1
(dp2
S'vel_y'
p3
F0.42990384731238312
sS'vel_x'
p4
F-0.25530899331204776
sS'pos_x'
p5
F-91.771993897908928
sS'pos_y'
p6
F84.715351698255617
sS'isAlive'
p7
I01
sS'geno'
p8
(i__main__
Node
p9
(dp10
S'node'
p11
(lp12
S'+'
aS'-'
aS'*'
aS'/'
asS'right'
p13
(i__main__
Node
p14
(dp15
g11
(lp16
S'+'
aS'-'
aS'*'
aS'/'
asg13
(i__main__
Node
p17
(dp18
g11
(lp19
S'+'
aS'-'
aS'*'
aS'/'
asg13
NsS'leaf'
p20
(lp21
S'indiv.alignment()'
p22
aS'indiv.cohesion()'
p23
aS'indiv.separation()'
p24
aS'indiv.target()'
p25
aS'indiv.flee()'
p26
aS'indiv.currentVelocity()'
p27
aS'indiv.mostEnergizedNeighbor()'
p28
aS'indiv.randV()'
p29
asS'parent'
p30
g14
sS'data'
p31
g22
sS'left'
p32
Nsbsg20
(lp33
g22
ag23
ag24
ag25
ag26
ag27
ag28
ag29
asg30
g9
sg31
S'+'
sg32
(i__main__
Node
p34
(dp35
g11
(lp36
S'+'
aS'-'
aS'*'
aS'/'
asg13
Nsg20
(lp37
g22
ag23
ag24
ag25
ag26
ag27
ag28
ag29
asg30
g14
sg31
g25
sg32
Nsbsbsg20
(lp38
g22
ag23
ag24
ag25
ag26
ag27
ag28
ag29
asg30
Nsg31
S'+'
sg32
(i__main__
Node
p39
(dp40
g11
(lp41
S'+'
aS'-'
aS'*'
aS'/'
asg13
Nsg20
(lp42
g22
ag23
ag24
ag25
ag26
ag27
ag28
ag29
asg30
g9
sg31
g26
sg32
NsbsbsS'accel_x'
p43
F-0.49304857822403392
sS'accel_y'
p44
F-0.3640440900651214
sS'maxAccel'
p45
I2
sS'maxVel'
p46
F0.5
sS'age'
p47
I156
sS'gener'
p48
S'm'
sS'lastScale'
p49
F15.301011736297498
sS'energy'
p50
F0.9801011736297498
sb.(i__main__
Data_mobile
p1
(dp2
S'vel_y'
p3
F0.374125616426978
sS'vel_x'
p4
F0.3317077375237632
sS'pos_x'
p5
F26.107976759610427
sS'pos_y'
p6
F80.359146422976707
sS'isAlive'
p7
I01
sS'geno'
p8
(i__main__
Node
p9
(dp10
S'node'
p11
(lp12
S'+'
aS'-'
aS'*'
aS'/'
asS'right'
p13
(i__main__
Node
p14
(dp15
g11
(lp16
S'+'
aS'-'
aS'*'
aS'/'
asg13
(i__main__
Node
p17
(dp18
g11
(lp19
S'+'
aS'-'
aS'*'
aS'/'
asg13
NsS'leaf'
p20
(lp21
S'indiv.alignment()'
p22
aS'indiv.cohesion()'
p23
aS'indiv.separation()'
p24
aS'indiv.target()'
p25
aS'indiv.flee()'
p26
aS'indiv.currentVelocity()'
p27
aS'indiv.mostEnergizedNeighbor()'
p28
aS'indiv.randV()'
p29
asS'parent'
p30
g14
sS'data'
p31
g22
sS'left'
p32
Nsbsg20
(lp33
g22
ag23
ag24
ag25
ag26
ag27
ag28
ag29
asg30
g9
sg31
S'+'
sg32
(i__main__
Node
p34
(dp35
g11
(lp36
S'+'
aS'-'
aS'*'
aS'/'
asg13
Nsg20
(lp37
g22
ag23
ag24
ag25
ag26
ag27
ag28
ag29
asg30
g14
sg31
g25
sg32
Nsbsbsg20
(lp38
g22
ag23
ag24
ag25
ag26
ag27
ag28
ag29
asg30
Nsg31
S'+'
sg32
(i__main__
Node
p39
(dp40
g11
(lp41
S'+'
aS'-'
aS'*'
aS'/'
asg13
Nsg20
(lp42
g22
ag23
ag24
ag25
ag26
ag27
ag28
ag29
asg30
g9
sg31
g26
sg32
NsbsbsS'accel_x'
p43
F0.48838577113355913
sS'accel_y'
p44
F-0.60959908632084203
sS'maxAccel'
p45
I2
sS'maxVel'
p46
F0.5
sS'age'
p47
I150
sS'gener'
p48
S'm'
sS'lastScale'
p49
F15.301657194409474
sS'energy'
p50
F0.97003618216564047
sb.(i__main__
Data_mobile
p1
(dp2
S'vel_y'
p3
F0.49798896069356358
sS'vel_x'
p4
F0.044799498070228032
sS'pos_x'
p5
F-49.562556488007239
sS'pos_y'
p6
F75.65698273007078
sS'isAlive'
p7
I01
sS'geno'
p8
(i__main__
Node
p9
(dp10
S'node'
p11
(lp12
S'+'
aS'-'
aS'*'
aS'/'
asS'right'
p13
(i__main__
Node
p14
(dp15
g11
(lp16
S'+'
aS'-'
aS'*'
aS'/'
asg13
(i__main__
Node
p17
(dp18
g11
(lp19
S'+'
aS'-'
aS'*'
aS'/'
asg13
NsS'leaf'
p20
(lp21
S'indiv.alignment()'
p22
aS'indiv.cohesion()'
p23
aS'indiv.separation()'
p24
aS'indiv.target()'
p25
aS'indiv.flee()'
p26
aS'indiv.currentVelocity()'
p27
aS'indiv.mostEnergizedNeighbor()'
p28
aS'indiv.randV()'
p29
asS'parent'
p30
g14
sS'data'
p31
g22
sS'left'
p32
Nsbsg20
(lp33
g22
ag23
ag24
ag25
ag26
ag27
ag28
ag29
asg30
g9
sg31
S'+'
sg32
(i__main__
Node
p34
(dp35
g11
(lp36
S'+'
aS'-'
aS'*'
aS'/'
asg13
Nsg20
(lp37
g22
ag23
ag24
ag25
ag26
ag27
ag28
ag29
asg30
g14
sg31
g25
sg32
Nsbsbsg20
(lp38
g22
ag23
ag24
ag25
ag26
ag27
ag28
ag29
asg30
Nsg31
S'+'
sg32
(i__main__
Node
p39
(dp40
g11
(lp41
S'+'
aS'-'
aS'*'
aS'/'
asg13
Nsg20
(lp42
g22
ag23
ag24
ag25
ag26
ag27
ag28
ag29
asg30
g9
sg31
g26
sg32
NsbsbsS'accel_x'
p43
F-0.76329989138895216
sS'accel_y'
p44
F0.3753861159504539
sS'maxAccel'
p45
I2
sS'maxVel'
p46
F0.5
sS'age'
p47
I50
sS'gener'
p48
S'm'
sS'lastScale'
p49
F15.398593637295674
sS'energy'
p50
F0.98985936372956751
sb.(i__main__
Data_mobile
p1
(dp2
S'vel_y'
p3
F-0.32783254826434194
sS'vel_x'
p4
F-0.13961201073975149
sS'pos_x'
p5
F-7.4903089005766876
sS'pos_y'
p6
F-9.945080304889057
sS'isAlive'
p7
I01
sS'geno'
p8
(i__main__
Node
p9
(dp10
S'node'
p11
(lp12
S'+'
aS'-'
aS'*'
aS'/'
asS'right'
p13
(i__main__
Node
p14
(dp15
g11
(lp16
S'+'
aS'-'
aS'*'
aS'/'
asg13
(i__main__
Node
p17
(dp18
g11
(lp19
S'+'
aS'-'
aS'*'
aS'/'
asg13
NsS'leaf'
p20
(lp21
S'indiv.alignment()'
p22
aS'indiv.cohesion()'
p23
aS'indiv.separation()'
p24
aS'indiv.target()'
p25
aS'indiv.flee()'
p26
aS'indiv.currentVelocity()'
p27
aS'indiv.mostEnergizedNeighbor()'
p28
aS'indiv.randV()'
p29
asS'parent'
p30
g14
sS'data'
p31
g22
sS'left'
p32
Nsbsg20
(lp33
g22
ag23
ag24
ag25
ag26
ag27
ag28
ag29
asg30
g9
sg31
S'+'
sg32
(i__main__
Node
p34
(dp35
g11
(lp36
S'+'
aS'-'
aS'*'
aS'/'
asg13
Nsg20
(lp37
g22
ag23
ag24
ag25
ag26
ag27
ag28
ag29
asg30
g14
sg31
g25
sg32
Nsbsbsg20
(lp38
g22
ag23
ag24
ag25
ag26
ag27
ag28
ag29
asg30
Nsg31
S'+'
sg32
(i__main__
Node
p39
(dp40
g11
(lp41
S'+'
aS'-'
aS'*'
aS'/'
asg13
Nsg20
(lp42
g22
ag23
ag24
ag25
ag26
ag27
ag28
ag29
asg30
g9
sg31
g26
sg32
NsbsbsS'accel_x'
p43
F-0.40592446528709408
sS'accel_y'
p44
F-0.85080348011038531
sS'maxAccel'
p45
I2
sS'maxVel'
p46
F0.5
sS'age'
p47
I50
sS'gener'
p48
S'm'
sS'lastScale'
p49
F15.398593637295674
sS'energy'
p50
F0.98985936372956751
sb.(i__main__
Data_mobile
p1
(dp2
S'vel_y'
p3
F-0.43409198133381599
sS'vel_x'
p4
F-0.19707950588663486
sS'pos_x'
p5
F-7.5187479724951958
sS'pos_y'
p6
F-9.9980153128449718
sS'isAlive'
p7
I01
sS'geno'
p8
(i__main__
Node
p9
(dp10
S'node'
p11
(lp12
S'+'
aS'-'
aS'*'
aS'/'
asS'right'
p13
(i__main__
Node
p14
(dp15
g11
(lp16
S'+'
aS'-'
aS'*'
aS'/'
asg13
(i__main__
Node
p17
(dp18
g11
(lp19
S'+'
aS'-'
aS'*'
aS'/'
asg13
NsS'leaf'
p20
(lp21
S'indiv.alignment()'
p22
aS'indiv.cohesion()'
p23
aS'indiv.separation()'
p24
aS'indiv.target()'
p25
aS'indiv.flee()'
p26
aS'indiv.currentVelocity()'
p27
aS'indiv.mostEnergizedNeighbor()'
p28
aS'indiv.randV()'
p29
asS'parent'
p30
g14
sS'data'
p31
g22
sS'left'
p32
Nsbsg20
(lp33
g22
ag23
ag24
ag25
ag26
ag27
ag28
ag29
asg30
g9
sg31
S'+'
sg32
(i__main__
Node
p34
(dp35
g11
(lp36
S'+'
aS'-'
aS'*'
aS'/'
asg13
Nsg20
(lp37
g22
ag23
ag24
ag25
ag26
ag27
ag28
ag29
asg30
g14
sg31
g25
sg32
Nsbsbsg20
(lp38
g22
ag23
ag24
ag25
ag26
ag27
ag28
ag29
asg30
Nsg31
S'+'
sg32
(i__main__
Node
p39
(dp40
g11
(lp41
S'+'
aS'-'
aS'*'
aS'/'
asg13
Nsg20
(lp42
g22
ag23
ag24
ag25
ag26
ag27
ag28
ag29
asg30
g9
sg31
g26
sg32
NsbsbsS'accel_x'
p43
F-0.42429532459680958
sS'accel_y'
p44
F-0.90190645553331983
sS'maxAccel'
p45
I2
sS'maxVel'
p46
F0.5
sS'age'
p47
I50
sS'gener'
p48
S'm'
sS'lastScale'
p49
F15.398593637295674
sS'energy'
p50
F0.98985936372956751
sb.(i__main__
Data_mobile
p1
(dp2
S'vel_y'
p3
F-0.45552173700621928
sS'vel_x'
p4
F-0.20615515301548207
sS'pos_x'
p5
F-7.5394195108569173
sS'pos_y'
p6
F-10.045031272613068
sS'isAlive'
p7
I01
sS'geno'
p8
(i__main__
Node
p9
(dp10
S'node'
p11
(lp12
S'+'
aS'-'
aS'*'
aS'/'
asS'right'
p13
(i__main__
Node
p14
(dp15
g11
(lp16
S'+'
aS'-'
aS'*'
aS'/'
asg13
(i__main__
Node
p17
(dp18
g11
(lp19
S'+'
aS'-'
aS'*'
aS'/'
asg13
NsS'leaf'
p20
(lp21
S'indiv.alignment()'
p22
aS'indiv.cohesion()'
p23
aS'indiv.separation()'
p24
aS'indiv.target()'
p25
aS'indiv.flee()'
p26
aS'indiv.currentVelocity()'
p27
aS'indiv.mostEnergizedNeighbor()'
p28
aS'indiv.randV()'
p29
asS'parent'
p30
g14
sS'data'
p31
g22
sS'left'
p32
Nsbsg20
(lp33
g22
ag23
ag24
ag25
ag26
ag27
ag28
ag29
asg30
g9
sg31
S'+'
sg32
(i__main__
Node
p34
(dp35
g11
(lp36
S'+'
aS'-'
aS'*'
aS'/'
asg13
Nsg20
(lp37
g22
ag23
ag24
ag25
ag26
ag27
ag28
ag29
asg30
g14
sg31
g25
sg32
Nsbsbsg20
(lp38
g22
ag23
ag24
ag25
ag26
ag27
ag28
ag29
asg30
Nsg31
S'+'
sg32
(i__main__
Node
p39
(dp40
g11
(lp41
S'+'
aS'-'
aS'*'
aS'/'
asg13
Nsg20
(lp42
g22
ag23
ag24
ag25
ag26
ag27
ag28
ag29
asg30
g9
sg31
g26
sg32
NsbsbsS'accel_x'
p43
F-0.45953074707760294
sS'accel_y'
p44
F-0.97453293217492365
sS'maxAccel'
p45
I2
sS'maxVel'
p46
F0.5
sS'age'
p47
I50
sS'gener'
p48
S'm'
sS'lastScale'
p49
F15.398593637295674
sS'energy'
p50
F0.98985936372956751
sb.(i__main__
Data_mobile
p1
(dp2
S'vel_y'
p3
F-0.44986034516011469
sS'vel_x'
p4
F-0.21823306315135318
sS'pos_x'
p5
F-7.6007236049515896
sS'pos_y'
p6
F-10.146972022618392
sS'isAlive'
p7
I01
sS'geno'
p8
(i__main__
Node
p9
(dp10
S'node'
p11
(lp12
S'+'
aS'-'
aS'*'
aS'/'
asS'right'
p13
(i__main__
Node
p14
(dp15
g11
(lp16
S'+'
aS'-'
aS'*'
aS'/'
asg13
(i__main__
Node
p17
(dp18
g11
(lp19
S'+'
aS'-'
aS'*'
aS'/'
asg13
NsS'leaf'
p20
(lp21
S'indiv.alignment()'
p22
aS'indiv.cohesion()'
p23
aS'indiv.separation()'
p24
aS'indiv.target()'
p25
aS'indiv.flee()'
p26
aS'indiv.currentVelocity()'
p27
aS'indiv.mostEnergizedNeighbor()'
p28
aS'indiv.randV()'
p29
asS'parent'
p30
g14
sS'data'
p31
g22
sS'left'
p32
Nsbsg20
(lp33
g22
ag23
ag24
ag25
ag26
ag27
ag28
ag29
asg30
g9
sg31
S'+'
sg32
(i__main__
Node
p34
(dp35
g11
(lp36
S'+'
aS'-'
aS'*'
aS'/'
asg13
Nsg20
(lp37
g22
ag23
ag24
ag25
ag26
ag27
ag28
ag29
asg30
g14
sg31
g25
sg32
Nsbsbsg20
(lp38
g22
ag23
ag24
ag25
ag26
ag27
ag28
ag29
asg30
Nsg31
S'+'
sg32
(i__main__
Node
p39
(dp40
g11
(lp41
S'+'
aS'-'
aS'*'
aS'/'
asg13
Nsg20
(lp42
g22
ag23
ag24
ag25
ag26
ag27
ag28
ag29
asg30
g9
sg31
g26
sg32
NsbsbsS'accel_x'
p43
F-0.50023757234328348
sS'accel_y'
p44
F-1.0992509841557609
sS'maxAccel'
p45
I2
sS'maxVel'
p46
F0.5
sS'age'
p47
I50
sS'gener'
p48
S'm'
sS'lastScale'
p49
F15.398593637295674
sS'energy'
p50
F0.98985936372956751
sb.(i__main__
Data_mobile
p1
(dp2
S'vel_y'
p3
F0.0058979050748305117
sS'vel_x'
p4
F0.026107981644043536
sS'pos_x'
p5
F-7.4289343024133592
sS'pos_y'
p6
F-9.787304995982943
sS'isAlive'
p7
I01
sS'geno'
p8
(i__main__
Node
p9
(dp10
S'node'
p11
(lp12
S'+'
aS'-'
aS'*'
aS'/'
asS'right'
p13
(i__main__
Node
p14
(dp15
g11
(lp16
S'+'
aS'-'
aS'*'
aS'/'
asg13
(i__main__
Node
p17
(dp18
g11
(lp19
S'+'
aS'-'
aS'*'
aS'/'
asg13
NsS'leaf'
p20
(lp21
S'indiv.alignment()'
p22
aS'indiv.cohesion()'
p23
aS'indiv.separation()'
p24
aS'indiv.target()'
p25
aS'indiv.flee()'
p26
aS'indiv.currentVelocity()'
p27
aS'indiv.mostEnergizedNeighbor()'
p28
aS'indiv.randV()'
p29
asS'parent'
p30
g14
sS'data'
p31
g22
sS'left'
p32
Nsbsg20
(lp33
g22
ag23
ag24
ag25
ag26
ag27
ag28
ag29
asg30
g9
sg31
S'+'
sg32
(i__main__
Node
p34
(dp35
g11
(lp36
S'+'
aS'-'
aS'*'
aS'/'
asg13
Nsg20
(lp37
g22
ag23
ag24
ag25
ag26
ag27
ag28
ag29
asg30
g14
sg31
g25
sg32
Nsbsbsg20
(lp38
g22
ag23
ag24
ag25
ag26
ag27
ag28
ag29
asg30
Nsg31
S'+'
sg32
(i__main__
Node
p39
(dp40
g11
(lp41
S'+'
aS'-'
aS'*'
aS'/'
asg13
Nsg20
(lp42
g22
ag23
ag24
ag25
ag26
ag27
ag28
ag29
asg30
g9
sg31
g26
sg32
NsbsbsS'accel_x'
p43
F-0.44848766125389417
sS'accel_y'
p44
F-0.96293773377248093
sS'maxAccel'
p45
I2
sS'maxVel'
p46
F0.5
sS'age'
p47
I50
sS'gener'
p48
S'm'
sS'lastScale'
p49
F14.482567602243996
sS'energy'
p50
F0.8982567602243996
sb.(i__main__
Data_mobile
p1
(dp2
S'vel_y'
p3
F0.49784060145538184
sS'vel_x'
p4
F-0.046419129058435725
sS'pos_x'
p5
F-113.75460638736331
sS'pos_y'
p6
F25.262436369491812
sS'isAlive'
p7
I01
sS'geno'
p8
(i__main__
Node
p9
(dp10
S'node'
p11
(lp12
S'+'
aS'-'
aS'*'
aS'/'
asS'right'
p13
(i__main__
Node
p14
(dp15
g11
(lp16
S'+'
aS'-'
aS'*'
aS'/'
asg13
(i__main__
Node
p17
(dp18
g11
(lp19
S'+'
aS'-'
aS'*'
aS'/'
asg13
NsS'leaf'
p20
(lp21
S'indiv.alignment()'
p22
aS'indiv.cohesion()'
p23
aS'indiv.separation()'
p24
aS'indiv.target()'
p25
aS'indiv.flee()'
p26
aS'indiv.currentVelocity()'
p27
aS'indiv.mostEnergizedNeighbor()'
p28
aS'indiv.randV()'
p29
asS'parent'
p30
g14
sS'data'
p31
g22
sS'left'
p32
Nsbsg20
(lp33
g22
ag23
ag24
ag25
ag26
ag27
ag28
ag29
asg30
g9
sg31
S'+'
sg32
(i__main__
Node
p34
(dp35
g11
(lp36
S'+'
aS'-'
aS'*'
aS'/'
asg13
Nsg20
(lp37
g22
ag23
ag24
ag25
ag26
ag27
ag28
ag29
asg30
g14
sg31
g25
sg32
Nsbsbsg20
(lp38
g22
ag23
ag24
ag25
ag26
ag27
ag28
ag29
asg30
Nsg31
S'+'
sg32
(i__main__
Node
p39
(dp40
g11
(lp41
S'+'
aS'-'
aS'*'
aS'/'
asg13
Nsg20
(lp42
g22
ag23
ag24
ag25
ag26
ag27
ag28
ag29
asg30
g9
sg31
g26
sg32
NsbsbsS'accel_x'
p43
F0.095025228537892303
sS'accel_y'
p44
F-0.29239180497517125
sS'maxAccel'
p45
I2
sS'maxVel'
p46
F0.5
sS'age'
p47
I30
sS'gener'
p48
S'm'
sS'lastScale'
p49
F15.399731307324753
sS'energy'
p50
F0.98997313073247528
sb.(i__main__
Data_mobile
p1
(dp2
S'vel_y'
p3
F-0.38365989684720886
sS'vel_x'
p4
F-0.32063231831989286
sS'pos_x'
p5
F-38.084510470630867
sS'pos_y'
p6
F-28.292611072116141
sS'isAlive'
p7
I01
sS'geno'
p8
(i__main__
Node
p9
(dp10
S'node'
p11
(lp12
S'+'
aS'-'
aS'*'
aS'/'
asS'right'
p13
(i__main__
Node
p14
(dp15
g11
(lp16
S'+'
aS'-'
aS'*'
aS'/'
asg13
(i__main__
Node
p17
(dp18
g11
(lp19
S'+'
aS'-'
aS'*'
aS'/'
asg13
NsS'leaf'
p20
(lp21
S'indiv.alignment()'
p22
aS'indiv.cohesion()'
p23
aS'indiv.separation()'
p24
aS'indiv.target()'
p25
aS'indiv.flee()'
p26
aS'indiv.currentVelocity()'
p27
aS'indiv.mostEnergizedNeighbor()'
p28
aS'indiv.randV()'
p29
asS'parent'
p30
g14
sS'data'
p31
g22
sS'left'
p32
Nsbsg20
(lp33
g22
ag23
ag24
ag25
ag26
ag27
ag28
ag29
asg30
g9
sg31
S'+'
sg32
(i__main__
Node
p34
(dp35
g11
(lp36
S'+'
aS'-'
aS'*'
aS'/'
asg13
Nsg20
(lp37
g22
ag23
ag24
ag25
ag26
ag27
ag28
ag29
asg30
g14
sg31
g25
sg32
Nsbsbsg20
(lp38
g22
ag23
ag24
ag25
ag26
ag27
ag28
ag29
asg30
Nsg31
S'+'
sg32
(i__main__
Node
p39
(dp40
g11
(lp41
S'+'
aS'-'
aS'*'
aS'/'
asg13
Nsg20
(lp42
g22
ag23
ag24
ag25
ag26
ag27
ag28
ag29
asg30
g9
sg31
g26
sg32
NsbsbsS'accel_x'
p43
F0.017018027274865233
sS'accel_y'
p44
F0.018215853258350734
sS'maxAccel'
p45
I2
sS'maxVel'
p46
F0.5
sS'age'
p47
I30
sS'gener'
p48
S'm'
sS'lastScale'
p49
F15.399731307324753
sS'energy'
p50
F0.98997313073247528
sb.(i__main__
Data_mobile
p1
(dp2
S'vel_y'
p3
F0.47790515280674722
sS'vel_x'
p4
F-0.14699205733902629
sS'pos_x'
p5
F-49.663606690762187
sS'pos_y'
p6
F76.033341918314875
sS'isAlive'
p7
I01
sS'geno'
p8
(i__main__
Node
p9
(dp10
S'node'
p11
(lp12
S'+'
aS'-'
aS'*'
aS'/'
asS'right'
p13
(i__main__
Node
p14
(dp15
g11
(lp16
S'+'
aS'-'
aS'*'
aS'/'
asg13
(i__main__
Node
p17
(dp18
g11
(lp19
S'+'
aS'-'
aS'*'
aS'/'
asg13
NsS'leaf'
p20
(lp21
S'indiv.alignment()'
p22
aS'indiv.cohesion()'
p23
aS'indiv.separation()'
p24
aS'indiv.target()'
p25
aS'indiv.flee()'
p26
aS'indiv.currentVelocity()'
p27
aS'indiv.mostEnergizedNeighbor()'
p28
aS'indiv.randV()'
p29
asS'parent'
p30
g14
sS'data'
p31
g22
sS'left'
p32
Nsbsg20
(lp33
g22
ag23
ag24
ag25
ag26
ag27
ag28
ag29
asg30
g9
sg31
S'+'
sg32
(i__main__
Node
p34
(dp35
g11
(lp36
S'+'
aS'-'
aS'*'
aS'/'
asg13
Nsg20
(lp37
g22
ag23
ag24
ag25
ag26
ag27
ag28
ag29
asg30
g14
sg31
g25
sg32
Nsbsbsg20
(lp38
g22
ag23
ag24
ag25
ag26
ag27
ag28
ag29
asg30
Nsg31
S'+'
sg32
(i__main__
Node
p39
(dp40
g11
(lp41
S'+'
aS'-'
aS'*'
aS'/'
asg13
Nsg20
(lp42
g22
ag23
ag24
ag25
ag26
ag27
ag28
ag29
asg30
g9
sg31
g26
sg32
NsbsbsS'accel_x'
p43
F-0.84537689218612222
sS'accel_y'
p44
F0.051988452518090589
sS'maxAccel'
p45
I2
sS'maxVel'
p46
F0.5
sS'age'
p47
I30
sS'gener'
p48
S'm'
sS'lastScale'
p49
F15.399731307324753
sS'energy'
p50
F0.98997313073247528
sb.(i__main__
Data_mobile
p1
(dp2
S'vel_y'
p3
F0.47830043413369416
sS'vel_x'
p4
F0.14570070249494244
sS'pos_x'
p5
F81.576614851753348
sS'pos_y'
p6
F-60.440072887783991
sS'isAlive'
p7
I01
sS'geno'
p8
(i__main__
Node
p9
(dp10
S'node'
p11
(lp12
S'+'
aS'-'
aS'*'
aS'/'
asS'right'
p13
(i__main__
Node
p14
(dp15
g11
(lp16
S'+'
aS'-'
aS'*'
aS'/'
asg13
(i__main__
Node
p17
(dp18
g11
(lp19
S'+'
aS'-'
aS'*'
aS'/'
asg13
NsS'leaf'
p20
(lp21
S'indiv.alignment()'
p22
aS'indiv.cohesion()'
p23
aS'indiv.separation()'
p24
aS'indiv.target()'
p25
aS'indiv.flee()'
p26
aS'indiv.currentVelocity()'
p27
aS'indiv.mostEnergizedNeighbor()'
p28
aS'indiv.randV()'
p29
asS'parent'
p30
g14
sS'data'
p31
g22
sS'left'
p32
Nsbsg20
(lp33
g22
ag23
ag24
ag25
ag26
ag27
ag28
ag29
asg30
g9
sg31
S'+'
sg32
(i__main__
Node
p34
(dp35
g11
(lp36
S'+'
aS'-'
aS'*'
aS'/'
asg13
Nsg20
(lp37
g22
ag23
ag24
ag25
ag26
ag27
ag28
ag29
asg30
g14
sg31
g25
sg32
Nsbsbsg20
(lp38
g22
ag23
ag24
ag25
ag26
ag27
ag28
ag29
asg30
Nsg31
S'+'
sg32
(i__main__
Node
p39
(dp40
g11
(lp41
S'+'
aS'-'
aS'*'
aS'/'
asg13
Nsg20
(lp42
g22
ag23
ag24
ag25
ag26
ag27
ag28
ag29
asg30
g9
sg31
g26
sg32
NsbsbsS'accel_x'
p43
F0.1140710257802624
sS'accel_y'
p44
F0.37539957319301465
sS'maxAccel'
p45
I2
sS'maxVel'
p46
F0.5
sS'age'
p47
I30
sS'gener'
p48
S'm'
sS'lastScale'
p49
F15.399731307324753
sS'energy'
p50
F0.98997313073247528
sb.(i__main__
Data_mobile
p1
(dp2
S'vel_y'
p3
F-0.026345193723414657
sS'vel_x'
p4
F0.035005386222907414
sS'pos_x'
p5
F-123.37289496460372
sS'pos_y'
p6
F-44.573857545556535
sS'isAlive'
p7
I01
sS'geno'
p8
(i__main__
Node
p9
(dp10
S'node'
p11
(lp12
S'+'
aS'-'
aS'*'
aS'/'
asS'right'
p13
(i__main__
Node
p14
(dp15
g11
(lp16
S'+'
aS'-'
aS'*'
aS'/'
asg13
(i__main__
Node
p17
(dp18
g11
(lp19
S'+'
aS'-'
aS'*'
aS'/'
asg13
NsS'leaf'
p20
(lp21
S'indiv.alignment()'
p22
aS'indiv.cohesion()'
p23
aS'indiv.separation()'
p24
aS'indiv.target()'
p25
aS'indiv.flee()'
p26
aS'indiv.currentVelocity()'
p27
aS'indiv.mostEnergizedNeighbor()'
p28
aS'indiv.randV()'
p29
asS'parent'
p30
g14
sS'data'
p31
g22
sS'left'
p32
Nsbsg20
(lp33
g22
ag23
ag24
ag25
ag26
ag27
ag28
ag29
asg30
g9
sg31
S'+'
sg32
(i__main__
Node
p34
(dp35
g11
(lp36
S'+'
aS'-'
aS'*'
aS'/'
asg13
Nsg20
(lp37
g22
ag23
ag24
ag25
ag26
ag27
ag28
ag29
asg30
g14
sg31
g25
sg32
Nsbsbsg20
(lp38
g22
ag23
ag24
ag25
ag26
ag27
ag28
ag29
asg30
Nsg31
S'+'
sg32
(i__main__
Node
p39
(dp40
g11
(lp41
S'+'
aS'-'
aS'*'
aS'/'
asg13
Nsg20
(lp42
g22
ag23
ag24
ag25
ag26
ag27
ag28
ag29
asg30
g9
sg31
g26
sg32
NsbsbsS'accel_x'
p43
F-0.58265869964219519
sS'accel_y'
p44
F0.43851126409703767
sS'maxAccel'
p45
I2
sS'maxVel'
p46
F0.5
sS'age'
p47
I30
sS'gener'
p48
S'm'
sS'lastScale'
p49
F15.399731307324753
sS'energy'
p50
F0.98997313073247528
sb.(i__main__
Data_mobile
p1
(dp2
S'vel_y'
p3
F-0.21773847184589368
sS'vel_x'
p4
F-0.28936845585984527
sS'pos_x'
p5
F-172.51992760840363
sS'pos_y'
p6
F55.955025615858226
sS'isAlive'
p7
I01
sS'geno'
p8
(i__main__
Node
p9
(dp10
S'node'
p11
(lp12
S'+'
aS'-'
aS'*'
aS'/'
asS'right'
p13
(i__main__
Node
p14
(dp15
g11
(lp16
S'+'
aS'-'
aS'*'
aS'/'
asg13
(i__main__
Node
p17
(dp18
g11
(lp19
S'+'
aS'-'
aS'*'
aS'/'
asg13
NsS'leaf'
p20
(lp21
S'indiv.alignment()'
p22
aS'indiv.cohesion()'
p23
aS'indiv.separation()'
p24
aS'indiv.target()'
p25
aS'indiv.flee()'
p26
aS'indiv.currentVelocity()'
p27
aS'indiv.mostEnergizedNeighbor()'
p28
aS'indiv.randV()'
p29
asS'parent'
p30
g14
sS'data'
p31
g22
sS'left'
p32
Nsbsg20
(lp33
g22
ag23
ag24
ag25
ag26
ag27
ag28
ag29
asg30
g9
sg31
S'+'
sg32
(i__main__
Node
p34
(dp35
g11
(lp36
S'+'
aS'-'
aS'*'
aS'/'
asg13
Nsg20
(lp37
g22
ag23
ag24
ag25
ag26
ag27
ag28
ag29
asg30
g14
sg31
g25
sg32
Nsbsbsg20
(lp38
g22
ag23
ag24
ag25
ag26
ag27
ag28
ag29
asg30
Nsg31
S'+'
sg32
(i__main__
Node
p39
(dp40
g11
(lp41
S'+'
aS'-'
aS'*'
aS'/'
asg13
Nsg20
(lp42
g22
ag23
ag24
ag25
ag26
ag27
ag28
ag29
asg30
g9
sg31
g26
sg32
NsbsbsS'accel_x'
p43
F0.45492759516133674
sS'accel_y'
p44
F0.34222139997277878
sS'maxAccel'
p45
I2
sS'maxVel'
p46
F0.5
sS'age'
p47
I30
sS'gener'
p48
S'm'
sS'lastScale'
p49
F15.399731307324753
sS'energy'
p50
F0.98997313073247528
sb.(i__main__
Data_mobile
p1
(dp2
S'vel_y'
p3
F-0.10125205025964434
sS'vel_x'
p4
F-0.48964070737451815
sS'pos_x'
p5
F192.85145919443806
sS'pos_y'
p6
F57.292032148112455
sS'isAlive'
p7
I01
sS'geno'
p8
(i__main__
Node
p9
(dp10
S'node'
p11
(lp12
S'+'
aS'-'
aS'*'
aS'/'
asS'right'
p13
(i__main__
Node
p14
(dp15
g11
(lp16
S'+'
aS'-'
aS'*'
aS'/'
asg13
(i__main__
Node
p17
(dp18
g11
(lp19
S'+'
aS'-'
aS'*'
aS'/'
asg13
NsS'leaf'
p20
(lp21
S'indiv.alignment()'
p22
aS'indiv.cohesion()'
p23
aS'indiv.separation()'
p24
aS'indiv.target()'
p25
aS'indiv.flee()'
p26
aS'indiv.currentVelocity()'
p27
aS'indiv.mostEnergizedNeighbor()'
p28
aS'indiv.randV()'
p29
asS'parent'
p30
NsS'data'
p31
g26
sS'left'
p32
Nsbsg20
(lp33
g22
ag23
ag24
ag25
ag26
ag27
ag28
ag29
asg30
Nsg31
S'*'
sg32
(i__main__
Node
p34
(dp35
g11
(lp36
S'+'
aS'-'
aS'*'
aS'/'
asg13
Nsg20
(lp37
g22
ag23
ag24
ag25
ag26
ag27
ag28
ag29
asg30
Nsg31
g26
sg32
Nsbsbsg20
(lp38
g22
ag23
ag24
ag25
ag26
ag27
ag28
ag29
asg30
Nsg31
S'-'
sg32
(i__main__
Node
p39
(dp40
g11
(lp41
S'+'
aS'-'
aS'*'
aS'/'
asg13
(i__main__
Node
p42
(dp43
g11
(lp44
S'+'
aS'-'
aS'*'
aS'/'
asg13
Nsg20
(lp45
g22
ag23
ag24
ag25
ag26
ag27
ag28
ag29
asg30
Nsg31
g29
sg32
Nsbsg20
(lp46
g22
ag23
ag24
ag25
ag26
ag27
ag28
ag29
asg30
Nsg31
S'-'
sg32
(i__main__
Node
p47
(dp48
g11
(lp49
S'+'
aS'-'
aS'*'
aS'/'
asg13
Nsg20
(lp50
g22
ag23
ag24
ag25
ag26
ag27
ag28
ag29
asg30
Nsg31
g25
sg32
NsbsbsbsS'accel_x'
p51
F-1.7560735447307552
sS'accel_y'
p52
F0.95718634836522853
sS'maxAccel'
p53
I2
sS'maxVel'
p54
F0.5
sS'age'
p55
I30
sS'gener'
p56
S'm'
sS'lastScale'
p57
F7.4969117012921274
sS'energy'
p58
F0.19969117012921278
sb.(i__main__
Data_mobile
p1
(dp2
S'vel_y'
p3
F0.17769247994831072
sS'vel_x'
p4
F0.41277736321048097
sS'pos_x'
p5
F-11.770941404128735
sS'pos_y'
p6
F-80.263166557597316
sS'isAlive'
p7
I01
sS'geno'
p8
(i__main__
Node
p9
(dp10
S'node'
p11
(lp12
S'+'
aS'-'
aS'*'
aS'/'
asS'right'
p13
(i__main__
Node
p14
(dp15
g11
(lp16
S'+'
aS'-'
aS'*'
aS'/'
asg13
(i__main__
Node
p17
(dp18
g11
(lp19
S'+'
aS'-'
aS'*'
aS'/'
asg13
NsS'leaf'
p20
(lp21
S'indiv.alignment()'
p22
aS'indiv.cohesion()'
p23
aS'indiv.separation()'
p24
aS'indiv.target()'
p25
aS'indiv.flee()'
p26
aS'indiv.currentVelocity()'
p27
aS'indiv.mostEnergizedNeighbor()'
p28
aS'indiv.randV()'
p29
asS'parent'
p30
g14
sS'data'
p31
g25
sS'left'
p32
Nsbsg20
(lp33
g22
ag23
ag24
ag25
ag26
ag27
ag28
ag29
asg30
g9
sg31
S'+'
sg32
(i__main__
Node
p34
(dp35
g11
(lp36
S'+'
aS'-'
aS'*'
aS'/'
asg13
Nsg20
(lp37
g22
ag23
ag24
ag25
ag26
ag27
ag28
ag29
asg30
g14
sg31
g23
sg32
Nsbsbsg20
(lp38
g22
ag23
ag24
ag25
ag26
ag27
ag28
ag29
asg30
Nsg31
S'+'
sg32
(i__main__
Node
p39
(dp40
g11
(lp41
S'+'
aS'-'
aS'*'
aS'/'
asg13
Nsg20
(lp42
g22
ag23
ag24
ag25
ag26
ag27
ag28
ag29
asg30
g9
sg31
g26
sg32
NsbsbsS'accel_x'
p43
F0
sS'accel_y'
p44
F0
sS'maxAccel'
p45
I2
sS'maxVel'
p46
F0.5
sS'age'
p47
I30
sS'gener'
p48
S'm'
sS'lastScale'
p49
F7.4969117012921274
sS'energy'
p50
F0.19969117012921278
sb.(i__main__
Data_mobile
p1
(dp2
S'vel_y'
p3
F-0.38104343987525302
sS'vel_x'
p4
F-0.32373738883242142
sS'pos_x'
p5
F-133.71137319798402
sS'pos_y'
p6
F-98.281776877361636
sS'isAlive'
p7
I01
sS'geno'
p8
(i__main__
Node
p9
(dp10
S'node'
p11
(lp12
S'+'
aS'-'
aS'*'
aS'/'
asS'right'
p13
(i__main__
Node
p14
(dp15
g11
(lp16
S'+'
aS'-'
aS'*'
aS'/'
asg13
(i__main__
Node
p17
(dp18
g11
(lp19
S'+'
aS'-'
aS'*'
aS'/'
asg13
NsS'leaf'
p20
(lp21
S'indiv.alignment()'
p22
aS'indiv.cohesion()'
p23
aS'indiv.separation()'
p24
aS'indiv.target()'
p25
aS'indiv.flee()'
p26
aS'indiv.currentVelocity()'
p27
aS'indiv.mostEnergizedNeighbor()'
p28
aS'indiv.randV()'
p29
asS'parent'
p30
NsS'data'
p31
g24
sS'left'
p32
Nsbsg20
(lp33
g22
ag23
ag24
ag25
ag26
ag27
ag28
ag29
asg30
Nsg31
S'-'
sg32
(i__main__
Node
p34
(dp35
g11
(lp36
S'+'
aS'-'
aS'*'
aS'/'
asg13
Nsg20
(lp37
g22
ag23
ag24
ag25
ag26
ag27
ag28
ag29
asg30
Nsg31
g29
sg32
Nsbsbsg20
(lp38
g22
ag23
ag24
ag25
ag26
ag27
ag28
ag29
asg30
Nsg31
S'*'
sg32
(i__main__
Node
p39
(dp40
g11
(lp41
S'+'
aS'-'
aS'*'
aS'/'
asg13
(i__main__
Node
p42
(dp43
g11
(lp44
S'+'
aS'-'
aS'*'
aS'/'
asg13
Nsg20
(lp45
g22
ag23
ag24
ag25
ag26
ag27
ag28
ag29
asg30
Nsg31
g28
sg32
Nsbsg20
(lp46
g22
ag23
ag24
ag25
ag26
ag27
ag28
ag29
asg30
Nsg31
S'+'
sg32
(i__main__
Node
p47
(dp48
g11
(lp49
S'+'
aS'-'
aS'*'
aS'/'
asg13
Nsg20
(lp50
g22
ag23
ag24
ag25
ag26
ag27
ag28
ag29
asg30
Nsg31
g22
sg32
NsbsbsbsS'accel_x'
p51
F0
sS'accel_y'
p52
F0
sS'maxAccel'
p53
I2
sS'maxVel'
p54
F0.5
sS'age'
p55
I30
sS'gener'
p56
S'm'
sS'lastScale'
p57
F7.4969117012921274
sS'energy'
p58
F0.19969117012921278
sb.(i__main__
Data_mobile
p1
(dp2
S'vel_y'
p3
F0.080306282965616371
sS'vel_x'
p4
F-0.20545027800281068
sS'pos_x'
p5
F-120.82468488389733
sS'pos_y'
p6
F36.389922778487986
sS'isAlive'
p7
I01
sS'geno'
p8
(i__main__
Node
p9
(dp10
S'node'
p11
(lp12
S'+'
aS'-'
aS'*'
aS'/'
asS'right'
p13
(i__main__
Node
p14
(dp15
g11
(lp16
S'+'
aS'-'
aS'*'
aS'/'
asg13
(i__main__
Node
p17
(dp18
g11
(lp19
S'+'
aS'-'
aS'*'
aS'/'
asg13
NsS'leaf'
p20
(lp21
S'indiv.alignment()'
p22
aS'indiv.cohesion()'
p23
aS'indiv.separation()'
p24
aS'indiv.target()'
p25
aS'indiv.flee()'
p26
aS'indiv.currentVelocity()'
p27
aS'indiv.mostEnergizedNeighbor()'
p28
aS'indiv.randV()'
p29
asS'parent'
p30
NsS'data'
p31
g22
sS'left'
p32
Nsbsg20
(lp33
g22
ag23
ag24
ag25
ag26
ag27
ag28
ag29
asg30
Nsg31
S'+'
sg32
(i__main__
Node
p34
(dp35
g11
(lp36
S'+'
aS'-'
aS'*'
aS'/'
asg13
Nsg20
(lp37
g22
ag23
ag24
ag25
ag26
ag27
ag28
ag29
asg30
Nsg31
g25
sg32
Nsbsbsg20
(lp38
g22
ag23
ag24
ag25
ag26
ag27
ag28
ag29
asg30
Nsg31
S'/'
sg32
(i__main__
Node
p39
(dp40
g11
(lp41
S'+'
aS'-'
aS'*'
aS'/'
asg13
(i__main__
Node
p42
(dp43
g11
(lp44
S'+'
aS'-'
aS'*'
aS'/'
asg13
Nsg20
(lp45
g22
ag23
ag24
ag25
ag26
ag27
ag28
ag29
asg30
Nsg31
g26
sg32
Nsbsg20
(lp46
g22
ag23
ag24
ag25
ag26
ag27
ag28
ag29
asg30
Nsg31
S'/'
sg32
(i__main__
Node
p47
(dp48
g11
(lp49
S'+'
aS'-'
aS'*'
aS'/'
asg13
Nsg20
(lp50
g22
ag23
ag24
ag25
ag26
ag27
ag28
ag29
asg30
Nsg31
g27
sg32
NsbsbsbsS'accel_x'
p51
F0
sS'accel_y'
p52
F-0
sS'maxAccel'
p53
I2
sS'maxVel'
p54
F0.5
sS'age'
p55
I30
sS'gener'
p56
S'm'
sS'lastScale'
p57
F7.4969117012921274
sS'energy'
p58
F0.19969117012921278
sb.(i__main__
Data_mobile
p1
(dp2
S'vel_y'
p3
F-0.0018109691649428328
sS'vel_x'
p4
F0.26375704063188499
sS'pos_x'
p5
F59.099982343359294
sS'pos_y'
p6
F-47.061182631003632
sS'isAlive'
p7
I01
sS'geno'
p8
(i__main__
Node
p9
(dp10
S'node'
p11
(lp12
S'+'
aS'-'
aS'*'
aS'/'
asS'right'
p13
(i__main__
Node
p14
(dp15
g11
(lp16
S'+'
aS'-'
aS'*'
aS'/'
asg13
(i__main__
Node
p17
(dp18
g11
(lp19
S'+'
aS'-'
aS'*'
aS'/'
asg13
NsS'leaf'
p20
(lp21
S'indiv.alignment()'
p22
aS'indiv.cohesion()'
p23
aS'indiv.separation()'
p24
aS'indiv.target()'
p25
aS'indiv.flee()'
p26
aS'indiv.currentVelocity()'
p27
aS'indiv.mostEnergizedNeighbor()'
p28
aS'indiv.randV()'
p29
asS'parent'
p30
NsS'data'
p31
g27
sS'left'
p32
Nsbsg20
(lp33
g22
ag23
ag24
ag25
ag26
ag27
ag28
ag29
asg30
Nsg31
S'*'
sg32
(i__main__
Node
p34
(dp35
g11
(lp36
S'+'
aS'-'
aS'*'
aS'/'
asg13
Nsg20
(lp37
g22
ag23
ag24
ag25
ag26
ag27
ag28
ag29
asg30
Nsg31
g25
sg32
Nsbsbsg20
(lp38
g22
ag23
ag24
ag25
ag26
ag27
ag28
ag29
asg30
Nsg31
S'/'
sg32
(i__main__
Node
p39
(dp40
g11
(lp41
S'+'
aS'-'
aS'*'
aS'/'
asg13
(i__main__
Node
p42
(dp43
g11
(lp44
S'+'
aS'-'
aS'*'
aS'/'
asg13
Nsg20
(lp45
g22
ag23
ag24
ag25
ag26
ag27
ag28
ag29
asg30
Nsg31
g25
sg32
Nsbsg20
(lp46
g22
ag23
ag24
ag25
ag26
ag27
ag28
ag29
asg30
Nsg31
S'*'
sg32
(i__main__
Node
p47
(dp48
g11
(lp49
S'+'
aS'-'
aS'*'
aS'/'
asg13
Nsg20
(lp50
g22
ag23
ag24
ag25
ag26
ag27
ag28
ag29
asg30
Nsg31
g24
sg32
NsbsbsbsS'accel_x'
p51
F0
sS'accel_y'
p52
F0
sS'maxAccel'
p53
I2
sS'maxVel'
p54
F0.5
sS'age'
p55
I30
sS'gener'
p56
S'm'
sS'lastScale'
p57
F7.4969117012921274
sS'energy'
p58
F0.19969117012921278
sb.(i__main__
Data_mobile
p1
(dp2
S'vel_y'
p3
F0.3541042636404465
sS'vel_x'
p4
F0.039334202272353069
sS'pos_x'
p5
F-25.512907490884146
sS'pos_y'
p6
F26.885834605915722
sS'isAlive'
p7
I01
sS'geno'
p8
(i__main__
Node
p9
(dp10
S'node'
p11
(lp12
S'+'
aS'-'
aS'*'
aS'/'
asS'right'
p13
(i__main__
Node
p14
(dp15
g11
(lp16
S'+'
aS'-'
aS'*'
aS'/'
asg13
(i__main__
Node
p17
(dp18
g11
(lp19
S'+'
aS'-'
aS'*'
aS'/'
asg13
NsS'leaf'
p20
(lp21
S'indiv.alignment()'
p22
aS'indiv.cohesion()'
p23
aS'indiv.separation()'
p24
aS'indiv.target()'
p25
aS'indiv.flee()'
p26
aS'indiv.currentVelocity()'
p27
aS'indiv.mostEnergizedNeighbor()'
p28
aS'indiv.randV()'
p29
asS'parent'
p30
g14
sS'data'
p31
g22
sS'left'
p32
Nsbsg20
(lp33
g22
ag23
ag24
ag25
ag26
ag27
ag28
ag29
asg30
g9
sg31
S'+'
sg32
(i__main__
Node
p34
(dp35
g11
(lp36
S'+'
aS'-'
aS'*'
aS'/'
asg13
Nsg20
(lp37
g22
ag23
ag24
ag25
ag26
ag27
ag28
ag29
asg30
g14
sg31
g25
sg32
Nsbsbsg20
(lp38
g22
ag23
ag24
ag25
ag26
ag27
ag28
ag29
asg30
Nsg31
S'+'
sg32
(i__main__
Node
p39
(dp40
g11
(lp41
S'+'
aS'-'
aS'*'
aS'/'
asg13
Nsg20
(lp42
g22
ag23
ag24
ag25
ag26
ag27
ag28
ag29
asg30
g9
sg31
g26
sg32
NsbsbsS'accel_x'
p43
F0
sS'accel_y'
p44
F0
sS'maxAccel'
p45
I2
sS'maxVel'
p46
F0.5
sS'age'
p47
I0
sS'gener'
p48
S'm'
sS'lastScale'
p49
F5.5
sS'energy'
p50
F0.5
sb.(i__main__
Data_mobile
p1
(dp2
S'vel_y'
p3
F0.14860684859065337
sS'vel_x'
p4
F0.031528617787359554
sS'pos_x'
p5
F-43.200427216638765
sS'pos_y'
p6
F62.754991972698278
sS'isAlive'
p7
I01
sS'geno'
p8
(i__main__
Node
p9
(dp10
S'node'
p11
(lp12
S'+'
aS'-'
aS'*'
aS'/'
asS'right'
p13
(i__main__
Node
p14
(dp15
g11
(lp16
S'+'
aS'-'
aS'*'
aS'/'
asg13
(i__main__
Node
p17
(dp18
g11
(lp19
S'+'
aS'-'
aS'*'
aS'/'
asg13
NsS'leaf'
p20
(lp21
S'indiv.alignment()'
p22
aS'indiv.cohesion()'
p23
aS'indiv.separation()'
p24
aS'indiv.target()'
p25
aS'indiv.flee()'
p26
aS'indiv.currentVelocity()'
p27
aS'indiv.mostEnergizedNeighbor()'
p28
aS'indiv.randV()'
p29
asS'parent'
p30
g14
sS'data'
p31
g22
sS'left'
p32
Nsbsg20
(lp33
g22
ag23
ag24
ag25
ag26
ag27
ag28
ag29
asg30
g9
sg31
S'+'
sg32
(i__main__
Node
p34
(dp35
g11
(lp36
S'+'
aS'-'
aS'*'
aS'/'
asg13
Nsg20
(lp37
g22
ag23
ag24
ag25
ag26
ag27
ag28
ag29
asg30
g14
sg31
g25
sg32
Nsbsbsg20
(lp38
g22
ag23
ag24
ag25
ag26
ag27
ag28
ag29
asg30
Nsg31
S'+'
sg32
(i__main__
Node
p39
(dp40
g11
(lp41
S'+'
aS'-'
aS'*'
aS'/'
asg13
Nsg20
(lp42
g22
ag23
ag24
ag25
ag26
ag27
ag28
ag29
asg30
g9
sg31
g26
sg32
NsbsbsS'accel_x'
p43
F0
sS'accel_y'
p44
F0
sS'maxAccel'
p45
I2
sS'maxVel'
p46
F0.5
sS'age'
p47
I0
sS'gener'
p48
S'm'
sS'lastScale'
p49
F5.5
sS'energy'
p50
F0.5
sb.(i__main__
Data_mobile
p1
(dp2
S'vel_y'
p3
F0.37270197047568215
sS'vel_x'
p4
F-0.24484571143520756
sS'pos_x'
p5
F-86.907188029359105
sS'pos_y'
p6
F60.893909393229109
sS'isAlive'
p7
I01
sS'geno'
p8
(i__main__
Node
p9
(dp10
S'node'
p11
(lp12
S'+'
aS'-'
aS'*'
aS'/'
asS'right'
p13
(i__main__
Node
p14
(dp15
g11
(lp16
S'+'
aS'-'
aS'*'
aS'/'
asg13
(i__main__
Node
p17
(dp18
g11
(lp19
S'+'
aS'-'
aS'*'
aS'/'
asg13
NsS'leaf'
p20
(lp21
S'indiv.alignment()'
p22
aS'indiv.cohesion()'
p23
aS'indiv.separation()'
p24
aS'indiv.target()'
p25
aS'indiv.flee()'
p26
aS'indiv.currentVelocity()'
p27
aS'indiv.mostEnergizedNeighbor()'
p28
aS'indiv.randV()'
p29
asS'parent'
p30
g14
sS'data'
p31
g22
sS'left'
p32
Nsbsg20
(lp33
g22
ag23
ag24
ag25
ag26
ag27
ag28
ag29
asg30
g9
sg31
S'+'
sg32
(i__main__
Node
p34
(dp35
g11
(lp36
S'+'
aS'-'
aS'*'
aS'/'
asg13
Nsg20
(lp37
g22
ag23
ag24
ag25
ag26
ag27
ag28
ag29
asg30
g14
sg31
g25
sg32
Nsbsbsg20
(lp38
g22
ag23
ag24
ag25
ag26
ag27
ag28
ag29
asg30
Nsg31
S'+'
sg32
(i__main__
Node
p39
(dp40
g11
(lp41
S'+'
aS'-'
aS'*'
aS'/'
asg13
Nsg20
(lp42
g22
ag23
ag24
ag25
ag26
ag27
ag28
ag29
asg30
g9
sg31
g26
sg32
NsbsbsS'accel_x'
p43
F0
sS'accel_y'
p44
F0
sS'maxAccel'
p45
I2
sS'maxVel'
p46
F0.5
sS'age'
p47
I0
sS'gener'
p48
S'm'
sS'lastScale'
p49
F5.5
sS'energy'
p50
F0.5
sb.(i__main__
Data_mobile
p1
(dp2
S'vel_y'
p3
F0.38878360249775462
sS'vel_x'
p4
F-0.22988754741087386
sS'pos_x'
p5
F-124.1562391469384
sS'pos_y'
p6
F45.752253415219258
sS'isAlive'
p7
I01
sS'geno'
p8
(i__main__
Node
p9
(dp10
S'node'
p11
(lp12
S'+'
aS'-'
aS'*'
aS'/'
asS'right'
p13
(i__main__
Node
p14
(dp15
g11
(lp16
S'+'
aS'-'
aS'*'
aS'/'
asg13
(i__main__
Node
p17
(dp18
g11
(lp19
S'+'
aS'-'
aS'*'
aS'/'
asg13
NsS'leaf'
p20
(lp21
S'indiv.alignment()'
p22
aS'indiv.cohesion()'
p23
aS'indiv.separation()'
p24
aS'indiv.target()'
p25
aS'indiv.flee()'
p26
aS'indiv.currentVelocity()'
p27
aS'indiv.mostEnergizedNeighbor()'
p28
aS'indiv.randV()'
p29
asS'parent'
p30
g14
sS'data'
p31
g22
sS'left'
p32
Nsbsg20
(lp33
g22
ag23
ag24
ag25
ag26
ag27
ag28
ag29
asg30
g9
sg31
S'+'
sg32
(i__main__
Node
p34
(dp35
g11
(lp36
S'+'
aS'-'
aS'*'
aS'/'
asg13
Nsg20
(lp37
g22
ag23
ag24
ag25
ag26
ag27
ag28
ag29
asg30
g14
sg31
g25
sg32
Nsbsbsg20
(lp38
g22
ag23
ag24
ag25
ag26
ag27
ag28
ag29
asg30
Nsg31
S'+'
sg32
(i__main__
Node
p39
(dp40
g11
(lp41
S'+'
aS'-'
aS'*'
aS'/'
asg13
Nsg20
(lp42
g22
ag23
ag24
ag25
ag26
ag27
ag28
ag29
asg30
g9
sg31
g26
sg32
NsbsbsS'accel_x'
p43
F0
sS'accel_y'
p44
F0
sS'maxAccel'
p45
I2
sS'maxVel'
p46
F0.5
sS'age'
p47
I0
sS'gener'
p48
S'm'
sS'lastScale'
p49
F5.5
sS'energy'
p50
F0.5
sb.(i__main__
Data_mobile
p1
(dp2
S'vel_y'
p3
F-0.30975323115672465
sS'vel_x'
p4
F-0.19691595479620244
sS'pos_x'
p5
F-26.317025764878576
sS'pos_y'
p6
F28.325935788729613
sS'isAlive'
p7
I01
sS'geno'
p8
(i__main__
Node
p9
(dp10
S'node'
p11
(lp12
S'+'
aS'-'
aS'*'
aS'/'
asS'right'
p13
(i__main__
Node
p14
(dp15
g11
(lp16
S'+'
aS'-'
aS'*'
aS'/'
asg13
(i__main__
Node
p17
(dp18
g11
(lp19
S'+'
aS'-'
aS'*'
aS'/'
asg13
NsS'leaf'
p20
(lp21
S'indiv.alignment()'
p22
aS'indiv.cohesion()'
p23
aS'indiv.separation()'
p24
aS'indiv.target()'
p25
aS'indiv.flee()'
p26
aS'indiv.currentVelocity()'
p27
aS'indiv.mostEnergizedNeighbor()'
p28
aS'indiv.randV()'
p29
asS'parent'
p30
g14
sS'data'
p31
g22
sS'left'
p32
Nsbsg20
(lp33
g22
ag23
ag24
ag25
ag26
ag27
ag28
ag29
asg30
g9
sg31
S'+'
sg32
(i__main__
Node
p34
(dp35
g11
(lp36
S'+'
aS'-'
aS'*'
aS'/'
asg13
Nsg20
(lp37
g22
ag23
ag24
ag25
ag26
ag27
ag28
ag29
asg30
g14
sg31
g25
sg32
Nsbsbsg20
(lp38
g22
ag23
ag24
ag25
ag26
ag27
ag28
ag29
asg30
Nsg31
S'+'
sg32
(i__main__
Node
p39
(dp40
g11
(lp41
S'+'
aS'-'
aS'*'
aS'/'
asg13
Nsg20
(lp42
g22
ag23
ag24
ag25
ag26
ag27
ag28
ag29
asg30
g9
sg31
g26
sg32
NsbsbsS'accel_x'
p43
F0
sS'accel_y'
p44
F0
sS'maxAccel'
p45
I2
sS'maxVel'
p46
F0.5
sS'age'
p47
I0
sS'gener'
p48
S'm'
sS'lastScale'
p49
F5.5
sS'energy'
p50
F0.5
sb.(i__main__
Data_mobile
p1
(dp2
S'vel_y'
p3
F0.20842521732215999
sS'vel_x'
p4
F-0.16407241722575974
sS'pos_x'
p5
F-46.712744853462667
sS'pos_y'
p6
F70.003424109310714
sS'isAlive'
p7
I01
sS'geno'
p8
(i__main__
Node
p9
(dp10
S'node'
p11
(lp12
S'+'
aS'-'
aS'*'
aS'/'
asS'right'
p13
(i__main__
Node
p14
(dp15
g11
(lp16
S'+'
aS'-'
aS'*'
aS'/'
asg13
(i__main__
Node
p17
(dp18
g11
(lp19
S'+'
aS'-'
aS'*'
aS'/'
asg13
NsS'leaf'
p20
(lp21
S'indiv.alignment()'
p22
aS'indiv.cohesion()'
p23
aS'indiv.separation()'
p24
aS'indiv.target()'
p25
aS'indiv.flee()'
p26
aS'indiv.currentVelocity()'
p27
aS'indiv.mostEnergizedNeighbor()'
p28
aS'indiv.randV()'
p29
asS'parent'
p30
g14
sS'data'
p31
g22
sS'left'
p32
Nsbsg20
(lp33
g22
ag23
ag24
ag25
ag26
ag27
ag28
ag29
asg30
g9
sg31
S'+'
sg32
(i__main__
Node
p34
(dp35
g11
(lp36
S'+'
aS'-'
aS'*'
aS'/'
asg13
Nsg20
(lp37
g22
ag23
ag24
ag25
ag26
ag27
ag28
ag29
asg30
g14
sg31
g25
sg32
Nsbsbsg20
(lp38
g22
ag23
ag24
ag25
ag26
ag27
ag28
ag29
asg30
Nsg31
S'+'
sg32
(i__main__
Node
p39
(dp40
g11
(lp41
S'+'
aS'-'
aS'*'
aS'/'
asg13
Nsg20
(lp42
g22
ag23
ag24
ag25
ag26
ag27
ag28
ag29
asg30
g9
sg31
g26
sg32
NsbsbsS'accel_x'
p43
F0
sS'accel_y'
p44
F0
sS'maxAccel'
p45
I2
sS'maxVel'
p46
F0.5
sS'age'
p47
I0
sS'gener'
p48
S'm'
sS'lastScale'
p49
F5.5
sS'energy'
p50
F0.5
sb.(i__main__
Data_mobile
p1
(dp2
S'vel_y'
p3
F0.4291512432165776
sS'vel_x'
p4
F-0.24738849836409837
sS'pos_x'
p5
F-37.557057488393895
sS'pos_y'
p6
F82.711861277714235
sS'isAlive'
p7
I01
sS'geno'
p8
(i__main__
Node
p9
(dp10
S'node'
p11
(lp12
S'+'
aS'-'
aS'*'
aS'/'
asS'right'
p13
(i__main__
Node
p14
(dp15
g11
(lp16
S'+'
aS'-'
aS'*'
aS'/'
asg13
(i__main__
Node
p17
(dp18
g11
(lp19
S'+'
aS'-'
aS'*'
aS'/'
asg13
NsS'leaf'
p20
(lp21
S'indiv.alignment()'
p22
aS'indiv.cohesion()'
p23
aS'indiv.separation()'
p24
aS'indiv.target()'
p25
aS'indiv.flee()'
p26
aS'indiv.currentVelocity()'
p27
aS'indiv.mostEnergizedNeighbor()'
p28
aS'indiv.randV()'
p29
asS'parent'
p30
g14
sS'data'
p31
g22
sS'left'
p32
Nsbsg20
(lp33
g22
ag23
ag24
ag25
ag26
ag27
ag28
ag29
asg30
g9
sg31
S'+'
sg32
(i__main__
Node
p34
(dp35
g11
(lp36
S'+'
aS'-'
aS'*'
aS'/'
asg13
Nsg20
(lp37
g22
ag23
ag24
ag25
ag26
ag27
ag28
ag29
asg30
g14
sg31
g25
sg32
Nsbsbsg20
(lp38
g22
ag23
ag24
ag25
ag26
ag27
ag28
ag29
asg30
Nsg31
S'+'
sg32
(i__main__
Node
p39
(dp40
g11
(lp41
S'+'
aS'-'
aS'*'
aS'/'
asg13
Nsg20
(lp42
g22
ag23
ag24
ag25
ag26
ag27
ag28
ag29
asg30
g9
sg31
g26
sg32
NsbsbsS'accel_x'
p43
F0
sS'accel_y'
p44
F0
sS'maxAccel'
p45
I2
sS'maxVel'
p46
F0.5
sS'age'
p47
I0
sS'gener'
p48
S'm'
sS'lastScale'
p49
F5.5
sS'energy'
p50
F0.5
sb.(i__main__
Data_mobile
p1
(dp2
S'vel_y'
p3
F0.38964648804297941
sS'vel_x'
p4
F0.16836424004952813
sS'pos_x'
p5
F-73.636084303918906
sS'pos_y'
p6
F84.045146704102251
sS'isAlive'
p7
I01
sS'geno'
p8
(i__main__
Node
p9
(dp10
S'node'
p11
(lp12
S'+'
aS'-'
aS'*'
aS'/'
asS'right'
p13
(i__main__
Node
p14
(dp15
g11
(lp16
S'+'
aS'-'
aS'*'
aS'/'
asg13
(i__main__
Node
p17
(dp18
g11
(lp19
S'+'
aS'-'
aS'*'
aS'/'
asg13
NsS'leaf'
p20
(lp21
S'indiv.alignment()'
p22
aS'indiv.cohesion()'
p23
aS'indiv.separation()'
p24
aS'indiv.target()'
p25
aS'indiv.flee()'
p26
aS'indiv.currentVelocity()'
p27
aS'indiv.mostEnergizedNeighbor()'
p28
aS'indiv.randV()'
p29
asS'parent'
p30
g14
sS'data'
p31
g22
sS'left'
p32
Nsbsg20
(lp33
g22
ag23
ag24
ag25
ag26
ag27
ag28
ag29
asg30
g9
sg31
S'+'
sg32
(i__main__
Node
p34
(dp35
g11
(lp36
S'+'
aS'-'
aS'*'
aS'/'
asg13
Nsg20
(lp37
g22
ag23
ag24
ag25
ag26
ag27
ag28
ag29
asg30
g14
sg31
g25
sg32
Nsbsbsg20
(lp38
g22
ag23
ag24
ag25
ag26
ag27
ag28
ag29
asg30
Nsg31
S'+'
sg32
(i__main__
Node
p39
(dp40
g11
(lp41
S'+'
aS'-'
aS'*'
aS'/'
asg13
Nsg20
(lp42
g22
ag23
ag24
ag25
ag26
ag27
ag28
ag29
asg30
g9
sg31
g26
sg32
NsbsbsS'accel_x'
p43
F0
sS'accel_y'
p44
F0
sS'maxAccel'
p45
I2
sS'maxVel'
p46
F0.5
sS'age'
p47
I0
sS'gener'
p48
S'm'
sS'lastScale'
p49
F5.5
sS'energy'
p50
F0.5
sb.(i__main__
Data_mobile
p1
(dp2
S'vel_y'
p3
F-0.41267666296516992
sS'vel_x'
p4
F-0.18382714008173931
sS'pos_x'
p5
F-7.4983983838616846
sS'pos_y'
p6
F-9.9615441948327774
sS'isAlive'
p7
I01
sS'geno'
p8
(i__main__
Node
p9
(dp10
S'node'
p11
(lp12
S'+'
aS'-'
aS'*'
aS'/'
asS'right'
p13
(i__main__
Node
p14
(dp15
g11
(lp16
S'+'
aS'-'
aS'*'
aS'/'
asg13
(i__main__
Node
p17
(dp18
g11
(lp19
S'+'
aS'-'
aS'*'
aS'/'
asg13
NsS'leaf'
p20
(lp21
S'indiv.alignment()'
p22
aS'indiv.cohesion()'
p23
aS'indiv.separation()'
p24
aS'indiv.target()'
p25
aS'indiv.flee()'
p26
aS'indiv.currentVelocity()'
p27
aS'indiv.mostEnergizedNeighbor()'
p28
aS'indiv.randV()'
p29
asS'parent'
p30
g14
sS'data'
p31
g22
sS'left'
p32
Nsbsg20
(lp33
g22
ag23
ag24
ag25
ag26
ag27
ag28
ag29
asg30
g9
sg31
S'+'
sg32
(i__main__
Node
p34
(dp35
g11
(lp36
S'+'
aS'-'
aS'*'
aS'/'
asg13
Nsg20
(lp37
g22
ag23
ag24
ag25
ag26
ag27
ag28
ag29
asg30
g14
sg31
g25
sg32
Nsbsbsg20
(lp38
g22
ag23
ag24
ag25
ag26
ag27
ag28
ag29
asg30
Nsg31
S'+'
sg32
(i__main__
Node
p39
(dp40
g11
(lp41
S'+'
aS'-'
aS'*'
aS'/'
asg13
Nsg20
(lp42
g22
ag23
ag24
ag25
ag26
ag27
ag28
ag29
asg30
g9
sg31
g26
sg32
NsbsbsS'accel_x'
p43
F0
sS'accel_y'
p44
F0
sS'maxAccel'
p45
I2
sS'maxVel'
p46
F0.5
sS'age'
p47
I0
sS'gener'
p48
S'm'
sS'lastScale'
p49
F5.5
sS'energy'
p50
F0.5
sb.(i__main__
Data_mobile
p1
(dp2
S'vel_y'
p3
F-0.42840000767119185
sS'vel_x'
p4
F-0.19202110524145399
sS'pos_x'
p5
F-7.490473343579982
sS'pos_y'
p6
F-9.9454149828175318
sS'isAlive'
p7
I01
sS'geno'
p8
(i__main__
Node
p9
(dp10
S'node'
p11
(lp12
S'+'
aS'-'
aS'*'
aS'/'
asS'right'
p13
(i__main__
Node
p14
(dp15
g11
(lp16
S'+'
aS'-'
aS'*'
aS'/'
asg13
(i__main__
Node
p17
(dp18
g11
(lp19
S'+'
aS'-'
aS'*'
aS'/'
asg13
NsS'leaf'
p20
(lp21
S'indiv.alignment()'
p22
aS'indiv.cohesion()'
p23
aS'indiv.separation()'
p24
aS'indiv.target()'
p25
aS'indiv.flee()'
p26
aS'indiv.currentVelocity()'
p27
aS'indiv.mostEnergizedNeighbor()'
p28
aS'indiv.randV()'
p29
asS'parent'
p30
g14
sS'data'
p31
g22
sS'left'
p32
Nsbsg20
(lp33
g22
ag23
ag24
ag25
ag26
ag27
ag28
ag29
asg30
g9
sg31
S'+'
sg32
(i__main__
Node
p34
(dp35
g11
(lp36
S'+'
aS'-'
aS'*'
aS'/'
asg13
Nsg20
(lp37
g22
ag23
ag24
ag25
ag26
ag27
ag28
ag29
asg30
g14
sg31
g25
sg32
Nsbsbsg20
(lp38
g22
ag23
ag24
ag25
ag26
ag27
ag28
ag29
asg30
Nsg31
S'+'
sg32
(i__main__
Node
p39
(dp40
g11
(lp41
S'+'
aS'-'
aS'*'
aS'/'
asg13
Nsg20
(lp42
g22
ag23
ag24
ag25
ag26
ag27
ag28
ag29
asg30
g9
sg31
g26
sg32
NsbsbsS'accel_x'
p43
F0
sS'accel_y'
p44
F0
sS'maxAccel'
p45
I2
sS'maxVel'
p46
F0.5
sS'age'
p47
I0
sS'gener'
p48
S'm'
sS'lastScale'
p49
F5.5
sS'energy'
p50
F0.5
sb.(i__main__
Data_mobile
p1
(dp2
S'vel_y'
p3
F-0.20482692855393486
sS'vel_x'
p4
F-0.059709880978800617
sS'pos_x'
p5
F15.641937027446485
sS'pos_y'
p6
F-66.98993724122262
sS'isAlive'
p7
I01
sS'geno'
p8
(i__main__
Node
p9
(dp10
S'node'
p11
(lp12
S'+'
aS'-'
aS'*'
aS'/'
asS'right'
p13
(i__main__
Node
p14
(dp15
g11
(lp16
S'+'
aS'-'
aS'*'
aS'/'
asg13
(i__main__
Node
p17
(dp18
g11
(lp19
S'+'
aS'-'
aS'*'
aS'/'
asg13
NsS'leaf'
p20
(lp21
S'indiv.alignment()'
p22
aS'indiv.cohesion()'
p23
aS'indiv.separation()'
p24
aS'indiv.target()'
p25
aS'indiv.flee()'
p26
aS'indiv.currentVelocity()'
p27
aS'indiv.mostEnergizedNeighbor()'
p28
aS'indiv.randV()'
p29
asS'parent'
p30
g14
sS'data'
p31
g22
sS'left'
p32
Nsbsg20
(lp33
g22
ag23
ag24
ag25
ag26
ag27
ag28
ag29
asg30
g9
sg31
S'+'
sg32
(i__main__
Node
p34
(dp35
g11
(lp36
S'+'
aS'-'
aS'*'
aS'/'
asg13
Nsg20
(lp37
g22
ag23
ag24
ag25
ag26
ag27
ag28
ag29
asg30
g14
sg31
g25
sg32
Nsbsbsg20
(lp38
g22
ag23
ag24
ag25
ag26
ag27
ag28
ag29
asg30
Nsg31
S'+'
sg32
(i__main__
Node
p39
(dp40
g11
(lp41
S'+'
aS'-'
aS'*'
aS'/'
asg13
Nsg20
(lp42
g22
ag23
ag24
ag25
ag26
ag27
ag28
ag29
asg30
g9
sg31
g26
sg32
NsbsbsS'accel_x'
p43
F0
sS'accel_y'
p44
F0
sS'maxAccel'
p45
I2
sS'maxVel'
p46
F0.5
sS'age'
p47
I0
sS'gener'
p48
S'm'
sS'lastScale'
p49
F5.5
sS'energy'
p50
F0.5
sb.(i__main__
Data_mobile
p1
(dp2
S'vel_y'
p3
F-0.36243899320364925
sS'vel_x'
p4
F-0.28967041037807689
sS'pos_x'
p5
F5.9169858487415228
sS'pos_y'
p6
F-59.985386870486685
sS'isAlive'
p7
I01
sS'geno'
p8
(i__main__
Node
p9
(dp10
S'node'
p11
(lp12
S'+'
aS'-'
aS'*'
aS'/'
asS'right'
p13
(i__main__
Node
p14
(dp15
g11
(lp16
S'+'
aS'-'
aS'*'
aS'/'
asg13
(i__main__
Node
p17
(dp18
g11
(lp19
S'+'
aS'-'
aS'*'
aS'/'
asg13
NsS'leaf'
p20
(lp21
S'indiv.alignment()'
p22
aS'indiv.cohesion()'
p23
aS'indiv.separation()'
p24
aS'indiv.target()'
p25
aS'indiv.flee()'
p26
aS'indiv.currentVelocity()'
p27
aS'indiv.mostEnergizedNeighbor()'
p28
aS'indiv.randV()'
p29
asS'parent'
p30
g14
sS'data'
p31
g22
sS'left'
p32
Nsbsg20
(lp33
g22
ag23
ag24
ag25
ag26
ag27
ag28
ag29
asg30
g9
sg31
S'+'
sg32
(i__main__
Node
p34
(dp35
g11
(lp36
S'+'
aS'-'
aS'*'
aS'/'
asg13
Nsg20
(lp37
g22
ag23
ag24
ag25
ag26
ag27
ag28
ag29
asg30
g14
sg31
g25
sg32
Nsbsbsg20
(lp38
g22
ag23
ag24
ag25
ag26
ag27
ag28
ag29
asg30
Nsg31
S'+'
sg32
(i__main__
Node
p39
(dp40
g11
(lp41
S'+'
aS'-'
aS'*'
aS'/'
asg13
Nsg20
(lp42
g22
ag23
ag24
ag25
ag26
ag27
ag28
ag29
asg30
g9
sg31
g26
sg32
NsbsbsS'accel_x'
p43
F0
sS'accel_y'
p44
F0
sS'maxAccel'
p45
I2
sS'maxVel'
p46
F0.5
sS'age'
p47
I0
sS'gener'
p48
S'm'
sS'lastScale'
p49
F5.5
sS'energy'
p50
F0.5
sb.(i__main__
Data_mobile
p1
(dp2
S'vel_y'
p3
F-0.40937823897447362
sS'vel_x'
p4
F-0.078362426324371584
sS'pos_x'
p5
F-153.09718733299457
sS'pos_y'
p6
F-14.103362921115604
sS'isAlive'
p7
I01
sS'geno'
p8
(i__main__
Node
p9
(dp10
S'node'
p11
(lp12
S'+'
aS'-'
aS'*'
aS'/'
asS'right'
p13
(i__main__
Node
p14
(dp15
g11
(lp16
S'+'
aS'-'
aS'*'
aS'/'
asg13
(i__main__
Node
p17
(dp18
g11
(lp19
S'+'
aS'-'
aS'*'
aS'/'
asg13
NsS'leaf'
p20
(lp21
S'indiv.alignment()'
p22
aS'indiv.cohesion()'
p23
aS'indiv.separation()'
p24
aS'indiv.target()'
p25
aS'indiv.flee()'
p26
aS'indiv.currentVelocity()'
p27
aS'indiv.mostEnergizedNeighbor()'
p28
aS'indiv.randV()'
p29
asS'parent'
p30
g14
sS'data'
p31
g22
sS'left'
p32
Nsbsg20
(lp33
g22
ag23
ag24
ag25
ag26
ag27
ag28
ag29
asg30
g9
sg31
S'+'
sg32
(i__main__
Node
p34
(dp35
g11
(lp36
S'+'
aS'-'
aS'*'
aS'/'
asg13
Nsg20
(lp37
g22
ag23
ag24
ag25
ag26
ag27
ag28
ag29
asg30
g14
sg31
g25
sg32
Nsbsbsg20
(lp38
g22
ag23
ag24
ag25
ag26
ag27
ag28
ag29
asg30
Nsg31
S'+'
sg32
(i__main__
Node
p39
(dp40
g11
(lp41
S'+'
aS'-'
aS'*'
aS'/'
asg13
Nsg20
(lp42
g22
ag23
ag24
ag25
ag26
ag27
ag28
ag29
asg30
g9
sg31
g26
sg32
NsbsbsS'accel_x'
p43
F0
sS'accel_y'
p44
F0
sS'maxAccel'
p45
I2
sS'maxVel'
p46
F0.5
sS'age'
p47
I50
sS'gener'
p48
S'm'
sS'lastScale'
p49
F5.5
sS'energy'
p50
I0
sb.(i__main__
Data_mobile
p1
(dp2
S'vel_y'
p3
F-0.39678720439872706
sS'vel_x'
p4
F0.0069983066767280722
sS'pos_x'
p5
F-69.219379340139952
sS'pos_y'
p6
F-49.350542550287564
sS'isAlive'
p7
I01
sS'geno'
p8
(i__main__
Node
p9
(dp10
S'node'
p11
(lp12
S'+'
aS'-'
aS'*'
aS'/'
asS'right'
p13
(i__main__
Node
p14
(dp15
g11
(lp16
S'+'
aS'-'
aS'*'
aS'/'
asg13
(i__main__
Node
p17
(dp18
g11
(lp19
S'+'
aS'-'
aS'*'
aS'/'
asg13
NsS'leaf'
p20
(lp21
S'indiv.alignment()'
p22
aS'indiv.cohesion()'
p23
aS'indiv.separation()'
p24
aS'indiv.target()'
p25
aS'indiv.flee()'
p26
aS'indiv.currentVelocity()'
p27
aS'indiv.mostEnergizedNeighbor()'
p28
aS'indiv.randV()'
p29
asS'parent'
p30
g14
sS'data'
p31
g22
sS'left'
p32
Nsbsg20
(lp33
g22
ag23
ag24
ag25
ag26
ag27
ag28
ag29
asg30
g9
sg31
S'+'
sg32
(i__main__
Node
p34
(dp35
g11
(lp36
S'+'
aS'-'
aS'*'
aS'/'
asg13
Nsg20
(lp37
g22
ag23
ag24
ag25
ag26
ag27
ag28
ag29
asg30
g14
sg31
g25
sg32
Nsbsbsg20
(lp38
g22
ag23
ag24
ag25
ag26
ag27
ag28
ag29
asg30
Nsg31
S'+'
sg32
(i__main__
Node
p39
(dp40
g11
(lp41
S'+'
aS'-'
aS'*'
aS'/'
asg13
Nsg20
(lp42
g22
ag23
ag24
ag25
ag26
ag27
ag28
ag29
asg30
g9
sg31
g26
sg32
NsbsbsS'accel_x'
p43
F0
sS'accel_y'
p44
F0
sS'maxAccel'
p45
I2
sS'maxVel'
p46
F0.5
sS'age'
p47
I50
sS'gener'
p48
S'm'
sS'lastScale'
p49
F5.5
sS'energy'
p50
I0
sb.(i__main__
Data_mobile
p1
(dp2
S'vel_y'
p3
I0
sS'vel_x'
p4
I0
sS'pos_x'
p5
I-9579
sS'pos_y'
p6
I9779
sS'isAlive'
p7
I00
sS'geno'
p8
(i__main__
Node
p9
(dp10
S'node'
p11
(lp12
S'+'
aS'-'
aS'*'
aS'/'
asS'right'
p13
(i__main__
Node
p14
(dp15
g11
(lp16
S'+'
aS'-'
aS'*'
aS'/'
asg13
(i__main__
Node
p17
(dp18
g11
(lp19
S'+'
aS'-'
aS'*'
aS'/'
asg13
NsS'leaf'
p20
(lp21
S'indiv.alignment()'
p22
aS'indiv.cohesion()'
p23
aS'indiv.separation()'
p24
aS'indiv.target()'
p25
aS'indiv.flee()'
p26
aS'indiv.currentVelocity()'
p27
aS'indiv.mostEnergizedNeighbor()'
p28
aS'indiv.randV()'
p29
asS'parent'
p30
g14
sS'data'
p31
g22
sS'left'
p32
Nsbsg20
(lp33
g22
ag23
ag24
ag25
ag26
ag27
ag28
ag29
asg30
g9
sg31
S'+'
sg32
(i__main__
Node
p34
(dp35
g11
(lp36
S'+'
aS'-'
aS'*'
aS'/'
asg13
Nsg20
(lp37
g22
ag23
ag24
ag25
ag26
ag27
ag28
ag29
asg30
g14
sg31
g25
sg32
Nsbsbsg20
(lp38
g22
ag23
ag24
ag25
ag26
ag27
ag28
ag29
asg30
Nsg31
S'+'
sg32
(i__main__
Node
p39
(dp40
g11
(lp41
S'+'
aS'-'
aS'*'
aS'/'
asg13
Nsg20
(lp42
g22
ag23
ag24
ag25
ag26
ag27
ag28
ag29
asg30
g9
sg31
g26
sg32
NsbsbsS'accel_x'
p43
F0
sS'accel_y'
p44
F0
sS'maxAccel'
p45
I2
sS'maxVel'
p46
F0.5
sS'age'
p47
I0
sS'gener'
p48
S'm'
sS'lastScale'
p49
F5.5
sS'energy'
p50
F0.5
sb.(i__main__
Data_mobile
p1
(dp2
S'vel_y'
p3
I0
sS'vel_x'
p4
I0
sS'pos_x'
p5
I-9579
sS'pos_y'
p6
I9779
sS'isAlive'
p7
I00
sS'geno'
p8
(i__main__
Node
p9
(dp10
S'node'
p11
(lp12
S'+'
aS'-'
aS'*'
aS'/'
asS'right'
p13
(i__main__
Node
p14
(dp15
g11
(lp16
S'+'
aS'-'
aS'*'
aS'/'
asg13
(i__main__
Node
p17
(dp18
g11
(lp19
S'+'
aS'-'
aS'*'
aS'/'
asg13
NsS'leaf'
p20
(lp21
S'indiv.alignment()'
p22
aS'indiv.cohesion()'
p23
aS'indiv.separation()'
p24
aS'indiv.target()'
p25
aS'indiv.flee()'
p26
aS'indiv.currentVelocity()'
p27
aS'indiv.mostEnergizedNeighbor()'
p28
aS'indiv.randV()'
p29
asS'parent'
p30
g14
sS'data'
p31
g22
sS'left'
p32
Nsbsg20
(lp33
g22
ag23
ag24
ag25
ag26
ag27
ag28
ag29
asg30
g9
sg31
S'+'
sg32
(i__main__
Node
p34
(dp35
g11
(lp36
S'+'
aS'-'
aS'*'
aS'/'
asg13
Nsg20
(lp37
g22
ag23
ag24
ag25
ag26
ag27
ag28
ag29
asg30
g14
sg31
g25
sg32
Nsbsbsg20
(lp38
g22
ag23
ag24
ag25
ag26
ag27
ag28
ag29
asg30
Nsg31
S'+'
sg32
(i__main__
Node
p39
(dp40
g11
(lp41
S'+'
aS'-'
aS'*'
aS'/'
asg13
Nsg20
(lp42
g22
ag23
ag24
ag25
ag26
ag27
ag28
ag29
asg30
g9
sg31
g26
sg32
NsbsbsS'accel_x'
p43
F0
sS'accel_y'
p44
F0
sS'maxAccel'
p45
I2
sS'maxVel'
p46
F0.5
sS'age'
p47
I0
sS'gener'
p48
S'm'
sS'lastScale'
p49
F5.5
sS'energy'
p50
F0.5
sb.(i__main__
Data_mobile
p1
(dp2
S'vel_y'
p3
I0
sS'vel_x'
p4
I0
sS'pos_x'
p5
I-9579
sS'pos_y'
p6
I9779
sS'isAlive'
p7
I00
sS'geno'
p8
(i__main__
Node
p9
(dp10
S'node'
p11
(lp12
S'+'
aS'-'
aS'*'
aS'/'
asS'right'
p13
(i__main__
Node
p14
(dp15
g11
(lp16
S'+'
aS'-'
aS'*'
aS'/'
asg13
(i__main__
Node
p17
(dp18
g11
(lp19
S'+'
aS'-'
aS'*'
aS'/'
asg13
NsS'leaf'
p20
(lp21
S'indiv.alignment()'
p22
aS'indiv.cohesion()'
p23
aS'indiv.separation()'
p24
aS'indiv.target()'
p25
aS'indiv.flee()'
p26
aS'indiv.currentVelocity()'
p27
aS'indiv.mostEnergizedNeighbor()'
p28
aS'indiv.randV()'
p29
asS'parent'
p30
g14
sS'data'
p31
g22
sS'left'
p32
Nsbsg20
(lp33
g22
ag23
ag24
ag25
ag26
ag27
ag28
ag29
asg30
g9
sg31
S'+'
sg32
(i__main__
Node
p34
(dp35
g11
(lp36
S'+'
aS'-'
aS'*'
aS'/'
asg13
Nsg20
(lp37
g22
ag23
ag24
ag25
ag26
ag27
ag28
ag29
asg30
g14
sg31
g25
sg32
Nsbsbsg20
(lp38
g22
ag23
ag24
ag25
ag26
ag27
ag28
ag29
asg30
Nsg31
S'+'
sg32
(i__main__
Node
p39
(dp40
g11
(lp41
S'+'
aS'-'
aS'*'
aS'/'
asg13
Nsg20
(lp42
g22
ag23
ag24
ag25
ag26
ag27
ag28
ag29
asg30
g9
sg31
g26
sg32
NsbsbsS'accel_x'
p43
F0
sS'accel_y'
p44
F0
sS'maxAccel'
p45
I2
sS'maxVel'
p46
F0.5
sS'age'
p47
I0
sS'gener'
p48
S'm'
sS'lastScale'
p49
F5.5
sS'energy'
p50
F0.5
sb.(i__main__
Data_mobile
p1
(dp2
S'vel_y'
p3
I0
sS'vel_x'
p4
I0
sS'pos_x'
p5
I-9579
sS'pos_y'
p6
I9779
sS'isAlive'
p7
I00
sS'geno'
p8
(i__main__
Node
p9
(dp10
S'node'
p11
(lp12
S'+'
aS'-'
aS'*'
aS'/'
asS'right'
p13
(i__main__
Node
p14
(dp15
g11
(lp16
S'+'
aS'-'
aS'*'
aS'/'
asg13
(i__main__
Node
p17
(dp18
g11
(lp19
S'+'
aS'-'
aS'*'
aS'/'
asg13
NsS'leaf'
p20
(lp21
S'indiv.alignment()'
p22
aS'indiv.cohesion()'
p23
aS'indiv.separation()'
p24
aS'indiv.target()'
p25
aS'indiv.flee()'
p26
aS'indiv.currentVelocity()'
p27
aS'indiv.mostEnergizedNeighbor()'
p28
aS'indiv.randV()'
p29
asS'parent'
p30
g14
sS'data'
p31
g22
sS'left'
p32
Nsbsg20
(lp33
g22
ag23
ag24
ag25
ag26
ag27
ag28
ag29
asg30
g9
sg31
S'+'
sg32
(i__main__
Node
p34
(dp35
g11
(lp36
S'+'
aS'-'
aS'*'
aS'/'
asg13
Nsg20
(lp37
g22
ag23
ag24
ag25
ag26
ag27
ag28
ag29
asg30
g14
sg31
g25
sg32
Nsbsbsg20
(lp38
g22
ag23
ag24
ag25
ag26
ag27
ag28
ag29
asg30
Nsg31
S'+'
sg32
(i__main__
Node
p39
(dp40
g11
(lp41
S'+'
aS'-'
aS'*'
aS'/'
asg13
Nsg20
(lp42
g22
ag23
ag24
ag25
ag26
ag27
ag28
ag29
asg30
g9
sg31
g26
sg32
NsbsbsS'accel_x'
p43
F0
sS'accel_y'
p44
F0
sS'maxAccel'
p45
I2
sS'maxVel'
p46
F0.5
sS'age'
p47
I0
sS'gener'
p48
S'm'
sS'lastScale'
p49
F5.5
sS'energy'
p50
F0.5
sb.(i__main__
Data_mobile
p1
(dp2
S'vel_y'
p3
I0
sS'vel_x'
p4
I0
sS'pos_x'
p5
I-9579
sS'pos_y'
p6
I9779
sS'isAlive'
p7
I00
sS'geno'
p8
(i__main__
Node
p9
(dp10
S'node'
p11
(lp12
S'+'
aS'-'
aS'*'
aS'/'
asS'right'
p13
(i__main__
Node
p14
(dp15
g11
(lp16
S'+'
aS'-'
aS'*'
aS'/'
asg13
(i__main__
Node
p17
(dp18
g11
(lp19
S'+'
aS'-'
aS'*'
aS'/'
asg13
NsS'leaf'
p20
(lp21
S'indiv.alignment()'
p22
aS'indiv.cohesion()'
p23
aS'indiv.separation()'
p24
aS'indiv.target()'
p25
aS'indiv.flee()'
p26
aS'indiv.currentVelocity()'
p27
aS'indiv.mostEnergizedNeighbor()'
p28
aS'indiv.randV()'
p29
asS'parent'
p30
g14
sS'data'
p31
g22
sS'left'
p32
Nsbsg20
(lp33
g22
ag23
ag24
ag25
ag26
ag27
ag28
ag29
asg30
g9
sg31
S'+'
sg32
(i__main__
Node
p34
(dp35
g11
(lp36
S'+'
aS'-'
aS'*'
aS'/'
asg13
Nsg20
(lp37
g22
ag23
ag24
ag25
ag26
ag27
ag28
ag29
asg30
g14
sg31
g25
sg32
Nsbsbsg20
(lp38
g22
ag23
ag24
ag25
ag26
ag27
ag28
ag29
asg30
Nsg31
S'+'
sg32
(i__main__
Node
p39
(dp40
g11
(lp41
S'+'
aS'-'
aS'*'
aS'/'
asg13
Nsg20
(lp42
g22
ag23
ag24
ag25
ag26
ag27
ag28
ag29
asg30
g9
sg31
g26
sg32
NsbsbsS'accel_x'
p43
F0
sS'accel_y'
p44
F0
sS'maxAccel'
p45
I2
sS'maxVel'
p46
F0.5
sS'age'
p47
I0
sS'gener'
p48
S'm'
sS'lastScale'
p49
F5.5
sS'energy'
p50
F0.5
sb.(i__main__
Data_mobile
p1
(dp2
S'vel_y'
p3
I0
sS'vel_x'
p4
I0
sS'pos_x'
p5
I-9579
sS'pos_y'
p6
I9779
sS'isAlive'
p7
I00
sS'geno'
p8
(i__main__
Node
p9
(dp10
S'node'
p11
(lp12
S'+'
aS'-'
aS'*'
aS'/'
asS'right'
p13
(i__main__
Node
p14
(dp15
g11
(lp16
S'+'
aS'-'
aS'*'
aS'/'
asg13
(i__main__
Node
p17
(dp18
g11
(lp19
S'+'
aS'-'
aS'*'
aS'/'
asg13
NsS'leaf'
p20
(lp21
S'indiv.alignment()'
p22
aS'indiv.cohesion()'
p23
aS'indiv.separation()'
p24
aS'indiv.target()'
p25
aS'indiv.flee()'
p26
aS'indiv.currentVelocity()'
p27
aS'indiv.mostEnergizedNeighbor()'
p28
aS'indiv.randV()'
p29
asS'parent'
p30
g14
sS'data'
p31
g22
sS'left'
p32
Nsbsg20
(lp33
g22
ag23
ag24
ag25
ag26
ag27
ag28
ag29
asg30
g9
sg31
S'+'
sg32
(i__main__
Node
p34
(dp35
g11
(lp36
S'+'
aS'-'
aS'*'
aS'/'
asg13
Nsg20
(lp37
g22
ag23
ag24
ag25
ag26
ag27
ag28
ag29
asg30
g14
sg31
g25
sg32
Nsbsbsg20
(lp38
g22
ag23
ag24
ag25
ag26
ag27
ag28
ag29
asg30
Nsg31
S'+'
sg32
(i__main__
Node
p39
(dp40
g11
(lp41
S'+'
aS'-'
aS'*'
aS'/'
asg13
Nsg20
(lp42
g22
ag23
ag24
ag25
ag26
ag27
ag28
ag29
asg30
g9
sg31
g26
sg32
NsbsbsS'accel_x'
p43
F0
sS'accel_y'
p44
F0
sS'maxAccel'
p45
I2
sS'maxVel'
p46
F0.5
sS'age'
p47
I0
sS'gener'
p48
S'm'
sS'lastScale'
p49
F5.5
sS'energy'
p50
F0.5
sb.(i__main__
Data_mobile
p1
(dp2
S'vel_y'
p3
I0
sS'vel_x'
p4
I0
sS'pos_x'
p5
I-9579
sS'pos_y'
p6
I9779
sS'isAlive'
p7
I00
sS'geno'
p8
(i__main__
Node
p9
(dp10
S'node'
p11
(lp12
S'+'
aS'-'
aS'*'
aS'/'
asS'right'
p13
(i__main__
Node
p14
(dp15
g11
(lp16
S'+'
aS'-'
aS'*'
aS'/'
asg13
(i__main__
Node
p17
(dp18
g11
(lp19
S'+'
aS'-'
aS'*'
aS'/'
asg13
NsS'leaf'
p20
(lp21
S'indiv.alignment()'
p22
aS'indiv.cohesion()'
p23
aS'indiv.separation()'
p24
aS'indiv.target()'
p25
aS'indiv.flee()'
p26
aS'indiv.currentVelocity()'
p27
aS'indiv.mostEnergizedNeighbor()'
p28
aS'indiv.randV()'
p29
asS'parent'
p30
g14
sS'data'
p31
g22
sS'left'
p32
Nsbsg20
(lp33
g22
ag23
ag24
ag25
ag26
ag27
ag28
ag29
asg30
g9
sg31
S'+'
sg32
(i__main__
Node
p34
(dp35
g11
(lp36
S'+'
aS'-'
aS'*'
aS'/'
asg13
Nsg20
(lp37
g22
ag23
ag24
ag25
ag26
ag27
ag28
ag29
asg30
g14
sg31
g25
sg32
Nsbsbsg20
(lp38
g22
ag23
ag24
ag25
ag26
ag27
ag28
ag29
asg30
Nsg31
S'+'
sg32
(i__main__
Node
p39
(dp40
g11
(lp41
S'+'
aS'-'
aS'*'
aS'/'
asg13
Nsg20
(lp42
g22
ag23
ag24
ag25
ag26
ag27
ag28
ag29
asg30
g9
sg31
g26
sg32
NsbsbsS'accel_x'
p43
F0
sS'accel_y'
p44
F0
sS'maxAccel'
p45
I2
sS'maxVel'
p46
F0.5
sS'age'
p47
I0
sS'gener'
p48
S'm'
sS'lastScale'
p49
F5.5
sS'energy'
p50
F0.5
sb.(i__main__
Data_mobile
p1
(dp2
S'vel_y'
p3
I0
sS'vel_x'
p4
I0
sS'pos_x'
p5
I-9579
sS'pos_y'
p6
I9779
sS'isAlive'
p7
I00
sS'geno'
p8
(i__main__
Node
p9
(dp10
S'node'
p11
(lp12
S'+'
aS'-'
aS'*'
aS'/'
asS'right'
p13
(i__main__
Node
p14
(dp15
g11
(lp16
S'+'
aS'-'
aS'*'
aS'/'
asg13
(i__main__
Node
p17
(dp18
g11
(lp19
S'+'
aS'-'
aS'*'
aS'/'
asg13
NsS'leaf'
p20
(lp21
S'indiv.alignment()'
p22
aS'indiv.cohesion()'
p23
aS'indiv.separation()'
p24
aS'indiv.target()'
p25
aS'indiv.flee()'
p26
aS'indiv.currentVelocity()'
p27
aS'indiv.mostEnergizedNeighbor()'
p28
aS'indiv.randV()'
p29
asS'parent'
p30
g14
sS'data'
p31
g22
sS'left'
p32
Nsbsg20
(lp33
g22
ag23
ag24
ag25
ag26
ag27
ag28
ag29
asg30
g9
sg31
S'+'
sg32
(i__main__
Node
p34
(dp35
g11
(lp36
S'+'
aS'-'
aS'*'
aS'/'
asg13
Nsg20
(lp37
g22
ag23
ag24
ag25
ag26
ag27
ag28
ag29
asg30
g14
sg31
g25
sg32
Nsbsbsg20
(lp38
g22
ag23
ag24
ag25
ag26
ag27
ag28
ag29
asg30
Nsg31
S'+'
sg32
(i__main__
Node
p39
(dp40
g11
(lp41
S'+'
aS'-'
aS'*'
aS'/'
asg13
Nsg20
(lp42
g22
ag23
ag24
ag25
ag26
ag27
ag28
ag29
asg30
g9
sg31
g26
sg32
NsbsbsS'accel_x'
p43
F0
sS'accel_y'
p44
F0
sS'maxAccel'
p45
I2
sS'maxVel'
p46
F0.5
sS'age'
p47
I0
sS'gener'
p48
S'm'
sS'lastScale'
p49
F5.5
sS'energy'
p50
F0.5
sb.(i__main__
Data_mobile
p1
(dp2
S'vel_y'
p3
I0
sS'vel_x'
p4
I0
sS'pos_x'
p5
I-9579
sS'pos_y'
p6
I9779
sS'isAlive'
p7
I00
sS'geno'
p8
(i__main__
Node
p9
(dp10
S'node'
p11
(lp12
S'+'
aS'-'
aS'*'
aS'/'
asS'right'
p13
(i__main__
Node
p14
(dp15
g11
(lp16
S'+'
aS'-'
aS'*'
aS'/'
asg13
(i__main__
Node
p17
(dp18
g11
(lp19
S'+'
aS'-'
aS'*'
aS'/'
asg13
NsS'leaf'
p20
(lp21
S'indiv.alignment()'
p22
aS'indiv.cohesion()'
p23
aS'indiv.separation()'
p24
aS'indiv.target()'
p25
aS'indiv.flee()'
p26
aS'indiv.currentVelocity()'
p27
aS'indiv.mostEnergizedNeighbor()'
p28
aS'indiv.randV()'
p29
asS'parent'
p30
g14
sS'data'
p31
g22
sS'left'
p32
Nsbsg20
(lp33
g22
ag23
ag24
ag25
ag26
ag27
ag28
ag29
asg30
g9
sg31
S'+'
sg32
(i__main__
Node
p34
(dp35
g11
(lp36
S'+'
aS'-'
aS'*'
aS'/'
asg13
Nsg20
(lp37
g22
ag23
ag24
ag25
ag26
ag27
ag28
ag29
asg30
g14
sg31
g25
sg32
Nsbsbsg20
(lp38
g22
ag23
ag24
ag25
ag26
ag27
ag28
ag29
asg30
Nsg31
S'+'
sg32
(i__main__
Node
p39
(dp40
g11
(lp41
S'+'
aS'-'
aS'*'
aS'/'
asg13
Nsg20
(lp42
g22
ag23
ag24
ag25
ag26
ag27
ag28
ag29
asg30
g9
sg31
g26
sg32
NsbsbsS'accel_x'
p43
F0
sS'accel_y'
p44
F0
sS'maxAccel'
p45
I2
sS'maxVel'
p46
F0.5
sS'age'
p47
I0
sS'gener'
p48
S'm'
sS'lastScale'
p49
F5.5
sS'energy'
p50
F0.5
sb.(i__main__
Data_mobile
p1
(dp2
S'vel_y'
p3
I0
sS'vel_x'
p4
I0
sS'pos_x'
p5
I-9579
sS'pos_y'
p6
I9779
sS'isAlive'
p7
I00
sS'geno'
p8
(i__main__
Node
p9
(dp10
S'node'
p11
(lp12
S'+'
aS'-'
aS'*'
aS'/'
asS'right'
p13
(i__main__
Node
p14
(dp15
g11
(lp16
S'+'
aS'-'
aS'*'
aS'/'
asg13
(i__main__
Node
p17
(dp18
g11
(lp19
S'+'
aS'-'
aS'*'
aS'/'
asg13
NsS'leaf'
p20
(lp21
S'indiv.alignment()'
p22
aS'indiv.cohesion()'
p23
aS'indiv.separation()'
p24
aS'indiv.target()'
p25
aS'indiv.flee()'
p26
aS'indiv.currentVelocity()'
p27
aS'indiv.mostEnergizedNeighbor()'
p28
aS'indiv.randV()'
p29
asS'parent'
p30
g14
sS'data'
p31
g22
sS'left'
p32
Nsbsg20
(lp33
g22
ag23
ag24
ag25
ag26
ag27
ag28
ag29
asg30
g9
sg31
S'+'
sg32
(i__main__
Node
p34
(dp35
g11
(lp36
S'+'
aS'-'
aS'*'
aS'/'
asg13
Nsg20
(lp37
g22
ag23
ag24
ag25
ag26
ag27
ag28
ag29
asg30
g14
sg31
g25
sg32
Nsbsbsg20
(lp38
g22
ag23
ag24
ag25
ag26
ag27
ag28
ag29
asg30
Nsg31
S'+'
sg32
(i__main__
Node
p39
(dp40
g11
(lp41
S'+'
aS'-'
aS'*'
aS'/'
asg13
Nsg20
(lp42
g22
ag23
ag24
ag25
ag26
ag27
ag28
ag29
asg30
g9
sg31
g26
sg32
NsbsbsS'accel_x'
p43
F0
sS'accel_y'
p44
F0
sS'maxAccel'
p45
I2
sS'maxVel'
p46
F0.5
sS'age'
p47
I0
sS'gener'
p48
S'm'
sS'lastScale'
p49
F5.5
sS'energy'
p50
F0.5
sb.(i__main__
Data_mobile
p1
(dp2
S'vel_y'
p3
I0
sS'vel_x'
p4
I0
sS'pos_x'
p5
I-9579
sS'pos_y'
p6
I9779
sS'isAlive'
p7
I00
sS'geno'
p8
(i__main__
Node
p9
(dp10
S'node'
p11
(lp12
S'+'
aS'-'
aS'*'
aS'/'
asS'right'
p13
(i__main__
Node
p14
(dp15
g11
(lp16
S'+'
aS'-'
aS'*'
aS'/'
asg13
(i__main__
Node
p17
(dp18
g11
(lp19
S'+'
aS'-'
aS'*'
aS'/'
asg13
NsS'leaf'
p20
(lp21
S'indiv.alignment()'
p22
aS'indiv.cohesion()'
p23
aS'indiv.separation()'
p24
aS'indiv.target()'
p25
aS'indiv.flee()'
p26
aS'indiv.currentVelocity()'
p27
aS'indiv.mostEnergizedNeighbor()'
p28
aS'indiv.randV()'
p29
asS'parent'
p30
g14
sS'data'
p31
g22
sS'left'
p32
Nsbsg20
(lp33
g22
ag23
ag24
ag25
ag26
ag27
ag28
ag29
asg30
g9
sg31
S'+'
sg32
(i__main__
Node
p34
(dp35
g11
(lp36
S'+'
aS'-'
aS'*'
aS'/'
asg13
Nsg20
(lp37
g22
ag23
ag24
ag25
ag26
ag27
ag28
ag29
asg30
g14
sg31
g25
sg32
Nsbsbsg20
(lp38
g22
ag23
ag24
ag25
ag26
ag27
ag28
ag29
asg30
Nsg31
S'+'
sg32
(i__main__
Node
p39
(dp40
g11
(lp41
S'+'
aS'-'
aS'*'
aS'/'
asg13
Nsg20
(lp42
g22
ag23
ag24
ag25
ag26
ag27
ag28
ag29
asg30
g9
sg31
g26
sg32
NsbsbsS'accel_x'
p43
F0
sS'accel_y'
p44
F0
sS'maxAccel'
p45
I2
sS'maxVel'
p46
F0.5
sS'age'
p47
I0
sS'gener'
p48
S'm'
sS'lastScale'
p49
F5.5
sS'energy'
p50
F0.5
sb.(i__main__
Data_mobile
p1
(dp2
S'vel_y'
p3
I0
sS'vel_x'
p4
I0
sS'pos_x'
p5
I-9579
sS'pos_y'
p6
I9779
sS'isAlive'
p7
I00
sS'geno'
p8
(i__main__
Node
p9
(dp10
S'node'
p11
(lp12
S'+'
aS'-'
aS'*'
aS'/'
asS'right'
p13
(i__main__
Node
p14
(dp15
g11
(lp16
S'+'
aS'-'
aS'*'
aS'/'
asg13
(i__main__
Node
p17
(dp18
g11
(lp19
S'+'
aS'-'
aS'*'
aS'/'
asg13
NsS'leaf'
p20
(lp21
S'indiv.alignment()'
p22
aS'indiv.cohesion()'
p23
aS'indiv.separation()'
p24
aS'indiv.target()'
p25
aS'indiv.flee()'
p26
aS'indiv.currentVelocity()'
p27
aS'indiv.mostEnergizedNeighbor()'
p28
aS'indiv.randV()'
p29
asS'parent'
p30
g14
sS'data'
p31
g22
sS'left'
p32
Nsbsg20
(lp33
g22
ag23
ag24
ag25
ag26
ag27
ag28
ag29
asg30
g9
sg31
S'+'
sg32
(i__main__
Node
p34
(dp35
g11
(lp36
S'+'
aS'-'
aS'*'
aS'/'
asg13
Nsg20
(lp37
g22
ag23
ag24
ag25
ag26
ag27
ag28
ag29
asg30
g14
sg31
g25
sg32
Nsbsbsg20
(lp38
g22
ag23
ag24
ag25
ag26
ag27
ag28
ag29
asg30
Nsg31
S'+'
sg32
(i__main__
Node
p39
(dp40
g11
(lp41
S'+'
aS'-'
aS'*'
aS'/'
asg13
Nsg20
(lp42
g22
ag23
ag24
ag25
ag26
ag27
ag28
ag29
asg30
g9
sg31
g26
sg32
NsbsbsS'accel_x'
p43
F0
sS'accel_y'
p44
F0
sS'maxAccel'
p45
I2
sS'maxVel'
p46
F0.5
sS'age'
p47
I0
sS'gener'
p48
S'm'
sS'lastScale'
p49
F5.5
sS'energy'
p50
F0.5
sb.(i__main__
Data_mobile
p1
(dp2
S'vel_y'
p3
I0
sS'vel_x'
p4
I0
sS'pos_x'
p5
I-9579
sS'pos_y'
p6
I9779
sS'isAlive'
p7
I00
sS'geno'
p8
(i__main__
Node
p9
(dp10
S'node'
p11
(lp12
S'+'
aS'-'
aS'*'
aS'/'
asS'right'
p13
(i__main__
Node
p14
(dp15
g11
(lp16
S'+'
aS'-'
aS'*'
aS'/'
asg13
(i__main__
Node
p17
(dp18
g11
(lp19
S'+'
aS'-'
aS'*'
aS'/'
asg13
NsS'leaf'
p20
(lp21
S'indiv.alignment()'
p22
aS'indiv.cohesion()'
p23
aS'indiv.separation()'
p24
aS'indiv.target()'
p25
aS'indiv.flee()'
p26
aS'indiv.currentVelocity()'
p27
aS'indiv.mostEnergizedNeighbor()'
p28
aS'indiv.randV()'
p29
asS'parent'
p30
g14
sS'data'
p31
g22
sS'left'
p32
Nsbsg20
(lp33
g22
ag23
ag24
ag25
ag26
ag27
ag28
ag29
asg30
g9
sg31
S'+'
sg32
(i__main__
Node
p34
(dp35
g11
(lp36
S'+'
aS'-'
aS'*'
aS'/'
asg13
Nsg20
(lp37
g22
ag23
ag24
ag25
ag26
ag27
ag28
ag29
asg30
g14
sg31
g25
sg32
Nsbsbsg20
(lp38
g22
ag23
ag24
ag25
ag26
ag27
ag28
ag29
asg30
Nsg31
S'+'
sg32
(i__main__
Node
p39
(dp40
g11
(lp41
S'+'
aS'-'
aS'*'
aS'/'
asg13
Nsg20
(lp42
g22
ag23
ag24
ag25
ag26
ag27
ag28
ag29
asg30
g9
sg31
g26
sg32
NsbsbsS'accel_x'
p43
F0
sS'accel_y'
p44
F0
sS'maxAccel'
p45
I2
sS'maxVel'
p46
F0.5
sS'age'
p47
I0
sS'gener'
p48
S'm'
sS'lastScale'
p49
F5.5
sS'energy'
p50
F0.5
sb.(i__main__
Data_mobile
p1
(dp2
S'vel_y'
p3
I0
sS'vel_x'
p4
I0
sS'pos_x'
p5
I-9579
sS'pos_y'
p6
I9779
sS'isAlive'
p7
I00
sS'geno'
p8
(i__main__
Node
p9
(dp10
S'node'
p11
(lp12
S'+'
aS'-'
aS'*'
aS'/'
asS'right'
p13
(i__main__
Node
p14
(dp15
g11
(lp16
S'+'
aS'-'
aS'*'
aS'/'
asg13
(i__main__
Node
p17
(dp18
g11
(lp19
S'+'
aS'-'
aS'*'
aS'/'
asg13
NsS'leaf'
p20
(lp21
S'indiv.alignment()'
p22
aS'indiv.cohesion()'
p23
aS'indiv.separation()'
p24
aS'indiv.target()'
p25
aS'indiv.flee()'
p26
aS'indiv.currentVelocity()'
p27
aS'indiv.mostEnergizedNeighbor()'
p28
aS'indiv.randV()'
p29
asS'parent'
p30
g14
sS'data'
p31
g22
sS'left'
p32
Nsbsg20
(lp33
g22
ag23
ag24
ag25
ag26
ag27
ag28
ag29
asg30
g9
sg31
S'+'
sg32
(i__main__
Node
p34
(dp35
g11
(lp36
S'+'
aS'-'
aS'*'
aS'/'
asg13
Nsg20
(lp37
g22
ag23
ag24
ag25
ag26
ag27
ag28
ag29
asg30
g14
sg31
g25
sg32
Nsbsbsg20
(lp38
g22
ag23
ag24
ag25
ag26
ag27
ag28
ag29
asg30
Nsg31
S'+'
sg32
(i__main__
Node
p39
(dp40
g11
(lp41
S'+'
aS'-'
aS'*'
aS'/'
asg13
Nsg20
(lp42
g22
ag23
ag24
ag25
ag26
ag27
ag28
ag29
asg30
g9
sg31
g26
sg32
NsbsbsS'accel_x'
p43
F0
sS'accel_y'
p44
F0
sS'maxAccel'
p45
I2
sS'maxVel'
p46
F0.5
sS'age'
p47
I0
sS'gener'
p48
S'm'
sS'lastScale'
p49
F5.5
sS'energy'
p50
F0.5
sb.(i__main__
Data_mobile
p1
(dp2
S'vel_y'
p3
I0
sS'vel_x'
p4
I0
sS'pos_x'
p5
I-9579
sS'pos_y'
p6
I9779
sS'isAlive'
p7
I00
sS'geno'
p8
(i__main__
Node
p9
(dp10
S'node'
p11
(lp12
S'+'
aS'-'
aS'*'
aS'/'
asS'right'
p13
(i__main__
Node
p14
(dp15
g11
(lp16
S'+'
aS'-'
aS'*'
aS'/'
asg13
(i__main__
Node
p17
(dp18
g11
(lp19
S'+'
aS'-'
aS'*'
aS'/'
asg13
NsS'leaf'
p20
(lp21
S'indiv.alignment()'
p22
aS'indiv.cohesion()'
p23
aS'indiv.separation()'
p24
aS'indiv.target()'
p25
aS'indiv.flee()'
p26
aS'indiv.currentVelocity()'
p27
aS'indiv.mostEnergizedNeighbor()'
p28
aS'indiv.randV()'
p29
asS'parent'
p30
g14
sS'data'
p31
g22
sS'left'
p32
Nsbsg20
(lp33
g22
ag23
ag24
ag25
ag26
ag27
ag28
ag29
asg30
g9
sg31
S'+'
sg32
(i__main__
Node
p34
(dp35
g11
(lp36
S'+'
aS'-'
aS'*'
aS'/'
asg13
Nsg20
(lp37
g22
ag23
ag24
ag25
ag26
ag27
ag28
ag29
asg30
g14
sg31
g25
sg32
Nsbsbsg20
(lp38
g22
ag23
ag24
ag25
ag26
ag27
ag28
ag29
asg30
Nsg31
S'+'
sg32
(i__main__
Node
p39
(dp40
g11
(lp41
S'+'
aS'-'
aS'*'
aS'/'
asg13
Nsg20
(lp42
g22
ag23
ag24
ag25
ag26
ag27
ag28
ag29
asg30
g9
sg31
g26
sg32
NsbsbsS'accel_x'
p43
F0
sS'accel_y'
p44
F0
sS'maxAccel'
p45
I2
sS'maxVel'
p46
F0.5
sS'age'
p47
I0
sS'gener'
p48
S'm'
sS'lastScale'
p49
F5.5
sS'energy'
p50
F0.5
sb.(i__main__
Data_mobile
p1
(dp2
S'vel_y'
p3
I0
sS'vel_x'
p4
I0
sS'pos_x'
p5
I-9579
sS'pos_y'
p6
I9779
sS'isAlive'
p7
I00
sS'geno'
p8
(i__main__
Node
p9
(dp10
S'node'
p11
(lp12
S'+'
aS'-'
aS'*'
aS'/'
asS'right'
p13
(i__main__
Node
p14
(dp15
g11
(lp16
S'+'
aS'-'
aS'*'
aS'/'
asg13
(i__main__
Node
p17
(dp18
g11
(lp19
S'+'
aS'-'
aS'*'
aS'/'
asg13
NsS'leaf'
p20
(lp21
S'indiv.alignment()'
p22
aS'indiv.cohesion()'
p23
aS'indiv.separation()'
p24
aS'indiv.target()'
p25
aS'indiv.flee()'
p26
aS'indiv.currentVelocity()'
p27
aS'indiv.mostEnergizedNeighbor()'
p28
aS'indiv.randV()'
p29
asS'parent'
p30
g14
sS'data'
p31
g22
sS'left'
p32
Nsbsg20
(lp33
g22
ag23
ag24
ag25
ag26
ag27
ag28
ag29
asg30
g9
sg31
S'+'
sg32
(i__main__
Node
p34
(dp35
g11
(lp36
S'+'
aS'-'
aS'*'
aS'/'
asg13
Nsg20
(lp37
g22
ag23
ag24
ag25
ag26
ag27
ag28
ag29
asg30
g14
sg31
g25
sg32
Nsbsbsg20
(lp38
g22
ag23
ag24
ag25
ag26
ag27
ag28
ag29
asg30
Nsg31
S'+'
sg32
(i__main__
Node
p39
(dp40
g11
(lp41
S'+'
aS'-'
aS'*'
aS'/'
asg13
Nsg20
(lp42
g22
ag23
ag24
ag25
ag26
ag27
ag28
ag29
asg30
g9
sg31
g26
sg32
NsbsbsS'accel_x'
p43
F0
sS'accel_y'
p44
F0
sS'maxAccel'
p45
I2
sS'maxVel'
p46
F0.5
sS'age'
p47
I0
sS'gener'
p48
S'm'
sS'lastScale'
p49
F5.5
sS'energy'
p50
F0.5
sb.(i__main__
Data_mobile
p1
(dp2
S'vel_y'
p3
I0
sS'vel_x'
p4
I0
sS'pos_x'
p5
I-9579
sS'pos_y'
p6
I9779
sS'isAlive'
p7
I00
sS'geno'
p8
(i__main__
Node
p9
(dp10
S'node'
p11
(lp12
S'+'
aS'-'
aS'*'
aS'/'
asS'right'
p13
(i__main__
Node
p14
(dp15
g11
(lp16
S'+'
aS'-'
aS'*'
aS'/'
asg13
(i__main__
Node
p17
(dp18
g11
(lp19
S'+'
aS'-'
aS'*'
aS'/'
asg13
NsS'leaf'
p20
(lp21
S'indiv.alignment()'
p22
aS'indiv.cohesion()'
p23
aS'indiv.separation()'
p24
aS'indiv.target()'
p25
aS'indiv.flee()'
p26
aS'indiv.currentVelocity()'
p27
aS'indiv.mostEnergizedNeighbor()'
p28
aS'indiv.randV()'
p29
asS'parent'
p30
NsS'data'
p31
g29
sS'left'
p32
Nsbsg20
(lp33
g22
ag23
ag24
ag25
ag26
ag27
ag28
ag29
asg30
Nsg31
S'-'
sg32
(i__main__
Node
p34
(dp35
g11
(lp36
S'+'
aS'-'
aS'*'
aS'/'
asg13
Nsg20
(lp37
g22
ag23
ag24
ag25
ag26
ag27
ag28
ag29
asg30
Nsg31
g22
sg32
Nsbsbsg20
(lp38
g22
ag23
ag24
ag25
ag26
ag27
ag28
ag29
asg30
Nsg31
S'-'
sg32
(i__main__
Node
p39
(dp40
g11
(lp41
S'+'
aS'-'
aS'*'
aS'/'
asg13
(i__main__
Node
p42
(dp43
g11
(lp44
S'+'
aS'-'
aS'*'
aS'/'
asg13
Nsg20
(lp45
g22
ag23
ag24
ag25
ag26
ag27
ag28
ag29
asg30
Nsg31
g24
sg32
Nsbsg20
(lp46
g22
ag23
ag24
ag25
ag26
ag27
ag28
ag29
asg30
Nsg31
S'/'
sg32
(i__main__
Node
p47
(dp48
g11
(lp49
S'+'
aS'-'
aS'*'
aS'/'
asg13
Nsg20
(lp50
g22
ag23
ag24
ag25
ag26
ag27
ag28
ag29
asg30
Nsg31
g23
sg32
NsbsbsbsS'accel_x'
p51
F0
sS'accel_y'
p52
F0
sS'maxAccel'
p53
I2
sS'maxVel'
p54
F0.5
sS'age'
p55
I0
sS'gener'
p56
S'm'
sS'lastScale'
p57
F5.5
sS'energy'
p58
F0.5
sb.(i__main__
Data_mobile
p1
(dp2
S'vel_y'
p3
I0
sS'vel_x'
p4
I0
sS'pos_x'
p5
I-9579
sS'pos_y'
p6
I9779
sS'isAlive'
p7
I00
sS'geno'
p8
(i__main__
Node
p9
(dp10
S'node'
p11
(lp12
S'+'
aS'-'
aS'*'
aS'/'
asS'right'
p13
(i__main__
Node
p14
(dp15
g11
(lp16
S'+'
aS'-'
aS'*'
aS'/'
asg13
(i__main__
Node
p17
(dp18
g11
(lp19
S'+'
aS'-'
aS'*'
aS'/'
asg13
NsS'leaf'
p20
(lp21
S'indiv.alignment()'
p22
aS'indiv.cohesion()'
p23
aS'indiv.separation()'
p24
aS'indiv.target()'
p25
aS'indiv.flee()'
p26
aS'indiv.currentVelocity()'
p27
aS'indiv.mostEnergizedNeighbor()'
p28
aS'indiv.randV()'
p29
asS'parent'
p30
g14
sS'data'
p31
g22
sS'left'
p32
Nsbsg20
(lp33
g22
ag23
ag24
ag25
ag26
ag27
ag28
ag29
asg30
g9
sg31
S'+'
sg32
(i__main__
Node
p34
(dp35
g11
(lp36
S'+'
aS'-'
aS'*'
aS'/'
asg13
Nsg20
(lp37
g22
ag23
ag24
ag25
ag26
ag27
ag28
ag29
asg30
g14
sg31
g25
sg32
Nsbsbsg20
(lp38
g22
ag23
ag24
ag25
ag26
ag27
ag28
ag29
asg30
Nsg31
S'+'
sg32
(i__main__
Node
p39
(dp40
g11
(lp41
S'+'
aS'-'
aS'*'
aS'/'
asg13
Nsg20
(lp42
g22
ag23
ag24
ag25
ag26
ag27
ag28
ag29
asg30
g9
sg31
g26
sg32
NsbsbsS'accel_x'
p43
F0
sS'accel_y'
p44
F0
sS'maxAccel'
p45
I2
sS'maxVel'
p46
F0.5
sS'age'
p47
I0
sS'gener'
p48
S'm'
sS'lastScale'
p49
F5.5
sS'energy'
p50
F0.5
sb.(i__main__
Data_mobile
p1
(dp2
S'vel_y'
p3
I0
sS'vel_x'
p4
I0
sS'pos_x'
p5
I-9579
sS'pos_y'
p6
I9779
sS'isAlive'
p7
I00
sS'geno'
p8
(i__main__
Node
p9
(dp10
S'node'
p11
(lp12
S'+'
aS'-'
aS'*'
aS'/'
asS'right'
p13
(i__main__
Node
p14
(dp15
g11
(lp16
S'+'
aS'-'
aS'*'
aS'/'
asg13
(i__main__
Node
p17
(dp18
g11
(lp19
S'+'
aS'-'
aS'*'
aS'/'
asg13
NsS'leaf'
p20
(lp21
S'indiv.alignment()'
p22
aS'indiv.cohesion()'
p23
aS'indiv.separation()'
p24
aS'indiv.target()'
p25
aS'indiv.flee()'
p26
aS'indiv.currentVelocity()'
p27
aS'indiv.mostEnergizedNeighbor()'
p28
aS'indiv.randV()'
p29
asS'parent'
p30
g14
sS'data'
p31
g22
sS'left'
p32
Nsbsg20
(lp33
g22
ag23
ag24
ag25
ag26
ag27
ag28
ag29
asg30
g9
sg31
S'+'
sg32
(i__main__
Node
p34
(dp35
g11
(lp36
S'+'
aS'-'
aS'*'
aS'/'
asg13
Nsg20
(lp37
g22
ag23
ag24
ag25
ag26
ag27
ag28
ag29
asg30
g14
sg31
g25
sg32
Nsbsbsg20
(lp38
g22
ag23
ag24
ag25
ag26
ag27
ag28
ag29
asg30
Nsg31
S'+'
sg32
(i__main__
Node
p39
(dp40
g11
(lp41
S'+'
aS'-'
aS'*'
aS'/'
asg13
Nsg20
(lp42
g22
ag23
ag24
ag25
ag26
ag27
ag28
ag29
asg30
g9
sg31
g26
sg32
NsbsbsS'accel_x'
p43
F0
sS'accel_y'
p44
F0
sS'maxAccel'
p45
I2
sS'maxVel'
p46
F0.5
sS'age'
p47
I0
sS'gener'
p48
S'm'
sS'lastScale'
p49
F5.5
sS'energy'
p50
F0.5
sb.(i__main__
Data_mobile
p1
(dp2
S'vel_y'
p3
I0
sS'vel_x'
p4
I0
sS'pos_x'
p5
I-9579
sS'pos_y'
p6
I9779
sS'isAlive'
p7
I00
sS'geno'
p8
(i__main__
Node
p9
(dp10
S'node'
p11
(lp12
S'+'
aS'-'
aS'*'
aS'/'
asS'right'
p13
(i__main__
Node
p14
(dp15
g11
(lp16
S'+'
aS'-'
aS'*'
aS'/'
asg13
(i__main__
Node
p17
(dp18
g11
(lp19
S'+'
aS'-'
aS'*'
aS'/'
asg13
NsS'leaf'
p20
(lp21
S'indiv.alignment()'
p22
aS'indiv.cohesion()'
p23
aS'indiv.separation()'
p24
aS'indiv.target()'
p25
aS'indiv.flee()'
p26
aS'indiv.currentVelocity()'
p27
aS'indiv.mostEnergizedNeighbor()'
p28
aS'indiv.randV()'
p29
asS'parent'
p30
g14
sS'data'
p31
g22
sS'left'
p32
Nsbsg20
(lp33
g22
ag23
ag24
ag25
ag26
ag27
ag28
ag29
asg30
g9
sg31
S'+'
sg32
(i__main__
Node
p34
(dp35
g11
(lp36
S'+'
aS'-'
aS'*'
aS'/'
asg13
Nsg20
(lp37
g22
ag23
ag24
ag25
ag26
ag27
ag28
ag29
asg30
g14
sg31
g25
sg32
Nsbsbsg20
(lp38
g22
ag23
ag24
ag25
ag26
ag27
ag28
ag29
asg30
Nsg31
S'+'
sg32
(i__main__
Node
p39
(dp40
g11
(lp41
S'+'
aS'-'
aS'*'
aS'/'
asg13
Nsg20
(lp42
g22
ag23
ag24
ag25
ag26
ag27
ag28
ag29
asg30
g9
sg31
g26
sg32
NsbsbsS'accel_x'
p43
F0
sS'accel_y'
p44
F0
sS'maxAccel'
p45
I2
sS'maxVel'
p46
F0.5
sS'age'
p47
I0
sS'gener'
p48
S'm'
sS'lastScale'
p49
F5.5
sS'energy'
p50
F0.5
sb.(i__main__
Data_mobile
p1
(dp2
S'vel_y'
p3
I0
sS'vel_x'
p4
I0
sS'pos_x'
p5
I-9579
sS'pos_y'
p6
I9779
sS'isAlive'
p7
I00
sS'geno'
p8
(i__main__
Node
p9
(dp10
S'node'
p11
(lp12
S'+'
aS'-'
aS'*'
aS'/'
asS'right'
p13
(i__main__
Node
p14
(dp15
g11
(lp16
S'+'
aS'-'
aS'*'
aS'/'
asg13
(i__main__
Node
p17
(dp18
g11
(lp19
S'+'
aS'-'
aS'*'
aS'/'
asg13
NsS'leaf'
p20
(lp21
S'indiv.alignment()'
p22
aS'indiv.cohesion()'
p23
aS'indiv.separation()'
p24
aS'indiv.target()'
p25
aS'indiv.flee()'
p26
aS'indiv.currentVelocity()'
p27
aS'indiv.mostEnergizedNeighbor()'
p28
aS'indiv.randV()'
p29
asS'parent'
p30
g14
sS'data'
p31
g22
sS'left'
p32
Nsbsg20
(lp33
g22
ag23
ag24
ag25
ag26
ag27
ag28
ag29
asg30
g9
sg31
S'+'
sg32
(i__main__
Node
p34
(dp35
g11
(lp36
S'+'
aS'-'
aS'*'
aS'/'
asg13
Nsg20
(lp37
g22
ag23
ag24
ag25
ag26
ag27
ag28
ag29
asg30
g14
sg31
g25
sg32
Nsbsbsg20
(lp38
g22
ag23
ag24
ag25
ag26
ag27
ag28
ag29
asg30
Nsg31
S'+'
sg32
(i__main__
Node
p39
(dp40
g11
(lp41
S'+'
aS'-'
aS'*'
aS'/'
asg13
Nsg20
(lp42
g22
ag23
ag24
ag25
ag26
ag27
ag28
ag29
asg30
g9
sg31
g26
sg32
NsbsbsS'accel_x'
p43
F0
sS'accel_y'
p44
F0
sS'maxAccel'
p45
I2
sS'maxVel'
p46
F0.5
sS'age'
p47
I0
sS'gener'
p48
S'm'
sS'lastScale'
p49
F5.5
sS'energy'
p50
F0.5
sb.(i__main__
Data_mobile
p1
(dp2
S'vel_y'
p3
I0
sS'vel_x'
p4
I0
sS'pos_x'
p5
I-9579
sS'pos_y'
p6
I9779
sS'isAlive'
p7
I00
sS'geno'
p8
(i__main__
Node
p9
(dp10
S'node'
p11
(lp12
S'+'
aS'-'
aS'*'
aS'/'
asS'right'
p13
(i__main__
Node
p14
(dp15
g11
(lp16
S'+'
aS'-'
aS'*'
aS'/'
asg13
(i__main__
Node
p17
(dp18
g11
(lp19
S'+'
aS'-'
aS'*'
aS'/'
asg13
NsS'leaf'
p20
(lp21
S'indiv.alignment()'
p22
aS'indiv.cohesion()'
p23
aS'indiv.separation()'
p24
aS'indiv.target()'
p25
aS'indiv.flee()'
p26
aS'indiv.currentVelocity()'
p27
aS'indiv.mostEnergizedNeighbor()'
p28
aS'indiv.randV()'
p29
asS'parent'
p30
g14
sS'data'
p31
g22
sS'left'
p32
Nsbsg20
(lp33
g22
ag23
ag24
ag25
ag26
ag27
ag28
ag29
asg30
g9
sg31
S'+'
sg32
(i__main__
Node
p34
(dp35
g11
(lp36
S'+'
aS'-'
aS'*'
aS'/'
asg13
Nsg20
(lp37
g22
ag23
ag24
ag25
ag26
ag27
ag28
ag29
asg30
g14
sg31
g25
sg32
Nsbsbsg20
(lp38
g22
ag23
ag24
ag25
ag26
ag27
ag28
ag29
asg30
Nsg31
S'+'
sg32
(i__main__
Node
p39
(dp40
g11
(lp41
S'+'
aS'-'
aS'*'
aS'/'
asg13
Nsg20
(lp42
g22
ag23
ag24
ag25
ag26
ag27
ag28
ag29
asg30
g9
sg31
g26
sg32
NsbsbsS'accel_x'
p43
F0
sS'accel_y'
p44
F0
sS'maxAccel'
p45
I2
sS'maxVel'
p46
F0.5
sS'age'
p47
I0
sS'gener'
p48
S'm'
sS'lastScale'
p49
F5.5
sS'energy'
p50
F0.5
sb.(i__main__
Data_mobile
p1
(dp2
S'vel_y'
p3
I0
sS'vel_x'
p4
I0
sS'pos_x'
p5
I-9579
sS'pos_y'
p6
I9779
sS'isAlive'
p7
I00
sS'geno'
p8
(i__main__
Node
p9
(dp10
S'node'
p11
(lp12
S'+'
aS'-'
aS'*'
aS'/'
asS'right'
p13
(i__main__
Node
p14
(dp15
g11
(lp16
S'+'
aS'-'
aS'*'
aS'/'
asg13
(i__main__
Node
p17
(dp18
g11
(lp19
S'+'
aS'-'
aS'*'
aS'/'
asg13
NsS'leaf'
p20
(lp21
S'indiv.alignment()'
p22
aS'indiv.cohesion()'
p23
aS'indiv.separation()'
p24
aS'indiv.target()'
p25
aS'indiv.flee()'
p26
aS'indiv.currentVelocity()'
p27
aS'indiv.mostEnergizedNeighbor()'
p28
aS'indiv.randV()'
p29
asS'parent'
p30
g14
sS'data'
p31
g22
sS'left'
p32
Nsbsg20
(lp33
g22
ag23
ag24
ag25
ag26
ag27
ag28
ag29
asg30
g9
sg31
S'+'
sg32
(i__main__
Node
p34
(dp35
g11
(lp36
S'+'
aS'-'
aS'*'
aS'/'
asg13
Nsg20
(lp37
g22
ag23
ag24
ag25
ag26
ag27
ag28
ag29
asg30
g14
sg31
g25
sg32
Nsbsbsg20
(lp38
g22
ag23
ag24
ag25
ag26
ag27
ag28
ag29
asg30
Nsg31
S'+'
sg32
(i__main__
Node
p39
(dp40
g11
(lp41
S'+'
aS'-'
aS'*'
aS'/'
asg13
Nsg20
(lp42
g22
ag23
ag24
ag25
ag26
ag27
ag28
ag29
asg30
g9
sg31
g26
sg32
NsbsbsS'accel_x'
p43
F0
sS'accel_y'
p44
F0
sS'maxAccel'
p45
I2
sS'maxVel'
p46
F0.5
sS'age'
p47
I0
sS'gener'
p48
S'm'
sS'lastScale'
p49
F5.5
sS'energy'
p50
F0.5
sb.(i__main__
Data_mobile
p1
(dp2
S'vel_y'
p3
I0
sS'vel_x'
p4
I0
sS'pos_x'
p5
I-9579
sS'pos_y'
p6
I9779
sS'isAlive'
p7
I00
sS'geno'
p8
(i__main__
Node
p9
(dp10
S'node'
p11
(lp12
S'+'
aS'-'
aS'*'
aS'/'
asS'right'
p13
(i__main__
Node
p14
(dp15
g11
(lp16
S'+'
aS'-'
aS'*'
aS'/'
asg13
(i__main__
Node
p17
(dp18
g11
(lp19
S'+'
aS'-'
aS'*'
aS'/'
asg13
NsS'leaf'
p20
(lp21
S'indiv.alignment()'
p22
aS'indiv.cohesion()'
p23
aS'indiv.separation()'
p24
aS'indiv.target()'
p25
aS'indiv.flee()'
p26
aS'indiv.currentVelocity()'
p27
aS'indiv.mostEnergizedNeighbor()'
p28
aS'indiv.randV()'
p29
asS'parent'
p30
g14
sS'data'
p31
g22
sS'left'
p32
Nsbsg20
(lp33
g22
ag23
ag24
ag25
ag26
ag27
ag28
ag29
asg30
g9
sg31
S'+'
sg32
(i__main__
Node
p34
(dp35
g11
(lp36
S'+'
aS'-'
aS'*'
aS'/'
asg13
Nsg20
(lp37
g22
ag23
ag24
ag25
ag26
ag27
ag28
ag29
asg30
g14
sg31
g25
sg32
Nsbsbsg20
(lp38
g22
ag23
ag24
ag25
ag26
ag27
ag28
ag29
asg30
Nsg31
S'+'
sg32
(i__main__
Node
p39
(dp40
g11
(lp41
S'+'
aS'-'
aS'*'
aS'/'
asg13
Nsg20
(lp42
g22
ag23
ag24
ag25
ag26
ag27
ag28
ag29
asg30
g9
sg31
g26
sg32
NsbsbsS'accel_x'
p43
F0
sS'accel_y'
p44
F0
sS'maxAccel'
p45
I2
sS'maxVel'
p46
F0.5
sS'age'
p47
I0
sS'gener'
p48
S'm'
sS'lastScale'
p49
F5.5
sS'energy'
p50
F0.5
sb.(i__main__
Data_mobile
p1
(dp2
S'vel_y'
p3
I0
sS'vel_x'
p4
I0
sS'pos_x'
p5
I-9579
sS'pos_y'
p6
I9779
sS'isAlive'
p7
I00
sS'geno'
p8
(i__main__
Node
p9
(dp10
S'node'
p11
(lp12
S'+'
aS'-'
aS'*'
aS'/'
asS'right'
p13
(i__main__
Node
p14
(dp15
g11
(lp16
S'+'
aS'-'
aS'*'
aS'/'
asg13
(i__main__
Node
p17
(dp18
g11
(lp19
S'+'
aS'-'
aS'*'
aS'/'
asg13
NsS'leaf'
p20
(lp21
S'indiv.alignment()'
p22
aS'indiv.cohesion()'
p23
aS'indiv.separation()'
p24
aS'indiv.target()'
p25
aS'indiv.flee()'
p26
aS'indiv.currentVelocity()'
p27
aS'indiv.mostEnergizedNeighbor()'
p28
aS'indiv.randV()'
p29
asS'parent'
p30
g14
sS'data'
p31
g22
sS'left'
p32
Nsbsg20
(lp33
g22
ag23
ag24
ag25
ag26
ag27
ag28
ag29
asg30
g9
sg31
S'+'
sg32
(i__main__
Node
p34
(dp35
g11
(lp36
S'+'
aS'-'
aS'*'
aS'/'
asg13
Nsg20
(lp37
g22
ag23
ag24
ag25
ag26
ag27
ag28
ag29
asg30
g14
sg31
g25
sg32
Nsbsbsg20
(lp38
g22
ag23
ag24
ag25
ag26
ag27
ag28
ag29
asg30
Nsg31
S'+'
sg32
(i__main__
Node
p39
(dp40
g11
(lp41
S'+'
aS'-'
aS'*'
aS'/'
asg13
Nsg20
(lp42
g22
ag23
ag24
ag25
ag26
ag27
ag28
ag29
asg30
g9
sg31
g26
sg32
NsbsbsS'accel_x'
p43
F0
sS'accel_y'
p44
F0
sS'maxAccel'
p45
I2
sS'maxVel'
p46
F0.5
sS'age'
p47
I0
sS'gener'
p48
S'm'
sS'lastScale'
p49
F5.5
sS'energy'
p50
F0.5
sb.(i__main__
Data_mobile
p1
(dp2
S'vel_y'
p3
I0
sS'vel_x'
p4
I0
sS'pos_x'
p5
I-9579
sS'pos_y'
p6
I9779
sS'isAlive'
p7
I00
sS'geno'
p8
(i__main__
Node
p9
(dp10
S'node'
p11
(lp12
S'+'
aS'-'
aS'*'
aS'/'
asS'right'
p13
(i__main__
Node
p14
(dp15
g11
(lp16
S'+'
aS'-'
aS'*'
aS'/'
asg13
(i__main__
Node
p17
(dp18
g11
(lp19
S'+'
aS'-'
aS'*'
aS'/'
asg13
NsS'leaf'
p20
(lp21
S'indiv.alignment()'
p22
aS'indiv.cohesion()'
p23
aS'indiv.separation()'
p24
aS'indiv.target()'
p25
aS'indiv.flee()'
p26
aS'indiv.currentVelocity()'
p27
aS'indiv.mostEnergizedNeighbor()'
p28
aS'indiv.randV()'
p29
asS'parent'
p30
g14
sS'data'
p31
g22
sS'left'
p32
Nsbsg20
(lp33
g22
ag23
ag24
ag25
ag26
ag27
ag28
ag29
asg30
g9
sg31
S'+'
sg32
(i__main__
Node
p34
(dp35
g11
(lp36
S'+'
aS'-'
aS'*'
aS'/'
asg13
Nsg20
(lp37
g22
ag23
ag24
ag25
ag26
ag27
ag28
ag29
asg30
g14
sg31
g25
sg32
Nsbsbsg20
(lp38
g22
ag23
ag24
ag25
ag26
ag27
ag28
ag29
asg30
Nsg31
S'+'
sg32
(i__main__
Node
p39
(dp40
g11
(lp41
S'+'
aS'-'
aS'*'
aS'/'
asg13
Nsg20
(lp42
g22
ag23
ag24
ag25
ag26
ag27
ag28
ag29
asg30
g9
sg31
g26
sg32
NsbsbsS'accel_x'
p43
F0
sS'accel_y'
p44
F0
sS'maxAccel'
p45
I2
sS'maxVel'
p46
F0.5
sS'age'
p47
I0
sS'gener'
p48
S'm'
sS'lastScale'
p49
F5.5
sS'energy'
p50
F0.5
sb.(i__main__
Data_mobile
p1
(dp2
S'vel_y'
p3
I0
sS'vel_x'
p4
I0
sS'pos_x'
p5
I-9579
sS'pos_y'
p6
I9779
sS'isAlive'
p7
I00
sS'geno'
p8
(i__main__
Node
p9
(dp10
S'node'
p11
(lp12
S'+'
aS'-'
aS'*'
aS'/'
asS'right'
p13
(i__main__
Node
p14
(dp15
g11
(lp16
S'+'
aS'-'
aS'*'
aS'/'
asg13
(i__main__
Node
p17
(dp18
g11
(lp19
S'+'
aS'-'
aS'*'
aS'/'
asg13
NsS'leaf'
p20
(lp21
S'indiv.alignment()'
p22
aS'indiv.cohesion()'
p23
aS'indiv.separation()'
p24
aS'indiv.target()'
p25
aS'indiv.flee()'
p26
aS'indiv.currentVelocity()'
p27
aS'indiv.mostEnergizedNeighbor()'
p28
aS'indiv.randV()'
p29
asS'parent'
p30
g14
sS'data'
p31
g22
sS'left'
p32
Nsbsg20
(lp33
g22
ag23
ag24
ag25
ag26
ag27
ag28
ag29
asg30
g9
sg31
S'+'
sg32
(i__main__
Node
p34
(dp35
g11
(lp36
S'+'
aS'-'
aS'*'
aS'/'
asg13
Nsg20
(lp37
g22
ag23
ag24
ag25
ag26
ag27
ag28
ag29
asg30
g14
sg31
g25
sg32
Nsbsbsg20
(lp38
g22
ag23
ag24
ag25
ag26
ag27
ag28
ag29
asg30
Nsg31
S'+'
sg32
(i__main__
Node
p39
(dp40
g11
(lp41
S'+'
aS'-'
aS'*'
aS'/'
asg13
Nsg20
(lp42
g22
ag23
ag24
ag25
ag26
ag27
ag28
ag29
asg30
g9
sg31
g26
sg32
NsbsbsS'accel_x'
p43
F0
sS'accel_y'
p44
F0
sS'maxAccel'
p45
I2
sS'maxVel'
p46
F0.5
sS'age'
p47
I0
sS'gener'
p48
S'm'
sS'lastScale'
p49
F5.5
sS'energy'
p50
F0.5
sb.(i__main__
Data_mobile
p1
(dp2
S'vel_y'
p3
I0
sS'vel_x'
p4
I0
sS'pos_x'
p5
I-9579
sS'pos_y'
p6
I9779
sS'isAlive'
p7
I00
sS'geno'
p8
(i__main__
Node
p9
(dp10
S'node'
p11
(lp12
S'+'
aS'-'
aS'*'
aS'/'
asS'right'
p13
(i__main__
Node
p14
(dp15
g11
(lp16
S'+'
aS'-'
aS'*'
aS'/'
asg13
(i__main__
Node
p17
(dp18
g11
(lp19
S'+'
aS'-'
aS'*'
aS'/'
asg13
NsS'leaf'
p20
(lp21
S'indiv.alignment()'
p22
aS'indiv.cohesion()'
p23
aS'indiv.separation()'
p24
aS'indiv.target()'
p25
aS'indiv.flee()'
p26
aS'indiv.currentVelocity()'
p27
aS'indiv.mostEnergizedNeighbor()'
p28
aS'indiv.randV()'
p29
asS'parent'
p30
g14
sS'data'
p31
g22
sS'left'
p32
Nsbsg20
(lp33
g22
ag23
ag24
ag25
ag26
ag27
ag28
ag29
asg30
g9
sg31
S'+'
sg32
(i__main__
Node
p34
(dp35
g11
(lp36
S'+'
aS'-'
aS'*'
aS'/'
asg13
Nsg20
(lp37
g22
ag23
ag24
ag25
ag26
ag27
ag28
ag29
asg30
g14
sg31
g25
sg32
Nsbsbsg20
(lp38
g22
ag23
ag24
ag25
ag26
ag27
ag28
ag29
asg30
Nsg31
S'+'
sg32
(i__main__
Node
p39
(dp40
g11
(lp41
S'+'
aS'-'
aS'*'
aS'/'
asg13
Nsg20
(lp42
g22
ag23
ag24
ag25
ag26
ag27
ag28
ag29
asg30
g9
sg31
g26
sg32
NsbsbsS'accel_x'
p43
F0
sS'accel_y'
p44
F0
sS'maxAccel'
p45
I2
sS'maxVel'
p46
F0.5
sS'age'
p47
I0
sS'gener'
p48
S'm'
sS'lastScale'
p49
F5.5
sS'energy'
p50
F0.5
sb.(i__main__
Data_mobile
p1
(dp2
S'vel_y'
p3
I0
sS'vel_x'
p4
I0
sS'pos_x'
p5
I-9579
sS'pos_y'
p6
I9779
sS'isAlive'
p7
I00
sS'geno'
p8
(i__main__
Node
p9
(dp10
S'node'
p11
(lp12
S'+'
aS'-'
aS'*'
aS'/'
asS'right'
p13
(i__main__
Node
p14
(dp15
g11
(lp16
S'+'
aS'-'
aS'*'
aS'/'
asg13
(i__main__
Node
p17
(dp18
g11
(lp19
S'+'
aS'-'
aS'*'
aS'/'
asg13
NsS'leaf'
p20
(lp21
S'indiv.alignment()'
p22
aS'indiv.cohesion()'
p23
aS'indiv.separation()'
p24
aS'indiv.target()'
p25
aS'indiv.flee()'
p26
aS'indiv.currentVelocity()'
p27
aS'indiv.mostEnergizedNeighbor()'
p28
aS'indiv.randV()'
p29
asS'parent'
p30
g14
sS'data'
p31
g22
sS'left'
p32
Nsbsg20
(lp33
g22
ag23
ag24
ag25
ag26
ag27
ag28
ag29
asg30
g9
sg31
S'+'
sg32
(i__main__
Node
p34
(dp35
g11
(lp36
S'+'
aS'-'
aS'*'
aS'/'
asg13
Nsg20
(lp37
g22
ag23
ag24
ag25
ag26
ag27
ag28
ag29
asg30
g14
sg31
g25
sg32
Nsbsbsg20
(lp38
g22
ag23
ag24
ag25
ag26
ag27
ag28
ag29
asg30
Nsg31
S'+'
sg32
(i__main__
Node
p39
(dp40
g11
(lp41
S'+'
aS'-'
aS'*'
aS'/'
asg13
Nsg20
(lp42
g22
ag23
ag24
ag25
ag26
ag27
ag28
ag29
asg30
g9
sg31
g26
sg32
NsbsbsS'accel_x'
p43
F0
sS'accel_y'
p44
F0
sS'maxAccel'
p45
I2
sS'maxVel'
p46
F0.5
sS'age'
p47
I0
sS'gener'
p48
S'm'
sS'lastScale'
p49
F5.5
sS'energy'
p50
F0.5
sb.(i__main__
Data_mobile
p1
(dp2
S'vel_y'
p3
I0
sS'vel_x'
p4
I0
sS'pos_x'
p5
I-9579
sS'pos_y'
p6
I9779
sS'isAlive'
p7
I00
sS'geno'
p8
(i__main__
Node
p9
(dp10
S'node'
p11
(lp12
S'+'
aS'-'
aS'*'
aS'/'
asS'right'
p13
(i__main__
Node
p14
(dp15
g11
(lp16
S'+'
aS'-'
aS'*'
aS'/'
asg13
(i__main__
Node
p17
(dp18
g11
(lp19
S'+'
aS'-'
aS'*'
aS'/'
asg13
NsS'leaf'
p20
(lp21
S'indiv.alignment()'
p22
aS'indiv.cohesion()'
p23
aS'indiv.separation()'
p24
aS'indiv.target()'
p25
aS'indiv.flee()'
p26
aS'indiv.currentVelocity()'
p27
aS'indiv.mostEnergizedNeighbor()'
p28
aS'indiv.randV()'
p29
asS'parent'
p30
g14
sS'data'
p31
g22
sS'left'
p32
Nsbsg20
(lp33
g22
ag23
ag24
ag25
ag26
ag27
ag28
ag29
asg30
g9
sg31
S'+'
sg32
(i__main__
Node
p34
(dp35
g11
(lp36
S'+'
aS'-'
aS'*'
aS'/'
asg13
Nsg20
(lp37
g22
ag23
ag24
ag25
ag26
ag27
ag28
ag29
asg30
g14
sg31
g25
sg32
Nsbsbsg20
(lp38
g22
ag23
ag24
ag25
ag26
ag27
ag28
ag29
asg30
Nsg31
S'+'
sg32
(i__main__
Node
p39
(dp40
g11
(lp41
S'+'
aS'-'
aS'*'
aS'/'
asg13
Nsg20
(lp42
g22
ag23
ag24
ag25
ag26
ag27
ag28
ag29
asg30
g9
sg31
g26
sg32
NsbsbsS'accel_x'
p43
F0
sS'accel_y'
p44
F0
sS'maxAccel'
p45
I2
sS'maxVel'
p46
F0.5
sS'age'
p47
I0
sS'gener'
p48
S'm'
sS'lastScale'
p49
F5.5
sS'energy'
p50
F0.5
sb.(i__main__
Data_mobile
p1
(dp2
S'vel_y'
p3
I0
sS'vel_x'
p4
I0
sS'pos_x'
p5
I-9579
sS'pos_y'
p6
I9779
sS'isAlive'
p7
I00
sS'geno'
p8
(i__main__
Node
p9
(dp10
S'node'
p11
(lp12
S'+'
aS'-'
aS'*'
aS'/'
asS'right'
p13
(i__main__
Node
p14
(dp15
g11
(lp16
S'+'
aS'-'
aS'*'
aS'/'
asg13
(i__main__
Node
p17
(dp18
g11
(lp19
S'+'
aS'-'
aS'*'
aS'/'
asg13
NsS'leaf'
p20
(lp21
S'indiv.alignment()'
p22
aS'indiv.cohesion()'
p23
aS'indiv.separation()'
p24
aS'indiv.target()'
p25
aS'indiv.flee()'
p26
aS'indiv.currentVelocity()'
p27
aS'indiv.mostEnergizedNeighbor()'
p28
aS'indiv.randV()'
p29
asS'parent'
p30
NsS'data'
p31
g26
sS'left'
p32
Nsbsg20
(lp33
g22
ag23
ag24
ag25
ag26
ag27
ag28
ag29
asg30
Nsg31
S'*'
sg32
(i__main__
Node
p34
(dp35
g11
(lp36
S'+'
aS'-'
aS'*'
aS'/'
asg13
Nsg20
(lp37
g22
ag23
ag24
ag25
ag26
ag27
ag28
ag29
asg30
Nsg31
g27
sg32
Nsbsbsg20
(lp38
g22
ag23
ag24
ag25
ag26
ag27
ag28
ag29
asg30
Nsg31
S'-'
sg32
(i__main__
Node
p39
(dp40
g11
(lp41
S'+'
aS'-'
aS'*'
aS'/'
asg13
(i__main__
Node
p42
(dp43
g11
(lp44
S'+'
aS'-'
aS'*'
aS'/'
asg13
Nsg20
(lp45
g22
ag23
ag24
ag25
ag26
ag27
ag28
ag29
asg30
Nsg31
g28
sg32
Nsbsg20
(lp46
g22
ag23
ag24
ag25
ag26
ag27
ag28
ag29
asg30
Nsg31
S'+'
sg32
(i__main__
Node
p47
(dp48
g11
(lp49
S'+'
aS'-'
aS'*'
aS'/'
asg13
Nsg20
(lp50
g22
ag23
ag24
ag25
ag26
ag27
ag28
ag29
asg30
Nsg31
g29
sg32
NsbsbsbsS'accel_x'
p51
F0
sS'accel_y'
p52
F0
sS'maxAccel'
p53
I2
sS'maxVel'
p54
F0.5
sS'age'
p55
I0
sS'gener'
p56
S'm'
sS'lastScale'
p57
F5.5
sS'energy'
p58
F0.5
sb.(i__main__
Data_mobile
p1
(dp2
S'vel_y'
p3
I0
sS'vel_x'
p4
I0
sS'pos_x'
p5
I-9579
sS'pos_y'
p6
I9779
sS'isAlive'
p7
I00
sS'geno'
p8
(i__main__
Node
p9
(dp10
S'node'
p11
(lp12
S'+'
aS'-'
aS'*'
aS'/'
asS'right'
p13
(i__main__
Node
p14
(dp15
g11
(lp16
S'+'
aS'-'
aS'*'
aS'/'
asg13
(i__main__
Node
p17
(dp18
g11
(lp19
S'+'
aS'-'
aS'*'
aS'/'
asg13
NsS'leaf'
p20
(lp21
S'indiv.alignment()'
p22
aS'indiv.cohesion()'
p23
aS'indiv.separation()'
p24
aS'indiv.target()'
p25
aS'indiv.flee()'
p26
aS'indiv.currentVelocity()'
p27
aS'indiv.mostEnergizedNeighbor()'
p28
aS'indiv.randV()'
p29
asS'parent'
p30
NsS'data'
p31
g26
sS'left'
p32
Nsbsg20
(lp33
g22
ag23
ag24
ag25
ag26
ag27
ag28
ag29
asg30
Nsg31
S'*'
sg32
(i__main__
Node
p34
(dp35
g11
(lp36
S'+'
aS'-'
aS'*'
aS'/'
asg13
Nsg20
(lp37
g22
ag23
ag24
ag25
ag26
ag27
ag28
ag29
asg30
Nsg31
g26
sg32
Nsbsbsg20
(lp38
g22
ag23
ag24
ag25
ag26
ag27
ag28
ag29
asg30
Nsg31
S'/'
sg32
(i__main__
Node
p39
(dp40
g11
(lp41
S'+'
aS'-'
aS'*'
aS'/'
asg13
(i__main__
Node
p42
(dp43
g11
(lp44
S'+'
aS'-'
aS'*'
aS'/'
asg13
Nsg20
(lp45
g22
ag23
ag24
ag25
ag26
ag27
ag28
ag29
asg30
Nsg31
g24
sg32
Nsbsg20
(lp46
g22
ag23
ag24
ag25
ag26
ag27
ag28
ag29
asg30
Nsg31
S'-'
sg32
(i__main__
Node
p47
(dp48
g11
(lp49
S'+'
aS'-'
aS'*'
aS'/'
asg13
Nsg20
(lp50
g22
ag23
ag24
ag25
ag26
ag27
ag28
ag29
asg30
Nsg31
g24
sg32
NsbsbsbsS'accel_x'
p51
F0
sS'accel_y'
p52
F0
sS'maxAccel'
p53
I2
sS'maxVel'
p54
F0.5
sS'age'
p55
I0
sS'gener'
p56
S'm'
sS'lastScale'
p57
F5.5
sS'energy'
p58
F0.5
sb.(i__main__
Data_mobile
p1
(dp2
S'vel_y'
p3
I0
sS'vel_x'
p4
I0
sS'pos_x'
p5
I-9579
sS'pos_y'
p6
I9779
sS'isAlive'
p7
I00
sS'geno'
p8
(i__main__
Node
p9
(dp10
S'node'
p11
(lp12
S'+'
aS'-'
aS'*'
aS'/'
asS'right'
p13
(i__main__
Node
p14
(dp15
g11
(lp16
S'+'
aS'-'
aS'*'
aS'/'
asg13
(i__main__
Node
p17
(dp18
g11
(lp19
S'+'
aS'-'
aS'*'
aS'/'
asg13
NsS'leaf'
p20
(lp21
S'indiv.alignment()'
p22
aS'indiv.cohesion()'
p23
aS'indiv.separation()'
p24
aS'indiv.target()'
p25
aS'indiv.flee()'
p26
aS'indiv.currentVelocity()'
p27
aS'indiv.mostEnergizedNeighbor()'
p28
aS'indiv.randV()'
p29
asS'parent'
p30
g14
sS'data'
p31
g22
sS'left'
p32
Nsbsg20
(lp33
g22
ag23
ag24
ag25
ag26
ag27
ag28
ag29
asg30
g9
sg31
S'+'
sg32
(i__main__
Node
p34
(dp35
g11
(lp36
S'+'
aS'-'
aS'*'
aS'/'
asg13
Nsg20
(lp37
g22
ag23
ag24
ag25
ag26
ag27
ag28
ag29
asg30
g14
sg31
g25
sg32
Nsbsbsg20
(lp38
g22
ag23
ag24
ag25
ag26
ag27
ag28
ag29
asg30
Nsg31
S'+'
sg32
(i__main__
Node
p39
(dp40
g11
(lp41
S'+'
aS'-'
aS'*'
aS'/'
asg13
Nsg20
(lp42
g22
ag23
ag24
ag25
ag26
ag27
ag28
ag29
asg30
g9
sg31
g26
sg32
NsbsbsS'accel_x'
p43
F0
sS'accel_y'
p44
F0
sS'maxAccel'
p45
I2
sS'maxVel'
p46
F0.5
sS'age'
p47
I0
sS'gener'
p48
S'm'
sS'lastScale'
p49
F5.5
sS'energy'
p50
F0.5
sb.(i__main__
Data_mobile
p1
(dp2
S'vel_y'
p3
I0
sS'vel_x'
p4
I0
sS'pos_x'
p5
I-9579
sS'pos_y'
p6
I9779
sS'isAlive'
p7
I00
sS'geno'
p8
(i__main__
Node
p9
(dp10
S'node'
p11
(lp12
S'+'
aS'-'
aS'*'
aS'/'
asS'right'
p13
(i__main__
Node
p14
(dp15
g11
(lp16
S'+'
aS'-'
aS'*'
aS'/'
asg13
(i__main__
Node
p17
(dp18
g11
(lp19
S'+'
aS'-'
aS'*'
aS'/'
asg13
NsS'leaf'
p20
(lp21
S'indiv.alignment()'
p22
aS'indiv.cohesion()'
p23
aS'indiv.separation()'
p24
aS'indiv.target()'
p25
aS'indiv.flee()'
p26
aS'indiv.currentVelocity()'
p27
aS'indiv.mostEnergizedNeighbor()'
p28
aS'indiv.randV()'
p29
asS'parent'
p30
g14
sS'data'
p31
g22
sS'left'
p32
Nsbsg20
(lp33
g22
ag23
ag24
ag25
ag26
ag27
ag28
ag29
asg30
g9
sg31
S'+'
sg32
(i__main__
Node
p34
(dp35
g11
(lp36
S'+'
aS'-'
aS'*'
aS'/'
asg13
Nsg20
(lp37
g22
ag23
ag24
ag25
ag26
ag27
ag28
ag29
asg30
g14
sg31
g25
sg32
Nsbsbsg20
(lp38
g22
ag23
ag24
ag25
ag26
ag27
ag28
ag29
asg30
Nsg31
S'+'
sg32
(i__main__
Node
p39
(dp40
g11
(lp41
S'+'
aS'-'
aS'*'
aS'/'
asg13
Nsg20
(lp42
g22
ag23
ag24
ag25
ag26
ag27
ag28
ag29
asg30
g9
sg31
g26
sg32
NsbsbsS'accel_x'
p43
F0
sS'accel_y'
p44
F0
sS'maxAccel'
p45
I2
sS'maxVel'
p46
F0.5
sS'age'
p47
I0
sS'gener'
p48
S'm'
sS'lastScale'
p49
F5.5
sS'energy'
p50
F0.5
sb.(i__main__
Data_mobile
p1
(dp2
S'vel_y'
p3
I0
sS'vel_x'
p4
I0
sS'pos_x'
p5
I-9579
sS'pos_y'
p6
I9779
sS'isAlive'
p7
I00
sS'geno'
p8
(i__main__
Node
p9
(dp10
S'node'
p11
(lp12
S'+'
aS'-'
aS'*'
aS'/'
asS'right'
p13
(i__main__
Node
p14
(dp15
g11
(lp16
S'+'
aS'-'
aS'*'
aS'/'
asg13
(i__main__
Node
p17
(dp18
g11
(lp19
S'+'
aS'-'
aS'*'
aS'/'
asg13
(i__main__
Node
p20
(dp21
g11
(lp22
S'+'
aS'-'
aS'*'
aS'/'
asg13
(i__main__
Node
p23
(dp24
g11
(lp25
S'+'
aS'-'
aS'*'
aS'/'
asg13
(i__main__
Node
p26
(dp27
g11
(lp28
S'+'
aS'-'
aS'*'
aS'/'
asg13
NsS'leaf'
p29
(lp30
S'indiv.alignment()'
p31
aS'indiv.cohesion()'
p32
aS'indiv.separation()'
p33
aS'indiv.target()'
p34
aS'indiv.flee()'
p35
aS'indiv.currentVelocity()'
p36
aS'indiv.mostEnergizedNeighbor()'
p37
aS'indiv.randV()'
p38
asS'parent'
p39
g23
sS'data'
p40
g32
sS'left'
p41
Nsbsg29
(lp42
g31
ag32
ag33
ag34
ag35
ag36
ag37
ag38
asg39
g20
sg40
S'+'
sg41
(i__main__
Node
p43
(dp44
g11
(lp45
S'+'
aS'-'
aS'*'
aS'/'
asg13
Nsg29
(lp46
g31
ag32
ag33
ag34
ag35
ag36
ag37
ag38
asg39
g23
sg40
g36
sg41
Nsbsbsg29
(lp47
g31
ag32
ag33
ag34
ag35
ag36
ag37
ag38
asg39
g17
sg40
S'/'
sg41
(i__main__
Node
p48
(dp49
g11
(lp50
S'+'
aS'-'
aS'*'
aS'/'
asg13
(i__main__
Node
p51
(dp52
g11
(lp53
S'+'
aS'-'
aS'*'
aS'/'
asg13
Nsg29
(lp54
g31
ag32
ag33
ag34
ag35
ag36
ag37
ag38
asg39
g48
sg40
g38
sg41
Nsbsg29
(lp55
g31
ag32
ag33
ag34
ag35
ag36
ag37
ag38
asg39
g20
sg40
S'/'
sg41
(i__main__
Node
p56
(dp57
g11
(lp58
S'+'
aS'-'
aS'*'
aS'/'
asg13
Nsg29
(lp59
g31
ag32
ag33
ag34
ag35
ag36
ag37
ag38
asg39
g48
sg40
g37
sg41
Nsbsbsbsg29
(lp60
g31
ag32
ag33
ag34
ag35
ag36
ag37
ag38
asg39
g14
sg40
S'*'
sg41
(i__main__
Node
p61
(dp62
g11
(lp63
S'+'
aS'-'
aS'*'
aS'/'
asg13
(i__main__
Node
p64
(dp65
g11
(lp66
S'+'
aS'-'
aS'*'
aS'/'
asg13
(i__main__
Node
p67
(dp68
g11
(lp69
S'+'
aS'-'
aS'*'
aS'/'
asg13
Nsg29
(lp70
g31
ag32
ag33
ag34
ag35
ag36
ag37
ag38
asg39
g64
sg40
g32
sg41
Nsbsg29
(lp71
g31
ag32
ag33
ag34
ag35
ag36
ag37
ag38
asg39
g61
sg40
S'*'
sg41
(i__main__
Node
p72
(dp73
g11
(lp74
S'+'
aS'-'
aS'*'
aS'/'
asg13
Nsg29
(lp75
g31
ag32
ag33
ag34
ag35
ag36
ag37
ag38
asg39
g64
sg40
g36
sg41
Nsbsbsg29
(lp76
g31
ag32
ag33
ag34
ag35
ag36
ag37
ag38
asg39
g17
sg40
S'*'
sg41
(i__main__
Node
p77
(dp78
g11
(lp79
S'+'
aS'-'
aS'*'
aS'/'
asg13
(i__main__
Node
p80
(dp81
g11
(lp82
S'+'
aS'-'
aS'*'
aS'/'
asg13
Nsg29
(lp83
g31
ag32
ag33
ag34
ag35
ag36
ag37
ag38
asg39
g77
sg40
g31
sg41
Nsbsg29
(lp84
g31
ag32
ag33
ag34
ag35
ag36
ag37
ag38
asg39
g61
sg40
S'*'
sg41
(i__main__
Node
p85
(dp86
g11
(lp87
S'+'
aS'-'
aS'*'
aS'/'
asg13
Nsg29
(lp88
g31
ag32
ag33
ag34
ag35
ag36
ag37
ag38
asg39
g77
sg40
g32
sg41
Nsbsbsbsbsg29
(lp89
g31
ag32
ag33
ag34
ag35
ag36
ag37
ag38
asg39
g9
sg40
S'-'
sg41
(i__main__
Node
p90
(dp91
g11
(lp92
S'+'
aS'-'
aS'*'
aS'/'
asg13
(i__main__
Node
p93
(dp94
g11
(lp95
S'+'
aS'-'
aS'*'
aS'/'
asg13
(i__main__
Node
p96
(dp97
g11
(lp98
S'+'
aS'-'
aS'*'
aS'/'
asg13
(i__main__
Node
p99
(dp100
g11
(lp101
S'+'
aS'-'
aS'*'
aS'/'
asg13
Nsg29
(lp102
g31
ag32
ag33
ag34
ag35
ag36
ag37
ag38
asg39
g96
sg40
g32
sg41
Nsbsg29
(lp103
g31
ag32
ag33
ag34
ag35
ag36
ag37
ag38
asg39
g93
sg40
S'*'
sg41
(i__main__
Node
p104
(dp105
g11
(lp106
S'+'
aS'-'
aS'*'
aS'/'
asg13
Nsg29
(lp107
g31
ag32
ag33
ag34
ag35
ag36
ag37
ag38
asg39
g96
sg40
g36
sg41
Nsbsbsg29
(lp108
g31
ag32
ag33
ag34
ag35
ag36
ag37
ag38
asg39
g90
sg40
S'-'
sg41
(i__main__
Node
p109
(dp110
g11
(lp111
S'+'
aS'-'
aS'*'
aS'/'
asg13
(i__main__
Node
p112
(dp113
g11
(lp114
S'+'
aS'-'
aS'*'
aS'/'
asg13
Nsg29
(lp115
g31
ag32
ag33
ag34
ag35
ag36
ag37
ag38
asg39
g109
sg40
g31
sg41
Nsbsg29
(lp116
g31
ag32
ag33
ag34
ag35
ag36
ag37
ag38
asg39
g93
sg40
S'*'
sg41
(i__main__
Node
p117
(dp118
g11
(lp119
S'+'
aS'-'
aS'*'
aS'/'
asg13
Nsg29
(lp120
g31
ag32
ag33
ag34
ag35
ag36
ag37
ag38
asg39
g109
sg40
g34
sg41
Nsbsbsbsg29
(lp121
g31
ag32
ag33
ag34
ag35
ag36
ag37
ag38
asg39
g14
sg40
S'*'
sg41
(i__main__
Node
p122
(dp123
g11
(lp124
S'+'
aS'-'
aS'*'
aS'/'
asg13
(i__main__
Node
p125
(dp126
g11
(lp127
S'+'
aS'-'
aS'*'
aS'/'
asg13
(i__main__
Node
p128
(dp129
g11
(lp130
S'+'
aS'-'
aS'*'
aS'/'
asg13
Nsg29
(lp131
g31
ag32
ag33
ag34
ag35
ag36
ag37
ag38
asg39
g125
sg40
g34
sg41
Nsbsg29
(lp132
g31
ag32
ag33
ag34
ag35
ag36
ag37
ag38
asg39
g122
sg40
S'/'
sg41
(i__main__
Node
p133
(dp134
g11
(lp135
S'+'
aS'-'
aS'*'
aS'/'
asg13
Nsg29
(lp136
g31
ag32
ag33
ag34
ag35
ag36
ag37
ag38
asg39
g125
sg40
g37
sg41
Nsbsbsg29
(lp137
g31
ag32
ag33
ag34
ag35
ag36
ag37
ag38
asg39
g90
sg40
S'*'
sg41
(i__main__
Node
p138
(dp139
g11
(lp140
S'+'
aS'-'
aS'*'
aS'/'
asg13
(i__main__
Node
p141
(dp142
g11
(lp143
S'+'
aS'-'
aS'*'
aS'/'
asg13
Nsg29
(lp144
g31
ag32
ag33
ag34
ag35
ag36
ag37
ag38
asg39
g138
sg40
g34
sg41
Nsbsg29
(lp145
g31
ag32
ag33
ag34
ag35
ag36
ag37
ag38
asg39
g122
sg40
S'-'
sg41
(i__main__
Node
p146
(dp147
g11
(lp148
S'+'
aS'-'
aS'*'
aS'/'
asg13
Nsg29
(lp149
g31
ag32
ag33
ag34
ag35
ag36
ag37
ag38
asg39
g138
sg40
g32
sg41
Nsbsbsbsbsbsg29
(lp150
g31
ag32
ag33
ag34
ag35
ag36
ag37
ag38
asg39
Nsg40
S'+'
sg41
(i__main__
Node
p151
(dp152
g11
(lp153
S'+'
aS'-'
aS'*'
aS'/'
asg13
Nsg29
(lp154
g31
ag32
ag33
ag34
ag35
ag36
ag37
ag38
asg39
g9
sg40
g35
sg41
NsbsbsS'accel_x'
p155
F0
sS'accel_y'
p156
F0
sS'maxAccel'
p157
I2
sS'maxVel'
p158
F0.5
sS'age'
p159
I0
sS'gener'
p160
S'm'
sS'lastScale'
p161
F5.5
sS'energy'
p162
F0.5
sb.(i__main__
Data_mobile
p1
(dp2
S'vel_y'
p3
I0
sS'vel_x'
p4
I0
sS'pos_x'
p5
I-9579
sS'pos_y'
p6
I9779
sS'isAlive'
p7
I00
sS'geno'
p8
(i__main__
Node
p9
(dp10
S'node'
p11
(lp12
S'+'
aS'-'
aS'*'
aS'/'
asS'right'
p13
(i__main__
Node
p14
(dp15
g11
(lp16
S'+'
aS'-'
aS'*'
aS'/'
asg13
(i__main__
Node
p17
(dp18
g11
(lp19
S'+'
aS'-'
aS'*'
aS'/'
asg13
NsS'leaf'
p20
(lp21
S'indiv.alignment()'
p22
aS'indiv.cohesion()'
p23
aS'indiv.separation()'
p24
aS'indiv.target()'
p25
aS'indiv.flee()'
p26
aS'indiv.currentVelocity()'
p27
aS'indiv.mostEnergizedNeighbor()'
p28
aS'indiv.randV()'
p29
asS'parent'
p30
g14
sS'data'
p31
g23
sS'left'
p32
Nsbsg20
(lp33
g22
ag23
ag24
ag25
ag26
ag27
ag28
ag29
asg30
g9
sg31
S'*'
sg32
(i__main__
Node
p34
(dp35
g11
(lp36
S'+'
aS'-'
aS'*'
aS'/'
asg13
Nsg20
(lp37
g22
ag23
ag24
ag25
ag26
ag27
ag28
ag29
asg30
g14
sg31
g23
sg32
Nsbsbsg20
(lp38
g22
ag23
ag24
ag25
ag26
ag27
ag28
ag29
asg30
Nsg31
S'+'
sg32
(i__main__
Node
p39
(dp40
g11
(lp41
S'+'
aS'-'
aS'*'
aS'/'
asg13
Nsg20
(lp42
g22
ag23
ag24
ag25
ag26
ag27
ag28
ag29
asg30
g9
sg31
g26
sg32
NsbsbsS'accel_x'
p43
F0
sS'accel_y'
p44
F0
sS'maxAccel'
p45
I2
sS'maxVel'
p46
F0.5
sS'age'
p47
I0
sS'gener'
p48
S'm'
sS'lastScale'
p49
F5.5
sS'energy'
p50
F0.5
sb.(i__main__
Data_mobile
p1
(dp2
S'vel_y'
p3
I0
sS'vel_x'
p4
I0
sS'pos_x'
p5
I-9579
sS'pos_y'
p6
I9779
sS'isAlive'
p7
I00
sS'geno'
p8
(i__main__
Node
p9
(dp10
S'node'
p11
(lp12
S'+'
aS'-'
aS'*'
aS'/'
asS'right'
p13
(i__main__
Node
p14
(dp15
g11
(lp16
S'+'
aS'-'
aS'*'
aS'/'
asg13
(i__main__
Node
p17
(dp18
g11
(lp19
S'+'
aS'-'
aS'*'
aS'/'
asg13
NsS'leaf'
p20
(lp21
S'indiv.alignment()'
p22
aS'indiv.cohesion()'
p23
aS'indiv.separation()'
p24
aS'indiv.target()'
p25
aS'indiv.flee()'
p26
aS'indiv.currentVelocity()'
p27
aS'indiv.mostEnergizedNeighbor()'
p28
aS'indiv.randV()'
p29
asS'parent'
p30
NsS'data'
p31
g25
sS'left'
p32
Nsbsg20
(lp33
g22
ag23
ag24
ag25
ag26
ag27
ag28
ag29
asg30
Nsg31
S'-'
sg32
(i__main__
Node
p34
(dp35
g11
(lp36
S'+'
aS'-'
aS'*'
aS'/'
asg13
Nsg20
(lp37
g22
ag23
ag24
ag25
ag26
ag27
ag28
ag29
asg30
Nsg31
g27
sg32
Nsbsbsg20
(lp38
g22
ag23
ag24
ag25
ag26
ag27
ag28
ag29
asg30
Nsg31
S'-'
sg32
(i__main__
Node
p39
(dp40
g11
(lp41
S'+'
aS'-'
aS'*'
aS'/'
asg13
(i__main__
Node
p42
(dp43
g11
(lp44
S'+'
aS'-'
aS'*'
aS'/'
asg13
Nsg20
(lp45
g22
ag23
ag24
ag25
ag26
ag27
ag28
ag29
asg30
Nsg31
g23
sg32
Nsbsg20
(lp46
g22
ag23
ag24
ag25
ag26
ag27
ag28
ag29
asg30
Nsg31
S'*'
sg32
(i__main__
Node
p47
(dp48
g11
(lp49
S'+'
aS'-'
aS'*'
aS'/'
asg13
Nsg20
(lp50
g22
ag23
ag24
ag25
ag26
ag27
ag28
ag29
asg30
Nsg31
g25
sg32
NsbsbsbsS'accel_x'
p51
F0
sS'accel_y'
p52
F0
sS'maxAccel'
p53
I2
sS'maxVel'
p54
F0.5
sS'age'
p55
I0
sS'gener'
p56
S'm'
sS'lastScale'
p57
F5.5
sS'energy'
p58
F0.5
sb.(i__main__
Data_mobile
p1
(dp2
S'vel_y'
p3
I0
sS'vel_x'
p4
I0
sS'pos_x'
p5
I-9579
sS'pos_y'
p6
I9779
sS'isAlive'
p7
I00
sS'geno'
p8
(i__main__
Node
p9
(dp10
S'node'
p11
(lp12
S'+'
aS'-'
aS'*'
aS'/'
asS'right'
p13
(i__main__
Node
p14
(dp15
g11
(lp16
S'+'
aS'-'
aS'*'
aS'/'
asg13
(i__main__
Node
p17
(dp18
g11
(lp19
S'+'
aS'-'
aS'*'
aS'/'
asg13
NsS'leaf'
p20
(lp21
S'indiv.alignment()'
p22
aS'indiv.cohesion()'
p23
aS'indiv.separation()'
p24
aS'indiv.target()'
p25
aS'indiv.flee()'
p26
aS'indiv.currentVelocity()'
p27
aS'indiv.mostEnergizedNeighbor()'
p28
aS'indiv.randV()'
p29
asS'parent'
p30
g14
sS'data'
p31
g22
sS'left'
p32
Nsbsg20
(lp33
g22
ag23
ag24
ag25
ag26
ag27
ag28
ag29
asg30
g9
sg31
S'+'
sg32
(i__main__
Node
p34
(dp35
g11
(lp36
S'+'
aS'-'
aS'*'
aS'/'
asg13
Nsg20
(lp37
g22
ag23
ag24
ag25
ag26
ag27
ag28
ag29
asg30
g14
sg31
g25
sg32
Nsbsbsg20
(lp38
g22
ag23
ag24
ag25
ag26
ag27
ag28
ag29
asg30
Nsg31
S'+'
sg32
(i__main__
Node
p39
(dp40
g11
(lp41
S'+'
aS'-'
aS'*'
aS'/'
asg13
Nsg20
(lp42
g22
ag23
ag24
ag25
ag26
ag27
ag28
ag29
asg30
g9
sg31
g26
sg32
NsbsbsS'accel_x'
p43
F0
sS'accel_y'
p44
F0
sS'maxAccel'
p45
I2
sS'maxVel'
p46
F0.5
sS'age'
p47
I0
sS'gener'
p48
S'm'
sS'lastScale'
p49
F5.5
sS'energy'
p50
F0.5
sb.(i__main__
Data_mobile
p1
(dp2
S'vel_y'
p3
I0
sS'vel_x'
p4
I0
sS'pos_x'
p5
I-9579
sS'pos_y'
p6
I9779
sS'isAlive'
p7
I00
sS'geno'
p8
(i__main__
Node
p9
(dp10
S'node'
p11
(lp12
S'+'
aS'-'
aS'*'
aS'/'
asS'right'
p13
(i__main__
Node
p14
(dp15
g11
(lp16
S'+'
aS'-'
aS'*'
aS'/'
asg13
(i__main__
Node
p17
(dp18
g11
(lp19
S'+'
aS'-'
aS'*'
aS'/'
asg13
NsS'leaf'
p20
(lp21
S'indiv.alignment()'
p22
aS'indiv.cohesion()'
p23
aS'indiv.separation()'
p24
aS'indiv.target()'
p25
aS'indiv.flee()'
p26
aS'indiv.currentVelocity()'
p27
aS'indiv.mostEnergizedNeighbor()'
p28
aS'indiv.randV()'
p29
asS'parent'
p30
g14
sS'data'
p31
g22
sS'left'
p32
Nsbsg20
(lp33
g22
ag23
ag24
ag25
ag26
ag27
ag28
ag29
asg30
g9
sg31
S'+'
sg32
(i__main__
Node
p34
(dp35
g11
(lp36
S'+'
aS'-'
aS'*'
aS'/'
asg13
Nsg20
(lp37
g22
ag23
ag24
ag25
ag26
ag27
ag28
ag29
asg30
g14
sg31
g25
sg32
Nsbsbsg20
(lp38
g22
ag23
ag24
ag25
ag26
ag27
ag28
ag29
asg30
Nsg31
S'+'
sg32
(i__main__
Node
p39
(dp40
g11
(lp41
S'+'
aS'-'
aS'*'
aS'/'
asg13
Nsg20
(lp42
g22
ag23
ag24
ag25
ag26
ag27
ag28
ag29
asg30
g9
sg31
g26
sg32
NsbsbsS'accel_x'
p43
F0
sS'accel_y'
p44
F0
sS'maxAccel'
p45
I2
sS'maxVel'
p46
F0.5
sS'age'
p47
I0
sS'gener'
p48
S'm'
sS'lastScale'
p49
F5.5
sS'energy'
p50
F0.5
sb.(i__main__
Data_mobile
p1
(dp2
S'vel_y'
p3
I0
sS'vel_x'
p4
I0
sS'pos_x'
p5
I-9579
sS'pos_y'
p6
I9779
sS'isAlive'
p7
I00
sS'geno'
p8
(i__main__
Node
p9
(dp10
S'node'
p11
(lp12
S'+'
aS'-'
aS'*'
aS'/'
asS'right'
p13
(i__main__
Node
p14
(dp15
g11
(lp16
S'+'
aS'-'
aS'*'
aS'/'
asg13
(i__main__
Node
p17
(dp18
g11
(lp19
S'+'
aS'-'
aS'*'
aS'/'
asg13
NsS'leaf'
p20
(lp21
S'indiv.alignment()'
p22
aS'indiv.cohesion()'
p23
aS'indiv.separation()'
p24
aS'indiv.target()'
p25
aS'indiv.flee()'
p26
aS'indiv.currentVelocity()'
p27
aS'indiv.mostEnergizedNeighbor()'
p28
aS'indiv.randV()'
p29
asS'parent'
p30
g14
sS'data'
p31
g22
sS'left'
p32
Nsbsg20
(lp33
g22
ag23
ag24
ag25
ag26
ag27
ag28
ag29
asg30
g9
sg31
S'+'
sg32
(i__main__
Node
p34
(dp35
g11
(lp36
S'+'
aS'-'
aS'*'
aS'/'
asg13
Nsg20
(lp37
g22
ag23
ag24
ag25
ag26
ag27
ag28
ag29
asg30
g14
sg31
g25
sg32
Nsbsbsg20
(lp38
g22
ag23
ag24
ag25
ag26
ag27
ag28
ag29
asg30
Nsg31
S'+'
sg32
(i__main__
Node
p39
(dp40
g11
(lp41
S'+'
aS'-'
aS'*'
aS'/'
asg13
Nsg20
(lp42
g22
ag23
ag24
ag25
ag26
ag27
ag28
ag29
asg30
g9
sg31
g26
sg32
NsbsbsS'accel_x'
p43
F0
sS'accel_y'
p44
F0
sS'maxAccel'
p45
I2
sS'maxVel'
p46
F0.5
sS'age'
p47
I0
sS'gener'
p48
S'm'
sS'lastScale'
p49
F5.5
sS'energy'
p50
F0.5
sb.(i__main__
Data_mobile
p1
(dp2
S'vel_y'
p3
I0
sS'vel_x'
p4
I0
sS'pos_x'
p5
I-9579
sS'pos_y'
p6
I9779
sS'isAlive'
p7
I00
sS'geno'
p8
(i__main__
Node
p9
(dp10
S'node'
p11
(lp12
S'+'
aS'-'
aS'*'
aS'/'
asS'right'
p13
(i__main__
Node
p14
(dp15
g11
(lp16
S'+'
aS'-'
aS'*'
aS'/'
asg13
(i__main__
Node
p17
(dp18
g11
(lp19
S'+'
aS'-'
aS'*'
aS'/'
asg13
NsS'leaf'
p20
(lp21
S'indiv.alignment()'
p22
aS'indiv.cohesion()'
p23
aS'indiv.separation()'
p24
aS'indiv.target()'
p25
aS'indiv.flee()'
p26
aS'indiv.currentVelocity()'
p27
aS'indiv.mostEnergizedNeighbor()'
p28
aS'indiv.randV()'
p29
asS'parent'
p30
g14
sS'data'
p31
g22
sS'left'
p32
Nsbsg20
(lp33
g22
ag23
ag24
ag25
ag26
ag27
ag28
ag29
asg30
g9
sg31
S'+'
sg32
(i__main__
Node
p34
(dp35
g11
(lp36
S'+'
aS'-'
aS'*'
aS'/'
asg13
Nsg20
(lp37
g22
ag23
ag24
ag25
ag26
ag27
ag28
ag29
asg30
g14
sg31
g25
sg32
Nsbsbsg20
(lp38
g22
ag23
ag24
ag25
ag26
ag27
ag28
ag29
asg30
Nsg31
S'+'
sg32
(i__main__
Node
p39
(dp40
g11
(lp41
S'+'
aS'-'
aS'*'
aS'/'
asg13
Nsg20
(lp42
g22
ag23
ag24
ag25
ag26
ag27
ag28
ag29
asg30
g9
sg31
g26
sg32
NsbsbsS'accel_x'
p43
F0
sS'accel_y'
p44
F0
sS'maxAccel'
p45
I2
sS'maxVel'
p46
F0.5
sS'age'
p47
I0
sS'gener'
p48
S'm'
sS'lastScale'
p49
F5.5
sS'energy'
p50
F0.5
sb.(i__main__
Data_mobile
p1
(dp2
S'vel_y'
p3
I0
sS'vel_x'
p4
I0
sS'pos_x'
p5
I-9579
sS'pos_y'
p6
I9779
sS'isAlive'
p7
I00
sS'geno'
p8
(i__main__
Node
p9
(dp10
S'node'
p11
(lp12
S'+'
aS'-'
aS'*'
aS'/'
asS'right'
p13
(i__main__
Node
p14
(dp15
g11
(lp16
S'+'
aS'-'
aS'*'
aS'/'
asg13
(i__main__
Node
p17
(dp18
g11
(lp19
S'+'
aS'-'
aS'*'
aS'/'
asg13
NsS'leaf'
p20
(lp21
S'indiv.alignment()'
p22
aS'indiv.cohesion()'
p23
aS'indiv.separation()'
p24
aS'indiv.target()'
p25
aS'indiv.flee()'
p26
aS'indiv.currentVelocity()'
p27
aS'indiv.mostEnergizedNeighbor()'
p28
aS'indiv.randV()'
p29
asS'parent'
p30
g14
sS'data'
p31
g22
sS'left'
p32
Nsbsg20
(lp33
g22
ag23
ag24
ag25
ag26
ag27
ag28
ag29
asg30
g9
sg31
S'+'
sg32
(i__main__
Node
p34
(dp35
g11
(lp36
S'+'
aS'-'
aS'*'
aS'/'
asg13
Nsg20
(lp37
g22
ag23
ag24
ag25
ag26
ag27
ag28
ag29
asg30
g14
sg31
g25
sg32
Nsbsbsg20
(lp38
g22
ag23
ag24
ag25
ag26
ag27
ag28
ag29
asg30
Nsg31
S'+'
sg32
(i__main__
Node
p39
(dp40
g11
(lp41
S'+'
aS'-'
aS'*'
aS'/'
asg13
Nsg20
(lp42
g22
ag23
ag24
ag25
ag26
ag27
ag28
ag29
asg30
g9
sg31
g26
sg32
NsbsbsS'accel_x'
p43
F0
sS'accel_y'
p44
F0
sS'maxAccel'
p45
I2
sS'maxVel'
p46
F0.5
sS'age'
p47
I0
sS'gener'
p48
S'm'
sS'lastScale'
p49
F5.5
sS'energy'
p50
F0.5
sb.(i__main__
Data_mobile
p1
(dp2
S'vel_y'
p3
I0
sS'vel_x'
p4
I0
sS'pos_x'
p5
I-9579
sS'pos_y'
p6
I9779
sS'isAlive'
p7
I00
sS'geno'
p8
(i__main__
Node
p9
(dp10
S'node'
p11
(lp12
S'+'
aS'-'
aS'*'
aS'/'
asS'right'
p13
(i__main__
Node
p14
(dp15
g11
(lp16
S'+'
aS'-'
aS'*'
aS'/'
asg13
(i__main__
Node
p17
(dp18
g11
(lp19
S'+'
aS'-'
aS'*'
aS'/'
asg13
NsS'leaf'
p20
(lp21
S'indiv.alignment()'
p22
aS'indiv.cohesion()'
p23
aS'indiv.separation()'
p24
aS'indiv.target()'
p25
aS'indiv.flee()'
p26
aS'indiv.currentVelocity()'
p27
aS'indiv.mostEnergizedNeighbor()'
p28
aS'indiv.randV()'
p29
asS'parent'
p30
g14
sS'data'
p31
g22
sS'left'
p32
Nsbsg20
(lp33
g22
ag23
ag24
ag25
ag26
ag27
ag28
ag29
asg30
g9
sg31
S'+'
sg32
(i__main__
Node
p34
(dp35
g11
(lp36
S'+'
aS'-'
aS'*'
aS'/'
asg13
Nsg20
(lp37
g22
ag23
ag24
ag25
ag26
ag27
ag28
ag29
asg30
g14
sg31
g25
sg32
Nsbsbsg20
(lp38
g22
ag23
ag24
ag25
ag26
ag27
ag28
ag29
asg30
Nsg31
S'+'
sg32
(i__main__
Node
p39
(dp40
g11
(lp41
S'+'
aS'-'
aS'*'
aS'/'
asg13
Nsg20
(lp42
g22
ag23
ag24
ag25
ag26
ag27
ag28
ag29
asg30
g9
sg31
g26
sg32
NsbsbsS'accel_x'
p43
F0
sS'accel_y'
p44
F0
sS'maxAccel'
p45
I2
sS'maxVel'
p46
F0.5
sS'age'
p47
I0
sS'gener'
p48
S'm'
sS'lastScale'
p49
F5.5
sS'energy'
p50
F0.5
sb.(i__main__
Data_mobile
p1
(dp2
S'vel_y'
p3
I0
sS'vel_x'
p4
I0
sS'pos_x'
p5
I-9579
sS'pos_y'
p6
I9779
sS'isAlive'
p7
I00
sS'geno'
p8
(i__main__
Node
p9
(dp10
S'node'
p11
(lp12
S'+'
aS'-'
aS'*'
aS'/'
asS'right'
p13
(i__main__
Node
p14
(dp15
g11
(lp16
S'+'
aS'-'
aS'*'
aS'/'
asg13
(i__main__
Node
p17
(dp18
g11
(lp19
S'+'
aS'-'
aS'*'
aS'/'
asg13
NsS'leaf'
p20
(lp21
S'indiv.alignment()'
p22
aS'indiv.cohesion()'
p23
aS'indiv.separation()'
p24
aS'indiv.target()'
p25
aS'indiv.flee()'
p26
aS'indiv.currentVelocity()'
p27
aS'indiv.mostEnergizedNeighbor()'
p28
aS'indiv.randV()'
p29
asS'parent'
p30
g14
sS'data'
p31
g22
sS'left'
p32
Nsbsg20
(lp33
g22
ag23
ag24
ag25
ag26
ag27
ag28
ag29
asg30
g9
sg31
S'+'
sg32
(i__main__
Node
p34
(dp35
g11
(lp36
S'+'
aS'-'
aS'*'
aS'/'
asg13
Nsg20
(lp37
g22
ag23
ag24
ag25
ag26
ag27
ag28
ag29
asg30
g14
sg31
g25
sg32
Nsbsbsg20
(lp38
g22
ag23
ag24
ag25
ag26
ag27
ag28
ag29
asg30
Nsg31
S'+'
sg32
(i__main__
Node
p39
(dp40
g11
(lp41
S'+'
aS'-'
aS'*'
aS'/'
asg13
Nsg20
(lp42
g22
ag23
ag24
ag25
ag26
ag27
ag28
ag29
asg30
g9
sg31
g26
sg32
NsbsbsS'accel_x'
p43
F0
sS'accel_y'
p44
F0
sS'maxAccel'
p45
I2
sS'maxVel'
p46
F0.5
sS'age'
p47
I0
sS'gener'
p48
S'm'
sS'lastScale'
p49
F5.5
sS'energy'
p50
F0.5
sb.(i__main__
Data_mobile
p1
(dp2
S'vel_y'
p3
I0
sS'vel_x'
p4
I0
sS'pos_x'
p5
I-9579
sS'pos_y'
p6
I9779
sS'isAlive'
p7
I00
sS'geno'
p8
(i__main__
Node
p9
(dp10
S'node'
p11
(lp12
S'+'
aS'-'
aS'*'
aS'/'
asS'right'
p13
(i__main__
Node
p14
(dp15
g11
(lp16
S'+'
aS'-'
aS'*'
aS'/'
asg13
(i__main__
Node
p17
(dp18
g11
(lp19
S'+'
aS'-'
aS'*'
aS'/'
asg13
NsS'leaf'
p20
(lp21
S'indiv.alignment()'
p22
aS'indiv.cohesion()'
p23
aS'indiv.separation()'
p24
aS'indiv.target()'
p25
aS'indiv.flee()'
p26
aS'indiv.currentVelocity()'
p27
aS'indiv.mostEnergizedNeighbor()'
p28
aS'indiv.randV()'
p29
asS'parent'
p30
g14
sS'data'
p31
g22
sS'left'
p32
Nsbsg20
(lp33
g22
ag23
ag24
ag25
ag26
ag27
ag28
ag29
asg30
g9
sg31
S'+'
sg32
(i__main__
Node
p34
(dp35
g11
(lp36
S'+'
aS'-'
aS'*'
aS'/'
asg13
Nsg20
(lp37
g22
ag23
ag24
ag25
ag26
ag27
ag28
ag29
asg30
g14
sg31
g25
sg32
Nsbsbsg20
(lp38
g22
ag23
ag24
ag25
ag26
ag27
ag28
ag29
asg30
Nsg31
S'+'
sg32
(i__main__
Node
p39
(dp40
g11
(lp41
S'+'
aS'-'
aS'*'
aS'/'
asg13
Nsg20
(lp42
g22
ag23
ag24
ag25
ag26
ag27
ag28
ag29
asg30
g9
sg31
g26
sg32
NsbsbsS'accel_x'
p43
F0
sS'accel_y'
p44
F0
sS'maxAccel'
p45
I2
sS'maxVel'
p46
F0.5
sS'age'
p47
I0
sS'gener'
p48
S'm'
sS'lastScale'
p49
F5.5
sS'energy'
p50
F0.5
sb.(i__main__
Data_mobile
p1
(dp2
S'vel_y'
p3
I0
sS'vel_x'
p4
I0
sS'pos_x'
p5
I-9579
sS'pos_y'
p6
I9779
sS'isAlive'
p7
I00
sS'geno'
p8
(i__main__
Node
p9
(dp10
S'node'
p11
(lp12
S'+'
aS'-'
aS'*'
aS'/'
asS'right'
p13
(i__main__
Node
p14
(dp15
g11
(lp16
S'+'
aS'-'
aS'*'
aS'/'
asg13
(i__main__
Node
p17
(dp18
g11
(lp19
S'+'
aS'-'
aS'*'
aS'/'
asg13
NsS'leaf'
p20
(lp21
S'indiv.alignment()'
p22
aS'indiv.cohesion()'
p23
aS'indiv.separation()'
p24
aS'indiv.target()'
p25
aS'indiv.flee()'
p26
aS'indiv.currentVelocity()'
p27
aS'indiv.mostEnergizedNeighbor()'
p28
aS'indiv.randV()'
p29
asS'parent'
p30
g14
sS'data'
p31
g22
sS'left'
p32
Nsbsg20
(lp33
g22
ag23
ag24
ag25
ag26
ag27
ag28
ag29
asg30
g9
sg31
S'+'
sg32
(i__main__
Node
p34
(dp35
g11
(lp36
S'+'
aS'-'
aS'*'
aS'/'
asg13
Nsg20
(lp37
g22
ag23
ag24
ag25
ag26
ag27
ag28
ag29
asg30
g14
sg31
g25
sg32
Nsbsbsg20
(lp38
g22
ag23
ag24
ag25
ag26
ag27
ag28
ag29
asg30
Nsg31
S'+'
sg32
(i__main__
Node
p39
(dp40
g11
(lp41
S'+'
aS'-'
aS'*'
aS'/'
asg13
Nsg20
(lp42
g22
ag23
ag24
ag25
ag26
ag27
ag28
ag29
asg30
g9
sg31
g26
sg32
NsbsbsS'accel_x'
p43
F0
sS'accel_y'
p44
F0
sS'maxAccel'
p45
I2
sS'maxVel'
p46
F0.5
sS'age'
p47
I0
sS'gener'
p48
S'm'
sS'lastScale'
p49
F5.5
sS'energy'
p50
F0.5
sb.(i__main__
Data_mobile
p1
(dp2
S'vel_y'
p3
I0
sS'vel_x'
p4
I0
sS'pos_x'
p5
I-9579
sS'pos_y'
p6
I9779
sS'isAlive'
p7
I00
sS'geno'
p8
(i__main__
Node
p9
(dp10
S'node'
p11
(lp12
S'+'
aS'-'
aS'*'
aS'/'
asS'right'
p13
(i__main__
Node
p14
(dp15
g11
(lp16
S'+'
aS'-'
aS'*'
aS'/'
asg13
(i__main__
Node
p17
(dp18
g11
(lp19
S'+'
aS'-'
aS'*'
aS'/'
asg13
NsS'leaf'
p20
(lp21
S'indiv.alignment()'
p22
aS'indiv.cohesion()'
p23
aS'indiv.separation()'
p24
aS'indiv.target()'
p25
aS'indiv.flee()'
p26
aS'indiv.currentVelocity()'
p27
aS'indiv.mostEnergizedNeighbor()'
p28
aS'indiv.randV()'
p29
asS'parent'
p30
g14
sS'data'
p31
g22
sS'left'
p32
Nsbsg20
(lp33
g22
ag23
ag24
ag25
ag26
ag27
ag28
ag29
asg30
g9
sg31
S'+'
sg32
(i__main__
Node
p34
(dp35
g11
(lp36
S'+'
aS'-'
aS'*'
aS'/'
asg13
Nsg20
(lp37
g22
ag23
ag24
ag25
ag26
ag27
ag28
ag29
asg30
g14
sg31
g25
sg32
Nsbsbsg20
(lp38
g22
ag23
ag24
ag25
ag26
ag27
ag28
ag29
asg30
Nsg31
S'+'
sg32
(i__main__
Node
p39
(dp40
g11
(lp41
S'+'
aS'-'
aS'*'
aS'/'
asg13
Nsg20
(lp42
g22
ag23
ag24
ag25
ag26
ag27
ag28
ag29
asg30
g9
sg31
g26
sg32
NsbsbsS'accel_x'
p43
F0
sS'accel_y'
p44
F0
sS'maxAccel'
p45
I2
sS'maxVel'
p46
F0.5
sS'age'
p47
I0
sS'gener'
p48
S'm'
sS'lastScale'
p49
F5.5
sS'energy'
p50
F0.5
sb.(i__main__
Data_mobile
p1
(dp2
S'vel_y'
p3
I0
sS'vel_x'
p4
I0
sS'pos_x'
p5
I-9579
sS'pos_y'
p6
I9779
sS'isAlive'
p7
I00
sS'geno'
p8
(i__main__
Node
p9
(dp10
S'node'
p11
(lp12
S'+'
aS'-'
aS'*'
aS'/'
asS'right'
p13
(i__main__
Node
p14
(dp15
g11
(lp16
S'+'
aS'-'
aS'*'
aS'/'
asg13
(i__main__
Node
p17
(dp18
g11
(lp19
S'+'
aS'-'
aS'*'
aS'/'
asg13
NsS'leaf'
p20
(lp21
S'indiv.alignment()'
p22
aS'indiv.cohesion()'
p23
aS'indiv.separation()'
p24
aS'indiv.target()'
p25
aS'indiv.flee()'
p26
aS'indiv.currentVelocity()'
p27
aS'indiv.mostEnergizedNeighbor()'
p28
aS'indiv.randV()'
p29
asS'parent'
p30
g14
sS'data'
p31
g22
sS'left'
p32
Nsbsg20
(lp33
g22
ag23
ag24
ag25
ag26
ag27
ag28
ag29
asg30
g9
sg31
S'+'
sg32
(i__main__
Node
p34
(dp35
g11
(lp36
S'+'
aS'-'
aS'*'
aS'/'
asg13
Nsg20
(lp37
g22
ag23
ag24
ag25
ag26
ag27
ag28
ag29
asg30
g14
sg31
g25
sg32
Nsbsbsg20
(lp38
g22
ag23
ag24
ag25
ag26
ag27
ag28
ag29
asg30
Nsg31
S'+'
sg32
(i__main__
Node
p39
(dp40
g11
(lp41
S'+'
aS'-'
aS'*'
aS'/'
asg13
Nsg20
(lp42
g22
ag23
ag24
ag25
ag26
ag27
ag28
ag29
asg30
g9
sg31
g26
sg32
NsbsbsS'accel_x'
p43
F0
sS'accel_y'
p44
F0
sS'maxAccel'
p45
I2
sS'maxVel'
p46
F0.5
sS'age'
p47
I0
sS'gener'
p48
S'm'
sS'lastScale'
p49
F5.5
sS'energy'
p50
F0.5
sb.(i__main__
Data_mobile
p1
(dp2
S'vel_y'
p3
I0
sS'vel_x'
p4
I0
sS'pos_x'
p5
I-9579
sS'pos_y'
p6
I9779
sS'isAlive'
p7
I00
sS'geno'
p8
(i__main__
Node
p9
(dp10
S'node'
p11
(lp12
S'+'
aS'-'
aS'*'
aS'/'
asS'right'
p13
(i__main__
Node
p14
(dp15
g11
(lp16
S'+'
aS'-'
aS'*'
aS'/'
asg13
(i__main__
Node
p17
(dp18
g11
(lp19
S'+'
aS'-'
aS'*'
aS'/'
asg13
NsS'leaf'
p20
(lp21
S'indiv.alignment()'
p22
aS'indiv.cohesion()'
p23
aS'indiv.separation()'
p24
aS'indiv.target()'
p25
aS'indiv.flee()'
p26
aS'indiv.currentVelocity()'
p27
aS'indiv.mostEnergizedNeighbor()'
p28
aS'indiv.randV()'
p29
asS'parent'
p30
g14
sS'data'
p31
g22
sS'left'
p32
Nsbsg20
(lp33
g22
ag23
ag24
ag25
ag26
ag27
ag28
ag29
asg30
g9
sg31
S'+'
sg32
(i__main__
Node
p34
(dp35
g11
(lp36
S'+'
aS'-'
aS'*'
aS'/'
asg13
Nsg20
(lp37
g22
ag23
ag24
ag25
ag26
ag27
ag28
ag29
asg30
g14
sg31
g25
sg32
Nsbsbsg20
(lp38
g22
ag23
ag24
ag25
ag26
ag27
ag28
ag29
asg30
Nsg31
S'+'
sg32
(i__main__
Node
p39
(dp40
g11
(lp41
S'+'
aS'-'
aS'*'
aS'/'
asg13
Nsg20
(lp42
g22
ag23
ag24
ag25
ag26
ag27
ag28
ag29
asg30
g9
sg31
g26
sg32
NsbsbsS'accel_x'
p43
F0
sS'accel_y'
p44
F0
sS'maxAccel'
p45
I2
sS'maxVel'
p46
F0.5
sS'age'
p47
I0
sS'gener'
p48
S'm'
sS'lastScale'
p49
F5.5
sS'energy'
p50
F0.5
sb.(i__main__
Data_mobile
p1
(dp2
S'vel_y'
p3
I0
sS'vel_x'
p4
I0
sS'pos_x'
p5
I-9579
sS'pos_y'
p6
I9779
sS'isAlive'
p7
I00
sS'geno'
p8
(i__main__
Node
p9
(dp10
S'node'
p11
(lp12
S'+'
aS'-'
aS'*'
aS'/'
asS'right'
p13
(i__main__
Node
p14
(dp15
g11
(lp16
S'+'
aS'-'
aS'*'
aS'/'
asg13
(i__main__
Node
p17
(dp18
g11
(lp19
S'+'
aS'-'
aS'*'
aS'/'
asg13
NsS'leaf'
p20
(lp21
S'indiv.alignment()'
p22
aS'indiv.cohesion()'
p23
aS'indiv.separation()'
p24
aS'indiv.target()'
p25
aS'indiv.flee()'
p26
aS'indiv.currentVelocity()'
p27
aS'indiv.mostEnergizedNeighbor()'
p28
aS'indiv.randV()'
p29
asS'parent'
p30
g14
sS'data'
p31
g22
sS'left'
p32
Nsbsg20
(lp33
g22
ag23
ag24
ag25
ag26
ag27
ag28
ag29
asg30
g9
sg31
S'+'
sg32
(i__main__
Node
p34
(dp35
g11
(lp36
S'+'
aS'-'
aS'*'
aS'/'
asg13
Nsg20
(lp37
g22
ag23
ag24
ag25
ag26
ag27
ag28
ag29
asg30
g14
sg31
g25
sg32
Nsbsbsg20
(lp38
g22
ag23
ag24
ag25
ag26
ag27
ag28
ag29
asg30
Nsg31
S'+'
sg32
(i__main__
Node
p39
(dp40
g11
(lp41
S'+'
aS'-'
aS'*'
aS'/'
asg13
Nsg20
(lp42
g22
ag23
ag24
ag25
ag26
ag27
ag28
ag29
asg30
g9
sg31
g26
sg32
NsbsbsS'accel_x'
p43
F0
sS'accel_y'
p44
F0
sS'maxAccel'
p45
I2
sS'maxVel'
p46
F0.5
sS'age'
p47
I0
sS'gener'
p48
S'm'
sS'lastScale'
p49
F5.5
sS'energy'
p50
F0.5
sb.(i__main__
Data_mobile
p1
(dp2
S'vel_y'
p3
I0
sS'vel_x'
p4
I0
sS'pos_x'
p5
I-9579
sS'pos_y'
p6
I9779
sS'isAlive'
p7
I00
sS'geno'
p8
(i__main__
Node
p9
(dp10
S'node'
p11
(lp12
S'+'
aS'-'
aS'*'
aS'/'
asS'right'
p13
(i__main__
Node
p14
(dp15
g11
(lp16
S'+'
aS'-'
aS'*'
aS'/'
asg13
(i__main__
Node
p17
(dp18
g11
(lp19
S'+'
aS'-'
aS'*'
aS'/'
asg13
NsS'leaf'
p20
(lp21
S'indiv.alignment()'
p22
aS'indiv.cohesion()'
p23
aS'indiv.separation()'
p24
aS'indiv.target()'
p25
aS'indiv.flee()'
p26
aS'indiv.currentVelocity()'
p27
aS'indiv.mostEnergizedNeighbor()'
p28
aS'indiv.randV()'
p29
asS'parent'
p30
g14
sS'data'
p31
g22
sS'left'
p32
Nsbsg20
(lp33
g22
ag23
ag24
ag25
ag26
ag27
ag28
ag29
asg30
g9
sg31
S'+'
sg32
(i__main__
Node
p34
(dp35
g11
(lp36
S'+'
aS'-'
aS'*'
aS'/'
asg13
Nsg20
(lp37
g22
ag23
ag24
ag25
ag26
ag27
ag28
ag29
asg30
g14
sg31
g25
sg32
Nsbsbsg20
(lp38
g22
ag23
ag24
ag25
ag26
ag27
ag28
ag29
asg30
Nsg31
S'+'
sg32
(i__main__
Node
p39
(dp40
g11
(lp41
S'+'
aS'-'
aS'*'
aS'/'
asg13
Nsg20
(lp42
g22
ag23
ag24
ag25
ag26
ag27
ag28
ag29
asg30
g9
sg31
g26
sg32
NsbsbsS'accel_x'
p43
F0
sS'accel_y'
p44
F0
sS'maxAccel'
p45
I2
sS'maxVel'
p46
F0.5
sS'age'
p47
I0
sS'gener'
p48
S'm'
sS'lastScale'
p49
F5.5
sS'energy'
p50
F0.5
sb.(i__main__
Data_mobile
p1
(dp2
S'vel_y'
p3
I0
sS'vel_x'
p4
I0
sS'pos_x'
p5
I-9579
sS'pos_y'
p6
I9779
sS'isAlive'
p7
I00
sS'geno'
p8
(i__main__
Node
p9
(dp10
S'node'
p11
(lp12
S'+'
aS'-'
aS'*'
aS'/'
asS'right'
p13
(i__main__
Node
p14
(dp15
g11
(lp16
S'+'
aS'-'
aS'*'
aS'/'
asg13
(i__main__
Node
p17
(dp18
g11
(lp19
S'+'
aS'-'
aS'*'
aS'/'
asg13
NsS'leaf'
p20
(lp21
S'indiv.alignment()'
p22
aS'indiv.cohesion()'
p23
aS'indiv.separation()'
p24
aS'indiv.target()'
p25
aS'indiv.flee()'
p26
aS'indiv.currentVelocity()'
p27
aS'indiv.mostEnergizedNeighbor()'
p28
aS'indiv.randV()'
p29
asS'parent'
p30
g14
sS'data'
p31
g22
sS'left'
p32
Nsbsg20
(lp33
g22
ag23
ag24
ag25
ag26
ag27
ag28
ag29
asg30
g9
sg31
S'+'
sg32
(i__main__
Node
p34
(dp35
g11
(lp36
S'+'
aS'-'
aS'*'
aS'/'
asg13
Nsg20
(lp37
g22
ag23
ag24
ag25
ag26
ag27
ag28
ag29
asg30
g14
sg31
g25
sg32
Nsbsbsg20
(lp38
g22
ag23
ag24
ag25
ag26
ag27
ag28
ag29
asg30
Nsg31
S'+'
sg32
(i__main__
Node
p39
(dp40
g11
(lp41
S'+'
aS'-'
aS'*'
aS'/'
asg13
Nsg20
(lp42
g22
ag23
ag24
ag25
ag26
ag27
ag28
ag29
asg30
g9
sg31
g26
sg32
NsbsbsS'accel_x'
p43
F0
sS'accel_y'
p44
F0
sS'maxAccel'
p45
I2
sS'maxVel'
p46
F0.5
sS'age'
p47
I0
sS'gener'
p48
S'm'
sS'lastScale'
p49
F5.5
sS'energy'
p50
F0.5
sb.(i__main__
Data_mobile
p1
(dp2
S'vel_y'
p3
I0
sS'vel_x'
p4
I0
sS'pos_x'
p5
I-9579
sS'pos_y'
p6
I9779
sS'isAlive'
p7
I00
sS'geno'
p8
(i__main__
Node
p9
(dp10
S'node'
p11
(lp12
S'+'
aS'-'
aS'*'
aS'/'
asS'right'
p13
(i__main__
Node
p14
(dp15
g11
(lp16
S'+'
aS'-'
aS'*'
aS'/'
asg13
(i__main__
Node
p17
(dp18
g11
(lp19
S'+'
aS'-'
aS'*'
aS'/'
asg13
NsS'leaf'
p20
(lp21
S'indiv.alignment()'
p22
aS'indiv.cohesion()'
p23
aS'indiv.separation()'
p24
aS'indiv.target()'
p25
aS'indiv.flee()'
p26
aS'indiv.currentVelocity()'
p27
aS'indiv.mostEnergizedNeighbor()'
p28
aS'indiv.randV()'
p29
asS'parent'
p30
g14
sS'data'
p31
g22
sS'left'
p32
Nsbsg20
(lp33
g22
ag23
ag24
ag25
ag26
ag27
ag28
ag29
asg30
g9
sg31
S'+'
sg32
(i__main__
Node
p34
(dp35
g11
(lp36
S'+'
aS'-'
aS'*'
aS'/'
asg13
Nsg20
(lp37
g22
ag23
ag24
ag25
ag26
ag27
ag28
ag29
asg30
g14
sg31
g25
sg32
Nsbsbsg20
(lp38
g22
ag23
ag24
ag25
ag26
ag27
ag28
ag29
asg30
Nsg31
S'+'
sg32
(i__main__
Node
p39
(dp40
g11
(lp41
S'+'
aS'-'
aS'*'
aS'/'
asg13
Nsg20
(lp42
g22
ag23
ag24
ag25
ag26
ag27
ag28
ag29
asg30
g9
sg31
g26
sg32
NsbsbsS'accel_x'
p43
F0
sS'accel_y'
p44
F0
sS'maxAccel'
p45
I2
sS'maxVel'
p46
F0.5
sS'age'
p47
I0
sS'gener'
p48
S'm'
sS'lastScale'
p49
F5.5
sS'energy'
p50
F0.5
sb.(i__main__
Data_mobile
p1
(dp2
S'vel_y'
p3
I0
sS'vel_x'
p4
I0
sS'pos_x'
p5
I-9579
sS'pos_y'
p6
I9779
sS'isAlive'
p7
I00
sS'geno'
p8
(i__main__
Node
p9
(dp10
S'node'
p11
(lp12
S'+'
aS'-'
aS'*'
aS'/'
asS'right'
p13
(i__main__
Node
p14
(dp15
g11
(lp16
S'+'
aS'-'
aS'*'
aS'/'
asg13
(i__main__
Node
p17
(dp18
g11
(lp19
S'+'
aS'-'
aS'*'
aS'/'
asg13
NsS'leaf'
p20
(lp21
S'indiv.alignment()'
p22
aS'indiv.cohesion()'
p23
aS'indiv.separation()'
p24
aS'indiv.target()'
p25
aS'indiv.flee()'
p26
aS'indiv.currentVelocity()'
p27
aS'indiv.mostEnergizedNeighbor()'
p28
aS'indiv.randV()'
p29
asS'parent'
p30
g14
sS'data'
p31
g22
sS'left'
p32
Nsbsg20
(lp33
g22
ag23
ag24
ag25
ag26
ag27
ag28
ag29
asg30
g9
sg31
S'+'
sg32
(i__main__
Node
p34
(dp35
g11
(lp36
S'+'
aS'-'
aS'*'
aS'/'
asg13
Nsg20
(lp37
g22
ag23
ag24
ag25
ag26
ag27
ag28
ag29
asg30
g14
sg31
g25
sg32
Nsbsbsg20
(lp38
g22
ag23
ag24
ag25
ag26
ag27
ag28
ag29
asg30
Nsg31
S'+'
sg32
(i__main__
Node
p39
(dp40
g11
(lp41
S'+'
aS'-'
aS'*'
aS'/'
asg13
Nsg20
(lp42
g22
ag23
ag24
ag25
ag26
ag27
ag28
ag29
asg30
g9
sg31
g26
sg32
NsbsbsS'accel_x'
p43
F0
sS'accel_y'
p44
F0
sS'maxAccel'
p45
I2
sS'maxVel'
p46
F0.5
sS'age'
p47
I0
sS'gener'
p48
S'm'
sS'lastScale'
p49
F5.5
sS'energy'
p50
F0.5
sb.(i__main__
Data_mobile
p1
(dp2
S'vel_y'
p3
I0
sS'vel_x'
p4
I0
sS'pos_x'
p5
I-9579
sS'pos_y'
p6
I9779
sS'isAlive'
p7
I00
sS'geno'
p8
(i__main__
Node
p9
(dp10
S'node'
p11
(lp12
S'+'
aS'-'
aS'*'
aS'/'
asS'right'
p13
(i__main__
Node
p14
(dp15
g11
(lp16
S'+'
aS'-'
aS'*'
aS'/'
asg13
(i__main__
Node
p17
(dp18
g11
(lp19
S'+'
aS'-'
aS'*'
aS'/'
asg13
NsS'leaf'
p20
(lp21
S'indiv.alignment()'
p22
aS'indiv.cohesion()'
p23
aS'indiv.separation()'
p24
aS'indiv.target()'
p25
aS'indiv.flee()'
p26
aS'indiv.currentVelocity()'
p27
aS'indiv.mostEnergizedNeighbor()'
p28
aS'indiv.randV()'
p29
asS'parent'
p30
g14
sS'data'
p31
g22
sS'left'
p32
Nsbsg20
(lp33
g22
ag23
ag24
ag25
ag26
ag27
ag28
ag29
asg30
g9
sg31
S'+'
sg32
(i__main__
Node
p34
(dp35
g11
(lp36
S'+'
aS'-'
aS'*'
aS'/'
asg13
Nsg20
(lp37
g22
ag23
ag24
ag25
ag26
ag27
ag28
ag29
asg30
g14
sg31
g25
sg32
Nsbsbsg20
(lp38
g22
ag23
ag24
ag25
ag26
ag27
ag28
ag29
asg30
Nsg31
S'+'
sg32
(i__main__
Node
p39
(dp40
g11
(lp41
S'+'
aS'-'
aS'*'
aS'/'
asg13
Nsg20
(lp42
g22
ag23
ag24
ag25
ag26
ag27
ag28
ag29
asg30
g9
sg31
g26
sg32
NsbsbsS'accel_x'
p43
F0
sS'accel_y'
p44
F0
sS'maxAccel'
p45
I2
sS'maxVel'
p46
F0.5
sS'age'
p47
I0
sS'gener'
p48
S'm'
sS'lastScale'
p49
F5.5
sS'energy'
p50
F0.5
sb.(i__main__
Data_mobile
p1
(dp2
S'vel_y'
p3
I0
sS'vel_x'
p4
I0
sS'pos_x'
p5
I-9579
sS'pos_y'
p6
I9779
sS'isAlive'
p7
I00
sS'geno'
p8
(i__main__
Node
p9
(dp10
S'node'
p11
(lp12
S'+'
aS'-'
aS'*'
aS'/'
asS'right'
p13
(i__main__
Node
p14
(dp15
g11
(lp16
S'+'
aS'-'
aS'*'
aS'/'
asg13
(i__main__
Node
p17
(dp18
g11
(lp19
S'+'
aS'-'
aS'*'
aS'/'
asg13
(i__main__
Node
p20
(dp21
g11
(lp22
S'+'
aS'-'
aS'*'
aS'/'
asg13
NsS'leaf'
p23
(lp24
S'indiv.alignment()'
p25
aS'indiv.cohesion()'
p26
aS'indiv.separation()'
p27
aS'indiv.target()'
p28
aS'indiv.flee()'
p29
aS'indiv.currentVelocity()'
p30
aS'indiv.mostEnergizedNeighbor()'
p31
aS'indiv.randV()'
p32
asS'parent'
p33
g17
sS'data'
p34
g26
sS'left'
p35
Nsbsg23
(lp36
g25
ag26
ag27
ag28
ag29
ag30
ag31
ag32
asg33
g14
sg34
S'-'
sg35
(i__main__
Node
p37
(dp38
g11
(lp39
S'+'
aS'-'
aS'*'
aS'/'
asg13
Nsg23
(lp40
g25
ag26
ag27
ag28
ag29
ag30
ag31
ag32
asg33
g17
sg34
g25
sg35
Nsbsbsg23
(lp41
g25
ag26
ag27
ag28
ag29
ag30
ag31
ag32
asg33
g9
sg34
S'/'
sg35
(i__main__
Node
p42
(dp43
g11
(lp44
S'+'
aS'-'
aS'*'
aS'/'
asg13
(i__main__
Node
p45
(dp46
g11
(lp47
S'+'
aS'-'
aS'*'
aS'/'
asg13
Nsg23
(lp48
g25
ag26
ag27
ag28
ag29
ag30
ag31
ag32
asg33
g42
sg34
g26
sg35
Nsbsg23
(lp49
g25
ag26
ag27
ag28
ag29
ag30
ag31
ag32
asg33
g14
sg34
S'/'
sg35
(i__main__
Node
p50
(dp51
g11
(lp52
S'+'
aS'-'
aS'*'
aS'/'
asg13
Nsg23
(lp53
g25
ag26
ag27
ag28
ag29
ag30
ag31
ag32
asg33
g42
sg34
g29
sg35
Nsbsbsbsg23
(lp54
g25
ag26
ag27
ag28
ag29
ag30
ag31
ag32
asg33
Nsg34
S'+'
sg35
(i__main__
Node
p55
(dp56
g11
(lp57
S'+'
aS'-'
aS'*'
aS'/'
asg13
Nsg23
(lp58
g25
ag26
ag27
ag28
ag29
ag30
ag31
ag32
asg33
g9
sg34
g29
sg35
NsbsbsS'accel_x'
p59
F0
sS'accel_y'
p60
F0
sS'maxAccel'
p61
I2
sS'maxVel'
p62
F0.5
sS'age'
p63
I0
sS'gener'
p64
S'm'
sS'lastScale'
p65
F5.5
sS'energy'
p66
F0.5
sb.(i__main__
Data_mobile
p1
(dp2
S'vel_y'
p3
I0
sS'vel_x'
p4
I0
sS'pos_x'
p5
I-9579
sS'pos_y'
p6
I9779
sS'isAlive'
p7
I00
sS'geno'
p8
(i__main__
Node
p9
(dp10
S'node'
p11
(lp12
S'+'
aS'-'
aS'*'
aS'/'
asS'right'
p13
(i__main__
Node
p14
(dp15
g11
(lp16
S'+'
aS'-'
aS'*'
aS'/'
asg13
(i__main__
Node
p17
(dp18
g11
(lp19
S'+'
aS'-'
aS'*'
aS'/'
asg13
NsS'leaf'
p20
(lp21
S'indiv.alignment()'
p22
aS'indiv.cohesion()'
p23
aS'indiv.separation()'
p24
aS'indiv.target()'
p25
aS'indiv.flee()'
p26
aS'indiv.currentVelocity()'
p27
aS'indiv.mostEnergizedNeighbor()'
p28
aS'indiv.randV()'
p29
asS'parent'
p30
g14
sS'data'
p31
g22
sS'left'
p32
Nsbsg20
(lp33
g22
ag23
ag24
ag25
ag26
ag27
ag28
ag29
asg30
g9
sg31
S'+'
sg32
(i__main__
Node
p34
(dp35
g11
(lp36
S'+'
aS'-'
aS'*'
aS'/'
asg13
Nsg20
(lp37
g22
ag23
ag24
ag25
ag26
ag27
ag28
ag29
asg30
g14
sg31
g25
sg32
Nsbsbsg20
(lp38
g22
ag23
ag24
ag25
ag26
ag27
ag28
ag29
asg30
Nsg31
S'+'
sg32
(i__main__
Node
p39
(dp40
g11
(lp41
S'+'
aS'-'
aS'*'
aS'/'
asg13
Nsg20
(lp42
g22
ag23
ag24
ag25
ag26
ag27
ag28
ag29
asg30
g9
sg31
g26
sg32
NsbsbsS'accel_x'
p43
F0
sS'accel_y'
p44
F0
sS'maxAccel'
p45
I2
sS'maxVel'
p46
F0.5
sS'age'
p47
I0
sS'gener'
p48
S'm'
sS'lastScale'
p49
F5.5
sS'energy'
p50
F0.5
sb.(i__main__
Data_mobile
p1
(dp2
S'vel_y'
p3
I0
sS'vel_x'
p4
I0
sS'pos_x'
p5
I-9579
sS'pos_y'
p6
I9779
sS'isAlive'
p7
I00
sS'geno'
p8
(i__main__
Node
p9
(dp10
S'node'
p11
(lp12
S'+'
aS'-'
aS'*'
aS'/'
asS'right'
p13
(i__main__
Node
p14
(dp15
g11
(lp16
S'+'
aS'-'
aS'*'
aS'/'
asg13
(i__main__
Node
p17
(dp18
g11
(lp19
S'+'
aS'-'
aS'*'
aS'/'
asg13
NsS'leaf'
p20
(lp21
S'indiv.alignment()'
p22
aS'indiv.cohesion()'
p23
aS'indiv.separation()'
p24
aS'indiv.target()'
p25
aS'indiv.flee()'
p26
aS'indiv.currentVelocity()'
p27
aS'indiv.mostEnergizedNeighbor()'
p28
aS'indiv.randV()'
p29
asS'parent'
p30
g14
sS'data'
p31
g22
sS'left'
p32
Nsbsg20
(lp33
g22
ag23
ag24
ag25
ag26
ag27
ag28
ag29
asg30
g9
sg31
S'+'
sg32
(i__main__
Node
p34
(dp35
g11
(lp36
S'+'
aS'-'
aS'*'
aS'/'
asg13
Nsg20
(lp37
g22
ag23
ag24
ag25
ag26
ag27
ag28
ag29
asg30
g14
sg31
g25
sg32
Nsbsbsg20
(lp38
g22
ag23
ag24
ag25
ag26
ag27
ag28
ag29
asg30
Nsg31
S'+'
sg32
(i__main__
Node
p39
(dp40
g11
(lp41
S'+'
aS'-'
aS'*'
aS'/'
asg13
Nsg20
(lp42
g22
ag23
ag24
ag25
ag26
ag27
ag28
ag29
asg30
g9
sg31
g26
sg32
NsbsbsS'accel_x'
p43
F0
sS'accel_y'
p44
F0
sS'maxAccel'
p45
I2
sS'maxVel'
p46
F0.5
sS'age'
p47
I0
sS'gener'
p48
S'm'
sS'lastScale'
p49
F5.5
sS'energy'
p50
F0.5
sb.(i__main__
Data_mobile
p1
(dp2
S'vel_y'
p3
I0
sS'vel_x'
p4
I0
sS'pos_x'
p5
I-9579
sS'pos_y'
p6
I9779
sS'isAlive'
p7
I00
sS'geno'
p8
(i__main__
Node
p9
(dp10
S'node'
p11
(lp12
S'+'
aS'-'
aS'*'
aS'/'
asS'right'
p13
(i__main__
Node
p14
(dp15
g11
(lp16
S'+'
aS'-'
aS'*'
aS'/'
asg13
(i__main__
Node
p17
(dp18
g11
(lp19
S'+'
aS'-'
aS'*'
aS'/'
asg13
NsS'leaf'
p20
(lp21
S'indiv.alignment()'
p22
aS'indiv.cohesion()'
p23
aS'indiv.separation()'
p24
aS'indiv.target()'
p25
aS'indiv.flee()'
p26
aS'indiv.currentVelocity()'
p27
aS'indiv.mostEnergizedNeighbor()'
p28
aS'indiv.randV()'
p29
asS'parent'
p30
g14
sS'data'
p31
g22
sS'left'
p32
Nsbsg20
(lp33
g22
ag23
ag24
ag25
ag26
ag27
ag28
ag29
asg30
g9
sg31
S'+'
sg32
(i__main__
Node
p34
(dp35
g11
(lp36
S'+'
aS'-'
aS'*'
aS'/'
asg13
Nsg20
(lp37
g22
ag23
ag24
ag25
ag26
ag27
ag28
ag29
asg30
g14
sg31
g25
sg32
Nsbsbsg20
(lp38
g22
ag23
ag24
ag25
ag26
ag27
ag28
ag29
asg30
Nsg31
S'+'
sg32
(i__main__
Node
p39
(dp40
g11
(lp41
S'+'
aS'-'
aS'*'
aS'/'
asg13
Nsg20
(lp42
g22
ag23
ag24
ag25
ag26
ag27
ag28
ag29
asg30
g9
sg31
g26
sg32
NsbsbsS'accel_x'
p43
F0
sS'accel_y'
p44
F0
sS'maxAccel'
p45
I2
sS'maxVel'
p46
F0.5
sS'age'
p47
I0
sS'gener'
p48
S'm'
sS'lastScale'
p49
F5.5
sS'energy'
p50
F0.5
sb.(i__main__
Data_mobile
p1
(dp2
S'vel_y'
p3
I0
sS'vel_x'
p4
I0
sS'pos_x'
p5
I-9579
sS'pos_y'
p6
I9779
sS'isAlive'
p7
I00
sS'geno'
p8
(i__main__
Node
p9
(dp10
S'node'
p11
(lp12
S'+'
aS'-'
aS'*'
aS'/'
asS'right'
p13
(i__main__
Node
p14
(dp15
g11
(lp16
S'+'
aS'-'
aS'*'
aS'/'
asg13
(i__main__
Node
p17
(dp18
g11
(lp19
S'+'
aS'-'
aS'*'
aS'/'
asg13
NsS'leaf'
p20
(lp21
S'indiv.alignment()'
p22
aS'indiv.cohesion()'
p23
aS'indiv.separation()'
p24
aS'indiv.target()'
p25
aS'indiv.flee()'
p26
aS'indiv.currentVelocity()'
p27
aS'indiv.mostEnergizedNeighbor()'
p28
aS'indiv.randV()'
p29
asS'parent'
p30
g14
sS'data'
p31
g22
sS'left'
p32
Nsbsg20
(lp33
g22
ag23
ag24
ag25
ag26
ag27
ag28
ag29
asg30
g9
sg31
S'+'
sg32
(i__main__
Node
p34
(dp35
g11
(lp36
S'+'
aS'-'
aS'*'
aS'/'
asg13
Nsg20
(lp37
g22
ag23
ag24
ag25
ag26
ag27
ag28
ag29
asg30
g14
sg31
g25
sg32
Nsbsbsg20
(lp38
g22
ag23
ag24
ag25
ag26
ag27
ag28
ag29
asg30
Nsg31
S'+'
sg32
(i__main__
Node
p39
(dp40
g11
(lp41
S'+'
aS'-'
aS'*'
aS'/'
asg13
Nsg20
(lp42
g22
ag23
ag24
ag25
ag26
ag27
ag28
ag29
asg30
g9
sg31
g26
sg32
NsbsbsS'accel_x'
p43
F0
sS'accel_y'
p44
F0
sS'maxAccel'
p45
I2
sS'maxVel'
p46
F0.5
sS'age'
p47
I0
sS'gener'
p48
S'm'
sS'lastScale'
p49
F5.5
sS'energy'
p50
F0.5
sb.(i__main__
Data_mobile
p1
(dp2
S'vel_y'
p3
I0
sS'vel_x'
p4
I0
sS'pos_x'
p5
I-9579
sS'pos_y'
p6
I9779
sS'isAlive'
p7
I00
sS'geno'
p8
(i__main__
Node
p9
(dp10
S'node'
p11
(lp12
S'+'
aS'-'
aS'*'
aS'/'
asS'right'
p13
(i__main__
Node
p14
(dp15
g11
(lp16
S'+'
aS'-'
aS'*'
aS'/'
asg13
(i__main__
Node
p17
(dp18
g11
(lp19
S'+'
aS'-'
aS'*'
aS'/'
asg13
NsS'leaf'
p20
(lp21
S'indiv.alignment()'
p22
aS'indiv.cohesion()'
p23
aS'indiv.separation()'
p24
aS'indiv.target()'
p25
aS'indiv.flee()'
p26
aS'indiv.currentVelocity()'
p27
aS'indiv.mostEnergizedNeighbor()'
p28
aS'indiv.randV()'
p29
asS'parent'
p30
g14
sS'data'
p31
g22
sS'left'
p32
Nsbsg20
(lp33
g22
ag23
ag24
ag25
ag26
ag27
ag28
ag29
asg30
g9
sg31
S'+'
sg32
(i__main__
Node
p34
(dp35
g11
(lp36
S'+'
aS'-'
aS'*'
aS'/'
asg13
Nsg20
(lp37
g22
ag23
ag24
ag25
ag26
ag27
ag28
ag29
asg30
g14
sg31
g25
sg32
Nsbsbsg20
(lp38
g22
ag23
ag24
ag25
ag26
ag27
ag28
ag29
asg30
Nsg31
S'+'
sg32
(i__main__
Node
p39
(dp40
g11
(lp41
S'+'
aS'-'
aS'*'
aS'/'
asg13
Nsg20
(lp42
g22
ag23
ag24
ag25
ag26
ag27
ag28
ag29
asg30
g9
sg31
g26
sg32
NsbsbsS'accel_x'
p43
F0
sS'accel_y'
p44
F0
sS'maxAccel'
p45
I2
sS'maxVel'
p46
F0.5
sS'age'
p47
I0
sS'gener'
p48
S'm'
sS'lastScale'
p49
F5.5
sS'energy'
p50
F0.5
sb.(i__main__
Data_mobile
p1
(dp2
S'vel_y'
p3
I0
sS'vel_x'
p4
I0
sS'pos_x'
p5
I-9579
sS'pos_y'
p6
I9779
sS'isAlive'
p7
I00
sS'geno'
p8
(i__main__
Node
p9
(dp10
S'node'
p11
(lp12
S'+'
aS'-'
aS'*'
aS'/'
asS'right'
p13
(i__main__
Node
p14
(dp15
g11
(lp16
S'+'
aS'-'
aS'*'
aS'/'
asg13
(i__main__
Node
p17
(dp18
g11
(lp19
S'+'
aS'-'
aS'*'
aS'/'
asg13
NsS'leaf'
p20
(lp21
S'indiv.alignment()'
p22
aS'indiv.cohesion()'
p23
aS'indiv.separation()'
p24
aS'indiv.target()'
p25
aS'indiv.flee()'
p26
aS'indiv.currentVelocity()'
p27
aS'indiv.mostEnergizedNeighbor()'
p28
aS'indiv.randV()'
p29
asS'parent'
p30
g14
sS'data'
p31
g22
sS'left'
p32
Nsbsg20
(lp33
g22
ag23
ag24
ag25
ag26
ag27
ag28
ag29
asg30
g9
sg31
S'+'
sg32
(i__main__
Node
p34
(dp35
g11
(lp36
S'+'
aS'-'
aS'*'
aS'/'
asg13
Nsg20
(lp37
g22
ag23
ag24
ag25
ag26
ag27
ag28
ag29
asg30
g14
sg31
g25
sg32
Nsbsbsg20
(lp38
g22
ag23
ag24
ag25
ag26
ag27
ag28
ag29
asg30
Nsg31
S'+'
sg32
(i__main__
Node
p39
(dp40
g11
(lp41
S'+'
aS'-'
aS'*'
aS'/'
asg13
Nsg20
(lp42
g22
ag23
ag24
ag25
ag26
ag27
ag28
ag29
asg30
g9
sg31
g26
sg32
NsbsbsS'accel_x'
p43
F0
sS'accel_y'
p44
F0
sS'maxAccel'
p45
I2
sS'maxVel'
p46
F0.5
sS'age'
p47
I0
sS'gener'
p48
S'm'
sS'lastScale'
p49
F5.5
sS'energy'
p50
F0.5
sb.(i__main__
Data_mobile
p1
(dp2
S'vel_y'
p3
I0
sS'vel_x'
p4
I0
sS'pos_x'
p5
I-9579
sS'pos_y'
p6
I9779
sS'isAlive'
p7
I00
sS'geno'
p8
(i__main__
Node
p9
(dp10
S'node'
p11
(lp12
S'+'
aS'-'
aS'*'
aS'/'
asS'right'
p13
(i__main__
Node
p14
(dp15
g11
(lp16
S'+'
aS'-'
aS'*'
aS'/'
asg13
(i__main__
Node
p17
(dp18
g11
(lp19
S'+'
aS'-'
aS'*'
aS'/'
asg13
NsS'leaf'
p20
(lp21
S'indiv.alignment()'
p22
aS'indiv.cohesion()'
p23
aS'indiv.separation()'
p24
aS'indiv.target()'
p25
aS'indiv.flee()'
p26
aS'indiv.currentVelocity()'
p27
aS'indiv.mostEnergizedNeighbor()'
p28
aS'indiv.randV()'
p29
asS'parent'
p30
g14
sS'data'
p31
g27
sS'left'
p32
Nsbsg20
(lp33
g22
ag23
ag24
ag25
ag26
ag27
ag28
ag29
asg30
g9
sg31
S'-'
sg32
(i__main__
Node
p34
(dp35
g11
(lp36
S'+'
aS'-'
aS'*'
aS'/'
asg13
Nsg20
(lp37
g22
ag23
ag24
ag25
ag26
ag27
ag28
ag29
asg30
g14
sg31
g22
sg32
Nsbsbsg20
(lp38
g22
ag23
ag24
ag25
ag26
ag27
ag28
ag29
asg30
Nsg31
S'+'
sg32
(i__main__
Node
p39
(dp40
g11
(lp41
S'+'
aS'-'
aS'*'
aS'/'
asg13
Nsg20
(lp42
g22
ag23
ag24
ag25
ag26
ag27
ag28
ag29
asg30
g9
sg31
g26
sg32
NsbsbsS'accel_x'
p43
F0
sS'accel_y'
p44
F0
sS'maxAccel'
p45
I2
sS'maxVel'
p46
F0.5
sS'age'
p47
I0
sS'gener'
p48
S'm'
sS'lastScale'
p49
F5.5
sS'energy'
p50
F0.5
sb.(i__main__
Data_mobile
p1
(dp2
S'vel_y'
p3
I0
sS'vel_x'
p4
I0
sS'pos_x'
p5
I-9579
sS'pos_y'
p6
I9779
sS'isAlive'
p7
I00
sS'geno'
p8
(i__main__
Node
p9
(dp10
S'node'
p11
(lp12
S'+'
aS'-'
aS'*'
aS'/'
asS'right'
p13
(i__main__
Node
p14
(dp15
g11
(lp16
S'+'
aS'-'
aS'*'
aS'/'
asg13
(i__main__
Node
p17
(dp18
g11
(lp19
S'+'
aS'-'
aS'*'
aS'/'
asg13
NsS'leaf'
p20
(lp21
S'indiv.alignment()'
p22
aS'indiv.cohesion()'
p23
aS'indiv.separation()'
p24
aS'indiv.target()'
p25
aS'indiv.flee()'
p26
aS'indiv.currentVelocity()'
p27
aS'indiv.mostEnergizedNeighbor()'
p28
aS'indiv.randV()'
p29
asS'parent'
p30
g14
sS'data'
p31
g22
sS'left'
p32
Nsbsg20
(lp33
g22
ag23
ag24
ag25
ag26
ag27
ag28
ag29
asg30
g9
sg31
S'+'
sg32
(i__main__
Node
p34
(dp35
g11
(lp36
S'+'
aS'-'
aS'*'
aS'/'
asg13
Nsg20
(lp37
g22
ag23
ag24
ag25
ag26
ag27
ag28
ag29
asg30
g14
sg31
g25
sg32
Nsbsbsg20
(lp38
g22
ag23
ag24
ag25
ag26
ag27
ag28
ag29
asg30
Nsg31
S'+'
sg32
(i__main__
Node
p39
(dp40
g11
(lp41
S'+'
aS'-'
aS'*'
aS'/'
asg13
Nsg20
(lp42
g22
ag23
ag24
ag25
ag26
ag27
ag28
ag29
asg30
g9
sg31
g26
sg32
NsbsbsS'accel_x'
p43
F0
sS'accel_y'
p44
F0
sS'maxAccel'
p45
I2
sS'maxVel'
p46
F0.5
sS'age'
p47
I0
sS'gener'
p48
S'm'
sS'lastScale'
p49
F5.5
sS'energy'
p50
F0.5
sb.(i__main__
Data_mobile
p1
(dp2
S'vel_y'
p3
I0
sS'vel_x'
p4
I0
sS'pos_x'
p5
I-9579
sS'pos_y'
p6
I9779
sS'isAlive'
p7
I00
sS'geno'
p8
(i__main__
Node
p9
(dp10
S'node'
p11
(lp12
S'+'
aS'-'
aS'*'
aS'/'
asS'right'
p13
(i__main__
Node
p14
(dp15
g11
(lp16
S'+'
aS'-'
aS'*'
aS'/'
asg13
(i__main__
Node
p17
(dp18
g11
(lp19
S'+'
aS'-'
aS'*'
aS'/'
asg13
NsS'leaf'
p20
(lp21
S'indiv.alignment()'
p22
aS'indiv.cohesion()'
p23
aS'indiv.separation()'
p24
aS'indiv.target()'
p25
aS'indiv.flee()'
p26
aS'indiv.currentVelocity()'
p27
aS'indiv.mostEnergizedNeighbor()'
p28
aS'indiv.randV()'
p29
asS'parent'
p30
g14
sS'data'
p31
g22
sS'left'
p32
Nsbsg20
(lp33
g22
ag23
ag24
ag25
ag26
ag27
ag28
ag29
asg30
g9
sg31
S'+'
sg32
(i__main__
Node
p34
(dp35
g11
(lp36
S'+'
aS'-'
aS'*'
aS'/'
asg13
Nsg20
(lp37
g22
ag23
ag24
ag25
ag26
ag27
ag28
ag29
asg30
g14
sg31
g25
sg32
Nsbsbsg20
(lp38
g22
ag23
ag24
ag25
ag26
ag27
ag28
ag29
asg30
Nsg31
S'+'
sg32
(i__main__
Node
p39
(dp40
g11
(lp41
S'+'
aS'-'
aS'*'
aS'/'
asg13
Nsg20
(lp42
g22
ag23
ag24
ag25
ag26
ag27
ag28
ag29
asg30
g9
sg31
g26
sg32
NsbsbsS'accel_x'
p43
F0
sS'accel_y'
p44
F0
sS'maxAccel'
p45
I2
sS'maxVel'
p46
F0.5
sS'age'
p47
I0
sS'gener'
p48
S'm'
sS'lastScale'
p49
F5.5
sS'energy'
p50
F0.5
sb.(i__main__
Data_mobile
p1
(dp2
S'vel_y'
p3
I0
sS'vel_x'
p4
I0
sS'pos_x'
p5
I-9579
sS'pos_y'
p6
I9779
sS'isAlive'
p7
I00
sS'geno'
p8
(i__main__
Node
p9
(dp10
S'node'
p11
(lp12
S'+'
aS'-'
aS'*'
aS'/'
asS'right'
p13
(i__main__
Node
p14
(dp15
g11
(lp16
S'+'
aS'-'
aS'*'
aS'/'
asg13
(i__main__
Node
p17
(dp18
g11
(lp19
S'+'
aS'-'
aS'*'
aS'/'
asg13
NsS'leaf'
p20
(lp21
S'indiv.alignment()'
p22
aS'indiv.cohesion()'
p23
aS'indiv.separation()'
p24
aS'indiv.target()'
p25
aS'indiv.flee()'
p26
aS'indiv.currentVelocity()'
p27
aS'indiv.mostEnergizedNeighbor()'
p28
aS'indiv.randV()'
p29
asS'parent'
p30
g14
sS'data'
p31
g22
sS'left'
p32
Nsbsg20
(lp33
g22
ag23
ag24
ag25
ag26
ag27
ag28
ag29
asg30
g9
sg31
S'+'
sg32
(i__main__
Node
p34
(dp35
g11
(lp36
S'+'
aS'-'
aS'*'
aS'/'
asg13
Nsg20
(lp37
g22
ag23
ag24
ag25
ag26
ag27
ag28
ag29
asg30
g14
sg31
g25
sg32
Nsbsbsg20
(lp38
g22
ag23
ag24
ag25
ag26
ag27
ag28
ag29
asg30
Nsg31
S'+'
sg32
(i__main__
Node
p39
(dp40
g11
(lp41
S'+'
aS'-'
aS'*'
aS'/'
asg13
Nsg20
(lp42
g22
ag23
ag24
ag25
ag26
ag27
ag28
ag29
asg30
g9
sg31
g26
sg32
NsbsbsS'accel_x'
p43
F0
sS'accel_y'
p44
F0
sS'maxAccel'
p45
I2
sS'maxVel'
p46
F0.5
sS'age'
p47
I0
sS'gener'
p48
S'm'
sS'lastScale'
p49
F5.5
sS'energy'
p50
F0.5
sb.(i__main__
Data_mobile
p1
(dp2
S'vel_y'
p3
I0
sS'vel_x'
p4
I0
sS'pos_x'
p5
I-9579
sS'pos_y'
p6
I9779
sS'isAlive'
p7
I00
sS'geno'
p8
(i__main__
Node
p9
(dp10
S'node'
p11
(lp12
S'+'
aS'-'
aS'*'
aS'/'
asS'right'
p13
(i__main__
Node
p14
(dp15
g11
(lp16
S'+'
aS'-'
aS'*'
aS'/'
asg13
(i__main__
Node
p17
(dp18
g11
(lp19
S'+'
aS'-'
aS'*'
aS'/'
asg13
NsS'leaf'
p20
(lp21
S'indiv.alignment()'
p22
aS'indiv.cohesion()'
p23
aS'indiv.separation()'
p24
aS'indiv.target()'
p25
aS'indiv.flee()'
p26
aS'indiv.currentVelocity()'
p27
aS'indiv.mostEnergizedNeighbor()'
p28
aS'indiv.randV()'
p29
asS'parent'
p30
g14
sS'data'
p31
g22
sS'left'
p32
Nsbsg20
(lp33
g22
ag23
ag24
ag25
ag26
ag27
ag28
ag29
asg30
g9
sg31
S'+'
sg32
(i__main__
Node
p34
(dp35
g11
(lp36
S'+'
aS'-'
aS'*'
aS'/'
asg13
Nsg20
(lp37
g22
ag23
ag24
ag25
ag26
ag27
ag28
ag29
asg30
g14
sg31
g25
sg32
Nsbsbsg20
(lp38
g22
ag23
ag24
ag25
ag26
ag27
ag28
ag29
asg30
Nsg31
S'+'
sg32
(i__main__
Node
p39
(dp40
g11
(lp41
S'+'
aS'-'
aS'*'
aS'/'
asg13
Nsg20
(lp42
g22
ag23
ag24
ag25
ag26
ag27
ag28
ag29
asg30
g9
sg31
g26
sg32
NsbsbsS'accel_x'
p43
F0
sS'accel_y'
p44
F0
sS'maxAccel'
p45
I2
sS'maxVel'
p46
F0.5
sS'age'
p47
I0
sS'gener'
p48
S'm'
sS'lastScale'
p49
F5.5
sS'energy'
p50
F0.5
sb.(i__main__
Data_mobile
p1
(dp2
S'vel_y'
p3
I0
sS'vel_x'
p4
I0
sS'pos_x'
p5
I-9579
sS'pos_y'
p6
I9779
sS'isAlive'
p7
I00
sS'geno'
p8
(i__main__
Node
p9
(dp10
S'node'
p11
(lp12
S'+'
aS'-'
aS'*'
aS'/'
asS'right'
p13
(i__main__
Node
p14
(dp15
g11
(lp16
S'+'
aS'-'
aS'*'
aS'/'
asg13
(i__main__
Node
p17
(dp18
g11
(lp19
S'+'
aS'-'
aS'*'
aS'/'
asg13
(i__main__
Node
p20
(dp21
g11
(lp22
S'+'
aS'-'
aS'*'
aS'/'
asg13
NsS'leaf'
p23
(lp24
S'indiv.alignment()'
p25
aS'indiv.cohesion()'
p26
aS'indiv.separation()'
p27
aS'indiv.target()'
p28
aS'indiv.flee()'
p29
aS'indiv.currentVelocity()'
p30
aS'indiv.mostEnergizedNeighbor()'
p31
aS'indiv.randV()'
p32
asS'parent'
p33
g17
sS'data'
p34
g26
sS'left'
p35
Nsbsg23
(lp36
g25
ag26
ag27
ag28
ag29
ag30
ag31
ag32
asg33
g14
sg34
S'*'
sg35
(i__main__
Node
p37
(dp38
g11
(lp39
S'+'
aS'-'
aS'*'
aS'/'
asg13
Nsg23
(lp40
g25
ag26
ag27
ag28
ag29
ag30
ag31
ag32
asg33
g17
sg34
g29
sg35
Nsbsbsg23
(lp41
g25
ag26
ag27
ag28
ag29
ag30
ag31
ag32
asg33
g9
sg34
S'-'
sg35
(i__main__
Node
p42
(dp43
g11
(lp44
S'+'
aS'-'
aS'*'
aS'/'
asg13
(i__main__
Node
p45
(dp46
g11
(lp47
S'+'
aS'-'
aS'*'
aS'/'
asg13
Nsg23
(lp48
g25
ag26
ag27
ag28
ag29
ag30
ag31
ag32
asg33
g42
sg34
g32
sg35
Nsbsg23
(lp49
g25
ag26
ag27
ag28
ag29
ag30
ag31
ag32
asg33
g14
sg34
S'/'
sg35
(i__main__
Node
p50
(dp51
g11
(lp52
S'+'
aS'-'
aS'*'
aS'/'
asg13
Nsg23
(lp53
g25
ag26
ag27
ag28
ag29
ag30
ag31
ag32
asg33
g42
sg34
g25
sg35
Nsbsbsbsg23
(lp54
g25
ag26
ag27
ag28
ag29
ag30
ag31
ag32
asg33
Nsg34
S'+'
sg35
(i__main__
Node
p55
(dp56
g11
(lp57
S'+'
aS'-'
aS'*'
aS'/'
asg13
Nsg23
(lp58
g25
ag26
ag27
ag28
ag29
ag30
ag31
ag32
asg33
g9
sg34
g29
sg35
NsbsbsS'accel_x'
p59
F0
sS'accel_y'
p60
F0
sS'maxAccel'
p61
I2
sS'maxVel'
p62
F0.5
sS'age'
p63
I0
sS'gener'
p64
S'm'
sS'lastScale'
p65
F5.5
sS'energy'
p66
F0.5
sb.(i__main__
Data_mobile
p1
(dp2
S'vel_y'
p3
I0
sS'vel_x'
p4
I0
sS'pos_x'
p5
I-9579
sS'pos_y'
p6
I9779
sS'isAlive'
p7
I00
sS'geno'
p8
(i__main__
Node
p9
(dp10
S'node'
p11
(lp12
S'+'
aS'-'
aS'*'
aS'/'
asS'right'
p13
(i__main__
Node
p14
(dp15
g11
(lp16
S'+'
aS'-'
aS'*'
aS'/'
asg13
(i__main__
Node
p17
(dp18
g11
(lp19
S'+'
aS'-'
aS'*'
aS'/'
asg13
NsS'leaf'
p20
(lp21
S'indiv.alignment()'
p22
aS'indiv.cohesion()'
p23
aS'indiv.separation()'
p24
aS'indiv.target()'
p25
aS'indiv.flee()'
p26
aS'indiv.currentVelocity()'
p27
aS'indiv.mostEnergizedNeighbor()'
p28
aS'indiv.randV()'
p29
asS'parent'
p30
g14
sS'data'
p31
g22
sS'left'
p32
Nsbsg20
(lp33
g22
ag23
ag24
ag25
ag26
ag27
ag28
ag29
asg30
g9
sg31
S'+'
sg32
(i__main__
Node
p34
(dp35
g11
(lp36
S'+'
aS'-'
aS'*'
aS'/'
asg13
Nsg20
(lp37
g22
ag23
ag24
ag25
ag26
ag27
ag28
ag29
asg30
g14
sg31
g25
sg32
Nsbsbsg20
(lp38
g22
ag23
ag24
ag25
ag26
ag27
ag28
ag29
asg30
Nsg31
S'+'
sg32
(i__main__
Node
p39
(dp40
g11
(lp41
S'+'
aS'-'
aS'*'
aS'/'
asg13
Nsg20
(lp42
g22
ag23
ag24
ag25
ag26
ag27
ag28
ag29
asg30
g9
sg31
g26
sg32
NsbsbsS'accel_x'
p43
F0
sS'accel_y'
p44
F0
sS'maxAccel'
p45
I2
sS'maxVel'
p46
F0.5
sS'age'
p47
I0
sS'gener'
p48
S'm'
sS'lastScale'
p49
F5.5
sS'energy'
p50
F0.5
sb.(i__main__
Data_mobile
p1
(dp2
S'vel_y'
p3
I0
sS'vel_x'
p4
I0
sS'pos_x'
p5
I-9579
sS'pos_y'
p6
I9779
sS'isAlive'
p7
I00
sS'geno'
p8
(i__main__
Node
p9
(dp10
S'node'
p11
(lp12
S'+'
aS'-'
aS'*'
aS'/'
asS'right'
p13
(i__main__
Node
p14
(dp15
g11
(lp16
S'+'
aS'-'
aS'*'
aS'/'
asg13
(i__main__
Node
p17
(dp18
g11
(lp19
S'+'
aS'-'
aS'*'
aS'/'
asg13
NsS'leaf'
p20
(lp21
S'indiv.alignment()'
p22
aS'indiv.cohesion()'
p23
aS'indiv.separation()'
p24
aS'indiv.target()'
p25
aS'indiv.flee()'
p26
aS'indiv.currentVelocity()'
p27
aS'indiv.mostEnergizedNeighbor()'
p28
aS'indiv.randV()'
p29
asS'parent'
p30
g14
sS'data'
p31
g22
sS'left'
p32
Nsbsg20
(lp33
g22
ag23
ag24
ag25
ag26
ag27
ag28
ag29
asg30
g9
sg31
S'+'
sg32
(i__main__
Node
p34
(dp35
g11
(lp36
S'+'
aS'-'
aS'*'
aS'/'
asg13
Nsg20
(lp37
g22
ag23
ag24
ag25
ag26
ag27
ag28
ag29
asg30
g14
sg31
g25
sg32
Nsbsbsg20
(lp38
g22
ag23
ag24
ag25
ag26
ag27
ag28
ag29
asg30
Nsg31
S'+'
sg32
(i__main__
Node
p39
(dp40
g11
(lp41
S'+'
aS'-'
aS'*'
aS'/'
asg13
(i__main__
Node
p42
(dp43
g11
(lp44
S'+'
aS'-'
aS'*'
aS'/'
asg13
Nsg20
(lp45
g22
ag23
ag24
ag25
ag26
ag27
ag28
ag29
asg30
g39
sg31
g22
sg32
Nsbsg20
(lp46
g22
ag23
ag24
ag25
ag26
ag27
ag28
ag29
asg30
g9
sg31
S'+'
sg32
(i__main__
Node
p47
(dp48
g11
(lp49
S'+'
aS'-'
aS'*'
aS'/'
asg13
Nsg20
(lp50
g22
ag23
ag24
ag25
ag26
ag27
ag28
ag29
asg30
g39
sg31
g25
sg32
NsbsbsbsS'accel_x'
p51
F0
sS'accel_y'
p52
F0
sS'maxAccel'
p53
I2
sS'maxVel'
p54
F0.5
sS'age'
p55
I0
sS'gener'
p56
S'm'
sS'lastScale'
p57
F5.5
sS'energy'
p58
F0.5
sb.(i__main__
Data_mobile
p1
(dp2
S'vel_y'
p3
I0
sS'vel_x'
p4
I0
sS'pos_x'
p5
I-9579
sS'pos_y'
p6
I9779
sS'isAlive'
p7
I00
sS'geno'
p8
(i__main__
Node
p9
(dp10
S'node'
p11
(lp12
S'+'
aS'-'
aS'*'
aS'/'
asS'right'
p13
(i__main__
Node
p14
(dp15
g11
(lp16
S'+'
aS'-'
aS'*'
aS'/'
asg13
(i__main__
Node
p17
(dp18
g11
(lp19
S'+'
aS'-'
aS'*'
aS'/'
asg13
NsS'leaf'
p20
(lp21
S'indiv.alignment()'
p22
aS'indiv.cohesion()'
p23
aS'indiv.separation()'
p24
aS'indiv.target()'
p25
aS'indiv.flee()'
p26
aS'indiv.currentVelocity()'
p27
aS'indiv.mostEnergizedNeighbor()'
p28
aS'indiv.randV()'
p29
asS'parent'
p30
g14
sS'data'
p31
g22
sS'left'
p32
Nsbsg20
(lp33
g22
ag23
ag24
ag25
ag26
ag27
ag28
ag29
asg30
g9
sg31
S'+'
sg32
(i__main__
Node
p34
(dp35
g11
(lp36
S'+'
aS'-'
aS'*'
aS'/'
asg13
Nsg20
(lp37
g22
ag23
ag24
ag25
ag26
ag27
ag28
ag29
asg30
g14
sg31
g25
sg32
Nsbsbsg20
(lp38
g22
ag23
ag24
ag25
ag26
ag27
ag28
ag29
asg30
Nsg31
S'+'
sg32
(i__main__
Node
p39
(dp40
g11
(lp41
S'+'
aS'-'
aS'*'
aS'/'
asg13
Nsg20
(lp42
g22
ag23
ag24
ag25
ag26
ag27
ag28
ag29
asg30
g9
sg31
g26
sg32
NsbsbsS'accel_x'
p43
F0
sS'accel_y'
p44
F0
sS'maxAccel'
p45
I2
sS'maxVel'
p46
F0.5
sS'age'
p47
I0
sS'gener'
p48
S'm'
sS'lastScale'
p49
F5.5
sS'energy'
p50
F0.5
sb.(i__main__
Data_mobile
p1
(dp2
S'vel_y'
p3
I0
sS'vel_x'
p4
I0
sS'pos_x'
p5
I-9579
sS'pos_y'
p6
I9779
sS'isAlive'
p7
I00
sS'geno'
p8
(i__main__
Node
p9
(dp10
S'node'
p11
(lp12
S'+'
aS'-'
aS'*'
aS'/'
asS'right'
p13
(i__main__
Node
p14
(dp15
g11
(lp16
S'+'
aS'-'
aS'*'
aS'/'
asg13
(i__main__
Node
p17
(dp18
g11
(lp19
S'+'
aS'-'
aS'*'
aS'/'
asg13
(i__main__
Node
p20
(dp21
g11
(lp22
S'+'
aS'-'
aS'*'
aS'/'
asg13
(i__main__
Node
p23
(dp24
g11
(lp25
S'+'
aS'-'
aS'*'
aS'/'
asg13
NsS'leaf'
p26
(lp27
S'indiv.alignment()'
p28
aS'indiv.cohesion()'
p29
aS'indiv.separation()'
p30
aS'indiv.target()'
p31
aS'indiv.flee()'
p32
aS'indiv.currentVelocity()'
p33
aS'indiv.mostEnergizedNeighbor()'
p34
aS'indiv.randV()'
p35
asS'parent'
p36
g20
sS'data'
p37
g31
sS'left'
p38
Nsbsg26
(lp39
g28
ag29
ag30
ag31
ag32
ag33
ag34
ag35
asg36
g17
sg37
S'*'
sg38
(i__main__
Node
p40
(dp41
g11
(lp42
S'+'
aS'-'
aS'*'
aS'/'
asg13
Nsg26
(lp43
g28
ag29
ag30
ag31
ag32
ag33
ag34
ag35
asg36
g20
sg37
g33
sg38
Nsbsbsg26
(lp44
g28
ag29
ag30
ag31
ag32
ag33
ag34
ag35
asg36
g14
sg37
S'*'
sg38
(i__main__
Node
p45
(dp46
g11
(lp47
S'+'
aS'-'
aS'*'
aS'/'
asg13
(i__main__
Node
p48
(dp49
g11
(lp50
S'+'
aS'-'
aS'*'
aS'/'
asg13
Nsg26
(lp51
g28
ag29
ag30
ag31
ag32
ag33
ag34
ag35
asg36
g45
sg37
g32
sg38
Nsbsg26
(lp52
g28
ag29
ag30
ag31
ag32
ag33
ag34
ag35
asg36
g17
sg37
S'+'
sg38
(i__main__
Node
p53
(dp54
g11
(lp55
S'+'
aS'-'
aS'*'
aS'/'
asg13
Nsg26
(lp56
g28
ag29
ag30
ag31
ag32
ag33
ag34
ag35
asg36
g45
sg37
g31
sg38
Nsbsbsbsg26
(lp57
g28
ag29
ag30
ag31
ag32
ag33
ag34
ag35
asg36
g9
sg37
S'*'
sg38
(i__main__
Node
p58
(dp59
g11
(lp60
S'+'
aS'-'
aS'*'
aS'/'
asg13
(i__main__
Node
p61
(dp62
g11
(lp63
S'+'
aS'-'
aS'*'
aS'/'
asg13
(i__main__
Node
p64
(dp65
g11
(lp66
S'+'
aS'-'
aS'*'
aS'/'
asg13
Nsg26
(lp67
g28
ag29
ag30
ag31
ag32
ag33
ag34
ag35
asg36
g61
sg37
g33
sg38
Nsbsg26
(lp68
g28
ag29
ag30
ag31
ag32
ag33
ag34
ag35
asg36
g58
sg37
S'+'
sg38
(i__main__
Node
p69
(dp70
g11
(lp71
S'+'
aS'-'
aS'*'
aS'/'
asg13
Nsg26
(lp72
g28
ag29
ag30
ag31
ag32
ag33
ag34
ag35
asg36
g61
sg37
g30
sg38
Nsbsbsg26
(lp73
g28
ag29
ag30
ag31
ag32
ag33
ag34
ag35
asg36
g14
sg37
S'/'
sg38
(i__main__
Node
p74
(dp75
g11
(lp76
S'+'
aS'-'
aS'*'
aS'/'
asg13
(i__main__
Node
p77
(dp78
g11
(lp79
S'+'
aS'-'
aS'*'
aS'/'
asg13
Nsg26
(lp80
g28
ag29
ag30
ag31
ag32
ag33
ag34
ag35
asg36
g74
sg37
g28
sg38
Nsbsg26
(lp81
g28
ag29
ag30
ag31
ag32
ag33
ag34
ag35
asg36
g58
sg37
S'+'
sg38
(i__main__
Node
p82
(dp83
g11
(lp84
S'+'
aS'-'
aS'*'
aS'/'
asg13
Nsg26
(lp85
g28
ag29
ag30
ag31
ag32
ag33
ag34
ag35
asg36
g74
sg37
g28
sg38
Nsbsbsbsbsg26
(lp86
g28
ag29
ag30
ag31
ag32
ag33
ag34
ag35
asg36
Nsg37
S'+'
sg38
(i__main__
Node
p87
(dp88
g11
(lp89
S'+'
aS'-'
aS'*'
aS'/'
asg13
Nsg26
(lp90
g28
ag29
ag30
ag31
ag32
ag33
ag34
ag35
asg36
g9
sg37
g32
sg38
NsbsbsS'accel_x'
p91
F0
sS'accel_y'
p92
F0
sS'maxAccel'
p93
I2
sS'maxVel'
p94
F0.5
sS'age'
p95
I0
sS'gener'
p96
S'm'
sS'lastScale'
p97
F5.5
sS'energy'
p98
F0.5
sb.(i__main__
Data_mobile
p1
(dp2
S'vel_y'
p3
I0
sS'vel_x'
p4
I0
sS'pos_x'
p5
I-9579
sS'pos_y'
p6
I9779
sS'isAlive'
p7
I00
sS'geno'
p8
(i__main__
Node
p9
(dp10
S'node'
p11
(lp12
S'+'
aS'-'
aS'*'
aS'/'
asS'right'
p13
(i__main__
Node
p14
(dp15
g11
(lp16
S'+'
aS'-'
aS'*'
aS'/'
asg13
(i__main__
Node
p17
(dp18
g11
(lp19
S'+'
aS'-'
aS'*'
aS'/'
asg13
NsS'leaf'
p20
(lp21
S'indiv.alignment()'
p22
aS'indiv.cohesion()'
p23
aS'indiv.separation()'
p24
aS'indiv.target()'
p25
aS'indiv.flee()'
p26
aS'indiv.currentVelocity()'
p27
aS'indiv.mostEnergizedNeighbor()'
p28
aS'indiv.randV()'
p29
asS'parent'
p30
g14
sS'data'
p31
g22
sS'left'
p32
Nsbsg20
(lp33
g22
ag23
ag24
ag25
ag26
ag27
ag28
ag29
asg30
g9
sg31
S'+'
sg32
(i__main__
Node
p34
(dp35
g11
(lp36
S'+'
aS'-'
aS'*'
aS'/'
asg13
Nsg20
(lp37
g22
ag23
ag24
ag25
ag26
ag27
ag28
ag29
asg30
g14
sg31
g25
sg32
Nsbsbsg20
(lp38
g22
ag23
ag24
ag25
ag26
ag27
ag28
ag29
asg30
Nsg31
S'+'
sg32
(i__main__
Node
p39
(dp40
g11
(lp41
S'+'
aS'-'
aS'*'
aS'/'
asg13
(i__main__
Node
p42
(dp43
g11
(lp44
S'+'
aS'-'
aS'*'
aS'/'
asg13
Nsg20
(lp45
g22
ag23
ag24
ag25
ag26
ag27
ag28
ag29
asg30
g39
sg31
g22
sg32
Nsbsg20
(lp46
g22
ag23
ag24
ag25
ag26
ag27
ag28
ag29
asg30
g9
sg31
S'+'
sg32
(i__main__
Node
p47
(dp48
g11
(lp49
S'+'
aS'-'
aS'*'
aS'/'
asg13
Nsg20
(lp50
g22
ag23
ag24
ag25
ag26
ag27
ag28
ag29
asg30
g39
sg31
g25
sg32
NsbsbsbsS'accel_x'
p51
F0
sS'accel_y'
p52
F0
sS'maxAccel'
p53
I2
sS'maxVel'
p54
F0.5
sS'age'
p55
I0
sS'gener'
p56
S'm'
sS'lastScale'
p57
F5.5
sS'energy'
p58
F0.5
sb.(i__main__
Data_mobile
p1
(dp2
S'vel_y'
p3
I0
sS'vel_x'
p4
I0
sS'pos_x'
p5
I-9579
sS'pos_y'
p6
I9779
sS'isAlive'
p7
I00
sS'geno'
p8
(i__main__
Node
p9
(dp10
S'node'
p11
(lp12
S'+'
aS'-'
aS'*'
aS'/'
asS'right'
p13
(i__main__
Node
p14
(dp15
g11
(lp16
S'+'
aS'-'
aS'*'
aS'/'
asg13
(i__main__
Node
p17
(dp18
g11
(lp19
S'+'
aS'-'
aS'*'
aS'/'
asg13
NsS'leaf'
p20
(lp21
S'indiv.alignment()'
p22
aS'indiv.cohesion()'
p23
aS'indiv.separation()'
p24
aS'indiv.target()'
p25
aS'indiv.flee()'
p26
aS'indiv.currentVelocity()'
p27
aS'indiv.mostEnergizedNeighbor()'
p28
aS'indiv.randV()'
p29
asS'parent'
p30
g14
sS'data'
p31
g22
sS'left'
p32
Nsbsg20
(lp33
g22
ag23
ag24
ag25
ag26
ag27
ag28
ag29
asg30
g9
sg31
S'+'
sg32
(i__main__
Node
p34
(dp35
g11
(lp36
S'+'
aS'-'
aS'*'
aS'/'
asg13
Nsg20
(lp37
g22
ag23
ag24
ag25
ag26
ag27
ag28
ag29
asg30
g14
sg31
g25
sg32
Nsbsbsg20
(lp38
g22
ag23
ag24
ag25
ag26
ag27
ag28
ag29
asg30
Nsg31
S'+'
sg32
(i__main__
Node
p39
(dp40
g11
(lp41
S'+'
aS'-'
aS'*'
aS'/'
asg13
Nsg20
(lp42
g22
ag23
ag24
ag25
ag26
ag27
ag28
ag29
asg30
g9
sg31
g26
sg32
NsbsbsS'accel_x'
p43
F0
sS'accel_y'
p44
F0
sS'maxAccel'
p45
I2
sS'maxVel'
p46
F0.5
sS'age'
p47
I0
sS'gener'
p48
S'm'
sS'lastScale'
p49
F5.5
sS'energy'
p50
F0.5
sb.(i__main__
Data_mobile
p1
(dp2
S'vel_y'
p3
I0
sS'vel_x'
p4
I0
sS'pos_x'
p5
I-9579
sS'pos_y'
p6
I9779
sS'isAlive'
p7
I00
sS'geno'
p8
(i__main__
Node
p9
(dp10
S'node'
p11
(lp12
S'+'
aS'-'
aS'*'
aS'/'
asS'right'
p13
(i__main__
Node
p14
(dp15
g11
(lp16
S'+'
aS'-'
aS'*'
aS'/'
asg13
(i__main__
Node
p17
(dp18
g11
(lp19
S'+'
aS'-'
aS'*'
aS'/'
asg13
NsS'leaf'
p20
(lp21
S'indiv.alignment()'
p22
aS'indiv.cohesion()'
p23
aS'indiv.separation()'
p24
aS'indiv.target()'
p25
aS'indiv.flee()'
p26
aS'indiv.currentVelocity()'
p27
aS'indiv.mostEnergizedNeighbor()'
p28
aS'indiv.randV()'
p29
asS'parent'
p30
g14
sS'data'
p31
g22
sS'left'
p32
Nsbsg20
(lp33
g22
ag23
ag24
ag25
ag26
ag27
ag28
ag29
asg30
g9
sg31
S'+'
sg32
(i__main__
Node
p34
(dp35
g11
(lp36
S'+'
aS'-'
aS'*'
aS'/'
asg13
Nsg20
(lp37
g22
ag23
ag24
ag25
ag26
ag27
ag28
ag29
asg30
g14
sg31
g25
sg32
Nsbsbsg20
(lp38
g22
ag23
ag24
ag25
ag26
ag27
ag28
ag29
asg30
Nsg31
S'+'
sg32
(i__main__
Node
p39
(dp40
g11
(lp41
S'+'
aS'-'
aS'*'
aS'/'
asg13
Nsg20
(lp42
g22
ag23
ag24
ag25
ag26
ag27
ag28
ag29
asg30
g9
sg31
g26
sg32
NsbsbsS'accel_x'
p43
F0
sS'accel_y'
p44
F0
sS'maxAccel'
p45
I2
sS'maxVel'
p46
F0.5
sS'age'
p47
I0
sS'gener'
p48
S'm'
sS'lastScale'
p49
F5.5
sS'energy'
p50
F0.5
sb.(i__main__
Data_mobile
p1
(dp2
S'vel_y'
p3
I0
sS'vel_x'
p4
I0
sS'pos_x'
p5
I-9579
sS'pos_y'
p6
I9779
sS'isAlive'
p7
I00
sS'geno'
p8
(i__main__
Node
p9
(dp10
S'node'
p11
(lp12
S'+'
aS'-'
aS'*'
aS'/'
asS'right'
p13
(i__main__
Node
p14
(dp15
g11
(lp16
S'+'
aS'-'
aS'*'
aS'/'
asg13
(i__main__
Node
p17
(dp18
g11
(lp19
S'+'
aS'-'
aS'*'
aS'/'
asg13
NsS'leaf'
p20
(lp21
S'indiv.alignment()'
p22
aS'indiv.cohesion()'
p23
aS'indiv.separation()'
p24
aS'indiv.target()'
p25
aS'indiv.flee()'
p26
aS'indiv.currentVelocity()'
p27
aS'indiv.mostEnergizedNeighbor()'
p28
aS'indiv.randV()'
p29
asS'parent'
p30
g14
sS'data'
p31
g22
sS'left'
p32
Nsbsg20
(lp33
g22
ag23
ag24
ag25
ag26
ag27
ag28
ag29
asg30
g9
sg31
S'+'
sg32
(i__main__
Node
p34
(dp35
g11
(lp36
S'+'
aS'-'
aS'*'
aS'/'
asg13
Nsg20
(lp37
g22
ag23
ag24
ag25
ag26
ag27
ag28
ag29
asg30
g14
sg31
g25
sg32
Nsbsbsg20
(lp38
g22
ag23
ag24
ag25
ag26
ag27
ag28
ag29
asg30
Nsg31
S'+'
sg32
(i__main__
Node
p39
(dp40
g11
(lp41
S'+'
aS'-'
aS'*'
aS'/'
asg13
Nsg20
(lp42
g22
ag23
ag24
ag25
ag26
ag27
ag28
ag29
asg30
g9
sg31
g26
sg32
NsbsbsS'accel_x'
p43
F0
sS'accel_y'
p44
F0
sS'maxAccel'
p45
I2
sS'maxVel'
p46
F0.5
sS'age'
p47
I0
sS'gener'
p48
S'm'
sS'lastScale'
p49
F5.5
sS'energy'
p50
F0.5
sb.(i__main__
Data_mobile
p1
(dp2
S'vel_y'
p3
I0
sS'vel_x'
p4
I0
sS'pos_x'
p5
I-9579
sS'pos_y'
p6
I9779
sS'isAlive'
p7
I00
sS'geno'
p8
(i__main__
Node
p9
(dp10
S'node'
p11
(lp12
S'+'
aS'-'
aS'*'
aS'/'
asS'right'
p13
(i__main__
Node
p14
(dp15
g11
(lp16
S'+'
aS'-'
aS'*'
aS'/'
asg13
(i__main__
Node
p17
(dp18
g11
(lp19
S'+'
aS'-'
aS'*'
aS'/'
asg13
NsS'leaf'
p20
(lp21
S'indiv.alignment()'
p22
aS'indiv.cohesion()'
p23
aS'indiv.separation()'
p24
aS'indiv.target()'
p25
aS'indiv.flee()'
p26
aS'indiv.currentVelocity()'
p27
aS'indiv.mostEnergizedNeighbor()'
p28
aS'indiv.randV()'
p29
asS'parent'
p30
g14
sS'data'
p31
g22
sS'left'
p32
Nsbsg20
(lp33
g22
ag23
ag24
ag25
ag26
ag27
ag28
ag29
asg30
g9
sg31
S'+'
sg32
(i__main__
Node
p34
(dp35
g11
(lp36
S'+'
aS'-'
aS'*'
aS'/'
asg13
Nsg20
(lp37
g22
ag23
ag24
ag25
ag26
ag27
ag28
ag29
asg30
g14
sg31
g25
sg32
Nsbsbsg20
(lp38
g22
ag23
ag24
ag25
ag26
ag27
ag28
ag29
asg30
Nsg31
S'+'
sg32
(i__main__
Node
p39
(dp40
g11
(lp41
S'+'
aS'-'
aS'*'
aS'/'
asg13
Nsg20
(lp42
g22
ag23
ag24
ag25
ag26
ag27
ag28
ag29
asg30
g9
sg31
g26
sg32
NsbsbsS'accel_x'
p43
F0
sS'accel_y'
p44
F0
sS'maxAccel'
p45
I2
sS'maxVel'
p46
F0.5
sS'age'
p47
I0
sS'gener'
p48
S'm'
sS'lastScale'
p49
F5.5
sS'energy'
p50
F0.5
sb.(i__main__
Data_mobile
p1
(dp2
S'vel_y'
p3
I0
sS'vel_x'
p4
I0
sS'pos_x'
p5
I-9579
sS'pos_y'
p6
I9779
sS'isAlive'
p7
I00
sS'geno'
p8
(i__main__
Node
p9
(dp10
S'node'
p11
(lp12
S'+'
aS'-'
aS'*'
aS'/'
asS'right'
p13
(i__main__
Node
p14
(dp15
g11
(lp16
S'+'
aS'-'
aS'*'
aS'/'
asg13
(i__main__
Node
p17
(dp18
g11
(lp19
S'+'
aS'-'
aS'*'
aS'/'
asg13
NsS'leaf'
p20
(lp21
S'indiv.alignment()'
p22
aS'indiv.cohesion()'
p23
aS'indiv.separation()'
p24
aS'indiv.target()'
p25
aS'indiv.flee()'
p26
aS'indiv.currentVelocity()'
p27
aS'indiv.mostEnergizedNeighbor()'
p28
aS'indiv.randV()'
p29
asS'parent'
p30
g14
sS'data'
p31
g22
sS'left'
p32
Nsbsg20
(lp33
g22
ag23
ag24
ag25
ag26
ag27
ag28
ag29
asg30
g9
sg31
S'+'
sg32
(i__main__
Node
p34
(dp35
g11
(lp36
S'+'
aS'-'
aS'*'
aS'/'
asg13
Nsg20
(lp37
g22
ag23
ag24
ag25
ag26
ag27
ag28
ag29
asg30
g14
sg31
g25
sg32
Nsbsbsg20
(lp38
g22
ag23
ag24
ag25
ag26
ag27
ag28
ag29
asg30
Nsg31
S'+'
sg32
(i__main__
Node
p39
(dp40
g11
(lp41
S'+'
aS'-'
aS'*'
aS'/'
asg13
Nsg20
(lp42
g22
ag23
ag24
ag25
ag26
ag27
ag28
ag29
asg30
g9
sg31
g26
sg32
NsbsbsS'accel_x'
p43
F0
sS'accel_y'
p44
F0
sS'maxAccel'
p45
I2
sS'maxVel'
p46
F0.5
sS'age'
p47
I0
sS'gener'
p48
S'm'
sS'lastScale'
p49
F5.5
sS'energy'
p50
F0.5
sb.(i__main__
Data_mobile
p1
(dp2
S'vel_y'
p3
I0
sS'vel_x'
p4
I0
sS'pos_x'
p5
I-9579
sS'pos_y'
p6
I9779
sS'isAlive'
p7
I00
sS'geno'
p8
(i__main__
Node
p9
(dp10
S'node'
p11
(lp12
S'+'
aS'-'
aS'*'
aS'/'
asS'right'
p13
(i__main__
Node
p14
(dp15
g11
(lp16
S'+'
aS'-'
aS'*'
aS'/'
asg13
(i__main__
Node
p17
(dp18
g11
(lp19
S'+'
aS'-'
aS'*'
aS'/'
asg13
NsS'leaf'
p20
(lp21
S'indiv.alignment()'
p22
aS'indiv.cohesion()'
p23
aS'indiv.separation()'
p24
aS'indiv.target()'
p25
aS'indiv.flee()'
p26
aS'indiv.currentVelocity()'
p27
aS'indiv.mostEnergizedNeighbor()'
p28
aS'indiv.randV()'
p29
asS'parent'
p30
g14
sS'data'
p31
g22
sS'left'
p32
Nsbsg20
(lp33
g22
ag23
ag24
ag25
ag26
ag27
ag28
ag29
asg30
g9
sg31
S'+'
sg32
(i__main__
Node
p34
(dp35
g11
(lp36
S'+'
aS'-'
aS'*'
aS'/'
asg13
Nsg20
(lp37
g22
ag23
ag24
ag25
ag26
ag27
ag28
ag29
asg30
g14
sg31
g25
sg32
Nsbsbsg20
(lp38
g22
ag23
ag24
ag25
ag26
ag27
ag28
ag29
asg30
Nsg31
S'+'
sg32
(i__main__
Node
p39
(dp40
g11
(lp41
S'+'
aS'-'
aS'*'
aS'/'
asg13
Nsg20
(lp42
g22
ag23
ag24
ag25
ag26
ag27
ag28
ag29
asg30
g9
sg31
g26
sg32
NsbsbsS'accel_x'
p43
F0
sS'accel_y'
p44
F0
sS'maxAccel'
p45
I2
sS'maxVel'
p46
F0.5
sS'age'
p47
I0
sS'gener'
p48
S'm'
sS'lastScale'
p49
F5.5
sS'energy'
p50
F0.5
sb.(i__main__
Data_mobile
p1
(dp2
S'vel_y'
p3
I0
sS'vel_x'
p4
I0
sS'pos_x'
p5
I-9579
sS'pos_y'
p6
I9779
sS'isAlive'
p7
I00
sS'geno'
p8
(i__main__
Node
p9
(dp10
S'node'
p11
(lp12
S'+'
aS'-'
aS'*'
aS'/'
asS'right'
p13
(i__main__
Node
p14
(dp15
g11
(lp16
S'+'
aS'-'
aS'*'
aS'/'
asg13
(i__main__
Node
p17
(dp18
g11
(lp19
S'+'
aS'-'
aS'*'
aS'/'
asg13
NsS'leaf'
p20
(lp21
S'indiv.alignment()'
p22
aS'indiv.cohesion()'
p23
aS'indiv.separation()'
p24
aS'indiv.target()'
p25
aS'indiv.flee()'
p26
aS'indiv.currentVelocity()'
p27
aS'indiv.mostEnergizedNeighbor()'
p28
aS'indiv.randV()'
p29
asS'parent'
p30
g14
sS'data'
p31
g22
sS'left'
p32
Nsbsg20
(lp33
g22
ag23
ag24
ag25
ag26
ag27
ag28
ag29
asg30
g9
sg31
S'+'
sg32
(i__main__
Node
p34
(dp35
g11
(lp36
S'+'
aS'-'
aS'*'
aS'/'
asg13
Nsg20
(lp37
g22
ag23
ag24
ag25
ag26
ag27
ag28
ag29
asg30
g14
sg31
g25
sg32
Nsbsbsg20
(lp38
g22
ag23
ag24
ag25
ag26
ag27
ag28
ag29
asg30
Nsg31
S'+'
sg32
(i__main__
Node
p39
(dp40
g11
(lp41
S'+'
aS'-'
aS'*'
aS'/'
asg13
Nsg20
(lp42
g22
ag23
ag24
ag25
ag26
ag27
ag28
ag29
asg30
g9
sg31
g26
sg32
NsbsbsS'accel_x'
p43
F0
sS'accel_y'
p44
F0
sS'maxAccel'
p45
I2
sS'maxVel'
p46
F0.5
sS'age'
p47
I0
sS'gener'
p48
S'm'
sS'lastScale'
p49
F5.5
sS'energy'
p50
F0.5
sb.(i__main__
Data_mobile
p1
(dp2
S'vel_y'
p3
I0
sS'vel_x'
p4
I0
sS'pos_x'
p5
I-9579
sS'pos_y'
p6
I9779
sS'isAlive'
p7
I00
sS'geno'
p8
(i__main__
Node
p9
(dp10
S'node'
p11
(lp12
S'+'
aS'-'
aS'*'
aS'/'
asS'right'
p13
(i__main__
Node
p14
(dp15
g11
(lp16
S'+'
aS'-'
aS'*'
aS'/'
asg13
(i__main__
Node
p17
(dp18
g11
(lp19
S'+'
aS'-'
aS'*'
aS'/'
asg13
NsS'leaf'
p20
(lp21
S'indiv.alignment()'
p22
aS'indiv.cohesion()'
p23
aS'indiv.separation()'
p24
aS'indiv.target()'
p25
aS'indiv.flee()'
p26
aS'indiv.currentVelocity()'
p27
aS'indiv.mostEnergizedNeighbor()'
p28
aS'indiv.randV()'
p29
asS'parent'
p30
g14
sS'data'
p31
g22
sS'left'
p32
Nsbsg20
(lp33
g22
ag23
ag24
ag25
ag26
ag27
ag28
ag29
asg30
g9
sg31
S'+'
sg32
(i__main__
Node
p34
(dp35
g11
(lp36
S'+'
aS'-'
aS'*'
aS'/'
asg13
Nsg20
(lp37
g22
ag23
ag24
ag25
ag26
ag27
ag28
ag29
asg30
g14
sg31
g25
sg32
Nsbsbsg20
(lp38
g22
ag23
ag24
ag25
ag26
ag27
ag28
ag29
asg30
Nsg31
S'+'
sg32
(i__main__
Node
p39
(dp40
g11
(lp41
S'+'
aS'-'
aS'*'
aS'/'
asg13
(i__main__
Node
p42
(dp43
g11
(lp44
S'+'
aS'-'
aS'*'
aS'/'
asg13
Nsg20
(lp45
g22
ag23
ag24
ag25
ag26
ag27
ag28
ag29
asg30
g39
sg31
g22
sg32
Nsbsg20
(lp46
g22
ag23
ag24
ag25
ag26
ag27
ag28
ag29
asg30
g9
sg31
S'+'
sg32
(i__main__
Node
p47
(dp48
g11
(lp49
S'+'
aS'-'
aS'*'
aS'/'
asg13
Nsg20
(lp50
g22
ag23
ag24
ag25
ag26
ag27
ag28
ag29
asg30
g39
sg31
g25
sg32
NsbsbsbsS'accel_x'
p51
F0
sS'accel_y'
p52
F0
sS'maxAccel'
p53
I2
sS'maxVel'
p54
F0.5
sS'age'
p55
I0
sS'gener'
p56
S'm'
sS'lastScale'
p57
F5.5
sS'energy'
p58
F0.5
sb.(i__main__
Data_mobile
p1
(dp2
S'vel_y'
p3
I0
sS'vel_x'
p4
I0
sS'pos_x'
p5
I-9579
sS'pos_y'
p6
I9779
sS'isAlive'
p7
I00
sS'geno'
p8
(i__main__
Node
p9
(dp10
S'node'
p11
(lp12
S'+'
aS'-'
aS'*'
aS'/'
asS'right'
p13
(i__main__
Node
p14
(dp15
g11
(lp16
S'+'
aS'-'
aS'*'
aS'/'
asg13
(i__main__
Node
p17
(dp18
g11
(lp19
S'+'
aS'-'
aS'*'
aS'/'
asg13
NsS'leaf'
p20
(lp21
S'indiv.alignment()'
p22
aS'indiv.cohesion()'
p23
aS'indiv.separation()'
p24
aS'indiv.target()'
p25
aS'indiv.flee()'
p26
aS'indiv.currentVelocity()'
p27
aS'indiv.mostEnergizedNeighbor()'
p28
aS'indiv.randV()'
p29
asS'parent'
p30
g14
sS'data'
p31
g22
sS'left'
p32
Nsbsg20
(lp33
g22
ag23
ag24
ag25
ag26
ag27
ag28
ag29
asg30
g9
sg31
S'+'
sg32
(i__main__
Node
p34
(dp35
g11
(lp36
S'+'
aS'-'
aS'*'
aS'/'
asg13
Nsg20
(lp37
g22
ag23
ag24
ag25
ag26
ag27
ag28
ag29
asg30
g14
sg31
g25
sg32
Nsbsbsg20
(lp38
g22
ag23
ag24
ag25
ag26
ag27
ag28
ag29
asg30
Nsg31
S'+'
sg32
(i__main__
Node
p39
(dp40
g11
(lp41
S'+'
aS'-'
aS'*'
aS'/'
asg13
Nsg20
(lp42
g22
ag23
ag24
ag25
ag26
ag27
ag28
ag29
asg30
g9
sg31
g26
sg32
NsbsbsS'accel_x'
p43
F0
sS'accel_y'
p44
F0
sS'maxAccel'
p45
I2
sS'maxVel'
p46
F0.5
sS'age'
p47
I0
sS'gener'
p48
S'm'
sS'lastScale'
p49
F5.5
sS'energy'
p50
F0.5
sb.(i__main__
Data_mobile
p1
(dp2
S'vel_y'
p3
I0
sS'vel_x'
p4
I0
sS'pos_x'
p5
I-9579
sS'pos_y'
p6
I9779
sS'isAlive'
p7
I00
sS'geno'
p8
(i__main__
Node
p9
(dp10
S'node'
p11
(lp12
S'+'
aS'-'
aS'*'
aS'/'
asS'right'
p13
(i__main__
Node
p14
(dp15
g11
(lp16
S'+'
aS'-'
aS'*'
aS'/'
asg13
(i__main__
Node
p17
(dp18
g11
(lp19
S'+'
aS'-'
aS'*'
aS'/'
asg13
NsS'leaf'
p20
(lp21
S'indiv.alignment()'
p22
aS'indiv.cohesion()'
p23
aS'indiv.separation()'
p24
aS'indiv.target()'
p25
aS'indiv.flee()'
p26
aS'indiv.currentVelocity()'
p27
aS'indiv.mostEnergizedNeighbor()'
p28
aS'indiv.randV()'
p29
asS'parent'
p30
g14
sS'data'
p31
g22
sS'left'
p32
Nsbsg20
(lp33
g22
ag23
ag24
ag25
ag26
ag27
ag28
ag29
asg30
g9
sg31
S'+'
sg32
(i__main__
Node
p34
(dp35
g11
(lp36
S'+'
aS'-'
aS'*'
aS'/'
asg13
Nsg20
(lp37
g22
ag23
ag24
ag25
ag26
ag27
ag28
ag29
asg30
g14
sg31
g25
sg32
Nsbsbsg20
(lp38
g22
ag23
ag24
ag25
ag26
ag27
ag28
ag29
asg30
Nsg31
S'+'
sg32
(i__main__
Node
p39
(dp40
g11
(lp41
S'+'
aS'-'
aS'*'
aS'/'
asg13
Nsg20
(lp42
g22
ag23
ag24
ag25
ag26
ag27
ag28
ag29
asg30
g9
sg31
g26
sg32
NsbsbsS'accel_x'
p43
F0
sS'accel_y'
p44
F0
sS'maxAccel'
p45
I2
sS'maxVel'
p46
F0.5
sS'age'
p47
I0
sS'gener'
p48
S'm'
sS'lastScale'
p49
F5.5
sS'energy'
p50
F0.5
sb.(i__main__
Data_mobile
p1
(dp2
S'vel_y'
p3
I0
sS'vel_x'
p4
I0
sS'pos_x'
p5
I-9579
sS'pos_y'
p6
I9779
sS'isAlive'
p7
I00
sS'geno'
p8
(i__main__
Node
p9
(dp10
S'node'
p11
(lp12
S'+'
aS'-'
aS'*'
aS'/'
asS'right'
p13
(i__main__
Node
p14
(dp15
g11
(lp16
S'+'
aS'-'
aS'*'
aS'/'
asg13
(i__main__
Node
p17
(dp18
g11
(lp19
S'+'
aS'-'
aS'*'
aS'/'
asg13
NsS'leaf'
p20
(lp21
S'indiv.alignment()'
p22
aS'indiv.cohesion()'
p23
aS'indiv.separation()'
p24
aS'indiv.target()'
p25
aS'indiv.flee()'
p26
aS'indiv.currentVelocity()'
p27
aS'indiv.mostEnergizedNeighbor()'
p28
aS'indiv.randV()'
p29
asS'parent'
p30
g14
sS'data'
p31
g22
sS'left'
p32
Nsbsg20
(lp33
g22
ag23
ag24
ag25
ag26
ag27
ag28
ag29
asg30
g9
sg31
S'+'
sg32
(i__main__
Node
p34
(dp35
g11
(lp36
S'+'
aS'-'
aS'*'
aS'/'
asg13
Nsg20
(lp37
g22
ag23
ag24
ag25
ag26
ag27
ag28
ag29
asg30
g14
sg31
g25
sg32
Nsbsbsg20
(lp38
g22
ag23
ag24
ag25
ag26
ag27
ag28
ag29
asg30
Nsg31
S'+'
sg32
(i__main__
Node
p39
(dp40
g11
(lp41
S'+'
aS'-'
aS'*'
aS'/'
asg13
Nsg20
(lp42
g22
ag23
ag24
ag25
ag26
ag27
ag28
ag29
asg30
g9
sg31
g26
sg32
NsbsbsS'accel_x'
p43
F0
sS'accel_y'
p44
F0
sS'maxAccel'
p45
I2
sS'maxVel'
p46
F0.5
sS'age'
p47
I0
sS'gener'
p48
S'm'
sS'lastScale'
p49
F5.5
sS'energy'
p50
F0.5
sb.(i__main__
Data_mobile
p1
(dp2
S'vel_y'
p3
I0
sS'vel_x'
p4
I0
sS'pos_x'
p5
I-9579
sS'pos_y'
p6
I9779
sS'isAlive'
p7
I00
sS'geno'
p8
(i__main__
Node
p9
(dp10
S'node'
p11
(lp12
S'+'
aS'-'
aS'*'
aS'/'
asS'right'
p13
(i__main__
Node
p14
(dp15
g11
(lp16
S'+'
aS'-'
aS'*'
aS'/'
asg13
(i__main__
Node
p17
(dp18
g11
(lp19
S'+'
aS'-'
aS'*'
aS'/'
asg13
NsS'leaf'
p20
(lp21
S'indiv.alignment()'
p22
aS'indiv.cohesion()'
p23
aS'indiv.separation()'
p24
aS'indiv.target()'
p25
aS'indiv.flee()'
p26
aS'indiv.currentVelocity()'
p27
aS'indiv.mostEnergizedNeighbor()'
p28
aS'indiv.randV()'
p29
asS'parent'
p30
g14
sS'data'
p31
g22
sS'left'
p32
Nsbsg20
(lp33
g22
ag23
ag24
ag25
ag26
ag27
ag28
ag29
asg30
g9
sg31
S'+'
sg32
(i__main__
Node
p34
(dp35
g11
(lp36
S'+'
aS'-'
aS'*'
aS'/'
asg13
Nsg20
(lp37
g22
ag23
ag24
ag25
ag26
ag27
ag28
ag29
asg30
g14
sg31
g25
sg32
Nsbsbsg20
(lp38
g22
ag23
ag24
ag25
ag26
ag27
ag28
ag29
asg30
Nsg31
S'+'
sg32
(i__main__
Node
p39
(dp40
g11
(lp41
S'+'
aS'-'
aS'*'
aS'/'
asg13
Nsg20
(lp42
g22
ag23
ag24
ag25
ag26
ag27
ag28
ag29
asg30
g9
sg31
g26
sg32
NsbsbsS'accel_x'
p43
F0
sS'accel_y'
p44
F0
sS'maxAccel'
p45
I2
sS'maxVel'
p46
F0.5
sS'age'
p47
I0
sS'gener'
p48
S'm'
sS'lastScale'
p49
F5.5
sS'energy'
p50
F0.5
sb.(i__main__
Data_mobile
p1
(dp2
S'vel_y'
p3
I0
sS'vel_x'
p4
I0
sS'pos_x'
p5
I-9579
sS'pos_y'
p6
I9779
sS'isAlive'
p7
I00
sS'geno'
p8
(i__main__
Node
p9
(dp10
S'node'
p11
(lp12
S'+'
aS'-'
aS'*'
aS'/'
asS'right'
p13
(i__main__
Node
p14
(dp15
g11
(lp16
S'+'
aS'-'
aS'*'
aS'/'
asg13
(i__main__
Node
p17
(dp18
g11
(lp19
S'+'
aS'-'
aS'*'
aS'/'
asg13
NsS'leaf'
p20
(lp21
S'indiv.alignment()'
p22
aS'indiv.cohesion()'
p23
aS'indiv.separation()'
p24
aS'indiv.target()'
p25
aS'indiv.flee()'
p26
aS'indiv.currentVelocity()'
p27
aS'indiv.mostEnergizedNeighbor()'
p28
aS'indiv.randV()'
p29
asS'parent'
p30
g14
sS'data'
p31
g22
sS'left'
p32
Nsbsg20
(lp33
g22
ag23
ag24
ag25
ag26
ag27
ag28
ag29
asg30
g9
sg31
S'+'
sg32
(i__main__
Node
p34
(dp35
g11
(lp36
S'+'
aS'-'
aS'*'
aS'/'
asg13
Nsg20
(lp37
g22
ag23
ag24
ag25
ag26
ag27
ag28
ag29
asg30
g14
sg31
g25
sg32
Nsbsbsg20
(lp38
g22
ag23
ag24
ag25
ag26
ag27
ag28
ag29
asg30
Nsg31
S'+'
sg32
(i__main__
Node
p39
(dp40
g11
(lp41
S'+'
aS'-'
aS'*'
aS'/'
asg13
Nsg20
(lp42
g22
ag23
ag24
ag25
ag26
ag27
ag28
ag29
asg30
g9
sg31
g26
sg32
NsbsbsS'accel_x'
p43
F0
sS'accel_y'
p44
F0
sS'maxAccel'
p45
I2
sS'maxVel'
p46
F0.5
sS'age'
p47
I0
sS'gener'
p48
S'm'
sS'lastScale'
p49
F5.5
sS'energy'
p50
F0.5
sb.(i__main__
Data_mobile
p1
(dp2
S'vel_y'
p3
I0
sS'vel_x'
p4
I0
sS'pos_x'
p5
I-9579
sS'pos_y'
p6
I9779
sS'isAlive'
p7
I00
sS'geno'
p8
(i__main__
Node
p9
(dp10
S'node'
p11
(lp12
S'+'
aS'-'
aS'*'
aS'/'
asS'right'
p13
(i__main__
Node
p14
(dp15
g11
(lp16
S'+'
aS'-'
aS'*'
aS'/'
asg13
(i__main__
Node
p17
(dp18
g11
(lp19
S'+'
aS'-'
aS'*'
aS'/'
asg13
NsS'leaf'
p20
(lp21
S'indiv.alignment()'
p22
aS'indiv.cohesion()'
p23
aS'indiv.separation()'
p24
aS'indiv.target()'
p25
aS'indiv.flee()'
p26
aS'indiv.currentVelocity()'
p27
aS'indiv.mostEnergizedNeighbor()'
p28
aS'indiv.randV()'
p29
asS'parent'
p30
g14
sS'data'
p31
g22
sS'left'
p32
Nsbsg20
(lp33
g22
ag23
ag24
ag25
ag26
ag27
ag28
ag29
asg30
g9
sg31
S'+'
sg32
(i__main__
Node
p34
(dp35
g11
(lp36
S'+'
aS'-'
aS'*'
aS'/'
asg13
Nsg20
(lp37
g22
ag23
ag24
ag25
ag26
ag27
ag28
ag29
asg30
g14
sg31
g25
sg32
Nsbsbsg20
(lp38
g22
ag23
ag24
ag25
ag26
ag27
ag28
ag29
asg30
Nsg31
S'+'
sg32
(i__main__
Node
p39
(dp40
g11
(lp41
S'+'
aS'-'
aS'*'
aS'/'
asg13
Nsg20
(lp42
g22
ag23
ag24
ag25
ag26
ag27
ag28
ag29
asg30
g9
sg31
g26
sg32
NsbsbsS'accel_x'
p43
F0
sS'accel_y'
p44
F0
sS'maxAccel'
p45
I2
sS'maxVel'
p46
F0.5
sS'age'
p47
I0
sS'gener'
p48
S'm'
sS'lastScale'
p49
F5.5
sS'energy'
p50
F0.5
sb.(i__main__
Data_mobile
p1
(dp2
S'vel_y'
p3
I0
sS'vel_x'
p4
I0
sS'pos_x'
p5
I-9579
sS'pos_y'
p6
I9779
sS'isAlive'
p7
I00
sS'geno'
p8
(i__main__
Node
p9
(dp10
S'node'
p11
(lp12
S'+'
aS'-'
aS'*'
aS'/'
asS'right'
p13
(i__main__
Node
p14
(dp15
g11
(lp16
S'+'
aS'-'
aS'*'
aS'/'
asg13
(i__main__
Node
p17
(dp18
g11
(lp19
S'+'
aS'-'
aS'*'
aS'/'
asg13
NsS'leaf'
p20
(lp21
S'indiv.alignment()'
p22
aS'indiv.cohesion()'
p23
aS'indiv.separation()'
p24
aS'indiv.target()'
p25
aS'indiv.flee()'
p26
aS'indiv.currentVelocity()'
p27
aS'indiv.mostEnergizedNeighbor()'
p28
aS'indiv.randV()'
p29
asS'parent'
p30
g14
sS'data'
p31
g22
sS'left'
p32
Nsbsg20
(lp33
g22
ag23
ag24
ag25
ag26
ag27
ag28
ag29
asg30
g9
sg31
S'+'
sg32
(i__main__
Node
p34
(dp35
g11
(lp36
S'+'
aS'-'
aS'*'
aS'/'
asg13
Nsg20
(lp37
g22
ag23
ag24
ag25
ag26
ag27
ag28
ag29
asg30
g14
sg31
g25
sg32
Nsbsbsg20
(lp38
g22
ag23
ag24
ag25
ag26
ag27
ag28
ag29
asg30
Nsg31
S'+'
sg32
(i__main__
Node
p39
(dp40
g11
(lp41
S'+'
aS'-'
aS'*'
aS'/'
asg13
Nsg20
(lp42
g22
ag23
ag24
ag25
ag26
ag27
ag28
ag29
asg30
g9
sg31
g26
sg32
NsbsbsS'accel_x'
p43
F0
sS'accel_y'
p44
F0
sS'maxAccel'
p45
I2
sS'maxVel'
p46
F0.5
sS'age'
p47
I0
sS'gener'
p48
S'm'
sS'lastScale'
p49
F5.5
sS'energy'
p50
F0.5
sb.(i__main__
Data_mobile
p1
(dp2
S'vel_y'
p3
I0
sS'vel_x'
p4
I0
sS'pos_x'
p5
I-9579
sS'pos_y'
p6
I9779
sS'isAlive'
p7
I00
sS'geno'
p8
(i__main__
Node
p9
(dp10
S'node'
p11
(lp12
S'+'
aS'-'
aS'*'
aS'/'
asS'right'
p13
(i__main__
Node
p14
(dp15
g11
(lp16
S'+'
aS'-'
aS'*'
aS'/'
asg13
(i__main__
Node
p17
(dp18
g11
(lp19
S'+'
aS'-'
aS'*'
aS'/'
asg13
NsS'leaf'
p20
(lp21
S'indiv.alignment()'
p22
aS'indiv.cohesion()'
p23
aS'indiv.separation()'
p24
aS'indiv.target()'
p25
aS'indiv.flee()'
p26
aS'indiv.currentVelocity()'
p27
aS'indiv.mostEnergizedNeighbor()'
p28
aS'indiv.randV()'
p29
asS'parent'
p30
g14
sS'data'
p31
g22
sS'left'
p32
Nsbsg20
(lp33
g22
ag23
ag24
ag25
ag26
ag27
ag28
ag29
asg30
g9
sg31
S'+'
sg32
(i__main__
Node
p34
(dp35
g11
(lp36
S'+'
aS'-'
aS'*'
aS'/'
asg13
Nsg20
(lp37
g22
ag23
ag24
ag25
ag26
ag27
ag28
ag29
asg30
g14
sg31
g25
sg32
Nsbsbsg20
(lp38
g22
ag23
ag24
ag25
ag26
ag27
ag28
ag29
asg30
Nsg31
S'+'
sg32
(i__main__
Node
p39
(dp40
g11
(lp41
S'+'
aS'-'
aS'*'
aS'/'
asg13
Nsg20
(lp42
g22
ag23
ag24
ag25
ag26
ag27
ag28
ag29
asg30
g9
sg31
g26
sg32
NsbsbsS'accel_x'
p43
F0
sS'accel_y'
p44
F0
sS'maxAccel'
p45
I2
sS'maxVel'
p46
F0.5
sS'age'
p47
I0
sS'gener'
p48
S'm'
sS'lastScale'
p49
F5.5
sS'energy'
p50
F0.5
sb.(i__main__
Data_mobile
p1
(dp2
S'vel_y'
p3
I0
sS'vel_x'
p4
I0
sS'pos_x'
p5
I-9579
sS'pos_y'
p6
I9779
sS'isAlive'
p7
I00
sS'geno'
p8
(i__main__
Node
p9
(dp10
S'node'
p11
(lp12
S'+'
aS'-'
aS'*'
aS'/'
asS'right'
p13
(i__main__
Node
p14
(dp15
g11
(lp16
S'+'
aS'-'
aS'*'
aS'/'
asg13
(i__main__
Node
p17
(dp18
g11
(lp19
S'+'
aS'-'
aS'*'
aS'/'
asg13
NsS'leaf'
p20
(lp21
S'indiv.alignment()'
p22
aS'indiv.cohesion()'
p23
aS'indiv.separation()'
p24
aS'indiv.target()'
p25
aS'indiv.flee()'
p26
aS'indiv.currentVelocity()'
p27
aS'indiv.mostEnergizedNeighbor()'
p28
aS'indiv.randV()'
p29
asS'parent'
p30
g14
sS'data'
p31
g22
sS'left'
p32
Nsbsg20
(lp33
g22
ag23
ag24
ag25
ag26
ag27
ag28
ag29
asg30
g9
sg31
S'+'
sg32
(i__main__
Node
p34
(dp35
g11
(lp36
S'+'
aS'-'
aS'*'
aS'/'
asg13
Nsg20
(lp37
g22
ag23
ag24
ag25
ag26
ag27
ag28
ag29
asg30
g14
sg31
g25
sg32
Nsbsbsg20
(lp38
g22
ag23
ag24
ag25
ag26
ag27
ag28
ag29
asg30
Nsg31
S'+'
sg32
(i__main__
Node
p39
(dp40
g11
(lp41
S'+'
aS'-'
aS'*'
aS'/'
asg13
(i__main__
Node
p42
(dp43
g11
(lp44
S'+'
aS'-'
aS'*'
aS'/'
asg13
Nsg20
(lp45
g22
ag23
ag24
ag25
ag26
ag27
ag28
ag29
asg30
g39
sg31
g22
sg32
Nsbsg20
(lp46
g22
ag23
ag24
ag25
ag26
ag27
ag28
ag29
asg30
g9
sg31
S'+'
sg32
(i__main__
Node
p47
(dp48
g11
(lp49
S'+'
aS'-'
aS'*'
aS'/'
asg13
Nsg20
(lp50
g22
ag23
ag24
ag25
ag26
ag27
ag28
ag29
asg30
g39
sg31
g25
sg32
NsbsbsbsS'accel_x'
p51
F0
sS'accel_y'
p52
F0
sS'maxAccel'
p53
I2
sS'maxVel'
p54
F0.5
sS'age'
p55
I0
sS'gener'
p56
S'm'
sS'lastScale'
p57
F5.5
sS'energy'
p58
F0.5
sb.(i__main__
Data_mobile
p1
(dp2
S'vel_y'
p3
I0
sS'vel_x'
p4
I0
sS'pos_x'
p5
I-9579
sS'pos_y'
p6
I9779
sS'isAlive'
p7
I00
sS'geno'
p8
(i__main__
Node
p9
(dp10
S'node'
p11
(lp12
S'+'
aS'-'
aS'*'
aS'/'
asS'right'
p13
(i__main__
Node
p14
(dp15
g11
(lp16
S'+'
aS'-'
aS'*'
aS'/'
asg13
(i__main__
Node
p17
(dp18
g11
(lp19
S'+'
aS'-'
aS'*'
aS'/'
asg13
NsS'leaf'
p20
(lp21
S'indiv.alignment()'
p22
aS'indiv.cohesion()'
p23
aS'indiv.separation()'
p24
aS'indiv.target()'
p25
aS'indiv.flee()'
p26
aS'indiv.currentVelocity()'
p27
aS'indiv.mostEnergizedNeighbor()'
p28
aS'indiv.randV()'
p29
asS'parent'
p30
g14
sS'data'
p31
g22
sS'left'
p32
Nsbsg20
(lp33
g22
ag23
ag24
ag25
ag26
ag27
ag28
ag29
asg30
g9
sg31
S'+'
sg32
(i__main__
Node
p34
(dp35
g11
(lp36
S'+'
aS'-'
aS'*'
aS'/'
asg13
Nsg20
(lp37
g22
ag23
ag24
ag25
ag26
ag27
ag28
ag29
asg30
g14
sg31
g25
sg32
Nsbsbsg20
(lp38
g22
ag23
ag24
ag25
ag26
ag27
ag28
ag29
asg30
Nsg31
S'+'
sg32
(i__main__
Node
p39
(dp40
g11
(lp41
S'+'
aS'-'
aS'*'
aS'/'
asg13
Nsg20
(lp42
g22
ag23
ag24
ag25
ag26
ag27
ag28
ag29
asg30
g9
sg31
g26
sg32
NsbsbsS'accel_x'
p43
F0
sS'accel_y'
p44
F0
sS'maxAccel'
p45
I2
sS'maxVel'
p46
F0.5
sS'age'
p47
I0
sS'gener'
p48
S'm'
sS'lastScale'
p49
F5.5
sS'energy'
p50
F0.5
sb.(i__main__
Data_mobile
p1
(dp2
S'vel_y'
p3
I0
sS'vel_x'
p4
I0
sS'pos_x'
p5
I-9579
sS'pos_y'
p6
I9779
sS'isAlive'
p7
I00
sS'geno'
p8
(i__main__
Node
p9
(dp10
S'node'
p11
(lp12
S'+'
aS'-'
aS'*'
aS'/'
asS'right'
p13
(i__main__
Node
p14
(dp15
g11
(lp16
S'+'
aS'-'
aS'*'
aS'/'
asg13
(i__main__
Node
p17
(dp18
g11
(lp19
S'+'
aS'-'
aS'*'
aS'/'
asg13
NsS'leaf'
p20
(lp21
S'indiv.alignment()'
p22
aS'indiv.cohesion()'
p23
aS'indiv.separation()'
p24
aS'indiv.target()'
p25
aS'indiv.flee()'
p26
aS'indiv.currentVelocity()'
p27
aS'indiv.mostEnergizedNeighbor()'
p28
aS'indiv.randV()'
p29
asS'parent'
p30
g14
sS'data'
p31
g22
sS'left'
p32
Nsbsg20
(lp33
g22
ag23
ag24
ag25
ag26
ag27
ag28
ag29
asg30
g9
sg31
S'+'
sg32
(i__main__
Node
p34
(dp35
g11
(lp36
S'+'
aS'-'
aS'*'
aS'/'
asg13
Nsg20
(lp37
g22
ag23
ag24
ag25
ag26
ag27
ag28
ag29
asg30
g14
sg31
g25
sg32
Nsbsbsg20
(lp38
g22
ag23
ag24
ag25
ag26
ag27
ag28
ag29
asg30
Nsg31
S'+'
sg32
(i__main__
Node
p39
(dp40
g11
(lp41
S'+'
aS'-'
aS'*'
aS'/'
asg13
Nsg20
(lp42
g22
ag23
ag24
ag25
ag26
ag27
ag28
ag29
asg30
g9
sg31
g26
sg32
NsbsbsS'accel_x'
p43
F0
sS'accel_y'
p44
F0
sS'maxAccel'
p45
I2
sS'maxVel'
p46
F0.5
sS'age'
p47
I0
sS'gener'
p48
S'm'
sS'lastScale'
p49
F5.5
sS'energy'
p50
F0.5
sb.(i__main__
Data_mobile
p1
(dp2
S'vel_y'
p3
I0
sS'vel_x'
p4
I0
sS'pos_x'
p5
I-9579
sS'pos_y'
p6
I9779
sS'isAlive'
p7
I00
sS'geno'
p8
(i__main__
Node
p9
(dp10
S'node'
p11
(lp12
S'+'
aS'-'
aS'*'
aS'/'
asS'right'
p13
(i__main__
Node
p14
(dp15
g11
(lp16
S'+'
aS'-'
aS'*'
aS'/'
asg13
(i__main__
Node
p17
(dp18
g11
(lp19
S'+'
aS'-'
aS'*'
aS'/'
asg13
NsS'leaf'
p20
(lp21
S'indiv.alignment()'
p22
aS'indiv.cohesion()'
p23
aS'indiv.separation()'
p24
aS'indiv.target()'
p25
aS'indiv.flee()'
p26
aS'indiv.currentVelocity()'
p27
aS'indiv.mostEnergizedNeighbor()'
p28
aS'indiv.randV()'
p29
asS'parent'
p30
g14
sS'data'
p31
g22
sS'left'
p32
Nsbsg20
(lp33
g22
ag23
ag24
ag25
ag26
ag27
ag28
ag29
asg30
g9
sg31
S'+'
sg32
(i__main__
Node
p34
(dp35
g11
(lp36
S'+'
aS'-'
aS'*'
aS'/'
asg13
Nsg20
(lp37
g22
ag23
ag24
ag25
ag26
ag27
ag28
ag29
asg30
g14
sg31
g25
sg32
Nsbsbsg20
(lp38
g22
ag23
ag24
ag25
ag26
ag27
ag28
ag29
asg30
Nsg31
S'+'
sg32
(i__main__
Node
p39
(dp40
g11
(lp41
S'+'
aS'-'
aS'*'
aS'/'
asg13
Nsg20
(lp42
g22
ag23
ag24
ag25
ag26
ag27
ag28
ag29
asg30
g9
sg31
g26
sg32
NsbsbsS'accel_x'
p43
F0
sS'accel_y'
p44
F0
sS'maxAccel'
p45
I2
sS'maxVel'
p46
F0.5
sS'age'
p47
I0
sS'gener'
p48
S'm'
sS'lastScale'
p49
F5.5
sS'energy'
p50
F0.5
sb.(i__main__
Data_mobile
p1
(dp2
S'vel_y'
p3
I0
sS'vel_x'
p4
I0
sS'pos_x'
p5
I-9579
sS'pos_y'
p6
I9779
sS'isAlive'
p7
I00
sS'geno'
p8
(i__main__
Node
p9
(dp10
S'node'
p11
(lp12
S'+'
aS'-'
aS'*'
aS'/'
asS'right'
p13
(i__main__
Node
p14
(dp15
g11
(lp16
S'+'
aS'-'
aS'*'
aS'/'
asg13
(i__main__
Node
p17
(dp18
g11
(lp19
S'+'
aS'-'
aS'*'
aS'/'
asg13
NsS'leaf'
p20
(lp21
S'indiv.alignment()'
p22
aS'indiv.cohesion()'
p23
aS'indiv.separation()'
p24
aS'indiv.target()'
p25
aS'indiv.flee()'
p26
aS'indiv.currentVelocity()'
p27
aS'indiv.mostEnergizedNeighbor()'
p28
aS'indiv.randV()'
p29
asS'parent'
p30
g14
sS'data'
p31
g22
sS'left'
p32
Nsbsg20
(lp33
g22
ag23
ag24
ag25
ag26
ag27
ag28
ag29
asg30
g9
sg31
S'+'
sg32
(i__main__
Node
p34
(dp35
g11
(lp36
S'+'
aS'-'
aS'*'
aS'/'
asg13
Nsg20
(lp37
g22
ag23
ag24
ag25
ag26
ag27
ag28
ag29
asg30
g14
sg31
g25
sg32
Nsbsbsg20
(lp38
g22
ag23
ag24
ag25
ag26
ag27
ag28
ag29
asg30
Nsg31
S'+'
sg32
(i__main__
Node
p39
(dp40
g11
(lp41
S'+'
aS'-'
aS'*'
aS'/'
asg13
Nsg20
(lp42
g22
ag23
ag24
ag25
ag26
ag27
ag28
ag29
asg30
g9
sg31
g26
sg32
NsbsbsS'accel_x'
p43
F0
sS'accel_y'
p44
F0
sS'maxAccel'
p45
I2
sS'maxVel'
p46
F0.5
sS'age'
p47
I0
sS'gener'
p48
S'm'
sS'lastScale'
p49
F5.5
sS'energy'
p50
F0.5
sb.(i__main__
Data_mobile
p1
(dp2
S'vel_y'
p3
I0
sS'vel_x'
p4
I0
sS'pos_x'
p5
I-9579
sS'pos_y'
p6
I9779
sS'isAlive'
p7
I00
sS'geno'
p8
(i__main__
Node
p9
(dp10
S'node'
p11
(lp12
S'+'
aS'-'
aS'*'
aS'/'
asS'right'
p13
(i__main__
Node
p14
(dp15
g11
(lp16
S'+'
aS'-'
aS'*'
aS'/'
asg13
(i__main__
Node
p17
(dp18
g11
(lp19
S'+'
aS'-'
aS'*'
aS'/'
asg13
NsS'leaf'
p20
(lp21
S'indiv.alignment()'
p22
aS'indiv.cohesion()'
p23
aS'indiv.separation()'
p24
aS'indiv.target()'
p25
aS'indiv.flee()'
p26
aS'indiv.currentVelocity()'
p27
aS'indiv.mostEnergizedNeighbor()'
p28
aS'indiv.randV()'
p29
asS'parent'
p30
g14
sS'data'
p31
g22
sS'left'
p32
Nsbsg20
(lp33
g22
ag23
ag24
ag25
ag26
ag27
ag28
ag29
asg30
g9
sg31
S'+'
sg32
(i__main__
Node
p34
(dp35
g11
(lp36
S'+'
aS'-'
aS'*'
aS'/'
asg13
Nsg20
(lp37
g22
ag23
ag24
ag25
ag26
ag27
ag28
ag29
asg30
g14
sg31
g25
sg32
Nsbsbsg20
(lp38
g22
ag23
ag24
ag25
ag26
ag27
ag28
ag29
asg30
Nsg31
S'+'
sg32
(i__main__
Node
p39
(dp40
g11
(lp41
S'+'
aS'-'
aS'*'
aS'/'
asg13
Nsg20
(lp42
g22
ag23
ag24
ag25
ag26
ag27
ag28
ag29
asg30
g9
sg31
g26
sg32
NsbsbsS'accel_x'
p43
F0
sS'accel_y'
p44
F0
sS'maxAccel'
p45
I2
sS'maxVel'
p46
F0.5
sS'age'
p47
I0
sS'gener'
p48
S'm'
sS'lastScale'
p49
F5.5
sS'energy'
p50
F0.5
sb.(i__main__
Data_mobile
p1
(dp2
S'vel_y'
p3
I0
sS'vel_x'
p4
I0
sS'pos_x'
p5
I-9579
sS'pos_y'
p6
I9779
sS'isAlive'
p7
I00
sS'geno'
p8
(i__main__
Node
p9
(dp10
S'node'
p11
(lp12
S'+'
aS'-'
aS'*'
aS'/'
asS'right'
p13
(i__main__
Node
p14
(dp15
g11
(lp16
S'+'
aS'-'
aS'*'
aS'/'
asg13
(i__main__
Node
p17
(dp18
g11
(lp19
S'+'
aS'-'
aS'*'
aS'/'
asg13
NsS'leaf'
p20
(lp21
S'indiv.alignment()'
p22
aS'indiv.cohesion()'
p23
aS'indiv.separation()'
p24
aS'indiv.target()'
p25
aS'indiv.flee()'
p26
aS'indiv.currentVelocity()'
p27
aS'indiv.mostEnergizedNeighbor()'
p28
aS'indiv.randV()'
p29
asS'parent'
p30
g14
sS'data'
p31
g22
sS'left'
p32
Nsbsg20
(lp33
g22
ag23
ag24
ag25
ag26
ag27
ag28
ag29
asg30
g9
sg31
S'+'
sg32
(i__main__
Node
p34
(dp35
g11
(lp36
S'+'
aS'-'
aS'*'
aS'/'
asg13
Nsg20
(lp37
g22
ag23
ag24
ag25
ag26
ag27
ag28
ag29
asg30
g14
sg31
g25
sg32
Nsbsbsg20
(lp38
g22
ag23
ag24
ag25
ag26
ag27
ag28
ag29
asg30
Nsg31
S'+'
sg32
(i__main__
Node
p39
(dp40
g11
(lp41
S'+'
aS'-'
aS'*'
aS'/'
asg13
Nsg20
(lp42
g22
ag23
ag24
ag25
ag26
ag27
ag28
ag29
asg30
g9
sg31
g26
sg32
NsbsbsS'accel_x'
p43
F0
sS'accel_y'
p44
F0
sS'maxAccel'
p45
I2
sS'maxVel'
p46
F0.5
sS'age'
p47
I0
sS'gener'
p48
S'm'
sS'lastScale'
p49
F5.5
sS'energy'
p50
F0.5
sb.(i__main__
Data_mobile
p1
(dp2
S'vel_y'
p3
I0
sS'vel_x'
p4
I0
sS'pos_x'
p5
I-9579
sS'pos_y'
p6
I9779
sS'isAlive'
p7
I00
sS'geno'
p8
(i__main__
Node
p9
(dp10
S'node'
p11
(lp12
S'+'
aS'-'
aS'*'
aS'/'
asS'right'
p13
(i__main__
Node
p14
(dp15
g11
(lp16
S'+'
aS'-'
aS'*'
aS'/'
asg13
(i__main__
Node
p17
(dp18
g11
(lp19
S'+'
aS'-'
aS'*'
aS'/'
asg13
NsS'leaf'
p20
(lp21
S'indiv.alignment()'
p22
aS'indiv.cohesion()'
p23
aS'indiv.separation()'
p24
aS'indiv.target()'
p25
aS'indiv.flee()'
p26
aS'indiv.currentVelocity()'
p27
aS'indiv.mostEnergizedNeighbor()'
p28
aS'indiv.randV()'
p29
asS'parent'
p30
g14
sS'data'
p31
g22
sS'left'
p32
Nsbsg20
(lp33
g22
ag23
ag24
ag25
ag26
ag27
ag28
ag29
asg30
g9
sg31
S'+'
sg32
(i__main__
Node
p34
(dp35
g11
(lp36
S'+'
aS'-'
aS'*'
aS'/'
asg13
Nsg20
(lp37
g22
ag23
ag24
ag25
ag26
ag27
ag28
ag29
asg30
g14
sg31
g25
sg32
Nsbsbsg20
(lp38
g22
ag23
ag24
ag25
ag26
ag27
ag28
ag29
asg30
Nsg31
S'+'
sg32
(i__main__
Node
p39
(dp40
g11
(lp41
S'+'
aS'-'
aS'*'
aS'/'
asg13
Nsg20
(lp42
g22
ag23
ag24
ag25
ag26
ag27
ag28
ag29
asg30
g9
sg31
g26
sg32
NsbsbsS'accel_x'
p43
F0
sS'accel_y'
p44
F0
sS'maxAccel'
p45
I2
sS'maxVel'
p46
F0.5
sS'age'
p47
I0
sS'gener'
p48
S'm'
sS'lastScale'
p49
F5.5
sS'energy'
p50
F0.5
sb.(i__main__
Data_mobile
p1
(dp2
S'vel_y'
p3
I0
sS'vel_x'
p4
I0
sS'pos_x'
p5
I-9579
sS'pos_y'
p6
I9779
sS'isAlive'
p7
I00
sS'geno'
p8
(i__main__
Node
p9
(dp10
S'node'
p11
(lp12
S'+'
aS'-'
aS'*'
aS'/'
asS'right'
p13
(i__main__
Node
p14
(dp15
g11
(lp16
S'+'
aS'-'
aS'*'
aS'/'
asg13
(i__main__
Node
p17
(dp18
g11
(lp19
S'+'
aS'-'
aS'*'
aS'/'
asg13
NsS'leaf'
p20
(lp21
S'indiv.alignment()'
p22
aS'indiv.cohesion()'
p23
aS'indiv.separation()'
p24
aS'indiv.target()'
p25
aS'indiv.flee()'
p26
aS'indiv.currentVelocity()'
p27
aS'indiv.mostEnergizedNeighbor()'
p28
aS'indiv.randV()'
p29
asS'parent'
p30
g14
sS'data'
p31
g22
sS'left'
p32
Nsbsg20
(lp33
g22
ag23
ag24
ag25
ag26
ag27
ag28
ag29
asg30
g9
sg31
S'+'
sg32
(i__main__
Node
p34
(dp35
g11
(lp36
S'+'
aS'-'
aS'*'
aS'/'
asg13
Nsg20
(lp37
g22
ag23
ag24
ag25
ag26
ag27
ag28
ag29
asg30
g14
sg31
g25
sg32
Nsbsbsg20
(lp38
g22
ag23
ag24
ag25
ag26
ag27
ag28
ag29
asg30
Nsg31
S'+'
sg32
(i__main__
Node
p39
(dp40
g11
(lp41
S'+'
aS'-'
aS'*'
aS'/'
asg13
Nsg20
(lp42
g22
ag23
ag24
ag25
ag26
ag27
ag28
ag29
asg30
g9
sg31
g26
sg32
NsbsbsS'accel_x'
p43
F0
sS'accel_y'
p44
F0
sS'maxAccel'
p45
I2
sS'maxVel'
p46
F0.5
sS'age'
p47
I0
sS'gener'
p48
S'm'
sS'lastScale'
p49
F5.5
sS'energy'
p50
F0.5
sb.(i__main__
Data_mobile
p1
(dp2
S'vel_y'
p3
I0
sS'vel_x'
p4
I0
sS'pos_x'
p5
I-9579
sS'pos_y'
p6
I9779
sS'isAlive'
p7
I00
sS'geno'
p8
(i__main__
Node
p9
(dp10
S'node'
p11
(lp12
S'+'
aS'-'
aS'*'
aS'/'
asS'right'
p13
(i__main__
Node
p14
(dp15
g11
(lp16
S'+'
aS'-'
aS'*'
aS'/'
asg13
(i__main__
Node
p17
(dp18
g11
(lp19
S'+'
aS'-'
aS'*'
aS'/'
asg13
NsS'leaf'
p20
(lp21
S'indiv.alignment()'
p22
aS'indiv.cohesion()'
p23
aS'indiv.separation()'
p24
aS'indiv.target()'
p25
aS'indiv.flee()'
p26
aS'indiv.currentVelocity()'
p27
aS'indiv.mostEnergizedNeighbor()'
p28
aS'indiv.randV()'
p29
asS'parent'
p30
g14
sS'data'
p31
g22
sS'left'
p32
Nsbsg20
(lp33
g22
ag23
ag24
ag25
ag26
ag27
ag28
ag29
asg30
g9
sg31
S'+'
sg32
(i__main__
Node
p34
(dp35
g11
(lp36
S'+'
aS'-'
aS'*'
aS'/'
asg13
Nsg20
(lp37
g22
ag23
ag24
ag25
ag26
ag27
ag28
ag29
asg30
g14
sg31
g25
sg32
Nsbsbsg20
(lp38
g22
ag23
ag24
ag25
ag26
ag27
ag28
ag29
asg30
Nsg31
S'+'
sg32
(i__main__
Node
p39
(dp40
g11
(lp41
S'+'
aS'-'
aS'*'
aS'/'
asg13
Nsg20
(lp42
g22
ag23
ag24
ag25
ag26
ag27
ag28
ag29
asg30
g9
sg31
g26
sg32
NsbsbsS'accel_x'
p43
F0
sS'accel_y'
p44
F0
sS'maxAccel'
p45
I2
sS'maxVel'
p46
F0.5
sS'age'
p47
I0
sS'gener'
p48
S'm'
sS'lastScale'
p49
F5.5
sS'energy'
p50
F0.5
sb.(i__main__
Data_mobile
p1
(dp2
S'vel_y'
p3
I0
sS'vel_x'
p4
I0
sS'pos_x'
p5
I-9579
sS'pos_y'
p6
I9779
sS'isAlive'
p7
I00
sS'geno'
p8
(i__main__
Node
p9
(dp10
S'node'
p11
(lp12
S'+'
aS'-'
aS'*'
aS'/'
asS'right'
p13
(i__main__
Node
p14
(dp15
g11
(lp16
S'+'
aS'-'
aS'*'
aS'/'
asg13
(i__main__
Node
p17
(dp18
g11
(lp19
S'+'
aS'-'
aS'*'
aS'/'
asg13
NsS'leaf'
p20
(lp21
S'indiv.alignment()'
p22
aS'indiv.cohesion()'
p23
aS'indiv.separation()'
p24
aS'indiv.target()'
p25
aS'indiv.flee()'
p26
aS'indiv.currentVelocity()'
p27
aS'indiv.mostEnergizedNeighbor()'
p28
aS'indiv.randV()'
p29
asS'parent'
p30
g14
sS'data'
p31
g22
sS'left'
p32
Nsbsg20
(lp33
g22
ag23
ag24
ag25
ag26
ag27
ag28
ag29
asg30
g9
sg31
S'+'
sg32
(i__main__
Node
p34
(dp35
g11
(lp36
S'+'
aS'-'
aS'*'
aS'/'
asg13
Nsg20
(lp37
g22
ag23
ag24
ag25
ag26
ag27
ag28
ag29
asg30
g14
sg31
g25
sg32
Nsbsbsg20
(lp38
g22
ag23
ag24
ag25
ag26
ag27
ag28
ag29
asg30
Nsg31
S'+'
sg32
(i__main__
Node
p39
(dp40
g11
(lp41
S'+'
aS'-'
aS'*'
aS'/'
asg13
Nsg20
(lp42
g22
ag23
ag24
ag25
ag26
ag27
ag28
ag29
asg30
g9
sg31
g26
sg32
NsbsbsS'accel_x'
p43
F0
sS'accel_y'
p44
F0
sS'maxAccel'
p45
I2
sS'maxVel'
p46
F0.5
sS'age'
p47
I0
sS'gener'
p48
S'm'
sS'lastScale'
p49
F5.5
sS'energy'
p50
F0.5
sb.(i__main__
Data_mobile
p1
(dp2
S'vel_y'
p3
I0
sS'vel_x'
p4
I0
sS'pos_x'
p5
I-9579
sS'pos_y'
p6
I9779
sS'isAlive'
p7
I00
sS'geno'
p8
(i__main__
Node
p9
(dp10
S'node'
p11
(lp12
S'+'
aS'-'
aS'*'
aS'/'
asS'right'
p13
(i__main__
Node
p14
(dp15
g11
(lp16
S'+'
aS'-'
aS'*'
aS'/'
asg13
(i__main__
Node
p17
(dp18
g11
(lp19
S'+'
aS'-'
aS'*'
aS'/'
asg13
NsS'leaf'
p20
(lp21
S'indiv.alignment()'
p22
aS'indiv.cohesion()'
p23
aS'indiv.separation()'
p24
aS'indiv.target()'
p25
aS'indiv.flee()'
p26
aS'indiv.currentVelocity()'
p27
aS'indiv.mostEnergizedNeighbor()'
p28
aS'indiv.randV()'
p29
asS'parent'
p30
g14
sS'data'
p31
g22
sS'left'
p32
Nsbsg20
(lp33
g22
ag23
ag24
ag25
ag26
ag27
ag28
ag29
asg30
g9
sg31
S'+'
sg32
(i__main__
Node
p34
(dp35
g11
(lp36
S'+'
aS'-'
aS'*'
aS'/'
asg13
Nsg20
(lp37
g22
ag23
ag24
ag25
ag26
ag27
ag28
ag29
asg30
g14
sg31
g25
sg32
Nsbsbsg20
(lp38
g22
ag23
ag24
ag25
ag26
ag27
ag28
ag29
asg30
Nsg31
S'+'
sg32
(i__main__
Node
p39
(dp40
g11
(lp41
S'+'
aS'-'
aS'*'
aS'/'
asg13
Nsg20
(lp42
g22
ag23
ag24
ag25
ag26
ag27
ag28
ag29
asg30
g9
sg31
g26
sg32
NsbsbsS'accel_x'
p43
F0
sS'accel_y'
p44
F0
sS'maxAccel'
p45
I2
sS'maxVel'
p46
F0.5
sS'age'
p47
I0
sS'gener'
p48
S'm'
sS'lastScale'
p49
F5.5
sS'energy'
p50
F0.5
sb.(i__main__
Data_mobile
p1
(dp2
S'vel_y'
p3
I0
sS'vel_x'
p4
I0
sS'pos_x'
p5
I-9579
sS'pos_y'
p6
I9779
sS'isAlive'
p7
I00
sS'geno'
p8
(i__main__
Node
p9
(dp10
S'node'
p11
(lp12
S'+'
aS'-'
aS'*'
aS'/'
asS'right'
p13
(i__main__
Node
p14
(dp15
g11
(lp16
S'+'
aS'-'
aS'*'
aS'/'
asg13
(i__main__
Node
p17
(dp18
g11
(lp19
S'+'
aS'-'
aS'*'
aS'/'
asg13
(i__main__
Node
p20
(dp21
g11
(lp22
S'+'
aS'-'
aS'*'
aS'/'
asg13
(i__main__
Node
p23
(dp24
g11
(lp25
S'+'
aS'-'
aS'*'
aS'/'
asg13
(i__main__
Node
p26
(dp27
g11
(lp28
S'+'
aS'-'
aS'*'
aS'/'
asg13
NsS'leaf'
p29
(lp30
S'indiv.alignment()'
p31
aS'indiv.cohesion()'
p32
aS'indiv.separation()'
p33
aS'indiv.target()'
p34
aS'indiv.flee()'
p35
aS'indiv.currentVelocity()'
p36
aS'indiv.mostEnergizedNeighbor()'
p37
aS'indiv.randV()'
p38
asS'parent'
p39
g23
sS'data'
p40
g36
sS'left'
p41
Nsbsg29
(lp42
g31
ag32
ag33
ag34
ag35
ag36
ag37
ag38
asg39
g20
sg40
S'*'
sg41
(i__main__
Node
p43
(dp44
g11
(lp45
S'+'
aS'-'
aS'*'
aS'/'
asg13
Nsg29
(lp46
g31
ag32
ag33
ag34
ag35
ag36
ag37
ag38
asg39
g23
sg40
g33
sg41
Nsbsbsg29
(lp47
g31
ag32
ag33
ag34
ag35
ag36
ag37
ag38
asg39
g17
sg40
S'+'
sg41
(i__main__
Node
p48
(dp49
g11
(lp50
S'+'
aS'-'
aS'*'
aS'/'
asg13
(i__main__
Node
p51
(dp52
g11
(lp53
S'+'
aS'-'
aS'*'
aS'/'
asg13
Nsg29
(lp54
g31
ag32
ag33
ag34
ag35
ag36
ag37
ag38
asg39
g48
sg40
g36
sg41
Nsbsg29
(lp55
g31
ag32
ag33
ag34
ag35
ag36
ag37
ag38
asg39
g20
sg40
S'*'
sg41
(i__main__
Node
p56
(dp57
g11
(lp58
S'+'
aS'-'
aS'*'
aS'/'
asg13
Nsg29
(lp59
g31
ag32
ag33
ag34
ag35
ag36
ag37
ag38
asg39
g48
sg40
g33
sg41
Nsbsbsbsg29
(lp60
g31
ag32
ag33
ag34
ag35
ag36
ag37
ag38
asg39
g14
sg40
S'+'
sg41
(i__main__
Node
p61
(dp62
g11
(lp63
S'+'
aS'-'
aS'*'
aS'/'
asg13
(i__main__
Node
p64
(dp65
g11
(lp66
S'+'
aS'-'
aS'*'
aS'/'
asg13
(i__main__
Node
p67
(dp68
g11
(lp69
S'+'
aS'-'
aS'*'
aS'/'
asg13
Nsg29
(lp70
g31
ag32
ag33
ag34
ag35
ag36
ag37
ag38
asg39
g64
sg40
g32
sg41
Nsbsg29
(lp71
g31
ag32
ag33
ag34
ag35
ag36
ag37
ag38
asg39
g61
sg40
S'-'
sg41
(i__main__
Node
p72
(dp73
g11
(lp74
S'+'
aS'-'
aS'*'
aS'/'
asg13
Nsg29
(lp75
g31
ag32
ag33
ag34
ag35
ag36
ag37
ag38
asg39
g64
sg40
g32
sg41
Nsbsbsg29
(lp76
g31
ag32
ag33
ag34
ag35
ag36
ag37
ag38
asg39
g17
sg40
S'-'
sg41
(i__main__
Node
p77
(dp78
g11
(lp79
S'+'
aS'-'
aS'*'
aS'/'
asg13
(i__main__
Node
p80
(dp81
g11
(lp82
S'+'
aS'-'
aS'*'
aS'/'
asg13
Nsg29
(lp83
g31
ag32
ag33
ag34
ag35
ag36
ag37
ag38
asg39
g77
sg40
g31
sg41
Nsbsg29
(lp84
g31
ag32
ag33
ag34
ag35
ag36
ag37
ag38
asg39
g61
sg40
S'*'
sg41
(i__main__
Node
p85
(dp86
g11
(lp87
S'+'
aS'-'
aS'*'
aS'/'
asg13
Nsg29
(lp88
g31
ag32
ag33
ag34
ag35
ag36
ag37
ag38
asg39
g77
sg40
g35
sg41
Nsbsbsbsbsg29
(lp89
g31
ag32
ag33
ag34
ag35
ag36
ag37
ag38
asg39
g9
sg40
S'*'
sg41
(i__main__
Node
p90
(dp91
g11
(lp92
S'+'
aS'-'
aS'*'
aS'/'
asg13
(i__main__
Node
p93
(dp94
g11
(lp95
S'+'
aS'-'
aS'*'
aS'/'
asg13
(i__main__
Node
p96
(dp97
g11
(lp98
S'+'
aS'-'
aS'*'
aS'/'
asg13
(i__main__
Node
p99
(dp100
g11
(lp101
S'+'
aS'-'
aS'*'
aS'/'
asg13
Nsg29
(lp102
g31
ag32
ag33
ag34
ag35
ag36
ag37
ag38
asg39
g96
sg40
g32
sg41
Nsbsg29
(lp103
g31
ag32
ag33
ag34
ag35
ag36
ag37
ag38
asg39
g93
sg40
S'+'
sg41
(i__main__
Node
p104
(dp105
g11
(lp106
S'+'
aS'-'
aS'*'
aS'/'
asg13
Nsg29
(lp107
g31
ag32
ag33
ag34
ag35
ag36
ag37
ag38
asg39
g96
sg40
g35
sg41
Nsbsbsg29
(lp108
g31
ag32
ag33
ag34
ag35
ag36
ag37
ag38
asg39
g90
sg40
S'/'
sg41
(i__main__
Node
p109
(dp110
g11
(lp111
S'+'
aS'-'
aS'*'
aS'/'
asg13
(i__main__
Node
p112
(dp113
g11
(lp114
S'+'
aS'-'
aS'*'
aS'/'
asg13
Nsg29
(lp115
g31
ag32
ag33
ag34
ag35
ag36
ag37
ag38
asg39
g109
sg40
g35
sg41
Nsbsg29
(lp116
g31
ag32
ag33
ag34
ag35
ag36
ag37
ag38
asg39
g93
sg40
S'*'
sg41
(i__main__
Node
p117
(dp118
g11
(lp119
S'+'
aS'-'
aS'*'
aS'/'
asg13
Nsg29
(lp120
g31
ag32
ag33
ag34
ag35
ag36
ag37
ag38
asg39
g109
sg40
g34
sg41
Nsbsbsbsg29
(lp121
g31
ag32
ag33
ag34
ag35
ag36
ag37
ag38
asg39
g14
sg40
S'+'
sg41
(i__main__
Node
p122
(dp123
g11
(lp124
S'+'
aS'-'
aS'*'
aS'/'
asg13
(i__main__
Node
p125
(dp126
g11
(lp127
S'+'
aS'-'
aS'*'
aS'/'
asg13
(i__main__
Node
p128
(dp129
g11
(lp130
S'+'
aS'-'
aS'*'
aS'/'
asg13
Nsg29
(lp131
g31
ag32
ag33
ag34
ag35
ag36
ag37
ag38
asg39
g125
sg40
g32
sg41
Nsbsg29
(lp132
g31
ag32
ag33
ag34
ag35
ag36
ag37
ag38
asg39
g122
sg40
S'*'
sg41
(i__main__
Node
p133
(dp134
g11
(lp135
S'+'
aS'-'
aS'*'
aS'/'
asg13
Nsg29
(lp136
g31
ag32
ag33
ag34
ag35
ag36
ag37
ag38
asg39
g125
sg40
g33
sg41
Nsbsbsg29
(lp137
g31
ag32
ag33
ag34
ag35
ag36
ag37
ag38
asg39
g90
sg40
S'*'
sg41
(i__main__
Node
p138
(dp139
g11
(lp140
S'+'
aS'-'
aS'*'
aS'/'
asg13
(i__main__
Node
p141
(dp142
g11
(lp143
S'+'
aS'-'
aS'*'
aS'/'
asg13
Nsg29
(lp144
g31
ag32
ag33
ag34
ag35
ag36
ag37
ag38
asg39
g138
sg40
g34
sg41
Nsbsg29
(lp145
g31
ag32
ag33
ag34
ag35
ag36
ag37
ag38
asg39
g122
sg40
S'-'
sg41
(i__main__
Node
p146
(dp147
g11
(lp148
S'+'
aS'-'
aS'*'
aS'/'
asg13
Nsg29
(lp149
g31
ag32
ag33
ag34
ag35
ag36
ag37
ag38
asg39
g138
sg40
g33
sg41
Nsbsbsbsbsbsg29
(lp150
g31
ag32
ag33
ag34
ag35
ag36
ag37
ag38
asg39
Nsg40
S'+'
sg41
(i__main__
Node
p151
(dp152
g11
(lp153
S'+'
aS'-'
aS'*'
aS'/'
asg13
Nsg29
(lp154
g31
ag32
ag33
ag34
ag35
ag36
ag37
ag38
asg39
g9
sg40
g35
sg41
NsbsbsS'accel_x'
p155
F0
sS'accel_y'
p156
F0
sS'maxAccel'
p157
I2
sS'maxVel'
p158
F0.5
sS'age'
p159
I0
sS'gener'
p160
S'm'
sS'lastScale'
p161
F5.5
sS'energy'
p162
F0.5
sb.(i__main__
Data_mobile
p1
(dp2
S'vel_y'
p3
I0
sS'vel_x'
p4
I0
sS'pos_x'
p5
I-9579
sS'pos_y'
p6
I9779
sS'isAlive'
p7
I00
sS'geno'
p8
(i__main__
Node
p9
(dp10
S'node'
p11
(lp12
S'+'
aS'-'
aS'*'
aS'/'
asS'right'
p13
(i__main__
Node
p14
(dp15
g11
(lp16
S'+'
aS'-'
aS'*'
aS'/'
asg13
(i__main__
Node
p17
(dp18
g11
(lp19
S'+'
aS'-'
aS'*'
aS'/'
asg13
(i__main__
Node
p20
(dp21
g11
(lp22
S'+'
aS'-'
aS'*'
aS'/'
asg13
(i__main__
Node
p23
(dp24
g11
(lp25
S'+'
aS'-'
aS'*'
aS'/'
asg13
(i__main__
Node
p26
(dp27
g11
(lp28
S'+'
aS'-'
aS'*'
aS'/'
asg13
NsS'leaf'
p29
(lp30
S'indiv.alignment()'
p31
aS'indiv.cohesion()'
p32
aS'indiv.separation()'
p33
aS'indiv.target()'
p34
aS'indiv.flee()'
p35
aS'indiv.currentVelocity()'
p36
aS'indiv.mostEnergizedNeighbor()'
p37
aS'indiv.randV()'
p38
asS'parent'
p39
g23
sS'data'
p40
g32
sS'left'
p41
Nsbsg29
(lp42
g31
ag32
ag33
ag34
ag35
ag36
ag37
ag38
asg39
g20
sg40
S'*'
sg41
(i__main__
Node
p43
(dp44
g11
(lp45
S'+'
aS'-'
aS'*'
aS'/'
asg13
Nsg29
(lp46
g31
ag32
ag33
ag34
ag35
ag36
ag37
ag38
asg39
g23
sg40
g35
sg41
Nsbsbsg29
(lp47
g31
ag32
ag33
ag34
ag35
ag36
ag37
ag38
asg39
g17
sg40
S'/'
sg41
(i__main__
Node
p48
(dp49
g11
(lp50
S'+'
aS'-'
aS'*'
aS'/'
asg13
(i__main__
Node
p51
(dp52
g11
(lp53
S'+'
aS'-'
aS'*'
aS'/'
asg13
Nsg29
(lp54
g31
ag32
ag33
ag34
ag35
ag36
ag37
ag38
asg39
g48
sg40
g38
sg41
Nsbsg29
(lp55
g31
ag32
ag33
ag34
ag35
ag36
ag37
ag38
asg39
g20
sg40
S'+'
sg41
(i__main__
Node
p56
(dp57
g11
(lp58
S'+'
aS'-'
aS'*'
aS'/'
asg13
Nsg29
(lp59
g31
ag32
ag33
ag34
ag35
ag36
ag37
ag38
asg39
g48
sg40
g32
sg41
Nsbsbsbsg29
(lp60
g31
ag32
ag33
ag34
ag35
ag36
ag37
ag38
asg39
g14
sg40
S'-'
sg41
(i__main__
Node
p61
(dp62
g11
(lp63
S'+'
aS'-'
aS'*'
aS'/'
asg13
(i__main__
Node
p64
(dp65
g11
(lp66
S'+'
aS'-'
aS'*'
aS'/'
asg13
(i__main__
Node
p67
(dp68
g11
(lp69
S'+'
aS'-'
aS'*'
aS'/'
asg13
Nsg29
(lp70
g31
ag32
ag33
ag34
ag35
ag36
ag37
ag38
asg39
g64
sg40
g32
sg41
Nsbsg29
(lp71
g31
ag32
ag33
ag34
ag35
ag36
ag37
ag38
asg39
g61
sg40
S'/'
sg41
(i__main__
Node
p72
(dp73
g11
(lp74
S'+'
aS'-'
aS'*'
aS'/'
asg13
Nsg29
(lp75
g31
ag32
ag33
ag34
ag35
ag36
ag37
ag38
asg39
g64
sg40
g31
sg41
Nsbsbsg29
(lp76
g31
ag32
ag33
ag34
ag35
ag36
ag37
ag38
asg39
g17
sg40
S'*'
sg41
(i__main__
Node
p77
(dp78
g11
(lp79
S'+'
aS'-'
aS'*'
aS'/'
asg13
(i__main__
Node
p80
(dp81
g11
(lp82
S'+'
aS'-'
aS'*'
aS'/'
asg13
Nsg29
(lp83
g31
ag32
ag33
ag34
ag35
ag36
ag37
ag38
asg39
g77
sg40
g31
sg41
Nsbsg29
(lp84
g31
ag32
ag33
ag34
ag35
ag36
ag37
ag38
asg39
g61
sg40
S'/'
sg41
(i__main__
Node
p85
(dp86
g11
(lp87
S'+'
aS'-'
aS'*'
aS'/'
asg13
Nsg29
(lp88
g31
ag32
ag33
ag34
ag35
ag36
ag37
ag38
asg39
g77
sg40
g34
sg41
Nsbsbsbsbsg29
(lp89
g31
ag32
ag33
ag34
ag35
ag36
ag37
ag38
asg39
g9
sg40
S'*'
sg41
(i__main__
Node
p90
(dp91
g11
(lp92
S'+'
aS'-'
aS'*'
aS'/'
asg13
(i__main__
Node
p93
(dp94
g11
(lp95
S'+'
aS'-'
aS'*'
aS'/'
asg13
(i__main__
Node
p96
(dp97
g11
(lp98
S'+'
aS'-'
aS'*'
aS'/'
asg13
(i__main__
Node
p99
(dp100
g11
(lp101
S'+'
aS'-'
aS'*'
aS'/'
asg13
Nsg29
(lp102
g31
ag32
ag33
ag34
ag35
ag36
ag37
ag38
asg39
g96
sg40
g34
sg41
Nsbsg29
(lp103
g31
ag32
ag33
ag34
ag35
ag36
ag37
ag38
asg39
g93
sg40
S'/'
sg41
(i__main__
Node
p104
(dp105
g11
(lp106
S'+'
aS'-'
aS'*'
aS'/'
asg13
Nsg29
(lp107
g31
ag32
ag33
ag34
ag35
ag36
ag37
ag38
asg39
g96
sg40
g32
sg41
Nsbsbsg29
(lp108
g31
ag32
ag33
ag34
ag35
ag36
ag37
ag38
asg39
g90
sg40
S'*'
sg41
(i__main__
Node
p109
(dp110
g11
(lp111
S'+'
aS'-'
aS'*'
aS'/'
asg13
(i__main__
Node
p112
(dp113
g11
(lp114
S'+'
aS'-'
aS'*'
aS'/'
asg13
Nsg29
(lp115
g31
ag32
ag33
ag34
ag35
ag36
ag37
ag38
asg39
g109
sg40
g33
sg41
Nsbsg29
(lp116
g31
ag32
ag33
ag34
ag35
ag36
ag37
ag38
asg39
g93
sg40
S'*'
sg41
(i__main__
Node
p117
(dp118
g11
(lp119
S'+'
aS'-'
aS'*'
aS'/'
asg13
Nsg29
(lp120
g31
ag32
ag33
ag34
ag35
ag36
ag37
ag38
asg39
g109
sg40
g31
sg41
Nsbsbsbsg29
(lp121
g31
ag32
ag33
ag34
ag35
ag36
ag37
ag38
asg39
g14
sg40
S'/'
sg41
(i__main__
Node
p122
(dp123
g11
(lp124
S'+'
aS'-'
aS'*'
aS'/'
asg13
(i__main__
Node
p125
(dp126
g11
(lp127
S'+'
aS'-'
aS'*'
aS'/'
asg13
(i__main__
Node
p128
(dp129
g11
(lp130
S'+'
aS'-'
aS'*'
aS'/'
asg13
Nsg29
(lp131
g31
ag32
ag33
ag34
ag35
ag36
ag37
ag38
asg39
g125
sg40
g34
sg41
Nsbsg29
(lp132
g31
ag32
ag33
ag34
ag35
ag36
ag37
ag38
asg39
g122
sg40
S'/'
sg41
(i__main__
Node
p133
(dp134
g11
(lp135
S'+'
aS'-'
aS'*'
aS'/'
asg13
Nsg29
(lp136
g31
ag32
ag33
ag34
ag35
ag36
ag37
ag38
asg39
g125
sg40
g37
sg41
Nsbsbsg29
(lp137
g31
ag32
ag33
ag34
ag35
ag36
ag37
ag38
asg39
g90
sg40
S'*'
sg41
(i__main__
Node
p138
(dp139
g11
(lp140
S'+'
aS'-'
aS'*'
aS'/'
asg13
(i__main__
Node
p141
(dp142
g11
(lp143
S'+'
aS'-'
aS'*'
aS'/'
asg13
Nsg29
(lp144
g31
ag32
ag33
ag34
ag35
ag36
ag37
ag38
asg39
g138
sg40
g35
sg41
Nsbsg29
(lp145
g31
ag32
ag33
ag34
ag35
ag36
ag37
ag38
asg39
g122
sg40
S'/'
sg41
(i__main__
Node
p146
(dp147
g11
(lp148
S'+'
aS'-'
aS'*'
aS'/'
asg13
Nsg29
(lp149
g31
ag32
ag33
ag34
ag35
ag36
ag37
ag38
asg39
g138
sg40
g34
sg41
Nsbsbsbsbsbsg29
(lp150
g31
ag32
ag33
ag34
ag35
ag36
ag37
ag38
asg39
Nsg40
S'+'
sg41
(i__main__
Node
p151
(dp152
g11
(lp153
S'+'
aS'-'
aS'*'
aS'/'
asg13
Nsg29
(lp154
g31
ag32
ag33
ag34
ag35
ag36
ag37
ag38
asg39
g9
sg40
g35
sg41
NsbsbsS'accel_x'
p155
F0
sS'accel_y'
p156
F0
sS'maxAccel'
p157
I2
sS'maxVel'
p158
F0.5
sS'age'
p159
I0
sS'gener'
p160
S'm'
sS'lastScale'
p161
F5.5
sS'energy'
p162
F0.5
sb.(i__main__
Data_mobile
p1
(dp2
S'vel_y'
p3
I0
sS'vel_x'
p4
I0
sS'pos_x'
p5
I-9579
sS'pos_y'
p6
I9779
sS'isAlive'
p7
I00
sS'geno'
p8
(i__main__
Node
p9
(dp10
S'node'
p11
(lp12
S'+'
aS'-'
aS'*'
aS'/'
asS'right'
p13
(i__main__
Node
p14
(dp15
g11
(lp16
S'+'
aS'-'
aS'*'
aS'/'
asg13
(i__main__
Node
p17
(dp18
g11
(lp19
S'+'
aS'-'
aS'*'
aS'/'
asg13
NsS'leaf'
p20
(lp21
S'indiv.alignment()'
p22
aS'indiv.cohesion()'
p23
aS'indiv.separation()'
p24
aS'indiv.target()'
p25
aS'indiv.flee()'
p26
aS'indiv.currentVelocity()'
p27
aS'indiv.mostEnergizedNeighbor()'
p28
aS'indiv.randV()'
p29
asS'parent'
p30
g14
sS'data'
p31
g22
sS'left'
p32
Nsbsg20
(lp33
g22
ag23
ag24
ag25
ag26
ag27
ag28
ag29
asg30
g9
sg31
S'+'
sg32
(i__main__
Node
p34
(dp35
g11
(lp36
S'+'
aS'-'
aS'*'
aS'/'
asg13
Nsg20
(lp37
g22
ag23
ag24
ag25
ag26
ag27
ag28
ag29
asg30
g14
sg31
g25
sg32
Nsbsbsg20
(lp38
g22
ag23
ag24
ag25
ag26
ag27
ag28
ag29
asg30
Nsg31
S'+'
sg32
(i__main__
Node
p39
(dp40
g11
(lp41
S'+'
aS'-'
aS'*'
aS'/'
asg13
Nsg20
(lp42
g22
ag23
ag24
ag25
ag26
ag27
ag28
ag29
asg30
g9
sg31
g26
sg32
NsbsbsS'accel_x'
p43
F0
sS'accel_y'
p44
F0
sS'maxAccel'
p45
I2
sS'maxVel'
p46
F0.5
sS'age'
p47
I0
sS'gener'
p48
S'm'
sS'lastScale'
p49
F5.5
sS'energy'
p50
F0.5
sb.(i__main__
Data_mobile
p1
(dp2
S'vel_y'
p3
I0
sS'vel_x'
p4
I0
sS'pos_x'
p5
I-9579
sS'pos_y'
p6
I9779
sS'isAlive'
p7
I00
sS'geno'
p8
(i__main__
Node
p9
(dp10
S'node'
p11
(lp12
S'+'
aS'-'
aS'*'
aS'/'
asS'right'
p13
(i__main__
Node
p14
(dp15
g11
(lp16
S'+'
aS'-'
aS'*'
aS'/'
asg13
(i__main__
Node
p17
(dp18
g11
(lp19
S'+'
aS'-'
aS'*'
aS'/'
asg13
NsS'leaf'
p20
(lp21
S'indiv.alignment()'
p22
aS'indiv.cohesion()'
p23
aS'indiv.separation()'
p24
aS'indiv.target()'
p25
aS'indiv.flee()'
p26
aS'indiv.currentVelocity()'
p27
aS'indiv.mostEnergizedNeighbor()'
p28
aS'indiv.randV()'
p29
asS'parent'
p30
g14
sS'data'
p31
g22
sS'left'
p32
Nsbsg20
(lp33
g22
ag23
ag24
ag25
ag26
ag27
ag28
ag29
asg30
g9
sg31
S'+'
sg32
(i__main__
Node
p34
(dp35
g11
(lp36
S'+'
aS'-'
aS'*'
aS'/'
asg13
Nsg20
(lp37
g22
ag23
ag24
ag25
ag26
ag27
ag28
ag29
asg30
g14
sg31
g25
sg32
Nsbsbsg20
(lp38
g22
ag23
ag24
ag25
ag26
ag27
ag28
ag29
asg30
Nsg31
S'+'
sg32
(i__main__
Node
p39
(dp40
g11
(lp41
S'+'
aS'-'
aS'*'
aS'/'
asg13
Nsg20
(lp42
g22
ag23
ag24
ag25
ag26
ag27
ag28
ag29
asg30
g9
sg31
g26
sg32
NsbsbsS'accel_x'
p43
F0
sS'accel_y'
p44
F0
sS'maxAccel'
p45
I2
sS'maxVel'
p46
F0.5
sS'age'
p47
I0
sS'gener'
p48
S'm'
sS'lastScale'
p49
F5.5
sS'energy'
p50
F0.5
sb.(i__main__
Data_mobile
p1
(dp2
S'vel_y'
p3
I0
sS'vel_x'
p4
I0
sS'pos_x'
p5
I-9579
sS'pos_y'
p6
I9779
sS'isAlive'
p7
I00
sS'geno'
p8
(i__main__
Node
p9
(dp10
S'node'
p11
(lp12
S'+'
aS'-'
aS'*'
aS'/'
asS'right'
p13
(i__main__
Node
p14
(dp15
g11
(lp16
S'+'
aS'-'
aS'*'
aS'/'
asg13
(i__main__
Node
p17
(dp18
g11
(lp19
S'+'
aS'-'
aS'*'
aS'/'
asg13
NsS'leaf'
p20
(lp21
S'indiv.alignment()'
p22
aS'indiv.cohesion()'
p23
aS'indiv.separation()'
p24
aS'indiv.target()'
p25
aS'indiv.flee()'
p26
aS'indiv.currentVelocity()'
p27
aS'indiv.mostEnergizedNeighbor()'
p28
aS'indiv.randV()'
p29
asS'parent'
p30
g14
sS'data'
p31
g22
sS'left'
p32
Nsbsg20
(lp33
g22
ag23
ag24
ag25
ag26
ag27
ag28
ag29
asg30
g9
sg31
S'+'
sg32
(i__main__
Node
p34
(dp35
g11
(lp36
S'+'
aS'-'
aS'*'
aS'/'
asg13
Nsg20
(lp37
g22
ag23
ag24
ag25
ag26
ag27
ag28
ag29
asg30
g14
sg31
g25
sg32
Nsbsbsg20
(lp38
g22
ag23
ag24
ag25
ag26
ag27
ag28
ag29
asg30
Nsg31
S'+'
sg32
(i__main__
Node
p39
(dp40
g11
(lp41
S'+'
aS'-'
aS'*'
aS'/'
asg13
Nsg20
(lp42
g22
ag23
ag24
ag25
ag26
ag27
ag28
ag29
asg30
g9
sg31
g26
sg32
NsbsbsS'accel_x'
p43
F0
sS'accel_y'
p44
F0
sS'maxAccel'
p45
I2
sS'maxVel'
p46
F0.5
sS'age'
p47
I0
sS'gener'
p48
S'm'
sS'lastScale'
p49
F5.5
sS'energy'
p50
F0.5
sb.(i__main__
Data_mobile
p1
(dp2
S'vel_y'
p3
I0
sS'vel_x'
p4
I0
sS'pos_x'
p5
I-9579
sS'pos_y'
p6
I9779
sS'isAlive'
p7
I00
sS'geno'
p8
(i__main__
Node
p9
(dp10
S'node'
p11
(lp12
S'+'
aS'-'
aS'*'
aS'/'
asS'right'
p13
(i__main__
Node
p14
(dp15
g11
(lp16
S'+'
aS'-'
aS'*'
aS'/'
asg13
(i__main__
Node
p17
(dp18
g11
(lp19
S'+'
aS'-'
aS'*'
aS'/'
asg13
NsS'leaf'
p20
(lp21
S'indiv.alignment()'
p22
aS'indiv.cohesion()'
p23
aS'indiv.separation()'
p24
aS'indiv.target()'
p25
aS'indiv.flee()'
p26
aS'indiv.currentVelocity()'
p27
aS'indiv.mostEnergizedNeighbor()'
p28
aS'indiv.randV()'
p29
asS'parent'
p30
g14
sS'data'
p31
g22
sS'left'
p32
Nsbsg20
(lp33
g22
ag23
ag24
ag25
ag26
ag27
ag28
ag29
asg30
g9
sg31
S'+'
sg32
(i__main__
Node
p34
(dp35
g11
(lp36
S'+'
aS'-'
aS'*'
aS'/'
asg13
Nsg20
(lp37
g22
ag23
ag24
ag25
ag26
ag27
ag28
ag29
asg30
g14
sg31
g25
sg32
Nsbsbsg20
(lp38
g22
ag23
ag24
ag25
ag26
ag27
ag28
ag29
asg30
Nsg31
S'+'
sg32
(i__main__
Node
p39
(dp40
g11
(lp41
S'+'
aS'-'
aS'*'
aS'/'
asg13
Nsg20
(lp42
g22
ag23
ag24
ag25
ag26
ag27
ag28
ag29
asg30
g9
sg31
g26
sg32
NsbsbsS'accel_x'
p43
F0
sS'accel_y'
p44
F0
sS'maxAccel'
p45
I2
sS'maxVel'
p46
F0.5
sS'age'
p47
I0
sS'gener'
p48
S'm'
sS'lastScale'
p49
F5.5
sS'energy'
p50
F0.5
sb.