(i__main__
Data_mobile
p1
(dp2
S'vel_y'
p3
F-0.45826319133587384
sS'vel_x'
p4
F-0.15731084849691987
sS'pos_x'
p5
F-37.975160917545139
sS'pos_y'
p6
F12.913150276920323
sS'isAlive'
p7
I01
sS'cumulativeEnergy'
p8
F49
sS'geno'
p9
(lp10
F2.4217383588276622
aF-0.31368091668987341
aF0.78279274973631818
aF4.2667038301940181
aF-0.94719639190239757
aF-0.57724825090310761
asS'accel_x'
p11
F0.11976560439010152
sS'accel_y'
p12
F1.996410829464986
sS'visionAngle'
p13
I150
sS'maxAccel'
p14
I2
sS'maxVel'
p15
F0.5
sS'age'
p16
I100
sS'tailSize'
p17
F2.2825603734014512
sS'sexualgeno'
p18
(i__main__
Node
p19
(dp20
S'depth'
p21
I1
sS'right'
p22
(i__main__
Node
p23
(dp24
g21
I2
sg22
NsS'parent'
p25
g19
sS'float_size'
p26
S'indiv.getNumPredatorsNeigh()'
p27
sS'float_bright'
p28
S'indiv.getTailBrightness()'
p29
sS'left'
p30
Nsbsg25
Nsg26
S'+'
sg28
S'/'
sg30
(i__main__
Node
p31
(dp32
g21
I2
sg22
(i__main__
Node
p33
(dp34
g21
I3
sg22
Nsg25
g31
sg26
g27
sg28
S'indiv.getNumPreysNeigh()'
p35
sg30
Nsbsg25
g19
sg26
S'-'
sg28
S'/'
sg30
(i__main__
Node
p36
(dp37
g21
I3
sg22
Nsg25
g31
sg26
S'indiv.getTailSize()'
p38
sg28
g35
sg30
NsbsbsbsS'tailBrigh'
p39
F1.7073112445674998
sS'maxSteering'
p40
I30
sS'energy'
p41
F1
sS'lastScale'
p42
F15.5
sb.(i__main__
Data_mobile
p1
(dp2
S'vel_y'
p3
F0.029215438218113631
sS'vel_x'
p4
F0.49738215127253432
sS'pos_x'
p5
F-37.652287273332362
sS'pos_y'
p6
F13.295201336741401
sS'isAlive'
p7
I01
sS'cumulativeEnergy'
p8
F49
sS'geno'
p9
(lp10
F2.4217383588276622
aF-0.65304615645449005
aF0.42678521340023978
aF3.9175525930612425
aF0.90310558121730389
aF-0.092572630119883148
asS'accel_x'
p11
F1.3802991543230161
sS'accel_y'
p12
F1.4473334945945133
sS'visionAngle'
p13
I150
sS'maxAccel'
p14
I2
sS'maxVel'
p15
F0.5
sS'age'
p16
I100
sS'tailSize'
p17
F0.051234350947996221
sS'sexualgeno'
p18
(i__main__
Node
p19
(dp20
S'depth'
p21
I1
sS'right'
p22
(i__main__
Node
p23
(dp24
g21
I2
sg22
(i__main__
Node
p25
(dp26
g21
I3
sg22
NsS'parent'
p27
g23
sS'float_size'
p28
S'indiv.getNumPredatorsNeigh()'
p29
sS'float_bright'
p30
S'indiv.getNumPreysNeigh()'
p31
sS'left'
p32
Nsbsg27
g19
sg28
S'-'
sg30
S'/'
sg32
(i__main__
Node
p33
(dp34
g21
I3
sg22
Nsg27
g23
sg28
S'indiv.getTailSize()'
p35
sg30
g31
sg32
Nsbsbsg27
Nsg28
S'+'
sg30
S'/'
sg32
(i__main__
Node
p36
(dp37
g21
I2
sg22
Nsg27
g19
sg28
g31
sg30
g35
sg32
NsbsbsS'tailBrigh'
p38
F7.6591067121037062
sS'maxSteering'
p39
I30
sS'energy'
p40
F1
sS'lastScale'
p41
F15.5
sb.(i__main__
Data_mobile
p1
(dp2
S'vel_y'
p3
F-0.39356336298615513
sS'vel_x'
p4
F0.098081612516718986
sS'pos_x'
p5
F-195.24733583568806
sS'pos_y'
p6
F-17.592506005592519
sS'isAlive'
p7
I01
sS'cumulativeEnergy'
p8
F49
sS'geno'
p9
(lp10
F2.4217383588276622
aF-0.31368091668987341
aF0.94394525236982119
aF3.97944492805245
aF-0.68108265870697449
aF-0.57724825090310761
asS'accel_x'
p11
F-1.3131690616962877
sS'accel_y'
p12
F1.5085048940602384
sS'visionAngle'
p13
I150
sS'maxAccel'
p14
I2
sS'maxVel'
p15
F0.5
sS'age'
p16
I150
sS'tailSize'
p17
F4.5002364443645959
sS'sexualgeno'
p18
(i__main__
Node
p19
(dp20
S'depth'
p21
I1
sS'right'
p22
(i__main__
Node
p23
(dp24
g21
I2
sg22
(i__main__
Node
p25
(dp26
g21
I3
sg22
NsS'parent'
p27
g23
sS'float_size'
p28
S'indiv.getNumPredatorsNeigh()'
p29
sS'float_bright'
p30
S'indiv.getTailBrightness()'
p31
sS'left'
p32
Nsbsg27
g19
sg28
S'+'
sg30
S'+'
sg32
(i__main__
Node
p33
(dp34
g21
I3
sg22
Nsg27
g23
sg28
S'indiv.distanceMatingSeason()'
p35
sg30
S'indiv.randF()'
p36
sg32
Nsbsbsg27
Nsg28
S'+'
sg30
S'/'
sg32
(i__main__
Node
p37
(dp38
g21
I2
sg22
Nsg27
g19
sg28
S'indiv.getNumPreysNeigh()'
p39
sg30
S'indiv.getTailSize()'
p40
sg32
NsbsbsS'tailBrigh'
p41
F6.5487700047657595
sS'maxSteering'
p42
I30
sS'energy'
p43
F1
sS'lastScale'
p44
F15.5
sb.(i__main__
Data_mobile
p1
(dp2
S'vel_y'
p3
F0.46922712736829536
sS'vel_x'
p4
F-0.016209774067469294
sS'pos_x'
p5
F-3.5500498067262303
sS'pos_y'
p6
F15.264719634390815
sS'isAlive'
p7
I01
sS'cumulativeEnergy'
p8
F49
sS'geno'
p9
(lp10
F2.4217383588276622
aF-0.31368091668987341
aF0.94394525236982119
aF4.3816930158124476
aF-0.94719639190239757
aF-0.65909196324075459
asS'accel_x'
p11
F1.3809857809959381
sS'accel_y'
p12
F-1.4466783584083363
sS'visionAngle'
p13
I150
sS'maxAccel'
p14
I2
sS'maxVel'
p15
F0.5
sS'age'
p16
I100
sS'tailSize'
p17
F3.026111801923459
sS'sexualgeno'
p18
(i__main__
Node
p19
(dp20
S'depth'
p21
I1
sS'right'
p22
(i__main__
Node
p23
(dp24
g21
I2
sg22
(i__main__
Node
p25
(dp26
g21
I3
sg22
NsS'parent'
p27
g23
sS'float_size'
p28
S'indiv.getNumPredatorsNeigh()'
p29
sS'float_bright'
p30
S'indiv.getTailBrightness()'
p31
sS'left'
p32
Nsbsg27
g19
sg28
S'+'
sg30
S'+'
sg32
(i__main__
Node
p33
(dp34
g21
I3
sg22
Nsg27
g23
sg28
S'indiv.distanceMatingSeason()'
p35
sg30
S'indiv.randF()'
p36
sg32
Nsbsbsg27
Nsg28
S'+'
sg30
S'/'
sg32
(i__main__
Node
p37
(dp38
g21
I2
sg22
Nsg27
g19
sg28
S'indiv.getNumPreysNeigh()'
p39
sg30
S'indiv.getTailSize()'
p40
sg32
NsbsbsS'tailBrigh'
p41
F9.3113594037695133
sS'maxSteering'
p42
I30
sS'energy'
p43
F1
sS'lastScale'
p44
F15.5
sb.(i__main__
Data_mobile
p1
(dp2
S'vel_y'
p3
F0.33098394959269412
sS'vel_x'
p4
F-0.11948618876996234
sS'pos_x'
p5
F-3.5540667406875386
sS'pos_y'
p6
F15.616897314236232
sS'isAlive'
p7
I01
sS'cumulativeEnergy'
p8
F49
sS'geno'
p9
(lp10
F2.6905188484586167
aF-0.1171271199096634
aF0.94394525236982119
aF4.4700349051302872
aF-0.94719639190239757
aF-0.57724825090310761
asS'accel_x'
p11
F0.82638631148276198
sS'accel_y'
p12
F-0.71840249047724469
sS'visionAngle'
p13
I150
sS'maxAccel'
p14
I2
sS'maxVel'
p15
F0.5
sS'age'
p16
I100
sS'tailSize'
p17
F5.3740437374854908
sS'sexualgeno'
p18
(i__main__
Node
p19
(dp20
S'depth'
p21
I1
sS'right'
p22
(i__main__
Node
p23
(dp24
g21
I2
sg22
NsS'parent'
p25
g19
sS'float_size'
p26
S'indiv.getNumPredatorsNeigh()'
p27
sS'float_bright'
p28
S'indiv.getTailBrightness()'
p29
sS'left'
p30
Nsbsg25
Nsg26
S'+'
sg28
S'/'
sg30
(i__main__
Node
p31
(dp32
g21
I2
sg22
(i__main__
Node
p33
(dp34
g21
I3
sg22
Nsg25
g31
sg26
S'indiv.getNumPreysNeigh()'
p35
sg28
g35
sg30
Nsbsg25
g19
sg26
S'+'
sg28
S'*'
sg30
(i__main__
Node
p36
(dp37
g21
I3
sg22
Nsg25
g31
sg26
S'indiv.distanceMatingSeason()'
p38
sg28
S'indiv.randF()'
p39
sg30
NsbsbsbsS'tailBrigh'
p40
F7.7053745082328762
sS'maxSteering'
p41
I30
sS'energy'
p42
F1
sS'lastScale'
p43
F15.5
sb.(i__main__
Data_mobile
p1
(dp2
S'vel_y'
p3
F-0.20413999521468157
sS'vel_x'
p4
F0.14912725767009347
sS'pos_x'
p5
F21.628906645725195
sS'pos_y'
p6
F-79.955835456062346
sS'isAlive'
p7
I01
sS'cumulativeEnergy'
p8
F48.911326576301974
sS'geno'
p9
(lp10
F2.2084619803167946
aF-0.19506310206501809
aF0.94394525236982119
aF4.3816930158124476
aF-0.98446591481377366
aF-0.11672226998691426
asS'accel_x'
p11
F0.44980690833551762
sS'accel_y'
p12
F-1.948762105854289
sS'visionAngle'
p13
I150
sS'maxAccel'
p14
I2
sS'maxVel'
p15
F0.5
sS'age'
p16
I150
sS'tailSize'
p17
F9.4775562854819189
sS'sexualgeno'
p18
(i__main__
Node
p19
(dp20
S'depth'
p21
I1
sS'right'
p22
(i__main__
Node
p23
(dp24
g21
I2
sg22
NsS'parent'
p25
g19
sS'float_size'
p26
S'indiv.getTailSize()'
p27
sS'float_bright'
p28
S'indiv.getNumPredatorsNeigh()'
p29
sS'left'
p30
Nsbsg25
Nsg26
S'+'
sg28
S'/'
sg30
(i__main__
Node
p31
(dp32
g21
I2
sg22
Nsg25
g19
sg26
S'indiv.getEnergy()'
p33
sg28
g29
sg30
NsbsbsS'tailBrigh'
p34
F8.6549288304795553
sS'maxSteering'
p35
I30
sS'energy'
p36
F0.91129710799147756
sS'lastScale'
p37
F14.612971079914775
sb.(i__main__
Data_mobile
p1
(dp2
S'vel_y'
p3
F-0.24981298215039568
sS'vel_x'
p4
F-0.033692124976873912
sS'pos_x'
p5
F19.245773744941687
sS'pos_y'
p6
F-81.388436627436107
sS'isAlive'
p7
I01
sS'cumulativeEnergy'
p8
F48.877721812722307
sS'geno'
p9
(lp10
F2.2084619803167946
aF-0.19506310206501809
aF0.94394525236982119
aF4.3816930158124476
aF-0.98446591481377366
aF-0.35087007670993731
asS'accel_x'
p11
F0.19526364564519549
sS'accel_y'
p12
F-1.9904452036389617
sS'visionAngle'
p13
I150
sS'maxAccel'
p14
I2
sS'maxVel'
p15
F0.5
sS'age'
p16
I400
sS'tailSize'
p17
F9.7832810829287027
sS'sexualgeno'
p18
(i__main__
Node
p19
(dp20
S'depth'
p21
I1
sS'right'
p22
(i__main__
Node
p23
(dp24
g21
I2
sg22
NsS'parent'
p25
g19
sS'float_size'
p26
S'indiv.getTailSize()'
p27
sS'float_bright'
p28
S'indiv.getNumPredatorsNeigh()'
p29
sS'left'
p30
Nsbsg25
Nsg26
S'+'
sg28
S'/'
sg30
(i__main__
Node
p31
(dp32
g21
I2
sg22
Nsg25
g19
sg26
S'indiv.getEnergy()'
p33
sg28
g29
sg30
NsbsbsS'tailBrigh'
p34
F1.767744934746377
sS'maxSteering'
p35
I30
sS'energy'
p36
F0.91848120848148862
sS'lastScale'
p37
F14.684812084814887
sb.(i__main__
Data_mobile
p1
(dp2
S'vel_y'
p3
F-0.10686834704580489
sS'vel_x'
p4
F-0.45138207142356074
sS'pos_x'
p5
F-13.834166356026961
sS'pos_y'
p6
F-81.293521317596273
sS'isAlive'
p7
I01
sS'cumulativeEnergy'
p8
F46.155259566063819
sS'geno'
p9
(lp10
F2.4217383588276622
aF-0.31368091668987341
aF0.94394525236982119
aF3.97944492805245
aF-0.61400023942896653
aF-0.57724825090310761
asS'accel_x'
p11
F0.27583577356281003
sS'accel_y'
p12
F1.9808873329957477
sS'visionAngle'
p13
I150
sS'maxAccel'
p14
I2
sS'maxVel'
p15
F0.5
sS'age'
p16
I100
sS'tailSize'
p17
F3.2220606149585063
sS'sexualgeno'
p18
(i__main__
Node
p19
(dp20
S'depth'
p21
I1
sS'right'
p22
(i__main__
Node
p23
(dp24
g21
I2
sg22
NsS'parent'
p25
g19
sS'float_size'
p26
S'indiv.getNumPredatorsNeigh()'
p27
sS'float_bright'
p28
S'indiv.getTailBrightness()'
p29
sS'left'
p30
Nsbsg25
Nsg26
S'+'
sg28
S'/'
sg30
(i__main__
Node
p31
(dp32
g21
I2
sg22
(i__main__
Node
p33
(dp34
g21
I3
sg22
Nsg25
g31
sg26
g27
sg28
g29
sg30
Nsbsg25
g19
sg26
S'+'
sg28
S'+'
sg30
(i__main__
Node
p35
(dp36
g21
I3
sg22
Nsg25
g31
sg26
S'indiv.distanceMatingSeason()'
p37
sg28
S'indiv.randF()'
p38
sg30
NsbsbsbsS'tailBrigh'
p39
F3.9266161138766509
sS'maxSteering'
p40
I30
sS'energy'
p41
F1
sS'lastScale'
p42
F15.5
sb.(i__main__
Data_mobile
p1
(dp2
S'vel_y'
p3
F0.066339838777363214
sS'vel_x'
p4
F0.28286622895321445
sS'pos_x'
p5
F65.806942969224153
sS'pos_y'
p6
F-39.954337464523576
sS'isAlive'
p7
I01
sS'cumulativeEnergy'
p8
F45.604966480640847
sS'geno'
p9
(lp10
F-3.2643228074360007
aF-0.31368091668987341
aF0.94394525236982119
aF4.3816930158124476
aF-1.1457400168393881
aF-0.57724825090310761
asS'accel_x'
p11
F0.51012365822339567
sS'accel_y'
p12
F0.37872560911813868
sS'visionAngle'
p13
I150
sS'maxAccel'
p14
I2
sS'maxVel'
p15
F0.5
sS'age'
p16
I200
sS'tailSize'
p17
F6.6422038216119397
sS'sexualgeno'
p18
(i__main__
Node
p19
(dp20
S'depth'
p21
I1
sS'right'
p22
(i__main__
Node
p23
(dp24
g21
I2
sg22
(i__main__
Node
p25
(dp26
g21
I3
sg22
NsS'parent'
p27
g23
sS'float_size'
p28
S'indiv.getNumPreysNeigh()'
p29
sS'float_bright'
p30
g29
sS'left'
p31
Nsbsg27
g19
sg28
S'+'
sg30
S'*'
sg31
(i__main__
Node
p32
(dp33
g21
I3
sg22
Nsg27
g23
sg28
S'indiv.distanceMatingSeason()'
p34
sg30
S'indiv.randF()'
p35
sg31
Nsbsbsg27
Nsg28
S'-'
sg30
S'+'
sg31
(i__main__
Node
p36
(dp37
g21
I2
sg22
(i__main__
Node
p38
(dp39
g21
I3
sg22
Nsg27
g36
sg28
S'indiv.getNumPredatorsNeigh()'
p40
sg30
g29
sg31
Nsbsg27
g19
sg28
S'-'
sg30
S'/'
sg31
(i__main__
Node
p41
(dp42
g21
I3
sg22
Nsg27
g36
sg28
S'indiv.getTailSize()'
p43
sg30
g29
sg31
NsbsbsbsS'tailBrigh'
p44
F4.8843510318618133
sS'maxSteering'
p45
I30
sS'energy'
p46
F0.60470474503837723
sS'lastScale'
p47
F11.547047450383772
sb.(i__main__
Data_mobile
p1
(dp2
S'vel_y'
p3
F-0.48864709982519744
sS'vel_x'
p4
F0.072210816798906063
sS'pos_x'
p5
F201.40003958756046
sS'pos_y'
p6
F-105.26065238806932
sS'isAlive'
p7
I01
sS'cumulativeEnergy'
p8
F39.786907291847029
sS'geno'
p9
(lp10
F2.5157544580873088
aF-0.1171271199096634
aF0.94394525236982119
aF4.0527373071413457
aF-0.68108265870697449
aF-0.57724825090310761
asS'accel_x'
p11
F1.6598057184052923
sS'accel_y'
p12
F-1.1158158347814799
sS'visionAngle'
p13
I150
sS'maxAccel'
p14
I2
sS'maxVel'
p15
F0.5
sS'age'
p16
I100
sS'tailSize'
p17
F1.302445331311084
sS'sexualgeno'
p18
(i__main__
Node
p19
(dp20
S'depth'
p21
I1
sS'right'
p22
(i__main__
Node
p23
(dp24
g21
I2
sg22
NsS'parent'
p25
g19
sS'float_size'
p26
S'indiv.getNumPredatorsNeigh()'
p27
sS'float_bright'
p28
S'indiv.getTailBrightness()'
p29
sS'left'
p30
Nsbsg25
Nsg26
S'+'
sg28
S'/'
sg30
(i__main__
Node
p31
(dp32
g21
I2
sg22
(i__main__
Node
p33
(dp34
g21
I3
sg22
Nsg25
g31
sg26
g27
sg28
g29
sg30
Nsbsg25
g19
sg26
S'+'
sg28
S'+'
sg30
(i__main__
Node
p35
(dp36
g21
I3
sg22
Nsg25
g31
sg26
S'indiv.distanceMatingSeason()'
p37
sg28
S'indiv.randF()'
p38
sg30
NsbsbsbsS'tailBrigh'
p39
F0.65928878683184422
sS'maxSteering'
p40
I30
sS'energy'
p41
F0.50775107288265642
sS'lastScale'
p42
F10.577510728826564
sb.(i__main__
Data_mobile
p1
(dp2
S'vel_y'
p3
F-0.019868618766307765
sS'vel_x'
p4
F0.48695703180719901
sS'pos_x'
p5
F72.175106926309766
sS'pos_y'
p6
F-90.420725624395828
sS'isAlive'
p7
I01
sS'cumulativeEnergy'
p8
F38.363419867606211
sS'geno'
p9
(lp10
F2.2084619803167946
aF-0.19506310206501809
aF1.0162959038363022
aF4.2667038301940181
aF-0.94719639190239757
aF-0.092572630119883148
asS'accel_x'
p11
F-0.46853611431952996
sS'accel_y'
p12
F-1.944344082095131
sS'visionAngle'
p13
I150
sS'maxAccel'
p14
I2
sS'maxVel'
p15
F0.5
sS'age'
p16
I50
sS'tailSize'
p17
F2.0671051767614346
sS'sexualgeno'
p18
(i__main__
Node
p19
(dp20
S'depth'
p21
I1
sS'right'
p22
(i__main__
Node
p23
(dp24
g21
I2
sg22
NsS'parent'
p25
g19
sS'float_size'
p26
S'indiv.getTailSize()'
p27
sS'float_bright'
p28
S'indiv.getNumPredatorsNeigh()'
p29
sS'left'
p30
Nsbsg25
Nsg26
S'+'
sg28
S'/'
sg30
(i__main__
Node
p31
(dp32
g21
I2
sg22
Nsg25
g19
sg26
S'indiv.getEnergy()'
p33
sg28
g29
sg30
NsbsbsS'tailBrigh'
p34
F1.6981058424405238
sS'maxSteering'
p35
I30
sS'energy'
p36
F1
sS'lastScale'
p37
F15.5
sb.(i__main__
Data_mobile
p1
(dp2
S'vel_y'
p3
F-0.33002342726667194
sS'vel_x'
p4
F-0.20658950552796174
sS'pos_x'
p5
F209.32219539768585
sS'pos_y'
p6
F-100.76560028592402
sS'isAlive'
p7
I01
sS'cumulativeEnergy'
p8
F32.417239964797545
sS'geno'
p9
(lp10
F2.4217383588276622
aF-0.31368091668987341
aF0.94394525236982119
aF3.97944492805245
aF-0.68108265870697449
aF-0.57724825090310761
asS'accel_x'
p11
F-0.42236238957346833
sS'accel_y'
p12
F-0.39347878601582426
sS'visionAngle'
p13
I150
sS'maxAccel'
p14
I2
sS'maxVel'
p15
F0.5
sS'age'
p16
I300
sS'tailSize'
p17
F4.7693569975923689
sS'sexualgeno'
p18
(i__main__
Node
p19
(dp20
S'depth'
p21
I1
sS'right'
p22
(i__main__
Node
p23
(dp24
g21
I2
sg22
NsS'parent'
p25
g19
sS'float_size'
p26
S'indiv.getNumPredatorsNeigh()'
p27
sS'float_bright'
p28
S'indiv.getTailBrightness()'
p29
sS'left'
p30
Nsbsg25
Nsg26
S'+'
sg28
S'/'
sg30
(i__main__
Node
p31
(dp32
g21
I2
sg22
(i__main__
Node
p33
(dp34
g21
I3
sg22
Nsg25
g31
sg26
g27
sg28
g29
sg30
Nsbsg25
g19
sg26
S'+'
sg28
S'+'
sg30
(i__main__
Node
p35
(dp36
g21
I3
sg22
Nsg25
g31
sg26
S'indiv.distanceMatingSeason()'
p37
sg28
S'indiv.randF()'
p38
sg30
NsbsbsbsS'tailBrigh'
p39
F1.2188601240559549
sS'maxSteering'
p40
I30
sS'energy'
p41
F0.17086189300103483
sS'lastScale'
p42
F7.2086189300103483
sb.(i__main__
Data_mobile
p1
(dp2
S'vel_y'
p3
F-0.35185954943872394
sS'vel_x'
p4
F-0.27353669815795084
sS'pos_x'
p5
F209.431258704953
sS'pos_y'
p6
F-103.29928660337413
sS'isAlive'
p7
I01
sS'cumulativeEnergy'
p8
F30.079271227494669
sS'geno'
p9
(lp10
F2.4217383588276622
aF-0.31368091668987341
aF0.94394525236982119
aF4.3816930158124476
aF-1.1457400168393881
aF-0.57724825090310761
asS'accel_x'
p11
F1.6220417549566761
sS'accel_y'
p12
F-1.1700344205095279
sS'visionAngle'
p13
I150
sS'maxAccel'
p14
I2
sS'maxVel'
p15
F0.5
sS'age'
p16
I300
sS'tailSize'
p17
F3.7184961045186782
sS'sexualgeno'
p18
(i__main__
Node
p19
(dp20
S'depth'
p21
I1
sS'right'
p22
(i__main__
Node
p23
(dp24
g21
I2
sg22
NsS'parent'
p25
g19
sS'float_size'
p26
S'indiv.getNumPredatorsNeigh()'
p27
sS'float_bright'
p28
S'indiv.getTailBrightness()'
p29
sS'left'
p30
Nsbsg25
Nsg26
S'+'
sg28
S'/'
sg30
(i__main__
Node
p31
(dp32
g21
I2
sg22
(i__main__
Node
p33
(dp34
g21
I3
sg22
Nsg25
g31
sg26
g27
sg28
S'indiv.getNumPreysNeigh()'
p35
sg30
Nsbsg25
g19
sg26
S'-'
sg28
S'/'
sg30
(i__main__
Node
p36
(dp37
g21
I3
sg22
Nsg25
g31
sg26
S'indiv.getTailSize()'
p38
sg28
g35
sg30
NsbsbsbsS'tailBrigh'
p39
F3.5981979205102208
sS'maxSteering'
p40
I30
sS'energy'
p41
F0.077037504241756288
sS'lastScale'
p42
F6.2703750424175624
sb.(i__main__
Data_mobile
p1
(dp2
S'vel_y'
p3
F-0.1268399721415317
sS'vel_x'
p4
F0.24074959303623167
sS'pos_x'
p5
F72.342620458879423
sS'pos_y'
p6
F-91.270039907355397
sS'isAlive'
p7
I01
sS'cumulativeEnergy'
p8
F29.355070772751873
sS'geno'
p9
(lp10
F2.4217383588276622
aF-0.31368091668987341
aF0.94394525236982119
aF4.3816930158124476
aF-0.98446591481377366
aF-0.35087007670993731
asS'accel_x'
p11
F-1.9867201886068611
sS'accel_y'
p12
F-0.076642344549508745
sS'visionAngle'
p13
I150
sS'maxAccel'
p14
I2
sS'maxVel'
p15
F0.5
sS'age'
p16
I50
sS'tailSize'
p17
F7.3323870582525554
sS'sexualgeno'
p18
(i__main__
Node
p19
(dp20
S'depth'
p21
I1
sS'right'
p22
(i__main__
Node
p23
(dp24
g21
I2
sg22
NsS'parent'
p25
g19
sS'float_size'
p26
S'indiv.getNumPredatorsNeigh()'
p27
sS'float_bright'
p28
S'indiv.getTailBrightness()'
p29
sS'left'
p30
Nsbsg25
Nsg26
S'+'
sg28
S'/'
sg30
(i__main__
Node
p31
(dp32
g22
Nsg25
g19
sg21
I2
sg26
S'indiv.randF()'
p33
sg28
S'indiv.getTailSize()'
p34
sg30
NsbsbsS'tailBrigh'
p35
F5.56938833650762
sS'maxSteering'
p36
I30
sS'energy'
p37
F1
sS'lastScale'
p38
F15.5
sb.(i__main__
Data_mobile
p1
(dp2
S'vel_y'
p3
F0.26075839091145303
sS'vel_x'
p4
F0.41705523284757645
sS'pos_x'
p5
F71.941315809943063
sS'pos_y'
p6
F-41.39934937759498
sS'isAlive'
p7
I01
sS'cumulativeEnergy'
p8
F21.93747669624609
sS'geno'
p9
(lp10
F2.7300224256211978
aF-0.65304615645449005
aF0.78279274973631818
aF4.7545364217550565
aF-0.94719639190239757
aF-0.57724825090310761
asS'accel_x'
p11
F-1.3209870778815396
sS'accel_y'
p12
F-1.5016634576595351
sS'visionAngle'
p13
I150
sS'maxAccel'
p14
I2
sS'maxVel'
p15
F0.5
sS'age'
p16
I50
sS'tailSize'
p17
F1.6079474591749854
sS'sexualgeno'
p18
(i__main__
Node
p19
(dp20
S'depth'
p21
I1
sS'right'
p22
(i__main__
Node
p23
(dp24
g21
I2
sg22
(i__main__
Node
p25
(dp26
g21
I3
sg22
NsS'parent'
p27
g23
sS'float_size'
p28
S'indiv.getNumPredatorsNeigh()'
p29
sS'float_bright'
p30
S'indiv.getTailBrightness()'
p31
sS'left'
p32
Nsbsg27
g19
sg28
S'+'
sg30
S'+'
sg32
(i__main__
Node
p33
(dp34
g21
I3
sg22
Nsg27
g23
sg28
S'indiv.distanceMatingSeason()'
p35
sg30
S'indiv.randF()'
p36
sg32
Nsbsbsg27
Nsg28
S'+'
sg30
S'/'
sg32
(i__main__
Node
p37
(dp38
g21
I2
sg22
Nsg27
g19
sg28
S'indiv.getNumPreysNeigh()'
p39
sg30
S'indiv.getTailSize()'
p40
sg32
NsbsbsS'tailBrigh'
p41
F7.8717091948155318
sS'maxSteering'
p42
I30
sS'energy'
p43
F0.97504172489961582
sS'lastScale'
p44
F15.250417248996159
sb.(i__main__
Data_mobile
p1
(dp2
S'vel_y'
p3
F-0.23411818019964317
sS'vel_x'
p4
F-0.10019590909878108
sS'pos_x'
p5
F71.381432445517504
sS'pos_y'
p6
F-42.229225421583614
sS'isAlive'
p7
I01
sS'cumulativeEnergy'
p8
F21.713083258534834
sS'geno'
p9
(lp10
F2.2084619803167946
aF-0.69570279178863403
aF0.33243654881084428
aF3.4862110053319726
aF-0.68108265870697449
aF-0.57724825090310761
asS'accel_x'
p11
F0.21462324436271663
sS'accel_y'
p12
F1.3482388273179859
sS'visionAngle'
p13
I150
sS'maxAccel'
p14
I2
sS'maxVel'
p15
F0.5
sS'age'
p16
I50
sS'tailSize'
p17
F8.964133331225284
sS'sexualgeno'
p18
(i__main__
Node
p19
(dp20
S'depth'
p21
I1
sS'right'
p22
(i__main__
Node
p23
(dp24
g21
I2
sg22
NsS'parent'
p25
g19
sS'float_size'
p26
S'indiv.getTailSize()'
p27
sS'float_bright'
p28
S'indiv.getNumPredatorsNeigh()'
p29
sS'left'
p30
Nsbsg25
Nsg26
S'+'
sg28
S'/'
sg30
(i__main__
Node
p31
(dp32
g21
I2
sg22
Nsg25
g19
sg26
S'indiv.getEnergy()'
p33
sg28
g29
sg30
NsbsbsS'tailBrigh'
p34
F4.7681628341477644
sS'maxSteering'
p35
I30
sS'energy'
p36
F1
sS'lastScale'
p37
F15.5
sb.(i__main__
Data_mobile
p1
(dp2
S'vel_y'
p3
F-0.15744218863244575
sS'vel_x'
p4
F-0.20197875525480447
sS'pos_x'
p5
F70.853679248791309
sS'pos_y'
p6
F-42.086223681439286
sS'isAlive'
p7
I01
sS'cumulativeEnergy'
p8
F16.519855319984625
sS'geno'
p9
(lp10
F2.2866595637425551
aF-0.19506310206501809
aF0.94394525236982119
aF4.3816930158124476
aF-0.98446591481377366
aF-0.11672226998691426
asS'accel_x'
p11
F1.6475951261265405
sS'accel_y'
p12
F1.1337681863432527
sS'visionAngle'
p13
I150
sS'maxAccel'
p14
I2
sS'maxVel'
p15
F0.5
sS'age'
p16
I50
sS'tailSize'
p17
F8.6897004024266629
sS'sexualgeno'
p18
(i__main__
Node
p19
(dp20
S'depth'
p21
I1
sS'right'
p22
(i__main__
Node
p23
(dp24
g21
I2
sg22
(i__main__
Node
p25
(dp26
g21
I3
sg22
NsS'parent'
p27
g23
sS'float_size'
p28
S'indiv.getNumPredatorsNeigh()'
p29
sS'float_bright'
p30
S'indiv.getNumPreysNeigh()'
p31
sS'left'
p32
Nsbsg27
g19
sg28
S'-'
sg30
S'/'
sg32
(i__main__
Node
p33
(dp34
g21
I3
sg22
Nsg27
g23
sg28
S'indiv.getTailSize()'
p35
sg30
g31
sg32
Nsbsbsg27
Nsg28
S'+'
sg30
S'/'
sg32
(i__main__
Node
p36
(dp37
g21
I2
sg22
Nsg27
g19
sg28
g31
sg30
g35
sg32
NsbsbsS'tailBrigh'
p38
F4.9792285566256735
sS'maxSteering'
p39
I30
sS'energy'
p40
F0.80085309729710752
sS'lastScale'
p41
F13.508530972971075
sb.(i__main__
Data_mobile
p1
(dp2
S'vel_y'
p3
F-0.10984136871791485
sS'vel_x'
p4
F0.044877952430924552
sS'pos_x'
p5
F18.586958981678407
sS'pos_y'
p6
F-76.30104326128361
sS'isAlive'
p7
I01
sS'cumulativeEnergy'
p8
F0.5
sS'geno'
p9
(lp10
F2.4217383588276622
aF-0.31368091668987341
aF0.94394525236982119
aF3.97944492805245
aF-0.98446591481377366
aF-0.35087007670993731
asS'accel_x'
p11
F0
sS'accel_y'
p12
F0
sS'visionAngle'
p13
I150
sS'maxAccel'
p14
I2
sS'maxVel'
p15
F0.5
sS'age'
p16
I0
sS'tailSize'
p17
F7.3077459945624046
sS'sexualgeno'
p18
(i__main__
Node
p19
(dp20
S'depth'
p21
I1
sS'right'
p22
(i__main__
Node
p23
(dp24
g21
I2
sg22
(i__main__
Node
p25
(dp26
g21
I3
sg22
NsS'parent'
p27
g23
sS'float_size'
p28
S'indiv.getNumPreysNeigh()'
p29
sS'float_bright'
p30
g29
sS'left'
p31
Nsbsg27
g19
sg28
S'+'
sg30
S'*'
sg31
(i__main__
Node
p32
(dp33
g21
I3
sg22
Nsg27
g23
sg28
S'indiv.distanceMatingSeason()'
p34
sg30
S'indiv.randF()'
p35
sg31
Nsbsbsg27
Nsg28
S'+'
sg30
S'/'
sg31
(i__main__
Node
p36
(dp37
g21
I2
sg22
Nsg27
g19
sg28
g29
sg30
S'indiv.getTailSize()'
p38
sg31
NsbsbsS'tailBrigh'
p39
F7.4536746317247236
sS'maxSteering'
p40
I30
sS'energy'
p41
F0.5
sS'lastScale'
p42
F5.5
sb.(i__main__
Data_mobile
p1
(dp2
S'vel_y'
p3
F-0.23142399289546722
sS'vel_x'
p4
F0.17605370182696739
sS'pos_x'
p5
F43.16595608821298
sS'pos_y'
p6
F-63.206738301588899
sS'isAlive'
p7
I01
sS'cumulativeEnergy'
p8
F0.5
sS'geno'
p9
(lp10
F2.2084619803167946
aF-0.19506310206501809
aF1.0162959038363022
aF4.2667038301940181
aF-0.94719639190239757
aF-0.8553226620145773
asS'accel_x'
p11
F0
sS'accel_y'
p12
F0
sS'visionAngle'
p13
I150
sS'maxAccel'
p14
I2
sS'maxVel'
p15
F0.5
sS'age'
p16
I0
sS'tailSize'
p17
F6.3250341242536123
sS'sexualgeno'
p18
(i__main__
Node
p19
(dp20
S'depth'
p21
I1
sS'right'
p22
(i__main__
Node
p23
(dp24
g21
I2
sg22
NsS'parent'
p25
g19
sS'float_size'
p26
S'indiv.getTailSize()'
p27
sS'float_bright'
p28
S'indiv.getNumPredatorsNeigh()'
p29
sS'left'
p30
Nsbsg25
Nsg26
S'+'
sg28
S'/'
sg30
(i__main__
Node
p31
(dp32
g21
I2
sg22
Nsg25
g19
sg26
S'indiv.getEnergy()'
p33
sg28
g29
sg30
NsbsbsS'tailBrigh'
p34
F0.0056591137629580235
sS'maxSteering'
p35
I30
sS'energy'
p36
F0.5
sS'lastScale'
p37
F5.5
sb.(i__main__
Data_mobile
p1
(dp2
S'vel_y'
p3
F-0.12214687589853968
sS'vel_x'
p4
F0.062127847381559492
sS'pos_x'
p5
F-125.65288328647917
sS'pos_y'
p6
F-5.6639039994326827
sS'isAlive'
p7
I01
sS'cumulativeEnergy'
p8
F0.5
sS'geno'
p9
(lp10
F2.4217383588276622
aF-0.31368091668987341
aF0.94394525236982119
aF4.3816930158124476
aF-0.68108265870697449
aF-0.57724825090310761
asS'accel_x'
p11
F0
sS'accel_y'
p12
F0
sS'visionAngle'
p13
I150
sS'maxAccel'
p14
I2
sS'maxVel'
p15
F0.5
sS'age'
p16
I0
sS'tailSize'
p17
F5.9828651007541387
sS'sexualgeno'
p18
(i__main__
Node
p19
(dp20
S'depth'
p21
I1
sS'right'
p22
(i__main__
Node
p23
(dp24
g21
I2
sg22
(i__main__
Node
p25
(dp26
g21
I3
sg22
NsS'parent'
p27
g23
sS'float_size'
p28
S'indiv.getNumPredatorsNeigh()'
p29
sS'float_bright'
p30
S'indiv.getTailBrightness()'
p31
sS'left'
p32
Nsbsg27
g19
sg28
S'+'
sg30
S'+'
sg32
(i__main__
Node
p33
(dp34
g21
I3
sg22
Nsg27
g23
sg28
S'indiv.distanceMatingSeason()'
p35
sg30
S'indiv.randF()'
p36
sg32
Nsbsbsg27
Nsg28
S'+'
sg30
S'/'
sg32
(i__main__
Node
p37
(dp38
g21
I2
sg22
Nsg27
g19
sg28
S'indiv.getNumPreysNeigh()'
p39
sg30
S'indiv.getTailSize()'
p40
sg32
NsbsbsS'tailBrigh'
p41
F8.5676684029506021
sS'maxSteering'
p42
I30
sS'energy'
p43
F0.5
sS'lastScale'
p44
F5.5
sb.(i__main__
Data_mobile
p1
(dp2
S'vel_y'
p3
F-0.36964661220199979
sS'vel_x'
p4
F0.094913429000247185
sS'pos_x'
p5
F-120.76322102115931
sS'pos_y'
p6
F-4.8258079591441714
sS'isAlive'
p7
I01
sS'cumulativeEnergy'
p8
F0.5
sS'geno'
p9
(lp10
F2.4217383588276622
aF-0.31368091668987341
aF0.94394525236982119
aF3.97944492805245
aF-0.94719639190239757
aF-0.65909196324075459
asS'accel_x'
p11
F0
sS'accel_y'
p12
F0
sS'visionAngle'
p13
I150
sS'maxAccel'
p14
I2
sS'maxVel'
p15
F0.5
sS'age'
p16
I0
sS'tailSize'
p17
F1.0288216035216813
sS'sexualgeno'
p18
(i__main__
Node
p19
(dp20
S'depth'
p21
I1
sS'right'
p22
(i__main__
Node
p23
(dp24
g21
I2
sg22
(i__main__
Node
p25
(dp26
g21
I3
sg22
NsS'parent'
p27
g23
sS'float_size'
p28
S'indiv.getNumPredatorsNeigh()'
p29
sS'float_bright'
p30
S'indiv.getTailBrightness()'
p31
sS'left'
p32
Nsbsg27
g19
sg28
S'+'
sg30
S'+'
sg32
(i__main__
Node
p33
(dp34
g21
I3
sg22
Nsg27
g23
sg28
S'indiv.distanceMatingSeason()'
p35
sg30
S'indiv.randF()'
p36
sg32
Nsbsbsg27
Nsg28
S'+'
sg30
S'/'
sg32
(i__main__
Node
p37
(dp38
g21
I2
sg22
Nsg27
g19
sg28
S'indiv.getNumPreysNeigh()'
p39
sg30
S'indiv.getTailSize()'
p40
sg32
NsbsbsS'tailBrigh'
p41
F0.64457447793290767
sS'maxSteering'
p42
I30
sS'energy'
p43
F0.5
sS'lastScale'
p44
F5.5
sb.(i__main__
Data_mobile
p1
(dp2
S'vel_y'
p3
F0.31745188958280385
sS'vel_x'
p4
F0.049219217191140918
sS'pos_x'
p5
F-2.7733850747433193
sS'pos_y'
p6
F14.174472181286603
sS'isAlive'
p7
I01
sS'cumulativeEnergy'
p8
F0.5
sS'geno'
p9
(lp10
F2.4217383588276622
aF-0.31368091668987341
aF0.94394525236982119
aF4.3816930158124476
aF-0.94719639190239757
aF-0.65909196324075459
asS'accel_x'
p11
F0
sS'accel_y'
p12
F0
sS'visionAngle'
p13
I150
sS'maxAccel'
p14
I2
sS'maxVel'
p15
F0.5
sS'age'
p16
I0
sS'tailSize'
p17
F2.5778246367661639
sS'sexualgeno'
p18
(i__main__
Node
p19
(dp20
S'depth'
p21
I1
sS'right'
p22
(i__main__
Node
p23
(dp24
g21
I2
sg22
NsS'parent'
p25
g19
sS'float_size'
p26
S'indiv.getNumPredatorsNeigh()'
p27
sS'float_bright'
p28
S'indiv.getTailBrightness()'
p29
sS'left'
p30
Nsbsg25
Nsg26
S'+'
sg28
S'/'
sg30
(i__main__
Node
p31
(dp32
g21
I2
sg22
Nsg25
g19
sg26
S'indiv.randF()'
p33
sg28
S'indiv.getTailSize()'
p34
sg30
NsbsbsS'tailBrigh'
p35
F6.7458078355062199
sS'maxSteering'
p36
I30
sS'energy'
p37
F0.5
sS'lastScale'
p38
F5.5
sb.(i__main__
Data_mobile
p1
(dp2
S'vel_y'
p3
F-0.2350593901653438
sS'vel_x'
p4
F0.11615750566147734
sS'pos_x'
p5
F12.134179856313164
sS'pos_y'
p6
F-34.095291031300306
sS'isAlive'
p7
I01
sS'cumulativeEnergy'
p8
F0.5
sS'geno'
p9
(lp10
F2.4217383588276622
aF-0.31368091668987341
aF0.78279274973631818
aF4.2667038301940181
aF-0.94719639190239757
aF-0.092572630119883148
asS'accel_x'
p11
F0
sS'accel_y'
p12
F0
sS'visionAngle'
p13
I150
sS'maxAccel'
p14
I2
sS'maxVel'
p15
F0.5
sS'age'
p16
I0
sS'tailSize'
p17
F7.9705458138370577
sS'sexualgeno'
p18
(i__main__
Node
p19
(dp20
S'depth'
p21
I1
sS'right'
p22
(i__main__
Node
p23
(dp24
g21
I2
sg22
NsS'parent'
p25
g19
sS'float_size'
p26
S'indiv.getNumPredatorsNeigh()'
p27
sS'float_bright'
p28
S'indiv.getTailBrightness()'
p29
sS'left'
p30
Nsbsg25
Nsg26
S'+'
sg28
S'/'
sg30
(i__main__
Node
p31
(dp32
g21
I2
sg22
(i__main__
Node
p33
(dp34
g21
I3
sg22
Nsg25
g31
sg26
g27
sg28
S'indiv.getNumPreysNeigh()'
p35
sg30
Nsbsg25
g19
sg26
S'-'
sg28
S'/'
sg30
(i__main__
Node
p36
(dp37
g21
I3
sg22
Nsg25
g31
sg26
S'indiv.getTailSize()'
p38
sg28
g35
sg30
NsbsbsbsS'tailBrigh'
p39
F7.6803556116861413
sS'maxSteering'
p40
I30
sS'energy'
p41
F0.5
sS'lastScale'
p42
F5.5
sb.(i__main__
Data_mobile
p1
(dp2
S'vel_y'
p3
F0.36675850780924946
sS'vel_x'
p4
F0.027963560866693195
sS'pos_x'
p5
F61.136636408597717
sS'pos_y'
p6
F-75.539577241497085
sS'isAlive'
p7
I01
sS'cumulativeEnergy'
p8
F0.5
sS'geno'
p9
(lp10
F2.4494527698932944
aF-0.31368091668987341
aF0.94394525236982119
aF4.3816930158124476
aF-0.98446591481377366
aF-0.35087007670993731
asS'accel_x'
p11
F0
sS'accel_y'
p12
F0
sS'visionAngle'
p13
I150
sS'maxAccel'
p14
I2
sS'maxVel'
p15
F0.5
sS'age'
p16
I0
sS'tailSize'
p17
F3.1723975633076726
sS'sexualgeno'
p18
(i__main__
Node
p19
(dp20
S'depth'
p21
I1
sS'right'
p22
(i__main__
Node
p23
(dp24
g21
I2
sg22
(i__main__
Node
p25
(dp26
g21
I3
sg22
NsS'parent'
p27
g23
sS'float_size'
p28
S'indiv.getNumPredatorsNeigh()'
p29
sS'float_bright'
p30
S'indiv.getTailBrightness()'
p31
sS'left'
p32
Nsbsg27
g19
sg28
S'+'
sg30
S'+'
sg32
(i__main__
Node
p33
(dp34
g21
I3
sg22
Nsg27
g23
sg28
S'indiv.distanceMatingSeason()'
p35
sg30
S'indiv.randF()'
p36
sg32
Nsbsbsg27
Nsg28
S'+'
sg30
S'/'
sg32
(i__main__
Node
p37
(dp38
g21
I2
sg22
Nsg27
g19
sg28
S'indiv.getNumPreysNeigh()'
p39
sg30
S'indiv.getTailSize()'
p40
sg32
NsbsbsS'tailBrigh'
p41
F9.4631423193355904
sS'maxSteering'
p42
I30
sS'energy'
p43
F0.5
sS'lastScale'
p44
F5.5
sb.(i__main__
Data_mobile
p1
(dp2
S'vel_y'
p3
F0.19466282057867779
sS'vel_x'
p4
F-0.012222793049947819
sS'pos_x'
p5
F72.157136250698997
sS'pos_y'
p6
F-91.008818506963479
sS'isAlive'
p7
I01
sS'cumulativeEnergy'
p8
F0.5
sS'geno'
p9
(lp10
F2.6905188484586167
aF-0.1171271199096634
aF0.94394525236982119
aF4.3816930158124476
aF-0.98446591481377366
aF-0.35087007670993731
asS'accel_x'
p11
F0
sS'accel_y'
p12
F0
sS'visionAngle'
p13
I150
sS'maxAccel'
p14
I2
sS'maxVel'
p15
F0.5
sS'age'
p16
I0
sS'tailSize'
p17
F8.5727557837069863
sS'sexualgeno'
p18
(i__main__
Node
p19
(dp20
S'depth'
p21
I1
sS'right'
p22
(i__main__
Node
p23
(dp24
g21
I2
sg22
NsS'parent'
p25
g19
sS'float_size'
p26
S'indiv.getNumPredatorsNeigh()'
p27
sS'float_bright'
p28
S'indiv.getTailBrightness()'
p29
sS'left'
p30
Nsbsg25
Nsg26
S'+'
sg28
S'/'
sg30
(i__main__
Node
p31
(dp32
g21
I2
sg22
(i__main__
Node
p33
(dp34
g21
I3
sg22
Nsg25
g31
sg26
S'indiv.getNumPreysNeigh()'
p35
sg28
g35
sg30
Nsbsg25
g19
sg26
S'+'
sg28
S'*'
sg30
(i__main__
Node
p36
(dp37
g21
I3
sg22
Nsg25
g31
sg26
S'indiv.distanceMatingSeason()'
p38
sg28
S'indiv.randF()'
p39
sg30
NsbsbsbsS'tailBrigh'
p40
F1.543628336681161
sS'maxSteering'
p41
I30
sS'energy'
p42
F0.5
sS'lastScale'
p43
F5.5
sb.(i__main__
Data_mobile
p1
(dp2
S'vel_y'
p3
F-0.37111991887394935
sS'vel_x'
p4
F0.093873009039290287
sS'pos_x'
p5
F-56.228453846808677
sS'pos_y'
p6
F-55.760355645704635
sS'isAlive'
p7
I01
sS'cumulativeEnergy'
p8
F0.5
sS'geno'
p9
(lp10
F2.6905188484586167
aF-0.1171271199096634
aF0.94394525236982119
aF4.3816930158124476
aF-0.68108265870697449
aF-0.57724825090310761
asS'accel_x'
p11
F0
sS'accel_y'
p12
F0
sS'visionAngle'
p13
I150
sS'maxAccel'
p14
I2
sS'maxVel'
p15
F0.5
sS'age'
p16
I0
sS'tailSize'
p17
F4.3145982715840203
sS'sexualgeno'
p18
(i__main__
Node
p19
(dp20
S'depth'
p21
I1
sS'right'
p22
(i__main__
Node
p23
(dp24
g21
I2
sg22
NsS'parent'
p25
g19
sS'float_size'
p26
S'indiv.getNumPredatorsNeigh()'
p27
sS'float_bright'
p28
S'indiv.getTailBrightness()'
p29
sS'left'
p30
Nsbsg25
Nsg26
S'+'
sg28
S'/'
sg30
(i__main__
Node
p31
(dp32
g21
I2
sg22
(i__main__
Node
p33
(dp34
g21
I3
sg22
Nsg25
g31
sg26
g27
sg28
g29
sg30
Nsbsg25
g19
sg26
S'+'
sg28
S'+'
sg30
(i__main__
Node
p35
(dp36
g21
I3
sg22
Nsg25
g31
sg26
S'indiv.distanceMatingSeason()'
p37
sg28
S'indiv.randF()'
p38
sg30
NsbsbsbsS'tailBrigh'
p39
F1.670799515393222
sS'maxSteering'
p40
I30
sS'energy'
p41
F0.5
sS'lastScale'
p42
F5.5
sb.(i__main__
Data_mobile
p1
(dp2
S'vel_y'
p3
F0.17371915141311978
sS'vel_x'
p4
F0.0042565971207668973
sS'pos_x'
p5
F58.758778940703337
sS'pos_y'
p6
F-72.139623690853909
sS'isAlive'
p7
I01
sS'cumulativeEnergy'
p8
F0.5
sS'geno'
p9
(lp10
F2.4217383588276622
aF-0.31368091668987341
aF0.94394525236982119
aF4.7960063515179705
aF-0.94719639190239757
aF-0.57724825090310761
asS'accel_x'
p11
F0
sS'accel_y'
p12
F0
sS'visionAngle'
p13
I150
sS'maxAccel'
p14
I2
sS'maxVel'
p15
F0.5
sS'age'
p16
I0
sS'tailSize'
p17
F8.2412812765523746
sS'sexualgeno'
p18
(i__main__
Node
p19
(dp20
S'depth'
p21
I1
sS'right'
p22
(i__main__
Node
p23
(dp24
g21
I2
sg22
NsS'parent'
p25
g19
sS'float_size'
p26
S'indiv.getNumPredatorsNeigh()'
p27
sS'float_bright'
p28
S'indiv.getTailBrightness()'
p29
sS'left'
p30
Nsbsg25
Nsg26
S'+'
sg28
S'/'
sg30
(i__main__
Node
p31
(dp32
g21
I2
sg22
Nsg25
g19
sg26
S'indiv.randF()'
p33
sg28
S'indiv.getTailSize()'
p34
sg30
NsbsbsS'tailBrigh'
p35
F2.9719921111021619
sS'maxSteering'
p36
I30
sS'energy'
p37
F0.5
sS'lastScale'
p38
F5.5
sb.(i__main__
Data_mobile
p1
(dp2
S'vel_y'
p3
I0
sS'vel_x'
p4
I0
sS'pos_x'
p5
I-9579
sS'pos_y'
p6
I9779
sS'isAlive'
p7
I00
sS'cumulativeEnergy'
p8
F0.5
sS'geno'
p9
(lp10
F2.4217383588276622
aF-0.31368091668987341
aF0.78279274973631818
aF4.2667038301940181
aF-0.94719639190239757
aF-0.57724825090310761
asS'accel_x'
p11
F0
sS'accel_y'
p12
F0
sS'visionAngle'
p13
I150
sS'maxAccel'
p14
I2
sS'maxVel'
p15
F0.5
sS'age'
p16
I0
sS'tailSize'
p17
F6.9872950376433227
sS'sexualgeno'
p18
(i__main__
Node
p19
(dp20
S'depth'
p21
I1
sS'right'
p22
(i__main__
Node
p23
(dp24
g21
I2
sg22
(i__main__
Node
p25
(dp26
g21
I3
sg22
NsS'parent'
p27
g23
sS'float_size'
p28
S'indiv.getNumPredatorsNeigh()'
p29
sS'float_bright'
p30
S'indiv.getTailBrightness()'
p31
sS'left'
p32
Nsbsg27
g19
sg28
S'+'
sg30
S'+'
sg32
(i__main__
Node
p33
(dp34
g21
I3
sg22
Nsg27
g23
sg28
S'indiv.distanceMatingSeason()'
p35
sg30
S'indiv.randF()'
p36
sg32
Nsbsbsg27
Nsg28
S'+'
sg30
S'/'
sg32
(i__main__
Node
p37
(dp38
g21
I2
sg22
Nsg27
g19
sg28
S'indiv.getNumPreysNeigh()'
p39
sg30
S'indiv.getTailSize()'
p40
sg32
NsbsbsS'tailBrigh'
p41
F1.0522405280132718
sS'maxSteering'
p42
I30
sS'energy'
p43
F0.5
sS'lastScale'
p44
F5.5
sb.(i__main__
Data_mobile
p1
(dp2
S'vel_y'
p3
I0
sS'vel_x'
p4
I0
sS'pos_x'
p5
I-9579
sS'pos_y'
p6
I9779
sS'isAlive'
p7
I00
sS'cumulativeEnergy'
p8
F0.5
sS'geno'
p9
(lp10
F2.4217383588276622
aF-0.65304615645449005
aF0.42678521340023978
aF3.9175525930612425
aF0.90310558121730389
aF-0.19423332600555099
asS'accel_x'
p11
F0
sS'accel_y'
p12
F0
sS'visionAngle'
p13
I150
sS'maxAccel'
p14
I2
sS'maxVel'
p15
F0.5
sS'age'
p16
I0
sS'tailSize'
p17
F2.4773246758727705
sS'sexualgeno'
p18
(i__main__
Node
p19
(dp20
S'depth'
p21
I1
sS'right'
p22
(i__main__
Node
p23
(dp24
g21
I2
sg22
(i__main__
Node
p25
(dp26
g21
I3
sg22
NsS'parent'
p27
g23
sS'float_size'
p28
S'indiv.getNumPredatorsNeigh()'
p29
sS'float_bright'
p30
S'indiv.getTailBrightness()'
p31
sS'left'
p32
Nsbsg27
g19
sg28
S'+'
sg30
S'+'
sg32
(i__main__
Node
p33
(dp34
g21
I3
sg22
Nsg27
g23
sg28
S'indiv.distanceMatingSeason()'
p35
sg30
S'indiv.randF()'
p36
sg32
Nsbsbsg27
Nsg28
S'+'
sg30
S'/'
sg32
(i__main__
Node
p37
(dp38
g21
I2
sg22
Nsg27
g19
sg28
S'indiv.getNumPreysNeigh()'
p39
sg30
S'indiv.getTailSize()'
p40
sg32
NsbsbsS'tailBrigh'
p41
F2.5925565835895226
sS'maxSteering'
p42
I30
sS'energy'
p43
F0.5
sS'lastScale'
p44
F5.5
sb.(i__main__
Data_mobile
p1
(dp2
S'vel_y'
p3
I0
sS'vel_x'
p4
I0
sS'pos_x'
p5
I-9579
sS'pos_y'
p6
I9779
sS'isAlive'
p7
I00
sS'cumulativeEnergy'
p8
F0.5
sS'geno'
p9
(lp10
F2.4217383588276622
aF-0.31368091668987341
aF0.94394525236982119
aF3.97944492805245
aF-0.94719639190239757
aF-0.57724825090310761
asS'accel_x'
p11
F0
sS'accel_y'
p12
F0
sS'visionAngle'
p13
I150
sS'maxAccel'
p14
I2
sS'maxVel'
p15
F0.5
sS'age'
p16
I0
sS'tailSize'
p17
F7.5319938691074571
sS'sexualgeno'
p18
(i__main__
Node
p19
(dp20
S'depth'
p21
I1
sS'right'
p22
(i__main__
Node
p23
(dp24
g21
I2
sg22
NsS'parent'
p25
g19
sS'float_size'
p26
S'indiv.getNumPredatorsNeigh()'
p27
sS'float_bright'
p28
S'indiv.getTailBrightness()'
p29
sS'left'
p30
Nsbsg25
Nsg26
S'+'
sg28
S'/'
sg30
(i__main__
Node
p31
(dp32
g22
(i__main__
Node
p33
(dp34
g22
(i__main__
Node
p35
(dp36
g22
Nsg25
g33
sg21
I4
sg26
g29
sg28
S'indiv.randF()'
p37
sg30
Nsbsg25
g31
sg21
I3
sg26
S'-'
sg28
S'+'
sg30
(i__main__
Node
p38
(dp39
g22
Nsg25
g33
sg21
I4
sg26
g27
sg28
S'indiv.getNumPreysNeigh()'
p40
sg30
Nsbsbsg25
g19
sg21
I2
sg26
S'+'
sg28
S'-'
sg30
(i__main__
Node
p41
(dp42
g22
(i__main__
Node
p43
(dp44
g22
Nsg25
g41
sg21
I4
sg26
S'indiv.distanceMatingSeason()'
p45
sg28
S'indiv.getEnergy()'
p46
sg30
Nsbsg25
g31
sg21
I3
sg26
S'-'
sg28
S'-'
sg30
(i__main__
Node
p47
(dp48
g22
Nsg25
g41
sg21
I4
sg26
g40
sg28
g45
sg30
NsbsbsbsbsS'tailBrigh'
p49
F0.87363662301791267
sS'maxSteering'
p50
I30
sS'energy'
p51
F0.5
sS'lastScale'
p52
F5.5
sb.(i__main__
Data_mobile
p1
(dp2
S'vel_y'
p3
I0
sS'vel_x'
p4
I0
sS'pos_x'
p5
I-9579
sS'pos_y'
p6
I9779
sS'isAlive'
p7
I00
sS'cumulativeEnergy'
p8
F0.5
sS'geno'
p9
(lp10
F2.4217383588276622
aF-0.31368091668987341
aF0.78279274973631818
aF4.2667038301940181
aF-0.94719639190239757
aF-0.57724825090310761
asS'accel_x'
p11
F0
sS'accel_y'
p12
F0
sS'visionAngle'
p13
I150
sS'maxAccel'
p14
I2
sS'maxVel'
p15
F0.5
sS'age'
p16
I0
sS'tailSize'
p17
F6.7570056547102304
sS'sexualgeno'
p18
(i__main__
Node
p19
(dp20
S'depth'
p21
I1
sS'right'
p22
(i__main__
Node
p23
(dp24
g21
I2
sg22
NsS'parent'
p25
g19
sS'float_size'
p26
S'indiv.getNumPredatorsNeigh()'
p27
sS'float_bright'
p28
S'indiv.getTailBrightness()'
p29
sS'left'
p30
Nsbsg25
Nsg26
S'+'
sg28
S'/'
sg30
(i__main__
Node
p31
(dp32
g21
I2
sg22
(i__main__
Node
p33
(dp34
g21
I3
sg22
Nsg25
g31
sg26
g27
sg28
g29
sg30
Nsbsg25
g19
sg26
S'+'
sg28
S'+'
sg30
(i__main__
Node
p35
(dp36
g21
I3
sg22
Nsg25
g31
sg26
S'indiv.distanceMatingSeason()'
p37
sg28
S'indiv.randF()'
p38
sg30
NsbsbsbsS'tailBrigh'
p39
F0.69443078167424233
sS'maxSteering'
p40
I30
sS'energy'
p41
F0.5
sS'lastScale'
p42
F5.5
sb.(i__main__
Data_mobile
p1
(dp2
S'vel_y'
p3
I0
sS'vel_x'
p4
I0
sS'pos_x'
p5
I-9579
sS'pos_y'
p6
I9779
sS'isAlive'
p7
I00
sS'cumulativeEnergy'
p8
F0.5
sS'geno'
p9
(lp10
F2.4217383588276622
aF-0.65304615645449005
aF0.42678521340023978
aF3.9175525930612425
aF0.90310558121730389
aF-0.092572630119883148
asS'accel_x'
p11
F0
sS'accel_y'
p12
F0
sS'visionAngle'
p13
I150
sS'maxAccel'
p14
I2
sS'maxVel'
p15
F0.5
sS'age'
p16
I0
sS'tailSize'
p17
F8.1642255877128669
sS'sexualgeno'
p18
(i__main__
Node
p19
(dp20
S'depth'
p21
I1
sS'right'
p22
(i__main__
Node
p23
(dp24
g21
I2
sg22
NsS'parent'
p25
g19
sS'float_size'
p26
S'indiv.getNumPredatorsNeigh()'
p27
sS'float_bright'
p28
S'indiv.getTailBrightness()'
p29
sS'left'
p30
Nsbsg25
Nsg26
S'+'
sg28
S'/'
sg30
(i__main__
Node
p31
(dp32
g21
I2
sg22
(i__main__
Node
p33
(dp34
g21
I3
sg22
Nsg25
g31
sg26
g27
sg28
S'indiv.getNumPreysNeigh()'
p35
sg30
Nsbsg25
g19
sg26
S'-'
sg28
S'/'
sg30
(i__main__
Node
p36
(dp37
g21
I3
sg22
Nsg25
g31
sg26
S'indiv.getTailSize()'
p38
sg28
g35
sg30
NsbsbsbsS'tailBrigh'
p39
F4.9390749682208845
sS'maxSteering'
p40
I30
sS'energy'
p41
F0.5
sS'lastScale'
p42
F5.5
sb.(i__main__
Data_mobile
p1
(dp2
S'vel_y'
p3
I0
sS'vel_x'
p4
I0
sS'pos_x'
p5
I-9579
sS'pos_y'
p6
I9779
sS'isAlive'
p7
I00
sS'cumulativeEnergy'
p8
F0.5
sS'geno'
p9
(lp10
F2.4217383588276622
aF-0.31368091668987341
aF0.78279274973631818
aF4.2667038301940181
aF-0.94719639190239757
aF-0.092572630119883148
asS'accel_x'
p11
F0
sS'accel_y'
p12
F0
sS'visionAngle'
p13
I150
sS'maxAccel'
p14
I2
sS'maxVel'
p15
F0.5
sS'age'
p16
I0
sS'tailSize'
p17
F6.4795724689212228
sS'sexualgeno'
p18
(i__main__
Node
p19
(dp20
S'depth'
p21
I1
sS'right'
p22
(i__main__
Node
p23
(dp24
g21
I2
sg22
NsS'parent'
p25
g19
sS'float_size'
p26
S'indiv.getNumPredatorsNeigh()'
p27
sS'float_bright'
p28
S'indiv.getTailBrightness()'
p29
sS'left'
p30
Nsbsg25
Nsg26
S'+'
sg28
S'/'
sg30
(i__main__
Node
p31
(dp32
g21
I2
sg22
(i__main__
Node
p33
(dp34
g21
I3
sg22
Nsg25
g31
sg26
g27
sg28
S'indiv.getNumPreysNeigh()'
p35
sg30
Nsbsg25
g19
sg26
S'-'
sg28
S'/'
sg30
(i__main__
Node
p36
(dp37
g21
I3
sg22
Nsg25
g31
sg26
S'indiv.getTailSize()'
p38
sg28
g35
sg30
NsbsbsbsS'tailBrigh'
p39
F5.3004545992169829
sS'maxSteering'
p40
I30
sS'energy'
p41
F0.5
sS'lastScale'
p42
F5.5
sb.(i__main__
Data_mobile
p1
(dp2
S'vel_y'
p3
I0
sS'vel_x'
p4
I0
sS'pos_x'
p5
I-9579
sS'pos_y'
p6
I9779
sS'isAlive'
p7
I00
sS'cumulativeEnergy'
p8
F0.5
sS'geno'
p9
(lp10
F2.5793603584420755
aF-0.65304615645449005
aF0.94394525236982119
aF3.0767353189141295
aF0.06223441505929217
aF-0.35524483868050372
asS'accel_x'
p11
F0
sS'accel_y'
p12
F0
sS'visionAngle'
p13
I150
sS'maxAccel'
p14
I2
sS'maxVel'
p15
F0.5
sS'age'
p16
I0
sS'tailSize'
p17
F7.5057148354055876
sS'sexualgeno'
p18
(i__main__
Node
p19
(dp20
S'depth'
p21
I1
sS'right'
p22
(i__main__
Node
p23
(dp24
g21
I2
sg22
(i__main__
Node
p25
(dp26
g21
I3
sg22
NsS'parent'
p27
g23
sS'float_size'
p28
S'indiv.randF()'
p29
sS'float_bright'
p30
S'indiv.distanceMatingSeason()'
p31
sS'left'
p32
Nsbsg27
g19
sg28
S'/'
sg30
S'-'
sg32
(i__main__
Node
p33
(dp34
g21
I3
sg22
Nsg27
g23
sg28
g29
sg30
S'indiv.getTailBrightness()'
p35
sg32
Nsbsbsg27
Nsg28
S'+'
sg30
S'/'
sg32
(i__main__
Node
p36
(dp37
g21
I2
sg22
Nsg27
g19
sg28
S'indiv.getNumPreysNeigh()'
p38
sg30
S'indiv.getTailSize()'
p39
sg32
NsbsbsS'tailBrigh'
p40
F0.64987939587243027
sS'maxSteering'
p41
I30
sS'energy'
p42
F0.5
sS'lastScale'
p43
F5.5
sb.(i__main__
Data_mobile
p1
(dp2
S'vel_y'
p3
I0
sS'vel_x'
p4
I0
sS'pos_x'
p5
I-9579
sS'pos_y'
p6
I9779
sS'isAlive'
p7
I00
sS'cumulativeEnergy'
p8
F0.5
sS'geno'
p9
(lp10
F2.4217383588276622
aF-0.1171271199096634
aF0.94394525236982119
aF3.0767353189141295
aF0.10725889662861987
aF-0.35524483868050372
asS'accel_x'
p11
F0
sS'accel_y'
p12
F0
sS'visionAngle'
p13
I150
sS'maxAccel'
p14
I2
sS'maxVel'
p15
F0.5
sS'age'
p16
I0
sS'tailSize'
p17
F2.5865174422733461
sS'sexualgeno'
p18
(i__main__
Node
p19
(dp20
S'depth'
p21
I1
sS'right'
p22
(i__main__
Node
p23
(dp24
g21
I2
sg22
NsS'parent'
p25
g19
sS'float_size'
p26
S'indiv.getNumPredatorsNeigh()'
p27
sS'float_bright'
p28
S'indiv.getTailBrightness()'
p29
sS'left'
p30
Nsbsg25
Nsg26
S'+'
sg28
S'/'
sg30
(i__main__
Node
p31
(dp32
g22
(i__main__
Node
p33
(dp34
g22
Nsg25
g31
sg21
I3
sg26
S'indiv.getTailSize()'
p35
sg28
S'indiv.getEnergy()'
p36
sg30
Nsbsg25
g19
sg21
I2
sg26
S'+'
sg28
S'*'
sg30
(i__main__
Node
p37
(dp38
g22
Nsg25
g31
sg21
I3
sg26
S'indiv.getNumPreysNeigh()'
p39
sg28
g35
sg30
NsbsbsbsS'tailBrigh'
p40
F2.9864261522185274
sS'maxSteering'
p41
I30
sS'energy'
p42
F0.5
sS'lastScale'
p43
F5.5
sb.(i__main__
Data_mobile
p1
(dp2
S'vel_y'
p3
I0
sS'vel_x'
p4
I0
sS'pos_x'
p5
I-9579
sS'pos_y'
p6
I9779
sS'isAlive'
p7
I00
sS'cumulativeEnergy'
p8
F0.5
sS'geno'
p9
(lp10
F2.4217383588276622
aF-0.049817565972556155
aF0.78279274973631818
aF4.3816930158124476
aF-1.3186403479551188
aF-0.59252335901776887
asS'accel_x'
p11
F0
sS'accel_y'
p12
F0
sS'visionAngle'
p13
I150
sS'maxAccel'
p14
I2
sS'maxVel'
p15
F0.5
sS'age'
p16
I0
sS'tailSize'
p17
F1.6626856905547183
sS'sexualgeno'
p18
(i__main__
Node
p19
(dp20
S'depth'
p21
I1
sS'right'
p22
(i__main__
Node
p23
(dp24
g21
I2
sg22
(i__main__
Node
p25
(dp26
g21
I3
sg22
NsS'parent'
p27
g23
sS'float_size'
p28
S'indiv.randF()'
p29
sS'float_bright'
p30
S'indiv.distanceMatingSeason()'
p31
sS'left'
p32
Nsbsg27
g19
sg28
S'/'
sg30
S'-'
sg32
(i__main__
Node
p33
(dp34
g21
I3
sg22
Nsg27
g23
sg28
g29
sg30
S'indiv.getTailBrightness()'
p35
sg32
Nsbsbsg27
Nsg28
S'+'
sg30
S'/'
sg32
(i__main__
Node
p36
(dp37
g21
I2
sg22
Nsg27
g19
sg28
S'indiv.getNumPreysNeigh()'
p38
sg30
S'indiv.getTailSize()'
p39
sg32
NsbsbsS'tailBrigh'
p40
F7.1743390621007972
sS'maxSteering'
p41
I30
sS'energy'
p42
F0.5
sS'lastScale'
p43
F5.5
sb.(i__main__
Data_mobile
p1
(dp2
S'vel_y'
p3
I0
sS'vel_x'
p4
I0
sS'pos_x'
p5
I-9579
sS'pos_y'
p6
I9779
sS'isAlive'
p7
I00
sS'cumulativeEnergy'
p8
F0.5
sS'geno'
p9
(lp10
F2.4217383588276622
aF-0.31368091668987341
aF0.42678521340023978
aF3.9175525930612425
aF0.90310558121730389
aF-0.092572630119883148
asS'accel_x'
p11
F0
sS'accel_y'
p12
F0
sS'visionAngle'
p13
I150
sS'maxAccel'
p14
I2
sS'maxVel'
p15
F0.5
sS'age'
p16
I0
sS'tailSize'
p17
F1.7119542234069007
sS'sexualgeno'
p18
(i__main__
Node
p19
(dp20
S'depth'
p21
I1
sS'right'
p22
(i__main__
Node
p23
(dp24
g21
I2
sg22
NsS'parent'
p25
g19
sS'float_size'
p26
S'indiv.getNumPredatorsNeigh()'
p27
sS'float_bright'
p28
S'indiv.getTailBrightness()'
p29
sS'left'
p30
Nsbsg25
Nsg26
S'+'
sg28
S'/'
sg30
(i__main__
Node
p31
(dp32
g21
I2
sg22
(i__main__
Node
p33
(dp34
g21
I3
sg22
Nsg25
g31
sg26
g27
sg28
S'indiv.getNumPreysNeigh()'
p35
sg30
Nsbsg25
g19
sg26
S'-'
sg28
S'/'
sg30
(i__main__
Node
p36
(dp37
g21
I3
sg22
Nsg25
g31
sg26
S'indiv.getTailSize()'
p38
sg28
g35
sg30
NsbsbsbsS'tailBrigh'
p39
F7.094343315365391
sS'maxSteering'
p40
I30
sS'energy'
p41
F0.5
sS'lastScale'
p42
F5.5
sb.(i__main__
Data_mobile
p1
(dp2
S'vel_y'
p3
I0
sS'vel_x'
p4
I0
sS'pos_x'
p5
I-9579
sS'pos_y'
p6
I9779
sS'isAlive'
p7
I00
sS'cumulativeEnergy'
p8
F0.5
sS'geno'
p9
(lp10
F2.4217383588276622
aF-0.049817565972556155
aF0.78279274973631818
aF4.3816930158124476
aF-0.94719639190239757
aF-0.57724825090310761
asS'accel_x'
p11
F0
sS'accel_y'
p12
F0
sS'visionAngle'
p13
I150
sS'maxAccel'
p14
I2
sS'maxVel'
p15
F0.5
sS'age'
p16
I0
sS'tailSize'
p17
F8.6723658903582255
sS'sexualgeno'
p18
(i__main__
Node
p19
(dp20
S'depth'
p21
I1
sS'right'
p22
(i__main__
Node
p23
(dp24
g21
I2
sg22
(i__main__
Node
p25
(dp26
g21
I3
sg22
NsS'parent'
p27
g23
sS'float_size'
p28
S'indiv.getNumPredatorsNeigh()'
p29
sS'float_bright'
p30
S'indiv.getNumPreysNeigh()'
p31
sS'left'
p32
Nsbsg27
g19
sg28
S'-'
sg30
S'/'
sg32
(i__main__
Node
p33
(dp34
g21
I3
sg22
Nsg27
g23
sg28
S'indiv.getTailSize()'
p35
sg30
g31
sg32
Nsbsbsg27
Nsg28
S'+'
sg30
S'/'
sg32
(i__main__
Node
p36
(dp37
g21
I2
sg22
Nsg27
g19
sg28
g31
sg30
g35
sg32
NsbsbsS'tailBrigh'
p38
F8.9878504621016315
sS'maxSteering'
p39
I30
sS'energy'
p40
F0.5
sS'lastScale'
p41
F5.5
sb.(i__main__
Data_mobile
p1
(dp2
S'vel_y'
p3
I0
sS'vel_x'
p4
I0
sS'pos_x'
p5
I-9579
sS'pos_y'
p6
I9779
sS'isAlive'
p7
I00
sS'cumulativeEnergy'
p8
F0.5
sS'geno'
p9
(lp10
F2.2866595637425551
aF-0.69570279178863403
aF0.55677314274365053
aF3.4862110053319726
aF-0.68108265870697449
aF-0.57724825090310761
asS'accel_x'
p11
F0
sS'accel_y'
p12
F0
sS'visionAngle'
p13
I150
sS'maxAccel'
p14
I2
sS'maxVel'
p15
F0.5
sS'age'
p16
I0
sS'tailSize'
p17
F7.0098195560352563
sS'sexualgeno'
p18
(i__main__
Node
p19
(dp20
S'depth'
p21
I1
sS'right'
p22
(i__main__
Node
p23
(dp24
g21
I2
sg22
(i__main__
Node
p25
(dp26
g21
I3
sg22
NsS'parent'
p27
g23
sS'float_size'
p28
S'indiv.getNumPredatorsNeigh()'
p29
sS'float_bright'
p30
S'indiv.getNumPreysNeigh()'
p31
sS'left'
p32
Nsbsg27
g19
sg28
S'-'
sg30
S'/'
sg32
(i__main__
Node
p33
(dp34
g21
I3
sg22
Nsg27
g23
sg28
S'indiv.getTailSize()'
p35
sg30
g31
sg32
Nsbsbsg27
Nsg28
S'+'
sg30
S'/'
sg32
(i__main__
Node
p36
(dp37
g21
I2
sg22
Nsg27
g19
sg28
g31
sg30
g35
sg32
NsbsbsS'tailBrigh'
p38
F5.6724772168339452
sS'maxSteering'
p39
I30
sS'energy'
p40
F0.5
sS'lastScale'
p41
F5.5
sb.(i__main__
Data_mobile
p1
(dp2
S'vel_y'
p3
I0
sS'vel_x'
p4
I0
sS'pos_x'
p5
I-9579
sS'pos_y'
p6
I9779
sS'isAlive'
p7
I00
sS'cumulativeEnergy'
p8
F0.5
sS'geno'
p9
(lp10
F2.4217383588276622
aF-0.31368091668987341
aF0.94394525236982119
aF3.97944492805245
aF-0.68108265870697449
aF-0.16821351798950435
asS'accel_x'
p11
F0
sS'accel_y'
p12
F0
sS'visionAngle'
p13
I150
sS'maxAccel'
p14
I2
sS'maxVel'
p15
F0.5
sS'age'
p16
I0
sS'tailSize'
p17
F4.7532069011627884
sS'sexualgeno'
p18
(i__main__
Node
p19
(dp20
S'depth'
p21
I1
sS'right'
p22
(i__main__
Node
p23
(dp24
g21
I2
sg22
NsS'parent'
p25
g19
sS'float_size'
p26
S'indiv.getNumPredatorsNeigh()'
p27
sS'float_bright'
p28
S'indiv.getTailBrightness()'
p29
sS'left'
p30
Nsbsg25
Nsg26
S'+'
sg28
S'/'
sg30
(i__main__
Node
p31
(dp32
g21
I2
sg22
(i__main__
Node
p33
(dp34
g21
I3
sg22
Nsg25
g31
sg26
g27
sg28
g29
sg30
Nsbsg25
g19
sg26
S'+'
sg28
S'+'
sg30
(i__main__
Node
p35
(dp36
g21
I3
sg22
Nsg25
g31
sg26
S'indiv.distanceMatingSeason()'
p37
sg28
S'indiv.randF()'
p38
sg30
NsbsbsbsS'tailBrigh'
p39
F3.0766577661422367
sS'maxSteering'
p40
I30
sS'energy'
p41
F0.5
sS'lastScale'
p42
F5.5
sb.(i__main__
Data_mobile
p1
(dp2
S'vel_y'
p3
I0
sS'vel_x'
p4
I0
sS'pos_x'
p5
I-9579
sS'pos_y'
p6
I9779
sS'isAlive'
p7
I00
sS'cumulativeEnergy'
p8
F0.5
sS'geno'
p9
(lp10
F2.4217383588276622
aF-0.1171271199096634
aF1.0365557699946391
aF3.0767353189141295
aF0.3651731079799625
aF-0.57724825090310761
asS'accel_x'
p11
F0
sS'accel_y'
p12
F0
sS'visionAngle'
p13
I150
sS'maxAccel'
p14
I2
sS'maxVel'
p15
F0.5
sS'age'
p16
I0
sS'tailSize'
p17
F2.2019148167660751
sS'sexualgeno'
p18
(i__main__
Node
p19
(dp20
S'depth'
p21
I1
sS'right'
p22
(i__main__
Node
p23
(dp24
g21
I2
sg22
(i__main__
Node
p25
(dp26
g21
I3
sg22
NsS'parent'
p27
g23
sS'float_size'
p28
S'indiv.getNumPredatorsNeigh()'
p29
sS'float_bright'
p30
S'indiv.getTailBrightness()'
p31
sS'left'
p32
Nsbsg27
g19
sg28
S'+'
sg30
S'+'
sg32
(i__main__
Node
p33
(dp34
g21
I3
sg22
Nsg27
g23
sg28
S'indiv.distanceMatingSeason()'
p35
sg30
S'indiv.randF()'
p36
sg32
Nsbsbsg27
Nsg28
S'+'
sg30
S'/'
sg32
(i__main__
Node
p37
(dp38
g21
I2
sg22
Nsg27
g19
sg28
S'indiv.getNumPreysNeigh()'
p39
sg30
S'indiv.getTailSize()'
p40
sg32
NsbsbsS'tailBrigh'
p41
F0.032939168327811297
sS'maxSteering'
p42
I30
sS'energy'
p43
F0.5
sS'lastScale'
p44
F5.5
sb.(i__main__
Data_mobile
p1
(dp2
S'vel_y'
p3
I0
sS'vel_x'
p4
I0
sS'pos_x'
p5
I-9579
sS'pos_y'
p6
I9779
sS'isAlive'
p7
I00
sS'cumulativeEnergy'
p8
F0.5
sS'geno'
p9
(lp10
F2.4217383588276622
aF-0.24585800988530415
aF0.94394525236982119
aF4.0527373071413457
aF-0.94719639190239757
aF-0.57724825090310761
asS'accel_x'
p11
F0
sS'accel_y'
p12
F0
sS'visionAngle'
p13
I150
sS'maxAccel'
p14
I2
sS'maxVel'
p15
F0.5
sS'age'
p16
I0
sS'tailSize'
p17
F3.6158091545032756
sS'sexualgeno'
p18
(i__main__
Node
p19
(dp20
S'depth'
p21
I1
sS'right'
p22
(i__main__
Node
p23
(dp24
g21
I2
sg22
(i__main__
Node
p25
(dp26
g21
I3
sg22
NsS'parent'
p27
g23
sS'float_size'
p28
S'indiv.distanceMatingSeason()'
p29
sS'float_bright'
p30
S'indiv.randF()'
p31
sS'left'
p32
Nsbsg27
g19
sg28
S'+'
sg30
S'/'
sg32
(i__main__
Node
p33
(dp34
g21
I3
sg22
Nsg27
g23
sg28
S'indiv.getTailBrightness()'
p35
sg30
S'indiv.getEnergy()'
p36
sg32
Nsbsbsg27
Nsg28
S'+'
sg30
S'/'
sg32
(i__main__
Node
p37
(dp38
g21
I2
sg22
Nsg27
g19
sg28
S'indiv.getNumPreysNeigh()'
p39
sg30
S'indiv.getTailSize()'
p40
sg32
NsbsbsS'tailBrigh'
p41
F8.3386912212934341
sS'maxSteering'
p42
I30
sS'energy'
p43
F0.5
sS'lastScale'
p44
F5.5
sb.(i__main__
Data_mobile
p1
(dp2
S'vel_y'
p3
I0
sS'vel_x'
p4
I0
sS'pos_x'
p5
I-9579
sS'pos_y'
p6
I9779
sS'isAlive'
p7
I00
sS'cumulativeEnergy'
p8
F0.5
sS'geno'
p9
(lp10
F2.4217383588276622
aF-0.27005612753720853
aF0.37140118808406575
aF3.6581757429875967
aF-0.98446591481377366
aF-0.35087007670993731
asS'accel_x'
p11
F0
sS'accel_y'
p12
F0
sS'visionAngle'
p13
I150
sS'maxAccel'
p14
I2
sS'maxVel'
p15
F0.5
sS'age'
p16
I0
sS'tailSize'
p17
F3.4119307599856938
sS'sexualgeno'
p18
(i__main__
Node
p19
(dp20
S'depth'
p21
I1
sS'right'
p22
(i__main__
Node
p23
(dp24
g21
I2
sg22
(i__main__
Node
p25
(dp26
g21
I3
sg22
NsS'parent'
p27
g23
sS'float_size'
p28
S'indiv.distanceMatingSeason()'
p29
sS'float_bright'
p30
S'indiv.randF()'
p31
sS'left'
p32
Nsbsg27
g19
sg28
S'+'
sg30
S'/'
sg32
(i__main__
Node
p33
(dp34
g21
I3
sg22
Nsg27
g23
sg28
S'indiv.getTailBrightness()'
p35
sg30
S'indiv.getEnergy()'
p36
sg32
Nsbsbsg27
Nsg28
S'+'
sg30
S'/'
sg32
(i__main__
Node
p37
(dp38
g21
I2
sg22
Nsg27
g19
sg28
S'indiv.getNumPreysNeigh()'
p39
sg30
S'indiv.getTailSize()'
p40
sg32
NsbsbsS'tailBrigh'
p41
F5.8543367551425209
sS'maxSteering'
p42
I30
sS'energy'
p43
F0.5
sS'lastScale'
p44
F5.5
sb.(i__main__
Data_mobile
p1
(dp2
S'vel_y'
p3
I0
sS'vel_x'
p4
I0
sS'pos_x'
p5
I-9579
sS'pos_y'
p6
I9779
sS'isAlive'
p7
I00
sS'cumulativeEnergy'
p8
F0.5
sS'geno'
p9
(lp10
F2.2866595637425551
aF-0.69570279178863403
aF0.55677314274365053
aF3.4862110053319726
aF-0.68108265870697449
aF-0.59252335901776887
asS'accel_x'
p11
F0
sS'accel_y'
p12
F0
sS'visionAngle'
p13
I150
sS'maxAccel'
p14
I2
sS'maxVel'
p15
F0.5
sS'age'
p16
I0
sS'tailSize'
p17
F8.7152989535902812
sS'sexualgeno'
p18
(i__main__
Node
p19
(dp20
S'depth'
p21
I1
sS'right'
p22
(i__main__
Node
p23
(dp24
g21
I2
sg22
(i__main__
Node
p25
(dp26
g21
I3
sg22
NsS'parent'
p27
g23
sS'float_size'
p28
S'indiv.randF()'
p29
sS'float_bright'
p30
S'indiv.distanceMatingSeason()'
p31
sS'left'
p32
Nsbsg27
g19
sg28
S'/'
sg30
S'-'
sg32
(i__main__
Node
p33
(dp34
g21
I3
sg22
Nsg27
g23
sg28
g29
sg30
S'indiv.getTailBrightness()'
p35
sg32
Nsbsbsg27
Nsg28
S'+'
sg30
S'/'
sg32
(i__main__
Node
p36
(dp37
g21
I2
sg22
Nsg27
g19
sg28
S'indiv.getNumPreysNeigh()'
p38
sg30
S'indiv.getTailSize()'
p39
sg32
NsbsbsS'tailBrigh'
p40
F6.2914186944082298
sS'maxSteering'
p41
I30
sS'energy'
p42
F0.5
sS'lastScale'
p43
F5.5
sb.(i__main__
Data_mobile
p1
(dp2
S'vel_y'
p3
I0
sS'vel_x'
p4
I0
sS'pos_x'
p5
I-9579
sS'pos_y'
p6
I9779
sS'isAlive'
p7
I00
sS'cumulativeEnergy'
p8
F0.5
sS'geno'
p9
(lp10
F2.4217383588276622
aF-0.1171271199096634
aF0.94394525236982119
aF4.0527373071413457
aF-1.071108365309875
aF-0.57724825090310761
asS'accel_x'
p11
F0
sS'accel_y'
p12
F0
sS'visionAngle'
p13
I150
sS'maxAccel'
p14
I2
sS'maxVel'
p15
F0.5
sS'age'
p16
I0
sS'tailSize'
p17
F8.3002354024497222
sS'sexualgeno'
p18
(i__main__
Node
p19
(dp20
S'depth'
p21
I1
sS'right'
p22
(i__main__
Node
p23
(dp24
g21
I2
sg22
NsS'parent'
p25
g19
sS'float_size'
p26
S'indiv.getNumPredatorsNeigh()'
p27
sS'float_bright'
p28
S'indiv.getTailBrightness()'
p29
sS'left'
p30
Nsbsg25
Nsg26
S'+'
sg28
S'/'
sg30
(i__main__
Node
p31
(dp32
g21
I2
sg22
(i__main__
Node
p33
(dp34
g21
I3
sg22
Nsg25
g31
sg26
S'indiv.getNumPreysNeigh()'
p35
sg28
g35
sg30
Nsbsg25
g19
sg26
S'+'
sg28
S'*'
sg30
(i__main__
Node
p36
(dp37
g21
I3
sg22
Nsg25
g31
sg26
S'indiv.distanceMatingSeason()'
p38
sg28
S'indiv.randF()'
p39
sg30
NsbsbsbsS'tailBrigh'
p40
F0.66054279384390457
sS'maxSteering'
p41
I30
sS'energy'
p42
F0.5
sS'lastScale'
p43
F5.5
sb.(i__main__
Data_mobile
p1
(dp2
S'vel_y'
p3
I0
sS'vel_x'
p4
I0
sS'pos_x'
p5
I-9579
sS'pos_y'
p6
I9779
sS'isAlive'
p7
I00
sS'cumulativeEnergy'
p8
F0.5
sS'geno'
p9
(lp10
F2.4217383588276622
aF-0.1171271199096634
aF0.94394525236982119
aF4.0527373071413457
aF-0.94719639190239757
aF-0.57724825090310761
asS'accel_x'
p11
F0
sS'accel_y'
p12
F0
sS'visionAngle'
p13
I150
sS'maxAccel'
p14
I2
sS'maxVel'
p15
F0.5
sS'age'
p16
I0
sS'tailSize'
p17
F5.6589261909178497
sS'sexualgeno'
p18
(i__main__
Node
p19
(dp20
S'depth'
p21
I1
sS'right'
p22
(i__main__
Node
p23
(dp24
g21
I2
sg22
(i__main__
Node
p25
(dp26
g21
I3
sg22
NsS'parent'
p27
g23
sS'float_size'
p28
S'indiv.distanceMatingSeason()'
p29
sS'float_bright'
p30
S'indiv.randF()'
p31
sS'left'
p32
Nsbsg27
g19
sg28
S'+'
sg30
S'/'
sg32
(i__main__
Node
p33
(dp34
g21
I3
sg22
Nsg27
g23
sg28
S'indiv.getTailBrightness()'
p35
sg30
S'indiv.getEnergy()'
p36
sg32
Nsbsbsg27
Nsg28
S'+'
sg30
S'/'
sg32
(i__main__
Node
p37
(dp38
g21
I2
sg22
Nsg27
g19
sg28
S'indiv.getNumPreysNeigh()'
p39
sg30
S'indiv.getTailSize()'
p40
sg32
NsbsbsS'tailBrigh'
p41
F8.3026995986648551
sS'maxSteering'
p42
I30
sS'energy'
p43
F0.5
sS'lastScale'
p44
F5.5
sb.(i__main__
Data_mobile
p1
(dp2
S'vel_y'
p3
I0
sS'vel_x'
p4
I0
sS'pos_x'
p5
I-9579
sS'pos_y'
p6
I9779
sS'isAlive'
p7
I00
sS'cumulativeEnergy'
p8
F0.5
sS'geno'
p9
(lp10
F2.4217383588276622
aF-0.1171271199096634
aF0.53456227106988552
aF4.3816930158124476
aF0.44934076499380415
aF0.013457310038362591
asS'accel_x'
p11
F0
sS'accel_y'
p12
F0
sS'visionAngle'
p13
I150
sS'maxAccel'
p14
I2
sS'maxVel'
p15
F0.5
sS'age'
p16
I0
sS'tailSize'
p17
F9.1839237767187214
sS'sexualgeno'
p18
(i__main__
Node
p19
(dp20
S'depth'
p21
I1
sS'right'
p22
(i__main__
Node
p23
(dp24
g21
I2
sg22
(i__main__
Node
p25
(dp26
g21
I3
sg22
NsS'parent'
p27
g23
sS'float_size'
p28
S'indiv.randF()'
p29
sS'float_bright'
p30
S'indiv.distanceMatingSeason()'
p31
sS'left'
p32
Nsbsg27
g19
sg28
S'/'
sg30
S'-'
sg32
(i__main__
Node
p33
(dp34
g21
I3
sg22
Nsg27
g23
sg28
g29
sg30
S'indiv.getTailBrightness()'
p35
sg32
Nsbsbsg27
Nsg28
S'+'
sg30
S'/'
sg32
(i__main__
Node
p36
(dp37
g21
I2
sg22
Nsg27
g19
sg28
S'indiv.getNumPreysNeigh()'
p38
sg30
S'indiv.getTailSize()'
p39
sg32
NsbsbsS'tailBrigh'
p40
F3.8209347532406355
sS'maxSteering'
p41
I30
sS'energy'
p42
F0.5
sS'lastScale'
p43
F5.5
sb.(i__main__
Data_mobile
p1
(dp2
S'vel_y'
p3
I0
sS'vel_x'
p4
I0
sS'pos_x'
p5
I-9579
sS'pos_y'
p6
I9779
sS'isAlive'
p7
I00
sS'cumulativeEnergy'
p8
F0.5
sS'geno'
p9
(lp10
F2.4217383588276622
aF-0.1171271199096634
aF0.53456227106988552
aF4.3816930158124476
aF0.44934076499380415
aF0.013457310038362591
asS'accel_x'
p11
F0
sS'accel_y'
p12
F0
sS'visionAngle'
p13
I150
sS'maxAccel'
p14
I2
sS'maxVel'
p15
F0.5
sS'age'
p16
I0
sS'tailSize'
p17
F3.5111608223046584
sS'sexualgeno'
p18
(i__main__
Node
p19
(dp20
S'depth'
p21
I1
sS'right'
p22
(i__main__
Node
p23
(dp24
g21
I2
sg22
(i__main__
Node
p25
(dp26
g21
I3
sg22
NsS'parent'
p27
g23
sS'float_size'
p28
S'indiv.randF()'
p29
sS'float_bright'
p30
S'indiv.distanceMatingSeason()'
p31
sS'left'
p32
Nsbsg27
g19
sg28
S'/'
sg30
S'-'
sg32
(i__main__
Node
p33
(dp34
g21
I3
sg22
Nsg27
g23
sg28
g29
sg30
S'indiv.getTailBrightness()'
p35
sg32
Nsbsbsg27
Nsg28
S'+'
sg30
S'/'
sg32
(i__main__
Node
p36
(dp37
g21
I2
sg22
Nsg27
g19
sg28
S'indiv.getNumPreysNeigh()'
p38
sg30
S'indiv.getTailSize()'
p39
sg32
NsbsbsS'tailBrigh'
p40
F8.9346699909611438
sS'maxSteering'
p41
I30
sS'energy'
p42
F0.5
sS'lastScale'
p43
F5.5
sb.(i__main__
Data_mobile
p1
(dp2
S'vel_y'
p3
I0
sS'vel_x'
p4
I0
sS'pos_x'
p5
I-9579
sS'pos_y'
p6
I9779
sS'isAlive'
p7
I00
sS'cumulativeEnergy'
p8
F0.5
sS'geno'
p9
(lp10
F2.5793603584420755
aF-0.65304615645449005
aF0.94394525236982119
aF4.0527373071413457
aF-0.94719639190239757
aF-0.57724825090310761
asS'accel_x'
p11
F0
sS'accel_y'
p12
F0
sS'visionAngle'
p13
I150
sS'maxAccel'
p14
I2
sS'maxVel'
p15
F0.5
sS'age'
p16
I0
sS'tailSize'
p17
F2.5786125880611377
sS'sexualgeno'
p18
(i__main__
Node
p19
(dp20
S'depth'
p21
I1
sS'right'
p22
(i__main__
Node
p23
(dp24
g21
I2
sg22
(i__main__
Node
p25
(dp26
g21
I3
sg22
NsS'parent'
p27
g23
sS'float_size'
p28
S'indiv.getNumPreysNeigh()'
p29
sS'float_bright'
p30
g29
sS'left'
p31
Nsbsg27
g19
sg28
S'+'
sg30
S'*'
sg31
(i__main__
Node
p32
(dp33
g21
I3
sg22
Nsg27
g23
sg28
S'indiv.distanceMatingSeason()'
p34
sg30
S'indiv.randF()'
p35
sg31
Nsbsbsg27
Nsg28
S'+'
sg30
S'/'
sg31
(i__main__
Node
p36
(dp37
g21
I2
sg22
Nsg27
g19
sg28
g29
sg30
S'indiv.getTailSize()'
p38
sg31
NsbsbsS'tailBrigh'
p39
F8.6876333691088341
sS'maxSteering'
p40
I30
sS'energy'
p41
F0.5
sS'lastScale'
p42
F5.5
sb.(i__main__
Data_mobile
p1
(dp2
S'vel_y'
p3
I0
sS'vel_x'
p4
I0
sS'pos_x'
p5
I-9579
sS'pos_y'
p6
I9779
sS'isAlive'
p7
I00
sS'cumulativeEnergy'
p8
F0.5
sS'geno'
p9
(lp10
F2.4217383588276622
aF-0.51863998951888368
aF1.0365557699946391
aF3.0767353189141295
aF0.3651731079799625
aF-0.57724825090310761
asS'accel_x'
p11
F0
sS'accel_y'
p12
F0
sS'visionAngle'
p13
I150
sS'maxAccel'
p14
I2
sS'maxVel'
p15
F0.5
sS'age'
p16
I0
sS'tailSize'
p17
F4.9742686361714021
sS'sexualgeno'
p18
(i__main__
Node
p19
(dp20
S'depth'
p21
I1
sS'right'
p22
(i__main__
Node
p23
(dp24
g21
I2
sg22
(i__main__
Node
p25
(dp26
g21
I3
sg22
NsS'parent'
p27
g23
sS'float_size'
p28
S'indiv.getNumPredatorsNeigh()'
p29
sS'float_bright'
p30
S'indiv.getTailBrightness()'
p31
sS'left'
p32
Nsbsg27
g19
sg28
S'+'
sg30
S'+'
sg32
(i__main__
Node
p33
(dp34
g21
I3
sg22
Nsg27
g23
sg28
S'indiv.distanceMatingSeason()'
p35
sg30
S'indiv.randF()'
p36
sg32
Nsbsbsg27
Nsg28
S'+'
sg30
S'/'
sg32
(i__main__
Node
p37
(dp38
g21
I2
sg22
Nsg27
g19
sg28
S'indiv.getNumPreysNeigh()'
p39
sg30
S'indiv.getTailSize()'
p40
sg32
NsbsbsS'tailBrigh'
p41
F9.5445119842253394
sS'maxSteering'
p42
I30
sS'energy'
p43
F0.5
sS'lastScale'
p44
F5.5
sb.(i__main__
Data_mobile
p1
(dp2
S'vel_y'
p3
I0
sS'vel_x'
p4
I0
sS'pos_x'
p5
I-9579
sS'pos_y'
p6
I9779
sS'isAlive'
p7
I00
sS'cumulativeEnergy'
p8
F0.5
sS'geno'
p9
(lp10
F2.4217383588276622
aF-0.1171271199096634
aF0.94394525236982119
aF4.0527373071413457
aF-0.94719639190239757
aF-0.57724825090310761
asS'accel_x'
p11
F0
sS'accel_y'
p12
F0
sS'visionAngle'
p13
I150
sS'maxAccel'
p14
I2
sS'maxVel'
p15
F0.5
sS'age'
p16
I0
sS'tailSize'
p17
F8.1932612880130975
sS'sexualgeno'
p18
(i__main__
Node
p19
(dp20
S'depth'
p21
I1
sS'right'
p22
(i__main__
Node
p23
(dp24
g21
I2
sg22
(i__main__
Node
p25
(dp26
g21
I3
sg22
NsS'parent'
p27
g23
sS'float_size'
p28
S'indiv.distanceMatingSeason()'
p29
sS'float_bright'
p30
S'indiv.randF()'
p31
sS'left'
p32
Nsbsg27
g19
sg28
S'+'
sg30
S'/'
sg32
(i__main__
Node
p33
(dp34
g21
I3
sg22
Nsg27
g23
sg28
S'indiv.getTailBrightness()'
p35
sg30
S'indiv.getEnergy()'
p36
sg32
Nsbsbsg27
Nsg28
S'+'
sg30
S'/'
sg32
(i__main__
Node
p37
(dp38
g21
I2
sg22
Nsg27
g19
sg28
S'indiv.getNumPreysNeigh()'
p39
sg30
S'indiv.getTailSize()'
p40
sg32
NsbsbsS'tailBrigh'
p41
F8.3818500256652921
sS'maxSteering'
p42
I30
sS'energy'
p43
F0.5
sS'lastScale'
p44
F5.5
sb.(i__main__
Data_mobile
p1
(dp2
S'vel_y'
p3
I0
sS'vel_x'
p4
I0
sS'pos_x'
p5
I-9579
sS'pos_y'
p6
I9779
sS'isAlive'
p7
I00
sS'cumulativeEnergy'
p8
F0.5
sS'geno'
p9
(lp10
F2.4217383588276622
aF-0.56127482051511257
aF0.94394525236982119
aF4.3816930158124476
aF0.44934076499380415
aF-0.34489270568139063
asS'accel_x'
p11
F0
sS'accel_y'
p12
F0
sS'visionAngle'
p13
I150
sS'maxAccel'
p14
I2
sS'maxVel'
p15
F0.5
sS'age'
p16
I0
sS'tailSize'
p17
F3.0220338038695749
sS'sexualgeno'
p18
(i__main__
Node
p19
(dp20
S'depth'
p21
I1
sS'right'
p22
(i__main__
Node
p23
(dp24
g21
I2
sg22
(i__main__
Node
p25
(dp26
g21
I3
sg22
NsS'parent'
p27
g23
sS'float_size'
p28
S'indiv.getNumPredatorsNeigh()'
p29
sS'float_bright'
p30
S'indiv.getNumPreysNeigh()'
p31
sS'left'
p32
Nsbsg27
g19
sg28
S'-'
sg30
S'/'
sg32
(i__main__
Node
p33
(dp34
g21
I3
sg22
Nsg27
g23
sg28
S'indiv.getTailSize()'
p35
sg30
g31
sg32
Nsbsbsg27
Nsg28
S'+'
sg30
S'/'
sg32
(i__main__
Node
p36
(dp37
g21
I2
sg22
Nsg27
g19
sg28
g31
sg30
g35
sg32
NsbsbsS'tailBrigh'
p38
F2.3042545571625594
sS'maxSteering'
p39
I30
sS'energy'
p40
F0.5
sS'lastScale'
p41
F5.5
sb.(i__main__
Data_mobile
p1
(dp2
S'vel_y'
p3
I0
sS'vel_x'
p4
I0
sS'pos_x'
p5
I-9579
sS'pos_y'
p6
I9779
sS'isAlive'
p7
I00
sS'cumulativeEnergy'
p8
F0.5
sS'geno'
p9
(lp10
F2.4232125667664639
aF-0.31368091668987341
aF0.94394525236982119
aF3.97944492805245
aF-0.68108265870697449
aF-0.57724825090310761
asS'accel_x'
p11
F0
sS'accel_y'
p12
F0
sS'visionAngle'
p13
I150
sS'maxAccel'
p14
I2
sS'maxVel'
p15
F0.5
sS'age'
p16
I0
sS'tailSize'
p17
F1.3642540367485967
sS'sexualgeno'
p18
(i__main__
Node
p19
(dp20
S'depth'
p21
I1
sS'right'
p22
(i__main__
Node
p23
(dp24
g21
I2
sg22
(i__main__
Node
p25
(dp26
g21
I3
sg22
NsS'parent'
p27
g23
sS'float_size'
p28
S'indiv.getNumPredatorsNeigh()'
p29
sS'float_bright'
p30
S'indiv.getTailBrightness()'
p31
sS'left'
p32
Nsbsg27
g19
sg28
S'+'
sg30
S'+'
sg32
(i__main__
Node
p33
(dp34
g21
I3
sg22
Nsg27
g23
sg28
S'indiv.distanceMatingSeason()'
p35
sg30
S'indiv.randF()'
p36
sg32
Nsbsbsg27
Nsg28
S'+'
sg30
S'/'
sg32
(i__main__
Node
p37
(dp38
g21
I2
sg22
Nsg27
g19
sg28
S'indiv.getNumPreysNeigh()'
p39
sg30
S'indiv.getTailSize()'
p40
sg32
NsbsbsS'tailBrigh'
p41
F8.311005186908865
sS'maxSteering'
p42
I30
sS'energy'
p43
F0.5
sS'lastScale'
p44
F5.5
sb.(i__main__
Data_mobile
p1
(dp2
S'vel_y'
p3
I0
sS'vel_x'
p4
I0
sS'pos_x'
p5
I-9579
sS'pos_y'
p6
I9779
sS'isAlive'
p7
I00
sS'cumulativeEnergy'
p8
F0.5
sS'geno'
p9
(lp10
F2.4217383588276622
aF-0.32160583828951261
aF0.94394525236982119
aF4.0527373071413457
aF-0.94719639190239757
aF-0.57724825090310761
asS'accel_x'
p11
F0
sS'accel_y'
p12
F0
sS'visionAngle'
p13
I150
sS'maxAccel'
p14
I2
sS'maxVel'
p15
F0.5
sS'age'
p16
I0
sS'tailSize'
p17
F8.1667966768405673
sS'sexualgeno'
p18
(i__main__
Node
p19
(dp20
S'depth'
p21
I1
sS'right'
p22
(i__main__
Node
p23
(dp24
g21
I2
sg22
NsS'parent'
p25
g19
sS'float_size'
p26
S'indiv.getNumPredatorsNeigh()'
p27
sS'float_bright'
p28
S'indiv.getTailBrightness()'
p29
sS'left'
p30
Nsbsg25
Nsg26
S'+'
sg28
S'/'
sg30
(i__main__
Node
p31
(dp32
g21
I2
sg22
(i__main__
Node
p33
(dp34
g21
I3
sg22
Nsg25
g31
sg26
S'indiv.randF()'
p35
sg28
S'indiv.distanceMatingSeason()'
p36
sg30
Nsbsg25
g19
sg26
S'/'
sg28
S'-'
sg30
(i__main__
Node
p37
(dp38
g21
I3
sg22
Nsg25
g31
sg26
g35
sg28
g29
sg30
NsbsbsbsS'tailBrigh'
p39
F6.4743694419889248
sS'maxSteering'
p40
I30
sS'energy'
p41
F0.5
sS'lastScale'
p42
F5.5
sb.(i__main__
Data_mobile
p1
(dp2
S'vel_y'
p3
I0
sS'vel_x'
p4
I0
sS'pos_x'
p5
I-9579
sS'pos_y'
p6
I9779
sS'isAlive'
p7
I00
sS'cumulativeEnergy'
p8
F0.5
sS'geno'
p9
(lp10
F2.2866595637425551
aF-0.31368091668987341
aF0.55677314274365053
aF3.4862110053319726
aF-0.68108265870697449
aF-0.59252335901776887
asS'accel_x'
p11
F0
sS'accel_y'
p12
F0
sS'visionAngle'
p13
I150
sS'maxAccel'
p14
I2
sS'maxVel'
p15
F0.5
sS'age'
p16
I0
sS'tailSize'
p17
F9.5721016133419798
sS'sexualgeno'
p18
(i__main__
Node
p19
(dp20
S'depth'
p21
I1
sS'right'
p22
(i__main__
Node
p23
(dp24
g21
I2
sg22
(i__main__
Node
p25
(dp26
g21
I3
sg22
NsS'parent'
p27
g23
sS'float_size'
p28
S'indiv.randF()'
p29
sS'float_bright'
p30
S'indiv.distanceMatingSeason()'
p31
sS'left'
p32
Nsbsg27
g19
sg28
S'/'
sg30
S'-'
sg32
(i__main__
Node
p33
(dp34
g21
I3
sg22
Nsg27
g23
sg28
g29
sg30
S'indiv.getTailBrightness()'
p35
sg32
Nsbsbsg27
Nsg28
S'+'
sg30
S'/'
sg32
(i__main__
Node
p36
(dp37
g21
I2
sg22
Nsg27
g19
sg28
S'indiv.getNumPreysNeigh()'
p38
sg30
S'indiv.getTailSize()'
p39
sg32
NsbsbsS'tailBrigh'
p40
F3.1844629488409448
sS'maxSteering'
p41
I30
sS'energy'
p42
F0.5
sS'lastScale'
p43
F5.5
sb.(i__main__
Data_mobile
p1
(dp2
S'vel_y'
p3
I0
sS'vel_x'
p4
I0
sS'pos_x'
p5
I-9579
sS'pos_y'
p6
I9779
sS'isAlive'
p7
I00
sS'cumulativeEnergy'
p8
F0.5
sS'geno'
p9
(lp10
F2.2270368432689622
aF-0.1171271199096634
aF0.94394525236982119
aF3.0767353189141295
aF0.3651731079799625
aF-0.35524483868050372
asS'accel_x'
p11
F0
sS'accel_y'
p12
F0
sS'visionAngle'
p13
I150
sS'maxAccel'
p14
I2
sS'maxVel'
p15
F0.5
sS'age'
p16
I0
sS'tailSize'
p17
F6.8530664007960906
sS'sexualgeno'
p18
(i__main__
Node
p19
(dp20
S'depth'
p21
I1
sS'right'
p22
(i__main__
Node
p23
(dp24
g21
I2
sg22
NsS'parent'
p25
g19
sS'float_size'
p26
S'indiv.getNumPredatorsNeigh()'
p27
sS'float_bright'
p28
S'indiv.getTailBrightness()'
p29
sS'left'
p30
Nsbsg25
Nsg26
S'+'
sg28
S'/'
sg30
(i__main__
Node
p31
(dp32
g22
(i__main__
Node
p33
(dp34
g22
(i__main__
Node
p35
(dp36
g22
Nsg25
g33
sg21
I4
sg26
g27
sg28
S'indiv.randF()'
p37
sg30
Nsbsg25
g31
sg21
I3
sg26
S'+'
sg28
S'*'
sg30
(i__main__
Node
p38
(dp39
g22
Nsg25
g33
sg21
I4
sg26
S'indiv.getNumPreysNeigh()'
p40
sg28
S'indiv.getTailSize()'
p41
sg30
Nsbsbsg25
g19
sg21
I2
sg26
S'-'
sg28
S'-'
sg30
(i__main__
Node
p42
(dp43
g22
(i__main__
Node
p44
(dp45
g22
Nsg25
g42
sg21
I4
sg26
g27
sg28
g27
sg30
Nsbsg25
g31
sg21
I3
sg26
S'/'
sg28
S'*'
sg30
(i__main__
Node
p46
(dp47
g22
Nsg25
g42
sg21
I4
sg26
g37
sg28
S'indiv.distanceMatingSeason()'
p48
sg30
NsbsbsbsbsS'tailBrigh'
p49
F8.9580853213502767
sS'maxSteering'
p50
I30
sS'energy'
p51
F0.5
sS'lastScale'
p52
F5.5
sb.(i__main__
Data_mobile
p1
(dp2
S'vel_y'
p3
I0
sS'vel_x'
p4
I0
sS'pos_x'
p5
I-9579
sS'pos_y'
p6
I9779
sS'isAlive'
p7
I00
sS'cumulativeEnergy'
p8
F0.5
sS'geno'
p9
(lp10
F2.4217383588276622
aF-0.31368091668987341
aF0.94394525236982119
aF3.6581757429875967
aF0.44934076499380415
aF-0.35524483868050372
asS'accel_x'
p11
F0
sS'accel_y'
p12
F0
sS'visionAngle'
p13
I150
sS'maxAccel'
p14
I2
sS'maxVel'
p15
F0.5
sS'age'
p16
I0
sS'tailSize'
p17
F0.36052422341679047
sS'sexualgeno'
p18
(i__main__
Node
p19
(dp20
S'depth'
p21
I1
sS'right'
p22
(i__main__
Node
p23
(dp24
g21
I2
sg22
NsS'parent'
p25
g19
sS'float_size'
p26
S'indiv.getNumPredatorsNeigh()'
p27
sS'float_bright'
p28
S'indiv.getTailBrightness()'
p29
sS'left'
p30
Nsbsg25
Nsg26
S'+'
sg28
S'/'
sg30
(i__main__
Node
p31
(dp32
g21
I2
sg22
(i__main__
Node
p33
(dp34
g21
I3
sg22
Nsg25
g31
sg26
S'indiv.randF()'
p35
sg28
S'indiv.distanceMatingSeason()'
p36
sg30
Nsbsg25
g19
sg26
S'/'
sg28
S'-'
sg30
(i__main__
Node
p37
(dp38
g21
I3
sg22
Nsg25
g31
sg26
g35
sg28
g29
sg30
NsbsbsbsS'tailBrigh'
p39
F0.23819323045250917
sS'maxSteering'
p40
I30
sS'energy'
p41
F0.5
sS'lastScale'
p42
F5.5
sb.(i__main__
Data_mobile
p1
(dp2
S'vel_y'
p3
I0
sS'vel_x'
p4
I0
sS'pos_x'
p5
I-9579
sS'pos_y'
p6
I9779
sS'isAlive'
p7
I00
sS'cumulativeEnergy'
p8
F0.5
sS'geno'
p9
(lp10
F2.4217383588276622
aF0.16774256679535182
aF0.94394525236982119
aF3.97944492805245
aF-1.071108365309875
aF-0.57724825090310761
asS'accel_x'
p11
F0
sS'accel_y'
p12
F0
sS'visionAngle'
p13
I150
sS'maxAccel'
p14
I2
sS'maxVel'
p15
F0.5
sS'age'
p16
I0
sS'tailSize'
p17
F1.2479162593533866
sS'sexualgeno'
p18
(i__main__
Node
p19
(dp20
S'depth'
p21
I1
sS'right'
p22
(i__main__
Node
p23
(dp24
g21
I2
sg22
NsS'parent'
p25
g19
sS'float_size'
p26
S'indiv.getNumPredatorsNeigh()'
p27
sS'float_bright'
p28
S'indiv.getTailBrightness()'
p29
sS'left'
p30
Nsbsg25
Nsg26
S'+'
sg28
S'/'
sg30
(i__main__
Node
p31
(dp32
g21
I2
sg22
(i__main__
Node
p33
(dp34
g21
I3
sg22
Nsg25
g31
sg26
S'indiv.getNumPreysNeigh()'
p35
sg28
g35
sg30
Nsbsg25
g19
sg26
S'+'
sg28
S'*'
sg30
(i__main__
Node
p36
(dp37
g21
I3
sg22
Nsg25
g31
sg26
S'indiv.distanceMatingSeason()'
p38
sg28
S'indiv.randF()'
p39
sg30
NsbsbsbsS'tailBrigh'
p40
F5.9397425840423477
sS'maxSteering'
p41
I30
sS'energy'
p42
F0.5
sS'lastScale'
p43
F5.5
sb.(i__main__
Data_mobile
p1
(dp2
S'vel_y'
p3
I0
sS'vel_x'
p4
I0
sS'pos_x'
p5
I-9579
sS'pos_y'
p6
I9779
sS'isAlive'
p7
I00
sS'cumulativeEnergy'
p8
F0.5
sS'geno'
p9
(lp10
F2.4217383588276622
aF-0.1171271199096634
aF0.94394525236982119
aF4.0527373071413457
aF-1.071108365309875
aF-0.57724825090310761
asS'accel_x'
p11
F0
sS'accel_y'
p12
F0
sS'visionAngle'
p13
I150
sS'maxAccel'
p14
I2
sS'maxVel'
p15
F0.5
sS'age'
p16
I0
sS'tailSize'
p17
F3.882631718130968
sS'sexualgeno'
p18
(i__main__
Node
p19
(dp20
S'depth'
p21
I1
sS'right'
p22
(i__main__
Node
p23
(dp24
g21
I2
sg22
(i__main__
Node
p25
(dp26
g21
I3
sg22
NsS'parent'
p27
g23
sS'float_size'
p28
S'indiv.getNumPreysNeigh()'
p29
sS'float_bright'
p30
g29
sS'left'
p31
Nsbsg27
g19
sg28
S'+'
sg30
S'*'
sg31
(i__main__
Node
p32
(dp33
g21
I3
sg22
Nsg27
g23
sg28
S'indiv.distanceMatingSeason()'
p34
sg30
S'indiv.randF()'
p35
sg31
Nsbsbsg27
Nsg28
S'+'
sg30
S'/'
sg31
(i__main__
Node
p36
(dp37
g21
I2
sg22
Nsg27
g19
sg28
g29
sg30
S'indiv.getTailSize()'
p38
sg31
NsbsbsS'tailBrigh'
p39
F5.1469162382501343
sS'maxSteering'
p40
I30
sS'energy'
p41
F0.5
sS'lastScale'
p42
F5.5
sb.(i__main__
Data_mobile
p1
(dp2
S'vel_y'
p3
I0
sS'vel_x'
p4
I0
sS'pos_x'
p5
I-9579
sS'pos_y'
p6
I9779
sS'isAlive'
p7
I00
sS'cumulativeEnergy'
p8
F0.5
sS'geno'
p9
(lp10
F2.4217383588276622
aF-0.56127482051511257
aF0.94394525236982119
aF4.3816930158124476
aF0.44934076499380415
aF-0.34489270568139063
asS'accel_x'
p11
F0
sS'accel_y'
p12
F0
sS'visionAngle'
p13
I150
sS'maxAccel'
p14
I2
sS'maxVel'
p15
F0.5
sS'age'
p16
I0
sS'tailSize'
p17
F2.0318799861811798
sS'sexualgeno'
p18
(i__main__
Node
p19
(dp20
S'depth'
p21
I1
sS'right'
p22
(i__main__
Node
p23
(dp24
g21
I2
sg22
(i__main__
Node
p25
(dp26
g21
I3
sg22
NsS'parent'
p27
g23
sS'float_size'
p28
S'indiv.randF()'
p29
sS'float_bright'
p30
S'indiv.distanceMatingSeason()'
p31
sS'left'
p32
Nsbsg27
g19
sg28
S'/'
sg30
S'-'
sg32
(i__main__
Node
p33
(dp34
g21
I3
sg22
Nsg27
g23
sg28
g29
sg30
S'indiv.getTailBrightness()'
p35
sg32
Nsbsbsg27
Nsg28
S'+'
sg30
S'/'
sg32
(i__main__
Node
p36
(dp37
g21
I2
sg22
Nsg27
g19
sg28
S'indiv.getNumPreysNeigh()'
p38
sg30
S'indiv.getTailSize()'
p39
sg32
NsbsbsS'tailBrigh'
p40
F9.3829971006694244
sS'maxSteering'
p41
I30
sS'energy'
p42
F0.5
sS'lastScale'
p43
F5.5
sb.(i__main__
Data_mobile
p1
(dp2
S'vel_y'
p3
I0
sS'vel_x'
p4
I0
sS'pos_x'
p5
I-9579
sS'pos_y'
p6
I9779
sS'isAlive'
p7
I00
sS'cumulativeEnergy'
p8
F0.5
sS'geno'
p9
(lp10
F2.4232125667664639
aF-0.44416995119203573
aF0.94394525236982119
aF4.3816930158124476
aF-0.94719639190239757
aF-0.57724825090310761
asS'accel_x'
p11
F0
sS'accel_y'
p12
F0
sS'visionAngle'
p13
I150
sS'maxAccel'
p14
I2
sS'maxVel'
p15
F0.5
sS'age'
p16
I0
sS'tailSize'
p17
F0.16360407859013493
sS'sexualgeno'
p18
(i__main__
Node
p19
(dp20
S'depth'
p21
I1
sS'right'
p22
(i__main__
Node
p23
(dp24
g21
I2
sg22
(i__main__
Node
p25
(dp26
g21
I3
sg22
NsS'parent'
p27
g23
sS'float_size'
p28
S'indiv.getNumPredatorsNeigh()'
p29
sS'float_bright'
p30
S'indiv.getTailBrightness()'
p31
sS'left'
p32
Nsbsg27
g19
sg28
S'+'
sg30
S'+'
sg32
(i__main__
Node
p33
(dp34
g21
I3
sg22
Nsg27
g23
sg28
S'indiv.distanceMatingSeason()'
p35
sg30
S'indiv.randF()'
p36
sg32
Nsbsbsg27
Nsg28
S'+'
sg30
S'/'
sg32
(i__main__
Node
p37
(dp38
g21
I2
sg22
Nsg27
g19
sg28
S'indiv.getNumPreysNeigh()'
p39
sg30
S'indiv.getTailSize()'
p40
sg32
NsbsbsS'tailBrigh'
p41
F9.1230815024629486
sS'maxSteering'
p42
I30
sS'energy'
p43
F0.5
sS'lastScale'
p44
F5.5
sb.(i__main__
Data_mobile
p1
(dp2
S'vel_y'
p3
I0
sS'vel_x'
p4
I0
sS'pos_x'
p5
I-9579
sS'pos_y'
p6
I9779
sS'isAlive'
p7
I00
sS'cumulativeEnergy'
p8
F0.5
sS'geno'
p9
(lp10
F2.4217383588276622
aF-0.65304615645449005
aF0.42678521340023978
aF3.9175525930612425
aF0.90310558121730389
aF-0.092572630119883148
asS'accel_x'
p11
F0
sS'accel_y'
p12
F0
sS'visionAngle'
p13
I150
sS'maxAccel'
p14
I2
sS'maxVel'
p15
F0.5
sS'age'
p16
I0
sS'tailSize'
p17
F3.8117507126863925
sS'sexualgeno'
p18
(i__main__
Node
p19
(dp20
S'depth'
p21
I1
sS'right'
p22
(i__main__
Node
p23
(dp24
g21
I2
sg22
(i__main__
Node
p25
(dp26
g21
I3
sg22
NsS'parent'
p27
g23
sS'float_size'
p28
S'indiv.getNumPredatorsNeigh()'
p29
sS'float_bright'
p30
S'indiv.getTailBrightness()'
p31
sS'left'
p32
Nsbsg27
g19
sg28
S'+'
sg30
S'+'
sg32
(i__main__
Node
p33
(dp34
g21
I3
sg22
Nsg27
g23
sg28
S'indiv.distanceMatingSeason()'
p35
sg30
S'indiv.randF()'
p36
sg32
Nsbsbsg27
Nsg28
S'+'
sg30
S'/'
sg32
(i__main__
Node
p37
(dp38
g21
I2
sg22
Nsg27
g19
sg28
S'indiv.getNumPreysNeigh()'
p39
sg30
S'indiv.getTailSize()'
p40
sg32
NsbsbsS'tailBrigh'
p41
F8.97402989935647
sS'maxSteering'
p42
I30
sS'energy'
p43
F0.5
sS'lastScale'
p44
F5.5
sb.(i__main__
Data_mobile
p1
(dp2
S'vel_y'
p3
I0
sS'vel_x'
p4
I0
sS'pos_x'
p5
I-9579
sS'pos_y'
p6
I9779
sS'isAlive'
p7
I00
sS'cumulativeEnergy'
p8
F0.5
sS'geno'
p9
(lp10
F2.4217383588276622
aF-0.31368091668987341
aF0.66953726903249378
aF3.97944492805245
aF-0.23283484852313507
aF-0.092772602208946009
asS'accel_x'
p11
F0
sS'accel_y'
p12
F0
sS'visionAngle'
p13
I150
sS'maxAccel'
p14
I2
sS'maxVel'
p15
F0.5
sS'age'
p16
I0
sS'tailSize'
p17
F0.4329308639271745
sS'sexualgeno'
p18
(i__main__
Node
p19
(dp20
S'depth'
p21
I1
sS'right'
p22
(i__main__
Node
p23
(dp24
g21
I2
sg22
NsS'parent'
p25
g19
sS'float_size'
p26
S'indiv.getTailSize()'
p27
sS'float_bright'
p28
S'indiv.getNumPredatorsNeigh()'
p29
sS'left'
p30
Nsbsg25
Nsg26
S'+'
sg28
S'/'
sg30
(i__main__
Node
p31
(dp32
g21
I2
sg22
Nsg25
g19
sg26
S'indiv.getEnergy()'
p33
sg28
g29
sg30
NsbsbsS'tailBrigh'
p34
F8.240509823784496
sS'maxSteering'
p35
I30
sS'energy'
p36
F0.5
sS'lastScale'
p37
F5.5
sb.(i__main__
Data_mobile
p1
(dp2
S'vel_y'
p3
I0
sS'vel_x'
p4
I0
sS'pos_x'
p5
I-9579
sS'pos_y'
p6
I9779
sS'isAlive'
p7
I00
sS'cumulativeEnergy'
p8
F0.5
sS'geno'
p9
(lp10
F2.4217383588276622
aF-0.1171271199096634
aF0.94394525236982119
aF3.0767353189141295
aF0.3651731079799625
aF-0.35524483868050372
asS'accel_x'
p11
F0
sS'accel_y'
p12
F0
sS'visionAngle'
p13
I150
sS'maxAccel'
p14
I2
sS'maxVel'
p15
F0.5
sS'age'
p16
I0
sS'tailSize'
p17
F4.2079203056295276
sS'sexualgeno'
p18
(i__main__
Node
p19
(dp20
S'depth'
p21
I1
sS'right'
p22
(i__main__
Node
p23
(dp24
g21
I2
sg22
(i__main__
Node
p25
(dp26
g21
I3
sg22
NsS'parent'
p27
g23
sS'float_size'
p28
S'indiv.randF()'
p29
sS'float_bright'
p30
S'indiv.distanceMatingSeason()'
p31
sS'left'
p32
Nsbsg27
g19
sg28
S'/'
sg30
S'-'
sg32
(i__main__
Node
p33
(dp34
g21
I3
sg22
Nsg27
g23
sg28
g29
sg30
S'indiv.getTailBrightness()'
p35
sg32
Nsbsbsg27
Nsg28
S'+'
sg30
S'/'
sg32
(i__main__
Node
p36
(dp37
g21
I2
sg22
Nsg27
g19
sg28
S'indiv.getNumPreysNeigh()'
p38
sg30
S'indiv.getTailSize()'
p39
sg32
NsbsbsS'tailBrigh'
p40
F6.2373709345763784
sS'maxSteering'
p41
I30
sS'energy'
p42
F0.5
sS'lastScale'
p43
F5.5
sb.(i__main__
Data_mobile
p1
(dp2
S'vel_y'
p3
I0
sS'vel_x'
p4
I0
sS'pos_x'
p5
I-9579
sS'pos_y'
p6
I9779
sS'isAlive'
p7
I00
sS'cumulativeEnergy'
p8
F0.5
sS'geno'
p9
(lp10
F2.5793603584420755
aF-0.65304615645449005
aF0.94394525236982119
aF4.0527373071413457
aF-0.97526045108948611
aF-0.49039560063210041
asS'accel_x'
p11
F0
sS'accel_y'
p12
F0
sS'visionAngle'
p13
I150
sS'maxAccel'
p14
I2
sS'maxVel'
p15
F0.5
sS'age'
p16
I0
sS'tailSize'
p17
F1.9451271051294405
sS'sexualgeno'
p18
(i__main__
Node
p19
(dp20
S'depth'
p21
I1
sS'right'
p22
(i__main__
Node
p23
(dp24
g21
I2
sg22
(i__main__
Node
p25
(dp26
g21
I3
sg22
NsS'parent'
p27
g23
sS'float_size'
p28
S'indiv.getNumPreysNeigh()'
p29
sS'float_bright'
p30
g29
sS'left'
p31
Nsbsg27
g19
sg28
S'+'
sg30
S'*'
sg31
(i__main__
Node
p32
(dp33
g21
I3
sg22
Nsg27
g23
sg28
S'indiv.distanceMatingSeason()'
p34
sg30
S'indiv.randF()'
p35
sg31
Nsbsbsg27
Nsg28
S'+'
sg30
S'/'
sg31
(i__main__
Node
p36
(dp37
g21
I2
sg22
Nsg27
g19
sg28
g29
sg30
S'indiv.getTailSize()'
p38
sg31
NsbsbsS'tailBrigh'
p39
F5.1242525988996857
sS'maxSteering'
p40
I30
sS'energy'
p41
F0.5
sS'lastScale'
p42
F5.5
sb.(i__main__
Data_mobile
p1
(dp2
S'vel_y'
p3
I0
sS'vel_x'
p4
I0
sS'pos_x'
p5
I-9579
sS'pos_y'
p6
I9779
sS'isAlive'
p7
I00
sS'cumulativeEnergy'
p8
F0.5
sS'geno'
p9
(lp10
F2.4217383588276622
aF-0.1171271199096634
aF0.94394525236982119
aF4.0527373071413457
aF-0.94719639190239757
aF-0.57724825090310761
asS'accel_x'
p11
F0
sS'accel_y'
p12
F0
sS'visionAngle'
p13
I150
sS'maxAccel'
p14
I2
sS'maxVel'
p15
F0.5
sS'age'
p16
I0
sS'tailSize'
p17
F9.4821777309494788
sS'sexualgeno'
p18
(i__main__
Node
p19
(dp20
S'depth'
p21
I1
sS'right'
p22
(i__main__
Node
p23
(dp24
g21
I2
sg22
(i__main__
Node
p25
(dp26
g21
I3
sg22
NsS'parent'
p27
g23
sS'float_size'
p28
S'indiv.getNumPreysNeigh()'
p29
sS'float_bright'
p30
g29
sS'left'
p31
Nsbsg27
g19
sg28
S'+'
sg30
S'*'
sg31
(i__main__
Node
p32
(dp33
g21
I3
sg22
Nsg27
g23
sg28
S'indiv.distanceMatingSeason()'
p34
sg30
S'indiv.randF()'
p35
sg31
Nsbsbsg27
Nsg28
S'+'
sg30
S'/'
sg31
(i__main__
Node
p36
(dp37
g21
I2
sg22
Nsg27
g19
sg28
g29
sg30
S'indiv.getTailSize()'
p38
sg31
NsbsbsS'tailBrigh'
p39
F0.74858156626763761
sS'maxSteering'
p40
I30
sS'energy'
p41
F0.5
sS'lastScale'
p42
F5.5
sb.(i__main__
Data_mobile
p1
(dp2
S'vel_y'
p3
I0
sS'vel_x'
p4
I0
sS'pos_x'
p5
I-9579
sS'pos_y'
p6
I9779
sS'isAlive'
p7
I00
sS'cumulativeEnergy'
p8
F0.5
sS'geno'
p9
(lp10
F2.4217383588276622
aF-0.1171271199096634
aF0.94394525236982119
aF3.0767353189141295
aF0.3651731079799625
aF-0.35524483868050372
asS'accel_x'
p11
F0
sS'accel_y'
p12
F0
sS'visionAngle'
p13
I150
sS'maxAccel'
p14
I2
sS'maxVel'
p15
F0.5
sS'age'
p16
I0
sS'tailSize'
p17
F4.5655556989138422
sS'sexualgeno'
p18
(i__main__
Node
p19
(dp20
S'depth'
p21
I1
sS'right'
p22
(i__main__
Node
p23
(dp24
g21
I2
sg22
NsS'parent'
p25
g19
sS'float_size'
p26
S'indiv.getNumPredatorsNeigh()'
p27
sS'float_bright'
p28
S'indiv.getTailBrightness()'
p29
sS'left'
p30
Nsbsg25
Nsg26
S'+'
sg28
S'/'
sg30
(i__main__
Node
p31
(dp32
g21
I2
sg22
(i__main__
Node
p33
(dp34
g21
I3
sg22
Nsg25
g31
sg26
S'indiv.randF()'
p35
sg28
S'indiv.distanceMatingSeason()'
p36
sg30
Nsbsg25
g19
sg26
S'/'
sg28
S'-'
sg30
(i__main__
Node
p37
(dp38
g21
I3
sg22
Nsg25
g31
sg26
g35
sg28
g29
sg30
NsbsbsbsS'tailBrigh'
p39
F1.6166300844179349
sS'maxSteering'
p40
I30
sS'energy'
p41
F0.5
sS'lastScale'
p42
F5.5
sb.(i__main__
Data_mobile
p1
(dp2
S'vel_y'
p3
I0
sS'vel_x'
p4
I0
sS'pos_x'
p5
I-9579
sS'pos_y'
p6
I9779
sS'isAlive'
p7
I00
sS'cumulativeEnergy'
p8
F0.5
sS'geno'
p9
(lp10
F2.4217383588276622
aF-0.1171271199096634
aF0.37140118808406575
aF3.6581757429875967
aF-0.98446591481377366
aF-0.35087007670993731
asS'accel_x'
p11
F0
sS'accel_y'
p12
F0
sS'visionAngle'
p13
I150
sS'maxAccel'
p14
I2
sS'maxVel'
p15
F0.5
sS'age'
p16
I0
sS'tailSize'
p17
F5.1156627627682152
sS'sexualgeno'
p18
(i__main__
Node
p19
(dp20
S'depth'
p21
I1
sS'right'
p22
(i__main__
Node
p23
(dp24
g21
I2
sg22
(i__main__
Node
p25
(dp26
g21
I3
sg22
NsS'parent'
p27
g23
sS'float_size'
p28
S'indiv.distanceMatingSeason()'
p29
sS'float_bright'
p30
S'indiv.randF()'
p31
sS'left'
p32
Nsbsg27
g19
sg28
S'+'
sg30
S'/'
sg32
(i__main__
Node
p33
(dp34
g21
I3
sg22
Nsg27
g23
sg28
S'indiv.getTailBrightness()'
p35
sg30
S'indiv.getEnergy()'
p36
sg32
Nsbsbsg27
Nsg28
S'+'
sg30
S'/'
sg32
(i__main__
Node
p37
(dp38
g21
I2
sg22
Nsg27
g19
sg28
S'indiv.getNumPreysNeigh()'
p39
sg30
S'indiv.getTailSize()'
p40
sg32
NsbsbsS'tailBrigh'
p41
F9.3317549945544194
sS'maxSteering'
p42
I30
sS'energy'
p43
F0.5
sS'lastScale'
p44
F5.5
sb.(i__main__
Data_mobile
p1
(dp2
S'vel_y'
p3
I0
sS'vel_x'
p4
I0
sS'pos_x'
p5
I-9579
sS'pos_y'
p6
I9779
sS'isAlive'
p7
I00
sS'cumulativeEnergy'
p8
F0.5
sS'geno'
p9
(lp10
F2.4217383588276622
aF-0.31368091668987341
aF0.94394525236982119
aF4.3816930158124476
aF-0.94719639190239757
aF-0.57724825090310761
asS'accel_x'
p11
F0
sS'accel_y'
p12
F0
sS'visionAngle'
p13
I150
sS'maxAccel'
p14
I2
sS'maxVel'
p15
F0.5
sS'age'
p16
I0
sS'tailSize'
p17
F4.5394000442482794
sS'sexualgeno'
p18
(i__main__
Node
p19
(dp20
S'depth'
p21
I1
sS'right'
p22
(i__main__
Node
p23
(dp24
g21
I2
sg22
NsS'parent'
p25
g19
sS'float_size'
p26
S'indiv.getNumPredatorsNeigh()'
p27
sS'float_bright'
p28
S'indiv.getTailBrightness()'
p29
sS'left'
p30
Nsbsg25
Nsg26
S'+'
sg28
S'/'
sg30
(i__main__
Node
p31
(dp32
g21
I2
sg22
(i__main__
Node
p33
(dp34
g21
I3
sg22
Nsg25
g31
sg26
g27
sg28
g29
sg30
Nsbsg25
g19
sg26
S'+'
sg28
S'+'
sg30
(i__main__
Node
p35
(dp36
g21
I3
sg22
Nsg25
g31
sg26
S'indiv.distanceMatingSeason()'
p37
sg28
S'indiv.randF()'
p38
sg30
NsbsbsbsS'tailBrigh'
p39
F0.59824963972412881
sS'maxSteering'
p40
I30
sS'energy'
p41
F0.5
sS'lastScale'
p42
F5.5
sb.(i__main__
Data_mobile
p1
(dp2
S'vel_y'
p3
I0
sS'vel_x'
p4
I0
sS'pos_x'
p5
I-9579
sS'pos_y'
p6
I9779
sS'isAlive'
p7
I00
sS'cumulativeEnergy'
p8
F0.5
sS'geno'
p9
(lp10
F2.4217383588276622
aF-0.31368091668987341
aF0.94394525236982119
aF4.3816930158124476
aF-0.94719639190239757
aF-0.35524483868050372
asS'accel_x'
p11
F0
sS'accel_y'
p12
F0
sS'visionAngle'
p13
I150
sS'maxAccel'
p14
I2
sS'maxVel'
p15
F0.5
sS'age'
p16
I0
sS'tailSize'
p17
F1.3950624370161802
sS'sexualgeno'
p18
(i__main__
Node
p19
(dp20
S'depth'
p21
I1
sS'right'
p22
(i__main__
Node
p23
(dp24
g21
I2
sg22
NsS'parent'
p25
g19
sS'float_size'
p26
S'indiv.getNumPredatorsNeigh()'
p27
sS'float_bright'
p28
S'indiv.getTailBrightness()'
p29
sS'left'
p30
Nsbsg25
Nsg26
S'+'
sg28
S'/'
sg30
(i__main__
Node
p31
(dp32
g21
I2
sg22
(i__main__
Node
p33
(dp34
g21
I3
sg22
Nsg25
g31
sg26
S'indiv.randF()'
p35
sg28
S'indiv.distanceMatingSeason()'
p36
sg30
Nsbsg25
g19
sg26
S'/'
sg28
S'-'
sg30
(i__main__
Node
p37
(dp38
g21
I3
sg22
Nsg25
g31
sg26
g35
sg28
g29
sg30
NsbsbsbsS'tailBrigh'
p39
F7.6980504460039469
sS'maxSteering'
p40
I30
sS'energy'
p41
F0.5
sS'lastScale'
p42
F5.5
sb.(i__main__
Data_mobile
p1
(dp2
S'vel_y'
p3
I0
sS'vel_x'
p4
I0
sS'pos_x'
p5
I-9579
sS'pos_y'
p6
I9779
sS'isAlive'
p7
I00
sS'cumulativeEnergy'
p8
F0.5
sS'geno'
p9
(lp10
F2.4217383588276622
aF-0.31368091668987341
aF0.94394525236982119
aF4.3816930158124476
aF-1.1457400168393881
aF-0.57724825090310761
asS'accel_x'
p11
F0
sS'accel_y'
p12
F0
sS'visionAngle'
p13
I150
sS'maxAccel'
p14
I2
sS'maxVel'
p15
F0.5
sS'age'
p16
I0
sS'tailSize'
p17
F2.1561978907381607
sS'sexualgeno'
p18
(i__main__
Node
p19
(dp20
S'depth'
p21
I1
sS'right'
p22
(i__main__
Node
p23
(dp24
g21
I2
sg22
(i__main__
Node
p25
(dp26
g21
I3
sg22
NsS'parent'
p27
g23
sS'float_size'
p28
S'indiv.getNumPredatorsNeigh()'
p29
sS'float_bright'
p30
S'indiv.getNumPreysNeigh()'
p31
sS'left'
p32
Nsbsg27
g19
sg28
S'-'
sg30
S'/'
sg32
(i__main__
Node
p33
(dp34
g21
I3
sg22
Nsg27
g23
sg28
S'indiv.getTailSize()'
p35
sg30
g31
sg32
Nsbsbsg27
Nsg28
S'+'
sg30
S'/'
sg32
(i__main__
Node
p36
(dp37
g21
I2
sg22
Nsg27
g19
sg28
g31
sg30
g35
sg32
NsbsbsS'tailBrigh'
p38
F2.7704472706993641
sS'maxSteering'
p39
I30
sS'energy'
p40
F0.5
sS'lastScale'
p41
F5.5
sb.(i__main__
Data_mobile
p1
(dp2
S'vel_y'
p3
I0
sS'vel_x'
p4
I0
sS'pos_x'
p5
I-9579
sS'pos_y'
p6
I9779
sS'isAlive'
p7
I00
sS'cumulativeEnergy'
p8
F0.5
sS'geno'
p9
(lp10
F2.4217383588276622
aF-0.51863998951888368
aF0.94394525236982119
aF4.0527373071413457
aF-0.94719639190239757
aF-0.57724825090310761
asS'accel_x'
p11
F0
sS'accel_y'
p12
F0
sS'visionAngle'
p13
I150
sS'maxAccel'
p14
I2
sS'maxVel'
p15
F0.5
sS'age'
p16
I0
sS'tailSize'
p17
F8.6311938266281292
sS'sexualgeno'
p18
(i__main__
Node
p19
(dp20
S'depth'
p21
I1
sS'right'
p22
(i__main__
Node
p23
(dp24
g21
I2
sg22
(i__main__
Node
p25
(dp26
g21
I3
sg22
NsS'parent'
p27
g23
sS'float_size'
p28
S'indiv.distanceMatingSeason()'
p29
sS'float_bright'
p30
S'indiv.randF()'
p31
sS'left'
p32
Nsbsg27
g19
sg28
S'+'
sg30
S'/'
sg32
(i__main__
Node
p33
(dp34
g21
I3
sg22
Nsg27
g23
sg28
S'indiv.getTailBrightness()'
p35
sg30
S'indiv.getEnergy()'
p36
sg32
Nsbsbsg27
Nsg28
S'+'
sg30
S'/'
sg32
(i__main__
Node
p37
(dp38
g21
I2
sg22
Nsg27
g19
sg28
S'indiv.getNumPreysNeigh()'
p39
sg30
S'indiv.getTailSize()'
p40
sg32
NsbsbsS'tailBrigh'
p41
F6.2310338088203689
sS'maxSteering'
p42
I30
sS'energy'
p43
F0.5
sS'lastScale'
p44
F5.5
sb.(i__main__
Data_mobile
p1
(dp2
S'vel_y'
p3
I0
sS'vel_x'
p4
I0
sS'pos_x'
p5
I-9579
sS'pos_y'
p6
I9779
sS'isAlive'
p7
I00
sS'cumulativeEnergy'
p8
F0.5
sS'geno'
p9
(lp10
F2.4232125667664639
aF-0.061302741560131269
aF0.94394525236982119
aF3.97944492805245
aF-0.61400023942896653
aF-0.57724825090310761
asS'accel_x'
p11
F0
sS'accel_y'
p12
F0
sS'visionAngle'
p13
I150
sS'maxAccel'
p14
I2
sS'maxVel'
p15
F0.5
sS'age'
p16
I0
sS'tailSize'
p17
F3.500133003257563
sS'sexualgeno'
p18
(i__main__
Node
p19
(dp20
S'depth'
p21
I1
sS'right'
p22
(i__main__
Node
p23
(dp24
g21
I2
sg22
(i__main__
Node
p25
(dp26
g21
I3
sg22
NsS'parent'
p27
g23
sS'float_size'
p28
S'indiv.getNumPredatorsNeigh()'
p29
sS'float_bright'
p30
S'indiv.getTailBrightness()'
p31
sS'left'
p32
Nsbsg27
g19
sg28
S'+'
sg30
S'+'
sg32
(i__main__
Node
p33
(dp34
g21
I3
sg22
Nsg27
g23
sg28
S'indiv.distanceMatingSeason()'
p35
sg30
S'indiv.randF()'
p36
sg32
Nsbsbsg27
Nsg28
S'+'
sg30
S'/'
sg32
(i__main__
Node
p37
(dp38
g21
I2
sg22
Nsg27
g19
sg28
S'indiv.getNumPreysNeigh()'
p39
sg30
S'indiv.getTailSize()'
p40
sg32
NsbsbsS'tailBrigh'
p41
F0.93814661477029437
sS'maxSteering'
p42
I30
sS'energy'
p43
F0.5
sS'lastScale'
p44
F5.5
sb.(i__main__
Data_mobile
p1
(dp2
S'vel_y'
p3
I0
sS'vel_x'
p4
I0
sS'pos_x'
p5
I-9579
sS'pos_y'
p6
I9779
sS'isAlive'
p7
I00
sS'cumulativeEnergy'
p8
F0.5
sS'geno'
p9
(lp10
F2.1780344119777788
aF-0.27005612753720853
aF0.53456227106988552
aF4.3816930158124476
aF0.44934076499380415
aF0.013457310038362591
asS'accel_x'
p11
F0
sS'accel_y'
p12
F0
sS'visionAngle'
p13
I150
sS'maxAccel'
p14
I2
sS'maxVel'
p15
F0.5
sS'age'
p16
I0
sS'tailSize'
p17
F9.3903226768886565
sS'sexualgeno'
p18
(i__main__
Node
p19
(dp20
S'depth'
p21
I1
sS'right'
p22
(i__main__
Node
p23
(dp24
g21
I2
sg22
(i__main__
Node
p25
(dp26
g21
I3
sg22
NsS'parent'
p27
g23
sS'float_size'
p28
S'indiv.randF()'
p29
sS'float_bright'
p30
S'indiv.distanceMatingSeason()'
p31
sS'left'
p32
Nsbsg27
g19
sg28
S'/'
sg30
S'-'
sg32
(i__main__
Node
p33
(dp34
g21
I3
sg22
Nsg27
g23
sg28
g29
sg30
S'indiv.getTailBrightness()'
p35
sg32
Nsbsbsg27
Nsg28
S'+'
sg30
S'/'
sg32
(i__main__
Node
p36
(dp37
g21
I2
sg22
Nsg27
g19
sg28
S'indiv.getNumPreysNeigh()'
p38
sg30
S'indiv.getTailSize()'
p39
sg32
NsbsbsS'tailBrigh'
p40
F5.8568604692879767
sS'maxSteering'
p41
I30
sS'energy'
p42
F0.5
sS'lastScale'
p43
F5.5
sb.(i__main__
Data_mobile
p1
(dp2
S'vel_y'
p3
I0
sS'vel_x'
p4
I0
sS'pos_x'
p5
I-9579
sS'pos_y'
p6
I9779
sS'isAlive'
p7
I00
sS'cumulativeEnergy'
p8
F0.5
sS'geno'
p9
(lp10
F1.9329192632682313
aF-0.27005612753720853
aF0.061245727215252788
aF3.6581757429875967
aF-0.98446591481377366
aF-0.35087007670993731
asS'accel_x'
p11
F0
sS'accel_y'
p12
F0
sS'visionAngle'
p13
I150
sS'maxAccel'
p14
I2
sS'maxVel'
p15
F0.5
sS'age'
p16
I0
sS'tailSize'
p17
F6.2602514998473291
sS'sexualgeno'
p18
(i__main__
Node
p19
(dp20
S'depth'
p21
I1
sS'right'
p22
(i__main__
Node
p23
(dp24
g22
(i__main__
Node
p25
(dp26
g22
(i__main__
Node
p27
(dp28
g22
NsS'parent'
p29
g25
sg21
I4
sS'float_size'
p30
S'indiv.getEnergy()'
p31
sS'float_bright'
p32
S'indiv.getNumPreysNeigh()'
p33
sS'left'
p34
Nsbsg29
g23
sg21
I3
sg30
S'-'
sg32
S'+'
sg34
(i__main__
Node
p35
(dp36
g22
Nsg29
g25
sg21
I4
sg30
g31
sg32
S'indiv.getNumPredatorsNeigh()'
p37
sg34
Nsbsbsg29
g19
sg21
I2
sg30
S'*'
sg32
S'/'
sg34
(i__main__
Node
p38
(dp39
g22
(i__main__
Node
p40
(dp41
g22
Nsg29
g38
sg21
I4
sg30
S'indiv.randF()'
p42
sg32
S'indiv.distanceMatingSeason()'
p43
sg34
Nsbsg29
g23
sg21
I3
sg30
S'/'
sg32
S'+'
sg34
(i__main__
Node
p44
(dp45
g22
Nsg29
g38
sg21
I4
sg30
g42
sg32
g37
sg34
Nsbsbsbsg29
Nsg30
S'+'
sg32
S'/'
sg34
(i__main__
Node
p46
(dp47
g21
I2
sg22
Nsg29
g19
sg30
g33
sg32
S'indiv.getTailSize()'
p48
sg34
NsbsbsS'tailBrigh'
p49
F4.9216244969085459
sS'maxSteering'
p50
I30
sS'energy'
p51
F0.5
sS'lastScale'
p52
F5.5
sb.(i__main__
Data_mobile
p1
(dp2
S'vel_y'
p3
I0
sS'vel_x'
p4
I0
sS'pos_x'
p5
I-9579
sS'pos_y'
p6
I9779
sS'isAlive'
p7
I00
sS'cumulativeEnergy'
p8
F0.5
sS'geno'
p9
(lp10
F2.4217383588276622
aF-0.27005612753720853
aF0.37140118808406575
aF3.6581757429875967
aF-0.98446591481377366
aF-0.35087007670993731
asS'accel_x'
p11
F0
sS'accel_y'
p12
F0
sS'visionAngle'
p13
I150
sS'maxAccel'
p14
I2
sS'maxVel'
p15
F0.5
sS'age'
p16
I0
sS'tailSize'
p17
F6.5825644553231886
sS'sexualgeno'
p18
(i__main__
Node
p19
(dp20
S'depth'
p21
I1
sS'right'
p22
(i__main__
Node
p23
(dp24
g21
I2
sg22
(i__main__
Node
p25
(dp26
g21
I3
sg22
NsS'parent'
p27
g23
sS'float_size'
p28
S'indiv.distanceMatingSeason()'
p29
sS'float_bright'
p30
S'indiv.randF()'
p31
sS'left'
p32
Nsbsg27
g19
sg28
S'+'
sg30
S'/'
sg32
(i__main__
Node
p33
(dp34
g21
I3
sg22
Nsg27
g23
sg28
S'indiv.getTailBrightness()'
p35
sg30
S'indiv.getEnergy()'
p36
sg32
Nsbsbsg27
Nsg28
S'+'
sg30
S'/'
sg32
(i__main__
Node
p37
(dp38
g21
I2
sg22
Nsg27
g19
sg28
S'indiv.getNumPreysNeigh()'
p39
sg30
S'indiv.getTailSize()'
p40
sg32
NsbsbsS'tailBrigh'
p41
F8.8272205610306269
sS'maxSteering'
p42
I30
sS'energy'
p43
F0.5
sS'lastScale'
p44
F5.5
sb.(i__main__
Data_mobile
p1
(dp2
S'vel_y'
p3
I0
sS'vel_x'
p4
I0
sS'pos_x'
p5
I-9579
sS'pos_y'
p6
I9779
sS'isAlive'
p7
I00
sS'cumulativeEnergy'
p8
F0.5
sS'geno'
p9
(lp10
F2.6905188484586167
aF-0.65304615645449005
aF0.42678521340023978
aF3.9175525930612425
aF0.90310558121730389
aF-0.59252335901776887
asS'accel_x'
p11
F0
sS'accel_y'
p12
F0
sS'visionAngle'
p13
I150
sS'maxAccel'
p14
I2
sS'maxVel'
p15
F0.5
sS'age'
p16
I0
sS'tailSize'
p17
F4.2647472919821965
sS'sexualgeno'
p18
(i__main__
Node
p19
(dp20
S'depth'
p21
I1
sS'right'
p22
(i__main__
Node
p23
(dp24
g21
I2
sg22
NsS'parent'
p25
g19
sS'float_size'
p26
S'indiv.getNumPredatorsNeigh()'
p27
sS'float_bright'
p28
S'indiv.getTailBrightness()'
p29
sS'left'
p30
Nsbsg25
Nsg26
S'+'
sg28
S'/'
sg30
(i__main__
Node
p31
(dp32
g21
I2
sg22
(i__main__
Node
p33
(dp34
g21
I3
sg22
Nsg25
g31
sg26
g27
sg28
S'indiv.getNumPreysNeigh()'
p35
sg30
Nsbsg25
g19
sg26
S'-'
sg28
S'/'
sg30
(i__main__
Node
p36
(dp37
g21
I3
sg22
Nsg25
g31
sg26
S'indiv.getTailSize()'
p38
sg28
g35
sg30
NsbsbsbsS'tailBrigh'
p39
F3.923143177618742
sS'maxSteering'
p40
I30
sS'energy'
p41
F0.5
sS'lastScale'
p42
F5.5
sb.(i__main__
Data_mobile
p1
(dp2
S'vel_y'
p3
I0
sS'vel_x'
p4
I0
sS'pos_x'
p5
I-9579
sS'pos_y'
p6
I9779
sS'isAlive'
p7
I00
sS'cumulativeEnergy'
p8
F0.5
sS'geno'
p9
(lp10
F2.4217383588276622
aF-0.049817565972556155
aF0.78279274973631818
aF4.3816930158124476
aF-0.94719639190239757
aF-0.57724825090310761
asS'accel_x'
p11
F0
sS'accel_y'
p12
F0
sS'visionAngle'
p13
I150
sS'maxAccel'
p14
I2
sS'maxVel'
p15
F0.5
sS'age'
p16
I0
sS'tailSize'
p17
F9.0210696936892703
sS'sexualgeno'
p18
(i__main__
Node
p19
(dp20
S'depth'
p21
I1
sS'right'
p22
(i__main__
Node
p23
(dp24
g21
I2
sg22
(i__main__
Node
p25
(dp26
g21
I3
sg22
NsS'parent'
p27
g23
sS'float_size'
p28
S'indiv.getNumPredatorsNeigh()'
p29
sS'float_bright'
p30
S'indiv.getNumPreysNeigh()'
p31
sS'left'
p32
Nsbsg27
g19
sg28
S'-'
sg30
S'/'
sg32
(i__main__
Node
p33
(dp34
g21
I3
sg22
Nsg27
g23
sg28
S'indiv.getTailSize()'
p35
sg30
g31
sg32
Nsbsbsg27
Nsg28
S'+'
sg30
S'/'
sg32
(i__main__
Node
p36
(dp37
g21
I2
sg22
Nsg27
g19
sg28
g31
sg30
g35
sg32
NsbsbsS'tailBrigh'
p38
F7.6435750643183029
sS'maxSteering'
p39
I30
sS'energy'
p40
F0.5
sS'lastScale'
p41
F5.5
sb.(i__main__
Data_mobile
p1
(dp2
S'vel_y'
p3
I0
sS'vel_x'
p4
I0
sS'pos_x'
p5
I-9579
sS'pos_y'
p6
I9779
sS'isAlive'
p7
I00
sS'cumulativeEnergy'
p8
F0.5
sS'geno'
p9
(lp10
F2.4217383588276622
aF-0.31368091668987341
aF0.94394525236982119
aF4.3816930158124476
aF-0.94719639190239757
aF-0.65909196324075459
asS'accel_x'
p11
F0
sS'accel_y'
p12
F0
sS'visionAngle'
p13
I150
sS'maxAccel'
p14
I2
sS'maxVel'
p15
F0.5
sS'age'
p16
I0
sS'tailSize'
p17
F9.5549400259669675
sS'sexualgeno'
p18
(i__main__
Node
p19
(dp20
S'depth'
p21
I1
sS'right'
p22
(i__main__
Node
p23
(dp24
g21
I2
sg22
(i__main__
Node
p25
(dp26
g21
I3
sg22
NsS'parent'
p27
g23
sS'float_size'
p28
S'indiv.getNumPredatorsNeigh()'
p29
sS'float_bright'
p30
S'indiv.getTailBrightness()'
p31
sS'left'
p32
Nsbsg27
g19
sg28
S'+'
sg30
S'+'
sg32
(i__main__
Node
p33
(dp34
g21
I3
sg22
Nsg27
g23
sg28
S'indiv.distanceMatingSeason()'
p35
sg30
S'indiv.randF()'
p36
sg32
Nsbsbsg27
Nsg28
S'+'
sg30
S'/'
sg32
(i__main__
Node
p37
(dp38
g21
I2
sg22
Nsg27
g19
sg28
S'indiv.getNumPreysNeigh()'
p39
sg30
S'indiv.getTailSize()'
p40
sg32
NsbsbsS'tailBrigh'
p41
F4.3183620519937413
sS'maxSteering'
p42
I30
sS'energy'
p43
F0.5
sS'lastScale'
p44
F5.5
sb.(i__main__
Data_mobile
p1
(dp2
S'vel_y'
p3
I0
sS'vel_x'
p4
I0
sS'pos_x'
p5
I-9579
sS'pos_y'
p6
I9779
sS'isAlive'
p7
I00
sS'cumulativeEnergy'
p8
F0.5
sS'geno'
p9
(lp10
F2.4217383588276622
aF-0.31368091668987341
aF0.94394525236982119
aF3.97944492805245
aF-0.68108265870697449
aF-0.16821351798950435
asS'accel_x'
p11
F0
sS'accel_y'
p12
F0
sS'visionAngle'
p13
I150
sS'maxAccel'
p14
I2
sS'maxVel'
p15
F0.5
sS'age'
p16
I0
sS'tailSize'
p17
F5.8852013906150606
sS'sexualgeno'
p18
(i__main__
Node
p19
(dp20
S'depth'
p21
I1
sS'right'
p22
(i__main__
Node
p23
(dp24
g21
I2
sg22
(i__main__
Node
p25
(dp26
g21
I3
sg22
NsS'parent'
p27
g23
sS'float_size'
p28
S'indiv.getNumPredatorsNeigh()'
p29
sS'float_bright'
p30
S'indiv.getTailBrightness()'
p31
sS'left'
p32
Nsbsg27
g19
sg28
S'+'
sg30
S'+'
sg32
(i__main__
Node
p33
(dp34
g21
I3
sg22
Nsg27
g23
sg28
S'indiv.distanceMatingSeason()'
p35
sg30
S'indiv.randF()'
p36
sg32
Nsbsbsg27
Nsg28
S'+'
sg30
S'/'
sg32
(i__main__
Node
p37
(dp38
g21
I2
sg22
Nsg27
g19
sg28
S'indiv.getNumPreysNeigh()'
p39
sg30
S'indiv.getTailSize()'
p40
sg32
NsbsbsS'tailBrigh'
p41
F5.7613440386802299
sS'maxSteering'
p42
I30
sS'energy'
p43
F0.5
sS'lastScale'
p44
F5.5
sb.(i__main__
Data_mobile
p1
(dp2
S'vel_y'
p3
I0
sS'vel_x'
p4
I0
sS'pos_x'
p5
I-9579
sS'pos_y'
p6
I9779
sS'isAlive'
p7
I00
sS'cumulativeEnergy'
p8
F0.5
sS'geno'
p9
(lp10
F2.4217383588276622
aF-0.31368091668987341
aF0.94394525236982119
aF3.97944492805245
aF-0.32501525529315434
aF-0.49175505771187233
asS'accel_x'
p11
F0
sS'accel_y'
p12
F0
sS'visionAngle'
p13
I150
sS'maxAccel'
p14
I2
sS'maxVel'
p15
F0.5
sS'age'
p16
I0
sS'tailSize'
p17
F3.287827573666946
sS'sexualgeno'
p18
(i__main__
Node
p19
(dp20
S'depth'
p21
I1
sS'right'
p22
(i__main__
Node
p23
(dp24
g21
I2
sg22
(i__main__
Node
p25
(dp26
g21
I3
sg22
NsS'parent'
p27
g23
sS'float_size'
p28
S'indiv.getNumPredatorsNeigh()'
p29
sS'float_bright'
p30
S'indiv.getTailBrightness()'
p31
sS'left'
p32
Nsbsg27
g19
sg28
S'+'
sg30
S'+'
sg32
(i__main__
Node
p33
(dp34
g21
I3
sg22
Nsg27
g23
sg28
S'indiv.distanceMatingSeason()'
p35
sg30
S'indiv.randF()'
p36
sg32
Nsbsbsg27
Nsg28
S'-'
sg30
S'+'
sg32
(i__main__
Node
p37
(dp38
g21
I2
sg22
(i__main__
Node
p39
(dp40
g21
I3
sg22
Nsg27
g37
sg28
g29
sg30
g31
sg32
Nsbsg27
g19
sg28
S'+'
sg30
S'+'
sg32
(i__main__
Node
p41
(dp42
g21
I3
sg22
Nsg27
g37
sg28
g35
sg30
g36
sg32
NsbsbsbsS'tailBrigh'
p43
F2.5477120109018268
sS'maxSteering'
p44
I30
sS'energy'
p45
F0.5
sS'lastScale'
p46
F5.5
sb.(i__main__
Data_mobile
p1
(dp2
S'vel_y'
p3
I0
sS'vel_x'
p4
I0
sS'pos_x'
p5
I-9579
sS'pos_y'
p6
I9779
sS'isAlive'
p7
I00
sS'cumulativeEnergy'
p8
F0.5
sS'geno'
p9
(lp10
F2.4217383588276622
aF-0.31368091668987341
aF0.94394525236982119
aF3.97944492805245
aF-0.68108265870697449
aF-0.57724825090310761
asS'accel_x'
p11
F0
sS'accel_y'
p12
F0
sS'visionAngle'
p13
I150
sS'maxAccel'
p14
I2
sS'maxVel'
p15
F0.5
sS'age'
p16
I0
sS'tailSize'
p17
F4.37229689338748
sS'sexualgeno'
p18
(i__main__
Node
p19
(dp20
S'depth'
p21
I1
sS'right'
p22
(i__main__
Node
p23
(dp24
g21
I2
sg22
(i__main__
Node
p25
(dp26
g21
I3
sg22
NsS'parent'
p27
g23
sS'float_size'
p28
S'indiv.getNumPredatorsNeigh()'
p29
sS'float_bright'
p30
S'indiv.getTailBrightness()'
p31
sS'left'
p32
Nsbsg27
g19
sg28
S'+'
sg30
S'+'
sg32
(i__main__
Node
p33
(dp34
g21
I3
sg22
Nsg27
g23
sg28
S'indiv.distanceMatingSeason()'
p35
sg30
S'indiv.randF()'
p36
sg32
Nsbsbsg27
Nsg28
S'+'
sg30
S'/'
sg32
(i__main__
Node
p37
(dp38
g21
I2
sg22
Nsg27
g19
sg28
S'indiv.getNumPreysNeigh()'
p39
sg30
S'indiv.getTailSize()'
p40
sg32
NsbsbsS'tailBrigh'
p41
F8.3240457949067661
sS'maxSteering'
p42
I30
sS'energy'
p43
F0.5
sS'lastScale'
p44
F5.5
sb.(i__main__
Data_mobile
p1
(dp2
S'vel_y'
p3
I0
sS'vel_x'
p4
I0
sS'pos_x'
p5
I-9579
sS'pos_y'
p6
I9779
sS'isAlive'
p7
I00
sS'cumulativeEnergy'
p8
F0.5
sS'geno'
p9
(lp10
F2.4217383588276622
aF-0.31368091668987341
aF0.94394525236982119
aF4.3816930158124476
aF-1.1457400168393881
aF-0.57724825090310761
asS'accel_x'
p11
F0
sS'accel_y'
p12
F0
sS'visionAngle'
p13
I150
sS'maxAccel'
p14
I2
sS'maxVel'
p15
F0.5
sS'age'
p16
I0
sS'tailSize'
p17
F4.9952241057950975
sS'sexualgeno'
p18
(i__main__
Node
p19
(dp20
S'depth'
p21
I1
sS'right'
p22
(i__main__
Node
p23
(dp24
g21
I2
sg22
NsS'parent'
p25
g19
sS'float_size'
p26
S'indiv.getNumPredatorsNeigh()'
p27
sS'float_bright'
p28
S'indiv.getTailBrightness()'
p29
sS'left'
p30
Nsbsg25
Nsg26
S'+'
sg28
S'/'
sg30
(i__main__
Node
p31
(dp32
g21
I2
sg22
(i__main__
Node
p33
(dp34
g21
I3
sg22
Nsg25
g31
sg26
g27
sg28
S'indiv.getNumPreysNeigh()'
p35
sg30
Nsbsg25
g19
sg26
S'-'
sg28
S'/'
sg30
(i__main__
Node
p36
(dp37
g21
I3
sg22
Nsg25
g31
sg26
S'indiv.getTailSize()'
p38
sg28
g35
sg30
NsbsbsbsS'tailBrigh'
p39
F2.7335352059759668
sS'maxSteering'
p40
I30
sS'energy'
p41
F0.5
sS'lastScale'
p42
F5.5
sb.(i__main__
Data_mobile
p1
(dp2
S'vel_y'
p3
I0
sS'vel_x'
p4
I0
sS'pos_x'
p5
I-9579
sS'pos_y'
p6
I9779
sS'isAlive'
p7
I00
sS'cumulativeEnergy'
p8
F0.5
sS'geno'
p9
(lp10
F2.4217383588276622
aF-0.31368091668987341
aF0.94394525236982119
aF4.3816930158124476
aF-1.1457400168393881
aF-0.57724825090310761
asS'accel_x'
p11
F0
sS'accel_y'
p12
F0
sS'visionAngle'
p13
I150
sS'maxAccel'
p14
I2
sS'maxVel'
p15
F0.5
sS'age'
p16
I0
sS'tailSize'
p17
F3.3612164567091698
sS'sexualgeno'
p18
(i__main__
Node
p19
(dp20
S'depth'
p21
I1
sS'right'
p22
(i__main__
Node
p23
(dp24
g21
I2
sg22
(i__main__
Node
p25
(dp26
g21
I3
sg22
NsS'parent'
p27
g23
sS'float_size'
p28
S'indiv.getNumPredatorsNeigh()'
p29
sS'float_bright'
p30
S'indiv.getNumPreysNeigh()'
p31
sS'left'
p32
Nsbsg27
g19
sg28
S'-'
sg30
S'/'
sg32
(i__main__
Node
p33
(dp34
g21
I3
sg22
Nsg27
g23
sg28
S'indiv.getTailSize()'
p35
sg30
g31
sg32
Nsbsbsg27
Nsg28
S'+'
sg30
S'/'
sg32
(i__main__
Node
p36
(dp37
g21
I2
sg22
Nsg27
g19
sg28
g31
sg30
g35
sg32
NsbsbsS'tailBrigh'
p38
F2.9682216593083721
sS'maxSteering'
p39
I30
sS'energy'
p40
F0.5
sS'lastScale'
p41
F5.5
sb.(i__main__
Data_mobile
p1
(dp2
S'vel_y'
p3
I0
sS'vel_x'
p4
I0
sS'pos_x'
p5
I-9579
sS'pos_y'
p6
I9779
sS'isAlive'
p7
I00
sS'cumulativeEnergy'
p8
F0.5
sS'geno'
p9
(lp10
F2.4217383588276622
aF-0.31368091668987341
aF0.94394525236982119
aF4.3816930158124476
aF-1.1457400168393881
aF-0.57724825090310761
asS'accel_x'
p11
F0
sS'accel_y'
p12
F0
sS'visionAngle'
p13
I150
sS'maxAccel'
p14
I2
sS'maxVel'
p15
F0.5
sS'age'
p16
I0
sS'tailSize'
p17
F7.5606797650862045
sS'sexualgeno'
p18
(i__main__
Node
p19
(dp20
S'depth'
p21
I1
sS'right'
p22
(i__main__
Node
p23
(dp24
g21
I2
sg22
NsS'parent'
p25
g19
sS'float_size'
p26
S'indiv.getNumPredatorsNeigh()'
p27
sS'float_bright'
p28
S'indiv.getTailBrightness()'
p29
sS'left'
p30
Nsbsg25
Nsg26
S'+'
sg28
S'/'
sg30
(i__main__
Node
p31
(dp32
g21
I2
sg22
(i__main__
Node
p33
(dp34
g21
I3
sg22
Nsg25
g31
sg26
g27
sg28
S'indiv.getNumPreysNeigh()'
p35
sg30
Nsbsg25
g19
sg26
S'-'
sg28
S'/'
sg30
(i__main__
Node
p36
(dp37
g21
I3
sg22
Nsg25
g31
sg26
S'indiv.getTailSize()'
p38
sg28
g35
sg30
NsbsbsbsS'tailBrigh'
p39
F3.3362237951540576
sS'maxSteering'
p40
I30
sS'energy'
p41
F0.5
sS'lastScale'
p42
F5.5
sb.(i__main__
Data_mobile
p1
(dp2
S'vel_y'
p3
I0
sS'vel_x'
p4
I0
sS'pos_x'
p5
I-9579
sS'pos_y'
p6
I9779
sS'isAlive'
p7
I00
sS'cumulativeEnergy'
p8
F0.5
sS'geno'
p9
(lp10
F2.4217383588276622
aF-0.76540764403368278
aF0.94394525236982119
aF3.97944492805245
aF-0.68108265870697449
aF-0.57724825090310761
asS'accel_x'
p11
F0
sS'accel_y'
p12
F0
sS'visionAngle'
p13
I150
sS'maxAccel'
p14
I2
sS'maxVel'
p15
F0.5
sS'age'
p16
I0
sS'tailSize'
p17
F9.8277731239341577
sS'sexualgeno'
p18
(i__main__
Node
p19
(dp20
S'depth'
p21
I1
sS'right'
p22
(i__main__
Node
p23
(dp24
g21
I2
sg22
(i__main__
Node
p25
(dp26
g21
I3
sg22
NsS'parent'
p27
g23
sS'float_size'
p28
S'indiv.getNumPredatorsNeigh()'
p29
sS'float_bright'
p30
S'indiv.getTailBrightness()'
p31
sS'left'
p32
Nsbsg27
g19
sg28
S'+'
sg30
S'+'
sg32
(i__main__
Node
p33
(dp34
g21
I3
sg22
Nsg27
g23
sg28
S'indiv.distanceMatingSeason()'
p35
sg30
S'indiv.randF()'
p36
sg32
Nsbsbsg27
Nsg28
S'+'
sg30
S'/'
sg32
(i__main__
Node
p37
(dp38
g21
I2
sg22
Nsg27
g19
sg28
S'indiv.getNumPreysNeigh()'
p39
sg30
S'indiv.getTailSize()'
p40
sg32
NsbsbsS'tailBrigh'
p41
F1.9196691426641688
sS'maxSteering'
p42
I30
sS'energy'
p43
F0.5
sS'lastScale'
p44
F5.5
sb.(i__main__
Data_mobile
p1
(dp2
S'vel_y'
p3
I0
sS'vel_x'
p4
I0
sS'pos_x'
p5
I-9579
sS'pos_y'
p6
I9779
sS'isAlive'
p7
I00
sS'cumulativeEnergy'
p8
F0.5
sS'geno'
p9
(lp10
F2.4217383588276622
aF-0.31368091668987341
aF0.94394525236982119
aF3.97944492805245
aF-0.68108265870697449
aF-0.35087007670993731
asS'accel_x'
p11
F0
sS'accel_y'
p12
F0
sS'visionAngle'
p13
I150
sS'maxAccel'
p14
I2
sS'maxVel'
p15
F0.5
sS'age'
p16
I0
sS'tailSize'
p17
F4.5592746072745616
sS'sexualgeno'
p18
(i__main__
Node
p19
(dp20
S'depth'
p21
I1
sS'right'
p22
(i__main__
Node
p23
(dp24
g21
I2
sg22
(i__main__
Node
p25
(dp26
g21
I3
sg22
NsS'parent'
p27
g23
sS'float_size'
p28
S'indiv.getNumPredatorsNeigh()'
p29
sS'float_bright'
p30
S'indiv.getTailBrightness()'
p31
sS'left'
p32
Nsbsg27
g19
sg28
S'+'
sg30
S'+'
sg32
(i__main__
Node
p33
(dp34
g21
I3
sg22
Nsg27
g23
sg28
S'indiv.distanceMatingSeason()'
p35
sg30
S'indiv.randF()'
p36
sg32
Nsbsbsg27
Nsg28
S'+'
sg30
S'/'
sg32
(i__main__
Node
p37
(dp38
g21
I2
sg22
Nsg27
g19
sg28
S'indiv.getNumPreysNeigh()'
p39
sg30
S'indiv.getTailSize()'
p40
sg32
NsbsbsS'tailBrigh'
p41
F7.7027271855048909
sS'maxSteering'
p42
I30
sS'energy'
p43
F0.5
sS'lastScale'
p44
F5.5
sb.(i__main__
Data_mobile
p1
(dp2
S'vel_y'
p3
I0
sS'vel_x'
p4
I0
sS'pos_x'
p5
I-9579
sS'pos_y'
p6
I9779
sS'isAlive'
p7
I00
sS'cumulativeEnergy'
p8
F0.5
sS'geno'
p9
(lp10
F-3.2643228074360007
aF2.9378561545017199
aF2.5913006586496756
aF4.0527373071413457
aF-0.94719639190239757
aF-0.57724825090310761
asS'accel_x'
p11
F0
sS'accel_y'
p12
F0
sS'visionAngle'
p13
I150
sS'maxAccel'
p14
I2
sS'maxVel'
p15
F0.5
sS'age'
p16
I0
sS'tailSize'
p17
F5.2220822279741954
sS'sexualgeno'
p18
(i__main__
Node
p19
(dp20
S'depth'
p21
I1
sS'right'
p22
(i__main__
Node
p23
(dp24
g21
I2
sg22
NsS'parent'
p25
g19
sS'float_size'
p26
S'indiv.getNumPredatorsNeigh()'
p27
sS'float_bright'
p28
S'indiv.getTailBrightness()'
p29
sS'left'
p30
Nsbsg25
Nsg26
S'+'
sg28
S'/'
sg30
(i__main__
Node
p31
(dp32
g21
I2
sg22
(i__main__
Node
p33
(dp34
g21
I3
sg22
Nsg25
g31
sg26
S'indiv.getNumPreysNeigh()'
p35
sg28
g35
sg30
Nsbsg25
g19
sg26
S'+'
sg28
S'*'
sg30
(i__main__
Node
p36
(dp37
g21
I3
sg22
Nsg25
g31
sg26
S'indiv.distanceMatingSeason()'
p38
sg28
S'indiv.randF()'
p39
sg30
NsbsbsbsS'tailBrigh'
p40
F2.8417218689914989
sS'maxSteering'
p41
I30
sS'energy'
p42
F0.5
sS'lastScale'
p43
F5.5
sb.(i__main__
Data_mobile
p1
(dp2
S'vel_y'
p3
I0
sS'vel_x'
p4
I0
sS'pos_x'
p5
I-9579
sS'pos_y'
p6
I9779
sS'isAlive'
p7
I00
sS'cumulativeEnergy'
p8
F0.5
sS'geno'
p9
(lp10
F2.4217383588276622
aF-0.31368091668987341
aF0.94394525236982119
aF3.9821743588329701
aF-1.1457400168393881
aF-0.57724825090310761
asS'accel_x'
p11
F0
sS'accel_y'
p12
F0
sS'visionAngle'
p13
I150
sS'maxAccel'
p14
I2
sS'maxVel'
p15
F0.5
sS'age'
p16
I0
sS'tailSize'
p17
F9.215149524994132
sS'sexualgeno'
p18
(i__main__
Node
p19
(dp20
S'depth'
p21
I1
sS'right'
p22
(i__main__
Node
p23
(dp24
g22
(i__main__
Node
p25
(dp26
g22
NsS'parent'
p27
g23
sg21
I3
sS'float_size'
p28
S'indiv.getTailBrightness()'
p29
sS'float_bright'
p30
S'indiv.getNumPredatorsNeigh()'
p31
sS'left'
p32
Nsbsg27
g19
sg21
I2
sg28
S'/'
sg30
S'+'
sg32
(i__main__
Node
p33
(dp34
g22
Nsg27
g23
sg21
I3
sg28
g29
sg30
g29
sg32
Nsbsbsg27
Nsg28
S'+'
sg30
S'/'
sg32
(i__main__
Node
p35
(dp36
g21
I2
sg22
Nsg27
g19
sg28
S'indiv.getNumPreysNeigh()'
p37
sg30
S'indiv.getTailSize()'
p38
sg32
NsbsbsS'tailBrigh'
p39
F7.7435246479697408
sS'maxSteering'
p40
I30
sS'energy'
p41
F0.5
sS'lastScale'
p42
F5.5
sb.(i__main__
Data_mobile
p1
(dp2
S'vel_y'
p3
I0
sS'vel_x'
p4
I0
sS'pos_x'
p5
I-9579
sS'pos_y'
p6
I9779
sS'isAlive'
p7
I00
sS'cumulativeEnergy'
p8
F0.5
sS'geno'
p9
(lp10
F2.5793603584420755
aF-0.65304615645449005
aF0.94394525236982119
aF4.0527373071413457
aF-0.94719639190239757
aF-0.57724825090310761
asS'accel_x'
p11
F0
sS'accel_y'
p12
F0
sS'visionAngle'
p13
I150
sS'maxAccel'
p14
I2
sS'maxVel'
p15
F0.5
sS'age'
p16
I0
sS'tailSize'
p17
F4.4177140485197439
sS'sexualgeno'
p18
(i__main__
Node
p19
(dp20
S'depth'
p21
I1
sS'right'
p22
(i__main__
Node
p23
(dp24
g21
I2
sg22
(i__main__
Node
p25
(dp26
g21
I3
sg22
NsS'parent'
p27
g23
sS'float_size'
p28
S'indiv.distanceMatingSeason()'
p29
sS'float_bright'
p30
S'indiv.randF()'
p31
sS'left'
p32
Nsbsg27
g19
sg28
S'+'
sg30
S'/'
sg32
(i__main__
Node
p33
(dp34
g21
I3
sg22
Nsg27
g23
sg28
S'indiv.getTailBrightness()'
p35
sg30
S'indiv.getEnergy()'
p36
sg32
Nsbsbsg27
Nsg28
S'+'
sg30
S'/'
sg32
(i__main__
Node
p37
(dp38
g21
I2
sg22
Nsg27
g19
sg28
S'indiv.getNumPreysNeigh()'
p39
sg30
S'indiv.getTailSize()'
p40
sg32
NsbsbsS'tailBrigh'
p41
F7.0537210138572259
sS'maxSteering'
p42
I30
sS'energy'
p43
F0.5
sS'lastScale'
p44
F5.5
sb.