(i__main__
Data_mobile
p1
(dp2
S'vel_y'
p3
F-0.10228221792106668
sS'vel_x'
p4
F0.14925723882974537
sS'pos_x'
p5
F-4.4558442962631659
sS'pos_y'
p6
F98.057241232127168
sS'isAlive'
p7
I01
sS'cumulativeEnergy'
p8
F49
sS'geno'
p9
(lp10
(lp11
S'randV'
p12
aS'currentEnergy'
p13
aa(lp14
S'POINT./'
p15
aS'POINT.+'
p16
a(lp17
S'POINT.*'
p18
a(lp19
S'currentVelocity'
p20
aa(lp21
S'POINT.+'
p22
aS'cohesion'
p23
a(lp24
S'flee'
p25
aaaa(lp26
S'POINT.-'
p27
a(lp28
S'randV'
p29
a(lp30
S'separation'
p31
aS'cohesion'
p32
aa(lp33
(lp34
S'currentVelocity'
p35
aS'POINT.*'
p36
aa(lp37
S'cohesion'
p38
aS'currentEnergy'
p39
aS'POINT.*'
p40
aS'POINT./'
p41
aS'POINT.-'
p42
aa(lp43
S'target'
p44
aaS'target'
p45
aaa(lp46
(lp47
S'separation'
p48
aS'currentVelocity'
p49
aaS'POINT.+'
p50
aS'POINT./'
p51
aS'POINT.+'
p52
aa(lp53
S'POINT.-'
p54
aa(lp55
S'flee'
p56
aS'currentVelocity'
p57
aS'target'
p58
aS'separation'
p59
aaaaS'separation'
p60
a(lp61
S'currentVelocity'
p62
a(lp63
S'POINT.+'
p64
a(lp65
S'cohesion'
p66
aS'target'
p67
aaaa(lp68
(lp69
S'POINT.+'
p70
aS'POINT./'
p71
a(lp72
S'POINT.-'
p73
aS'POINT.+'
p74
a(lp75
S'cohesion'
p76
aS'separation'
p77
aS'flee'
p78
aaaaS'currentEnergy'
p79
aasS'accel_x'
p80
F-0.89854848190833536
sS'accel_y'
p81
F0.030498157299277295
sS'visionAngle'
p82
I150
sS'maxAccel'
p83
I2
sS'maxVel'
p84
F0.5
sS'age'
p85
I200
sS'tailSize'
p86
F6.9661180276560621
sS'sexualgeno'
p87
(i__main__
Node
p88
(dp89
S'depth'
p90
I1
sS'right'
p91
(i__main__
Node
p92
(dp93
g90
I2
sg91
NsS'parent'
p94
g88
sS'float_size'
p95
S'indiv.getNumPredatorsNeigh()'
p96
sS'float_bright'
p97
g96
sS'left'
p98
Nsbsg94
Nsg95
S'-'
sg97
S'/'
sg98
(i__main__
Node
p99
(dp100
g90
I2
sg91
Nsg94
g88
sg95
S'indiv.randF()'
p101
sg97
S'indiv.distanceMatingSeason()'
p102
sg98
NsbsbsS'tailBrigh'
p103
F4.1040392403845178
sS'maxSteering'
p104
I30
sS'energy'
p105
F1
sS'lastScale'
p106
F15.5
sb.(i__main__
Data_mobile
p1
(dp2
S'vel_y'
p3
F0.33711092914789298
sS'vel_x'
p4
F0.16599939429926136
sS'pos_x'
p5
F-53.381284498657187
sS'pos_y'
p6
F92.027604868648723
sS'isAlive'
p7
I01
sS'cumulativeEnergy'
p8
F49
sS'geno'
p9
(lp10
(lp11
(lp12
S'POINT./'
p13
aS'cohesion'
p14
aaS'currentEnergy'
p15
a(lp16
S'separation'
p17
aaS'alignment'
p18
a(lp19
S'alignment'
p20
aS'POINT./'
p21
aaS'POINT.*'
p22
a(lp23
S'alignment'
p24
a(lp25
S'cohesion'
p26
aa(lp27
S'alignment'
p28
aS'POINT.-'
p29
aaS'cohesion'
p30
aa(lp31
S'randV'
p32
aS'separation'
p33
a(lp34
(lp35
S'POINT.+'
p36
a(lp37
S'POINT.*'
p38
aaaS'POINT./'
p39
a(lp40
S'POINT.+'
p41
aS'target'
p42
a(lp43
S'POINT./'
p44
aS'target'
p45
aaa(lp46
S'target'
p47
a(lp48
S'POINT.+'
p49
a(lp50
S'currentVelocity'
p51
aaaS'currentVelocity'
p52
aS'alignment'
p53
aaaaa(lp54
S'POINT.+'
p55
a(lp56
S'alignment'
p57
aa(lp58
S'currentEnergy'
p59
aaS'target'
p60
aS'randV'
p61
aaS'alignment'
p62
aS'target'
p63
a(lp64
S'currentVelocity'
p65
a(lp66
S'flee'
p67
aaa(lp68
S'currentVelocity'
p69
a(lp70
(lp71
S'separation'
p72
a(lp73
(lp74
S'currentVelocity'
p75
aS'POINT.*'
p76
aaS'cohesion'
p77
aaaS'randV'
p78
a(lp79
S'randV'
p80
aaaa(lp81
S'currentVelocity'
p82
aS'alignment'
p83
aasS'accel_x'
p84
F-0.33366712421962319
sS'accel_y'
p85
F-0.36588666444174578
sS'visionAngle'
p86
I150
sS'maxAccel'
p87
I2
sS'maxVel'
p88
F0.5
sS'age'
p89
I150
sS'tailSize'
p90
F1.6599939429926136
sS'sexualgeno'
p91
(i__main__
Node
p92
(dp93
S'depth'
p94
I1
sS'right'
p95
(i__main__
Node
p96
(dp97
g94
I2
sg95
(i__main__
Node
p98
(dp99
g94
I3
sg95
NsS'parent'
p100
g96
sS'float_size'
p101
S'indiv.getTailBrightness()'
p102
sS'float_bright'
p103
S'indiv.distanceMatingSeason()'
p104
sS'left'
p105
Nsbsg100
g92
sg101
S'*'
sg103
S'/'
sg105
(i__main__
Node
p106
(dp107
g94
I3
sg95
(i__main__
Node
p108
(dp109
g94
I4
sg95
Nsg100
g106
sg101
S'indiv.randF()'
p110
sg103
g110
sg105
Nsbsg100
g96
sg101
S'+'
sg103
S'/'
sg105
(i__main__
Node
p111
(dp112
g94
I4
sg95
Nsg100
g106
sg101
S'indiv.getTailSize()'
p113
sg103
S'indiv.getEnergy()'
p114
sg105
Nsbsbsbsg100
Nsg101
S'-'
sg103
S'-'
sg105
(i__main__
Node
p115
(dp116
g94
I2
sg95
(i__main__
Node
p117
(dp118
g94
I3
sg95
Nsg100
g115
sg101
g110
sg103
S'indiv.getNumPredatorsNeigh()'
p119
sg105
Nsbsg100
g92
sg101
S'/'
sg103
S'+'
sg105
(i__main__
Node
p120
(dp121
g94
I3
sg95
Nsg100
g115
sg101
g104
sg103
g110
sg105
NsbsbsbsS'tailBrigh'
p122
F0.42031562987915994
sS'maxSteering'
p123
I30
sS'energy'
p124
F1
sS'lastScale'
p125
F15.5
sb.(i__main__
Data_mobile
p1
(dp2
S'vel_y'
p3
F-0.11257047030060809
sS'vel_x'
p4
F0.17767669520461457
sS'pos_x'
p5
F-20.223162116833915
sS'pos_y'
p6
F-28.22163145254515
sS'isAlive'
p7
I01
sS'cumulativeEnergy'
p8
F49
sS'geno'
p9
(lp10
(lp11
(lp12
S'POINT./'
p13
aS'cohesion'
p14
aaS'currentEnergy'
p15
a(lp16
S'separation'
p17
aaS'alignment'
p18
a(lp19
S'alignment'
p20
aS'POINT./'
p21
aaS'POINT.*'
p22
a(lp23
S'alignment'
p24
a(lp25
S'cohesion'
p26
aa(lp27
S'alignment'
p28
aS'POINT.-'
p29
aaS'cohesion'
p30
aa(lp31
S'randV'
p32
aS'separation'
p33
a(lp34
(lp35
S'POINT.+'
p36
a(lp37
S'POINT.*'
p38
aaaS'POINT./'
p39
a(lp40
S'POINT.+'
p41
aS'target'
p42
a(lp43
S'POINT./'
p44
aS'target'
p45
aaa(lp46
S'target'
p47
a(lp48
S'POINT.+'
p49
a(lp50
S'currentVelocity'
p51
aaaS'currentVelocity'
p52
aS'alignment'
p53
aaaaa(lp54
S'POINT.+'
p55
a(lp56
S'alignment'
p57
aa(lp58
S'currentEnergy'
p59
aaS'target'
p60
aS'randV'
p61
aaS'alignment'
p62
aS'target'
p63
a(lp64
S'currentVelocity'
p65
a(lp66
S'flee'
p67
aaa(lp68
S'currentVelocity'
p69
a(lp70
(lp71
S'separation'
p72
a(lp73
(lp74
S'currentVelocity'
p75
aS'POINT.*'
p76
aaS'cohesion'
p77
aaaS'randV'
p78
a(lp79
S'randV'
p80
aaaa(lp81
S'currentVelocity'
p82
aS'alignment'
p83
aasS'accel_x'
p84
F-0.36446584103891055
sS'accel_y'
p85
F0.47060864917392209
sS'visionAngle'
p86
I150
sS'maxAccel'
p87
I2
sS'maxVel'
p88
F0.5
sS'age'
p89
I150
sS'tailSize'
p90
F1.8137928264513725
sS'sexualgeno'
p91
(i__main__
Node
p92
(dp93
S'depth'
p94
I1
sS'right'
p95
(i__main__
Node
p96
(dp97
g94
I2
sg95
(i__main__
Node
p98
(dp99
g94
I3
sg95
NsS'parent'
p100
g96
sS'float_size'
p101
S'indiv.getTailBrightness()'
p102
sS'float_bright'
p103
S'indiv.distanceMatingSeason()'
p104
sS'left'
p105
Nsbsg100
g92
sg101
S'*'
sg103
S'/'
sg105
(i__main__
Node
p106
(dp107
g94
I3
sg95
(i__main__
Node
p108
(dp109
g94
I4
sg95
Nsg100
g106
sg101
S'indiv.randF()'
p110
sg103
g110
sg105
Nsbsg100
g96
sg101
S'+'
sg103
S'/'
sg105
(i__main__
Node
p111
(dp112
g94
I4
sg95
Nsg100
g106
sg101
S'indiv.getTailSize()'
p113
sg103
S'indiv.getEnergy()'
p114
sg105
Nsbsbsbsg100
Nsg101
S'-'
sg103
S'-'
sg105
(i__main__
Node
p115
(dp116
g94
I2
sg95
(i__main__
Node
p117
(dp118
g94
I3
sg95
Nsg100
g115
sg101
S'indiv.getNumPredatorsNeigh()'
p119
sg103
g114
sg105
Nsbsg100
g92
sg101
S'+'
sg103
S'*'
sg105
(i__main__
Node
p120
(dp121
g94
I3
sg95
Nsg100
g115
sg101
g110
sg103
g104
sg105
NsbsbsbsS'tailBrigh'
p122
F4.4551769603255647
sS'maxSteering'
p123
I30
sS'energy'
p124
F1
sS'lastScale'
p125
F15.5
sb.(i__main__
Data_mobile
p1
(dp2
S'vel_y'
p3
F0.029494358255785853
sS'vel_x'
p4
F0.60022399472842558
sS'pos_x'
p5
F-193.89886120891981
sS'pos_y'
p6
F6.8873826067947039
sS'isAlive'
p7
I01
sS'cumulativeEnergy'
p8
F48.755548660453115
sS'geno'
p9
(lp10
(lp11
(lp12
S'POINT./'
p13
aS'cohesion'
p14
aaS'currentEnergy'
p15
a(lp16
S'separation'
p17
aaS'alignment'
p18
a(lp19
S'alignment'
p20
aS'POINT./'
p21
aaS'POINT.*'
p22
a(lp23
S'alignment'
p24
a(lp25
S'cohesion'
p26
aa(lp27
S'alignment'
p28
aS'POINT.-'
p29
aaS'cohesion'
p30
aa(lp31
S'randV'
p32
aS'separation'
p33
a(lp34
(lp35
S'POINT.+'
p36
a(lp37
S'POINT.*'
p38
aaaS'POINT./'
p39
a(lp40
S'POINT.+'
p41
aS'target'
p42
a(lp43
S'POINT./'
p44
aS'target'
p45
aaa(lp46
S'target'
p47
a(lp48
S'POINT.+'
p49
a(lp50
S'currentVelocity'
p51
aaaS'currentVelocity'
p52
aS'alignment'
p53
aaaaa(lp54
S'POINT.+'
p55
a(lp56
S'alignment'
p57
aa(lp58
S'currentEnergy'
p59
aaS'target'
p60
aS'randV'
p61
aaS'alignment'
p62
aS'target'
p63
a(lp64
S'currentVelocity'
p65
a(lp66
S'flee'
p67
aaa(lp68
S'currentVelocity'
p69
a(lp70
(lp71
S'separation'
p72
a(lp73
(lp74
S'currentVelocity'
p75
aS'POINT.*'
p76
aaS'cohesion'
p77
aaaS'randV'
p78
a(lp79
S'randV'
p80
aaaa(lp81
S'currentVelocity'
p82
aS'alignment'
p83
aasS'accel_x'
p84
F-0.82291064851682449
sS'accel_y'
p85
F0.33899704596872304
sS'visionAngle'
p86
I150
sS'maxAccel'
p87
I2
sS'maxVel'
p88
F0.5
sS'age'
p89
I100
sS'tailSize'
p90
F6.0022399472842558
sS'sexualgeno'
p91
(i__main__
Node
p92
(dp93
S'depth'
p94
I1
sS'right'
p95
(i__main__
Node
p96
(dp97
g94
I2
sg95
(i__main__
Node
p98
(dp99
g94
I3
sg95
NsS'parent'
p100
g96
sS'float_size'
p101
S'indiv.getTailBrightness()'
p102
sS'float_bright'
p103
S'indiv.distanceMatingSeason()'
p104
sS'left'
p105
Nsbsg100
g92
sg101
S'*'
sg103
S'/'
sg105
(i__main__
Node
p106
(dp107
g94
I3
sg95
(i__main__
Node
p108
(dp109
g94
I4
sg95
Nsg100
g106
sg101
S'indiv.randF()'
p110
sg103
g110
sg105
Nsbsg100
g96
sg101
S'+'
sg103
S'/'
sg105
(i__main__
Node
p111
(dp112
g94
I4
sg95
Nsg100
g106
sg101
S'indiv.getTailSize()'
p113
sg103
S'indiv.getEnergy()'
p114
sg105
Nsbsbsbsg100
Nsg101
S'-'
sg103
S'-'
sg105
(i__main__
Node
p115
(dp116
g94
I2
sg95
(i__main__
Node
p117
(dp118
g94
I3
sg95
Nsg100
g115
sg101
S'indiv.getNumPredatorsNeigh()'
p119
sg103
g114
sg105
Nsbsg100
g92
sg101
S'+'
sg103
S'*'
sg105
(i__main__
Node
p120
(dp121
g94
I3
sg95
Nsg100
g115
sg101
g110
sg103
g104
sg105
NsbsbsbsS'tailBrigh'
p122
F0.71564004921986113
sS'maxSteering'
p123
I30
sS'energy'
p124
F0.98634626436561768
sS'lastScale'
p125
F15.363462643656176
sb.(i__main__
Data_mobile
p1
(dp2
S'vel_y'
p3
F-0.044375283593715106
sS'vel_x'
p4
F0.043764338075952591
sS'pos_x'
p5
F-194.63380333869088
sS'pos_y'
p6
F7.0889949064377804
sS'isAlive'
p7
I01
sS'cumulativeEnergy'
p8
F48.710454663946628
sS'geno'
p9
(lp10
(lp11
(lp12
S'POINT./'
p13
aS'cohesion'
p14
aaS'currentEnergy'
p15
a(lp16
S'separation'
p17
aaS'alignment'
p18
a(lp19
S'alignment'
p20
aS'POINT./'
p21
aaS'POINT.*'
p22
a(lp23
S'alignment'
p24
a(lp25
S'cohesion'
p26
aa(lp27
S'alignment'
p28
aS'POINT.-'
p29
aaS'cohesion'
p30
aa(lp31
S'randV'
p32
aS'separation'
p33
a(lp34
(lp35
S'POINT.+'
p36
a(lp37
S'POINT.*'
p38
aaaS'POINT./'
p39
a(lp40
S'POINT.+'
p41
aS'target'
p42
a(lp43
S'POINT./'
p44
aS'target'
p45
aaa(lp46
S'target'
p47
a(lp48
S'POINT.+'
p49
a(lp50
S'currentVelocity'
p51
aaaS'currentVelocity'
p52
aS'alignment'
p53
aaaaa(lp54
S'POINT.+'
p55
a(lp56
S'alignment'
p57
aa(lp58
S'currentEnergy'
p59
aaS'target'
p60
aS'randV'
p61
aaS'alignment'
p62
aS'target'
p63
a(lp64
S'currentVelocity'
p65
a(lp66
S'flee'
p67
aaa(lp68
S'currentVelocity'
p69
a(lp70
(lp71
S'separation'
p72
a(lp73
(lp74
S'currentVelocity'
p75
aS'POINT.*'
p76
aaS'cohesion'
p77
aaaS'randV'
p78
a(lp79
S'randV'
p80
aaaa(lp81
S'currentVelocity'
p82
aS'alignment'
p83
aasS'accel_x'
p84
F-0.087968518745753954
sS'accel_y'
p85
F0.13738474632564657
sS'visionAngle'
p86
I150
sS'maxAccel'
p87
I2
sS'maxVel'
p88
F0.5
sS'age'
p89
I100
sS'tailSize'
p90
F0.43764338075952591
sS'sexualgeno'
p91
(i__main__
Node
p92
(dp93
S'depth'
p94
I1
sS'right'
p95
(i__main__
Node
p96
(dp97
g94
I2
sg95
(i__main__
Node
p98
(dp99
g94
I3
sg95
NsS'parent'
p100
g96
sS'float_size'
p101
S'indiv.getTailBrightness()'
p102
sS'float_bright'
p103
S'indiv.distanceMatingSeason()'
p104
sS'left'
p105
Nsbsg100
g92
sg101
S'*'
sg103
S'/'
sg105
(i__main__
Node
p106
(dp107
g94
I3
sg95
(i__main__
Node
p108
(dp109
g94
I4
sg95
Nsg100
g106
sg101
S'indiv.randF()'
p110
sg103
g110
sg105
Nsbsg100
g96
sg101
S'+'
sg103
S'/'
sg105
(i__main__
Node
p111
(dp112
g94
I4
sg95
Nsg100
g106
sg101
S'indiv.getTailSize()'
p113
sg103
S'indiv.getEnergy()'
p114
sg105
Nsbsbsbsg100
Nsg101
S'-'
sg103
S'-'
sg105
(i__main__
Node
p115
(dp116
g94
I2
sg95
(i__main__
Node
p117
(dp118
g94
I3
sg95
Nsg100
g115
sg101
g110
sg103
g110
sg105
Nsbsg100
g92
sg101
S'+'
sg103
S'/'
sg105
(i__main__
Node
p119
(dp120
g94
I3
sg95
Nsg100
g115
sg101
g113
sg103
g114
sg105
NsbsbsbsS'tailBrigh'
p121
F4.473473091427107
sS'maxSteering'
p122
I30
sS'energy'
p123
F0.95628360002795987
sS'lastScale'
p124
F15.062836000279598
sb.(i__main__
Data_mobile
p1
(dp2
S'vel_y'
p3
F-0.17562221054092808
sS'vel_x'
p4
F0.19473862238223474
sS'pos_x'
p5
F-80.508727646975103
sS'pos_y'
p6
F28.067442020964734
sS'isAlive'
p7
I01
sS'cumulativeEnergy'
p8
F46.429967380836594
sS'geno'
p9
(lp10
(lp11
S'randV'
p12
aS'currentEnergy'
p13
aa(lp14
S'POINT./'
p15
aS'POINT.+'
p16
a(lp17
S'POINT.*'
p18
a(lp19
S'currentVelocity'
p20
aa(lp21
S'POINT.+'
p22
aS'cohesion'
p23
a(lp24
S'flee'
p25
aaaa(lp26
S'POINT.-'
p27
a(lp28
S'randV'
p29
a(lp30
S'separation'
p31
aS'cohesion'
p32
aa(lp33
(lp34
S'currentVelocity'
p35
aS'POINT.*'
p36
aa(lp37
S'cohesion'
p38
aS'currentEnergy'
p39
aS'POINT.*'
p40
aS'POINT./'
p41
aS'POINT.-'
p42
aa(lp43
S'target'
p44
aaS'target'
p45
aaa(lp46
(lp47
S'separation'
p48
aS'currentVelocity'
p49
aaS'POINT.+'
p50
aS'POINT./'
p51
aS'POINT.+'
p52
aa(lp53
S'POINT.-'
p54
aa(lp55
S'flee'
p56
aS'currentVelocity'
p57
aS'target'
p58
aS'separation'
p59
aaaaS'separation'
p60
a(lp61
S'currentVelocity'
p62
a(lp63
S'POINT.+'
p64
a(lp65
S'cohesion'
p66
aS'target'
p67
aaaa(lp68
(lp69
S'POINT.+'
p70
aS'POINT./'
p71
a(lp72
S'POINT.-'
p73
aS'POINT.+'
p74
a(lp75
S'cohesion'
p76
aS'separation'
p77
aS'flee'
p78
aaaaS'currentEnergy'
p79
aasS'accel_x'
p80
F-0.74041380661208223
sS'accel_y'
p81
F0.015990309828623595
sS'visionAngle'
p82
I150
sS'maxAccel'
p83
I2
sS'maxVel'
p84
F0.5
sS'age'
p85
I250
sS'tailSize'
p86
F5.4448340363458572
sS'sexualgeno'
p87
(i__main__
Node
p88
(dp89
S'depth'
p90
I1
sS'right'
p91
(i__main__
Node
p92
(dp93
g90
I2
sg91
NsS'parent'
p94
g88
sS'float_size'
p95
S'indiv.getNumPredatorsNeigh()'
p96
sS'float_bright'
p97
g96
sS'left'
p98
Nsbsg94
Nsg95
S'-'
sg97
S'/'
sg98
(i__main__
Node
p99
(dp100
g90
I2
sg91
Nsg94
g88
sg95
S'indiv.randF()'
p101
sg97
S'indiv.distanceMatingSeason()'
p102
sg98
NsbsbsS'tailBrigh'
p103
F0.4462591752374645
sS'maxSteering'
p104
I30
sS'energy'
p105
F1
sS'lastScale'
p106
F15.5
sb.(i__main__
Data_mobile
p1
(dp2
S'vel_y'
p3
F-5.5901402000229207e-012
sS'vel_x'
p4
F0.3678868377808695
sS'pos_x'
p5
F-51.080366623739479
sS'pos_y'
p6
F34.637830189712233
sS'isAlive'
p7
I01
sS'cumulativeEnergy'
p8
F46.224100716290721
sS'geno'
p9
(lp10
(lp11
S'randV'
p12
aS'currentEnergy'
p13
aa(lp14
S'POINT./'
p15
aS'POINT.+'
p16
a(lp17
S'POINT.*'
p18
a(lp19
S'currentVelocity'
p20
aa(lp21
S'POINT.+'
p22
aS'cohesion'
p23
a(lp24
S'flee'
p25
aaaa(lp26
S'POINT.-'
p27
a(lp28
S'randV'
p29
a(lp30
S'separation'
p31
aS'cohesion'
p32
aa(lp33
(lp34
S'currentVelocity'
p35
aS'POINT.*'
p36
aa(lp37
S'cohesion'
p38
aS'currentEnergy'
p39
aS'POINT.*'
p40
aS'POINT./'
p41
aS'POINT.-'
p42
aa(lp43
S'target'
p44
aaS'target'
p45
aaa(lp46
(lp47
S'separation'
p48
aS'currentVelocity'
p49
aaS'POINT.+'
p50
aS'POINT./'
p51
aS'POINT.+'
p52
aa(lp53
S'POINT.-'
p54
aa(lp55
S'flee'
p56
aS'currentVelocity'
p57
aS'target'
p58
aS'separation'
p59
aaaaS'separation'
p60
a(lp61
S'currentVelocity'
p62
a(lp63
S'POINT.+'
p64
a(lp65
S'cohesion'
p66
aS'target'
p67
aaaa(lp68
(lp69
S'POINT.+'
p70
aS'POINT./'
p71
a(lp72
S'POINT.-'
p73
aS'POINT.+'
p74
a(lp75
S'cohesion'
p76
aS'separation'
p77
aS'flee'
p78
aaaaS'currentEnergy'
p79
aasS'accel_x'
p80
F0
sS'accel_y'
p81
F0
sS'visionAngle'
p82
I150
sS'maxAccel'
p83
I2
sS'maxVel'
p84
F0.5
sS'age'
p85
I200
sS'tailSize'
p86
F9.2285405579774817
sS'sexualgeno'
p87
(i__main__
Node
p88
(dp89
S'depth'
p90
I1
sS'right'
p91
(i__main__
Node
p92
(dp93
g90
I2
sg91
NsS'parent'
p94
g88
sS'float_size'
p95
S'indiv.getNumPredatorsNeigh()'
p96
sS'float_bright'
p97
g96
sS'left'
p98
Nsbsg94
Nsg95
S'-'
sg97
S'/'
sg98
(i__main__
Node
p99
(dp100
g90
I2
sg91
Nsg94
g88
sg95
S'indiv.randF()'
p101
sg97
S'indiv.distanceMatingSeason()'
p102
sg98
NsbsbsS'tailBrigh'
p103
F1.5694713271619842
sS'maxSteering'
p104
I30
sS'energy'
p105
F0.62986085285175408
sS'lastScale'
p106
F11.798608528517541
sb.(i__main__
Data_mobile
p1
(dp2
S'vel_y'
p3
F-0.11709906938033977
sS'vel_x'
p4
F0.11114467846753096
sS'pos_x'
p5
F-194.49836546855784
sS'pos_y'
p6
F6.8781516255779707
sS'isAlive'
p7
I01
sS'cumulativeEnergy'
p8
F42.337246673644067
sS'geno'
p9
(lp10
(lp11
(lp12
S'POINT./'
p13
aS'cohesion'
p14
aaS'currentEnergy'
p15
a(lp16
S'separation'
p17
aaS'alignment'
p18
a(lp19
S'alignment'
p20
aS'POINT./'
p21
aaS'POINT.*'
p22
a(lp23
S'alignment'
p24
a(lp25
S'cohesion'
p26
aa(lp27
S'alignment'
p28
aS'POINT.-'
p29
aaS'cohesion'
p30
aa(lp31
S'randV'
p32
aS'separation'
p33
a(lp34
(lp35
S'POINT.+'
p36
a(lp37
S'POINT.*'
p38
aaaS'POINT./'
p39
a(lp40
S'POINT.+'
p41
aS'target'
p42
a(lp43
S'POINT./'
p44
aS'target'
p45
aaa(lp46
S'target'
p47
a(lp48
S'POINT.+'
p49
a(lp50
S'currentVelocity'
p51
aaaS'currentVelocity'
p52
aS'alignment'
p53
aaaaa(lp54
S'POINT.+'
p55
a(lp56
S'alignment'
p57
aa(lp58
S'currentEnergy'
p59
aaS'target'
p60
aS'randV'
p61
aaS'alignment'
p62
aS'target'
p63
a(lp64
S'currentVelocity'
p65
a(lp66
S'flee'
p67
aaa(lp68
S'currentVelocity'
p69
a(lp70
(lp71
S'separation'
p72
a(lp73
(lp74
S'currentVelocity'
p75
aS'POINT.*'
p76
aaS'cohesion'
p77
aaaS'randV'
p78
a(lp79
S'randV'
p80
aaaa(lp81
S'currentVelocity'
p82
aS'alignment'
p83
aasS'accel_x'
p84
F-0.22340638887880004
sS'accel_y'
p85
F0.34822802718545631
sS'visionAngle'
p86
I150
sS'maxAccel'
p87
I2
sS'maxVel'
p88
F0.5
sS'age'
p89
I50
sS'tailSize'
p90
F1.1114467846753096
sS'sexualgeno'
p91
(i__main__
Node
p92
(dp93
S'depth'
p94
I1
sS'right'
p95
(i__main__
Node
p96
(dp97
g94
I2
sg95
(i__main__
Node
p98
(dp99
g94
I3
sg95
NsS'parent'
p100
g96
sS'float_size'
p101
S'indiv.randF()'
p102
sS'float_bright'
p103
g102
sS'left'
p104
Nsbsg100
g92
sg101
S'+'
sg103
S'/'
sg104
(i__main__
Node
p105
(dp106
g94
I3
sg95
Nsg100
g96
sg101
S'indiv.getTailSize()'
p107
sg103
S'indiv.getEnergy()'
p108
sg104
Nsbsbsg100
Nsg101
S'-'
sg103
S'-'
sg104
(i__main__
Node
p109
(dp110
g94
I2
sg95
(i__main__
Node
p111
(dp112
g94
I3
sg95
Nsg100
g109
sg101
S'indiv.getNumPredatorsNeigh()'
p113
sg103
g108
sg104
Nsbsg100
g92
sg101
S'+'
sg103
S'*'
sg104
(i__main__
Node
p114
(dp115
g94
I3
sg95
Nsg100
g109
sg101
g102
sg103
S'indiv.distanceMatingSeason()'
p116
sg104
NsbsbsbsS'tailBrigh'
p117
F2.6646380865709061
sS'maxSteering'
p118
I30
sS'energy'
p119
F0.98818354872327563
sS'lastScale'
p120
F15.381835487232756
sb.(i__main__
Data_mobile
p1
(dp2
S'vel_y'
p3
F-0.0068542824602762569
sS'vel_x'
p4
F0.012082569325381631
sS'pos_x'
p5
F-194.16019498062118
sS'pos_y'
p6
F7.2266483360652574
sS'isAlive'
p7
I01
sS'cumulativeEnergy'
p8
F39.875556778969752
sS'geno'
p9
(lp10
(lp11
(lp12
S'POINT./'
p13
aS'cohesion'
p14
aaS'currentEnergy'
p15
a(lp16
S'separation'
p17
aaS'alignment'
p18
a(lp19
S'alignment'
p20
aS'POINT./'
p21
aaS'POINT.*'
p22
a(lp23
S'alignment'
p24
a(lp25
S'cohesion'
p26
aa(lp27
S'alignment'
p28
aS'POINT.-'
p29
aaS'cohesion'
p30
aa(lp31
S'randV'
p32
aS'separation'
p33
a(lp34
(lp35
S'POINT.+'
p36
a(lp37
S'POINT.*'
p38
aaaS'POINT./'
p39
a(lp40
S'POINT.+'
p41
aS'target'
p42
a(lp43
S'POINT./'
p44
aS'target'
p45
aaa(lp46
S'target'
p47
a(lp48
S'POINT.+'
p49
a(lp50
S'currentVelocity'
p51
aaaS'currentVelocity'
p52
aS'alignment'
p53
aaaaa(lp54
S'POINT.+'
p55
a(lp56
S'alignment'
p57
aa(lp58
S'currentEnergy'
p59
aaS'target'
p60
aS'randV'
p61
aaS'alignment'
p62
aS'target'
p63
a(lp64
S'currentVelocity'
p65
a(lp66
S'flee'
p67
aaa(lp68
S'currentVelocity'
p69
a(lp70
(lp71
S'separation'
p72
a(lp73
(lp74
S'currentVelocity'
p75
aS'POINT.*'
p76
aaS'cohesion'
p77
aaaS'randV'
p78
a(lp79
S'randV'
p80
aaaa(lp81
S'currentVelocity'
p82
aS'alignment'
p83
aasS'accel_x'
p84
F-0.56157687681545099
sS'accel_y'
p85
F-0.0002686833018303858
sS'visionAngle'
p86
I150
sS'maxAccel'
p87
I2
sS'maxVel'
p88
F0.5
sS'age'
p89
I50
sS'tailSize'
p90
F9.7353650675908394
sS'sexualgeno'
p91
(i__main__
Node
p92
(dp93
S'depth'
p94
I1
sS'right'
p95
(i__main__
Node
p96
(dp97
g94
I2
sg95
(i__main__
Node
p98
(dp99
g94
I3
sg95
NsS'parent'
p100
g96
sS'float_size'
p101
S'indiv.getTailBrightness()'
p102
sS'float_bright'
p103
S'indiv.distanceMatingSeason()'
p104
sS'left'
p105
Nsbsg100
g92
sg101
S'*'
sg103
S'/'
sg105
(i__main__
Node
p106
(dp107
g94
I3
sg95
(i__main__
Node
p108
(dp109
g94
I4
sg95
Nsg100
g106
sg101
S'indiv.randF()'
p110
sg103
g110
sg105
Nsbsg100
g96
sg101
S'+'
sg103
S'/'
sg105
(i__main__
Node
p111
(dp112
g94
I4
sg95
Nsg100
g106
sg101
S'indiv.getTailSize()'
p113
sg103
S'indiv.getEnergy()'
p114
sg105
Nsbsbsbsg100
Nsg101
S'-'
sg103
S'-'
sg105
(i__main__
Node
p115
(dp116
g95
(i__main__
Node
p117
(dp118
g95
(i__main__
Node
p119
(dp120
g95
Nsg100
g117
sg94
I4
sg101
g104
sg103
S'indiv.getNumPreysNeigh()'
p121
sg105
Nsbsg100
g115
sg94
I3
sg101
S'-'
sg103
S'+'
sg105
(i__main__
Node
p122
(dp123
g95
Nsg100
g117
sg94
I4
sg101
S'indiv.getNumPredatorsNeigh()'
p124
sg103
g113
sg105
Nsbsbsg100
g92
sg94
I2
sg101
S'-'
sg103
S'+'
sg105
(i__main__
Node
p125
(dp126
g95
(i__main__
Node
p127
(dp128
g95
Nsg100
g125
sg94
I4
sg101
g121
sg103
g114
sg105
Nsbsg100
g115
sg94
I3
sg101
S'-'
sg103
S'*'
sg105
(i__main__
Node
p129
(dp130
g95
Nsg100
g125
sg94
I4
sg101
g124
sg103
g110
sg105
NsbsbsbsbsS'tailBrigh'
p131
F3.9717762737642159
sS'maxSteering'
p132
I30
sS'energy'
p133
F0.93612383972056179
sS'lastScale'
p134
F14.962533769958688
sb.(i__main__
Data_mobile
p1
(dp2
S'vel_y'
p3
F0.30008354276928678
sS'vel_x'
p4
F0.056637753928315659
sS'pos_x'
p5
F-69.984648299583398
sS'pos_y'
p6
F25.476746624947054
sS'isAlive'
p7
I01
sS'cumulativeEnergy'
p8
F38.900030767350053
sS'geno'
p9
(lp10
(lp11
(lp12
S'POINT./'
p13
aS'cohesion'
p14
aaS'currentEnergy'
p15
a(lp16
S'separation'
p17
aaS'alignment'
p18
a(lp19
S'alignment'
p20
aS'POINT./'
p21
aaS'POINT.*'
p22
a(lp23
S'alignment'
p24
a(lp25
S'cohesion'
p26
aa(lp27
S'alignment'
p28
aS'POINT.-'
p29
aaS'cohesion'
p30
aa(lp31
S'randV'
p32
aS'separation'
p33
a(lp34
(lp35
S'POINT.+'
p36
a(lp37
S'POINT.*'
p38
aaaS'POINT./'
p39
a(lp40
S'POINT.+'
p41
aS'target'
p42
a(lp43
S'POINT./'
p44
aS'target'
p45
aaa(lp46
S'target'
p47
a(lp48
S'POINT.+'
p49
a(lp50
S'currentVelocity'
p51
aaaS'currentVelocity'
p52
aS'alignment'
p53
aaaaa(lp54
S'POINT.+'
p55
a(lp56
S'alignment'
p57
aa(lp58
S'currentEnergy'
p59
aaS'target'
p60
aS'randV'
p61
aaS'alignment'
p62
aS'target'
p63
a(lp64
S'currentVelocity'
p65
a(lp66
S'flee'
p67
aaa(lp68
S'currentVelocity'
p69
a(lp70
(lp71
S'separation'
p72
a(lp73
(lp74
S'currentVelocity'
p75
aS'POINT.*'
p76
aaS'cohesion'
p77
aaaS'randV'
p78
a(lp79
S'randV'
p80
aaaa(lp81
S'currentVelocity'
p82
aS'alignment'
p83
aasS'accel_x'
p84
F-1.948509638103719
sS'accel_y'
p85
F0.45089931272614892
sS'visionAngle'
p86
I150
sS'maxAccel'
p87
I2
sS'maxVel'
p88
F0.5
sS'age'
p89
I150
sS'tailSize'
p90
F3.6391271442609305
sS'sexualgeno'
p91
(i__main__
Node
p92
(dp93
S'depth'
p94
I1
sS'right'
p95
(i__main__
Node
p96
(dp97
g94
I2
sg95
(i__main__
Node
p98
(dp99
g94
I3
sg95
NsS'parent'
p100
g96
sS'float_size'
p101
S'indiv.getTailBrightness()'
p102
sS'float_bright'
p103
S'indiv.distanceMatingSeason()'
p104
sS'left'
p105
Nsbsg100
g92
sg101
S'*'
sg103
S'/'
sg105
(i__main__
Node
p106
(dp107
g94
I3
sg95
(i__main__
Node
p108
(dp109
g94
I4
sg95
Nsg100
g106
sg101
S'indiv.randF()'
p110
sg103
g110
sg105
Nsbsg100
g96
sg101
S'+'
sg103
S'/'
sg105
(i__main__
Node
p111
(dp112
g94
I4
sg95
Nsg100
g106
sg101
S'indiv.getTailSize()'
p113
sg103
S'indiv.getEnergy()'
p114
sg105
Nsbsbsbsg100
Nsg101
S'-'
sg103
S'-'
sg105
(i__main__
Node
p115
(dp116
g94
I2
sg95
(i__main__
Node
p117
(dp118
g94
I3
sg95
Nsg100
g115
sg101
g102
sg103
g110
sg105
Nsbsg100
g92
sg101
S'-'
sg103
S'+'
sg105
(i__main__
Node
p119
(dp120
g94
I3
sg95
Nsg100
g115
sg101
S'indiv.getNumPredatorsNeigh()'
p121
sg103
g121
sg105
NsbsbsbsS'tailBrigh'
p122
F3.7592403620786028
sS'maxSteering'
p123
I30
sS'energy'
p124
F0.24605439320396996
sS'lastScale'
p125
F7.9605439320396991
sb.(i__main__
Data_mobile
p1
(dp2
S'vel_y'
p3
F5.6652877969141091e-016
sS'vel_x'
p4
F0.1397186998973097
sS'pos_x'
p5
F-54.99656470915275
sS'pos_y'
p6
F9.1759465220661607
sS'isAlive'
p7
I01
sS'cumulativeEnergy'
p8
F38.016116199031444
sS'geno'
p9
(lp10
(lp11
(lp12
S'POINT./'
p13
aS'cohesion'
p14
aaS'currentEnergy'
p15
a(lp16
S'separation'
p17
aaS'alignment'
p18
a(lp19
S'alignment'
p20
aS'POINT./'
p21
aaS'POINT.*'
p22
a(lp23
S'alignment'
p24
a(lp25
S'cohesion'
p26
aa(lp27
S'alignment'
p28
aS'POINT.-'
p29
aaS'cohesion'
p30
aa(lp31
S'randV'
p32
aS'separation'
p33
a(lp34
(lp35
S'POINT.+'
p36
a(lp37
S'POINT.*'
p38
aaaS'POINT./'
p39
a(lp40
S'POINT.+'
p41
aS'target'
p42
a(lp43
S'POINT./'
p44
aS'target'
p45
aaa(lp46
S'target'
p47
a(lp48
S'POINT.+'
p49
a(lp50
S'currentVelocity'
p51
aaaS'currentVelocity'
p52
aS'alignment'
p53
aaaaa(lp54
S'POINT.+'
p55
a(lp56
S'alignment'
p57
aa(lp58
S'currentEnergy'
p59
aaS'target'
p60
aS'randV'
p61
aaS'alignment'
p62
aS'target'
p63
a(lp64
S'currentVelocity'
p65
a(lp66
S'flee'
p67
aaa(lp68
S'currentVelocity'
p69
a(lp70
(lp71
S'separation'
p72
a(lp73
(lp74
S'currentVelocity'
p75
aS'POINT.*'
p76
aaS'cohesion'
p77
aaaS'randV'
p78
a(lp79
S'randV'
p80
aaaa(lp81
S'currentVelocity'
p82
aS'alignment'
p83
aasS'accel_x'
p84
F0
sS'accel_y'
p85
F0
sS'visionAngle'
p86
I150
sS'maxAccel'
p87
I2
sS'maxVel'
p88
F0.5
sS'age'
p89
I200
sS'tailSize'
p90
F8.3969402203382302
sS'sexualgeno'
p91
(i__main__
Node
p92
(dp93
S'depth'
p94
I1
sS'right'
p95
(i__main__
Node
p96
(dp97
g94
I2
sg95
(i__main__
Node
p98
(dp99
g94
I3
sg95
NsS'parent'
p100
g96
sS'float_size'
p101
S'indiv.getTailBrightness()'
p102
sS'float_bright'
p103
S'indiv.randF()'
p104
sS'left'
p105
Nsbsg100
g92
sg101
S'-'
sg103
S'+'
sg105
(i__main__
Node
p106
(dp107
g94
I3
sg95
Nsg100
g96
sg101
S'indiv.getNumPredatorsNeigh()'
p108
sg103
g108
sg105
Nsbsbsg100
Nsg101
S'-'
sg103
S'-'
sg105
(i__main__
Node
p109
(dp110
g94
I2
sg95
(i__main__
Node
p111
(dp112
g94
I3
sg95
Nsg100
g109
sg101
g102
sg103
S'indiv.distanceMatingSeason()'
p113
sg105
Nsbsg100
g92
sg101
S'*'
sg103
S'/'
sg105
(i__main__
Node
p114
(dp115
g94
I3
sg95
(i__main__
Node
p116
(dp117
g94
I4
sg95
Nsg100
g114
sg101
g104
sg103
g104
sg105
Nsbsg100
g109
sg101
S'+'
sg103
S'/'
sg105
(i__main__
Node
p118
(dp119
g94
I4
sg95
Nsg100
g114
sg101
S'indiv.getTailSize()'
p120
sg103
S'indiv.getEnergy()'
p121
sg105
NsbsbsbsbsS'tailBrigh'
p122
F2.7500718061463791
sS'maxSteering'
p123
I30
sS'energy'
p124
F0.13627553634193637
sS'lastScale'
p125
F6.8627553634193639
sb.(i__main__
Data_mobile
p1
(dp2
S'vel_y'
p3
F0.016875412030637273
sS'vel_x'
p4
F0.28917155186214571
sS'pos_x'
p5
F-50.075655662261724
sS'pos_y'
p6
F34.528068954091786
sS'isAlive'
p7
I01
sS'cumulativeEnergy'
p8
F36.182096222842183
sS'geno'
p9
(lp10
(lp11
S'randV'
p12
aS'currentEnergy'
p13
aa(lp14
S'POINT./'
p15
aS'POINT.+'
p16
a(lp17
S'POINT.*'
p18
a(lp19
S'currentVelocity'
p20
aa(lp21
S'POINT.+'
p22
aS'cohesion'
p23
a(lp24
S'flee'
p25
aaaa(lp26
S'POINT.-'
p27
a(lp28
S'randV'
p29
a(lp30
S'separation'
p31
aS'cohesion'
p32
aa(lp33
(lp34
S'currentVelocity'
p35
aS'POINT.*'
p36
aa(lp37
S'cohesion'
p38
aS'currentEnergy'
p39
aS'POINT.*'
p40
aS'POINT./'
p41
aS'POINT.-'
p42
aa(lp43
S'target'
p44
aaS'target'
p45
aaa(lp46
(lp47
S'separation'
p48
aS'currentVelocity'
p49
aaS'POINT.+'
p50
aS'POINT./'
p51
aS'POINT.+'
p52
aa(lp53
S'POINT.-'
p54
aa(lp55
S'flee'
p56
aS'currentVelocity'
p57
aS'target'
p58
aS'separation'
p59
aaaaS'separation'
p60
a(lp61
S'currentVelocity'
p62
a(lp63
S'POINT.+'
p64
a(lp65
S'cohesion'
p66
aS'target'
p67
aaaa(lp68
(lp69
S'POINT.+'
p70
aS'POINT./'
p71
a(lp72
S'POINT.-'
p73
aS'POINT.+'
p74
a(lp75
S'cohesion'
p76
aS'separation'
p77
aS'flee'
p78
aaaaS'currentEnergy'
p79
aasS'accel_x'
p80
F0
sS'accel_y'
p81
F0
sS'visionAngle'
p82
I150
sS'maxAccel'
p83
I2
sS'maxVel'
p84
F0.5
sS'age'
p85
I50
sS'tailSize'
p86
F2.8917155186214574
sS'sexualgeno'
p87
(i__main__
Node
p88
(dp89
S'depth'
p90
I1
sS'right'
p91
(i__main__
Node
p92
(dp93
g90
I2
sg91
NsS'parent'
p94
g88
sS'float_size'
p95
S'indiv.getNumPredatorsNeigh()'
p96
sS'float_bright'
p97
g96
sS'left'
p98
Nsbsg94
Nsg95
S'-'
sg97
S'/'
sg98
(i__main__
Node
p99
(dp100
g90
I2
sg91
Nsg94
g88
sg95
S'indiv.randF()'
p101
sg97
S'indiv.distanceMatingSeason()'
p102
sg98
NsbsbsS'tailBrigh'
p103
F5.8915576494441133
sS'maxSteering'
p104
I30
sS'energy'
p105
F0.65016860341744076
sS'lastScale'
p106
F12.001686034174408
sb.(i__main__
Data_mobile
p1
(dp2
S'vel_y'
p3
F-0.17845463012840646
sS'vel_x'
p4
F0.30116610200140848
sS'pos_x'
p5
F-49.930208162361161
sS'pos_y'
p6
F31.649147899821138
sS'isAlive'
p7
I01
sS'cumulativeEnergy'
p8
F35.519579994766389
sS'geno'
p9
(lp10
(lp11
(lp12
S'POINT./'
p13
aS'cohesion'
p14
aaS'currentEnergy'
p15
a(lp16
S'separation'
p17
aaS'alignment'
p18
a(lp19
S'alignment'
p20
aS'POINT./'
p21
aaS'POINT.*'
p22
a(lp23
S'alignment'
p24
a(lp25
S'cohesion'
p26
aa(lp27
S'alignment'
p28
aS'POINT.-'
p29
aaS'cohesion'
p30
aa(lp31
S'randV'
p32
aS'separation'
p33
a(lp34
(lp35
S'POINT.+'
p36
a(lp37
S'POINT.*'
p38
aaaS'POINT./'
p39
a(lp40
S'POINT.+'
p41
aS'target'
p42
a(lp43
S'POINT./'
p44
aS'target'
p45
aaa(lp46
S'target'
p47
a(lp48
S'POINT.+'
p49
a(lp50
S'currentVelocity'
p51
aaaS'currentVelocity'
p52
aS'alignment'
p53
aaaaa(lp54
S'POINT.+'
p55
a(lp56
S'alignment'
p57
aa(lp58
S'currentEnergy'
p59
aaS'target'
p60
aS'randV'
p61
aaS'alignment'
p62
aS'target'
p63
a(lp64
S'currentVelocity'
p65
a(lp66
S'flee'
p67
aaa(lp68
S'currentVelocity'
p69
a(lp70
(lp71
S'separation'
p72
a(lp73
(lp74
S'currentVelocity'
p75
aS'POINT.*'
p76
aaS'cohesion'
p77
aaaS'randV'
p78
a(lp79
S'randV'
p80
aaaa(lp81
S'currentVelocity'
p82
aS'alignment'
p83
aasS'accel_x'
p84
F0
sS'accel_y'
p85
F0
sS'visionAngle'
p86
I150
sS'maxAccel'
p87
I2
sS'maxVel'
p88
F0.5
sS'age'
p89
I50
sS'tailSize'
p90
F3.0116610200140848
sS'sexualgeno'
p91
(i__main__
Node
p92
(dp93
S'depth'
p94
I1
sS'right'
p95
(i__main__
Node
p96
(dp97
g94
I2
sg95
(i__main__
Node
p98
(dp99
g94
I3
sg95
NsS'parent'
p100
g96
sS'float_size'
p101
S'indiv.getTailBrightness()'
p102
sS'float_bright'
p103
S'indiv.distanceMatingSeason()'
p104
sS'left'
p105
Nsbsg100
g92
sg101
S'*'
sg103
S'/'
sg105
(i__main__
Node
p106
(dp107
g94
I3
sg95
(i__main__
Node
p108
(dp109
g94
I4
sg95
Nsg100
g106
sg101
S'indiv.randF()'
p110
sg103
g110
sg105
Nsbsg100
g96
sg101
S'+'
sg103
S'/'
sg105
(i__main__
Node
p111
(dp112
g94
I4
sg95
Nsg100
g106
sg101
S'indiv.getTailSize()'
p113
sg103
S'indiv.getEnergy()'
p114
sg105
Nsbsbsbsg100
Nsg101
S'-'
sg103
S'-'
sg105
(i__main__
Node
p115
(dp116
g94
I2
sg95
(i__main__
Node
p117
(dp118
g94
I3
sg95
Nsg100
g115
sg101
g102
sg103
g110
sg105
Nsbsg100
g92
sg101
S'-'
sg103
S'+'
sg105
(i__main__
Node
p119
(dp120
g94
I3
sg95
Nsg100
g115
sg101
S'indiv.getNumPredatorsNeigh()'
p121
sg103
g121
sg105
NsbsbsbsS'tailBrigh'
p122
F5.4686062294484117
sS'maxSteering'
p123
I30
sS'energy'
p124
F0.66370304885730347
sS'lastScale'
p125
F12.137030488573036
sb.(i__main__
Data_mobile
p1
(dp2
S'vel_y'
p3
F2.1083402923567061e-020
sS'vel_x'
p4
F0.094263296799609333
sS'pos_x'
p5
F-53.596330581182045
sS'pos_y'
p6
F34.717332546464533
sS'isAlive'
p7
I01
sS'cumulativeEnergy'
p8
F31.566470394334388
sS'geno'
p9
(lp10
(lp11
S'randV'
p12
aS'currentEnergy'
p13
aa(lp14
S'POINT./'
p15
aS'POINT.+'
p16
a(lp17
S'POINT.*'
p18
a(lp19
S'currentVelocity'
p20
aa(lp21
S'POINT.+'
p22
aS'cohesion'
p23
a(lp24
S'flee'
p25
aaaa(lp26
S'POINT.-'
p27
a(lp28
S'randV'
p29
a(lp30
S'separation'
p31
aS'cohesion'
p32
aa(lp33
(lp34
S'currentVelocity'
p35
aS'POINT.*'
p36
aa(lp37
S'cohesion'
p38
aS'currentEnergy'
p39
aS'POINT.*'
p40
aS'POINT./'
p41
aS'POINT.-'
p42
aa(lp43
S'target'
p44
aaS'target'
p45
aaa(lp46
(lp47
S'separation'
p48
aS'currentVelocity'
p49
aaS'POINT.+'
p50
aS'POINT./'
p51
aS'POINT.+'
p52
aa(lp53
S'POINT.-'
p54
aa(lp55
S'flee'
p56
aS'currentVelocity'
p57
aS'target'
p58
aS'separation'
p59
aaaaS'separation'
p60
a(lp61
S'currentVelocity'
p62
a(lp63
S'POINT.+'
p64
a(lp65
S'cohesion'
p66
aS'target'
p67
aaaa(lp68
(lp69
S'POINT.+'
p70
aS'POINT./'
p71
a(lp72
S'POINT.-'
p73
aS'POINT.+'
p74
a(lp75
S'cohesion'
p76
aS'separation'
p77
aS'flee'
p78
aaaaS'currentEnergy'
p79
aasS'accel_x'
p80
F0
sS'accel_y'
p81
F0
sS'visionAngle'
p82
I150
sS'maxAccel'
p83
I2
sS'maxVel'
p84
F0.5
sS'age'
p85
I50
sS'tailSize'
p86
F9.9256350730892038
sS'sexualgeno'
p87
(i__main__
Node
p88
(dp89
S'depth'
p90
I1
sS'right'
p91
(i__main__
Node
p92
(dp93
g90
I2
sg91
NsS'parent'
p94
g88
sS'float_size'
p95
S'indiv.getNumPredatorsNeigh()'
p96
sS'float_bright'
p97
g96
sS'left'
p98
Nsbsg94
Nsg95
S'-'
sg97
S'/'
sg98
(i__main__
Node
p99
(dp100
g90
I2
sg91
Nsg94
g88
sg95
S'indiv.randF()'
p101
sg97
S'indiv.distanceMatingSeason()'
p102
sg98
NsbsbsS'tailBrigh'
p103
F6.393785578517921
sS'maxSteering'
p104
I30
sS'energy'
p105
F0.60887820237260726
sS'lastScale'
p106
F11.588782023726074
sb.(i__main__
Data_mobile
p1
(dp2
S'vel_y'
p3
F1.080000697652689e-013
sS'vel_x'
p4
F0.9466312198894371
sS'pos_x'
p5
F-47.474453244000536
sS'pos_y'
p6
F34.686287821289497
sS'isAlive'
p7
I01
sS'cumulativeEnergy'
p8
F31.043689757414263
sS'geno'
p9
(lp10
(lp11
S'randV'
p12
aS'currentEnergy'
p13
aa(lp14
S'POINT./'
p15
aS'POINT.+'
p16
a(lp17
S'POINT.*'
p18
a(lp19
S'currentVelocity'
p20
aa(lp21
S'POINT.+'
p22
aS'cohesion'
p23
a(lp24
S'flee'
p25
aaaa(lp26
S'POINT.-'
p27
a(lp28
S'randV'
p29
a(lp30
S'separation'
p31
aS'cohesion'
p32
aa(lp33
(lp34
S'currentVelocity'
p35
aS'POINT.*'
p36
aa(lp37
S'cohesion'
p38
aS'currentEnergy'
p39
aS'POINT.*'
p40
aS'POINT./'
p41
aS'POINT.-'
p42
aa(lp43
S'target'
p44
aaS'target'
p45
aaa(lp46
(lp47
S'separation'
p48
aS'currentVelocity'
p49
aaS'POINT.+'
p50
aS'POINT./'
p51
aS'POINT.+'
p52
aa(lp53
S'POINT.-'
p54
aa(lp55
S'flee'
p56
aS'currentVelocity'
p57
aS'target'
p58
aS'separation'
p59
aaaaS'separation'
p60
a(lp61
S'currentVelocity'
p62
a(lp63
S'POINT.+'
p64
a(lp65
S'cohesion'
p66
aS'target'
p67
aaaa(lp68
(lp69
S'POINT.+'
p70
aS'POINT./'
p71
a(lp72
S'POINT.-'
p73
aS'POINT.+'
p74
a(lp75
S'cohesion'
p76
aS'separation'
p77
aS'flee'
p78
aaaaS'currentEnergy'
p79
aasS'accel_x'
p80
F0
sS'accel_y'
p81
F0
sS'visionAngle'
p82
I150
sS'maxAccel'
p83
I2
sS'maxVel'
p84
F0.5
sS'age'
p85
I50
sS'tailSize'
p86
F9.4663121988943715
sS'sexualgeno'
p87
(i__main__
Node
p88
(dp89
S'depth'
p90
I1
sS'right'
p91
(i__main__
Node
p92
(dp93
g90
I2
sg91
NsS'parent'
p94
g88
sS'float_size'
p95
S'indiv.getNumPredatorsNeigh()'
p96
sS'float_bright'
p97
g96
sS'left'
p98
Nsbsg94
Nsg95
S'-'
sg97
S'/'
sg98
(i__main__
Node
p99
(dp100
g90
I2
sg91
Nsg94
g88
sg95
S'indiv.randF()'
p101
sg97
S'indiv.distanceMatingSeason()'
p102
sg98
NsbsbsS'tailBrigh'
p103
F5.790838899709807
sS'maxSteering'
p104
I30
sS'energy'
p105
F0.61917287025341861
sS'lastScale'
p106
F11.691728702534185
sb.(i__main__
Data_mobile
p1
(dp2
S'vel_y'
p3
F0.00065525016942696033
sS'vel_x'
p4
F0.3175405902765891
sS'pos_x'
p5
F-48.832676130405943
sS'pos_y'
p6
F34.897296548862066
sS'isAlive'
p7
I01
sS'cumulativeEnergy'
p8
F22.515971172889412
sS'geno'
p9
(lp10
(lp11
(lp12
S'POINT./'
p13
aS'cohesion'
p14
aaS'currentEnergy'
p15
a(lp16
S'separation'
p17
aaS'alignment'
p18
a(lp19
S'alignment'
p20
aS'POINT./'
p21
aaS'POINT.*'
p22
a(lp23
S'alignment'
p24
a(lp25
S'cohesion'
p26
aa(lp27
S'alignment'
p28
aS'POINT.-'
p29
aaS'cohesion'
p30
aa(lp31
S'randV'
p32
aS'separation'
p33
a(lp34
(lp35
S'POINT.+'
p36
a(lp37
S'POINT.*'
p38
aaaS'POINT./'
p39
a(lp40
S'POINT.+'
p41
aS'target'
p42
a(lp43
S'POINT./'
p44
aS'target'
p45
aaa(lp46
S'target'
p47
a(lp48
S'POINT.+'
p49
a(lp50
S'currentVelocity'
p51
aaaS'currentVelocity'
p52
aS'alignment'
p53
aaaaa(lp54
S'POINT.+'
p55
a(lp56
S'alignment'
p57
aa(lp58
S'currentEnergy'
p59
aaS'target'
p60
aS'randV'
p61
aaS'alignment'
p62
aS'target'
p63
a(lp64
S'currentVelocity'
p65
a(lp66
S'flee'
p67
aaa(lp68
S'currentVelocity'
p69
a(lp70
(lp71
S'separation'
p72
a(lp73
(lp74
S'currentVelocity'
p75
aS'POINT.*'
p76
aaS'cohesion'
p77
aaaS'randV'
p78
a(lp79
S'randV'
p80
aaaa(lp81
S'currentVelocity'
p82
aS'alignment'
p83
aasS'accel_x'
p84
F0
sS'accel_y'
p85
F0
sS'visionAngle'
p86
I150
sS'maxAccel'
p87
I2
sS'maxVel'
p88
F0.5
sS'age'
p89
I50
sS'tailSize'
p90
F5.1146432387368517
sS'sexualgeno'
p91
(i__main__
Node
p92
(dp93
S'depth'
p94
I1
sS'right'
p95
(i__main__
Node
p96
(dp97
g94
I2
sg95
(i__main__
Node
p98
(dp99
g94
I3
sg95
NsS'parent'
p100
g96
sS'float_size'
p101
S'indiv.getTailBrightness()'
p102
sS'float_bright'
p103
S'indiv.distanceMatingSeason()'
p104
sS'left'
p105
Nsbsg100
g92
sg101
S'*'
sg103
S'/'
sg105
(i__main__
Node
p106
(dp107
g95
Nsg100
g96
sg94
I3
sg101
S'indiv.getNumPredatorsNeigh()'
p108
sg103
g108
sg105
Nsbsbsg100
Nsg101
S'-'
sg103
S'-'
sg105
(i__main__
Node
p109
(dp110
g94
I2
sg95
(i__main__
Node
p111
(dp112
g94
I3
sg95
Nsg100
g109
sg101
g108
sg103
S'indiv.getEnergy()'
p113
sg105
Nsbsg100
g92
sg101
S'+'
sg103
S'*'
sg105
(i__main__
Node
p114
(dp115
g94
I3
sg95
Nsg100
g109
sg101
S'indiv.randF()'
p116
sg103
g104
sg105
NsbsbsbsS'tailBrigh'
p117
F5.802152607679143
sS'maxSteering'
p118
I30
sS'energy'
p119
F0.41804149945648655
sS'lastScale'
p120
F9.680414994564865
sb.(i__main__
Data_mobile
p1
(dp2
S'vel_y'
p3
F0.032206624112694815
sS'vel_x'
p4
F0.21578104998857009
sS'pos_x'
p5
F-117.75868556947997
sS'pos_y'
p6
F-0.40644928932944274
sS'isAlive'
p7
I01
sS'cumulativeEnergy'
p8
F16.40199507570016
sS'geno'
p9
(lp10
(lp11
(lp12
S'POINT./'
p13
aS'cohesion'
p14
aaS'currentEnergy'
p15
a(lp16
S'separation'
p17
aaS'alignment'
p18
a(lp19
S'alignment'
p20
aS'POINT./'
p21
aaS'POINT.*'
p22
a(lp23
S'alignment'
p24
a(lp25
S'cohesion'
p26
aa(lp27
S'alignment'
p28
aS'POINT.-'
p29
aaS'cohesion'
p30
aa(lp31
S'randV'
p32
aS'separation'
p33
a(lp34
(lp35
S'POINT.+'
p36
a(lp37
S'POINT.*'
p38
aaaS'POINT./'
p39
a(lp40
S'POINT.+'
p41
aS'target'
p42
a(lp43
S'POINT./'
p44
aS'target'
p45
aaa(lp46
S'target'
p47
a(lp48
S'POINT.+'
p49
a(lp50
S'currentVelocity'
p51
aaaS'currentVelocity'
p52
aS'alignment'
p53
aaaaa(lp54
S'POINT.+'
p55
a(lp56
S'alignment'
p57
aa(lp58
S'currentEnergy'
p59
aaS'target'
p60
aS'randV'
p61
aaS'alignment'
p62
aS'target'
p63
a(lp64
S'currentVelocity'
p65
a(lp66
S'flee'
p67
aaa(lp68
S'currentVelocity'
p69
a(lp70
(lp71
S'separation'
p72
a(lp73
(lp74
S'currentVelocity'
p75
aS'POINT.*'
p76
aaS'cohesion'
p77
aaaS'randV'
p78
a(lp79
S'randV'
p80
aaaa(lp81
S'currentVelocity'
p82
aS'alignment'
p83
aasS'accel_x'
p84
F-0.28384820750009965
sS'accel_y'
p85
F-0.050808539204625525
sS'visionAngle'
p86
I150
sS'maxAccel'
p87
I2
sS'maxVel'
p88
F0.5
sS'age'
p89
I50
sS'tailSize'
p90
F9.0862062801923997
sS'sexualgeno'
p91
(i__main__
Node
p92
(dp93
S'depth'
p94
I1
sS'right'
p95
(i__main__
Node
p96
(dp97
g94
I2
sg95
(i__main__
Node
p98
(dp99
g94
I3
sg95
NsS'parent'
p100
g96
sS'float_size'
p101
S'indiv.getTailBrightness()'
p102
sS'float_bright'
p103
S'indiv.distanceMatingSeason()'
p104
sS'left'
p105
Nsbsg100
g92
sg101
S'*'
sg103
S'/'
sg105
(i__main__
Node
p106
(dp107
g94
I3
sg95
(i__main__
Node
p108
(dp109
g94
I4
sg95
Nsg100
g106
sg101
S'indiv.randF()'
p110
sg103
g110
sg105
Nsbsg100
g96
sg101
S'+'
sg103
S'/'
sg105
(i__main__
Node
p111
(dp112
g94
I4
sg95
Nsg100
g106
sg101
S'indiv.getTailSize()'
p113
sg103
S'indiv.getEnergy()'
p114
sg105
Nsbsbsbsg100
Nsg101
S'-'
sg103
S'-'
sg105
(i__main__
Node
p115
(dp116
g94
I2
sg95
(i__main__
Node
p117
(dp118
g94
I3
sg95
Nsg100
g115
sg101
g110
sg103
g110
sg105
Nsbsg100
g92
sg101
S'+'
sg103
S'/'
sg105
(i__main__
Node
p119
(dp120
g94
I3
sg95
Nsg100
g115
sg101
g113
sg103
g114
sg105
NsbsbsbsS'tailBrigh'
p121
F6.8089623390939744
sS'maxSteering'
p122
I30
sS'energy'
p123
F0.78710008862847125
sS'lastScale'
p124
F13.371000886284714
sb.(i__main__
Data_mobile
p1
(dp2
S'vel_y'
p3
F0.099235016445811758
sS'vel_x'
p4
F0.43074348809477908
sS'pos_x'
p5
F-40.700687983691807
sS'pos_y'
p6
F-6.124021223384494
sS'isAlive'
p7
I01
sS'cumulativeEnergy'
p8
F0.5
sS'geno'
p9
(lp10
(lp11
(lp12
S'POINT./'
p13
aS'cohesion'
p14
aaS'currentEnergy'
p15
a(lp16
S'separation'
p17
aaS'alignment'
p18
a(lp19
S'alignment'
p20
aS'POINT./'
p21
aaS'POINT.*'
p22
a(lp23
S'alignment'
p24
a(lp25
S'cohesion'
p26
aa(lp27
S'alignment'
p28
aS'POINT.-'
p29
aaS'cohesion'
p30
aa(lp31
S'randV'
p32
aS'separation'
p33
a(lp34
(lp35
S'POINT.+'
p36
a(lp37
S'POINT.*'
p38
aaaS'POINT./'
p39
a(lp40
S'POINT.+'
p41
aS'target'
p42
a(lp43
S'POINT./'
p44
aS'target'
p45
aaa(lp46
S'target'
p47
a(lp48
S'POINT.+'
p49
a(lp50
S'currentVelocity'
p51
aaaS'currentVelocity'
p52
aS'alignment'
p53
aaaaa(lp54
S'POINT.+'
p55
a(lp56
S'alignment'
p57
aa(lp58
S'currentEnergy'
p59
aaS'target'
p60
aS'randV'
p61
aaS'alignment'
p62
aS'target'
p63
a(lp64
S'currentVelocity'
p65
a(lp66
S'flee'
p67
aaa(lp68
S'currentVelocity'
p69
a(lp70
(lp71
S'separation'
p72
a(lp73
(lp74
S'currentVelocity'
p75
aS'POINT.*'
p76
aaS'cohesion'
p77
aaaS'randV'
p78
a(lp79
S'randV'
p80
aaaa(lp81
S'currentVelocity'
p82
aS'alignment'
p83
aasS'accel_x'
p84
F0
sS'accel_y'
p85
F0
sS'visionAngle'
p86
I150
sS'maxAccel'
p87
I2
sS'maxVel'
p88
F0.5
sS'age'
p89
I0
sS'tailSize'
p90
F6.0305993421675286
sS'sexualgeno'
p91
(i__main__
Node
p92
(dp93
S'depth'
p94
I1
sS'right'
p95
(i__main__
Node
p96
(dp97
g94
I2
sg95
(i__main__
Node
p98
(dp99
g94
I3
sg95
NsS'parent'
p100
g96
sS'float_size'
p101
S'indiv.getTailBrightness()'
p102
sS'float_bright'
p103
S'indiv.distanceMatingSeason()'
p104
sS'left'
p105
Nsbsg100
g92
sg101
S'*'
sg103
S'/'
sg105
(i__main__
Node
p106
(dp107
g94
I3
sg95
(i__main__
Node
p108
(dp109
g94
I4
sg95
Nsg100
g106
sg101
g102
sg103
g104
sg105
Nsbsg100
g96
sg101
S'*'
sg103
S'/'
sg105
(i__main__
Node
p110
(dp111
g94
I4
sg95
(i__main__
Node
p112
(dp113
g94
I5
sg95
Nsg100
g110
sg101
S'indiv.randF()'
p114
sg103
g114
sg105
Nsbsg100
g106
sg101
S'+'
sg103
S'/'
sg105
(i__main__
Node
p115
(dp116
g94
I5
sg95
Nsg100
g110
sg101
S'indiv.getTailSize()'
p117
sg103
S'indiv.getEnergy()'
p118
sg105
Nsbsbsbsbsg100
Nsg101
S'-'
sg103
S'-'
sg105
(i__main__
Node
p119
(dp120
g94
I2
sg95
(i__main__
Node
p121
(dp122
g94
I3
sg95
Nsg100
g119
sg101
S'indiv.getNumPredatorsNeigh()'
p123
sg103
g118
sg105
Nsbsg100
g92
sg101
S'+'
sg103
S'*'
sg105
(i__main__
Node
p124
(dp125
g94
I3
sg95
Nsg100
g119
sg101
g114
sg103
g104
sg105
NsbsbsbsS'tailBrigh'
p126
F2.4627891053123196
sS'maxSteering'
p127
I30
sS'energy'
p128
F0.5
sS'lastScale'
p129
F5.5
sb.(i__main__
Data_mobile
p1
(dp2
S'vel_y'
p3
F0.098473060227825121
sS'vel_x'
p4
F0.098843245056856377
sS'pos_x'
p5
F-35.474407765062637
sS'pos_y'
p6
F-11.763779852944008
sS'isAlive'
p7
I01
sS'cumulativeEnergy'
p8
F0.5
sS'geno'
p9
(lp10
(lp11
(lp12
S'POINT./'
p13
aS'cohesion'
p14
aaS'currentEnergy'
p15
a(lp16
S'separation'
p17
aaS'alignment'
p18
a(lp19
S'alignment'
p20
aS'POINT./'
p21
aaS'POINT.*'
p22
a(lp23
S'alignment'
p24
a(lp25
S'cohesion'
p26
aa(lp27
S'alignment'
p28
aS'POINT.-'
p29
aaS'cohesion'
p30
aa(lp31
S'randV'
p32
aS'separation'
p33
a(lp34
(lp35
S'POINT.+'
p36
a(lp37
S'POINT.*'
p38
aaaS'POINT./'
p39
a(lp40
S'POINT.+'
p41
aS'target'
p42
a(lp43
S'POINT./'
p44
aS'target'
p45
aaa(lp46
S'target'
p47
a(lp48
S'POINT.+'
p49
a(lp50
S'currentVelocity'
p51
aaaS'currentVelocity'
p52
aS'alignment'
p53
aaaaa(lp54
S'POINT.+'
p55
a(lp56
S'alignment'
p57
aa(lp58
S'currentEnergy'
p59
aaS'target'
p60
aS'randV'
p61
aaS'alignment'
p62
aS'target'
p63
a(lp64
S'currentVelocity'
p65
a(lp66
S'flee'
p67
aaa(lp68
S'currentVelocity'
p69
a(lp70
(lp71
S'separation'
p72
a(lp73
(lp74
S'currentVelocity'
p75
aS'POINT.*'
p76
aaS'cohesion'
p77
aaaS'randV'
p78
a(lp79
S'randV'
p80
aaaa(lp81
S'currentVelocity'
p82
aS'alignment'
p83
aasS'accel_x'
p84
F0
sS'accel_y'
p85
F0
sS'visionAngle'
p86
I150
sS'maxAccel'
p87
I2
sS'maxVel'
p88
F0.5
sS'age'
p89
I0
sS'tailSize'
p90
F0.98843245056856377
sS'sexualgeno'
p91
(i__main__
Node
p92
(dp93
S'depth'
p94
I1
sS'right'
p95
(i__main__
Node
p96
(dp97
g94
I2
sg95
(i__main__
Node
p98
(dp99
g94
I3
sg95
NsS'parent'
p100
g96
sS'float_size'
p101
S'indiv.randF()'
p102
sS'float_bright'
p103
g102
sS'left'
p104
Nsbsg100
g92
sg101
S'+'
sg103
S'/'
sg104
(i__main__
Node
p105
(dp106
g94
I3
sg95
Nsg100
g96
sg101
S'indiv.getTailSize()'
p107
sg103
S'indiv.getEnergy()'
p108
sg104
Nsbsbsg100
Nsg101
S'-'
sg103
S'-'
sg104
(i__main__
Node
p109
(dp110
g94
I2
sg95
(i__main__
Node
p111
(dp112
g94
I3
sg95
Nsg100
g109
sg101
S'indiv.getTailBrightness()'
p113
sg103
g102
sg104
Nsbsg100
g92
sg101
S'-'
sg103
S'+'
sg104
(i__main__
Node
p114
(dp115
g94
I3
sg95
Nsg100
g109
sg101
S'indiv.getNumPredatorsNeigh()'
p116
sg103
g116
sg104
NsbsbsbsS'tailBrigh'
p117
F2.2884261319623178
sS'maxSteering'
p118
I30
sS'energy'
p119
F0.5
sS'lastScale'
p120
F5.5
sb.(i__main__
Data_mobile
p1
(dp2
S'vel_y'
p3
F-0.037518511002105313
sS'vel_x'
p4
F0.34910441204659048
sS'pos_x'
p5
F-8.4513019888590115
sS'pos_y'
p6
F92.622556627112147
sS'isAlive'
p7
I01
sS'cumulativeEnergy'
p8
F0.5
sS'geno'
p9
(lp10
(lp11
S'randV'
p12
aS'currentEnergy'
p13
aa(lp14
S'POINT./'
p15
aS'POINT.+'
p16
a(lp17
S'POINT.*'
p18
a(lp19
S'currentVelocity'
p20
aa(lp21
S'POINT.+'
p22
aS'cohesion'
p23
a(lp24
S'flee'
p25
aaaa(lp26
S'POINT.-'
p27
a(lp28
S'randV'
p29
a(lp30
S'separation'
p31
aS'cohesion'
p32
aa(lp33
(lp34
S'currentVelocity'
p35
aS'POINT.*'
p36
aa(lp37
S'cohesion'
p38
aS'currentEnergy'
p39
aS'POINT.*'
p40
aS'POINT./'
p41
aS'POINT.-'
p42
aa(lp43
S'target'
p44
aaS'target'
p45
aaa(lp46
(lp47
S'separation'
p48
aS'currentVelocity'
p49
aaS'POINT.+'
p50
aS'POINT./'
p51
aS'POINT.+'
p52
aa(lp53
S'POINT.-'
p54
aa(lp55
S'flee'
p56
aS'currentVelocity'
p57
aS'target'
p58
aS'separation'
p59
aaaaS'separation'
p60
a(lp61
S'currentVelocity'
p62
a(lp63
S'POINT.+'
p64
a(lp65
S'cohesion'
p66
aS'target'
p67
aaaa(lp68
(lp69
S'POINT.+'
p70
aS'POINT./'
p71
a(lp72
S'POINT.-'
p73
aS'POINT.+'
p74
a(lp75
S'cohesion'
p76
aS'separation'
p77
aS'flee'
p78
aaaaS'currentEnergy'
p79
aasS'accel_x'
p80
F0
sS'accel_y'
p81
F0
sS'visionAngle'
p82
I150
sS'maxAccel'
p83
I2
sS'maxVel'
p84
F0.5
sS'age'
p85
I0
sS'tailSize'
p86
F8.3463412165144941
sS'sexualgeno'
p87
(i__main__
Node
p88
(dp89
S'depth'
p90
I1
sS'right'
p91
(i__main__
Node
p92
(dp93
g90
I2
sg91
NsS'parent'
p94
g88
sS'float_size'
p95
S'indiv.getNumPredatorsNeigh()'
p96
sS'float_bright'
p97
g96
sS'left'
p98
Nsbsg94
Nsg95
S'-'
sg97
S'/'
sg98
(i__main__
Node
p99
(dp100
g90
I2
sg91
Nsg94
g88
sg95
S'indiv.randF()'
p101
sg97
S'indiv.distanceMatingSeason()'
p102
sg98
NsbsbsS'tailBrigh'
p103
F9.5721016133419798
sS'maxSteering'
p104
I30
sS'energy'
p105
F0.5
sS'lastScale'
p106
F5.5
sb.(i__main__
Data_mobile
p1
(dp2
S'vel_y'
p3
F-0.11690879740156983
sS'vel_x'
p4
F0.52048595267704201
sS'pos_x'
p5
F-19.364581790110307
sS'pos_y'
p6
F84.337057358565687
sS'isAlive'
p7
I01
sS'cumulativeEnergy'
p8
F0.5
sS'geno'
p9
(lp10
(lp11
S'randV'
p12
aS'currentEnergy'
p13
aa(lp14
S'POINT./'
p15
aS'POINT.+'
p16
a(lp17
S'POINT.*'
p18
a(lp19
S'currentVelocity'
p20
aa(lp21
S'POINT.+'
p22
aS'cohesion'
p23
a(lp24
S'flee'
p25
aaaa(lp26
S'POINT.-'
p27
a(lp28
S'randV'
p29
a(lp30
S'separation'
p31
aS'cohesion'
p32
aa(lp33
(lp34
S'currentVelocity'
p35
aS'POINT.*'
p36
aa(lp37
S'cohesion'
p38
aS'currentEnergy'
p39
aS'POINT.*'
p40
aS'POINT./'
p41
aS'POINT.-'
p42
aa(lp43
S'target'
p44
aaS'target'
p45
aaa(lp46
(lp47
S'separation'
p48
aS'currentVelocity'
p49
aaS'POINT.+'
p50
aS'POINT./'
p51
aS'POINT.+'
p52
aa(lp53
S'POINT.-'
p54
aa(lp55
S'flee'
p56
aS'currentVelocity'
p57
aS'target'
p58
aS'separation'
p59
aaaaS'separation'
p60
a(lp61
S'currentVelocity'
p62
a(lp63
S'POINT.+'
p64
a(lp65
S'cohesion'
p66
aS'target'
p67
aaaa(lp68
(lp69
S'POINT.+'
p70
aS'POINT./'
p71
a(lp72
S'POINT.-'
p73
aS'POINT.+'
p74
a(lp75
S'cohesion'
p76
aS'separation'
p77
aS'flee'
p78
aaaaS'currentEnergy'
p79
aasS'accel_x'
p80
F0
sS'accel_y'
p81
F0
sS'visionAngle'
p82
I150
sS'maxAccel'
p83
I2
sS'maxVel'
p84
F0.5
sS'age'
p85
I0
sS'tailSize'
p86
F5.3236481039372059
sS'sexualgeno'
p87
(i__main__
Node
p88
(dp89
S'depth'
p90
I1
sS'right'
p91
(i__main__
Node
p92
(dp93
g90
I2
sg91
NsS'parent'
p94
g88
sS'float_size'
p95
S'indiv.getNumPredatorsNeigh()'
p96
sS'float_bright'
p97
g96
sS'left'
p98
Nsbsg94
Nsg95
S'-'
sg97
S'/'
sg98
(i__main__
Node
p99
(dp100
g90
I2
sg91
Nsg94
g88
sg95
S'indiv.randF()'
p101
sg97
S'indiv.distanceMatingSeason()'
p102
sg98
NsbsbsS'tailBrigh'
p103
F6.8277835312335453
sS'maxSteering'
p104
I30
sS'energy'
p105
F0.5
sS'lastScale'
p106
F5.5
sb.(i__main__
Data_mobile
p1
(dp2
S'vel_y'
p3
F0.11413644765286321
sS'vel_x'
p4
F0.25417622336276191
sS'pos_x'
p5
F-37.244537648684791
sS'pos_y'
p6
F33.507057080293748
sS'isAlive'
p7
I01
sS'cumulativeEnergy'
p8
F0.5
sS'geno'
p9
(lp10
(lp11
(lp12
S'POINT./'
p13
aS'cohesion'
p14
aaS'currentEnergy'
p15
a(lp16
S'separation'
p17
aaS'alignment'
p18
a(lp19
S'alignment'
p20
aS'POINT./'
p21
aaS'POINT.*'
p22
a(lp23
S'alignment'
p24
a(lp25
S'cohesion'
p26
aa(lp27
S'alignment'
p28
aS'POINT.-'
p29
aaS'cohesion'
p30
aa(lp31
S'randV'
p32
aS'separation'
p33
a(lp34
(lp35
S'POINT.+'
p36
a(lp37
S'POINT.*'
p38
aaaS'POINT./'
p39
a(lp40
S'POINT.+'
p41
aS'target'
p42
a(lp43
S'POINT./'
p44
aS'target'
p45
aaa(lp46
S'target'
p47
a(lp48
S'POINT.+'
p49
a(lp50
S'currentVelocity'
p51
aaaS'currentVelocity'
p52
aS'alignment'
p53
aaaaa(lp54
S'POINT.+'
p55
a(lp56
S'alignment'
p57
aa(lp58
S'currentEnergy'
p59
aaS'target'
p60
aS'randV'
p61
aaS'alignment'
p62
aS'target'
p63
a(lp64
S'currentVelocity'
p65
a(lp66
S'flee'
p67
aaa(lp68
S'currentVelocity'
p69
a(lp70
(lp71
S'separation'
p72
a(lp73
(lp74
S'currentVelocity'
p75
aS'POINT.*'
p76
aaS'cohesion'
p77
aaaS'randV'
p78
a(lp79
S'randV'
p80
aaaa(lp81
S'currentVelocity'
p82
aS'alignment'
p83
aasS'accel_x'
p84
F0
sS'accel_y'
p85
F0
sS'visionAngle'
p86
I150
sS'maxAccel'
p87
I2
sS'maxVel'
p88
F0.5
sS'age'
p89
I0
sS'tailSize'
p90
F2.5417622336276189
sS'sexualgeno'
p91
(i__main__
Node
p92
(dp93
S'depth'
p94
I1
sS'right'
p95
(i__main__
Node
p96
(dp97
g94
I2
sg95
(i__main__
Node
p98
(dp99
g94
I3
sg95
NsS'parent'
p100
g96
sS'float_size'
p101
S'indiv.getTailBrightness()'
p102
sS'float_bright'
p103
S'indiv.distanceMatingSeason()'
p104
sS'left'
p105
Nsbsg100
g92
sg101
S'*'
sg103
S'/'
sg105
(i__main__
Node
p106
(dp107
g94
I3
sg95
(i__main__
Node
p108
(dp109
g94
I4
sg95
Nsg100
g106
sg101
g102
sg103
g104
sg105
Nsbsg100
g96
sg101
S'*'
sg103
S'/'
sg105
(i__main__
Node
p110
(dp111
g94
I4
sg95
(i__main__
Node
p112
(dp113
g94
I5
sg95
Nsg100
g110
sg101
S'indiv.randF()'
p114
sg103
g114
sg105
Nsbsg100
g106
sg101
S'+'
sg103
S'/'
sg105
(i__main__
Node
p115
(dp116
g94
I5
sg95
Nsg100
g110
sg101
S'indiv.getTailSize()'
p117
sg103
S'indiv.getEnergy()'
p118
sg105
Nsbsbsbsbsg100
Nsg101
S'-'
sg103
S'-'
sg105
(i__main__
Node
p119
(dp120
g94
I2
sg95
(i__main__
Node
p121
(dp122
g94
I3
sg95
Nsg100
g119
sg101
g114
sg103
S'indiv.getNumPredatorsNeigh()'
p123
sg105
Nsbsg100
g92
sg101
S'/'
sg103
S'+'
sg105
(i__main__
Node
p124
(dp125
g94
I3
sg95
Nsg100
g119
sg101
g104
sg103
g114
sg105
NsbsbsbsS'tailBrigh'
p126
F8.4835089826046097
sS'maxSteering'
p127
I30
sS'energy'
p128
F0.5
sS'lastScale'
p129
F5.5
sb.(i__main__
Data_mobile
p1
(dp2
S'vel_y'
p3
F-0.0090935512413550246
sS'vel_x'
p4
F0.32314526266777632
sS'pos_x'
p5
F-33.405568734353857
sS'pos_y'
p6
F58.67936920142629
sS'isAlive'
p7
I01
sS'cumulativeEnergy'
p8
F0.5
sS'geno'
p9
(lp10
(lp11
S'randV'
p12
aS'currentEnergy'
p13
aa(lp14
S'POINT./'
p15
aS'POINT.+'
p16
a(lp17
S'POINT.*'
p18
a(lp19
S'currentVelocity'
p20
aa(lp21
S'POINT.+'
p22
aS'cohesion'
p23
a(lp24
S'flee'
p25
aaaa(lp26
S'POINT.-'
p27
a(lp28
S'randV'
p29
a(lp30
S'separation'
p31
aS'cohesion'
p32
aa(lp33
(lp34
S'currentVelocity'
p35
aS'POINT.*'
p36
aa(lp37
S'cohesion'
p38
aS'currentEnergy'
p39
aS'POINT.*'
p40
aS'POINT./'
p41
aS'POINT.-'
p42
aa(lp43
S'target'
p44
aaS'target'
p45
aaa(lp46
(lp47
S'separation'
p48
aS'currentVelocity'
p49
aaS'POINT.+'
p50
aS'POINT./'
p51
aS'POINT.+'
p52
aa(lp53
S'POINT.-'
p54
aa(lp55
S'flee'
p56
aS'currentVelocity'
p57
aS'target'
p58
aS'separation'
p59
aaaaS'separation'
p60
a(lp61
S'currentVelocity'
p62
a(lp63
S'POINT.+'
p64
a(lp65
S'cohesion'
p66
aS'target'
p67
aaaa(lp68
(lp69
S'POINT.+'
p70
aS'POINT./'
p71
a(lp72
S'POINT.-'
p73
aS'POINT.+'
p74
a(lp75
S'cohesion'
p76
aS'separation'
p77
aS'flee'
p78
aaaaS'currentEnergy'
p79
aasS'accel_x'
p80
F0
sS'accel_y'
p81
F0
sS'visionAngle'
p82
I150
sS'maxAccel'
p83
I2
sS'maxVel'
p84
F0.5
sS'age'
p85
I0
sS'tailSize'
p86
F6.9740419518681795
sS'sexualgeno'
p87
(i__main__
Node
p88
(dp89
S'depth'
p90
I1
sS'right'
p91
(i__main__
Node
p92
(dp93
g90
I2
sg91
NsS'parent'
p94
g88
sS'float_size'
p95
S'indiv.getNumPredatorsNeigh()'
p96
sS'float_bright'
p97
g96
sS'left'
p98
Nsbsg94
Nsg95
S'-'
sg97
S'/'
sg98
(i__main__
Node
p99
(dp100
g90
I2
sg91
Nsg94
g88
sg95
S'indiv.randF()'
p101
sg97
S'indiv.distanceMatingSeason()'
p102
sg98
NsbsbsS'tailBrigh'
p103
F5.1797078959388001
sS'maxSteering'
p104
I30
sS'energy'
p105
F0.5
sS'lastScale'
p106
F5.5
sb.(i__main__
Data_mobile
p1
(dp2
S'vel_y'
p3
F-0.064557794056564921
sS'vel_x'
p4
F0.39855606401501131
sS'pos_x'
p5
F-33.126014328643848
sS'pos_y'
p6
F18.571070105426941
sS'isAlive'
p7
I01
sS'cumulativeEnergy'
p8
F0.5
sS'geno'
p9
(lp10
(lp11
(lp12
S'POINT./'
p13
aS'cohesion'
p14
aaS'currentEnergy'
p15
a(lp16
S'separation'
p17
aaS'alignment'
p18
a(lp19
S'alignment'
p20
aS'POINT./'
p21
aaS'POINT.*'
p22
a(lp23
S'alignment'
p24
a(lp25
S'cohesion'
p26
aa(lp27
S'alignment'
p28
aS'POINT.-'
p29
aaS'cohesion'
p30
aa(lp31
S'randV'
p32
aS'separation'
p33
a(lp34
(lp35
S'POINT.+'
p36
a(lp37
S'POINT.*'
p38
aaaS'POINT./'
p39
a(lp40
S'POINT.+'
p41
aS'target'
p42
a(lp43
S'POINT./'
p44
aS'target'
p45
aaa(lp46
S'target'
p47
a(lp48
S'POINT.+'
p49
a(lp50
S'currentVelocity'
p51
aaaS'currentVelocity'
p52
aS'alignment'
p53
aaaaa(lp54
S'POINT.+'
p55
a(lp56
S'alignment'
p57
aa(lp58
S'currentEnergy'
p59
aaS'target'
p60
aS'randV'
p61
aaS'alignment'
p62
aS'target'
p63
a(lp64
S'currentVelocity'
p65
a(lp66
S'flee'
p67
aaa(lp68
S'currentVelocity'
p69
a(lp70
(lp71
S'separation'
p72
a(lp73
(lp74
S'currentVelocity'
p75
aS'POINT.*'
p76
aaS'cohesion'
p77
aaaS'randV'
p78
a(lp79
S'randV'
p80
aaaa(lp81
S'currentVelocity'
p82
aS'alignment'
p83
aasS'accel_x'
p84
F0
sS'accel_y'
p85
F0
sS'visionAngle'
p86
I150
sS'maxAccel'
p87
I2
sS'maxVel'
p88
F0.5
sS'age'
p89
I0
sS'tailSize'
p90
F3.9855606401501129
sS'sexualgeno'
p91
(i__main__
Node
p92
(dp93
S'depth'
p94
I1
sS'right'
p95
(i__main__
Node
p96
(dp97
g94
I2
sg95
(i__main__
Node
p98
(dp99
g94
I3
sg95
NsS'parent'
p100
g96
sS'float_size'
p101
S'indiv.randF()'
p102
sS'float_bright'
p103
g102
sS'left'
p104
Nsbsg100
g92
sg101
S'+'
sg103
S'/'
sg104
(i__main__
Node
p105
(dp106
g94
I3
sg95
Nsg100
g96
sg101
S'indiv.getTailSize()'
p107
sg103
S'indiv.getEnergy()'
p108
sg104
Nsbsbsg100
Nsg101
S'-'
sg103
S'-'
sg104
(i__main__
Node
p109
(dp110
g94
I2
sg95
(i__main__
Node
p111
(dp112
g94
I3
sg95
Nsg100
g109
sg101
S'indiv.getNumPredatorsNeigh()'
p113
sg103
g108
sg104
Nsbsg100
g92
sg101
S'+'
sg103
S'*'
sg104
(i__main__
Node
p114
(dp115
g94
I3
sg95
Nsg100
g109
sg101
g102
sg103
S'indiv.distanceMatingSeason()'
p116
sg104
NsbsbsbsS'tailBrigh'
p117
F5.8453803453556485
sS'maxSteering'
p118
I30
sS'energy'
p119
F0.5
sS'lastScale'
p120
F5.5
sb.(i__main__
Data_mobile
p1
(dp2
S'vel_y'
p3
F0.012345655624940811
sS'vel_x'
p4
F0.19841747012137356
sS'pos_x'
p5
F-15.259116916638181
sS'pos_y'
p6
F92.858143088833657
sS'isAlive'
p7
I01
sS'cumulativeEnergy'
p8
F0.5
sS'geno'
p9
(lp10
(lp11
S'randV'
p12
aS'currentEnergy'
p13
aa(lp14
S'POINT./'
p15
aS'POINT.+'
p16
a(lp17
S'POINT.*'
p18
a(lp19
S'currentVelocity'
p20
aa(lp21
S'POINT.+'
p22
aS'cohesion'
p23
a(lp24
S'flee'
p25
aaaa(lp26
S'POINT.-'
p27
a(lp28
S'randV'
p29
a(lp30
S'separation'
p31
aS'cohesion'
p32
aa(lp33
(lp34
S'currentVelocity'
p35
aS'POINT.*'
p36
aa(lp37
S'cohesion'
p38
aS'currentEnergy'
p39
aS'POINT.*'
p40
aS'POINT./'
p41
aS'POINT.-'
p42
aa(lp43
S'target'
p44
aaS'target'
p45
aaa(lp46
(lp47
S'separation'
p48
aS'currentVelocity'
p49
aaS'POINT.+'
p50
aS'POINT./'
p51
aS'POINT.+'
p52
aa(lp53
S'POINT.-'
p54
aa(lp55
S'flee'
p56
aS'currentVelocity'
p57
aS'target'
p58
aS'separation'
p59
aaaaS'separation'
p60
a(lp61
S'currentVelocity'
p62
a(lp63
S'POINT.+'
p64
a(lp65
S'cohesion'
p66
aS'target'
p67
aaaa(lp68
(lp69
S'POINT.+'
p70
aS'POINT./'
p71
a(lp72
S'POINT.-'
p73
aS'POINT.+'
p74
a(lp75
S'cohesion'
p76
aS'separation'
p77
aS'flee'
p78
aaaaS'currentEnergy'
p79
aasS'accel_x'
p80
F0
sS'accel_y'
p81
F0
sS'visionAngle'
p82
I150
sS'maxAccel'
p83
I2
sS'maxVel'
p84
F0.5
sS'age'
p85
I0
sS'tailSize'
p86
F3.5175460858898857
sS'sexualgeno'
p87
(i__main__
Node
p88
(dp89
S'depth'
p90
I1
sS'right'
p91
(i__main__
Node
p92
(dp93
g90
I2
sg91
NsS'parent'
p94
g88
sS'float_size'
p95
S'indiv.getNumPredatorsNeigh()'
p96
sS'float_bright'
p97
g96
sS'left'
p98
Nsbsg94
Nsg95
S'-'
sg97
S'/'
sg98
(i__main__
Node
p99
(dp100
g90
I2
sg91
Nsg94
g88
sg95
S'indiv.randF()'
p101
sg97
S'indiv.distanceMatingSeason()'
p102
sg98
NsbsbsS'tailBrigh'
p103
F9.0528152583431414
sS'maxSteering'
p104
I30
sS'energy'
p105
F0.5
sS'lastScale'
p106
F5.5
sb.(i__main__
Data_mobile
p1
(dp2
S'vel_y'
p3
F-0.0027910098469240037
sS'vel_x'
p4
F0.24312537638988618
sS'pos_x'
p5
F-92.544040785383871
sS'pos_y'
p6
F55.664607545468996
sS'isAlive'
p7
I01
sS'cumulativeEnergy'
p8
F0.5
sS'geno'
p9
(lp10
(lp11
(lp12
S'POINT./'
p13
aS'cohesion'
p14
aaS'currentEnergy'
p15
a(lp16
S'separation'
p17
aaS'alignment'
p18
a(lp19
S'alignment'
p20
aS'POINT./'
p21
aaS'POINT.*'
p22
a(lp23
S'alignment'
p24
a(lp25
S'cohesion'
p26
aa(lp27
S'alignment'
p28
aS'POINT.-'
p29
aaS'cohesion'
p30
aa(lp31
S'randV'
p32
aS'separation'
p33
a(lp34
(lp35
S'POINT.+'
p36
a(lp37
S'POINT.*'
p38
aaaS'POINT./'
p39
a(lp40
S'POINT.+'
p41
aS'target'
p42
a(lp43
S'POINT./'
p44
aS'target'
p45
aaa(lp46
S'target'
p47
a(lp48
S'POINT.+'
p49
a(lp50
S'currentVelocity'
p51
aaaS'currentVelocity'
p52
aS'alignment'
p53
aaaaa(lp54
S'POINT.+'
p55
a(lp56
S'alignment'
p57
aa(lp58
S'currentEnergy'
p59
aaS'target'
p60
aS'randV'
p61
aaS'alignment'
p62
aS'target'
p63
a(lp64
S'currentVelocity'
p65
a(lp66
S'flee'
p67
aaa(lp68
S'currentVelocity'
p69
a(lp70
(lp71
S'separation'
p72
a(lp73
(lp74
S'currentVelocity'
p75
aS'POINT.*'
p76
aaS'cohesion'
p77
aaaS'randV'
p78
a(lp79
S'randV'
p80
aaaa(lp81
S'currentVelocity'
p82
aS'alignment'
p83
aasS'accel_x'
p84
F0
sS'accel_y'
p85
F0
sS'visionAngle'
p86
I150
sS'maxAccel'
p87
I2
sS'maxVel'
p88
F0.5
sS'age'
p89
I0
sS'tailSize'
p90
F3.7972904084139234
sS'sexualgeno'
p91
(i__main__
Node
p92
(dp93
S'depth'
p94
I1
sS'right'
p95
(i__main__
Node
p96
(dp97
g94
I2
sg95
(i__main__
Node
p98
(dp99
g94
I3
sg95
NsS'parent'
p100
g96
sS'float_size'
p101
S'indiv.getTailBrightness()'
p102
sS'float_bright'
p103
S'indiv.distanceMatingSeason()'
p104
sS'left'
p105
Nsbsg100
g92
sg101
S'*'
sg103
S'/'
sg105
(i__main__
Node
p106
(dp107
g94
I3
sg95
(i__main__
Node
p108
(dp109
g94
I4
sg95
Nsg100
g106
sg101
S'indiv.randF()'
p110
sg103
g110
sg105
Nsbsg100
g96
sg101
S'+'
sg103
S'/'
sg105
(i__main__
Node
p111
(dp112
g94
I4
sg95
Nsg100
g106
sg101
S'indiv.getTailSize()'
p113
sg103
S'indiv.getEnergy()'
p114
sg105
Nsbsbsbsg100
Nsg101
S'-'
sg103
S'-'
sg105
(i__main__
Node
p115
(dp116
g94
I2
sg95
(i__main__
Node
p117
(dp118
g94
I3
sg95
Nsg100
g115
sg101
S'indiv.getNumPredatorsNeigh()'
p119
sg103
g114
sg105
Nsbsg100
g92
sg101
S'+'
sg103
S'*'
sg105
(i__main__
Node
p120
(dp121
g94
I3
sg95
Nsg100
g115
sg101
g110
sg103
g104
sg105
NsbsbsbsS'tailBrigh'
p122
F8.3661800678648035
sS'maxSteering'
p123
I30
sS'energy'
p124
F0.5
sS'lastScale'
p125
F5.5
sb.(i__main__
Data_mobile
p1
(dp2
S'vel_y'
p3
F-0.10046093726477913
sS'vel_x'
p4
F0.5899529163999887
sS'pos_x'
p5
F-13.219306891299979
sS'pos_y'
p6
F89.99241896111964
sS'isAlive'
p7
I01
sS'cumulativeEnergy'
p8
F0.5
sS'geno'
p9
(lp10
(lp11
S'randV'
p12
aS'currentEnergy'
p13
aa(lp14
S'POINT./'
p15
aS'POINT.+'
p16
a(lp17
S'POINT.*'
p18
a(lp19
S'currentVelocity'
p20
aa(lp21
S'POINT.+'
p22
aS'cohesion'
p23
a(lp24
S'flee'
p25
aaaa(lp26
S'POINT.-'
p27
a(lp28
S'randV'
p29
a(lp30
S'separation'
p31
aS'cohesion'
p32
aa(lp33
(lp34
S'currentVelocity'
p35
aS'POINT.*'
p36
aa(lp37
S'cohesion'
p38
aS'currentEnergy'
p39
aS'POINT.*'
p40
aS'POINT./'
p41
aS'POINT.-'
p42
aa(lp43
S'target'
p44
aaS'target'
p45
aaa(lp46
(lp47
S'separation'
p48
aS'currentVelocity'
p49
aaS'POINT.+'
p50
aS'POINT./'
p51
aS'POINT.+'
p52
aa(lp53
S'POINT.-'
p54
aa(lp55
S'flee'
p56
aS'currentVelocity'
p57
aS'target'
p58
aS'separation'
p59
aaaaS'separation'
p60
a(lp61
S'currentVelocity'
p62
a(lp63
S'POINT.+'
p64
a(lp65
S'cohesion'
p66
aS'target'
p67
aaaa(lp68
(lp69
S'POINT.+'
p70
aS'POINT./'
p71
a(lp72
S'POINT.-'
p73
aS'POINT.+'
p74
a(lp75
S'cohesion'
p76
aS'separation'
p77
aS'flee'
p78
aaaaS'currentEnergy'
p79
aasS'accel_x'
p80
F0
sS'accel_y'
p81
F0
sS'visionAngle'
p82
I150
sS'maxAccel'
p83
I2
sS'maxVel'
p84
F0.5
sS'age'
p85
I0
sS'tailSize'
p86
F5.8995291639998868
sS'sexualgeno'
p87
(i__main__
Node
p88
(dp89
S'depth'
p90
I1
sS'right'
p91
(i__main__
Node
p92
(dp93
g90
I2
sg91
NsS'parent'
p94
g88
sS'float_size'
p95
S'indiv.getNumPredatorsNeigh()'
p96
sS'float_bright'
p97
g96
sS'left'
p98
Nsbsg94
Nsg95
S'-'
sg97
S'/'
sg98
(i__main__
Node
p99
(dp100
g90
I2
sg91
Nsg94
g88
sg95
S'indiv.randF()'
p101
sg97
S'indiv.distanceMatingSeason()'
p102
sg98
NsbsbsS'tailBrigh'
p103
F0.70530066646946943
sS'maxSteering'
p104
I30
sS'energy'
p105
F0.5
sS'lastScale'
p106
F5.5
sb.(i__main__
Data_mobile
p1
(dp2
S'vel_y'
p3
I0
sS'vel_x'
p4
F0.026066338840306402
sS'pos_x'
p5
I-9579
sS'pos_y'
p6
I9779
sS'isAlive'
p7
I00
sS'cumulativeEnergy'
p8
F0.5
sS'geno'
p9
(lp10
(lp11
(lp12
S'POINT./'
p13
aS'cohesion'
p14
aaS'currentEnergy'
p15
a(lp16
S'separation'
p17
aaS'alignment'
p18
a(lp19
S'alignment'
p20
aS'POINT./'
p21
aaS'POINT.*'
p22
a(lp23
S'alignment'
p24
a(lp25
S'cohesion'
p26
aa(lp27
S'alignment'
p28
aS'POINT.-'
p29
aaS'cohesion'
p30
aa(lp31
S'randV'
p32
aS'separation'
p33
a(lp34
(lp35
S'POINT.+'
p36
a(lp37
S'POINT.*'
p38
aaaS'POINT./'
p39
a(lp40
S'POINT.+'
p41
aS'target'
p42
a(lp43
S'POINT./'
p44
aS'target'
p45
aaa(lp46
S'target'
p47
a(lp48
S'POINT.+'
p49
a(lp50
S'currentVelocity'
p51
aaaS'currentVelocity'
p52
aS'alignment'
p53
aaaaa(lp54
S'POINT.+'
p55
a(lp56
S'alignment'
p57
aa(lp58
S'currentEnergy'
p59
aaS'target'
p60
aS'randV'
p61
aaS'alignment'
p62
aS'target'
p63
a(lp64
S'currentVelocity'
p65
a(lp66
S'flee'
p67
aaa(lp68
S'currentVelocity'
p69
a(lp70
(lp71
S'separation'
p72
a(lp73
(lp74
S'currentVelocity'
p75
aS'POINT.*'
p76
aaS'cohesion'
p77
aaaS'randV'
p78
a(lp79
S'randV'
p80
aaaa(lp81
S'currentVelocity'
p82
aS'alignment'
p83
aasS'accel_x'
p84
F0
sS'accel_y'
p85
F0
sS'visionAngle'
p86
I150
sS'maxAccel'
p87
I2
sS'maxVel'
p88
F0.5
sS'age'
p89
I0
sS'tailSize'
p90
F0.26066338840306402
sS'sexualgeno'
p91
(i__main__
Node
p92
(dp93
S'depth'
p94
I1
sS'right'
p95
(i__main__
Node
p96
(dp97
g94
I2
sg95
(i__main__
Node
p98
(dp99
g94
I3
sg95
NsS'parent'
p100
g96
sS'float_size'
p101
S'indiv.getTailBrightness()'
p102
sS'float_bright'
p103
S'indiv.randF()'
p104
sS'left'
p105
Nsbsg100
g92
sg101
S'-'
sg103
S'+'
sg105
(i__main__
Node
p106
(dp107
g94
I3
sg95
Nsg100
g96
sg101
S'indiv.getNumPredatorsNeigh()'
p108
sg103
g108
sg105
Nsbsbsg100
Nsg101
S'-'
sg103
S'-'
sg105
(i__main__
Node
p109
(dp110
g94
I2
sg95
(i__main__
Node
p111
(dp112
g94
I3
sg95
Nsg100
g109
sg101
g102
sg103
S'indiv.distanceMatingSeason()'
p113
sg105
Nsbsg100
g92
sg101
S'*'
sg103
S'/'
sg105
(i__main__
Node
p114
(dp115
g94
I3
sg95
(i__main__
Node
p116
(dp117
g94
I4
sg95
Nsg100
g114
sg101
g104
sg103
g104
sg105
Nsbsg100
g109
sg101
S'+'
sg103
S'/'
sg105
(i__main__
Node
p118
(dp119
g94
I4
sg95
Nsg100
g114
sg101
S'indiv.getTailSize()'
p120
sg103
S'indiv.getEnergy()'
p121
sg105
NsbsbsbsbsS'tailBrigh'
p122
F9.9441790205946639
sS'maxSteering'
p123
I30
sS'energy'
p124
F0.5
sS'lastScale'
p125
F5.5
sb.(i__main__
Data_mobile
p1
(dp2
S'vel_y'
p3
I0
sS'vel_x'
p4
F0.51585946780386605
sS'pos_x'
p5
I-9579
sS'pos_y'
p6
I9779
sS'isAlive'
p7
I00
sS'cumulativeEnergy'
p8
F0.5
sS'geno'
p9
(lp10
(lp11
(lp12
S'POINT./'
p13
aS'cohesion'
p14
aaS'currentEnergy'
p15
a(lp16
S'separation'
p17
aaS'alignment'
p18
a(lp19
S'alignment'
p20
aS'POINT./'
p21
aaS'POINT.*'
p22
a(lp23
S'alignment'
p24
a(lp25
S'cohesion'
p26
aa(lp27
S'alignment'
p28
aS'POINT.-'
p29
aaS'cohesion'
p30
aa(lp31
S'randV'
p32
aS'separation'
p33
a(lp34
(lp35
S'POINT.+'
p36
a(lp37
S'POINT.*'
p38
aaaS'POINT./'
p39
a(lp40
S'POINT.+'
p41
aS'target'
p42
a(lp43
S'POINT./'
p44
aS'target'
p45
aaa(lp46
S'target'
p47
a(lp48
S'POINT.+'
p49
a(lp50
S'currentVelocity'
p51
aaaS'currentVelocity'
p52
aS'alignment'
p53
aaaaa(lp54
S'POINT.+'
p55
a(lp56
S'alignment'
p57
aa(lp58
S'currentEnergy'
p59
aaS'target'
p60
aS'randV'
p61
aaS'alignment'
p62
aS'target'
p63
a(lp64
S'currentVelocity'
p65
a(lp66
S'flee'
p67
aaa(lp68
S'currentVelocity'
p69
a(lp70
(lp71
S'separation'
p72
a(lp73
(lp74
S'currentVelocity'
p75
aS'POINT.*'
p76
aaS'cohesion'
p77
aaaS'randV'
p78
a(lp79
S'randV'
p80
aaaa(lp81
S'currentVelocity'
p82
aS'alignment'
p83
aasS'accel_x'
p84
F0
sS'accel_y'
p85
F0
sS'visionAngle'
p86
I150
sS'maxAccel'
p87
I2
sS'maxVel'
p88
F0.5
sS'age'
p89
I0
sS'tailSize'
p90
F5.1585946780386607
sS'sexualgeno'
p91
(i__main__
Node
p92
(dp93
S'depth'
p94
I1
sS'right'
p95
(i__main__
Node
p96
(dp97
g94
I2
sg95
(i__main__
Node
p98
(dp99
g94
I3
sg95
NsS'parent'
p100
g96
sS'float_size'
p101
S'indiv.getTailBrightness()'
p102
sS'float_bright'
p103
S'indiv.distanceMatingSeason()'
p104
sS'left'
p105
Nsbsg100
g92
sg101
S'*'
sg103
S'/'
sg105
(i__main__
Node
p106
(dp107
g94
I3
sg95
(i__main__
Node
p108
(dp109
g94
I4
sg95
Nsg100
g106
sg101
S'indiv.randF()'
p110
sg103
g110
sg105
Nsbsg100
g96
sg101
S'+'
sg103
S'/'
sg105
(i__main__
Node
p111
(dp112
g94
I4
sg95
Nsg100
g106
sg101
S'indiv.getTailSize()'
p113
sg103
S'indiv.getEnergy()'
p114
sg105
Nsbsbsbsg100
Nsg101
S'-'
sg103
S'-'
sg105
(i__main__
Node
p115
(dp116
g94
I2
sg95
(i__main__
Node
p117
(dp118
g94
I3
sg95
Nsg100
g115
sg101
g110
sg103
g110
sg105
Nsbsg100
g92
sg101
S'+'
sg103
S'/'
sg105
(i__main__
Node
p119
(dp120
g94
I3
sg95
Nsg100
g115
sg101
g113
sg103
g114
sg105
NsbsbsbsS'tailBrigh'
p121
F9.7402129952363943
sS'maxSteering'
p122
I30
sS'energy'
p123
F0.5
sS'lastScale'
p124
F5.5
sb.(i__main__
Data_mobile
p1
(dp2
S'vel_y'
p3
I0
sS'vel_x'
p4
F0.0055926182743396557
sS'pos_x'
p5
I-9579
sS'pos_y'
p6
I9779
sS'isAlive'
p7
I00
sS'cumulativeEnergy'
p8
F0.5
sS'geno'
p9
(lp10
(lp11
S'randV'
p12
aS'currentEnergy'
p13
aa(lp14
S'POINT./'
p15
aS'POINT.+'
p16
a(lp17
S'POINT.*'
p18
a(lp19
S'currentVelocity'
p20
aa(lp21
S'POINT.+'
p22
aS'cohesion'
p23
a(lp24
S'flee'
p25
aaaa(lp26
S'POINT.-'
p27
a(lp28
S'randV'
p29
a(lp30
S'separation'
p31
aS'cohesion'
p32
aa(lp33
(lp34
S'currentVelocity'
p35
aS'POINT.*'
p36
aa(lp37
S'cohesion'
p38
aS'currentEnergy'
p39
aS'POINT.*'
p40
aS'POINT./'
p41
aS'POINT.-'
p42
aa(lp43
S'target'
p44
aaS'target'
p45
aaa(lp46
(lp47
S'separation'
p48
aS'currentVelocity'
p49
aaS'POINT.+'
p50
aS'POINT./'
p51
aS'POINT.+'
p52
aa(lp53
S'POINT.-'
p54
aa(lp55
S'flee'
p56
aS'currentVelocity'
p57
aS'target'
p58
aS'separation'
p59
aaaaS'separation'
p60
a(lp61
S'currentVelocity'
p62
a(lp63
S'POINT.+'
p64
a(lp65
S'cohesion'
p66
aS'target'
p67
aaaa(lp68
(lp69
S'POINT.+'
p70
aS'POINT./'
p71
a(lp72
S'POINT.-'
p73
aS'POINT.+'
p74
a(lp75
S'cohesion'
p76
aS'separation'
p77
aS'flee'
p78
aaaaS'currentEnergy'
p79
aasS'accel_x'
p80
F0
sS'accel_y'
p81
F0
sS'visionAngle'
p82
I150
sS'maxAccel'
p83
I2
sS'maxVel'
p84
F0.5
sS'age'
p85
I0
sS'tailSize'
p86
F0.055926182743396557
sS'sexualgeno'
p87
(i__main__
Node
p88
(dp89
S'depth'
p90
I1
sS'right'
p91
(i__main__
Node
p92
(dp93
g90
I2
sg91
NsS'parent'
p94
g88
sS'float_size'
p95
S'indiv.getNumPredatorsNeigh()'
p96
sS'float_bright'
p97
g96
sS'left'
p98
Nsbsg94
Nsg95
S'-'
sg97
S'/'
sg98
(i__main__
Node
p99
(dp100
g90
I2
sg91
Nsg94
g88
sg95
S'indiv.randF()'
p101
sg97
S'indiv.distanceMatingSeason()'
p102
sg98
NsbsbsS'tailBrigh'
p103
F9.5447075274800692
sS'maxSteering'
p104
I30
sS'energy'
p105
F0.5
sS'lastScale'
p106
F5.5
sb.(i__main__
Data_mobile
p1
(dp2
S'vel_y'
p3
I0
sS'vel_x'
p4
F0.03945372701316141
sS'pos_x'
p5
I-9579
sS'pos_y'
p6
I9779
sS'isAlive'
p7
I00
sS'cumulativeEnergy'
p8
F0.5
sS'geno'
p9
(lp10
(lp11
(lp12
S'POINT./'
p13
aS'cohesion'
p14
aaS'currentEnergy'
p15
a(lp16
S'separation'
p17
aaS'alignment'
p18
a(lp19
S'alignment'
p20
aS'POINT./'
p21
aaS'POINT.*'
p22
a(lp23
S'alignment'
p24
a(lp25
S'cohesion'
p26
aa(lp27
S'alignment'
p28
aS'POINT.-'
p29
aaS'cohesion'
p30
aa(lp31
S'randV'
p32
aS'separation'
p33
a(lp34
(lp35
S'POINT.+'
p36
a(lp37
S'POINT.*'
p38
aaaS'POINT./'
p39
a(lp40
S'POINT.+'
p41
aS'target'
p42
a(lp43
S'POINT./'
p44
aS'target'
p45
aaa(lp46
S'target'
p47
a(lp48
S'POINT.+'
p49
a(lp50
S'currentVelocity'
p51
aaaS'currentVelocity'
p52
aS'alignment'
p53
aaaaa(lp54
S'POINT.+'
p55
a(lp56
S'alignment'
p57
aa(lp58
S'currentEnergy'
p59
aaS'target'
p60
aS'randV'
p61
aaS'alignment'
p62
aS'target'
p63
a(lp64
S'currentVelocity'
p65
a(lp66
S'flee'
p67
aaa(lp68
S'currentVelocity'
p69
a(lp70
(lp71
S'separation'
p72
a(lp73
(lp74
S'currentVelocity'
p75
aS'POINT.*'
p76
aaS'cohesion'
p77
aaaS'randV'
p78
a(lp79
S'randV'
p80
aaaa(lp81
S'currentVelocity'
p82
aS'alignment'
p83
aasS'accel_x'
p84
F0
sS'accel_y'
p85
F0
sS'visionAngle'
p86
I150
sS'maxAccel'
p87
I2
sS'maxVel'
p88
F0.5
sS'age'
p89
I0
sS'tailSize'
p90
F0.3945372701316141
sS'sexualgeno'
p91
(i__main__
Node
p92
(dp93
S'depth'
p94
I1
sS'right'
p95
(i__main__
Node
p96
(dp97
g94
I2
sg95
(i__main__
Node
p98
(dp99
g94
I3
sg95
NsS'parent'
p100
g96
sS'float_size'
p101
S'indiv.getTailBrightness()'
p102
sS'float_bright'
p103
S'indiv.distanceMatingSeason()'
p104
sS'left'
p105
Nsbsg100
g92
sg101
S'*'
sg103
S'/'
sg105
(i__main__
Node
p106
(dp107
g94
I3
sg95
(i__main__
Node
p108
(dp109
g94
I4
sg95
Nsg100
g106
sg101
S'indiv.randF()'
p110
sg103
g110
sg105
Nsbsg100
g96
sg101
S'+'
sg103
S'/'
sg105
(i__main__
Node
p111
(dp112
g94
I4
sg95
Nsg100
g106
sg101
S'indiv.getTailSize()'
p113
sg103
S'indiv.getEnergy()'
p114
sg105
Nsbsbsbsg100
Nsg101
S'-'
sg103
S'-'
sg105
(i__main__
Node
p115
(dp116
g94
I2
sg95
(i__main__
Node
p117
(dp118
g94
I3
sg95
Nsg100
g115
sg101
g110
sg103
g110
sg105
Nsbsg100
g92
sg101
S'+'
sg103
S'/'
sg105
(i__main__
Node
p119
(dp120
g94
I3
sg95
Nsg100
g115
sg101
g113
sg103
g114
sg105
NsbsbsbsS'tailBrigh'
p121
F7.8504564601840556
sS'maxSteering'
p122
I30
sS'energy'
p123
F0.5
sS'lastScale'
p124
F5.5
sb.(i__main__
Data_mobile
p1
(dp2
S'vel_y'
p3
I0
sS'vel_x'
p4
F0.020642759251151555
sS'pos_x'
p5
I-9579
sS'pos_y'
p6
I9779
sS'isAlive'
p7
I00
sS'cumulativeEnergy'
p8
F0.5
sS'geno'
p9
(lp10
(lp11
S'randV'
p12
aS'currentEnergy'
p13
aa(lp14
S'POINT./'
p15
aS'POINT.+'
p16
a(lp17
S'POINT.*'
p18
a(lp19
S'currentVelocity'
p20
aa(lp21
S'POINT.+'
p22
aS'cohesion'
p23
a(lp24
S'flee'
p25
aaaa(lp26
S'POINT.-'
p27
a(lp28
S'randV'
p29
a(lp30
S'separation'
p31
aS'cohesion'
p32
aa(lp33
(lp34
S'currentVelocity'
p35
aS'POINT.*'
p36
aa(lp37
S'cohesion'
p38
aS'currentEnergy'
p39
aS'POINT.*'
p40
aS'POINT./'
p41
aS'POINT.-'
p42
aa(lp43
S'target'
p44
aaS'target'
p45
aaa(lp46
(lp47
S'separation'
p48
aS'currentVelocity'
p49
aaS'POINT.+'
p50
aS'POINT./'
p51
aS'POINT.+'
p52
aa(lp53
S'POINT.-'
p54
aa(lp55
S'flee'
p56
aS'currentVelocity'
p57
aS'target'
p58
aS'separation'
p59
aaaaS'separation'
p60
a(lp61
S'currentVelocity'
p62
a(lp63
S'POINT.+'
p64
a(lp65
S'cohesion'
p66
aS'target'
p67
aaaa(lp68
(lp69
S'POINT.+'
p70
aS'POINT./'
p71
a(lp72
S'POINT.-'
p73
aS'POINT.+'
p74
a(lp75
S'cohesion'
p76
aS'separation'
p77
aS'flee'
p78
aaaaS'currentEnergy'
p79
aasS'accel_x'
p80
F0
sS'accel_y'
p81
F0
sS'visionAngle'
p82
I150
sS'maxAccel'
p83
I2
sS'maxVel'
p84
F0.5
sS'age'
p85
I0
sS'tailSize'
p86
F0.20642759251151555
sS'sexualgeno'
p87
(i__main__
Node
p88
(dp89
S'depth'
p90
I1
sS'right'
p91
(i__main__
Node
p92
(dp93
g90
I2
sg91
NsS'parent'
p94
g88
sS'float_size'
p95
S'indiv.getNumPredatorsNeigh()'
p96
sS'float_bright'
p97
g96
sS'left'
p98
Nsbsg94
Nsg95
S'-'
sg97
S'/'
sg98
(i__main__
Node
p99
(dp100
g90
I2
sg91
Nsg94
g88
sg95
S'indiv.randF()'
p101
sg97
S'indiv.distanceMatingSeason()'
p102
sg98
NsbsbsS'tailBrigh'
p103
F1.9309656505690365
sS'maxSteering'
p104
I30
sS'energy'
p105
F0.5
sS'lastScale'
p106
F5.5
sb.(i__main__
Data_mobile
p1
(dp2
S'vel_y'
p3
I0
sS'vel_x'
p4
F0.52113170062466296
sS'pos_x'
p5
I-9579
sS'pos_y'
p6
I9779
sS'isAlive'
p7
I00
sS'cumulativeEnergy'
p8
F0.5
sS'geno'
p9
(lp10
(lp11
S'randV'
p12
aS'currentEnergy'
p13
aa(lp14
S'POINT./'
p15
aS'POINT.+'
p16
a(lp17
S'POINT.*'
p18
a(lp19
S'currentVelocity'
p20
aa(lp21
S'POINT.+'
p22
aS'cohesion'
p23
a(lp24
S'flee'
p25
aaaa(lp26
S'POINT.-'
p27
a(lp28
S'randV'
p29
a(lp30
S'separation'
p31
aS'cohesion'
p32
aa(lp33
(lp34
S'currentVelocity'
p35
aS'POINT.*'
p36
aa(lp37
S'cohesion'
p38
aS'currentEnergy'
p39
aS'POINT.*'
p40
aS'POINT./'
p41
aS'POINT.-'
p42
aa(lp43
S'target'
p44
aaS'target'
p45
aaa(lp46
(lp47
S'separation'
p48
aS'currentVelocity'
p49
aaS'POINT.+'
p50
aS'POINT./'
p51
aS'POINT.+'
p52
aa(lp53
S'POINT.-'
p54
aa(lp55
S'flee'
p56
aS'currentVelocity'
p57
aS'target'
p58
aS'separation'
p59
aaaaS'separation'
p60
a(lp61
S'currentVelocity'
p62
a(lp63
S'POINT.+'
p64
a(lp65
S'cohesion'
p66
aS'target'
p67
aaaa(lp68
(lp69
S'POINT.+'
p70
aS'POINT./'
p71
a(lp72
S'POINT.-'
p73
aS'POINT.+'
p74
a(lp75
S'cohesion'
p76
aS'separation'
p77
aS'flee'
p78
aaaaS'currentEnergy'
p79
aasS'accel_x'
p80
F0
sS'accel_y'
p81
F0
sS'visionAngle'
p82
I150
sS'maxAccel'
p83
I2
sS'maxVel'
p84
F0.5
sS'age'
p85
I0
sS'tailSize'
p86
F5.2113170062466292
sS'sexualgeno'
p87
(i__main__
Node
p88
(dp89
S'depth'
p90
I1
sS'right'
p91
(i__main__
Node
p92
(dp93
g90
I2
sg91
NsS'parent'
p94
g88
sS'float_size'
p95
S'indiv.getNumPredatorsNeigh()'
p96
sS'float_bright'
p97
g96
sS'left'
p98
Nsbsg94
Nsg95
S'-'
sg97
S'/'
sg98
(i__main__
Node
p99
(dp100
g90
I2
sg91
Nsg94
g88
sg95
S'indiv.randF()'
p101
sg97
S'indiv.distanceMatingSeason()'
p102
sg98
NsbsbsS'tailBrigh'
p103
F7.1984522094770202
sS'maxSteering'
p104
I30
sS'energy'
p105
F0.5
sS'lastScale'
p106
F5.5
sb.(i__main__
Data_mobile
p1
(dp2
S'vel_y'
p3
I0
sS'vel_x'
p4
F0.88843223996408316
sS'pos_x'
p5
I-9579
sS'pos_y'
p6
I9779
sS'isAlive'
p7
I00
sS'cumulativeEnergy'
p8
F0.5
sS'geno'
p9
(lp10
(lp11
(lp12
S'POINT./'
p13
aS'cohesion'
p14
aaS'currentEnergy'
p15
a(lp16
S'separation'
p17
aaS'alignment'
p18
a(lp19
S'alignment'
p20
aS'POINT./'
p21
aaS'POINT.*'
p22
a(lp23
S'alignment'
p24
a(lp25
S'cohesion'
p26
aa(lp27
S'alignment'
p28
aS'POINT.-'
p29
aaS'cohesion'
p30
aa(lp31
S'randV'
p32
aS'separation'
p33
a(lp34
(lp35
S'POINT.+'
p36
a(lp37
S'POINT.*'
p38
aaaS'POINT./'
p39
a(lp40
S'POINT.+'
p41
aS'target'
p42
a(lp43
S'POINT./'
p44
aS'target'
p45
aaa(lp46
S'target'
p47
a(lp48
S'POINT.+'
p49
a(lp50
S'currentVelocity'
p51
aaaS'currentVelocity'
p52
aS'alignment'
p53
aaaaa(lp54
S'POINT.+'
p55
a(lp56
S'alignment'
p57
aa(lp58
S'currentEnergy'
p59
aaS'target'
p60
aS'randV'
p61
aaS'alignment'
p62
aS'target'
p63
a(lp64
S'currentVelocity'
p65
a(lp66
S'flee'
p67
aaa(lp68
S'currentVelocity'
p69
a(lp70
(lp71
S'separation'
p72
a(lp73
(lp74
S'currentVelocity'
p75
aS'POINT.*'
p76
aaS'cohesion'
p77
aaaS'randV'
p78
a(lp79
S'randV'
p80
aaaa(lp81
S'currentVelocity'
p82
aS'alignment'
p83
aasS'accel_x'
p84
F0
sS'accel_y'
p85
F0
sS'visionAngle'
p86
I150
sS'maxAccel'
p87
I2
sS'maxVel'
p88
F0.5
sS'age'
p89
I0
sS'tailSize'
p90
F8.8843223996408316
sS'sexualgeno'
p91
(i__main__
Node
p92
(dp93
S'depth'
p94
I1
sS'right'
p95
(i__main__
Node
p96
(dp97
g94
I2
sg95
(i__main__
Node
p98
(dp99
g94
I3
sg95
NsS'parent'
p100
g96
sS'float_size'
p101
S'indiv.getTailBrightness()'
p102
sS'float_bright'
p103
S'indiv.randF()'
p104
sS'left'
p105
Nsbsg100
g92
sg101
S'-'
sg103
S'+'
sg105
(i__main__
Node
p106
(dp107
g94
I3
sg95
Nsg100
g96
sg101
S'indiv.getNumPredatorsNeigh()'
p108
sg103
g108
sg105
Nsbsbsg100
Nsg101
S'-'
sg103
S'-'
sg105
(i__main__
Node
p109
(dp110
g94
I2
sg95
(i__main__
Node
p111
(dp112
g94
I3
sg95
Nsg100
g109
sg101
g102
sg103
S'indiv.distanceMatingSeason()'
p113
sg105
Nsbsg100
g92
sg101
S'*'
sg103
S'/'
sg105
(i__main__
Node
p114
(dp115
g94
I3
sg95
(i__main__
Node
p116
(dp117
g94
I4
sg95
Nsg100
g114
sg101
g102
sg103
g113
sg105
Nsbsg100
g109
sg101
S'*'
sg103
S'/'
sg105
(i__main__
Node
p118
(dp119
g94
I4
sg95
(i__main__
Node
p120
(dp121
g94
I5
sg95
Nsg100
g118
sg101
g104
sg103
g104
sg105
Nsbsg100
g114
sg101
S'+'
sg103
S'/'
sg105
(i__main__
Node
p122
(dp123
g94
I5
sg95
Nsg100
g118
sg101
S'indiv.getTailSize()'
p124
sg103
S'indiv.getEnergy()'
p125
sg105
NsbsbsbsbsbsS'tailBrigh'
p126
F4.4922978411943397
sS'maxSteering'
p127
I30
sS'energy'
p128
F0.5
sS'lastScale'
p129
F5.5
sb.(i__main__
Data_mobile
p1
(dp2
S'vel_y'
p3
I0
sS'vel_x'
p4
F0.38491464074990855
sS'pos_x'
p5
I-9579
sS'pos_y'
p6
I9779
sS'isAlive'
p7
I00
sS'cumulativeEnergy'
p8
F0.5
sS'geno'
p9
(lp10
(lp11
(lp12
S'POINT./'
p13
aS'cohesion'
p14
aaS'currentEnergy'
p15
a(lp16
S'separation'
p17
aaS'alignment'
p18
a(lp19
S'alignment'
p20
aS'POINT./'
p21
aaS'POINT.*'
p22
a(lp23
S'alignment'
p24
a(lp25
S'cohesion'
p26
aa(lp27
S'alignment'
p28
aS'POINT.-'
p29
aaS'cohesion'
p30
aa(lp31
S'randV'
p32
aS'separation'
p33
a(lp34
(lp35
S'POINT.+'
p36
a(lp37
S'POINT.*'
p38
aaaS'POINT./'
p39
a(lp40
S'POINT.+'
p41
aS'target'
p42
a(lp43
S'POINT./'
p44
aS'target'
p45
aaa(lp46
S'target'
p47
a(lp48
S'POINT.+'
p49
a(lp50
S'currentVelocity'
p51
aaaS'currentVelocity'
p52
aS'alignment'
p53
aaaaa(lp54
S'POINT.+'
p55
a(lp56
S'alignment'
p57
aa(lp58
S'currentEnergy'
p59
aaS'target'
p60
aS'randV'
p61
aaS'alignment'
p62
aS'target'
p63
a(lp64
S'currentVelocity'
p65
a(lp66
S'flee'
p67
aaa(lp68
S'currentVelocity'
p69
a(lp70
(lp71
S'separation'
p72
a(lp73
(lp74
S'currentVelocity'
p75
aS'POINT.*'
p76
aaS'cohesion'
p77
aaaS'randV'
p78
a(lp79
S'randV'
p80
aaaa(lp81
S'currentVelocity'
p82
aS'alignment'
p83
aasS'accel_x'
p84
F0
sS'accel_y'
p85
F0
sS'visionAngle'
p86
I150
sS'maxAccel'
p87
I2
sS'maxVel'
p88
F0.5
sS'age'
p89
I0
sS'tailSize'
p90
F3.8491464074990853
sS'sexualgeno'
p91
(i__main__
Node
p92
(dp93
S'depth'
p94
I1
sS'right'
p95
(i__main__
Node
p96
(dp97
g94
I2
sg95
(i__main__
Node
p98
(dp99
g94
I3
sg95
NsS'parent'
p100
g96
sS'float_size'
p101
S'indiv.getTailBrightness()'
p102
sS'float_bright'
p103
S'indiv.distanceMatingSeason()'
p104
sS'left'
p105
Nsbsg100
g92
sg101
S'*'
sg103
S'/'
sg105
(i__main__
Node
p106
(dp107
g94
I3
sg95
(i__main__
Node
p108
(dp109
g94
I4
sg95
Nsg100
g106
sg101
S'indiv.randF()'
p110
sg103
g110
sg105
Nsbsg100
g96
sg101
S'+'
sg103
S'/'
sg105
(i__main__
Node
p111
(dp112
g94
I4
sg95
Nsg100
g106
sg101
S'indiv.getTailSize()'
p113
sg103
S'indiv.getEnergy()'
p114
sg105
Nsbsbsbsg100
Nsg101
S'-'
sg103
S'-'
sg105
(i__main__
Node
p115
(dp116
g94
I2
sg95
(i__main__
Node
p117
(dp118
g94
I3
sg95
Nsg100
g115
sg101
S'indiv.getNumPredatorsNeigh()'
p119
sg103
g114
sg105
Nsbsg100
g92
sg101
S'+'
sg103
S'*'
sg105
(i__main__
Node
p120
(dp121
g94
I3
sg95
Nsg100
g115
sg101
g110
sg103
g104
sg105
NsbsbsbsS'tailBrigh'
p122
F0.64803954779488415
sS'maxSteering'
p123
I30
sS'energy'
p124
F0.5
sS'lastScale'
p125
F5.5
sb.(i__main__
Data_mobile
p1
(dp2
S'vel_y'
p3
I0
sS'vel_x'
p4
F0.30950921465509429
sS'pos_x'
p5
I-9579
sS'pos_y'
p6
I9779
sS'isAlive'
p7
I00
sS'cumulativeEnergy'
p8
F0.5
sS'geno'
p9
(lp10
(lp11
(lp12
S'POINT./'
p13
aS'cohesion'
p14
aaS'currentEnergy'
p15
a(lp16
S'separation'
p17
aaS'alignment'
p18
a(lp19
S'alignment'
p20
aS'POINT./'
p21
aaS'POINT.*'
p22
a(lp23
S'alignment'
p24
a(lp25
S'cohesion'
p26
aa(lp27
S'alignment'
p28
aS'POINT.-'
p29
aaS'cohesion'
p30
aa(lp31
S'randV'
p32
aS'separation'
p33
a(lp34
(lp35
S'POINT.+'
p36
a(lp37
S'POINT.*'
p38
aaaS'POINT./'
p39
a(lp40
S'POINT.+'
p41
aS'target'
p42
a(lp43
S'POINT./'
p44
aS'target'
p45
aaa(lp46
S'target'
p47
a(lp48
S'POINT.+'
p49
a(lp50
S'currentVelocity'
p51
aaaS'currentVelocity'
p52
aS'alignment'
p53
aaaaa(lp54
S'POINT.+'
p55
a(lp56
S'alignment'
p57
aa(lp58
S'currentEnergy'
p59
aaS'target'
p60
aS'randV'
p61
aaS'alignment'
p62
aS'target'
p63
a(lp64
S'currentVelocity'
p65
a(lp66
S'flee'
p67
aaa(lp68
S'currentVelocity'
p69
a(lp70
(lp71
S'separation'
p72
a(lp73
(lp74
S'currentVelocity'
p75
aS'POINT.*'
p76
aaS'cohesion'
p77
aaaS'randV'
p78
a(lp79
S'randV'
p80
aaaa(lp81
S'currentVelocity'
p82
aS'alignment'
p83
aasS'accel_x'
p84
F0
sS'accel_y'
p85
F0
sS'visionAngle'
p86
I150
sS'maxAccel'
p87
I2
sS'maxVel'
p88
F0.5
sS'age'
p89
I0
sS'tailSize'
p90
F3.0950921465509431
sS'sexualgeno'
p91
(i__main__
Node
p92
(dp93
S'depth'
p94
I1
sS'right'
p95
(i__main__
Node
p96
(dp97
g94
I2
sg95
(i__main__
Node
p98
(dp99
g94
I3
sg95
NsS'parent'
p100
g96
sS'float_size'
p101
S'indiv.randF()'
p102
sS'float_bright'
p103
g102
sS'left'
p104
Nsbsg100
g92
sg101
S'+'
sg103
S'/'
sg104
(i__main__
Node
p105
(dp106
g94
I3
sg95
Nsg100
g96
sg101
S'indiv.getTailSize()'
p107
sg103
S'indiv.getEnergy()'
p108
sg104
Nsbsbsg100
Nsg101
S'-'
sg103
S'-'
sg104
(i__main__
Node
p109
(dp110
g94
I2
sg95
(i__main__
Node
p111
(dp112
g94
I3
sg95
Nsg100
g109
sg101
g102
sg103
g102
sg104
Nsbsg100
g92
sg101
S'+'
sg103
S'/'
sg104
(i__main__
Node
p113
(dp114
g94
I3
sg95
Nsg100
g109
sg101
g107
sg103
g108
sg104
NsbsbsbsS'tailBrigh'
p115
F2.4183054306908556
sS'maxSteering'
p116
I30
sS'energy'
p117
F0.5
sS'lastScale'
p118
F5.5
sb.(i__main__
Data_mobile
p1
(dp2
S'vel_y'
p3
I0
sS'vel_x'
p4
F0.62114082073320442
sS'pos_x'
p5
I-9579
sS'pos_y'
p6
I9779
sS'isAlive'
p7
I00
sS'cumulativeEnergy'
p8
F0.5
sS'geno'
p9
(lp10
(lp11
(lp12
S'POINT./'
p13
aS'cohesion'
p14
aaS'currentEnergy'
p15
a(lp16
S'separation'
p17
aaS'alignment'
p18
a(lp19
S'alignment'
p20
aS'POINT./'
p21
aaS'POINT.*'
p22
a(lp23
S'alignment'
p24
a(lp25
S'cohesion'
p26
aa(lp27
S'alignment'
p28
aS'POINT.-'
p29
aaS'cohesion'
p30
aa(lp31
S'randV'
p32
aS'separation'
p33
a(lp34
(lp35
S'POINT.+'
p36
a(lp37
S'POINT.*'
p38
aaaS'POINT./'
p39
a(lp40
S'POINT.+'
p41
aS'target'
p42
a(lp43
S'POINT./'
p44
aS'target'
p45
aaa(lp46
S'target'
p47
a(lp48
S'POINT.+'
p49
a(lp50
S'currentVelocity'
p51
aaaS'currentVelocity'
p52
aS'alignment'
p53
aaaaa(lp54
S'POINT.+'
p55
a(lp56
S'alignment'
p57
aa(lp58
S'currentEnergy'
p59
aaS'target'
p60
aS'randV'
p61
aaS'alignment'
p62
aS'target'
p63
a(lp64
S'currentVelocity'
p65
a(lp66
S'flee'
p67
aaa(lp68
S'currentVelocity'
p69
a(lp70
(lp71
S'separation'
p72
a(lp73
(lp74
S'currentVelocity'
p75
aS'POINT.*'
p76
aaS'cohesion'
p77
aaaS'randV'
p78
a(lp79
S'randV'
p80
aaaa(lp81
S'currentVelocity'
p82
aS'alignment'
p83
aasS'accel_x'
p84
F0
sS'accel_y'
p85
F0
sS'visionAngle'
p86
I150
sS'maxAccel'
p87
I2
sS'maxVel'
p88
F0.5
sS'age'
p89
I0
sS'tailSize'
p90
F6.2114082073320445
sS'sexualgeno'
p91
(i__main__
Node
p92
(dp93
S'depth'
p94
I1
sS'right'
p95
(i__main__
Node
p96
(dp97
g94
I2
sg95
(i__main__
Node
p98
(dp99
g94
I3
sg95
NsS'parent'
p100
g96
sS'float_size'
p101
S'indiv.getTailBrightness()'
p102
sS'float_bright'
p103
S'indiv.distanceMatingSeason()'
p104
sS'left'
p105
Nsbsg100
g92
sg101
S'*'
sg103
S'/'
sg105
(i__main__
Node
p106
(dp107
g94
I3
sg95
(i__main__
Node
p108
(dp109
g94
I4
sg95
Nsg100
g106
sg101
S'indiv.randF()'
p110
sg103
g110
sg105
Nsbsg100
g96
sg101
S'+'
sg103
S'/'
sg105
(i__main__
Node
p111
(dp112
g94
I4
sg95
Nsg100
g106
sg101
S'indiv.getTailSize()'
p113
sg103
S'indiv.getEnergy()'
p114
sg105
Nsbsbsbsg100
Nsg101
S'-'
sg103
S'-'
sg105
(i__main__
Node
p115
(dp116
g94
I2
sg95
(i__main__
Node
p117
(dp118
g94
I3
sg95
Nsg100
g115
sg101
g110
sg103
g110
sg105
Nsbsg100
g92
sg101
S'+'
sg103
S'/'
sg105
(i__main__
Node
p119
(dp120
g94
I3
sg95
Nsg100
g115
sg101
g113
sg103
g114
sg105
NsbsbsbsS'tailBrigh'
p121
F2.3752426851006678
sS'maxSteering'
p122
I30
sS'energy'
p123
F0.5
sS'lastScale'
p124
F5.5
sb.(i__main__
Data_mobile
p1
(dp2
S'vel_y'
p3
I0
sS'vel_x'
p4
F0.58113282443358039
sS'pos_x'
p5
I-9579
sS'pos_y'
p6
I9779
sS'isAlive'
p7
I00
sS'cumulativeEnergy'
p8
F0.5
sS'geno'
p9
(lp10
(lp11
(lp12
S'POINT./'
p13
aS'cohesion'
p14
aaS'currentEnergy'
p15
a(lp16
S'separation'
p17
aaS'alignment'
p18
a(lp19
S'alignment'
p20
aS'POINT./'
p21
aaS'POINT.*'
p22
a(lp23
S'alignment'
p24
a(lp25
S'cohesion'
p26
aa(lp27
S'alignment'
p28
aS'POINT.-'
p29
aaS'cohesion'
p30
aa(lp31
S'randV'
p32
aS'separation'
p33
a(lp34
(lp35
S'POINT.+'
p36
a(lp37
S'POINT.*'
p38
aaaS'POINT./'
p39
a(lp40
S'POINT.+'
p41
aS'target'
p42
a(lp43
S'POINT./'
p44
aS'target'
p45
aaa(lp46
S'target'
p47
a(lp48
S'POINT.+'
p49
a(lp50
S'currentVelocity'
p51
aaaS'currentVelocity'
p52
aS'alignment'
p53
aaaaa(lp54
S'POINT.+'
p55
a(lp56
S'alignment'
p57
aa(lp58
S'currentEnergy'
p59
aaS'target'
p60
aS'randV'
p61
aaS'alignment'
p62
aS'target'
p63
a(lp64
S'currentVelocity'
p65
a(lp66
S'flee'
p67
aaa(lp68
S'currentVelocity'
p69
a(lp70
(lp71
S'separation'
p72
a(lp73
(lp74
S'currentVelocity'
p75
aS'POINT.*'
p76
aaS'cohesion'
p77
aaaS'randV'
p78
a(lp79
S'randV'
p80
aaaa(lp81
S'currentVelocity'
p82
aS'alignment'
p83
aasS'accel_x'
p84
F0
sS'accel_y'
p85
F0
sS'visionAngle'
p86
I150
sS'maxAccel'
p87
I2
sS'maxVel'
p88
F0.5
sS'age'
p89
I0
sS'tailSize'
p90
F5.8113282443358036
sS'sexualgeno'
p91
(i__main__
Node
p92
(dp93
S'depth'
p94
I1
sS'right'
p95
(i__main__
Node
p96
(dp97
g94
I2
sg95
(i__main__
Node
p98
(dp99
g94
I3
sg95
NsS'parent'
p100
g96
sS'float_size'
p101
S'indiv.getTailBrightness()'
p102
sS'float_bright'
p103
S'indiv.distanceMatingSeason()'
p104
sS'left'
p105
Nsbsg100
g92
sg101
S'*'
sg103
S'/'
sg105
(i__main__
Node
p106
(dp107
g94
I3
sg95
(i__main__
Node
p108
(dp109
g94
I4
sg95
Nsg100
g106
sg101
S'indiv.randF()'
p110
sg103
g110
sg105
Nsbsg100
g96
sg101
S'+'
sg103
S'/'
sg105
(i__main__
Node
p111
(dp112
g94
I4
sg95
Nsg100
g106
sg101
S'indiv.getTailSize()'
p113
sg103
S'indiv.getEnergy()'
p114
sg105
Nsbsbsbsg100
Nsg101
S'-'
sg103
S'-'
sg105
(i__main__
Node
p115
(dp116
g94
I2
sg95
(i__main__
Node
p117
(dp118
g94
I3
sg95
Nsg100
g115
sg101
S'indiv.getNumPredatorsNeigh()'
p119
sg103
g114
sg105
Nsbsg100
g92
sg101
S'+'
sg103
S'*'
sg105
(i__main__
Node
p120
(dp121
g94
I3
sg95
Nsg100
g115
sg101
g110
sg103
g104
sg105
NsbsbsbsS'tailBrigh'
p122
F2.4066032452894568
sS'maxSteering'
p123
I30
sS'energy'
p124
F0.5
sS'lastScale'
p125
F5.5
sb.(i__main__
Data_mobile
p1
(dp2
S'vel_y'
p3
I0
sS'vel_x'
p4
F0.5532429086173456
sS'pos_x'
p5
I-9579
sS'pos_y'
p6
I9779
sS'isAlive'
p7
I00
sS'cumulativeEnergy'
p8
F0.5
sS'geno'
p9
(lp10
(lp11
(lp12
S'POINT./'
p13
aS'cohesion'
p14
aaS'currentEnergy'
p15
a(lp16
S'separation'
p17
aaS'alignment'
p18
a(lp19
S'alignment'
p20
aS'POINT./'
p21
aaS'POINT.*'
p22
a(lp23
S'alignment'
p24
a(lp25
S'cohesion'
p26
aa(lp27
S'alignment'
p28
aS'POINT.-'
p29
aaS'cohesion'
p30
aa(lp31
S'randV'
p32
aS'separation'
p33
a(lp34
(lp35
S'POINT.+'
p36
a(lp37
S'POINT.*'
p38
aaaS'POINT./'
p39
a(lp40
S'POINT.+'
p41
aS'target'
p42
a(lp43
S'POINT./'
p44
aS'target'
p45
aaa(lp46
S'target'
p47
a(lp48
S'POINT.+'
p49
a(lp50
S'currentVelocity'
p51
aaaS'currentVelocity'
p52
aS'alignment'
p53
aaaaa(lp54
S'POINT.+'
p55
a(lp56
S'alignment'
p57
aa(lp58
S'currentEnergy'
p59
aaS'target'
p60
aS'randV'
p61
aaS'alignment'
p62
aS'target'
p63
a(lp64
S'currentVelocity'
p65
a(lp66
S'flee'
p67
aaa(lp68
S'currentVelocity'
p69
a(lp70
(lp71
S'separation'
p72
a(lp73
(lp74
S'currentVelocity'
p75
aS'POINT.*'
p76
aaS'cohesion'
p77
aaaS'randV'
p78
a(lp79
S'randV'
p80
aaaa(lp81
S'currentVelocity'
p82
aS'alignment'
p83
aasS'accel_x'
p84
F0
sS'accel_y'
p85
F0
sS'visionAngle'
p86
I150
sS'maxAccel'
p87
I2
sS'maxVel'
p88
F0.5
sS'age'
p89
I0
sS'tailSize'
p90
F5.5324290861734564
sS'sexualgeno'
p91
(i__main__
Node
p92
(dp93
S'depth'
p94
I1
sS'right'
p95
(i__main__
Node
p96
(dp97
g94
I2
sg95
(i__main__
Node
p98
(dp99
g94
I3
sg95
NsS'parent'
p100
g96
sS'float_size'
p101
S'indiv.getTailBrightness()'
p102
sS'float_bright'
p103
S'indiv.randF()'
p104
sS'left'
p105
Nsbsg100
g92
sg101
S'-'
sg103
S'+'
sg105
(i__main__
Node
p106
(dp107
g94
I3
sg95
Nsg100
g96
sg101
S'indiv.getNumPredatorsNeigh()'
p108
sg103
g108
sg105
Nsbsbsg100
Nsg101
S'-'
sg103
S'-'
sg105
(i__main__
Node
p109
(dp110
g95
(i__main__
Node
p111
(dp112
g95
Nsg100
g109
sg94
I3
sg101
g108
sg103
S'indiv.getTailSize()'
p113
sg105
Nsbsg100
g92
sg94
I2
sg101
S'/'
sg103
S'+'
sg105
(i__main__
Node
p114
(dp115
g95
Nsg100
g109
sg94
I3
sg101
S'indiv.distanceMatingSeason()'
p116
sg103
g116
sg105
NsbsbsbsS'tailBrigh'
p117
F4.920275480756354
sS'maxSteering'
p118
I30
sS'energy'
p119
F0.5
sS'lastScale'
p120
F5.5
sb.(i__main__
Data_mobile
p1
(dp2
S'vel_y'
p3
I0
sS'vel_x'
p4
F0.89803259719667972
sS'pos_x'
p5
I-9579
sS'pos_y'
p6
I9779
sS'isAlive'
p7
I00
sS'cumulativeEnergy'
p8
F0.5
sS'geno'
p9
(lp10
(lp11
(lp12
S'POINT./'
p13
aS'cohesion'
p14
aaS'currentEnergy'
p15
a(lp16
S'separation'
p17
aaS'alignment'
p18
a(lp19
S'alignment'
p20
aS'POINT./'
p21
aaS'POINT.*'
p22
a(lp23
S'alignment'
p24
a(lp25
S'cohesion'
p26
aa(lp27
S'alignment'
p28
aS'POINT.-'
p29
aaS'cohesion'
p30
aa(lp31
S'randV'
p32
aS'separation'
p33
a(lp34
(lp35
S'POINT.+'
p36
a(lp37
S'POINT.*'
p38
aaaS'POINT./'
p39
a(lp40
S'POINT.+'
p41
aS'target'
p42
a(lp43
S'POINT./'
p44
aS'target'
p45
aaa(lp46
S'target'
p47
a(lp48
S'POINT.+'
p49
a(lp50
S'currentVelocity'
p51
aaaS'currentVelocity'
p52
aS'alignment'
p53
aaaaa(lp54
S'POINT.+'
p55
a(lp56
S'alignment'
p57
aa(lp58
S'currentEnergy'
p59
aaS'target'
p60
aS'randV'
p61
aaS'alignment'
p62
aS'target'
p63
a(lp64
S'currentVelocity'
p65
a(lp66
S'flee'
p67
aaa(lp68
S'currentVelocity'
p69
a(lp70
(lp71
S'separation'
p72
a(lp73
(lp74
S'currentVelocity'
p75
aS'POINT.*'
p76
aaS'cohesion'
p77
aaaS'randV'
p78
a(lp79
S'randV'
p80
aaaa(lp81
S'currentVelocity'
p82
aS'alignment'
p83
aasS'accel_x'
p84
F0
sS'accel_y'
p85
F0
sS'visionAngle'
p86
I150
sS'maxAccel'
p87
I2
sS'maxVel'
p88
F0.5
sS'age'
p89
I0
sS'tailSize'
p90
F8.9803259719667974
sS'sexualgeno'
p91
(i__main__
Node
p92
(dp93
S'depth'
p94
I1
sS'right'
p95
(i__main__
Node
p96
(dp97
g94
I2
sg95
(i__main__
Node
p98
(dp99
g94
I3
sg95
NsS'parent'
p100
g96
sS'float_size'
p101
S'indiv.getTailBrightness()'
p102
sS'float_bright'
p103
S'indiv.distanceMatingSeason()'
p104
sS'left'
p105
Nsbsg100
g92
sg101
S'*'
sg103
S'/'
sg105
(i__main__
Node
p106
(dp107
g94
I3
sg95
(i__main__
Node
p108
(dp109
g94
I4
sg95
Nsg100
g106
sg101
S'indiv.randF()'
p110
sg103
g110
sg105
Nsbsg100
g96
sg101
S'+'
sg103
S'/'
sg105
(i__main__
Node
p111
(dp112
g94
I4
sg95
Nsg100
g106
sg101
S'indiv.getTailSize()'
p113
sg103
S'indiv.getEnergy()'
p114
sg105
Nsbsbsbsg100
Nsg101
S'-'
sg103
S'-'
sg105
(i__main__
Node
p115
(dp116
g94
I2
sg95
(i__main__
Node
p117
(dp118
g94
I3
sg95
Nsg100
g115
sg101
S'indiv.getNumPredatorsNeigh()'
p119
sg103
g114
sg105
Nsbsg100
g92
sg101
S'+'
sg103
S'*'
sg105
(i__main__
Node
p120
(dp121
g94
I3
sg95
Nsg100
g115
sg101
g110
sg103
g104
sg105
NsbsbsbsS'tailBrigh'
p122
F7.4832936067182931
sS'maxSteering'
p123
I30
sS'energy'
p124
F0.5
sS'lastScale'
p125
F5.5
sb.(i__main__
Data_mobile
p1
(dp2
S'vel_y'
p3
I0
sS'vel_x'
p4
F0.47083326365070521
sS'pos_x'
p5
I-9579
sS'pos_y'
p6
I9779
sS'isAlive'
p7
I00
sS'cumulativeEnergy'
p8
F0.5
sS'geno'
p9
(lp10
S'flee'
p11
a(lp12
(lp13
S'POINT./'
p14
aaS'cohesion'
p15
aS'separation'
p16
aa(lp17
S'target'
p18
aasS'accel_x'
p19
F0
sS'accel_y'
p20
F0
sS'visionAngle'
p21
I150
sS'maxAccel'
p22
I2
sS'maxVel'
p23
F0.5
sS'age'
p24
I0
sS'tailSize'
p25
F4.7083326365070519
sS'sexualgeno'
p26
(i__main__
Node
p27
(dp28
S'depth'
p29
I1
sS'right'
p30
(i__main__
Node
p31
(dp32
g29
I2
sg30
(i__main__
Node
p33
(dp34
g29
I3
sg30
NsS'parent'
p35
g31
sS'float_size'
p36
S'indiv.getTailBrightness()'
p37
sS'float_bright'
p38
S'indiv.randF()'
p39
sS'left'
p40
Nsbsg35
g27
sg36
S'-'
sg38
S'+'
sg40
(i__main__
Node
p41
(dp42
g29
I3
sg30
Nsg35
g31
sg36
S'indiv.getNumPredatorsNeigh()'
p43
sg38
g43
sg40
Nsbsbsg35
Nsg36
S'*'
sg38
S'/'
sg40
(i__main__
Node
p44
(dp45
g29
I2
sg30
(i__main__
Node
p46
(dp47
g29
I3
sg30
Nsg35
g44
sg36
g43
sg38
S'indiv.getEnergy()'
p48
sg40
Nsbsg35
g27
sg36
S'+'
sg38
S'*'
sg40
(i__main__
Node
p49
(dp50
g29
I3
sg30
Nsg35
g44
sg36
g39
sg38
S'indiv.distanceMatingSeason()'
p51
sg40
NsbsbsbsS'tailBrigh'
p52
F0.58159532689134652
sS'maxSteering'
p53
I30
sS'energy'
p54
F0.5
sS'lastScale'
p55
F5.5
sb.(i__main__
Data_mobile
p1
(dp2
S'vel_y'
p3
I0
sS'vel_x'
p4
F0.73508778509017048
sS'pos_x'
p5
I-9579
sS'pos_y'
p6
I9779
sS'isAlive'
p7
I00
sS'cumulativeEnergy'
p8
F0.5
sS'geno'
p9
(lp10
(lp11
S'randV'
p12
aS'currentEnergy'
p13
aa(lp14
S'POINT./'
p15
aS'POINT.+'
p16
a(lp17
S'POINT.*'
p18
a(lp19
S'currentVelocity'
p20
aa(lp21
S'POINT.+'
p22
aS'cohesion'
p23
a(lp24
S'flee'
p25
aaaa(lp26
S'POINT.-'
p27
a(lp28
S'randV'
p29
a(lp30
S'separation'
p31
aS'cohesion'
p32
aa(lp33
(lp34
S'currentVelocity'
p35
aS'POINT.*'
p36
aa(lp37
S'cohesion'
p38
aS'currentEnergy'
p39
aS'POINT.*'
p40
aS'POINT./'
p41
aS'POINT.-'
p42
aa(lp43
S'target'
p44
aaS'target'
p45
aaa(lp46
(lp47
S'separation'
p48
aS'currentVelocity'
p49
aaS'POINT.+'
p50
aS'POINT./'
p51
aS'POINT.+'
p52
aa(lp53
S'POINT.-'
p54
aa(lp55
S'flee'
p56
aS'currentVelocity'
p57
aS'target'
p58
aS'separation'
p59
aaaaS'separation'
p60
a(lp61
S'currentVelocity'
p62
a(lp63
S'POINT.+'
p64
a(lp65
S'cohesion'
p66
aS'target'
p67
aaaa(lp68
(lp69
S'POINT.+'
p70
aS'POINT./'
p71
a(lp72
S'POINT.-'
p73
aS'POINT.+'
p74
a(lp75
S'cohesion'
p76
aS'separation'
p77
aS'flee'
p78
aaaaS'currentEnergy'
p79
aasS'accel_x'
p80
F0
sS'accel_y'
p81
F0
sS'visionAngle'
p82
I150
sS'maxAccel'
p83
I2
sS'maxVel'
p84
F0.5
sS'age'
p85
I0
sS'tailSize'
p86
F7.3508778509017052
sS'sexualgeno'
p87
(i__main__
Node
p88
(dp89
S'depth'
p90
I1
sS'right'
p91
(i__main__
Node
p92
(dp93
g90
I2
sg91
NsS'parent'
p94
g88
sS'float_size'
p95
S'indiv.getNumPredatorsNeigh()'
p96
sS'float_bright'
p97
g96
sS'left'
p98
Nsbsg94
Nsg95
S'-'
sg97
S'/'
sg98
(i__main__
Node
p99
(dp100
g90
I2
sg91
Nsg94
g88
sg95
S'indiv.randF()'
p101
sg97
S'indiv.distanceMatingSeason()'
p102
sg98
NsbsbsS'tailBrigh'
p103
F3.7144572116487442
sS'maxSteering'
p104
I30
sS'energy'
p105
F0.5
sS'lastScale'
p106
F5.5
sb.(i__main__
Data_mobile
p1
(dp2
S'vel_y'
p3
I0
sS'vel_x'
p4
F0.22761845514560197
sS'pos_x'
p5
I-9579
sS'pos_y'
p6
I9779
sS'isAlive'
p7
I00
sS'cumulativeEnergy'
p8
F0.5
sS'geno'
p9
(lp10
(lp11
(lp12
S'POINT./'
p13
aS'cohesion'
p14
aaS'currentEnergy'
p15
a(lp16
S'separation'
p17
aaS'alignment'
p18
a(lp19
S'alignment'
p20
aS'POINT./'
p21
aaS'POINT.*'
p22
a(lp23
S'alignment'
p24
a(lp25
S'cohesion'
p26
aa(lp27
S'alignment'
p28
aS'POINT.-'
p29
aaS'cohesion'
p30
aa(lp31
S'randV'
p32
aS'separation'
p33
a(lp34
(lp35
S'POINT.+'
p36
a(lp37
S'POINT.*'
p38
aaaS'POINT./'
p39
a(lp40
S'POINT.+'
p41
aS'target'
p42
a(lp43
S'POINT./'
p44
aS'target'
p45
aaa(lp46
S'target'
p47
a(lp48
S'POINT.+'
p49
a(lp50
S'currentVelocity'
p51
aaaS'currentVelocity'
p52
aS'alignment'
p53
aaaaa(lp54
S'POINT.+'
p55
a(lp56
S'alignment'
p57
aa(lp58
S'currentEnergy'
p59
aaS'target'
p60
aS'randV'
p61
aaS'alignment'
p62
aS'target'
p63
a(lp64
S'currentVelocity'
p65
a(lp66
S'flee'
p67
aaa(lp68
S'currentVelocity'
p69
a(lp70
(lp71
S'separation'
p72
a(lp73
(lp74
S'currentVelocity'
p75
aS'POINT.*'
p76
aaS'cohesion'
p77
aaaS'randV'
p78
a(lp79
S'randV'
p80
aaaa(lp81
S'currentVelocity'
p82
aS'alignment'
p83
aasS'accel_x'
p84
F0
sS'accel_y'
p85
F0
sS'visionAngle'
p86
I150
sS'maxAccel'
p87
I2
sS'maxVel'
p88
F0.5
sS'age'
p89
I0
sS'tailSize'
p90
F2.2761845514560197
sS'sexualgeno'
p91
(i__main__
Node
p92
(dp93
S'depth'
p94
I1
sS'right'
p95
(i__main__
Node
p96
(dp97
g94
I2
sg95
(i__main__
Node
p98
(dp99
g94
I3
sg95
NsS'parent'
p100
g96
sS'float_size'
p101
S'indiv.getTailBrightness()'
p102
sS'float_bright'
p103
S'indiv.distanceMatingSeason()'
p104
sS'left'
p105
Nsbsg100
g92
sg101
S'*'
sg103
S'/'
sg105
(i__main__
Node
p106
(dp107
g94
I3
sg95
(i__main__
Node
p108
(dp109
g94
I4
sg95
Nsg100
g106
sg101
S'indiv.randF()'
p110
sg103
g110
sg105
Nsbsg100
g96
sg101
S'+'
sg103
S'/'
sg105
(i__main__
Node
p111
(dp112
g94
I4
sg95
Nsg100
g106
sg101
S'indiv.getTailSize()'
p113
sg103
S'indiv.getEnergy()'
p114
sg105
Nsbsbsbsg100
Nsg101
S'-'
sg103
S'-'
sg105
(i__main__
Node
p115
(dp116
g94
I2
sg95
(i__main__
Node
p117
(dp118
g94
I3
sg95
Nsg100
g115
sg101
S'indiv.getNumPredatorsNeigh()'
p119
sg103
g114
sg105
Nsbsg100
g92
sg101
S'+'
sg103
S'*'
sg105
(i__main__
Node
p120
(dp121
g94
I3
sg95
Nsg100
g115
sg101
g110
sg103
g104
sg105
NsbsbsbsS'tailBrigh'
p122
F5.6583398023133133
sS'maxSteering'
p123
I30
sS'energy'
p124
F0.5
sS'lastScale'
p125
F5.5
sb.(i__main__
Data_mobile
p1
(dp2
S'vel_y'
p3
I0
sS'vel_x'
p4
F0.29086655781386239
sS'pos_x'
p5
I-9579
sS'pos_y'
p6
I9779
sS'isAlive'
p7
I00
sS'cumulativeEnergy'
p8
F0.5
sS'geno'
p9
(lp10
(lp11
(lp12
S'POINT./'
p13
aS'cohesion'
p14
aaS'currentEnergy'
p15
a(lp16
S'separation'
p17
aaS'alignment'
p18
a(lp19
S'alignment'
p20
aS'POINT./'
p21
aaS'POINT.*'
p22
a(lp23
S'alignment'
p24
a(lp25
S'cohesion'
p26
aa(lp27
S'alignment'
p28
aS'POINT.-'
p29
aaS'cohesion'
p30
aa(lp31
S'randV'
p32
aS'separation'
p33
a(lp34
(lp35
S'POINT.+'
p36
a(lp37
S'POINT.*'
p38
aaaS'POINT./'
p39
a(lp40
S'POINT.+'
p41
aS'target'
p42
a(lp43
S'POINT./'
p44
aS'target'
p45
aaa(lp46
S'target'
p47
a(lp48
S'POINT.+'
p49
a(lp50
S'currentVelocity'
p51
aaaS'currentVelocity'
p52
aS'alignment'
p53
aaaaa(lp54
S'POINT.+'
p55
a(lp56
S'alignment'
p57
aa(lp58
S'currentEnergy'
p59
aaS'target'
p60
aS'randV'
p61
aaS'alignment'
p62
aS'target'
p63
a(lp64
S'currentVelocity'
p65
a(lp66
S'flee'
p67
aaa(lp68
S'currentVelocity'
p69
a(lp70
(lp71
S'separation'
p72
a(lp73
(lp74
S'currentVelocity'
p75
aS'POINT.*'
p76
aaS'cohesion'
p77
aaaS'randV'
p78
a(lp79
S'randV'
p80
aaaa(lp81
S'currentVelocity'
p82
aS'alignment'
p83
aasS'accel_x'
p84
F0
sS'accel_y'
p85
F0
sS'visionAngle'
p86
I150
sS'maxAccel'
p87
I2
sS'maxVel'
p88
F0.5
sS'age'
p89
I0
sS'tailSize'
p90
F2.9086655781386241
sS'sexualgeno'
p91
(i__main__
Node
p92
(dp93
S'depth'
p94
I1
sS'right'
p95
(i__main__
Node
p96
(dp97
g94
I2
sg95
(i__main__
Node
p98
(dp99
g94
I3
sg95
NsS'parent'
p100
g96
sS'float_size'
p101
S'indiv.getTailBrightness()'
p102
sS'float_bright'
p103
S'indiv.distanceMatingSeason()'
p104
sS'left'
p105
Nsbsg100
g92
sg101
S'*'
sg103
S'/'
sg105
(i__main__
Node
p106
(dp107
g94
I3
sg95
(i__main__
Node
p108
(dp109
g94
I4
sg95
Nsg100
g106
sg101
S'indiv.randF()'
p110
sg103
g110
sg105
Nsbsg100
g96
sg101
S'+'
sg103
S'/'
sg105
(i__main__
Node
p111
(dp112
g94
I4
sg95
Nsg100
g106
sg101
S'indiv.getTailSize()'
p113
sg103
S'indiv.getEnergy()'
p114
sg105
Nsbsbsbsg100
Nsg101
S'-'
sg103
S'-'
sg105
(i__main__
Node
p115
(dp116
g94
I2
sg95
(i__main__
Node
p117
(dp118
g94
I3
sg95
Nsg100
g115
sg101
S'indiv.getNumPredatorsNeigh()'
p119
sg103
g114
sg105
Nsbsg100
g92
sg101
S'+'
sg103
S'*'
sg105
(i__main__
Node
p120
(dp121
g94
I3
sg95
Nsg100
g115
sg101
g110
sg103
g104
sg105
NsbsbsbsS'tailBrigh'
p122
F8.9042435842426517
sS'maxSteering'
p123
I30
sS'energy'
p124
F0.5
sS'lastScale'
p125
F5.5
sb.(i__main__
Data_mobile
p1
(dp2
S'vel_y'
p3
I0
sS'vel_x'
p4
F0.68199751213790261
sS'pos_x'
p5
I-9579
sS'pos_y'
p6
I9779
sS'isAlive'
p7
I00
sS'cumulativeEnergy'
p8
F0.5
sS'geno'
p9
(lp10
(lp11
S'randV'
p12
aS'currentEnergy'
p13
aa(lp14
S'POINT./'
p15
aS'POINT.+'
p16
a(lp17
S'POINT.*'
p18
a(lp19
S'currentVelocity'
p20
aa(lp21
S'POINT.+'
p22
aS'cohesion'
p23
a(lp24
S'flee'
p25
aaaa(lp26
S'POINT.-'
p27
a(lp28
S'randV'
p29
a(lp30
S'separation'
p31
aS'cohesion'
p32
aa(lp33
(lp34
S'currentVelocity'
p35
aS'POINT.*'
p36
aa(lp37
S'cohesion'
p38
aS'currentEnergy'
p39
aS'POINT.*'
p40
aS'POINT./'
p41
aS'POINT.-'
p42
aa(lp43
S'target'
p44
aaS'target'
p45
aaa(lp46
(lp47
S'separation'
p48
aS'currentVelocity'
p49
aaS'POINT.+'
p50
aS'POINT./'
p51
aS'POINT.+'
p52
aa(lp53
S'POINT.-'
p54
aa(lp55
S'flee'
p56
aS'currentVelocity'
p57
aS'target'
p58
aS'separation'
p59
aaaaS'separation'
p60
a(lp61
S'currentVelocity'
p62
a(lp63
S'POINT.+'
p64
a(lp65
S'cohesion'
p66
aS'target'
p67
aaaa(lp68
(lp69
S'POINT.+'
p70
aS'POINT./'
p71
a(lp72
S'POINT.-'
p73
aS'POINT.+'
p74
a(lp75
S'cohesion'
p76
aS'separation'
p77
aS'flee'
p78
aaaaS'currentEnergy'
p79
aasS'accel_x'
p80
F0
sS'accel_y'
p81
F0
sS'visionAngle'
p82
I150
sS'maxAccel'
p83
I2
sS'maxVel'
p84
F0.5
sS'age'
p85
I0
sS'tailSize'
p86
F6.8199751213790263
sS'sexualgeno'
p87
(i__main__
Node
p88
(dp89
S'depth'
p90
I1
sS'right'
p91
(i__main__
Node
p92
(dp93
g90
I2
sg91
NsS'parent'
p94
g88
sS'float_size'
p95
S'indiv.getNumPredatorsNeigh()'
p96
sS'float_bright'
p97
g96
sS'left'
p98
Nsbsg94
Nsg95
S'-'
sg97
S'/'
sg98
(i__main__
Node
p99
(dp100
g90
I2
sg91
Nsg94
g88
sg95
S'indiv.randF()'
p101
sg97
S'indiv.distanceMatingSeason()'
p102
sg98
NsbsbsS'tailBrigh'
p103
F6.6194807460634575
sS'maxSteering'
p104
I30
sS'energy'
p105
F0.5
sS'lastScale'
p106
F5.5
sb.(i__main__
Data_mobile
p1
(dp2
S'vel_y'
p3
I0
sS'vel_x'
p4
F0.66991861437454336
sS'pos_x'
p5
I-9579
sS'pos_y'
p6
I9779
sS'isAlive'
p7
I00
sS'cumulativeEnergy'
p8
F0.5
sS'geno'
p9
(lp10
(lp11
(lp12
S'POINT./'
p13
aS'cohesion'
p14
aaS'currentEnergy'
p15
a(lp16
S'separation'
p17
aaS'alignment'
p18
a(lp19
S'alignment'
p20
aS'POINT./'
p21
aaS'POINT.*'
p22
a(lp23
S'alignment'
p24
a(lp25
S'cohesion'
p26
aa(lp27
S'alignment'
p28
aS'POINT.-'
p29
aaS'cohesion'
p30
aa(lp31
S'randV'
p32
aS'separation'
p33
a(lp34
(lp35
S'POINT.+'
p36
a(lp37
S'POINT.*'
p38
aaaS'POINT./'
p39
a(lp40
S'POINT.+'
p41
aS'target'
p42
a(lp43
S'POINT./'
p44
aS'target'
p45
aaa(lp46
S'target'
p47
a(lp48
S'POINT.+'
p49
a(lp50
S'currentVelocity'
p51
aaaS'currentVelocity'
p52
aS'alignment'
p53
aaaaa(lp54
S'POINT.+'
p55
a(lp56
S'alignment'
p57
aa(lp58
S'currentEnergy'
p59
aaS'target'
p60
aS'randV'
p61
aaS'alignment'
p62
aS'target'
p63
a(lp64
S'currentVelocity'
p65
a(lp66
S'flee'
p67
aaa(lp68
S'currentVelocity'
p69
a(lp70
(lp71
S'separation'
p72
a(lp73
(lp74
S'currentVelocity'
p75
aS'POINT.*'
p76
aaS'cohesion'
p77
aaaS'randV'
p78
a(lp79
S'randV'
p80
aaaa(lp81
S'currentVelocity'
p82
aS'alignment'
p83
aasS'accel_x'
p84
F0
sS'accel_y'
p85
F0
sS'visionAngle'
p86
I150
sS'maxAccel'
p87
I2
sS'maxVel'
p88
F0.5
sS'age'
p89
I0
sS'tailSize'
p90
F6.6991861437454334
sS'sexualgeno'
p91
(i__main__
Node
p92
(dp93
S'depth'
p94
I1
sS'right'
p95
(i__main__
Node
p96
(dp97
g94
I2
sg95
(i__main__
Node
p98
(dp99
g94
I3
sg95
NsS'parent'
p100
g96
sS'float_size'
p101
S'indiv.getTailBrightness()'
p102
sS'float_bright'
p103
S'indiv.distanceMatingSeason()'
p104
sS'left'
p105
Nsbsg100
g92
sg101
S'*'
sg103
S'/'
sg105
(i__main__
Node
p106
(dp107
g94
I3
sg95
(i__main__
Node
p108
(dp109
g94
I4
sg95
Nsg100
g106
sg101
S'indiv.randF()'
p110
sg103
g110
sg105
Nsbsg100
g96
sg101
S'+'
sg103
S'/'
sg105
(i__main__
Node
p111
(dp112
g94
I4
sg95
Nsg100
g106
sg101
S'indiv.getTailSize()'
p113
sg103
S'indiv.getEnergy()'
p114
sg105
Nsbsbsbsg100
Nsg101
S'-'
sg103
S'-'
sg105
(i__main__
Node
p115
(dp116
g94
I2
sg95
(i__main__
Node
p117
(dp118
g94
I3
sg95
Nsg100
g115
sg101
S'indiv.getNumPredatorsNeigh()'
p119
sg103
g114
sg105
Nsbsg100
g92
sg101
S'+'
sg103
S'*'
sg105
(i__main__
Node
p120
(dp121
g94
I3
sg95
Nsg100
g115
sg101
g110
sg103
g104
sg105
NsbsbsbsS'tailBrigh'
p122
F8.5710414712935936
sS'maxSteering'
p123
I30
sS'energy'
p124
F0.5
sS'lastScale'
p125
F5.5
sb.(i__main__
Data_mobile
p1
(dp2
S'vel_y'
p3
I0
sS'vel_x'
p4
F0.66285915334878875
sS'pos_x'
p5
I-9579
sS'pos_y'
p6
I9779
sS'isAlive'
p7
I00
sS'cumulativeEnergy'
p8
F0.5
sS'geno'
p9
(lp10
(lp11
(lp12
S'POINT./'
p13
aS'cohesion'
p14
aaS'currentEnergy'
p15
a(lp16
S'separation'
p17
aaS'alignment'
p18
a(lp19
S'alignment'
p20
aS'POINT./'
p21
aaS'POINT.*'
p22
a(lp23
S'alignment'
p24
a(lp25
S'cohesion'
p26
aa(lp27
S'alignment'
p28
aS'POINT.-'
p29
aaS'cohesion'
p30
aa(lp31
S'randV'
p32
aS'separation'
p33
a(lp34
(lp35
S'POINT.+'
p36
a(lp37
S'POINT.*'
p38
aaaS'POINT./'
p39
a(lp40
S'POINT.+'
p41
aS'target'
p42
a(lp43
S'POINT./'
p44
aS'target'
p45
aaa(lp46
S'target'
p47
a(lp48
S'POINT.+'
p49
a(lp50
S'currentVelocity'
p51
aaaS'currentVelocity'
p52
aS'alignment'
p53
aaaaa(lp54
S'POINT.+'
p55
a(lp56
S'alignment'
p57
aa(lp58
S'currentEnergy'
p59
aaS'target'
p60
aS'randV'
p61
aaS'alignment'
p62
aS'target'
p63
a(lp64
S'currentVelocity'
p65
a(lp66
S'flee'
p67
aaa(lp68
S'currentVelocity'
p69
a(lp70
(lp71
S'separation'
p72
a(lp73
(lp74
S'currentVelocity'
p75
aS'POINT.*'
p76
aaS'cohesion'
p77
aaaS'randV'
p78
a(lp79
S'randV'
p80
aaaa(lp81
S'currentVelocity'
p82
aS'alignment'
p83
aasS'accel_x'
p84
F0
sS'accel_y'
p85
F0
sS'visionAngle'
p86
I150
sS'maxAccel'
p87
I2
sS'maxVel'
p88
F0.5
sS'age'
p89
I0
sS'tailSize'
p90
F6.6285915334878878
sS'sexualgeno'
p91
(i__main__
Node
p92
(dp93
S'depth'
p94
I1
sS'right'
p95
(i__main__
Node
p96
(dp97
g94
I2
sg95
(i__main__
Node
p98
(dp99
g94
I3
sg95
NsS'parent'
p100
g96
sS'float_size'
p101
S'indiv.getTailBrightness()'
p102
sS'float_bright'
p103
S'indiv.distanceMatingSeason()'
p104
sS'left'
p105
Nsbsg100
g92
sg101
S'*'
sg103
S'/'
sg105
(i__main__
Node
p106
(dp107
g94
I3
sg95
(i__main__
Node
p108
(dp109
g94
I4
sg95
Nsg100
g106
sg101
S'indiv.randF()'
p110
sg103
g110
sg105
Nsbsg100
g96
sg101
S'+'
sg103
S'/'
sg105
(i__main__
Node
p111
(dp112
g94
I4
sg95
Nsg100
g106
sg101
S'indiv.getTailSize()'
p113
sg103
S'indiv.getEnergy()'
p114
sg105
Nsbsbsbsg100
Nsg101
S'-'
sg103
S'-'
sg105
(i__main__
Node
p115
(dp116
g94
I2
sg95
(i__main__
Node
p117
(dp118
g94
I3
sg95
Nsg100
g115
sg101
S'indiv.getNumPredatorsNeigh()'
p119
sg103
g114
sg105
Nsbsg100
g92
sg101
S'+'
sg103
S'*'
sg105
(i__main__
Node
p120
(dp121
g94
I3
sg95
Nsg100
g115
sg101
g110
sg103
g104
sg105
NsbsbsbsS'tailBrigh'
p122
F9.6253321381732491
sS'maxSteering'
p123
I30
sS'energy'
p124
F0.5
sS'lastScale'
p125
F5.5
sb.(i__main__
Data_mobile
p1
(dp2
S'vel_y'
p3
I0
sS'vel_x'
p4
F0.6995782032854867
sS'pos_x'
p5
I-9579
sS'pos_y'
p6
I9779
sS'isAlive'
p7
I00
sS'cumulativeEnergy'
p8
F0.5
sS'geno'
p9
(lp10
(lp11
S'randV'
p12
aS'currentEnergy'
p13
aa(lp14
S'POINT./'
p15
aS'POINT.+'
p16
a(lp17
S'POINT.*'
p18
a(lp19
S'currentVelocity'
p20
aa(lp21
S'POINT.+'
p22
aS'cohesion'
p23
a(lp24
S'flee'
p25
aaaa(lp26
S'POINT.-'
p27
a(lp28
S'randV'
p29
a(lp30
S'separation'
p31
aS'cohesion'
p32
aa(lp33
(lp34
S'currentVelocity'
p35
aS'POINT.*'
p36
aa(lp37
S'cohesion'
p38
aS'currentEnergy'
p39
aS'POINT.*'
p40
aS'POINT./'
p41
aS'POINT.-'
p42
aa(lp43
S'target'
p44
aaS'target'
p45
aaa(lp46
(lp47
S'separation'
p48
aS'currentVelocity'
p49
aaS'POINT.+'
p50
aS'POINT./'
p51
aS'POINT.+'
p52
aa(lp53
S'POINT.-'
p54
aa(lp55
S'flee'
p56
aS'currentVelocity'
p57
aS'target'
p58
aS'separation'
p59
aaaaS'separation'
p60
a(lp61
S'currentVelocity'
p62
a(lp63
S'POINT.+'
p64
a(lp65
S'cohesion'
p66
aS'target'
p67
aaaa(lp68
(lp69
S'POINT.+'
p70
aS'POINT./'
p71
a(lp72
S'POINT.-'
p73
aS'POINT.+'
p74
a(lp75
S'cohesion'
p76
aS'separation'
p77
aS'flee'
p78
aaaaS'currentEnergy'
p79
aasS'accel_x'
p80
F0
sS'accel_y'
p81
F0
sS'visionAngle'
p82
I150
sS'maxAccel'
p83
I2
sS'maxVel'
p84
F0.5
sS'age'
p85
I0
sS'tailSize'
p86
F6.9957820328548674
sS'sexualgeno'
p87
(i__main__
Node
p88
(dp89
S'depth'
p90
I1
sS'right'
p91
(i__main__
Node
p92
(dp93
g90
I2
sg91
NsS'parent'
p94
g88
sS'float_size'
p95
S'indiv.getNumPredatorsNeigh()'
p96
sS'float_bright'
p97
g96
sS'left'
p98
Nsbsg94
Nsg95
S'-'
sg97
S'/'
sg98
(i__main__
Node
p99
(dp100
g90
I2
sg91
Nsg94
g88
sg95
S'indiv.randF()'
p101
sg97
S'indiv.distanceMatingSeason()'
p102
sg98
NsbsbsS'tailBrigh'
p103
F8.7488682288168782
sS'maxSteering'
p104
I30
sS'energy'
p105
F0.5
sS'lastScale'
p106
F5.5
sb.(i__main__
Data_mobile
p1
(dp2
S'vel_y'
p3
I0
sS'vel_x'
p4
F0.59454128060932909
sS'pos_x'
p5
I-9579
sS'pos_y'
p6
I9779
sS'isAlive'
p7
I00
sS'cumulativeEnergy'
p8
F0.5
sS'geno'
p9
(lp10
(lp11
S'randV'
p12
aS'currentEnergy'
p13
aa(lp14
S'POINT./'
p15
aS'POINT.+'
p16
a(lp17
S'POINT.*'
p18
a(lp19
S'currentVelocity'
p20
aa(lp21
S'POINT.+'
p22
aS'cohesion'
p23
a(lp24
S'flee'
p25
aaaa(lp26
S'POINT.-'
p27
a(lp28
S'randV'
p29
a(lp30
S'separation'
p31
aS'cohesion'
p32
aa(lp33
(lp34
S'currentVelocity'
p35
aS'POINT.*'
p36
aa(lp37
S'cohesion'
p38
aS'currentEnergy'
p39
aS'POINT.*'
p40
aS'POINT./'
p41
aS'POINT.-'
p42
aa(lp43
S'target'
p44
aaS'target'
p45
aaa(lp46
(lp47
S'separation'
p48
aS'currentVelocity'
p49
aaS'POINT.+'
p50
aS'POINT./'
p51
aS'POINT.+'
p52
aa(lp53
S'POINT.-'
p54
aa(lp55
S'flee'
p56
aS'currentVelocity'
p57
aS'target'
p58
aS'separation'
p59
aaaaS'separation'
p60
a(lp61
S'currentVelocity'
p62
a(lp63
S'POINT.+'
p64
a(lp65
S'cohesion'
p66
aS'target'
p67
aaaa(lp68
(lp69
S'POINT.+'
p70
aS'POINT./'
p71
a(lp72
S'POINT.-'
p73
aS'POINT.+'
p74
a(lp75
S'cohesion'
p76
aS'separation'
p77
aS'flee'
p78
aaaaS'currentEnergy'
p79
aasS'accel_x'
p80
F0
sS'accel_y'
p81
F0
sS'visionAngle'
p82
I150
sS'maxAccel'
p83
I2
sS'maxVel'
p84
F0.5
sS'age'
p85
I0
sS'tailSize'
p86
F5.9454128060932909
sS'sexualgeno'
p87
(i__main__
Node
p88
(dp89
S'depth'
p90
I1
sS'right'
p91
(i__main__
Node
p92
(dp93
g90
I2
sg91
NsS'parent'
p94
g88
sS'float_size'
p95
S'indiv.getNumPredatorsNeigh()'
p96
sS'float_bright'
p97
g96
sS'left'
p98
Nsbsg94
Nsg95
S'-'
sg97
S'/'
sg98
(i__main__
Node
p99
(dp100
g90
I2
sg91
Nsg94
g88
sg95
S'indiv.randF()'
p101
sg97
S'indiv.distanceMatingSeason()'
p102
sg98
NsbsbsS'tailBrigh'
p103
F4.9242554067925042
sS'maxSteering'
p104
I30
sS'energy'
p105
F0.5
sS'lastScale'
p106
F5.5
sb.(i__main__
Data_mobile
p1
(dp2
S'vel_y'
p3
I0
sS'vel_x'
p4
F0.44715395030210364
sS'pos_x'
p5
I-9579
sS'pos_y'
p6
I9779
sS'isAlive'
p7
I00
sS'cumulativeEnergy'
p8
F0.5
sS'geno'
p9
(lp10
(lp11
(lp12
S'POINT./'
p13
aS'cohesion'
p14
aaS'currentEnergy'
p15
a(lp16
S'separation'
p17
aaS'alignment'
p18
a(lp19
S'alignment'
p20
aS'POINT./'
p21
aaS'POINT.*'
p22
a(lp23
S'alignment'
p24
a(lp25
S'cohesion'
p26
aa(lp27
S'alignment'
p28
aS'POINT.-'
p29
aaS'cohesion'
p30
aa(lp31
S'randV'
p32
aS'separation'
p33
a(lp34
(lp35
S'POINT.+'
p36
a(lp37
S'POINT.*'
p38
aaaS'POINT./'
p39
a(lp40
S'POINT.+'
p41
aS'target'
p42
a(lp43
S'POINT./'
p44
aS'target'
p45
aaa(lp46
S'target'
p47
a(lp48
S'POINT.+'
p49
a(lp50
S'currentVelocity'
p51
aaaS'currentVelocity'
p52
aS'alignment'
p53
aaaaa(lp54
S'POINT.+'
p55
a(lp56
S'alignment'
p57
aa(lp58
S'currentEnergy'
p59
aaS'target'
p60
aS'randV'
p61
aaS'alignment'
p62
aS'target'
p63
a(lp64
S'currentVelocity'
p65
a(lp66
S'flee'
p67
aaa(lp68
S'currentVelocity'
p69
a(lp70
(lp71
S'separation'
p72
a(lp73
(lp74
S'currentVelocity'
p75
aS'POINT.*'
p76
aaS'cohesion'
p77
aaaS'randV'
p78
a(lp79
S'randV'
p80
aaaa(lp81
S'currentVelocity'
p82
aS'alignment'
p83
aasS'accel_x'
p84
F0
sS'accel_y'
p85
F0
sS'visionAngle'
p86
I150
sS'maxAccel'
p87
I2
sS'maxVel'
p88
F0.5
sS'age'
p89
I0
sS'tailSize'
p90
F4.4715395030210363
sS'sexualgeno'
p91
(i__main__
Node
p92
(dp93
S'depth'
p94
I1
sS'right'
p95
(i__main__
Node
p96
(dp97
g94
I2
sg95
(i__main__
Node
p98
(dp99
g94
I3
sg95
NsS'parent'
p100
g96
sS'float_size'
p101
S'indiv.getTailBrightness()'
p102
sS'float_bright'
p103
S'indiv.distanceMatingSeason()'
p104
sS'left'
p105
Nsbsg100
g92
sg101
S'*'
sg103
S'/'
sg105
(i__main__
Node
p106
(dp107
g94
I3
sg95
(i__main__
Node
p108
(dp109
g94
I4
sg95
Nsg100
g106
sg101
S'indiv.randF()'
p110
sg103
g110
sg105
Nsbsg100
g96
sg101
S'+'
sg103
S'/'
sg105
(i__main__
Node
p111
(dp112
g94
I4
sg95
Nsg100
g106
sg101
S'indiv.getTailSize()'
p113
sg103
S'indiv.getEnergy()'
p114
sg105
Nsbsbsbsg100
Nsg101
S'-'
sg103
S'-'
sg105
(i__main__
Node
p115
(dp116
g95
(i__main__
Node
p117
(dp118
g95
(i__main__
Node
p119
(dp120
g95
Nsg100
g117
sg94
I4
sg101
g110
sg103
g110
sg105
Nsbsg100
g115
sg94
I3
sg101
S'+'
sg103
S'/'
sg105
(i__main__
Node
p121
(dp122
g95
Nsg100
g117
sg94
I4
sg101
g104
sg103
g113
sg105
Nsbsbsg100
g92
sg94
I2
sg101
S'+'
sg103
S'+'
sg105
(i__main__
Node
p123
(dp124
g95
(i__main__
Node
p125
(dp126
g95
Nsg100
g123
sg94
I4
sg101
g110
sg103
S'indiv.getNumPredatorsNeigh()'
p127
sg105
Nsbsg100
g115
sg94
I3
sg101
S'*'
sg103
S'-'
sg105
(i__main__
Node
p128
(dp129
g95
Nsg100
g123
sg94
I4
sg101
g113
sg103
g113
sg105
NsbsbsbsbsS'tailBrigh'
p130
F9.6467672457500804
sS'maxSteering'
p131
I30
sS'energy'
p132
F0.5
sS'lastScale'
p133
F5.5
sb.(i__main__
Data_mobile
p1
(dp2
S'vel_y'
p3
I0
sS'vel_x'
p4
F0.70418325274622862
sS'pos_x'
p5
I-9579
sS'pos_y'
p6
I9779
sS'isAlive'
p7
I00
sS'cumulativeEnergy'
p8
F0.5
sS'geno'
p9
(lp10
(lp11
(lp12
S'POINT./'
p13
aS'cohesion'
p14
aaS'currentEnergy'
p15
a(lp16
S'separation'
p17
aaS'alignment'
p18
a(lp19
S'alignment'
p20
aS'POINT./'
p21
aaS'POINT.*'
p22
a(lp23
S'alignment'
p24
a(lp25
S'cohesion'
p26
aa(lp27
S'alignment'
p28
aS'POINT.-'
p29
aaS'cohesion'
p30
aa(lp31
S'randV'
p32
aS'separation'
p33
a(lp34
(lp35
S'POINT.+'
p36
a(lp37
S'POINT.*'
p38
aaaS'POINT./'
p39
a(lp40
S'POINT.+'
p41
aS'target'
p42
a(lp43
S'POINT./'
p44
aS'target'
p45
aaa(lp46
S'target'
p47
a(lp48
S'POINT.+'
p49
a(lp50
S'currentVelocity'
p51
aaaS'currentVelocity'
p52
aS'alignment'
p53
aaaaa(lp54
S'POINT.+'
p55
a(lp56
S'alignment'
p57
aa(lp58
S'currentEnergy'
p59
aaS'target'
p60
aS'randV'
p61
aaS'alignment'
p62
aS'target'
p63
a(lp64
S'currentVelocity'
p65
a(lp66
S'flee'
p67
aaa(lp68
S'currentVelocity'
p69
a(lp70
(lp71
S'separation'
p72
a(lp73
(lp74
S'currentVelocity'
p75
aS'POINT.*'
p76
aaS'cohesion'
p77
aaaS'randV'
p78
a(lp79
S'randV'
p80
aaaa(lp81
S'currentVelocity'
p82
aS'alignment'
p83
aasS'accel_x'
p84
F0
sS'accel_y'
p85
F0
sS'visionAngle'
p86
I150
sS'maxAccel'
p87
I2
sS'maxVel'
p88
F0.5
sS'age'
p89
I0
sS'tailSize'
p90
F7.0418325274622866
sS'sexualgeno'
p91
(i__main__
Node
p92
(dp93
S'depth'
p94
I1
sS'right'
p95
(i__main__
Node
p96
(dp97
g94
I2
sg95
(i__main__
Node
p98
(dp99
g94
I3
sg95
NsS'parent'
p100
g96
sS'float_size'
p101
S'indiv.getTailBrightness()'
p102
sS'float_bright'
p103
S'indiv.distanceMatingSeason()'
p104
sS'left'
p105
Nsbsg100
g92
sg101
S'*'
sg103
S'/'
sg105
(i__main__
Node
p106
(dp107
g94
I3
sg95
(i__main__
Node
p108
(dp109
g94
I4
sg95
Nsg100
g106
sg101
S'indiv.randF()'
p110
sg103
g110
sg105
Nsbsg100
g96
sg101
S'+'
sg103
S'/'
sg105
(i__main__
Node
p111
(dp112
g94
I4
sg95
Nsg100
g106
sg101
S'indiv.getTailSize()'
p113
sg103
S'indiv.getEnergy()'
p114
sg105
Nsbsbsbsg100
Nsg101
S'-'
sg103
S'-'
sg105
(i__main__
Node
p115
(dp116
g94
I2
sg95
(i__main__
Node
p117
(dp118
g94
I3
sg95
Nsg100
g115
sg101
S'indiv.getNumPredatorsNeigh()'
p119
sg103
g114
sg105
Nsbsg100
g92
sg101
S'+'
sg103
S'*'
sg105
(i__main__
Node
p120
(dp121
g94
I3
sg95
Nsg100
g115
sg101
g110
sg103
g104
sg105
NsbsbsbsS'tailBrigh'
p122
F9.9974106458825478
sS'maxSteering'
p123
I30
sS'energy'
p124
F0.5
sS'lastScale'
p125
F5.5
sb.(i__main__
Data_mobile
p1
(dp2
S'vel_y'
p3
I0
sS'vel_x'
p4
F0.82403127282095989
sS'pos_x'
p5
I-9579
sS'pos_y'
p6
I9779
sS'isAlive'
p7
I00
sS'cumulativeEnergy'
p8
F0.5
sS'geno'
p9
(lp10
(lp11
(lp12
S'POINT./'
p13
aS'cohesion'
p14
aaS'currentEnergy'
p15
a(lp16
S'separation'
p17
aaS'alignment'
p18
a(lp19
S'alignment'
p20
aS'POINT./'
p21
aaS'POINT.*'
p22
a(lp23
S'alignment'
p24
a(lp25
S'cohesion'
p26
aa(lp27
S'alignment'
p28
aS'POINT.-'
p29
aaS'cohesion'
p30
aa(lp31
S'randV'
p32
aS'separation'
p33
a(lp34
(lp35
S'POINT.+'
p36
a(lp37
S'POINT.*'
p38
aaaS'POINT./'
p39
a(lp40
S'POINT.+'
p41
aS'target'
p42
a(lp43
S'POINT./'
p44
aS'target'
p45
aaa(lp46
S'target'
p47
a(lp48
S'POINT.+'
p49
a(lp50
S'currentVelocity'
p51
aaaS'currentVelocity'
p52
aS'alignment'
p53
aaaaa(lp54
S'POINT.+'
p55
a(lp56
S'alignment'
p57
aa(lp58
S'currentEnergy'
p59
aaS'target'
p60
aS'randV'
p61
aaS'alignment'
p62
aS'target'
p63
a(lp64
S'currentVelocity'
p65
a(lp66
S'flee'
p67
aaa(lp68
S'currentVelocity'
p69
a(lp70
(lp71
S'separation'
p72
a(lp73
(lp74
S'currentVelocity'
p75
aS'POINT.*'
p76
aaS'cohesion'
p77
aaaS'randV'
p78
a(lp79
S'randV'
p80
aaaa(lp81
S'currentVelocity'
p82
aS'alignment'
p83
aasS'accel_x'
p84
F0
sS'accel_y'
p85
F0
sS'visionAngle'
p86
I150
sS'maxAccel'
p87
I2
sS'maxVel'
p88
F0.5
sS'age'
p89
I0
sS'tailSize'
p90
F8.2403127282095987
sS'sexualgeno'
p91
(i__main__
Node
p92
(dp93
S'depth'
p94
I1
sS'right'
p95
(i__main__
Node
p96
(dp97
g94
I2
sg95
(i__main__
Node
p98
(dp99
g94
I3
sg95
NsS'parent'
p100
g96
sS'float_size'
p101
S'indiv.getTailBrightness()'
p102
sS'float_bright'
p103
S'indiv.randF()'
p104
sS'left'
p105
Nsbsg100
g92
sg101
S'-'
sg103
S'+'
sg105
(i__main__
Node
p106
(dp107
g94
I3
sg95
Nsg100
g96
sg101
S'indiv.getNumPredatorsNeigh()'
p108
sg103
g108
sg105
Nsbsbsg100
Nsg101
S'-'
sg103
S'-'
sg105
(i__main__
Node
p109
(dp110
g94
I2
sg95
(i__main__
Node
p111
(dp112
g94
I3
sg95
Nsg100
g109
sg101
g108
sg103
S'indiv.getEnergy()'
p113
sg105
Nsbsg100
g92
sg101
S'+'
sg103
S'*'
sg105
(i__main__
Node
p114
(dp115
g94
I3
sg95
Nsg100
g109
sg101
g104
sg103
S'indiv.distanceMatingSeason()'
p116
sg105
NsbsbsbsS'tailBrigh'
p117
F5.2167851524500364
sS'maxSteering'
p118
I30
sS'energy'
p119
F0.5
sS'lastScale'
p120
F5.5
sb.(i__main__
Data_mobile
p1
(dp2
S'vel_y'
p3
I0
sS'vel_x'
p4
F0.41395178704189489
sS'pos_x'
p5
I-9579
sS'pos_y'
p6
I9779
sS'isAlive'
p7
I00
sS'cumulativeEnergy'
p8
F0.5
sS'geno'
p9
(lp10
(lp11
S'randV'
p12
aS'currentEnergy'
p13
aa(lp14
S'POINT./'
p15
aS'POINT.+'
p16
a(lp17
S'POINT.*'
p18
a(lp19
S'currentVelocity'
p20
aa(lp21
S'POINT.+'
p22
aS'cohesion'
p23
a(lp24
S'flee'
p25
aaaa(lp26
S'POINT.-'
p27
a(lp28
S'randV'
p29
a(lp30
S'separation'
p31
aS'cohesion'
p32
aa(lp33
(lp34
S'currentVelocity'
p35
aS'POINT.*'
p36
aa(lp37
S'cohesion'
p38
aS'currentEnergy'
p39
aS'POINT.*'
p40
aS'POINT./'
p41
aS'POINT.-'
p42
aa(lp43
S'target'
p44
aaS'target'
p45
aaa(lp46
(lp47
S'separation'
p48
aS'currentVelocity'
p49
aaS'POINT.+'
p50
aS'POINT./'
p51
aS'POINT.+'
p52
aa(lp53
S'POINT.-'
p54
aa(lp55
S'flee'
p56
aS'currentVelocity'
p57
aS'target'
p58
aS'separation'
p59
aaaaS'separation'
p60
a(lp61
S'currentVelocity'
p62
a(lp63
S'POINT.+'
p64
a(lp65
S'cohesion'
p66
aS'target'
p67
aaaa(lp68
(lp69
S'POINT.+'
p70
aS'POINT./'
p71
a(lp72
S'POINT.-'
p73
aS'POINT.+'
p74
a(lp75
S'cohesion'
p76
aS'separation'
p77
aS'flee'
p78
aaaaS'currentEnergy'
p79
aasS'accel_x'
p80
F0
sS'accel_y'
p81
F0
sS'visionAngle'
p82
I150
sS'maxAccel'
p83
I2
sS'maxVel'
p84
F0.5
sS'age'
p85
I0
sS'tailSize'
p86
F4.139517870418949
sS'sexualgeno'
p87
(i__main__
Node
p88
(dp89
S'depth'
p90
I1
sS'right'
p91
(i__main__
Node
p92
(dp93
g90
I2
sg91
NsS'parent'
p94
g88
sS'float_size'
p95
S'indiv.getNumPredatorsNeigh()'
p96
sS'float_bright'
p97
g96
sS'left'
p98
Nsbsg94
Nsg95
S'-'
sg97
S'/'
sg98
(i__main__
Node
p99
(dp100
g90
I2
sg91
Nsg94
g88
sg95
S'indiv.randF()'
p101
sg97
S'indiv.distanceMatingSeason()'
p102
sg98
NsbsbsS'tailBrigh'
p103
F4.5197715933412432
sS'maxSteering'
p104
I30
sS'energy'
p105
F0.5
sS'lastScale'
p106
F5.5
sb.(i__main__
Data_mobile
p1
(dp2
S'vel_y'
p3
I0
sS'vel_x'
p4
F0.54213225875396098
sS'pos_x'
p5
I-9579
sS'pos_y'
p6
I9779
sS'isAlive'
p7
I00
sS'cumulativeEnergy'
p8
F0.5
sS'geno'
p9
(lp10
(lp11
(lp12
S'POINT./'
p13
aS'cohesion'
p14
aaS'currentEnergy'
p15
a(lp16
S'separation'
p17
aaS'alignment'
p18
a(lp19
S'alignment'
p20
aS'POINT./'
p21
aaS'POINT.*'
p22
a(lp23
S'alignment'
p24
a(lp25
S'cohesion'
p26
aa(lp27
S'alignment'
p28
aS'POINT.-'
p29
aaS'cohesion'
p30
aa(lp31
S'randV'
p32
aS'separation'
p33
a(lp34
(lp35
S'POINT.+'
p36
a(lp37
S'POINT.*'
p38
aaaS'POINT./'
p39
a(lp40
S'POINT.+'
p41
aS'target'
p42
a(lp43
S'POINT./'
p44
aS'target'
p45
aaa(lp46
S'target'
p47
a(lp48
S'POINT.+'
p49
a(lp50
S'currentVelocity'
p51
aaaS'currentVelocity'
p52
aS'alignment'
p53
aaaaa(lp54
S'POINT.+'
p55
a(lp56
S'alignment'
p57
aa(lp58
S'currentEnergy'
p59
aaS'target'
p60
aS'randV'
p61
aaS'alignment'
p62
aS'target'
p63
a(lp64
S'currentVelocity'
p65
a(lp66
S'flee'
p67
aaa(lp68
S'currentVelocity'
p69
a(lp70
(lp71
S'separation'
p72
a(lp73
(lp74
S'currentVelocity'
p75
aS'POINT.*'
p76
aaS'cohesion'
p77
aaaS'randV'
p78
a(lp79
S'randV'
p80
aaaa(lp81
S'currentVelocity'
p82
aS'alignment'
p83
aasS'accel_x'
p84
F0
sS'accel_y'
p85
F0
sS'visionAngle'
p86
I150
sS'maxAccel'
p87
I2
sS'maxVel'
p88
F0.5
sS'age'
p89
I0
sS'tailSize'
p90
F5.4213225875396098
sS'sexualgeno'
p91
(i__main__
Node
p92
(dp93
S'depth'
p94
I1
sS'right'
p95
(i__main__
Node
p96
(dp97
g94
I2
sg95
(i__main__
Node
p98
(dp99
g94
I3
sg95
NsS'parent'
p100
g96
sS'float_size'
p101
S'indiv.getTailBrightness()'
p102
sS'float_bright'
p103
S'indiv.randF()'
p104
sS'left'
p105
Nsbsg100
g92
sg101
S'-'
sg103
S'+'
sg105
(i__main__
Node
p106
(dp107
g94
I3
sg95
Nsg100
g96
sg101
S'indiv.getNumPredatorsNeigh()'
p108
sg103
g108
sg105
Nsbsbsg100
Nsg101
S'-'
sg103
S'-'
sg105
(i__main__
Node
p109
(dp110
g94
I2
sg95
(i__main__
Node
p111
(dp112
g94
I3
sg95
Nsg100
g109
sg101
g108
sg103
S'indiv.getEnergy()'
p113
sg105
Nsbsg100
g92
sg101
S'+'
sg103
S'*'
sg105
(i__main__
Node
p114
(dp115
g94
I3
sg95
Nsg100
g109
sg101
g104
sg103
S'indiv.distanceMatingSeason()'
p116
sg105
NsbsbsbsS'tailBrigh'
p117
F1.1948253225834982
sS'maxSteering'
p118
I30
sS'energy'
p119
F0.5
sS'lastScale'
p120
F5.5
sb.(i__main__
Data_mobile
p1
(dp2
S'vel_y'
p3
I0
sS'vel_x'
p4
F0.073774006464843445
sS'pos_x'
p5
I-9579
sS'pos_y'
p6
I9779
sS'isAlive'
p7
I00
sS'cumulativeEnergy'
p8
F0.5
sS'geno'
p9
(lp10
(lp11
(lp12
S'POINT./'
p13
aS'cohesion'
p14
aaS'currentEnergy'
p15
a(lp16
S'separation'
p17
aaS'alignment'
p18
a(lp19
S'alignment'
p20
aS'POINT./'
p21
aaS'POINT.*'
p22
a(lp23
S'alignment'
p24
a(lp25
S'cohesion'
p26
aa(lp27
S'alignment'
p28
aS'POINT.-'
p29
aaS'cohesion'
p30
aa(lp31
S'randV'
p32
aS'separation'
p33
a(lp34
(lp35
S'POINT.+'
p36
a(lp37
S'POINT.*'
p38
aaaS'POINT./'
p39
a(lp40
S'POINT.+'
p41
aS'target'
p42
a(lp43
S'POINT./'
p44
aS'target'
p45
aaa(lp46
S'target'
p47
a(lp48
S'POINT.+'
p49
a(lp50
S'currentVelocity'
p51
aaaS'currentVelocity'
p52
aS'alignment'
p53
aaaaa(lp54
S'POINT.+'
p55
a(lp56
S'alignment'
p57
aa(lp58
S'currentEnergy'
p59
aaS'target'
p60
aS'randV'
p61
aaS'alignment'
p62
aS'target'
p63
a(lp64
S'currentVelocity'
p65
a(lp66
S'flee'
p67
aaa(lp68
S'currentVelocity'
p69
a(lp70
(lp71
S'separation'
p72
a(lp73
(lp74
S'currentVelocity'
p75
aS'POINT.*'
p76
aaS'cohesion'
p77
aaaS'randV'
p78
a(lp79
S'randV'
p80
aaaa(lp81
S'currentVelocity'
p82
aS'alignment'
p83
aasS'accel_x'
p84
F0
sS'accel_y'
p85
F0
sS'visionAngle'
p86
I150
sS'maxAccel'
p87
I2
sS'maxVel'
p88
F0.5
sS'age'
p89
I0
sS'tailSize'
p90
F0.73774006464843445
sS'sexualgeno'
p91
(i__main__
Node
p92
(dp93
S'depth'
p94
I1
sS'right'
p95
(i__main__
Node
p96
(dp97
g94
I2
sg95
(i__main__
Node
p98
(dp99
g94
I3
sg95
NsS'parent'
p100
g96
sS'float_size'
p101
S'indiv.getTailBrightness()'
p102
sS'float_bright'
p103
S'indiv.distanceMatingSeason()'
p104
sS'left'
p105
Nsbsg100
g92
sg101
S'*'
sg103
S'/'
sg105
(i__main__
Node
p106
(dp107
g94
I3
sg95
(i__main__
Node
p108
(dp109
g94
I4
sg95
Nsg100
g106
sg101
S'indiv.getNumPredatorsNeigh()'
p110
sg103
S'indiv.getEnergy()'
p111
sg105
Nsbsg100
g96
sg101
S'+'
sg103
S'*'
sg105
(i__main__
Node
p112
(dp113
g94
I4
sg95
Nsg100
g106
sg101
S'indiv.randF()'
p114
sg103
g104
sg105
Nsbsbsbsg100
Nsg101
S'-'
sg103
S'-'
sg105
(i__main__
Node
p115
(dp116
g94
I2
sg95
(i__main__
Node
p117
(dp118
g94
I3
sg95
Nsg100
g115
sg101
g110
sg103
g111
sg105
Nsbsg100
g92
sg101
S'+'
sg103
S'*'
sg105
(i__main__
Node
p119
(dp120
g94
I3
sg95
Nsg100
g115
sg101
g114
sg103
g104
sg105
NsbsbsbsS'tailBrigh'
p121
F0.5793145318715609
sS'maxSteering'
p122
I30
sS'energy'
p123
F0.5
sS'lastScale'
p124
F5.5
sb.(i__main__
Data_mobile
p1
(dp2
S'vel_y'
p3
I0
sS'vel_x'
p4
F0.83002354024497227
sS'pos_x'
p5
I-9579
sS'pos_y'
p6
I9779
sS'isAlive'
p7
I00
sS'cumulativeEnergy'
p8
F0.5
sS'geno'
p9
(lp10
(lp11
S'randV'
p12
aS'currentEnergy'
p13
aa(lp14
S'POINT./'
p15
aS'POINT.+'
p16
a(lp17
S'POINT.*'
p18
a(lp19
S'currentVelocity'
p20
aa(lp21
S'POINT.+'
p22
aS'cohesion'
p23
a(lp24
S'flee'
p25
aaaa(lp26
S'POINT.-'
p27
a(lp28
S'randV'
p29
a(lp30
S'separation'
p31
aS'cohesion'
p32
aa(lp33
(lp34
S'currentVelocity'
p35
aS'POINT.*'
p36
aa(lp37
S'cohesion'
p38
aS'currentEnergy'
p39
aS'POINT.*'
p40
aS'POINT./'
p41
aS'POINT.-'
p42
aa(lp43
S'target'
p44
aaS'target'
p45
aaa(lp46
(lp47
S'separation'
p48
aS'currentVelocity'
p49
aaS'POINT.+'
p50
aS'POINT./'
p51
aS'POINT.+'
p52
aa(lp53
S'POINT.-'
p54
aa(lp55
S'flee'
p56
aS'currentVelocity'
p57
aS'target'
p58
aS'separation'
p59
aaaaS'separation'
p60
a(lp61
S'currentVelocity'
p62
a(lp63
S'POINT.+'
p64
a(lp65
S'cohesion'
p66
aS'target'
p67
aaaa(lp68
(lp69
S'POINT.+'
p70
aS'POINT./'
p71
a(lp72
S'POINT.-'
p73
aS'POINT.+'
p74
a(lp75
S'cohesion'
p76
aS'separation'
p77
aS'flee'
p78
aaaaS'currentEnergy'
p79
aasS'accel_x'
p80
F0
sS'accel_y'
p81
F0
sS'visionAngle'
p82
I150
sS'maxAccel'
p83
I2
sS'maxVel'
p84
F0.5
sS'age'
p85
I0
sS'tailSize'
p86
F8.3002354024497222
sS'sexualgeno'
p87
(i__main__
Node
p88
(dp89
S'depth'
p90
I1
sS'right'
p91
(i__main__
Node
p92
(dp93
g90
I2
sg91
NsS'parent'
p94
g88
sS'float_size'
p95
S'indiv.getNumPredatorsNeigh()'
p96
sS'float_bright'
p97
g96
sS'left'
p98
Nsbsg94
Nsg95
S'-'
sg97
S'/'
sg98
(i__main__
Node
p99
(dp100
g90
I2
sg91
Nsg94
g88
sg95
S'indiv.randF()'
p101
sg97
S'indiv.distanceMatingSeason()'
p102
sg98
NsbsbsS'tailBrigh'
p103
F0.66054279384390457
sS'maxSteering'
p104
I30
sS'energy'
p105
F0.5
sS'lastScale'
p106
F5.5
sb.(i__main__
Data_mobile
p1
(dp2
S'vel_y'
p3
I0
sS'vel_x'
p4
F0.63631274800515858
sS'pos_x'
p5
I-9579
sS'pos_y'
p6
I9779
sS'isAlive'
p7
I00
sS'cumulativeEnergy'
p8
F0.5
sS'geno'
p9
(lp10
(lp11
(lp12
S'POINT./'
p13
aS'cohesion'
p14
aaS'currentEnergy'
p15
a(lp16
S'separation'
p17
aaS'alignment'
p18
a(lp19
S'alignment'
p20
aS'POINT./'
p21
aaS'POINT.*'
p22
a(lp23
S'alignment'
p24
a(lp25
S'cohesion'
p26
aa(lp27
S'alignment'
p28
aS'POINT.-'
p29
aaS'cohesion'
p30
aa(lp31
S'randV'
p32
aS'separation'
p33
a(lp34
(lp35
S'POINT.+'
p36
a(lp37
S'POINT.*'
p38
aaaS'POINT./'
p39
a(lp40
S'POINT.+'
p41
aS'target'
p42
a(lp43
S'POINT./'
p44
aS'target'
p45
aaa(lp46
S'target'
p47
a(lp48
S'POINT.+'
p49
a(lp50
S'currentVelocity'
p51
aaaS'currentVelocity'
p52
aS'alignment'
p53
aaaaa(lp54
S'POINT.+'
p55
a(lp56
S'alignment'
p57
aa(lp58
S'currentEnergy'
p59
aaS'target'
p60
aS'randV'
p61
aaS'alignment'
p62
aS'target'
p63
a(lp64
S'currentVelocity'
p65
a(lp66
S'flee'
p67
aaa(lp68
S'currentVelocity'
p69
a(lp70
(lp71
S'separation'
p72
a(lp73
(lp74
S'currentVelocity'
p75
aS'POINT.*'
p76
aaS'cohesion'
p77
aaaS'randV'
p78
a(lp79
S'randV'
p80
aaaa(lp81
S'currentVelocity'
p82
aS'alignment'
p83
aasS'accel_x'
p84
F0
sS'accel_y'
p85
F0
sS'visionAngle'
p86
I150
sS'maxAccel'
p87
I2
sS'maxVel'
p88
F0.5
sS'age'
p89
I0
sS'tailSize'
p90
F6.3631274800515856
sS'sexualgeno'
p91
(i__main__
Node
p92
(dp93
S'depth'
p94
I1
sS'right'
p95
(i__main__
Node
p96
(dp97
g94
I2
sg95
(i__main__
Node
p98
(dp99
g94
I3
sg95
NsS'parent'
p100
g96
sS'float_size'
p101
S'indiv.getTailBrightness()'
p102
sS'float_bright'
p103
S'indiv.randF()'
p104
sS'left'
p105
Nsbsg100
g92
sg101
S'-'
sg103
S'+'
sg105
(i__main__
Node
p106
(dp107
g94
I3
sg95
Nsg100
g96
sg101
S'indiv.getNumPredatorsNeigh()'
p108
sg103
g108
sg105
Nsbsbsg100
Nsg101
S'-'
sg103
S'-'
sg105
(i__main__
Node
p109
(dp110
g94
I2
sg95
(i__main__
Node
p111
(dp112
g94
I3
sg95
Nsg100
g109
sg101
g108
sg103
S'indiv.getEnergy()'
p113
sg105
Nsbsg100
g92
sg101
S'+'
sg103
S'*'
sg105
(i__main__
Node
p114
(dp115
g94
I3
sg95
Nsg100
g109
sg101
g104
sg103
S'indiv.distanceMatingSeason()'
p116
sg105
NsbsbsbsS'tailBrigh'
p117
F7.2398781601969624
sS'maxSteering'
p118
I30
sS'energy'
p119
F0.5
sS'lastScale'
p120
F5.5
sb.(i__main__
Data_mobile
p1
(dp2
S'vel_y'
p3
I0
sS'vel_x'
p4
F0.43351626207179733
sS'pos_x'
p5
I-9579
sS'pos_y'
p6
I9779
sS'isAlive'
p7
I00
sS'cumulativeEnergy'
p8
F0.5
sS'geno'
p9
(lp10
(lp11
(lp12
S'POINT./'
p13
aS'cohesion'
p14
aaS'currentEnergy'
p15
a(lp16
S'separation'
p17
aaS'alignment'
p18
a(lp19
S'alignment'
p20
aS'POINT./'
p21
aaS'POINT.*'
p22
a(lp23
S'alignment'
p24
a(lp25
S'cohesion'
p26
aa(lp27
S'alignment'
p28
aS'POINT.-'
p29
aaS'cohesion'
p30
aa(lp31
S'randV'
p32
aS'separation'
p33
a(lp34
(lp35
S'POINT.+'
p36
a(lp37
S'POINT.*'
p38
aaaS'POINT./'
p39
a(lp40
S'POINT.+'
p41
aS'target'
p42
a(lp43
S'POINT./'
p44
aS'target'
p45
aaa(lp46
S'target'
p47
a(lp48
S'POINT.+'
p49
a(lp50
S'currentVelocity'
p51
aaaS'currentVelocity'
p52
aS'alignment'
p53
aaaaa(lp54
S'POINT.+'
p55
a(lp56
S'alignment'
p57
aa(lp58
S'currentEnergy'
p59
aaS'target'
p60
aS'randV'
p61
aaS'alignment'
p62
aS'target'
p63
a(lp64
S'currentVelocity'
p65
a(lp66
S'flee'
p67
aaa(lp68
S'currentVelocity'
p69
a(lp70
(lp71
S'separation'
p72
a(lp73
(lp74
S'currentVelocity'
p75
aS'POINT.*'
p76
aaS'cohesion'
p77
aaaS'randV'
p78
a(lp79
S'randV'
p80
aaaa(lp81
S'currentVelocity'
p82
aS'alignment'
p83
aasS'accel_x'
p84
F0
sS'accel_y'
p85
F0
sS'visionAngle'
p86
I150
sS'maxAccel'
p87
I2
sS'maxVel'
p88
F0.5
sS'age'
p89
I0
sS'tailSize'
p90
F4.3351626207179734
sS'sexualgeno'
p91
(i__main__
Node
p92
(dp93
S'depth'
p94
I1
sS'right'
p95
(i__main__
Node
p96
(dp97
g94
I2
sg95
(i__main__
Node
p98
(dp99
g94
I3
sg95
NsS'parent'
p100
g96
sS'float_size'
p101
S'indiv.getTailBrightness()'
p102
sS'float_bright'
p103
S'indiv.randF()'
p104
sS'left'
p105
Nsbsg100
g92
sg101
S'-'
sg103
S'+'
sg105
(i__main__
Node
p106
(dp107
g94
I3
sg95
Nsg100
g96
sg101
S'indiv.getNumPredatorsNeigh()'
p108
sg103
g108
sg105
Nsbsbsg100
Nsg101
S'-'
sg103
S'-'
sg105
(i__main__
Node
p109
(dp110
g94
I2
sg95
(i__main__
Node
p111
(dp112
g94
I3
sg95
Nsg100
g109
sg101
g108
sg103
S'indiv.getEnergy()'
p113
sg105
Nsbsg100
g92
sg101
S'+'
sg103
S'*'
sg105
(i__main__
Node
p114
(dp115
g94
I3
sg95
Nsg100
g109
sg101
g104
sg103
S'indiv.distanceMatingSeason()'
p116
sg105
NsbsbsbsS'tailBrigh'
p117
F6.7693364104525671
sS'maxSteering'
p118
I30
sS'energy'
p119
F0.5
sS'lastScale'
p120
F5.5
sb.(i__main__
Data_mobile
p1
(dp2
S'vel_y'
p3
I0
sS'vel_x'
p4
F0.69717390541181856
sS'pos_x'
p5
I-9579
sS'pos_y'
p6
I9779
sS'isAlive'
p7
I00
sS'cumulativeEnergy'
p8
F0.5
sS'geno'
p9
(lp10
(lp11
S'randV'
p12
aS'currentEnergy'
p13
aa(lp14
S'POINT./'
p15
aS'POINT.+'
p16
a(lp17
S'POINT.*'
p18
a(lp19
S'currentVelocity'
p20
aa(lp21
S'POINT.+'
p22
aS'cohesion'
p23
a(lp24
S'flee'
p25
aaaa(lp26
S'POINT.-'
p27
a(lp28
S'randV'
p29
a(lp30
S'separation'
p31
aS'cohesion'
p32
aa(lp33
(lp34
S'currentVelocity'
p35
aS'POINT.*'
p36
aa(lp37
S'cohesion'
p38
aS'currentEnergy'
p39
aS'POINT.*'
p40
aS'POINT./'
p41
aS'POINT.-'
p42
aa(lp43
S'target'
p44
aaS'target'
p45
aaa(lp46
(lp47
S'separation'
p48
aS'currentVelocity'
p49
aaS'POINT.+'
p50
aS'POINT./'
p51
aS'POINT.+'
p52
aa(lp53
S'POINT.-'
p54
aa(lp55
S'flee'
p56
aS'currentVelocity'
p57
aS'target'
p58
aS'separation'
p59
aaaaS'separation'
p60
a(lp61
S'currentVelocity'
p62
a(lp63
S'POINT.+'
p64
a(lp65
S'cohesion'
p66
aS'target'
p67
aaaa(lp68
(lp69
S'POINT.+'
p70
aS'POINT./'
p71
a(lp72
S'POINT.-'
p73
aS'POINT.+'
p74
a(lp75
S'cohesion'
p76
aS'separation'
p77
aS'flee'
p78
aaaaS'currentEnergy'
p79
aasS'accel_x'
p80
F0
sS'accel_y'
p81
F0
sS'visionAngle'
p82
I150
sS'maxAccel'
p83
I2
sS'maxVel'
p84
F0.5
sS'age'
p85
I0
sS'tailSize'
p86
F6.9717390541181858
sS'sexualgeno'
p87
(i__main__
Node
p88
(dp89
S'depth'
p90
I1
sS'right'
p91
(i__main__
Node
p92
(dp93
g90
I2
sg91
NsS'parent'
p94
g88
sS'float_size'
p95
S'indiv.getNumPredatorsNeigh()'
p96
sS'float_bright'
p97
g96
sS'left'
p98
Nsbsg94
Nsg95
S'-'
sg97
S'/'
sg98
(i__main__
Node
p99
(dp100
g90
I2
sg91
Nsg94
g88
sg95
S'indiv.randF()'
p101
sg97
S'indiv.distanceMatingSeason()'
p102
sg98
NsbsbsS'tailBrigh'
p103
F1.7268717846462667
sS'maxSteering'
p104
I30
sS'energy'
p105
F0.5
sS'lastScale'
p106
F5.5
sb.(i__main__
Data_mobile
p1
(dp2
S'vel_y'
p3
I0
sS'vel_x'
p4
F0.85525696385342442
sS'pos_x'
p5
I-9579
sS'pos_y'
p6
I9779
sS'isAlive'
p7
I00
sS'cumulativeEnergy'
p8
F0.5
sS'geno'
p9
(lp10
(lp11
(lp12
S'POINT./'
p13
aS'cohesion'
p14
aaS'currentEnergy'
p15
a(lp16
S'separation'
p17
aaS'alignment'
p18
a(lp19
S'alignment'
p20
aS'POINT./'
p21
aaS'POINT.*'
p22
a(lp23
S'alignment'
p24
a(lp25
S'cohesion'
p26
aa(lp27
S'alignment'
p28
aS'POINT.-'
p29
aaS'cohesion'
p30
aa(lp31
S'randV'
p32
aS'separation'
p33
a(lp34
(lp35
S'POINT.+'
p36
a(lp37
S'POINT.*'
p38
aaaS'POINT./'
p39
a(lp40
S'POINT.+'
p41
aS'target'
p42
a(lp43
S'POINT./'
p44
aS'target'
p45
aaa(lp46
S'target'
p47
a(lp48
S'POINT.+'
p49
a(lp50
S'currentVelocity'
p51
aaaS'currentVelocity'
p52
aS'alignment'
p53
aaaaa(lp54
S'POINT.+'
p55
a(lp56
S'alignment'
p57
aa(lp58
S'currentEnergy'
p59
aaS'target'
p60
aS'randV'
p61
aaS'alignment'
p62
aS'target'
p63
a(lp64
S'currentVelocity'
p65
a(lp66
S'flee'
p67
aaa(lp68
S'currentVelocity'
p69
a(lp70
(lp71
S'separation'
p72
a(lp73
(lp74
S'currentVelocity'
p75
aS'POINT.*'
p76
aaS'cohesion'
p77
aaaS'randV'
p78
a(lp79
S'randV'
p80
aaaa(lp81
S'currentVelocity'
p82
aS'alignment'
p83
aasS'accel_x'
p84
F0
sS'accel_y'
p85
F0
sS'visionAngle'
p86
I150
sS'maxAccel'
p87
I2
sS'maxVel'
p88
F0.5
sS'age'
p89
I0
sS'tailSize'
p90
F8.5525696385342442
sS'sexualgeno'
p91
(i__main__
Node
p92
(dp93
S'depth'
p94
I1
sS'right'
p95
(i__main__
Node
p96
(dp97
g94
I2
sg95
(i__main__
Node
p98
(dp99
g94
I3
sg95
NsS'parent'
p100
g96
sS'float_size'
p101
S'indiv.getNumPredatorsNeigh()'
p102
sS'float_bright'
p103
S'indiv.getEnergy()'
p104
sS'left'
p105
Nsbsg100
g92
sg101
S'+'
sg103
S'*'
sg105
(i__main__
Node
p106
(dp107
g94
I3
sg95
Nsg100
g96
sg101
S'indiv.randF()'
p108
sg103
S'indiv.distanceMatingSeason()'
p109
sg105
Nsbsbsg100
Nsg101
S'-'
sg103
S'-'
sg105
(i__main__
Node
p110
(dp111
g94
I2
sg95
(i__main__
Node
p112
(dp113
g94
I3
sg95
Nsg100
g110
sg101
g102
sg103
g104
sg105
Nsbsg100
g92
sg101
S'+'
sg103
S'*'
sg105
(i__main__
Node
p114
(dp115
g94
I3
sg95
Nsg100
g110
sg101
g108
sg103
g109
sg105
NsbsbsbsS'tailBrigh'
p116
F1.8459088472068153
sS'maxSteering'
p117
I30
sS'energy'
p118
F0.5
sS'lastScale'
p119
F5.5
sb.(i__main__
Data_mobile
p1
(dp2
S'vel_y'
p3
I0
sS'vel_x'
p4
F0.60226311717644598
sS'pos_x'
p5
I-9579
sS'pos_y'
p6
I9779
sS'isAlive'
p7
I00
sS'cumulativeEnergy'
p8
F0.5
sS'geno'
p9
(lp10
(lp11
(lp12
S'POINT./'
p13
aS'cohesion'
p14
aaS'currentEnergy'
p15
a(lp16
S'separation'
p17
aaS'alignment'
p18
a(lp19
S'alignment'
p20
aS'POINT./'
p21
aaS'POINT.*'
p22
a(lp23
S'alignment'
p24
a(lp25
S'cohesion'
p26
aa(lp27
S'alignment'
p28
aS'POINT.-'
p29
aaS'cohesion'
p30
aa(lp31
S'randV'
p32
aS'separation'
p33
a(lp34
(lp35
S'POINT.+'
p36
a(lp37
S'POINT.*'
p38
aaaS'POINT./'
p39
a(lp40
S'POINT.+'
p41
aS'target'
p42
a(lp43
S'POINT./'
p44
aS'target'
p45
aaa(lp46
S'target'
p47
a(lp48
S'POINT.+'
p49
a(lp50
S'currentVelocity'
p51
aaaS'currentVelocity'
p52
aS'alignment'
p53
aaaaa(lp54
S'POINT.+'
p55
a(lp56
S'alignment'
p57
aa(lp58
S'currentEnergy'
p59
aaS'target'
p60
aS'randV'
p61
aaS'alignment'
p62
aS'target'
p63
a(lp64
S'currentVelocity'
p65
a(lp66
S'flee'
p67
aaa(lp68
S'currentVelocity'
p69
a(lp70
(lp71
S'separation'
p72
a(lp73
(lp74
S'currentVelocity'
p75
aS'POINT.*'
p76
aaS'cohesion'
p77
aaaS'randV'
p78
a(lp79
S'randV'
p80
aaaa(lp81
S'currentVelocity'
p82
aS'alignment'
p83
aasS'accel_x'
p84
F0
sS'accel_y'
p85
F0
sS'visionAngle'
p86
I150
sS'maxAccel'
p87
I2
sS'maxVel'
p88
F0.5
sS'age'
p89
I0
sS'tailSize'
p90
F6.0226311717644601
sS'sexualgeno'
p91
(i__main__
Node
p92
(dp93
S'depth'
p94
I1
sS'right'
p95
(i__main__
Node
p96
(dp97
g94
I2
sg95
(i__main__
Node
p98
(dp99
g94
I3
sg95
NsS'parent'
p100
g96
sS'float_size'
p101
S'indiv.getTailBrightness()'
p102
sS'float_bright'
p103
S'indiv.distanceMatingSeason()'
p104
sS'left'
p105
Nsbsg100
g92
sg101
S'*'
sg103
S'/'
sg105
(i__main__
Node
p106
(dp107
g94
I3
sg95
(i__main__
Node
p108
(dp109
g94
I4
sg95
Nsg100
g106
sg101
S'indiv.randF()'
p110
sg103
g110
sg105
Nsbsg100
g96
sg101
S'+'
sg103
S'/'
sg105
(i__main__
Node
p111
(dp112
g94
I4
sg95
Nsg100
g106
sg101
S'indiv.getTailSize()'
p113
sg103
S'indiv.getEnergy()'
p114
sg105
Nsbsbsbsg100
Nsg101
S'-'
sg103
S'-'
sg105
(i__main__
Node
p115
(dp116
g94
I2
sg95
(i__main__
Node
p117
(dp118
g94
I3
sg95
Nsg100
g115
sg101
g110
sg103
S'indiv.getNumPredatorsNeigh()'
p119
sg105
Nsbsg100
g92
sg101
S'/'
sg103
S'+'
sg105
(i__main__
Node
p120
(dp121
g94
I3
sg95
Nsg100
g115
sg101
g104
sg103
g110
sg105
NsbsbsbsS'tailBrigh'
p122
F5.7612454703976983
sS'maxSteering'
p123
I30
sS'energy'
p124
F0.5
sS'lastScale'
p125
F5.5
sb.(i__main__
Data_mobile
p1
(dp2
S'vel_y'
p3
I0
sS'vel_x'
p4
F0.45138967277730407
sS'pos_x'
p5
I-9579
sS'pos_y'
p6
I9779
sS'isAlive'
p7
I00
sS'cumulativeEnergy'
p8
F0.5
sS'geno'
p9
(lp10
(lp11
(lp12
S'POINT./'
p13
aS'cohesion'
p14
aaS'currentEnergy'
p15
a(lp16
S'separation'
p17
aaS'alignment'
p18
a(lp19
S'alignment'
p20
aS'POINT./'
p21
aaS'POINT.*'
p22
a(lp23
S'alignment'
p24
a(lp25
S'cohesion'
p26
aa(lp27
S'alignment'
p28
aS'POINT.-'
p29
aaS'cohesion'
p30
aa(lp31
S'randV'
p32
aS'separation'
p33
a(lp34
(lp35
S'POINT.+'
p36
a(lp37
S'POINT.*'
p38
aaaS'POINT./'
p39
a(lp40
S'POINT.+'
p41
aS'target'
p42
a(lp43
S'POINT./'
p44
aS'target'
p45
aaa(lp46
S'target'
p47
a(lp48
S'POINT.+'
p49
a(lp50
S'currentVelocity'
p51
aaaS'currentVelocity'
p52
aS'alignment'
p53
aaaaa(lp54
S'POINT.+'
p55
a(lp56
S'alignment'
p57
aa(lp58
S'currentEnergy'
p59
aaS'target'
p60
aS'randV'
p61
aaS'alignment'
p62
aS'target'
p63
a(lp64
S'currentVelocity'
p65
a(lp66
S'flee'
p67
aaa(lp68
S'currentVelocity'
p69
a(lp70
(lp71
S'separation'
p72
a(lp73
(lp74
S'currentVelocity'
p75
aS'POINT.*'
p76
aaS'cohesion'
p77
aaaS'randV'
p78
a(lp79
S'randV'
p80
aaaa(lp81
S'currentVelocity'
p82
aS'alignment'
p83
aasS'accel_x'
p84
F0
sS'accel_y'
p85
F0
sS'visionAngle'
p86
I150
sS'maxAccel'
p87
I2
sS'maxVel'
p88
F0.5
sS'age'
p89
I0
sS'tailSize'
p90
F4.5138967277730409
sS'sexualgeno'
p91
(i__main__
Node
p92
(dp93
S'depth'
p94
I1
sS'right'
p95
(i__main__
Node
p96
(dp97
g94
I2
sg95
(i__main__
Node
p98
(dp99
g94
I3
sg95
NsS'parent'
p100
g96
sS'float_size'
p101
S'indiv.getTailBrightness()'
p102
sS'float_bright'
p103
S'indiv.randF()'
p104
sS'left'
p105
Nsbsg100
g92
sg101
S'-'
sg103
S'+'
sg105
(i__main__
Node
p106
(dp107
g94
I3
sg95
Nsg100
g96
sg101
S'indiv.getNumPredatorsNeigh()'
p108
sg103
g108
sg105
Nsbsbsg100
Nsg101
S'-'
sg103
S'-'
sg105
(i__main__
Node
p109
(dp110
g94
I2
sg95
(i__main__
Node
p111
(dp112
g94
I3
sg95
Nsg100
g109
sg101
g102
sg103
S'indiv.distanceMatingSeason()'
p113
sg105
Nsbsg100
g92
sg101
S'*'
sg103
S'/'
sg105
(i__main__
Node
p114
(dp115
g94
I3
sg95
(i__main__
Node
p116
(dp117
g94
I4
sg95
Nsg100
g114
sg101
g108
sg103
S'indiv.getNumPreysNeigh()'
p118
sg105
Nsbsg100
g109
sg101
S'/'
sg103
S'*'
sg105
(i__main__
Node
p119
(dp120
g94
I4
sg95
Nsg100
g114
sg101
g113
sg103
S'indiv.getTailSize()'
p121
sg105
NsbsbsbsbsS'tailBrigh'
p122
F2.9721237027258205
sS'maxSteering'
p123
I30
sS'energy'
p124
F0.5
sS'lastScale'
p125
F5.5
sb.(i__main__
Data_mobile
p1
(dp2
S'vel_y'
p3
I0
sS'vel_x'
p4
F0.13786537558960221
sS'pos_x'
p5
I-9579
sS'pos_y'
p6
I9779
sS'isAlive'
p7
I00
sS'cumulativeEnergy'
p8
F0.5
sS'geno'
p9
(lp10
(lp11
(lp12
S'POINT./'
p13
aS'cohesion'
p14
aaS'currentEnergy'
p15
a(lp16
S'separation'
p17
aaS'alignment'
p18
a(lp19
S'alignment'
p20
aS'POINT./'
p21
aaS'POINT.*'
p22
a(lp23
S'alignment'
p24
a(lp25
S'cohesion'
p26
aa(lp27
S'alignment'
p28
aS'POINT.-'
p29
aaS'cohesion'
p30
aa(lp31
S'randV'
p32
aS'separation'
p33
a(lp34
(lp35
S'POINT.+'
p36
a(lp37
S'POINT.*'
p38
aaaS'POINT./'
p39
a(lp40
S'POINT.+'
p41
aS'target'
p42
a(lp43
S'POINT./'
p44
aS'target'
p45
aaa(lp46
S'target'
p47
a(lp48
S'POINT.+'
p49
a(lp50
S'currentVelocity'
p51
aaaS'currentVelocity'
p52
aS'alignment'
p53
aaaaa(lp54
S'POINT.+'
p55
a(lp56
S'alignment'
p57
aa(lp58
S'currentEnergy'
p59
aaS'target'
p60
aS'randV'
p61
aaS'alignment'
p62
aS'target'
p63
a(lp64
S'currentVelocity'
p65
a(lp66
S'flee'
p67
aaa(lp68
S'currentVelocity'
p69
a(lp70
(lp71
S'separation'
p72
a(lp73
(lp74
S'currentVelocity'
p75
aS'POINT.*'
p76
aaS'cohesion'
p77
aaaS'randV'
p78
a(lp79
S'randV'
p80
aaaa(lp81
S'currentVelocity'
p82
aS'alignment'
p83
aasS'accel_x'
p84
F0
sS'accel_y'
p85
F0
sS'visionAngle'
p86
I150
sS'maxAccel'
p87
I2
sS'maxVel'
p88
F0.5
sS'age'
p89
I0
sS'tailSize'
p90
F1.3786537558960221
sS'sexualgeno'
p91
(i__main__
Node
p92
(dp93
S'depth'
p94
I1
sS'right'
p95
(i__main__
Node
p96
(dp97
g94
I2
sg95
(i__main__
Node
p98
(dp99
g94
I3
sg95
NsS'parent'
p100
g96
sS'float_size'
p101
S'indiv.getTailBrightness()'
p102
sS'float_bright'
p103
S'indiv.distanceMatingSeason()'
p104
sS'left'
p105
Nsbsg100
g92
sg101
S'*'
sg103
S'/'
sg105
(i__main__
Node
p106
(dp107
g95
Nsg100
g96
sg94
I3
sg101
S'indiv.getEnergy()'
p108
sg103
g104
sg105
Nsbsbsg100
Nsg101
S'-'
sg103
S'-'
sg105
(i__main__
Node
p109
(dp110
g94
I2
sg95
(i__main__
Node
p111
(dp112
g94
I3
sg95
Nsg100
g109
sg101
S'indiv.getNumPredatorsNeigh()'
p113
sg103
g108
sg105
Nsbsg100
g92
sg101
S'+'
sg103
S'*'
sg105
(i__main__
Node
p114
(dp115
g94
I3
sg95
Nsg100
g109
sg101
S'indiv.randF()'
p116
sg103
g104
sg105
NsbsbsbsS'tailBrigh'
p117
F4.2330002710094305
sS'maxSteering'
p118
I30
sS'energy'
p119
F0.5
sS'lastScale'
p120
F5.5
sb.(i__main__
Data_mobile
p1
(dp2
S'vel_y'
p3
I0
sS'vel_x'
p4
F0.73663751942834232
sS'pos_x'
p5
I-9579
sS'pos_y'
p6
I9779
sS'isAlive'
p7
I00
sS'cumulativeEnergy'
p8
F0.5
sS'geno'
p9
(lp10
(lp11
(lp12
S'POINT./'
p13
aS'cohesion'
p14
aaS'currentEnergy'
p15
a(lp16
S'separation'
p17
aaS'alignment'
p18
a(lp19
S'alignment'
p20
aS'POINT./'
p21
aaS'POINT.*'
p22
a(lp23
S'alignment'
p24
a(lp25
S'cohesion'
p26
aa(lp27
S'alignment'
p28
aS'POINT.-'
p29
aaS'cohesion'
p30
aa(lp31
S'randV'
p32
aS'separation'
p33
a(lp34
(lp35
S'POINT.+'
p36
a(lp37
S'POINT.*'
p38
aaaS'POINT./'
p39
a(lp40
S'POINT.+'
p41
aS'target'
p42
a(lp43
S'POINT./'
p44
aS'target'
p45
aaa(lp46
S'target'
p47
a(lp48
S'POINT.+'
p49
a(lp50
S'currentVelocity'
p51
aaaS'currentVelocity'
p52
aS'alignment'
p53
aaaaa(lp54
S'POINT.+'
p55
a(lp56
S'alignment'
p57
aa(lp58
S'currentEnergy'
p59
aaS'target'
p60
aS'randV'
p61
aaS'alignment'
p62
aS'target'
p63
a(lp64
S'currentVelocity'
p65
a(lp66
S'flee'
p67
aaa(lp68
S'currentVelocity'
p69
a(lp70
(lp71
S'separation'
p72
a(lp73
(lp74
S'currentVelocity'
p75
aS'POINT.*'
p76
aaS'cohesion'
p77
aaaS'randV'
p78
a(lp79
S'randV'
p80
aaaa(lp81
S'currentVelocity'
p82
aS'alignment'
p83
aasS'accel_x'
p84
F0
sS'accel_y'
p85
F0
sS'visionAngle'
p86
I150
sS'maxAccel'
p87
I2
sS'maxVel'
p88
F0.5
sS'age'
p89
I0
sS'tailSize'
p90
F7.3663751942834228
sS'sexualgeno'
p91
(i__main__
Node
p92
(dp93
S'depth'
p94
I1
sS'right'
p95
(i__main__
Node
p96
(dp97
g94
I2
sg95
(i__main__
Node
p98
(dp99
g94
I3
sg95
NsS'parent'
p100
g96
sS'float_size'
p101
S'indiv.getTailBrightness()'
p102
sS'float_bright'
p103
S'indiv.randF()'
p104
sS'left'
p105
Nsbsg100
g92
sg101
S'-'
sg103
S'+'
sg105
(i__main__
Node
p106
(dp107
g94
I3
sg95
Nsg100
g96
sg101
S'indiv.getNumPredatorsNeigh()'
p108
sg103
g108
sg105
Nsbsbsg100
Nsg101
S'-'
sg103
S'-'
sg105
(i__main__
Node
p109
(dp110
g94
I2
sg95
(i__main__
Node
p111
(dp112
g94
I3
sg95
Nsg100
g109
sg101
g108
sg103
S'indiv.getEnergy()'
p113
sg105
Nsbsg100
g92
sg101
S'+'
sg103
S'*'
sg105
(i__main__
Node
p114
(dp115
g94
I3
sg95
Nsg100
g109
sg101
g104
sg103
S'indiv.distanceMatingSeason()'
p116
sg105
NsbsbsbsS'tailBrigh'
p117
F4.3035619899858357
sS'maxSteering'
p118
I30
sS'energy'
p119
F0.5
sS'lastScale'
p120
F5.5
sb.(i__main__
Data_mobile
p1
(dp2
S'vel_y'
p3
I0
sS'vel_x'
p4
F0.37992339151008692
sS'pos_x'
p5
I-9579
sS'pos_y'
p6
I9779
sS'isAlive'
p7
I00
sS'cumulativeEnergy'
p8
F0.5
sS'geno'
p9
(lp10
S'flee'
p11
a(lp12
S'target'
p13
aS'randV'
p14
aS'separation'
p15
aa(lp16
S'target'
p17
aasS'accel_x'
p18
F0
sS'accel_y'
p19
F0
sS'visionAngle'
p20
I150
sS'maxAccel'
p21
I2
sS'maxVel'
p22
F0.5
sS'age'
p23
I0
sS'tailSize'
p24
F3.7992339151008689
sS'sexualgeno'
p25
(i__main__
Node
p26
(dp27
S'depth'
p28
I1
sS'right'
p29
(i__main__
Node
p30
(dp31
g28
I2
sg29
(i__main__
Node
p32
(dp33
g28
I3
sg29
NsS'parent'
p34
g30
sS'float_size'
p35
S'indiv.getTailBrightness()'
p36
sS'float_bright'
p37
S'indiv.randF()'
p38
sS'left'
p39
Nsbsg34
g26
sg35
S'-'
sg37
S'+'
sg39
(i__main__
Node
p40
(dp41
g28
I3
sg29
Nsg34
g30
sg35
S'indiv.getNumPredatorsNeigh()'
p42
sg37
g42
sg39
Nsbsbsg34
Nsg35
S'*'
sg37
S'/'
sg39
(i__main__
Node
p43
(dp44
g28
I2
sg29
(i__main__
Node
p45
(dp46
g28
I3
sg29
Nsg34
g43
sg35
g38
sg37
g38
sg39
Nsbsg34
g26
sg35
S'+'
sg37
S'/'
sg39
(i__main__
Node
p47
(dp48
g28
I3
sg29
Nsg34
g43
sg35
S'indiv.getTailSize()'
p49
sg37
S'indiv.getEnergy()'
p50
sg39
NsbsbsbsS'tailBrigh'
p51
F1.8288164542248808
sS'maxSteering'
p52
I30
sS'energy'
p53
F0.5
sS'lastScale'
p54
F5.5
sb.(i__main__
Data_mobile
p1
(dp2
S'vel_y'
p3
I0
sS'vel_x'
p4
F0.96080196060808765
sS'pos_x'
p5
I-9579
sS'pos_y'
p6
I9779
sS'isAlive'
p7
I00
sS'cumulativeEnergy'
p8
F0.5
sS'geno'
p9
(lp10
(lp11
(lp12
S'POINT./'
p13
aS'cohesion'
p14
aaS'currentEnergy'
p15
a(lp16
S'separation'
p17
aaS'alignment'
p18
a(lp19
S'alignment'
p20
aS'POINT./'
p21
aaS'POINT.*'
p22
a(lp23
S'alignment'
p24
a(lp25
S'cohesion'
p26
aa(lp27
S'alignment'
p28
aS'POINT.-'
p29
aaS'cohesion'
p30
aa(lp31
S'randV'
p32
aS'separation'
p33
a(lp34
(lp35
S'POINT.+'
p36
a(lp37
S'POINT.*'
p38
aaaS'POINT./'
p39
a(lp40
S'POINT.+'
p41
aS'target'
p42
a(lp43
S'POINT./'
p44
aS'target'
p45
aaa(lp46
S'target'
p47
a(lp48
S'POINT.+'
p49
a(lp50
S'currentVelocity'
p51
aaaS'currentVelocity'
p52
aS'alignment'
p53
aaaaa(lp54
S'POINT.+'
p55
a(lp56
S'alignment'
p57
aa(lp58
S'currentEnergy'
p59
aaS'target'
p60
aS'randV'
p61
aaS'alignment'
p62
aS'target'
p63
a(lp64
S'currentVelocity'
p65
a(lp66
S'flee'
p67
aaa(lp68
S'currentVelocity'
p69
a(lp70
(lp71
S'separation'
p72
a(lp73
(lp74
S'currentVelocity'
p75
aS'POINT.*'
p76
aaS'cohesion'
p77
aaaS'randV'
p78
a(lp79
S'randV'
p80
aaaa(lp81
S'currentVelocity'
p82
aS'alignment'
p83
aasS'accel_x'
p84
F0
sS'accel_y'
p85
F0
sS'visionAngle'
p86
I150
sS'maxAccel'
p87
I2
sS'maxVel'
p88
F0.5
sS'age'
p89
I0
sS'tailSize'
p90
F9.6080196060808767
sS'sexualgeno'
p91
(i__main__
Node
p92
(dp93
S'depth'
p94
I1
sS'right'
p95
(i__main__
Node
p96
(dp97
g95
(i__main__
Node
p98
(dp99
g95
NsS'parent'
p100
g96
sg94
I3
sS'float_size'
p101
S'indiv.getTailBrightness()'
p102
sS'float_bright'
p103
g102
sS'left'
p104
Nsbsg100
g92
sg94
I2
sg101
S'-'
sg103
S'+'
sg104
(i__main__
Node
p105
(dp106
g95
Nsg100
g96
sg94
I3
sg101
S'indiv.getTailSize()'
p107
sg103
g102
sg104
Nsbsbsg100
Nsg101
S'-'
sg103
S'-'
sg104
(i__main__
Node
p108
(dp109
g94
I2
sg95
(i__main__
Node
p110
(dp111
g94
I3
sg95
Nsg100
g108
sg101
S'indiv.getNumPredatorsNeigh()'
p112
sg103
S'indiv.getEnergy()'
p113
sg104
Nsbsg100
g92
sg101
S'+'
sg103
S'*'
sg104
(i__main__
Node
p114
(dp115
g94
I3
sg95
Nsg100
g108
sg101
S'indiv.randF()'
p116
sg103
S'indiv.distanceMatingSeason()'
p117
sg104
NsbsbsbsS'tailBrigh'
p118
F2.2862860443525737
sS'maxSteering'
p119
I30
sS'energy'
p120
F0.5
sS'lastScale'
p121
F5.5
sb.(i__main__
Data_mobile
p1
(dp2
S'vel_y'
p3
I0
sS'vel_x'
p4
F0.68727936278368862
sS'pos_x'
p5
I-9579
sS'pos_y'
p6
I9779
sS'isAlive'
p7
I00
sS'cumulativeEnergy'
p8
F0.5
sS'geno'
p9
(lp10
S'flee'
p11
a(lp12
(lp13
S'POINT./'
p14
aaS'randV'
p15
aS'separation'
p16
aa(lp17
S'target'
p18
aasS'accel_x'
p19
F0
sS'accel_y'
p20
F0
sS'visionAngle'
p21
I150
sS'maxAccel'
p22
I2
sS'maxVel'
p23
F0.5
sS'age'
p24
I0
sS'tailSize'
p25
F6.8727936278368862
sS'sexualgeno'
p26
(i__main__
Node
p27
(dp28
S'depth'
p29
I1
sS'right'
p30
(i__main__
Node
p31
(dp32
g29
I2
sg30
(i__main__
Node
p33
(dp34
g29
I3
sg30
NsS'parent'
p35
g31
sS'float_size'
p36
S'indiv.getTailBrightness()'
p37
sS'float_bright'
p38
S'indiv.randF()'
p39
sS'left'
p40
Nsbsg35
g27
sg36
S'-'
sg38
S'+'
sg40
(i__main__
Node
p41
(dp42
g29
I3
sg30
Nsg35
g31
sg36
S'indiv.getNumPredatorsNeigh()'
p43
sg38
g43
sg40
Nsbsbsg35
Nsg36
S'*'
sg38
S'/'
sg40
(i__main__
Node
p44
(dp45
g29
I2
sg30
(i__main__
Node
p46
(dp47
g29
I3
sg30
Nsg35
g44
sg36
g37
sg38
S'indiv.distanceMatingSeason()'
p48
sg40
Nsbsg35
g27
sg36
S'*'
sg38
S'/'
sg40
(i__main__
Node
p49
(dp50
g30
(i__main__
Node
p51
(dp52
g30
Nsg35
g49
sg29
I4
sg36
g43
sg38
S'indiv.getNumPreysNeigh()'
p53
sg40
Nsbsg35
g44
sg29
I3
sg36
S'/'
sg38
S'*'
sg40
(i__main__
Node
p54
(dp55
g30
Nsg35
g49
sg29
I4
sg36
g48
sg38
S'indiv.getTailSize()'
p56
sg40
NsbsbsbsbsS'tailBrigh'
p57
F3.287827573666946
sS'maxSteering'
p58
I30
sS'energy'
p59
F0.5
sS'lastScale'
p60
F5.5
sb.(i__main__
Data_mobile
p1
(dp2
S'vel_y'
p3
I0
sS'vel_x'
p4
F0.27740738862379855
sS'pos_x'
p5
I-9579
sS'pos_y'
p6
I9779
sS'isAlive'
p7
I00
sS'cumulativeEnergy'
p8
F0.5
sS'geno'
p9
(lp10
(lp11
(lp12
S'POINT./'
p13
aS'cohesion'
p14
aaS'currentEnergy'
p15
a(lp16
S'separation'
p17
aaS'alignment'
p18
a(lp19
S'alignment'
p20
aS'POINT./'
p21
aaS'POINT.*'
p22
a(lp23
S'alignment'
p24
a(lp25
S'cohesion'
p26
aa(lp27
S'alignment'
p28
aS'POINT.-'
p29
aaS'cohesion'
p30
aa(lp31
S'randV'
p32
aS'separation'
p33
a(lp34
(lp35
S'POINT.+'
p36
a(lp37
S'POINT.*'
p38
aaaS'POINT./'
p39
a(lp40
S'POINT.+'
p41
aS'target'
p42
a(lp43
S'POINT./'
p44
aS'target'
p45
aaa(lp46
S'target'
p47
a(lp48
S'POINT.+'
p49
a(lp50
S'currentVelocity'
p51
aaaS'currentVelocity'
p52
aS'alignment'
p53
aaaaa(lp54
S'POINT.+'
p55
a(lp56
S'alignment'
p57
aa(lp58
S'currentEnergy'
p59
aaS'target'
p60
aS'randV'
p61
aaS'alignment'
p62
aS'target'
p63
a(lp64
S'currentVelocity'
p65
a(lp66
S'flee'
p67
aaa(lp68
S'currentVelocity'
p69
a(lp70
(lp71
S'separation'
p72
a(lp73
(lp74
S'currentVelocity'
p75
aS'POINT.*'
p76
aaS'cohesion'
p77
aaaS'randV'
p78
a(lp79
S'randV'
p80
aaaa(lp81
S'currentVelocity'
p82
aS'alignment'
p83
aasS'accel_x'
p84
F0
sS'accel_y'
p85
F0
sS'visionAngle'
p86
I150
sS'maxAccel'
p87
I2
sS'maxVel'
p88
F0.5
sS'age'
p89
I0
sS'tailSize'
p90
F2.7740738862379857
sS'sexualgeno'
p91
(i__main__
Node
p92
(dp93
S'depth'
p94
I1
sS'right'
p95
(i__main__
Node
p96
(dp97
g94
I2
sg95
(i__main__
Node
p98
(dp99
g95
NsS'parent'
p100
g96
sg94
I3
sS'float_size'
p101
S'indiv.getTailBrightness()'
p102
sS'float_bright'
p103
S'indiv.distanceMatingSeason()'
p104
sS'left'
p105
Nsbsg100
g92
sg101
S'*'
sg103
S'/'
sg105
(i__main__
Node
p106
(dp107
g94
I3
sg95
(i__main__
Node
p108
(dp109
g94
I4
sg95
Nsg100
g106
sg101
S'indiv.randF()'
p110
sg103
g110
sg105
Nsbsg100
g96
sg101
S'+'
sg103
S'/'
sg105
(i__main__
Node
p111
(dp112
g94
I4
sg95
Nsg100
g106
sg101
S'indiv.getTailSize()'
p113
sg103
S'indiv.getEnergy()'
p114
sg105
Nsbsbsbsg100
Nsg101
S'-'
sg103
S'-'
sg105
(i__main__
Node
p115
(dp116
g94
I2
sg95
(i__main__
Node
p117
(dp118
g94
I3
sg95
Nsg100
g115
sg101
S'indiv.getNumPredatorsNeigh()'
p119
sg103
g114
sg105
Nsbsg100
g92
sg101
S'+'
sg103
S'*'
sg105
(i__main__
Node
p120
(dp121
g94
I3
sg95
Nsg100
g115
sg101
g110
sg103
g104
sg105
NsbsbsbsS'tailBrigh'
p122
F0.49636234369280996
sS'maxSteering'
p123
I30
sS'energy'
p124
F0.5
sS'lastScale'
p125
F5.5
sb.(i__main__
Data_mobile
p1
(dp2
S'vel_y'
p3
I0
sS'vel_x'
p4
F0.73755523897368225
sS'pos_x'
p5
I-9579
sS'pos_y'
p6
I9779
sS'isAlive'
p7
I00
sS'cumulativeEnergy'
p8
F0.5
sS'geno'
p9
(lp10
(lp11
(lp12
S'POINT./'
p13
aS'cohesion'
p14
aaS'currentEnergy'
p15
a(lp16
S'separation'
p17
aaS'alignment'
p18
a(lp19
S'alignment'
p20
aS'POINT./'
p21
aaS'POINT.*'
p22
a(lp23
S'alignment'
p24
a(lp25
S'cohesion'
p26
aa(lp27
S'alignment'
p28
aS'POINT.-'
p29
aaS'cohesion'
p30
aa(lp31
S'randV'
p32
aS'separation'
p33
a(lp34
(lp35
S'POINT.+'
p36
a(lp37
S'POINT.*'
p38
aaaS'POINT./'
p39
a(lp40
S'POINT.+'
p41
aS'target'
p42
a(lp43
S'POINT./'
p44
aS'target'
p45
aaa(lp46
S'target'
p47
a(lp48
S'POINT.+'
p49
a(lp50
S'currentVelocity'
p51
aaaS'currentVelocity'
p52
aS'alignment'
p53
aaaaa(lp54
S'POINT.+'
p55
a(lp56
S'alignment'
p57
aa(lp58
S'currentEnergy'
p59
aaS'target'
p60
aS'randV'
p61
aaS'alignment'
p62
aS'target'
p63
a(lp64
S'currentVelocity'
p65
a(lp66
S'flee'
p67
aaa(lp68
S'currentVelocity'
p69
a(lp70
(lp71
S'separation'
p72
a(lp73
(lp74
S'currentVelocity'
p75
aS'POINT.*'
p76
aaS'cohesion'
p77
aaaS'randV'
p78
a(lp79
S'randV'
p80
aaaa(lp81
S'currentVelocity'
p82
aS'alignment'
p83
aasS'accel_x'
p84
F0
sS'accel_y'
p85
F0
sS'visionAngle'
p86
I150
sS'maxAccel'
p87
I2
sS'maxVel'
p88
F0.5
sS'age'
p89
I0
sS'tailSize'
p90
F7.3755523897368223
sS'sexualgeno'
p91
(i__main__
Node
p92
(dp93
S'depth'
p94
I1
sS'right'
p95
(i__main__
Node
p96
(dp97
g94
I2
sg95
(i__main__
Node
p98
(dp99
g94
I3
sg95
NsS'parent'
p100
g96
sS'float_size'
p101
S'indiv.getTailBrightness()'
p102
sS'float_bright'
p103
S'indiv.distanceMatingSeason()'
p104
sS'left'
p105
Nsbsg100
g92
sg101
S'*'
sg103
S'/'
sg105
(i__main__
Node
p106
(dp107
g94
I3
sg95
(i__main__
Node
p108
(dp109
g94
I4
sg95
Nsg100
g106
sg101
S'indiv.randF()'
p110
sg103
g110
sg105
Nsbsg100
g96
sg101
S'+'
sg103
S'/'
sg105
(i__main__
Node
p111
(dp112
g94
I4
sg95
Nsg100
g106
sg101
S'indiv.getTailSize()'
p113
sg103
S'indiv.getEnergy()'
p114
sg105
Nsbsbsbsg100
Nsg101
S'-'
sg103
S'-'
sg105
(i__main__
Node
p115
(dp116
g94
I2
sg95
(i__main__
Node
p117
(dp118
g94
I3
sg95
Nsg100
g115
sg101
g110
sg103
S'indiv.getNumPredatorsNeigh()'
p119
sg105
Nsbsg100
g92
sg101
S'/'
sg103
S'+'
sg105
(i__main__
Node
p120
(dp121
g94
I3
sg95
Nsg100
g115
sg101
g104
sg103
g110
sg105
NsbsbsbsS'tailBrigh'
p122
F1.8999935414017566
sS'maxSteering'
p123
I30
sS'energy'
p124
F0.5
sS'lastScale'
p125
F5.5
sb.(i__main__
Data_mobile
p1
(dp2
S'vel_y'
p3
I0
sS'vel_x'
p4
F0.35124045652889524
sS'pos_x'
p5
I-9579
sS'pos_y'
p6
I9779
sS'isAlive'
p7
I00
sS'cumulativeEnergy'
p8
F0.5
sS'geno'
p9
(lp10
(lp11
(lp12
S'POINT./'
p13
aS'cohesion'
p14
aaS'currentEnergy'
p15
a(lp16
S'separation'
p17
aaS'alignment'
p18
a(lp19
S'alignment'
p20
aS'POINT./'
p21
aaS'POINT.*'
p22
a(lp23
S'alignment'
p24
a(lp25
S'cohesion'
p26
aa(lp27
S'alignment'
p28
aS'POINT.-'
p29
aaS'cohesion'
p30
aa(lp31
S'randV'
p32
aS'separation'
p33
a(lp34
(lp35
S'POINT.+'
p36
a(lp37
S'POINT.*'
p38
aaaS'POINT./'
p39
a(lp40
S'POINT.+'
p41
aS'target'
p42
a(lp43
S'POINT./'
p44
aS'target'
p45
aaa(lp46
S'target'
p47
a(lp48
S'POINT.+'
p49
a(lp50
S'currentVelocity'
p51
aaaS'currentVelocity'
p52
aS'alignment'
p53
aaaaa(lp54
S'POINT.+'
p55
a(lp56
S'alignment'
p57
aa(lp58
S'currentEnergy'
p59
aaS'target'
p60
aS'randV'
p61
aaS'alignment'
p62
aS'target'
p63
a(lp64
S'currentVelocity'
p65
a(lp66
S'flee'
p67
aaa(lp68
S'currentVelocity'
p69
a(lp70
(lp71
S'separation'
p72
a(lp73
(lp74
S'currentVelocity'
p75
aS'POINT.*'
p76
aaS'cohesion'
p77
aaaS'randV'
p78
a(lp79
S'randV'
p80
aaaa(lp81
S'currentVelocity'
p82
aS'alignment'
p83
aasS'accel_x'
p84
F0
sS'accel_y'
p85
F0
sS'visionAngle'
p86
I150
sS'maxAccel'
p87
I2
sS'maxVel'
p88
F0.5
sS'age'
p89
I0
sS'tailSize'
p90
F3.5124045652889526
sS'sexualgeno'
p91
(i__main__
Node
p92
(dp93
S'depth'
p94
I1
sS'right'
p95
(i__main__
Node
p96
(dp97
g94
I2
sg95
(i__main__
Node
p98
(dp99
g94
I3
sg95
NsS'parent'
p100
g96
sS'float_size'
p101
S'indiv.getTailBrightness()'
p102
sS'float_bright'
p103
S'indiv.distanceMatingSeason()'
p104
sS'left'
p105
Nsbsg100
g92
sg101
S'*'
sg103
S'/'
sg105
(i__main__
Node
p106
(dp107
g94
I3
sg95
(i__main__
Node
p108
(dp109
g94
I4
sg95
Nsg100
g106
sg101
S'indiv.randF()'
p110
sg103
S'indiv.getNumPredatorsNeigh()'
p111
sg105
Nsbsg100
g96
sg101
S'*'
sg103
S'+'
sg105
(i__main__
Node
p112
(dp113
g94
I4
sg95
Nsg100
g106
sg101
g102
sg103
g110
sg105
Nsbsbsbsg100
Nsg101
S'-'
sg103
S'-'
sg105
(i__main__
Node
p114
(dp115
g94
I2
sg95
(i__main__
Node
p116
(dp117
g94
I3
sg95
Nsg100
g114
sg101
g111
sg103
S'indiv.getEnergy()'
p118
sg105
Nsbsg100
g92
sg101
S'+'
sg103
S'*'
sg105
(i__main__
Node
p119
(dp120
g94
I3
sg95
Nsg100
g114
sg101
g110
sg103
g104
sg105
NsbsbsbsS'tailBrigh'
p121
F4.9988399952696945
sS'maxSteering'
p122
I30
sS'energy'
p123
F0.5
sS'lastScale'
p124
F5.5
sb.(i__main__
Data_mobile
p1
(dp2
S'vel_y'
p3
I0
sS'vel_x'
p4
F0.24651519500870922
sS'pos_x'
p5
I-9579
sS'pos_y'
p6
I9779
sS'isAlive'
p7
I00
sS'cumulativeEnergy'
p8
F0.5
sS'geno'
p9
(lp10
(lp11
S'randV'
p12
aS'currentEnergy'
p13
aa(lp14
S'POINT./'
p15
aS'POINT.+'
p16
a(lp17
S'POINT.*'
p18
a(lp19
S'currentVelocity'
p20
aa(lp21
S'POINT.+'
p22
aS'cohesion'
p23
a(lp24
S'flee'
p25
aaaa(lp26
S'POINT.-'
p27
a(lp28
S'randV'
p29
a(lp30
S'separation'
p31
aS'cohesion'
p32
aa(lp33
(lp34
S'currentVelocity'
p35
aS'POINT.*'
p36
aa(lp37
S'cohesion'
p38
aS'currentEnergy'
p39
aS'POINT.*'
p40
aS'POINT./'
p41
aS'POINT.-'
p42
aa(lp43
S'target'
p44
aaS'target'
p45
aaa(lp46
(lp47
S'separation'
p48
aS'currentVelocity'
p49
aaS'POINT.+'
p50
aS'POINT./'
p51
aS'POINT.+'
p52
aa(lp53
S'POINT.-'
p54
aa(lp55
S'flee'
p56
aS'currentVelocity'
p57
aS'target'
p58
aS'separation'
p59
aaaaS'separation'
p60
a(lp61
S'currentVelocity'
p62
a(lp63
S'POINT.+'
p64
a(lp65
S'cohesion'
p66
aS'target'
p67
aaaa(lp68
(lp69
S'POINT.+'
p70
aS'POINT./'
p71
a(lp72
S'POINT.-'
p73
aS'POINT.+'
p74
a(lp75
S'cohesion'
p76
aS'separation'
p77
aS'flee'
p78
aaaaS'currentEnergy'
p79
aasS'accel_x'
p80
F0
sS'accel_y'
p81
F0
sS'visionAngle'
p82
I150
sS'maxAccel'
p83
I2
sS'maxVel'
p84
F0.5
sS'age'
p85
I0
sS'tailSize'
p86
F2.4651519500870922
sS'sexualgeno'
p87
(i__main__
Node
p88
(dp89
S'depth'
p90
I1
sS'right'
p91
(i__main__
Node
p92
(dp93
g90
I2
sg91
NsS'parent'
p94
g88
sS'float_size'
p95
S'indiv.getNumPredatorsNeigh()'
p96
sS'float_bright'
p97
g96
sS'left'
p98
Nsbsg94
Nsg95
S'-'
sg97
S'/'
sg98
(i__main__
Node
p99
(dp100
g90
I2
sg91
Nsg94
g88
sg95
S'indiv.randF()'
p101
sg97
S'indiv.distanceMatingSeason()'
p102
sg98
NsbsbsS'tailBrigh'
p103
F2.3189456704441955
sS'maxSteering'
p104
I30
sS'energy'
p105
F0.5
sS'lastScale'
p106
F5.5
sb.(i__main__
Data_mobile
p1
(dp2
S'vel_y'
p3
I0
sS'vel_x'
p4
F0.066830483052178202
sS'pos_x'
p5
I-9579
sS'pos_y'
p6
I9779
sS'isAlive'
p7
I00
sS'cumulativeEnergy'
p8
F0.5
sS'geno'
p9
(lp10
(lp11
S'randV'
p12
aS'currentEnergy'
p13
aa(lp14
S'POINT./'
p15
aS'POINT.+'
p16
a(lp17
S'POINT.*'
p18
a(lp19
S'currentVelocity'
p20
aa(lp21
S'POINT.+'
p22
aS'cohesion'
p23
a(lp24
S'flee'
p25
aaaa(lp26
S'POINT.-'
p27
a(lp28
S'randV'
p29
a(lp30
S'separation'
p31
aS'cohesion'
p32
aa(lp33
(lp34
S'currentVelocity'
p35
aS'POINT.*'
p36
aa(lp37
S'cohesion'
p38
aS'currentEnergy'
p39
aS'POINT.*'
p40
aS'POINT./'
p41
aS'POINT.-'
p42
aa(lp43
S'target'
p44
aaS'target'
p45
aaa(lp46
(lp47
S'separation'
p48
aS'currentVelocity'
p49
aaS'POINT.+'
p50
aS'POINT./'
p51
aS'POINT.+'
p52
aa(lp53
S'POINT.-'
p54
aa(lp55
S'flee'
p56
aS'currentVelocity'
p57
aS'target'
p58
aS'separation'
p59
aaaaS'separation'
p60
a(lp61
S'currentVelocity'
p62
a(lp63
S'POINT.+'
p64
a(lp65
S'cohesion'
p66
aS'target'
p67
aaaa(lp68
(lp69
S'POINT.+'
p70
aS'POINT./'
p71
a(lp72
S'POINT.-'
p73
aS'POINT.+'
p74
a(lp75
S'cohesion'
p76
aS'separation'
p77
aS'flee'
p78
aaaaS'currentEnergy'
p79
aasS'accel_x'
p80
F0
sS'accel_y'
p81
F0
sS'visionAngle'
p82
I150
sS'maxAccel'
p83
I2
sS'maxVel'
p84
F0.5
sS'age'
p85
I0
sS'tailSize'
p86
F0.66830483052178202
sS'sexualgeno'
p87
(i__main__
Node
p88
(dp89
S'depth'
p90
I1
sS'right'
p91
(i__main__
Node
p92
(dp93
g90
I2
sg91
NsS'parent'
p94
g88
sS'float_size'
p95
S'indiv.getNumPredatorsNeigh()'
p96
sS'float_bright'
p97
g96
sS'left'
p98
Nsbsg94
Nsg95
S'-'
sg97
S'/'
sg98
(i__main__
Node
p99
(dp100
g90
I2
sg91
Nsg94
g88
sg95
S'indiv.randF()'
p101
sg97
S'indiv.distanceMatingSeason()'
p102
sg98
NsbsbsS'tailBrigh'
p103
F0.56494298304256785
sS'maxSteering'
p104
I30
sS'energy'
p105
F0.5
sS'lastScale'
p106
F5.5
sb.(i__main__
Data_mobile
p1
(dp2
S'vel_y'
p3
I0
sS'vel_x'
p4
F0.38755004207857657
sS'pos_x'
p5
I-9579
sS'pos_y'
p6
I9779
sS'isAlive'
p7
I00
sS'cumulativeEnergy'
p8
F0.5
sS'geno'
p9
(lp10
(lp11
(lp12
S'POINT./'
p13
aS'cohesion'
p14
aaS'currentEnergy'
p15
a(lp16
S'separation'
p17
aaS'alignment'
p18
a(lp19
S'alignment'
p20
aS'POINT./'
p21
aaS'POINT.*'
p22
a(lp23
S'alignment'
p24
a(lp25
S'cohesion'
p26
aa(lp27
S'alignment'
p28
aS'POINT.-'
p29
aaS'cohesion'
p30
aa(lp31
S'randV'
p32
aS'separation'
p33
a(lp34
(lp35
S'POINT.+'
p36
a(lp37
S'POINT.*'
p38
aaaS'POINT./'
p39
a(lp40
S'POINT.+'
p41
aS'target'
p42
a(lp43
S'POINT./'
p44
aS'target'
p45
aaa(lp46
S'target'
p47
a(lp48
S'POINT.+'
p49
a(lp50
S'currentVelocity'
p51
aaaS'currentVelocity'
p52
aS'alignment'
p53
aaaaa(lp54
S'POINT.+'
p55
a(lp56
S'alignment'
p57
aa(lp58
S'currentEnergy'
p59
aaS'target'
p60
aS'randV'
p61
aaS'alignment'
p62
aS'target'
p63
a(lp64
S'currentVelocity'
p65
a(lp66
S'flee'
p67
aaa(lp68
S'currentVelocity'
p69
a(lp70
(lp71
S'separation'
p72
a(lp73
(lp74
S'currentVelocity'
p75
aS'POINT.*'
p76
aaS'cohesion'
p77
aaaS'randV'
p78
a(lp79
S'randV'
p80
aaaa(lp81
S'currentVelocity'
p82
aS'alignment'
p83
aasS'accel_x'
p84
F0
sS'accel_y'
p85
F0
sS'visionAngle'
p86
I150
sS'maxAccel'
p87
I2
sS'maxVel'
p88
F0.5
sS'age'
p89
I0
sS'tailSize'
p90
F3.875500420785766
sS'sexualgeno'
p91
(i__main__
Node
p92
(dp93
S'depth'
p94
I1
sS'right'
p95
(i__main__
Node
p96
(dp97
g94
I2
sg95
(i__main__
Node
p98
(dp99
g94
I3
sg95
NsS'parent'
p100
g96
sS'float_size'
p101
S'indiv.getTailBrightness()'
p102
sS'float_bright'
p103
S'indiv.distanceMatingSeason()'
p104
sS'left'
p105
Nsbsg100
g92
sg101
S'*'
sg103
S'/'
sg105
(i__main__
Node
p106
(dp107
g94
I3
sg95
(i__main__
Node
p108
(dp109
g94
I4
sg95
Nsg100
g106
sg101
S'indiv.randF()'
p110
sg103
g110
sg105
Nsbsg100
g96
sg101
S'+'
sg103
S'/'
sg105
(i__main__
Node
p111
(dp112
g94
I4
sg95
Nsg100
g106
sg101
S'indiv.getTailSize()'
p113
sg103
S'indiv.getEnergy()'
p114
sg105
Nsbsbsbsg100
Nsg101
S'-'
sg103
S'-'
sg105
(i__main__
Node
p115
(dp116
g94
I2
sg95
(i__main__
Node
p117
(dp118
g94
I3
sg95
Nsg100
g115
sg101
S'indiv.getNumPredatorsNeigh()'
p119
sg103
g114
sg105
Nsbsg100
g92
sg101
S'+'
sg103
S'*'
sg105
(i__main__
Node
p120
(dp121
g94
I3
sg95
Nsg100
g115
sg101
g110
sg103
g104
sg105
NsbsbsbsS'tailBrigh'
p122
F0.24959403530108171
sS'maxSteering'
p123
I30
sS'energy'
p124
F0.5
sS'lastScale'
p125
F5.5
sb.(i__main__
Data_mobile
p1
(dp2
S'vel_y'
p3
I0
sS'vel_x'
p4
F0.85528843459452342
sS'pos_x'
p5
I-9579
sS'pos_y'
p6
I9779
sS'isAlive'
p7
I00
sS'cumulativeEnergy'
p8
F0.5
sS'geno'
p9
(lp10
(lp11
(lp12
S'POINT./'
p13
aS'cohesion'
p14
aaS'currentEnergy'
p15
a(lp16
S'separation'
p17
aaS'alignment'
p18
a(lp19
S'alignment'
p20
aS'POINT./'
p21
aaS'POINT.*'
p22
a(lp23
S'alignment'
p24
a(lp25
S'cohesion'
p26
aa(lp27
S'alignment'
p28
aS'POINT.-'
p29
aaS'cohesion'
p30
aa(lp31
S'randV'
p32
aS'separation'
p33
a(lp34
(lp35
S'POINT.+'
p36
a(lp37
S'POINT.*'
p38
aaaS'POINT./'
p39
a(lp40
S'POINT.+'
p41
aS'target'
p42
a(lp43
S'POINT./'
p44
aS'target'
p45
aaa(lp46
S'target'
p47
a(lp48
S'POINT.+'
p49
a(lp50
S'currentVelocity'
p51
aaaS'currentVelocity'
p52
aS'alignment'
p53
aaaaa(lp54
S'POINT.+'
p55
a(lp56
S'alignment'
p57
aa(lp58
S'currentEnergy'
p59
aaS'target'
p60
aS'randV'
p61
aaS'alignment'
p62
aS'target'
p63
a(lp64
S'currentVelocity'
p65
a(lp66
S'flee'
p67
aaa(lp68
S'currentVelocity'
p69
a(lp70
(lp71
S'separation'
p72
a(lp73
(lp74
S'currentVelocity'
p75
aS'POINT.*'
p76
aaS'cohesion'
p77
aaaS'randV'
p78
a(lp79
S'randV'
p80
aaaa(lp81
S'currentVelocity'
p82
aS'alignment'
p83
aasS'accel_x'
p84
F0
sS'accel_y'
p85
F0
sS'visionAngle'
p86
I150
sS'maxAccel'
p87
I2
sS'maxVel'
p88
F0.5
sS'age'
p89
I0
sS'tailSize'
p90
F8.5528843459452339
sS'sexualgeno'
p91
(i__main__
Node
p92
(dp93
S'depth'
p94
I1
sS'right'
p95
(i__main__
Node
p96
(dp97
g94
I2
sg95
(i__main__
Node
p98
(dp99
g94
I3
sg95
NsS'parent'
p100
g96
sS'float_size'
p101
S'indiv.getTailBrightness()'
p102
sS'float_bright'
p103
S'indiv.distanceMatingSeason()'
p104
sS'left'
p105
Nsbsg100
g92
sg101
S'*'
sg103
S'/'
sg105
(i__main__
Node
p106
(dp107
g94
I3
sg95
(i__main__
Node
p108
(dp109
g94
I4
sg95
Nsg100
g106
sg101
S'indiv.randF()'
p110
sg103
g110
sg105
Nsbsg100
g96
sg101
S'+'
sg103
S'/'
sg105
(i__main__
Node
p111
(dp112
g94
I4
sg95
Nsg100
g106
sg101
S'indiv.getTailSize()'
p113
sg103
S'indiv.getEnergy()'
p114
sg105
Nsbsbsbsg100
Nsg101
S'-'
sg103
S'-'
sg105
(i__main__
Node
p115
(dp116
g94
I2
sg95
(i__main__
Node
p117
(dp118
g94
I3
sg95
Nsg100
g115
sg101
S'indiv.getNumPredatorsNeigh()'
p119
sg103
g114
sg105
Nsbsg100
g92
sg101
S'+'
sg103
S'*'
sg105
(i__main__
Node
p120
(dp121
g94
I3
sg95
Nsg100
g115
sg101
g110
sg103
g104
sg105
NsbsbsbsS'tailBrigh'
p122
F0.98774305002082285
sS'maxSteering'
p123
I30
sS'energy'
p124
F0.5
sS'lastScale'
p125
F5.5
sb.(i__main__
Data_mobile
p1
(dp2
S'vel_y'
p3
I0
sS'vel_x'
p4
F0.32920213803369491
sS'pos_x'
p5
I-9579
sS'pos_y'
p6
I9779
sS'isAlive'
p7
I00
sS'cumulativeEnergy'
p8
F0.5
sS'geno'
p9
(lp10
(lp11
S'randV'
p12
aS'currentEnergy'
p13
aa(lp14
S'POINT./'
p15
aS'POINT.+'
p16
a(lp17
S'POINT.*'
p18
a(lp19
S'currentVelocity'
p20
aa(lp21
S'POINT.+'
p22
aS'cohesion'
p23
a(lp24
S'flee'
p25
aaaa(lp26
S'POINT.-'
p27
a(lp28
S'randV'
p29
a(lp30
S'separation'
p31
aS'cohesion'
p32
aa(lp33
(lp34
S'currentVelocity'
p35
aS'POINT.*'
p36
aa(lp37
S'cohesion'
p38
aS'currentEnergy'
p39
aS'POINT.*'
p40
aS'POINT./'
p41
aS'POINT.-'
p42
aa(lp43
S'target'
p44
aaS'target'
p45
aaa(lp46
(lp47
S'separation'
p48
aS'currentVelocity'
p49
aaS'POINT.+'
p50
aS'POINT./'
p51
aS'POINT.+'
p52
aa(lp53
S'POINT.-'
p54
aa(lp55
S'flee'
p56
aS'currentVelocity'
p57
aS'target'
p58
aS'separation'
p59
aaaaS'separation'
p60
a(lp61
S'currentVelocity'
p62
a(lp63
S'POINT.+'
p64
a(lp65
S'cohesion'
p66
aS'target'
p67
aaaa(lp68
(lp69
S'POINT.+'
p70
aS'POINT./'
p71
a(lp72
S'POINT.-'
p73
aS'POINT.+'
p74
a(lp75
S'cohesion'
p76
aS'separation'
p77
aS'flee'
p78
aaaaS'currentEnergy'
p79
aasS'accel_x'
p80
F0
sS'accel_y'
p81
F0
sS'visionAngle'
p82
I150
sS'maxAccel'
p83
I2
sS'maxVel'
p84
F0.5
sS'age'
p85
I0
sS'tailSize'
p86
F3.2920213803369491
sS'sexualgeno'
p87
(i__main__
Node
p88
(dp89
S'depth'
p90
I1
sS'right'
p91
(i__main__
Node
p92
(dp93
g90
I2
sg91
NsS'parent'
p94
g88
sS'float_size'
p95
S'indiv.getNumPredatorsNeigh()'
p96
sS'float_bright'
p97
g96
sS'left'
p98
Nsbsg94
Nsg95
S'-'
sg97
S'/'
sg98
(i__main__
Node
p99
(dp100
g90
I2
sg91
Nsg94
g88
sg95
S'indiv.randF()'
p101
sg97
S'indiv.distanceMatingSeason()'
p102
sg98
NsbsbsS'tailBrigh'
p103
F1.2841302646303709
sS'maxSteering'
p104
I30
sS'energy'
p105
F0.5
sS'lastScale'
p106
F5.5
sb.(i__main__
Data_mobile
p1
(dp2
S'vel_y'
p3
I0
sS'vel_x'
p4
F0.20479310032590847
sS'pos_x'
p5
I-9579
sS'pos_y'
p6
I9779
sS'isAlive'
p7
I00
sS'cumulativeEnergy'
p8
F0.5
sS'geno'
p9
(lp10
(lp11
S'randV'
p12
aS'currentEnergy'
p13
aa(lp14
S'POINT./'
p15
aS'POINT.+'
p16
a(lp17
S'POINT.*'
p18
a(lp19
S'currentVelocity'
p20
aa(lp21
S'POINT.+'
p22
aS'cohesion'
p23
a(lp24
S'flee'
p25
aaaa(lp26
S'POINT.-'
p27
a(lp28
S'randV'
p29
a(lp30
S'separation'
p31
aS'cohesion'
p32
aa(lp33
(lp34
S'currentVelocity'
p35
aS'POINT.*'
p36
aa(lp37
S'cohesion'
p38
aS'currentEnergy'
p39
aS'POINT.*'
p40
aS'POINT./'
p41
aS'POINT.-'
p42
aa(lp43
S'target'
p44
aaS'target'
p45
aaa(lp46
(lp47
S'separation'
p48
aS'currentVelocity'
p49
aaS'POINT.+'
p50
aS'POINT./'
p51
aS'POINT.+'
p52
aa(lp53
S'POINT.-'
p54
aa(lp55
S'flee'
p56
aS'currentVelocity'
p57
aS'target'
p58
aS'separation'
p59
aaaaS'separation'
p60
a(lp61
S'currentVelocity'
p62
a(lp63
S'POINT.+'
p64
a(lp65
S'cohesion'
p66
aS'target'
p67
aaaa(lp68
(lp69
S'POINT.+'
p70
aS'POINT./'
p71
a(lp72
S'POINT.-'
p73
aS'POINT.+'
p74
a(lp75
S'cohesion'
p76
aS'separation'
p77
aS'flee'
p78
aaaaS'currentEnergy'
p79
aasS'accel_x'
p80
F0
sS'accel_y'
p81
F0
sS'visionAngle'
p82
I150
sS'maxAccel'
p83
I2
sS'maxVel'
p84
F0.5
sS'age'
p85
I0
sS'tailSize'
p86
F2.0479310032590847
sS'sexualgeno'
p87
(i__main__
Node
p88
(dp89
S'depth'
p90
I1
sS'right'
p91
(i__main__
Node
p92
(dp93
g90
I2
sg91
NsS'parent'
p94
g88
sS'float_size'
p95
S'indiv.getNumPredatorsNeigh()'
p96
sS'float_bright'
p97
g96
sS'left'
p98
Nsbsg94
Nsg95
S'-'
sg97
S'/'
sg98
(i__main__
Node
p99
(dp100
g90
I2
sg91
Nsg94
g88
sg95
S'indiv.randF()'
p101
sg97
S'indiv.distanceMatingSeason()'
p102
sg98
NsbsbsS'tailBrigh'
p103
F2.2126667052871198
sS'maxSteering'
p104
I30
sS'energy'
p105
F0.5
sS'lastScale'
p106
F5.5
sb.(i__main__
Data_mobile
p1
(dp2
S'vel_y'
p3
I0
sS'vel_x'
p4
F0.24053315949175857
sS'pos_x'
p5
I-9579
sS'pos_y'
p6
I9779
sS'isAlive'
p7
I00
sS'cumulativeEnergy'
p8
F0.5
sS'geno'
p9
(lp10
(lp11
S'cohesion'
p12
aS'POINT.-'
p13
aa(lp14
(lp15
(lp16
S'currentVelocity'
p17
aS'target'
p18
aS'randV'
p19
aaS'POINT./'
p20
a(lp21
S'alignment'
p22
aaS'randV'
p23
aS'separation'
p24
aS'flee'
p25
aaS'POINT.+'
p26
aa(lp27
(lp28
S'flee'
p29
aS'POINT.*'
p30
aaS'POINT./'
p31
aa(lp32
(lp33
S'currentEnergy'
p34
aa(lp35
S'currentEnergy'
p36
aaS'flee'
p37
aa(lp38
S'target'
p39
a(lp40
S'alignment'
p41
aS'alignment'
p42
aS'target'
p43
aS'POINT.-'
p44
aaS'flee'
p45
a(lp46
S'separation'
p47
a(lp48
S'POINT.+'
p49
aaS'currentEnergy'
p50
aa(lp51
S'flee'
p52
a(lp53
(lp54
S'target'
p55
aS'currentEnergy'
p56
aS'cohesion'
p57
aaS'alignment'
p58
a(lp59
S'POINT.+'
p60
aS'POINT.+'
p61
aaa(lp62
S'flee'
p63
aS'separation'
p64
aa(lp65
S'POINT.+'
p66
aaS'cohesion'
p67
aaS'POINT.-'
p68
aS'target'
p69
a(lp70
S'alignment'
p71
a(lp72
(lp73
S'POINT.-'
p74
aS'POINT./'
p75
aaS'currentEnergy'
p76
aS'cohesion'
p77
aS'cohesion'
p78
aS'alignment'
p79
aaaaS'currentEnergy'
p80
a(lp81
S'flee'
p82
aS'separation'
p83
aasS'accel_x'
p84
F0
sS'accel_y'
p85
F0
sS'visionAngle'
p86
I150
sS'maxAccel'
p87
I2
sS'maxVel'
p88
F0.5
sS'age'
p89
I0
sS'tailSize'
p90
F2.4053315949175857
sS'sexualgeno'
p91
(i__main__
Node
p92
(dp93
S'depth'
p94
I1
sS'right'
p95
(i__main__
Node
p96
(dp97
g94
I2
sg95
(i__main__
Node
p98
(dp99
g94
I3
sg95
NsS'parent'
p100
g96
sS'float_size'
p101
S'indiv.getNumPredatorsNeigh()'
p102
sS'float_bright'
p103
S'indiv.getEnergy()'
p104
sS'left'
p105
Nsbsg100
g92
sg101
S'-'
sg103
S'/'
sg105
(i__main__
Node
p106
(dp107
g94
I3
sg95
Nsg100
g96
sg101
S'indiv.distanceMatingSeason()'
p108
sg103
S'indiv.randF()'
p109
sg105
Nsbsbsg100
Nsg101
S'/'
sg103
S'-'
sg105
(i__main__
Node
p110
(dp111
g94
I2
sg95
(i__main__
Node
p112
(dp113
g94
I3
sg95
Nsg100
g110
sg101
S'indiv.getTailSize()'
p114
sg103
S'indiv.getNumPreysNeigh()'
p115
sg105
Nsbsg100
g92
sg101
S'-'
sg103
S'/'
sg105
(i__main__
Node
p116
(dp117
g94
I3
sg95
Nsg100
g110
sg101
g108
sg103
g104
sg105
NsbsbsbsS'tailBrigh'
p118
F6.7218638367033678
sS'maxSteering'
p119
I30
sS'energy'
p120
F0.5
sS'lastScale'
p121
F5.5
sb.(i__main__
Data_mobile
p1
(dp2
S'vel_y'
p3
I0
sS'vel_x'
p4
F0.87829578293991806
sS'pos_x'
p5
I-9579
sS'pos_y'
p6
I9779
sS'isAlive'
p7
I00
sS'cumulativeEnergy'
p8
F0.5
sS'geno'
p9
(lp10
(lp11
(lp12
S'POINT./'
p13
aS'cohesion'
p14
aaS'currentEnergy'
p15
a(lp16
S'separation'
p17
aaS'alignment'
p18
a(lp19
S'alignment'
p20
aS'POINT./'
p21
aaS'POINT.*'
p22
a(lp23
S'alignment'
p24
a(lp25
S'cohesion'
p26
aa(lp27
S'alignment'
p28
aS'POINT.-'
p29
aaS'cohesion'
p30
aa(lp31
S'randV'
p32
aS'separation'
p33
a(lp34
(lp35
S'POINT.+'
p36
a(lp37
S'POINT.*'
p38
aaaS'POINT./'
p39
a(lp40
S'POINT.+'
p41
aS'target'
p42
a(lp43
S'POINT./'
p44
aS'target'
p45
aaa(lp46
S'target'
p47
a(lp48
S'POINT.+'
p49
a(lp50
S'currentVelocity'
p51
aaaS'currentVelocity'
p52
aS'alignment'
p53
aaaaa(lp54
S'POINT.+'
p55
a(lp56
S'alignment'
p57
aa(lp58
S'currentEnergy'
p59
aaS'target'
p60
aS'randV'
p61
aaS'alignment'
p62
aS'target'
p63
a(lp64
S'currentVelocity'
p65
a(lp66
S'flee'
p67
aaa(lp68
S'currentVelocity'
p69
a(lp70
(lp71
S'separation'
p72
a(lp73
(lp74
S'currentVelocity'
p75
aS'POINT.*'
p76
aaS'cohesion'
p77
aaaS'randV'
p78
a(lp79
S'randV'
p80
aaaa(lp81
S'currentVelocity'
p82
aS'alignment'
p83
aasS'accel_x'
p84
F0
sS'accel_y'
p85
F0
sS'visionAngle'
p86
I150
sS'maxAccel'
p87
I2
sS'maxVel'
p88
F0.5
sS'age'
p89
I0
sS'tailSize'
p90
F8.7829578293991801
sS'sexualgeno'
p91
(i__main__
Node
p92
(dp93
S'depth'
p94
I1
sS'right'
p95
(i__main__
Node
p96
(dp97
g94
I2
sg95
(i__main__
Node
p98
(dp99
g94
I3
sg95
NsS'parent'
p100
g96
sS'float_size'
p101
S'indiv.getNumPredatorsNeigh()'
p102
sS'float_bright'
p103
S'indiv.getEnergy()'
p104
sS'left'
p105
Nsbsg100
g92
sg101
S'+'
sg103
S'*'
sg105
(i__main__
Node
p106
(dp107
g94
I3
sg95
Nsg100
g96
sg101
S'indiv.randF()'
p108
sg103
S'indiv.distanceMatingSeason()'
p109
sg105
Nsbsbsg100
Nsg101
S'-'
sg103
S'-'
sg105
(i__main__
Node
p110
(dp111
g94
I2
sg95
(i__main__
Node
p112
(dp113
g94
I3
sg95
Nsg100
g110
sg101
g102
sg103
g104
sg105
Nsbsg100
g92
sg101
S'+'
sg103
S'*'
sg105
(i__main__
Node
p114
(dp115
g94
I3
sg95
Nsg100
g110
sg101
g108
sg103
g109
sg105
NsbsbsbsS'tailBrigh'
p116
F3.6847990809920637
sS'maxSteering'
p117
I30
sS'energy'
p118
F0.5
sS'lastScale'
p119
F5.5
sb.(i__main__
Data_mobile
p1
(dp2
S'vel_y'
p3
I0
sS'vel_x'
p4
F0.85979815019792338
sS'pos_x'
p5
I-9579
sS'pos_y'
p6
I9779
sS'isAlive'
p7
I00
sS'cumulativeEnergy'
p8
F0.5
sS'geno'
p9
(lp10
(lp11
S'randV'
p12
aS'currentEnergy'
p13
aa(lp14
S'POINT./'
p15
aS'POINT.+'
p16
a(lp17
S'POINT.*'
p18
a(lp19
S'currentVelocity'
p20
aa(lp21
S'POINT.+'
p22
aS'cohesion'
p23
a(lp24
S'flee'
p25
aaaa(lp26
S'POINT.-'
p27
a(lp28
S'randV'
p29
a(lp30
S'separation'
p31
aS'cohesion'
p32
aa(lp33
(lp34
S'currentVelocity'
p35
aS'POINT.*'
p36
aa(lp37
S'cohesion'
p38
aS'currentEnergy'
p39
aS'POINT.*'
p40
aS'POINT./'
p41
aS'POINT.-'
p42
aa(lp43
S'target'
p44
aaS'target'
p45
aaa(lp46
(lp47
S'separation'
p48
aS'currentVelocity'
p49
aaS'POINT.+'
p50
aS'POINT./'
p51
aS'POINT.+'
p52
aa(lp53
S'POINT.-'
p54
aa(lp55
S'flee'
p56
aS'currentVelocity'
p57
aS'target'
p58
aS'separation'
p59
aaaaS'separation'
p60
a(lp61
S'currentVelocity'
p62
a(lp63
S'POINT.+'
p64
a(lp65
S'cohesion'
p66
aS'target'
p67
aaaa(lp68
(lp69
S'POINT.+'
p70
aS'POINT./'
p71
a(lp72
S'POINT.-'
p73
aS'POINT.+'
p74
a(lp75
S'cohesion'
p76
aS'separation'
p77
aS'flee'
p78
aaaaS'currentEnergy'
p79
aasS'accel_x'
p80
F0
sS'accel_y'
p81
F0
sS'visionAngle'
p82
I150
sS'maxAccel'
p83
I2
sS'maxVel'
p84
F0.5
sS'age'
p85
I0
sS'tailSize'
p86
F8.5979815019792341
sS'sexualgeno'
p87
(i__main__
Node
p88
(dp89
S'depth'
p90
I1
sS'right'
p91
(i__main__
Node
p92
(dp93
g90
I2
sg91
NsS'parent'
p94
g88
sS'float_size'
p95
S'indiv.getNumPredatorsNeigh()'
p96
sS'float_bright'
p97
g96
sS'left'
p98
Nsbsg94
Nsg95
S'-'
sg97
S'/'
sg98
(i__main__
Node
p99
(dp100
g90
I2
sg91
Nsg94
g88
sg95
S'indiv.randF()'
p101
sg97
S'indiv.distanceMatingSeason()'
p102
sg98
NsbsbsS'tailBrigh'
p103
F9.4921974801614191
sS'maxSteering'
p104
I30
sS'energy'
p105
F0.5
sS'lastScale'
p106
F5.5
sb.(i__main__
Data_mobile
p1
(dp2
S'vel_y'
p3
I0
sS'vel_x'
p4
F0.26639740736985851
sS'pos_x'
p5
I-9579
sS'pos_y'
p6
I9779
sS'isAlive'
p7
I00
sS'cumulativeEnergy'
p8
F0.5
sS'geno'
p9
(lp10
(lp11
S'randV'
p12
aS'currentEnergy'
p13
aa(lp14
S'POINT./'
p15
aS'POINT.+'
p16
a(lp17
S'POINT.*'
p18
a(lp19
S'currentVelocity'
p20
aa(lp21
S'POINT.+'
p22
aS'cohesion'
p23
a(lp24
S'flee'
p25
aaaa(lp26
S'POINT.-'
p27
a(lp28
S'randV'
p29
a(lp30
S'separation'
p31
aS'cohesion'
p32
aa(lp33
(lp34
S'currentVelocity'
p35
aS'POINT.*'
p36
aa(lp37
S'cohesion'
p38
aS'currentEnergy'
p39
aS'POINT.*'
p40
aS'POINT./'
p41
aS'POINT.-'
p42
aa(lp43
S'target'
p44
aaS'target'
p45
aaa(lp46
(lp47
S'separation'
p48
aS'currentVelocity'
p49
aaS'POINT.+'
p50
aS'POINT./'
p51
aS'POINT.+'
p52
aa(lp53
S'POINT.-'
p54
aa(lp55
S'flee'
p56
aS'currentVelocity'
p57
aS'target'
p58
aS'separation'
p59
aaaaS'separation'
p60
a(lp61
S'currentVelocity'
p62
a(lp63
S'POINT.+'
p64
a(lp65
S'cohesion'
p66
aS'target'
p67
aaaa(lp68
(lp69
S'POINT.+'
p70
aS'POINT./'
p71
a(lp72
S'POINT.-'
p73
aS'POINT.+'
p74
a(lp75
S'cohesion'
p76
aS'separation'
p77
aS'flee'
p78
aaaaS'currentEnergy'
p79
aasS'accel_x'
p80
F0
sS'accel_y'
p81
F0
sS'visionAngle'
p82
I150
sS'maxAccel'
p83
I2
sS'maxVel'
p84
F0.5
sS'age'
p85
I0
sS'tailSize'
p86
F2.6639740736985851
sS'sexualgeno'
p87
(i__main__
Node
p88
(dp89
S'depth'
p90
I1
sS'right'
p91
(i__main__
Node
p92
(dp93
g90
I2
sg91
NsS'parent'
p94
g88
sS'float_size'
p95
S'indiv.getNumPredatorsNeigh()'
p96
sS'float_bright'
p97
g96
sS'left'
p98
Nsbsg94
Nsg95
S'-'
sg97
S'/'
sg98
(i__main__
Node
p99
(dp100
g90
I2
sg91
Nsg94
g88
sg95
S'indiv.randF()'
p101
sg97
S'indiv.distanceMatingSeason()'
p102
sg98
NsbsbsS'tailBrigh'
p103
F7.0909030724514608
sS'maxSteering'
p104
I30
sS'energy'
p105
F0.5
sS'lastScale'
p106
F5.5
sb.