(i__main__
Data_mobile
p1
(dp2
S'vel_y'
p3
F0.49988470806126112
sS'vel_x'
p4
F0.010736789394774867
sS'pos_x'
p5
F169.55465136834761
sS'pos_y'
p6
F45.57069265802388
sS'isAlive'
p7
I01
sS'geno'
p8
(lp9
S'flee'
p10
aS'flee'
p11
a(lp12
S'flee'
p13
aS'flee'
p14
aaS'alignment'
p15
a(lp16
S'alignment'
p17
a(lp18
S'target'
p19
aaa(lp20
S'alignment'
p21
aS'currentVelocity'
p22
aS'target'
p23
aS'currentVelocity'
p24
aaS'POINT.+'
p25
asS'accel_x'
p26
F-0.94298667864941355
sS'accel_y'
p27
F0.33470303836687715
sS'maxAccel'
p28
I2
sS'maxVel'
p29
F0.5
sS'age'
p30
I350
sS'gener'
p31
S'm'
sS'lastScale'
p32
F15.300000000097363
sS'energy'
p33
F0.98000000000973619
sb.(i__main__
Data_mobile
p1
(dp2
S'vel_y'
p3
F-0.45106925986898133
sS'vel_x'
p4
F-0.21572325512389562
sS'pos_x'
p5
F79.200560774488693
sS'pos_y'
p6
F88.828127078377562
sS'isAlive'
p7
I01
sS'geno'
p8
(lp9
S'flee'
p10
a(lp11
S'cohesion'
p12
aaS'POINT.*'
p13
aS'flee'
p14
aS'cohesion'
p15
a(lp16
S'alignment'
p17
aS'currentVelocity'
p18
aS'target'
p19
aS'currentVelocity'
p20
aaS'POINT.+'
p21
asS'accel_x'
p22
F-0.99262903341831588
sS'accel_y'
p23
F0.12624421576862815
sS'maxAccel'
p24
I2
sS'maxVel'
p25
F0.5
sS'age'
p26
I287
sS'gener'
p27
S'm'
sS'lastScale'
p28
F15.300000018553909
sS'energy'
p29
F0.98000000185539105
sb.(i__main__
Data_mobile
p1
(dp2
S'vel_y'
p3
F0.061965639248397708
sS'vel_x'
p4
F0.49614540162389636
sS'pos_x'
p5
F-150.3993402342644
sS'pos_y'
p6
F56.141463022148947
sS'isAlive'
p7
I01
sS'geno'
p8
(lp9
S'flee'
p10
aS'flee'
p11
aS'flee'
p12
aS'alignment'
p13
a(lp14
S'target'
p15
aa(lp16
S'flee'
p17
aS'currentVelocity'
p18
aS'target'
p19
aS'currentVelocity'
p20
aaS'POINT.+'
p21
asS'accel_x'
p22
F0.19422364652945595
sS'accel_y'
p23
F0.98159420084308258
sS'maxAccel'
p24
I2
sS'maxVel'
p25
F0.5
sS'age'
p26
I287
sS'gener'
p27
S'm'
sS'lastScale'
p28
F15.300000018553909
sS'energy'
p29
F0.98000000185539105
sb.(i__main__
Data_mobile
p1
(dp2
S'vel_y'
p3
F-0.32087594726562219
sS'vel_x'
p4
F-0.38345615977108727
sS'pos_x'
p5
F149.33269267486699
sS'pos_y'
p6
F85.798161223471894
sS'isAlive'
p7
I01
sS'geno'
p8
(lp9
S'flee'
p10
aS'flee'
p11
a(lp12
S'flee'
p13
aS'flee'
p14
aaS'alignment'
p15
aS'currentVelocity'
p16
a(lp17
S'alignment'
p18
aS'currentVelocity'
p19
aS'target'
p20
aS'currentVelocity'
p21
aaS'POINT.+'
p22
asS'accel_x'
p23
F0.36853713330493898
sS'accel_y'
p24
F-0.93028510757476357
sS'maxAccel'
p25
I2
sS'maxVel'
p26
F0.5
sS'age'
p27
I250
sS'gener'
p28
S'm'
sS'lastScale'
p29
F15.300000405049802
sS'energy'
p30
F0.98000004050498013
sb.(i__main__
Data_mobile
p1
(dp2
S'vel_y'
p3
F-0.49660284508568653
sS'vel_x'
p4
F-0.058186031423372336
sS'pos_x'
p5
F149.97844718159857
sS'pos_y'
p6
F84.910635608683492
sS'isAlive'
p7
I01
sS'geno'
p8
(lp9
S'flee'
p10
aS'flee'
p11
a(lp12
S'flee'
p13
aS'flee'
p14
aaS'alignment'
p15
aS'alignment'
p16
a(lp17
S'flee'
p18
aS'currentVelocity'
p19
aS'target'
p20
aS'currentVelocity'
p21
aaS'target'
p22
asS'accel_x'
p23
F0.1062387863444485
sS'accel_y'
p24
F0.27811645447926026
sS'maxAccel'
p25
I2
sS'maxVel'
p26
F0.5
sS'age'
p27
I150
sS'gener'
p28
S'm'
sS'lastScale'
p29
F15.301657194409474
sS'energy'
p30
F0.98016571944094744
sb.(i__main__
Data_mobile
p1
(dp2
S'vel_y'
p3
F-0.023665182340571442
sS'vel_x'
p4
F-0.4994396451472265
sS'pos_x'
p5
F-150.79130456168082
sS'pos_y'
p6
F57.667323622917024
sS'isAlive'
p7
I01
sS'geno'
p8
(lp9
S'flee'
p10
aS'flee'
p11
a(lp12
S'target'
p13
aaS'alignment'
p14
aS'alignment'
p15
a(lp16
S'flee'
p17
aS'currentVelocity'
p18
aS'flee'
p19
aS'currentVelocity'
p20
aaS'target'
p21
asS'accel_x'
p22
F0.090042572321976877
sS'accel_y'
p23
F-0.60623203917339197
sS'maxAccel'
p24
I2
sS'maxVel'
p25
F0.5
sS'age'
p26
I150
sS'gener'
p27
S'm'
sS'lastScale'
p28
F15.301657194409474
sS'energy'
p29
F0.98016571944094744
sb.(i__main__
Data_mobile
p1
(dp2
S'vel_y'
p3
F0.31869664599520431
sS'vel_x'
p4
F-0.38526931857001984
sS'pos_x'
p5
F-15.742203144841479
sS'pos_y'
p6
F51.600651022593929
sS'isAlive'
p7
I01
sS'geno'
p8
(lp9
S'POINT.+'
p10
aS'flee'
p11
aS'flee'
p12
aS'alignment'
p13
a(lp14
S'flee'
p15
aa(lp16
S'flee'
p17
aS'currentVelocity'
p18
aS'target'
p19
aS'currentVelocity'
p20
aaS'POINT.+'
p21
asS'accel_x'
p22
F-0.8477351972069429
sS'accel_y'
p23
F-0.53159668491864553
sS'maxAccel'
p24
I2
sS'maxVel'
p25
F0.5
sS'age'
p26
I150
sS'gener'
p27
S'm'
sS'lastScale'
p28
F15.301657194409474
sS'energy'
p29
F0.98016571944094744
sb.(i__main__
Data_mobile
p1
(dp2
S'vel_y'
p3
F-0.47282693802889425
sS'vel_x'
p4
F-0.16258747391549022
sS'pos_x'
p5
F51.613541365538886
sS'pos_y'
p6
F69.829340001217673
sS'isAlive'
p7
I01
sS'geno'
p8
(lp9
(lp10
S'alignment'
p11
a(lp12
S'target'
p13
aaaS'alignment'
p14
a(lp15
S'currentVelocity'
p16
aaS'alignment'
p17
a(lp18
S'alignment'
p19
aS'flee'
p20
aa(lp21
S'target'
p22
aaS'POINT.+'
p23
asS'accel_x'
p24
F0.67037732936347272
sS'accel_y'
p25
F-0.87137207067796629
sS'maxAccel'
p26
I2
sS'maxVel'
p27
F0.5
sS'age'
p28
I150
sS'gener'
p29
S'm'
sS'lastScale'
p30
F15.301657194409474
sS'energy'
p31
F0.98016571944094744
sb.(i__main__
Data_mobile
p1
(dp2
S'vel_y'
p3
F0.099705307760702841
sS'vel_x'
p4
F-0.48995801004202749
sS'pos_x'
p5
F-16.596703271759406
sS'pos_y'
p6
F50.830137692581715
sS'isAlive'
p7
I01
sS'geno'
p8
(lp9
S'flee'
p10
aS'flee'
p11
a(lp12
S'flee'
p13
aS'flee'
p14
aaS'alignment'
p15
aS'flee'
p16
a(lp17
S'alignment'
p18
aS'currentVelocity'
p19
aS'target'
p20
aS'currentVelocity'
p21
aaS'POINT.+'
p22
asS'accel_x'
p23
F-0.097923761761023964
sS'accel_y'
p24
F0.019925306859067224
sS'maxAccel'
p25
I2
sS'maxVel'
p26
F0.5
sS'age'
p27
I150
sS'gener'
p28
S'm'
sS'lastScale'
p29
F15.301657194409474
sS'energy'
p30
F0.95099712910528345
sb.(i__main__
Data_mobile
p1
(dp2
S'vel_y'
p3
F0.40920675521961686
sS'vel_x'
p4
F-0.2873148647087938
sS'pos_x'
p5
F-2.6810892129747073
sS'pos_y'
p6
F76.835316595408486
sS'isAlive'
p7
I01
sS'geno'
p8
(lp9
S'flee'
p10
aS'flee'
p11
a(lp12
S'flee'
p13
aS'flee'
p14
aaS'alignment'
p15
a(lp16
S'alignment'
p17
a(lp18
S'target'
p19
aaa(lp20
S'alignment'
p21
aS'currentVelocity'
p22
aS'target'
p23
aS'currentVelocity'
p24
aaS'POINT.+'
p25
asS'accel_x'
p26
F0.23260970613222914
sS'accel_y'
p27
F-0.33129322315735704
sS'maxAccel'
p28
I2
sS'maxVel'
p29
F0.5
sS'age'
p30
I150
sS'gener'
p31
S'm'
sS'lastScale'
p32
F12.794334443656512
sS'energy'
p33
F0.72943344436565127
sb.(i__main__
Data_mobile
p1
(dp2
S'vel_y'
p3
F-0.31865178536405653
sS'vel_x'
p4
F0.38530642310283286
sS'pos_x'
p5
F192.92307608143213
sS'pos_y'
p6
F56.329065558032696
sS'isAlive'
p7
I01
sS'geno'
p8
(lp9
S'flee'
p10
aS'flee'
p11
a(lp12
S'flee'
p13
aS'flee'
p14
aaS'alignment'
p15
a(lp16
S'alignment'
p17
a(lp18
S'POINT.+'
p19
aaa(lp20
S'alignment'
p21
aS'currentVelocity'
p22
aS'target'
p23
aS'currentVelocity'
p24
aaS'POINT.+'
p25
asS'accel_x'
p26
F1.5412257659939994
sS'accel_y'
p27
F-1.2746070524817483
sS'maxAccel'
p28
I2
sS'maxVel'
p29
F0.5
sS'age'
p30
I250
sS'gener'
p31
S'm'
sS'lastScale'
p32
F12.500011607148586
sS'energy'
p33
F0.70000116071485852
sb.(i__main__
Data_mobile
p1
(dp2
S'vel_y'
p3
F-0.45577760836443082
sS'vel_x'
p4
F-0.20558884141314557
sS'pos_x'
p5
F172.91047210404724
sS'pos_y'
p6
F54.439651249642694
sS'isAlive'
p7
I01
sS'geno'
p8
(lp9
S'randV'
p10
aS'flee'
p11
a(lp12
S'target'
p13
aaS'flee'
p14
a(lp15
(lp16
S'alignment'
p17
aa(lp18
S'mostEnergizedNeighbor'
p19
aaaS'target'
p20
aS'POINT.+'
p21
asS'accel_x'
p22
F-0.77285617617173274
sS'accel_y'
p23
F-1.844639078777528
sS'maxAccel'
p24
I2
sS'maxVel'
p25
F0.5
sS'age'
p26
I287
sS'gener'
p27
S'm'
sS'lastScale'
p28
F12.300000596444594
sS'energy'
p29
F0.68000005964445942
sb.(i__main__
Data_mobile
p1
(dp2
S'vel_y'
p3
F-0.31865178536405653
sS'vel_x'
p4
F0.38530642310283286
sS'pos_x'
p5
F192.92307608143213
sS'pos_y'
p6
F56.329065558032696
sS'isAlive'
p7
I01
sS'geno'
p8
(lp9
S'flee'
p10
aS'flee'
p11
a(lp12
S'flee'
p13
aS'alignment'
p14
aaS'alignment'
p15
a(lp16
S'alignment'
p17
a(lp18
S'target'
p19
aaa(lp20
S'alignment'
p21
aS'currentVelocity'
p22
aS'target'
p23
aS'currentVelocity'
p24
aaS'POINT.+'
p25
asS'accel_x'
p26
F1.5412257659939994
sS'accel_y'
p27
F-1.2746070524817483
sS'maxAccel'
p28
I2
sS'maxVel'
p29
F0.5
sS'age'
p30
I250
sS'gener'
p31
S'm'
sS'lastScale'
p32
F12.300013020897048
sS'energy'
p33
F0.68000130208970477
sb.(i__main__
Data_mobile
p1
(dp2
S'vel_y'
p3
F-0.4981757437694399
sS'vel_x'
p4
F-0.042672336703833795
sS'pos_x'
p5
F67.644876929388488
sS'pos_y'
p6
F-56.591113526221989
sS'isAlive'
p7
I01
sS'geno'
p8
(lp9
S'flee'
p10
aS'flee'
p11
a(lp12
S'target'
p13
aaS'alignment'
p14
aS'alignment'
p15
a(lp16
S'flee'
p17
aS'currentVelocity'
p18
aS'target'
p19
aS'currentVelocity'
p20
aaS'target'
p21
asS'accel_x'
p22
F0
sS'accel_y'
p23
F0
sS'maxAccel'
p24
I2
sS'maxVel'
p25
F0.5
sS'age'
p26
I300
sS'gener'
p27
S'm'
sS'lastScale'
p28
F11.30000034357691
sS'energy'
p29
F0.58000003435769087
sb.(i__main__
Data_mobile
p1
(dp2
S'vel_y'
p3
F0.21108198034647913
sS'vel_x'
p4
F-0.45325974625264115
sS'pos_x'
p5
F60.658451651121162
sS'pos_y'
p6
F-42.527570665841736
sS'isAlive'
p7
I01
sS'geno'
p8
(lp9
S'flee'
p10
aS'flee'
p11
a(lp12
S'target'
p13
aaS'alignment'
p14
aS'alignment'
p15
a(lp16
S'currentVelocity'
p17
aS'currentVelocity'
p18
aS'target'
p19
aS'currentVelocity'
p20
aaS'target'
p21
asS'accel_x'
p22
F0
sS'accel_y'
p23
F0
sS'maxAccel'
p24
I2
sS'maxVel'
p25
F0.5
sS'age'
p26
I150
sS'gener'
p27
S'm'
sS'lastScale'
p28
F11.196304622366881
sS'energy'
p29
F0.56963046223668823
sb.(i__main__
Data_mobile
p1
(dp2
S'vel_y'
p3
F-0.18343032414787269
sS'vel_x'
p4
F-0.46513795392658119
sS'pos_x'
p5
F55.312947752622385
sS'pos_y'
p6
F-51.520221410165902
sS'isAlive'
p7
I01
sS'geno'
p8
(lp9
S'POINT.+'
p10
aS'flee'
p11
aS'flee'
p12
aS'alignment'
p13
a(lp14
S'flee'
p15
aa(lp16
S'flee'
p17
aS'currentVelocity'
p18
aS'target'
p19
aS'currentVelocity'
p20
aaS'POINT.+'
p21
asS'accel_x'
p22
F-0.46513795392658119
sS'accel_y'
p23
F-0.18343032414787269
sS'maxAccel'
p24
I2
sS'maxVel'
p25
F0.5
sS'age'
p26
I150
sS'gener'
p27
S'm'
sS'lastScale'
p28
F11.196304622366881
sS'energy'
p29
F0.56963046223668823
sb.(i__main__
Data_mobile
p1
(dp2
S'vel_y'
p3
F-0.24528389296955047
sS'vel_x'
p4
F-0.43570151692380199
sS'pos_x'
p5
F60.660579683213612
sS'pos_y'
p6
F9.0836367572385832
sS'isAlive'
p7
I01
sS'geno'
p8
(lp9
S'flee'
p10
aS'flee'
p11
a(lp12
S'flee'
p13
aS'flee'
p14
aaS'alignment'
p15
a(lp16
S'alignment'
p17
a(lp18
S'target'
p19
aaa(lp20
S'alignment'
p21
aS'target'
p22
aS'target'
p23
aS'currentVelocity'
p24
aaS'POINT.+'
p25
asS'accel_x'
p26
F-0.16185193582589597
sS'accel_y'
p27
F0.078004225236994323
sS'maxAccel'
p28
I2
sS'maxVel'
p29
F0.5
sS'age'
p30
I100
sS'gener'
p31
S'm'
sS'lastScale'
p32
F15.352082128537274
sS'energy'
p33
F0.98520821285372739
sb.(i__main__
Data_mobile
p1
(dp2
S'vel_y'
p3
F0.33913603294623901
sS'vel_x'
p4
F0.36740543158408467
sS'pos_x'
p5
F149.61983146190593
sS'pos_y'
p6
F85.880249458071404
sS'isAlive'
p7
I01
sS'geno'
p8
(lp9
S'randV'
p10
aS'flee'
p11
a(lp12
S'target'
p13
aaS'flee'
p14
a(lp15
(lp16
S'alignment'
p17
aa(lp18
S'mostEnergizedNeighbor'
p19
aaaS'target'
p20
aS'POINT.+'
p21
asS'accel_x'
p22
F0.64356847058613198
sS'accel_y'
p23
F-0.45827818717019397
sS'maxAccel'
p24
I2
sS'maxVel'
p25
F0.5
sS'age'
p26
I100
sS'gener'
p27
S'm'
sS'lastScale'
p28
F15.352082128537274
sS'energy'
p29
F0.98520821285372739
sb.(i__main__
Data_mobile
p1
(dp2
S'vel_y'
p3
F-0.49393094337917925
sS'vel_x'
p4
F-0.077667388088914116
sS'pos_x'
p5
F150.99427802628313
sS'pos_y'
p6
F84.857820461612491
sS'isAlive'
p7
I01
sS'geno'
p8
(lp9
S'flee'
p10
a(lp11
S'cohesion'
p12
aaS'POINT.*'
p13
aS'flee'
p14
aS'cohesion'
p15
a(lp16
S'alignment'
p17
aS'currentVelocity'
p18
aS'target'
p19
aS'currentVelocity'
p20
aaS'POINT.+'
p21
asS'accel_x'
p22
F-0.98725944642902375
sS'accel_y'
p23
F-0.16299934182891757
sS'maxAccel'
p24
I2
sS'maxVel'
p25
F0.5
sS'age'
p26
I100
sS'gener'
p27
S'm'
sS'lastScale'
p28
F15.352082128537274
sS'energy'
p29
F0.98520821285372739
sb.(i__main__
Data_mobile
p1
(dp2
S'vel_y'
p3
F0.40376799226418597
sS'vel_x'
p4
F0.29490915283006774
sS'pos_x'
p5
F61.463076185683214
sS'pos_y'
p6
F9.0965680101256314
sS'isAlive'
p7
I01
sS'geno'
p8
(lp9
S'randV'
p10
aS'POINT.+'
p11
a(lp12
S'target'
p13
aaS'flee'
p14
aS'flee'
p15
aS'target'
p16
aS'POINT.+'
p17
asS'accel_x'
p18
F-0.52864692137169556
sS'accel_y'
p19
F0.31035686531949658
sS'maxAccel'
p20
I2
sS'maxVel'
p21
F0.5
sS'age'
p22
I100
sS'gener'
p23
S'm'
sS'lastScale'
p24
F15.352082128537274
sS'energy'
p25
F0.98520821285372739
sb.(i__main__
Data_mobile
p1
(dp2
S'vel_y'
p3
F-0.10144145621869118
sS'vel_x'
p4
F0.4896015022038141
sS'pos_x'
p5
F27.19840271845117
sS'pos_y'
p6
F1.411478913362344
sS'isAlive'
p7
I01
sS'geno'
p8
(lp9
S'flee'
p10
aS'flee'
p11
a(lp12
S'target'
p13
aS'flee'
p14
aaS'alignment'
p15
aS'currentVelocity'
p16
a(lp17
S'alignment'
p18
aS'currentVelocity'
p19
aS'target'
p20
aS'currentVelocity'
p21
aaS'POINT.+'
p22
asS'accel_x'
p23
F0.11510852647749475
sS'accel_y'
p24
F-0.9939818844558308
sS'maxAccel'
p25
I2
sS'maxVel'
p26
F0.5
sS'age'
p27
I100
sS'gener'
p28
S'm'
sS'lastScale'
p29
F15.352082128537274
sS'energy'
p30
F0.98520821285372739
sb.(i__main__
Data_mobile
p1
(dp2
S'vel_y'
p3
F0.49955047329824953
sS'vel_x'
p4
F0.021197278775703925
sS'pos_x'
p5
F61.891401139369037
sS'pos_y'
p6
F9.5521084414929742
sS'isAlive'
p7
I01
sS'geno'
p8
(lp9
S'flee'
p10
aS'flee'
p11
a(lp12
S'target'
p13
aaS'alignment'
p14
aS'separation'
p15
a(lp16
S'cohesion'
p17
aS'currentVelocity'
p18
aS'target'
p19
aS'currentVelocity'
p20
aaS'POINT.+'
p21
asS'accel_x'
p22
F-0.93577459628181525
sS'accel_y'
p23
F0.35436690725040332
sS'maxAccel'
p24
I2
sS'maxVel'
p25
F0.5
sS'age'
p26
I100
sS'gener'
p27
S'm'
sS'lastScale'
p28
F15.352082128537274
sS'energy'
p29
F0.98520821285372739
sb.(i__main__
Data_mobile
p1
(dp2
S'vel_y'
p3
F0.49026475925852736
sS'vel_x'
p4
F0.098185873877957588
sS'pos_x'
p5
F60.781143379892001
sS'pos_y'
p6
F9.0972309558010682
sS'isAlive'
p7
I01
sS'geno'
p8
(lp9
S'flee'
p10
aS'flee'
p11
a(lp12
S'flee'
p13
aaS'alignment'
p14
aS'currentVelocity'
p15
a(lp16
S'flee'
p17
aS'currentVelocity'
p18
aS'target'
p19
aS'currentVelocity'
p20
aaS'target'
p21
asS'accel_x'
p22
F0.15328588441951752
sS'accel_y'
p23
F0.30969391964405979
sS'maxAccel'
p24
I2
sS'maxVel'
p25
F0.5
sS'age'
p26
I100
sS'gener'
p27
S'm'
sS'lastScale'
p28
F15.352082128537274
sS'energy'
p29
F0.98520821285372739
sb.(i__main__
Data_mobile
p1
(dp2
S'vel_y'
p3
F-0.49782274746801558
sS'vel_x'
p4
F-0.046610214582174694
sS'pos_x'
p5
F79.352171022429559
sS'pos_y'
p6
F89.132070060866766
sS'isAlive'
p7
I01
sS'geno'
p8
(lp9
S'mostEnergizedNeighbor'
p10
a(lp11
S'cohesion'
p12
aaS'POINT.*'
p13
aS'flee'
p14
aS'cohesion'
p15
a(lp16
S'alignment'
p17
aS'currentVelocity'
p18
aS'target'
p19
aS'currentVelocity'
p20
aaS'POINT.+'
p21
asS'accel_x'
p22
F-0.9751262408174608
sS'accel_y'
p23
F-0.22445225431961002
sS'maxAccel'
p24
I2
sS'maxVel'
p25
F0.5
sS'age'
p26
I100
sS'gener'
p27
S'm'
sS'lastScale'
p28
F15.352082128537274
sS'energy'
p29
F0.98520821285372739
sb.(i__main__
Data_mobile
p1
(dp2
S'vel_y'
p3
F-0.46167297218612474
sS'vel_x'
p4
F-0.19198454821372912
sS'pos_x'
p5
F52.067734961927421
sS'pos_y'
p6
F69.891399353703719
sS'isAlive'
p7
I01
sS'geno'
p8
(lp9
S'randV'
p10
aS'flee'
p11
aS'flee'
p12
aS'flee'
p13
a(lp14
(lp15
S'alignment'
p16
aa(lp17
S'mostEnergizedNeighbor'
p18
aaaS'target'
p19
aS'POINT.+'
p20
asS'accel_x'
p21
F0.43702967525549496
sS'accel_y'
p22
F-0.3407143241779238
sS'maxAccel'
p23
I2
sS'maxVel'
p24
F0.5
sS'age'
p25
I100
sS'gener'
p26
S'm'
sS'lastScale'
p27
F15.352082128537274
sS'energy'
p28
F0.95507871960343194
sb.(i__main__
Data_mobile
p1
(dp2
S'vel_y'
p3
F0.1599815089861793
sS'vel_x'
p4
F-0.47371501642074332
sS'pos_x'
p5
F113.23085408475929
sS'pos_y'
p6
F89.665640098366637
sS'isAlive'
p7
I01
sS'geno'
p8
(lp9
S'flee'
p10
aS'flee'
p11
aS'target'
p12
aS'alignment'
p13
aS'currentVelocity'
p14
a(lp15
S'alignment'
p16
aS'currentVelocity'
p17
aS'target'
p18
aS'currentVelocity'
p19
aaS'POINT.+'
p20
asS'accel_x'
p21
F-0.47371501642074332
sS'accel_y'
p22
F0.1599815089861793
sS'maxAccel'
p23
I2
sS'maxVel'
p24
F0.5
sS'age'
p25
I100
sS'gener'
p26
S'm'
sS'lastScale'
p27
F14.6432283145118
sS'energy'
p28
F0.91432283145117998
sb.(i__main__
Data_mobile
p1
(dp2
S'vel_y'
p3
F-0.45136858949594211
sS'vel_x'
p4
F0.21509624919194603
sS'pos_x'
p5
F118.77406461133079
sS'pos_y'
p6
F87.085372691027601
sS'isAlive'
p7
I01
sS'geno'
p8
(lp9
S'flee'
p10
aS'flee'
p11
aS'randV'
p12
aS'alignment'
p13
aS'alignment'
p14
a(lp15
(lp16
S'flee'
p17
a(lp18
S'cohesion'
p19
aaS'POINT.*'
p20
aS'target'
p21
aS'flee'
p22
a(lp23
S'alignment'
p24
aS'currentVelocity'
p25
aS'target'
p26
aS'currentVelocity'
p27
aaS'randV'
p28
aaS'currentVelocity'
p29
aS'target'
p30
aS'currentVelocity'
p31
aaS'POINT.+'
p32
asS'accel_x'
p33
F0.21509624919194603
sS'accel_y'
p34
F-0.45136858949594211
sS'maxAccel'
p35
I2
sS'maxVel'
p36
F0.5
sS'age'
p37
I100
sS'gener'
p38
S'm'
sS'lastScale'
p39
F14.507411719020674
sS'energy'
p40
F0.90074117190206726
sb.(i__main__
Data_mobile
p1
(dp2
S'vel_y'
p3
F0.38360665294192692
sS'vel_x'
p4
F0.32069601777803858
sS'pos_x'
p5
F11.737537677263914
sS'pos_y'
p6
F28.815310233758332
sS'isAlive'
p7
I01
sS'geno'
p8
(lp9
S'flee'
p10
aS'flee'
p11
a(lp12
S'target'
p13
aaS'alignment'
p14
aS'alignment'
p15
a(lp16
S'cohesion'
p17
aaS'target'
p18
asS'accel_x'
p19
F0.93867299340349852
sS'accel_y'
p20
F1.7660387910391198
sS'maxAccel'
p21
I2
sS'maxVel'
p22
F0.5
sS'age'
p23
I100
sS'gener'
p24
S'm'
sS'lastScale'
p25
F11.149014660429753
sS'energy'
p26
F0.56490146604297531
sb.(i__main__
Data_mobile
p1
(dp2
S'vel_y'
p3
F-0.30461492528330764
sS'vel_x'
p4
F-0.39649684399077495
sS'pos_x'
p5
F26.504981604033517
sS'pos_y'
p6
F0.27373919037625982
sS'isAlive'
p7
I01
sS'geno'
p8
(lp9
S'flee'
p10
aS'flee'
p11
aS'flee'
p12
aS'alignment'
p13
a(lp14
S'target'
p15
aa(lp16
S'flee'
p17
aS'target'
p18
aS'target'
p19
aS'currentVelocity'
p20
aaS'POINT.+'
p21
asS'accel_x'
p22
F-0.077568705299441321
sS'accel_y'
p23
F-0.059415630534363106
sS'maxAccel'
p24
I2
sS'maxVel'
p25
F0.5
sS'age'
p26
I50
sS'gener'
p27
S'm'
sS'lastScale'
p28
F15.398593637295674
sS'energy'
p29
F0.98985936372956751
sb.(i__main__
Data_mobile
p1
(dp2
S'vel_y'
p3
F-0.21572484552049492
sS'vel_x'
p4
F-0.4510684992605431
sS'pos_x'
p5
F27.061895610519585
sS'pos_y'
p6
F-0.42326899975672733
sS'isAlive'
p7
I01
sS'geno'
p8
(lp9
S'flee'
p10
aS'flee'
p11
a(lp12
S'flee'
p13
aS'flee'
p14
aaS'alignment'
p15
aS'flee'
p16
a(lp17
S'alignment'
p18
aS'currentVelocity'
p19
aS'target'
p20
aS'currentVelocity'
p21
aaS'POINT.+'
p22
asS'accel_x'
p23
F-0.68905436705527712
sS'accel_y'
p24
F0.72648263936143676
sS'maxAccel'
p25
I2
sS'maxVel'
p26
F0.5
sS'age'
p27
I50
sS'gener'
p28
S'm'
sS'lastScale'
p29
F15.398593637295674
sS'energy'
p30
F0.98985936372956751
sb.(i__main__
Data_mobile
p1
(dp2
S'vel_y'
p3
F0.40678038150327728
sS'vel_x'
p4
F0.29073995463996383
sS'pos_x'
p5
F169.48171154559495
sS'pos_y'
p6
F45.004146306664516
sS'isAlive'
p7
I01
sS'geno'
p8
(lp9
S'flee'
p10
aS'flee'
p11
a(lp12
S'flee'
p13
aS'flee'
p14
aaS'alignment'
p15
aS'currentVelocity'
p16
a(lp17
S'alignment'
p18
aS'currentVelocity'
p19
aS'target'
p20
aS'currentVelocity'
p21
aaS'POINT.+'
p22
asS'accel_x'
p23
F-0.59004369065156581
sS'accel_y'
p24
F0.80814506316825696
sS'maxAccel'
p25
I2
sS'maxVel'
p26
F0.5
sS'age'
p27
I50
sS'gener'
p28
S'm'
sS'lastScale'
p29
F15.398593637295674
sS'energy'
p30
F0.98985936372956751
sb.(i__main__
Data_mobile
p1
(dp2
S'vel_y'
p3
F0.10282715373905912
sS'vel_x'
p4
F-0.48931235060431894
sS'pos_x'
p5
F-16.59670128187836
sS'pos_y'
p6
F50.832742034736604
sS'isAlive'
p7
I01
sS'geno'
p8
(lp9
S'flee'
p10
aS'flee'
p11
a(lp12
S'flee'
p13
aS'flee'
p14
aaS'alignment'
p15
a(lp16
S'currentVelocity'
p17
a(lp18
S'target'
p19
aaa(lp20
S'alignment'
p21
aS'currentVelocity'
p22
aS'target'
p23
aS'currentVelocity'
p24
aaS'POINT.+'
p25
asS'accel_x'
p26
F-0.097280092204361124
sS'accel_y'
p27
F0.020442810682534368
sS'maxAccel'
p28
I2
sS'maxVel'
p29
F0.5
sS'age'
p30
I50
sS'gener'
p31
S'm'
sS'lastScale'
p32
F15.398593637295674
sS'energy'
p33
F0.98985936372956751
sb.(i__main__
Data_mobile
p1
(dp2
S'vel_y'
p3
F-0.18036403872944959
sS'vel_x'
p4
F0.46633551605384038
sS'pos_x'
p5
F150.6004542735285
sS'pos_y'
p6
F86.007844473260903
sS'isAlive'
p7
I01
sS'geno'
p8
(lp9
S'flee'
p10
a(lp11
S'cohesion'
p12
aaS'POINT.*'
p13
aS'flee'
p14
aS'cohesion'
p15
a(lp16
S'alignment'
p17
aS'currentVelocity'
p18
aS'target'
p19
aS'currentVelocity'
p20
aa(lp21
S'POINT.+'
p22
aasS'accel_x'
p23
F-0.04943278953164143
sS'accel_y'
p24
F-0.9994564488276001
sS'maxAccel'
p25
I2
sS'maxVel'
p26
F0.5
sS'age'
p27
I50
sS'gener'
p28
S'm'
sS'lastScale'
p29
F15.398593637295674
sS'energy'
p30
F0.98985936372956751
sb.(i__main__
Data_mobile
p1
(dp2
S'vel_y'
p3
F-0.00042077043212430942
sS'vel_x'
p4
F0.0099146788627021021
sS'pos_x'
p5
F27.532617036837081
sS'pos_y'
p6
F0.28457802724059855
sS'isAlive'
p7
I01
sS'geno'
p8
(lp9
S'flee'
p10
a(lp11
S'flee'
p12
aS'flee'
p13
aa(lp14
S'target'
p15
aaS'alignment'
p16
aS'alignment'
p17
a(lp18
S'POINT.*'
p19
aS'currentVelocity'
p20
aS'target'
p21
aS'currentVelocity'
p22
aaS'target'
p23
asS'accel_x'
p24
F-0.7087072941122301
sS'accel_y'
p25
F0.2343604578846058
sS'maxAccel'
p26
I2
sS'maxVel'
p27
F0.5
sS'age'
p28
I50
sS'gener'
p29
S'm'
sS'lastScale'
p30
F15.398593637295674
sS'energy'
p31
F0.98985936372956751
sb.(i__main__
Data_mobile
p1
(dp2
S'vel_y'
p3
F0.29784081023197972
sS'vel_x'
p4
F-0.40161032327413831
sS'pos_x'
p5
F-20.502819656606022
sS'pos_y'
p6
F-80.564944851014616
sS'isAlive'
p7
I01
sS'geno'
p8
(lp9
S'flee'
p10
aS'flee'
p11
aS'flee'
p12
aS'alignment'
p13
a(lp14
S'target'
p15
aa(lp16
S'target'
p17
aaS'POINT.+'
p18
asS'accel_x'
p19
F0.69593009483105561
sS'accel_y'
p20
F-0.51611291013622917
sS'maxAccel'
p21
I2
sS'maxVel'
p22
F0.5
sS'age'
p23
I50
sS'gener'
p24
S'm'
sS'lastScale'
p25
F15.398593637295674
sS'energy'
p26
F0.97527506856173551
sb.(i__main__
Data_mobile
p1
(dp2
S'vel_y'
p3
F0.1512700987640434
sS'vel_x'
p4
F0.47656831327724314
sS'pos_x'
p5
F119.79639597292919
sS'pos_y'
p6
F90.541991289819691
sS'isAlive'
p7
I01
sS'geno'
p8
(lp9
S'flee'
p10
aS'flee'
p11
a(lp12
S'flee'
p13
aS'flee'
p14
aaS'alignment'
p15
a(lp16
S'alignment'
p17
a(lp18
S'POINT.+'
p19
aaa(lp20
S'alignment'
p21
aS'currentVelocity'
p22
aS'target'
p23
aS'currentVelocity'
p24
aaS'POINT.+'
p25
asS'accel_x'
p26
F0.47656831327724314
sS'accel_y'
p27
F0.1512700987640434
sS'maxAccel'
p28
I2
sS'maxVel'
p29
F0.5
sS'age'
p30
I50
sS'gener'
p31
S'm'
sS'lastScale'
p32
F14.792205453385055
sS'energy'
p33
F0.9292205453385054
sb.(i__main__
Data_mobile
p1
(dp2
S'vel_y'
p3
F-0.32275336433867641
sS'vel_x'
p4
F0.38187729155851302
sS'pos_x'
p5
F193.58146238239206
sS'pos_y'
p6
F55.867076605876285
sS'isAlive'
p7
I01
sS'geno'
p8
(lp9
S'flee'
p10
aS'flee'
p11
a(lp12
S'flee'
p13
aS'flee'
p14
aa(lp15
S'alignment'
p16
aS'currentVelocity'
p17
aS'target'
p18
aS'currentVelocity'
p19
aa(lp20
S'alignment'
p21
a(lp22
S'POINT.+'
p23
aaa(lp24
S'alignment'
p25
aS'currentVelocity'
p26
aS'target'
p27
aS'currentVelocity'
p28
aaS'POINT.+'
p29
asS'accel_x'
p30
F1.5275092102276777
sS'accel_y'
p31
F-1.2910134053020579
sS'maxAccel'
p32
I2
sS'maxVel'
p33
F0.5
sS'age'
p34
I50
sS'gener'
p35
S'm'
sS'lastScale'
p36
F13.886984481996521
sS'energy'
p37
F0.838698448199652
sb.(i__main__
Data_mobile
p1
(dp2
S'vel_y'
p3
F-0.31635174443267849
sS'vel_x'
p4
F0.3871970735870835
sS'pos_x'
p5
F192.66993355725614
sS'pos_y'
p6
F56.484005176405155
sS'isAlive'
p7
I01
sS'geno'
p8
(lp9
S'flee'
p10
aS'flee'
p11
a(lp12
S'flee'
p13
aS'flee'
p14
aa(lp15
S'POINT.+'
p16
aa(lp17
S'alignment'
p18
a(lp19
S'target'
p20
aaa(lp21
S'alignment'
p22
aS'currentVelocity'
p23
aS'target'
p24
aS'currentVelocity'
p25
aaS'POINT.+'
p26
asS'accel_x'
p27
F1.5487883854369149
sS'accel_y'
p28
F-1.26540686624331
sS'maxAccel'
p29
I2
sS'maxVel'
p30
F0.5
sS'age'
p31
I50
sS'gener'
p32
S'm'
sS'lastScale'
p33
F13.886984481996521
sS'energy'
p34
F0.838698448199652
sb.(i__main__
Data_mobile
p1
(dp2
S'vel_y'
p3
F0.44951535790185942
sS'vel_x'
p4
F0.21894278478717494
sS'pos_x'
p5
F18.804269884137796
sS'pos_y'
p6
F36.507376343452414
sS'isAlive'
p7
I01
sS'geno'
p8
(lp9
S'flee'
p10
aS'flee'
p11
a(lp12
S'target'
p13
aaS'flee'
p14
aS'alignment'
p15
a(lp16
S'flee'
p17
aS'currentVelocity'
p18
aS'target'
p19
aS'currentVelocity'
p20
aaS'target'
p21
asS'accel_x'
p22
F0.44622709429584417
sS'accel_y'
p23
F1.9495849251356785
sS'maxAccel'
p24
I2
sS'maxVel'
p25
F0.5
sS'age'
p26
I50
sS'gener'
p27
S'm'
sS'lastScale'
p28
F11.883178925036459
sS'energy'
p29
F0.63831789250364579
sb.(i__main__
Data_mobile
p1
(dp2
S'vel_y'
p3
F0.32765385218189114
sS'vel_x'
p4
F-0.37768102037349899
sS'pos_x'
p5
F140.99225873080215
sS'pos_y'
p6
F70.614786938103009
sS'isAlive'
p7
I01
sS'geno'
p8
(lp9
S'flee'
p10
aS'flee'
p11
a(lp12
S'flee'
p13
aS'flee'
p14
aaS'alignment'
p15
a(lp16
S'alignment'
p17
a(lp18
S'target'
p19
aaa(lp20
S'alignment'
p21
aS'currentVelocity'
p22
aS'flee'
p23
aS'currentVelocity'
p24
aaS'POINT.+'
p25
asS'accel_x'
p26
F-0.37768102037349899
sS'accel_y'
p27
F0.32765385218189114
sS'maxAccel'
p28
I2
sS'maxVel'
p29
F0.5
sS'age'
p30
I50
sS'gener'
p31
S'm'
sS'lastScale'
p32
F8.4825676022439946
sS'energy'
p33
F0.29825676022439951
sb.(i__main__
Data_mobile
p1
(dp2
S'vel_y'
p3
F-0.019625661219407259
sS'vel_x'
p4
F-0.45974037946738283
sS'pos_x'
p5
F74.165492752612678
sS'pos_y'
p6
F69.957397140427844
sS'isAlive'
p7
I01
sS'geno'
p8
(lp9
S'flee'
p10
aS'flee'
p11
a(lp12
S'flee'
p13
aS'flee'
p14
aaS'alignment'
p15
aS'currentVelocity'
p16
aS'flee'
p17
aS'POINT.+'
p18
asS'accel_x'
p19
F0
sS'accel_y'
p20
F0
sS'maxAccel'
p21
I2
sS'maxVel'
p22
F0.5
sS'age'
p23
I0
sS'gener'
p24
S'm'
sS'lastScale'
p25
F5.5
sS'energy'
p26
F0.5
sb.(i__main__
Data_mobile
p1
(dp2
S'vel_y'
p3
F-0.38649564860485736
sS'vel_x'
p4
F-0.25733005510613111
sS'pos_x'
p5
F117.6139191812446
sS'pos_y'
p6
F30.509461036177505
sS'isAlive'
p7
I01
sS'geno'
p8
(lp9
S'flee'
p10
aS'flee'
p11
a(lp12
S'flee'
p13
aS'flee'
p14
aaS'alignment'
p15
aS'currentVelocity'
p16
a(lp17
S'alignment'
p18
aS'currentVelocity'
p19
aS'target'
p20
aS'alignment'
p21
aaS'POINT.+'
p22
asS'accel_x'
p23
F0
sS'accel_y'
p24
F0
sS'maxAccel'
p25
I2
sS'maxVel'
p26
F0.5
sS'age'
p27
I0
sS'gener'
p28
S'm'
sS'lastScale'
p29
F5.5
sS'energy'
p30
F0.5
sb.(i__main__
Data_mobile
p1
(dp2
S'vel_y'
p3
F-0.046847203542098981
sS'vel_x'
p4
F0.34516063944213859
sS'pos_x'
p5
F-6.2681689601613755
sS'pos_y'
p6
F76.66049266793155
sS'isAlive'
p7
I01
sS'geno'
p8
(lp9
S'flee'
p10
aS'flee'
p11
aS'flee'
p12
aS'alignment'
p13
a(lp14
S'cohesion'
p15
aa(lp16
S'flee'
p17
aS'currentVelocity'
p18
aS'target'
p19
aS'currentVelocity'
p20
aaS'POINT.+'
p21
asS'accel_x'
p22
F0
sS'accel_y'
p23
F0
sS'maxAccel'
p24
I2
sS'maxVel'
p25
F0.5
sS'age'
p26
I0
sS'gener'
p27
S'm'
sS'lastScale'
p28
F5.5
sS'energy'
p29
F0.5
sb.(i__main__
Data_mobile
p1
(dp2
S'vel_y'
p3
F-0.24090626196676482
sS'vel_x'
p4
F0.075891313928083126
sS'pos_x'
p5
F-71.831502439478939
sS'pos_y'
p6
F67.326661745403229
sS'isAlive'
p7
I01
sS'geno'
p8
(lp9
S'flee'
p10
a(lp11
S'cohesion'
p12
aaS'POINT.*'
p13
aS'flee'
p14
aS'cohesion'
p15
a(lp16
S'mostEnergizedNeighbor'
p17
aS'currentVelocity'
p18
aS'flee'
p19
aS'currentVelocity'
p20
aaS'POINT.+'
p21
asS'accel_x'
p22
F0
sS'accel_y'
p23
F0
sS'maxAccel'
p24
I2
sS'maxVel'
p25
F0.5
sS'age'
p26
I0
sS'gener'
p27
S'm'
sS'lastScale'
p28
F5.5
sS'energy'
p29
F0.5
sb.(i__main__
Data_mobile
p1
(dp2
S'vel_y'
p3
F-0.49710486366883827
sS'vel_x'
p4
F-0.044730650486059842
sS'pos_x'
p5
F121.07024368181651
sS'pos_y'
p6
F36.534148248643142
sS'isAlive'
p7
I01
sS'geno'
p8
(lp9
S'flee'
p10
aS'flee'
p11
a(lp12
S'target'
p13
aaS'alignment'
p14
aS'alignment'
p15
a(lp16
S'flee'
p17
aS'currentVelocity'
p18
aS'target'
p19
aS'currentVelocity'
p20
aaS'currentVelocity'
p21
asS'accel_x'
p22
F0
sS'accel_y'
p23
F0
sS'maxAccel'
p24
I2
sS'maxVel'
p25
F0.5
sS'age'
p26
I0
sS'gener'
p27
S'm'
sS'lastScale'
p28
F5.5
sS'energy'
p29
F0.5
sb.(i__main__
Data_mobile
p1
(dp2
S'vel_y'
p3
F-0.45106925986898128
sS'vel_x'
p4
F-0.21572325512389562
sS'pos_x'
p5
F79.200560774488693
sS'pos_y'
p6
F88.828127078377577
sS'isAlive'
p7
I01
sS'geno'
p8
(lp9
S'flee'
p10
a(lp11
S'cohesion'
p12
aaS'POINT.*'
p13
aS'flee'
p14
aS'cohesion'
p15
a(lp16
S'alignment'
p17
aS'cohesion'
p18
aS'target'
p19
aS'currentVelocity'
p20
aaS'POINT.+'
p21
asS'accel_x'
p22
F0
sS'accel_y'
p23
F0
sS'maxAccel'
p24
I2
sS'maxVel'
p25
F0.5
sS'age'
p26
I0
sS'gener'
p27
S'm'
sS'lastScale'
p28
F5.5
sS'energy'
p29
F0.5
sb.(i__main__
Data_mobile
p1
(dp2
S'vel_y'
p3
F0.31348246767454468
sS'vel_x'
p4
F-0.22248519128414262
sS'pos_x'
p5
F122.90631974184946
sS'pos_y'
p6
F46.888675740219142
sS'isAlive'
p7
I01
sS'geno'
p8
(lp9
(lp10
S'target'
p11
aaS'flee'
p12
a(lp13
S'flee'
p14
aS'flee'
p15
aaS'alignment'
p16
aS'flee'
p17
a(lp18
S'alignment'
p19
aS'currentVelocity'
p20
aS'target'
p21
aS'currentVelocity'
p22
aaS'POINT.+'
p23
asS'accel_x'
p24
F0
sS'accel_y'
p25
F0
sS'maxAccel'
p26
I2
sS'maxVel'
p27
F0.5
sS'age'
p28
I0
sS'gener'
p29
S'm'
sS'lastScale'
p30
F5.5
sS'energy'
p31
F0.5
sb.(i__main__
Data_mobile
p1
(dp2
S'vel_y'
p3
F-0.32087594726562219
sS'vel_x'
p4
F-0.38345615977108727
sS'pos_x'
p5
F149.33269267486699
sS'pos_y'
p6
F85.798161223471894
sS'isAlive'
p7
I01
sS'geno'
p8
(lp9
S'alignment'
p10
aS'currentVelocity'
p11
aS'target'
p12
aS'currentVelocity'
p13
asS'accel_x'
p14
F0
sS'accel_y'
p15
F0
sS'maxAccel'
p16
I2
sS'maxVel'
p17
F0.5
sS'age'
p18
I0
sS'gener'
p19
S'm'
sS'lastScale'
p20
F5.5
sS'energy'
p21
F0.5
sb.(i__main__
Data_mobile
p1
(dp2
S'vel_y'
p3
F-0.45106925986898133
sS'vel_x'
p4
F-0.21572325512389562
sS'pos_x'
p5
F79.200560774488693
sS'pos_y'
p6
F88.828127078377562
sS'isAlive'
p7
I01
sS'geno'
p8
(lp9
S'flee'
p10
a(lp11
S'cohesion'
p12
aaS'POINT.*'
p13
aS'flee'
p14
aS'cohesion'
p15
a(lp16
(lp17
S'alignment'
p18
aS'currentVelocity'
p19
aS'target'
p20
aS'currentVelocity'
p21
aaS'currentVelocity'
p22
aS'target'
p23
aS'currentVelocity'
p24
aaS'POINT.+'
p25
asS'accel_x'
p26
F0
sS'accel_y'
p27
F0
sS'maxAccel'
p28
I2
sS'maxVel'
p29
F0.5
sS'age'
p30
I0
sS'gener'
p31
S'm'
sS'lastScale'
p32
F5.5
sS'energy'
p33
F0.5
sb.(i__main__
Data_mobile
p1
(dp2
S'vel_y'
p3
F-0.32637049848563665
sS'vel_x'
p4
F-0.060992886396180397
sS'pos_x'
p5
F142.21432093958421
sS'pos_y'
p6
F77.437398775799792
sS'isAlive'
p7
I01
sS'geno'
p8
(lp9
S'flee'
p10
aS'flee'
p11
a(lp12
S'target'
p13
aaS'alignment'
p14
aS'separation'
p15
a(lp16
S'cohesion'
p17
aS'cohesion'
p18
aS'target'
p19
aS'currentVelocity'
p20
aaS'POINT.+'
p21
asS'accel_x'
p22
F0
sS'accel_y'
p23
F0
sS'maxAccel'
p24
I2
sS'maxVel'
p25
F0.5
sS'age'
p26
I0
sS'gener'
p27
S'm'
sS'lastScale'
p28
F5.5
sS'energy'
p29
F0.5
sb.(i__main__
Data_mobile
p1
(dp2
S'vel_y'
p3
F-0.32087594726562219
sS'vel_x'
p4
F-0.38345615977108727
sS'pos_x'
p5
F149.33269267486699
sS'pos_y'
p6
F85.798161223471894
sS'isAlive'
p7
I01
sS'geno'
p8
(lp9
S'POINT./'
p10
aS'flee'
p11
a(lp12
S'flee'
p13
aS'flee'
p14
aaS'POINT.+'
p15
aS'currentVelocity'
p16
a(lp17
S'alignment'
p18
aS'currentVelocity'
p19
aS'target'
p20
aS'currentVelocity'
p21
aaS'POINT.+'
p22
asS'accel_x'
p23
F0
sS'accel_y'
p24
F0
sS'maxAccel'
p25
I2
sS'maxVel'
p26
F0.5
sS'age'
p27
I0
sS'gener'
p28
S'm'
sS'lastScale'
p29
F5.5
sS'energy'
p30
F0.5
sb.(i__main__
Data_mobile
p1
(dp2
S'vel_y'
p3
F-0.2730578975326412
sS'vel_x'
p4
F-0.27359131569555273
sS'pos_x'
p5
F121.31257881798106
sS'pos_y'
p6
F83.025737962083952
sS'isAlive'
p7
I01
sS'geno'
p8
(lp9
S'alignment'
p10
aS'currentVelocity'
p11
aS'alignment'
p12
aS'currentVelocity'
p13
asS'accel_x'
p14
F0
sS'accel_y'
p15
F0
sS'maxAccel'
p16
I2
sS'maxVel'
p17
F0.5
sS'age'
p18
I0
sS'gener'
p19
S'm'
sS'lastScale'
p20
F5.5
sS'energy'
p21
F0.5
sb.(i__main__
Data_mobile
p1
(dp2
S'vel_y'
p3
F-0.17369246963807866
sS'vel_x'
p4
F-0.045293271273105534
sS'pos_x'
p5
F-68.271361874106361
sS'pos_y'
p6
F64.267536983854583
sS'isAlive'
p7
I01
sS'geno'
p8
(lp9
S'flee'
p10
aS'flee'
p11
a(lp12
S'flee'
p13
aS'flee'
p14
aaS'alignment'
p15
aS'currentVelocity'
p16
aS'currentVelocity'
p17
aS'POINT.+'
p18
asS'accel_x'
p19
F0
sS'accel_y'
p20
F0
sS'maxAccel'
p21
I2
sS'maxVel'
p22
F0.5
sS'age'
p23
I0
sS'gener'
p24
S'm'
sS'lastScale'
p25
F5.5
sS'energy'
p26
F0.5
sb.(i__main__
Data_mobile
p1
(dp2
S'vel_y'
p3
F-0.47596379899797575
sS'vel_x'
p4
F-0.14774822991435665
sS'pos_x'
p5
F53.277320056762882
sS'pos_y'
p6
F56.709057172871724
sS'isAlive'
p7
I01
sS'geno'
p8
(lp9
S'flee'
p10
aS'flee'
p11
a(lp12
S'target'
p13
aaS'alignment'
p14
aS'alignment'
p15
a(lp16
S'target'
p17
aaS'target'
p18
asS'accel_x'
p19
F0
sS'accel_y'
p20
F0
sS'maxAccel'
p21
I2
sS'maxVel'
p22
F0.5
sS'age'
p23
I0
sS'gener'
p24
S'm'
sS'lastScale'
p25
F5.5
sS'energy'
p26
F0.5
sb.(i__main__
Data_mobile
p1
(dp2
S'vel_y'
p3
F-0.41464634248299753
sS'vel_x'
p4
F0.023148785719870064
sS'pos_x'
p5
F34.625004265229336
sS'pos_y'
p6
F73.862471440946734
sS'isAlive'
p7
I01
sS'geno'
p8
(lp9
S'flee'
p10
aS'flee'
p11
aS'flee'
p12
aS'alignment'
p13
a(lp14
S'target'
p15
aa(lp16
S'flee'
p17
a(lp18
S'flee'
p19
aS'flee'
p20
aaS'target'
p21
aS'currentVelocity'
p22
aaS'POINT.+'
p23
asS'accel_x'
p24
F0
sS'accel_y'
p25
F0
sS'maxAccel'
p26
I2
sS'maxVel'
p27
F0.5
sS'age'
p28
I0
sS'gener'
p29
S'm'
sS'lastScale'
p30
F5.5
sS'energy'
p31
F0.5
sb.(i__main__
Data_mobile
p1
(dp2
S'vel_y'
p3
F-0.069592452345562827
sS'vel_x'
p4
F-0.44708751954212517
sS'pos_x'
p5
F56.862793124945377
sS'pos_y'
p6
F66.311019690088571
sS'isAlive'
p7
I01
sS'geno'
p8
(lp9
S'flee'
p10
aS'flee'
p11
a(lp12
S'flee'
p13
aS'flee'
p14
aaS'alignment'
p15
aS'flee'
p16
a(lp17
S'alignment'
p18
aS'currentVelocity'
p19
aS'alignment'
p20
aS'currentVelocity'
p21
aaS'POINT.+'
p22
asS'accel_x'
p23
F0
sS'accel_y'
p24
F0
sS'maxAccel'
p25
I2
sS'maxVel'
p26
F0.5
sS'age'
p27
I0
sS'gener'
p28
S'm'
sS'lastScale'
p29
F5.5
sS'energy'
p30
F0.5
sb.(i__main__
Data_mobile
p1
(dp2
S'vel_y'
p3
F0.35612896649480585
sS'vel_x'
p4
F-0.16912692207424523
sS'pos_x'
p5
F-8.8029571382497895
sS'pos_y'
p6
F50.609936343621669
sS'isAlive'
p7
I01
sS'geno'
p8
(lp9
S'flee'
p10
aS'flee'
p11
a(lp12
S'flee'
p13
aS'flee'
p14
aaS'alignment'
p15
a(lp16
S'alignment'
p17
a(lp18
S'flee'
p19
aaa(lp20
S'alignment'
p21
aS'currentVelocity'
p22
aS'target'
p23
aS'currentVelocity'
p24
aaS'POINT.+'
p25
asS'accel_x'
p26
F0
sS'accel_y'
p27
F0
sS'maxAccel'
p28
I2
sS'maxVel'
p29
F0.5
sS'age'
p30
I0
sS'gener'
p31
S'm'
sS'lastScale'
p32
F5.5
sS'energy'
p33
F0.5
sb.(i__main__
Data_mobile
p1
(dp2
S'vel_y'
p3
F-0.18849937925813243
sS'vel_x'
p4
F0.14860920751059692
sS'pos_x'
p5
F-58.228873499828794
sS'pos_y'
p6
F69.263180709385381
sS'isAlive'
p7
I01
sS'geno'
p8
(lp9
S'flee'
p10
aS'flee'
p11
aS'flee'
p12
aS'alignment'
p13
aS'flee'
p14
a(lp15
S'flee'
p16
aS'currentVelocity'
p17
aS'target'
p18
aS'currentVelocity'
p19
aaS'POINT.+'
p20
asS'accel_x'
p21
F0
sS'accel_y'
p22
F0
sS'maxAccel'
p23
I2
sS'maxVel'
p24
F0.5
sS'age'
p25
I0
sS'gener'
p26
S'm'
sS'lastScale'
p27
F5.5
sS'energy'
p28
F0.5
sb.(i__main__
Data_mobile
p1
(dp2
S'vel_y'
p3
F-0.33922936874554566
sS'vel_x'
p4
F-0.062272515690861029
sS'pos_x'
p5
F126.78203766788171
sS'pos_y'
p6
F64.394732585047294
sS'isAlive'
p7
I01
sS'geno'
p8
(lp9
S'flee'
p10
a(lp11
S'cohesion'
p12
aaS'POINT.*'
p13
aS'POINT.-'
p14
aS'cohesion'
p15
a(lp16
S'alignment'
p17
aS'currentVelocity'
p18
aS'currentVelocity'
p19
aS'currentVelocity'
p20
aaS'POINT.+'
p21
asS'accel_x'
p22
F0
sS'accel_y'
p23
F0
sS'maxAccel'
p24
I2
sS'maxVel'
p25
F0.5
sS'age'
p26
I0
sS'gener'
p27
S'm'
sS'lastScale'
p28
F5.5
sS'energy'
p29
F0.5
sb.(i__main__
Data_mobile
p1
(dp2
S'vel_y'
p3
F-0.47408000418497548
sS'vel_x'
p4
F-0.15665971536229648
sS'pos_x'
p5
F62.480962643699954
sS'pos_y'
p6
F-15.869341882586944
sS'isAlive'
p7
I01
sS'geno'
p8
(lp9
(lp10
S'alignment'
p11
a(lp12
S'target'
p13
aaaS'alignment'
p14
a(lp15
(lp16
S'target'
p17
aaaS'alignment'
p18
a(lp19
S'alignment'
p20
aS'flee'
p21
aa(lp22
S'target'
p23
aaS'POINT.+'
p24
asS'accel_x'
p25
F0
sS'accel_y'
p26
F0
sS'maxAccel'
p27
I2
sS'maxVel'
p28
F0.5
sS'age'
p29
I0
sS'gener'
p30
S'm'
sS'lastScale'
p31
F5.5
sS'energy'
p32
F0.5
sb.(i__main__
Data_mobile
p1
(dp2
S'vel_y'
p3
F-0.099309711687886479
sS'vel_x'
p4
F0.3360934135381512
sS'pos_x'
p5
F-26.466497214438121
sS'pos_y'
p6
F68.011333230098231
sS'isAlive'
p7
I01
sS'geno'
p8
(lp9
S'flee'
p10
aS'flee'
p11
a(lp12
S'flee'
p13
aS'flee'
p14
aaS'alignment'
p15
aS'alignment'
p16
a(lp17
S'flee'
p18
aS'currentVelocity'
p19
aS'target'
p20
aS'currentVelocity'
p21
aaS'target'
p22
asS'accel_x'
p23
F0
sS'accel_y'
p24
F0
sS'maxAccel'
p25
I2
sS'maxVel'
p26
F0.5
sS'age'
p27
I0
sS'gener'
p28
S'm'
sS'lastScale'
p29
F5.5
sS'energy'
p30
F0.5
sb.(i__main__
Data_mobile
p1
(dp2
S'vel_y'
p3
F-0.2673864787508517
sS'vel_x'
p4
F0.039148323568346605
sS'pos_x'
p5
F-107.43636403873103
sS'pos_y'
p6
F62.257826154664443
sS'isAlive'
p7
I01
sS'geno'
p8
(lp9
S'flee'
p10
a(lp11
S'cohesion'
p12
aaS'POINT.*'
p13
aS'flee'
p14
aS'cohesion'
p15
aS'POINT.+'
p16
aS'POINT.+'
p17
asS'accel_x'
p18
F0
sS'accel_y'
p19
F0
sS'maxAccel'
p20
I2
sS'maxVel'
p21
F0.5
sS'age'
p22
I0
sS'gener'
p23
S'm'
sS'lastScale'
p24
F5.5
sS'energy'
p25
F0.5
sb.(i__main__
Data_mobile
p1
(dp2
S'vel_y'
p3
F-0.021847637225904753
sS'vel_x'
p4
F-0.49952245269621792
sS'pos_x'
p5
F137.28004458079312
sS'pos_y'
p6
F55.579178565980662
sS'isAlive'
p7
I01
sS'geno'
p8
(lp9
S'flee'
p10
aS'flee'
p11
a(lp12
S'flee'
p13
aS'flee'
p14
aaS'alignment'
p15
a(lp16
S'alignment'
p17
a(lp18
S'target'
p19
aaa(lp20
S'alignment'
p21
aS'currentVelocity'
p22
a(lp23
S'flee'
p24
aS'flee'
p25
aaS'currentVelocity'
p26
aaS'POINT.+'
p27
asS'accel_x'
p28
F-0.49952245269621792
sS'accel_y'
p29
F-0.021847637225904753
sS'maxAccel'
p30
I2
sS'maxVel'
p31
F0.5
sS'age'
p32
I50
sS'gener'
p33
S'm'
sS'lastScale'
p34
F5.5
sS'energy'
p35
I0
sb.(i__main__
Data_mobile
p1
(dp2
S'vel_y'
p3
F-0.24306892618169662
sS'vel_x'
p4
F-0.18160520857530738
sS'pos_x'
p5
F167.00700476085362
sS'pos_y'
p6
F50.196640370345349
sS'isAlive'
p7
I01
sS'geno'
p8
(lp9
S'flee'
p10
aS'flee'
p11
a(lp12
S'flee'
p13
aS'flee'
p14
aaS'alignment'
p15
a(lp16
S'alignment'
p17
a(lp18
S'POINT.+'
p19
aaa(lp20
S'alignment'
p21
aS'currentVelocity'
p22
aS'target'
p23
aS'currentVelocity'
p24
aaS'flee'
p25
asS'accel_x'
p26
F0
sS'accel_y'
p27
F0
sS'maxAccel'
p28
I2
sS'maxVel'
p29
F0.5
sS'age'
p30
I50
sS'gener'
p31
S'm'
sS'lastScale'
p32
F5.5
sS'energy'
p33
I0
sb.(i__main__
Data_mobile
p1
(dp2
S'vel_y'
p3
F-0.064085976095658706
sS'vel_x'
p4
F-0.093234026462786557
sS'pos_x'
p5
F21.684776338683928
sS'pos_y'
p6
F-58.223293318504766
sS'isAlive'
p7
I01
sS'geno'
p8
(lp9
S'flee'
p10
aS'flee'
p11
a(lp12
S'POINT.+'
p13
aaS'alignment'
p14
aS'alignment'
p15
a(lp16
S'flee'
p17
aS'currentVelocity'
p18
aS'target'
p19
aS'currentVelocity'
p20
aaS'target'
p21
asS'accel_x'
p22
F0
sS'accel_y'
p23
F0
sS'maxAccel'
p24
I2
sS'maxVel'
p25
F0.5
sS'age'
p26
I50
sS'gener'
p27
S'm'
sS'lastScale'
p28
F5.5
sS'energy'
p29
I0
sb.(i__main__
Data_mobile
p1
(dp2
S'vel_y'
p3
I0
sS'vel_x'
p4
I0
sS'pos_x'
p5
I-9579
sS'pos_y'
p6
I9779
sS'isAlive'
p7
I00
sS'geno'
p8
(lp9
S'flee'
p10
aS'flee'
p11
aS'flee'
p12
aS'alignment'
p13
a(lp14
S'target'
p15
aa(lp16
S'flee'
p17
aS'currentVelocity'
p18
aS'target'
p19
aS'currentVelocity'
p20
aaS'POINT.+'
p21
asS'accel_x'
p22
F0
sS'accel_y'
p23
F0
sS'maxAccel'
p24
I2
sS'maxVel'
p25
F0.5
sS'age'
p26
I0
sS'gener'
p27
S'm'
sS'lastScale'
p28
F5.5
sS'energy'
p29
F0.5
sb.(i__main__
Data_mobile
p1
(dp2
S'vel_y'
p3
I0
sS'vel_x'
p4
I0
sS'pos_x'
p5
I-9579
sS'pos_y'
p6
I9779
sS'isAlive'
p7
I00
sS'geno'
p8
(lp9
S'flee'
p10
aS'flee'
p11
aS'flee'
p12
aS'alignment'
p13
a(lp14
S'target'
p15
aaS'currentVelocity'
p16
aS'POINT.+'
p17
asS'accel_x'
p18
F0
sS'accel_y'
p19
F0
sS'maxAccel'
p20
I2
sS'maxVel'
p21
F0.5
sS'age'
p22
I0
sS'gener'
p23
S'm'
sS'lastScale'
p24
F5.5
sS'energy'
p25
F0.5
sb.(i__main__
Data_mobile
p1
(dp2
S'vel_y'
p3
I0
sS'vel_x'
p4
I0
sS'pos_x'
p5
I-9579
sS'pos_y'
p6
I9779
sS'isAlive'
p7
I00
sS'geno'
p8
(lp9
S'flee'
p10
aS'flee'
p11
a(lp12
S'target'
p13
aaS'alignment'
p14
aS'alignment'
p15
a(lp16
S'flee'
p17
aS'currentVelocity'
p18
aS'target'
p19
aS'currentVelocity'
p20
aaS'target'
p21
asS'accel_x'
p22
F0
sS'accel_y'
p23
F0
sS'maxAccel'
p24
I2
sS'maxVel'
p25
F0.5
sS'age'
p26
I0
sS'gener'
p27
S'm'
sS'lastScale'
p28
F5.5
sS'energy'
p29
F0.5
sb.(i__main__
Data_mobile
p1
(dp2
S'vel_y'
p3
I0
sS'vel_x'
p4
I0
sS'pos_x'
p5
I-9579
sS'pos_y'
p6
I9779
sS'isAlive'
p7
I00
sS'geno'
p8
(lp9
S'flee'
p10
a(lp11
S'cohesion'
p12
aaS'flee'
p13
aS'alignment'
p14
a(lp15
S'target'
p16
aa(lp17
S'flee'
p18
aS'currentVelocity'
p19
aS'target'
p20
aS'currentVelocity'
p21
aaS'POINT.+'
p22
asS'accel_x'
p23
F0
sS'accel_y'
p24
F0
sS'maxAccel'
p25
I2
sS'maxVel'
p26
F0.5
sS'age'
p27
I0
sS'gener'
p28
S'm'
sS'lastScale'
p29
F5.5
sS'energy'
p30
F0.5
sb.(i__main__
Data_mobile
p1
(dp2
S'vel_y'
p3
I0
sS'vel_x'
p4
I0
sS'pos_x'
p5
I-9579
sS'pos_y'
p6
I9779
sS'isAlive'
p7
I00
sS'geno'
p8
(lp9
S'flee'
p10
a(lp11
S'cohesion'
p12
aaS'POINT.*'
p13
aS'flee'
p14
aS'cohesion'
p15
a(lp16
S'alignment'
p17
aS'target'
p18
aS'target'
p19
aS'currentVelocity'
p20
aaS'POINT.+'
p21
asS'accel_x'
p22
F0
sS'accel_y'
p23
F0
sS'maxAccel'
p24
I2
sS'maxVel'
p25
F0.5
sS'age'
p26
I0
sS'gener'
p27
S'm'
sS'lastScale'
p28
F5.5
sS'energy'
p29
F0.5
sb.(i__main__
Data_mobile
p1
(dp2
S'vel_y'
p3
I0
sS'vel_x'
p4
I0
sS'pos_x'
p5
I-9579
sS'pos_y'
p6
I9779
sS'isAlive'
p7
I00
sS'geno'
p8
(lp9
S'flee'
p10
aS'flee'
p11
a(lp12
S'target'
p13
aaS'alignment'
p14
aS'alignment'
p15
a(lp16
(lp17
S'flee'
p18
a(lp19
S'cohesion'
p20
aaS'POINT.*'
p21
aS'target'
p22
aS'flee'
p23
a(lp24
S'alignment'
p25
aS'currentVelocity'
p26
aS'target'
p27
aS'currentVelocity'
p28
aaS'POINT.+'
p29
aaS'currentVelocity'
p30
aS'target'
p31
aS'currentVelocity'
p32
aaS'POINT.+'
p33
asS'accel_x'
p34
F0
sS'accel_y'
p35
F0
sS'maxAccel'
p36
I2
sS'maxVel'
p37
F0.5
sS'age'
p38
I0
sS'gener'
p39
S'm'
sS'lastScale'
p40
F5.5
sS'energy'
p41
F0.5
sb.(i__main__
Data_mobile
p1
(dp2
S'vel_y'
p3
I0
sS'vel_x'
p4
I0
sS'pos_x'
p5
I-9579
sS'pos_y'
p6
I9779
sS'isAlive'
p7
I00
sS'geno'
p8
(lp9
S'randV'
p10
aS'flee'
p11
a(lp12
S'target'
p13
aaS'flee'
p14
aS'flee'
p15
aS'target'
p16
aS'POINT.+'
p17
asS'accel_x'
p18
F0
sS'accel_y'
p19
F0
sS'maxAccel'
p20
I2
sS'maxVel'
p21
F0.5
sS'age'
p22
I0
sS'gener'
p23
S'm'
sS'lastScale'
p24
F5.5
sS'energy'
p25
F0.5
sb.(i__main__
Data_mobile
p1
(dp2
S'vel_y'
p3
I0
sS'vel_x'
p4
I0
sS'pos_x'
p5
I-9579
sS'pos_y'
p6
I9779
sS'isAlive'
p7
I00
sS'geno'
p8
(lp9
S'flee'
p10
aS'flee'
p11
a(lp12
S'target'
p13
aaS'alignment'
p14
aS'alignment'
p15
a(lp16
(lp17
S'flee'
p18
a(lp19
S'cohesion'
p20
aaS'POINT.*'
p21
aS'target'
p22
aS'flee'
p23
a(lp24
S'alignment'
p25
aS'currentVelocity'
p26
aS'target'
p27
aS'currentVelocity'
p28
aaS'POINT.+'
p29
aaS'currentVelocity'
p30
aS'target'
p31
aS'currentVelocity'
p32
aaS'currentVelocity'
p33
asS'accel_x'
p34
F0
sS'accel_y'
p35
F0
sS'maxAccel'
p36
I2
sS'maxVel'
p37
F0.5
sS'age'
p38
I0
sS'gener'
p39
S'm'
sS'lastScale'
p40
F5.5
sS'energy'
p41
F0.5
sb.(i__main__
Data_mobile
p1
(dp2
S'vel_y'
p3
I0
sS'vel_x'
p4
I0
sS'pos_x'
p5
I-9579
sS'pos_y'
p6
I9779
sS'isAlive'
p7
I00
sS'geno'
p8
(lp9
S'flee'
p10
aS'flee'
p11
a(lp12
S'flee'
p13
aaS'alignment'
p14
a(lp15
S'alignment'
p16
aS'flee'
p17
aaS'target'
p18
aS'target'
p19
asS'accel_x'
p20
F0
sS'accel_y'
p21
F0
sS'maxAccel'
p22
I2
sS'maxVel'
p23
F0.5
sS'age'
p24
I0
sS'gener'
p25
S'm'
sS'lastScale'
p26
F5.5
sS'energy'
p27
F0.5
sb.(i__main__
Data_mobile
p1
(dp2
S'vel_y'
p3
I0
sS'vel_x'
p4
I0
sS'pos_x'
p5
I-9579
sS'pos_y'
p6
I9779
sS'isAlive'
p7
I00
sS'geno'
p8
(lp9
S'flee'
p10
aS'flee'
p11
a(lp12
S'target'
p13
aaS'alignment'
p14
aS'separation'
p15
a(lp16
S'cohesion'
p17
aS'currentVelocity'
p18
aS'target'
p19
aS'currentVelocity'
p20
aaS'POINT.+'
p21
asS'accel_x'
p22
F0
sS'accel_y'
p23
F0
sS'maxAccel'
p24
I2
sS'maxVel'
p25
F0.5
sS'age'
p26
I0
sS'gener'
p27
S'm'
sS'lastScale'
p28
F5.5
sS'energy'
p29
F0.5
sb.(i__main__
Data_mobile
p1
(dp2
S'vel_y'
p3
I0
sS'vel_x'
p4
I0
sS'pos_x'
p5
I-9579
sS'pos_y'
p6
I9779
sS'isAlive'
p7
I00
sS'geno'
p8
(lp9
S'flee'
p10
aS'flee'
p11
aS'flee'
p12
aS'alignment'
p13
a(lp14
S'target'
p15
aa(lp16
S'flee'
p17
aS'currentVelocity'
p18
a(lp19
S'POINT.-'
p20
aaS'currentVelocity'
p21
aaS'POINT.+'
p22
asS'accel_x'
p23
F0
sS'accel_y'
p24
F0
sS'maxAccel'
p25
I2
sS'maxVel'
p26
F0.5
sS'age'
p27
I0
sS'gener'
p28
S'm'
sS'lastScale'
p29
F5.5
sS'energy'
p30
F0.5
sb.(i__main__
Data_mobile
p1
(dp2
S'vel_y'
p3
I0
sS'vel_x'
p4
I0
sS'pos_x'
p5
I-9579
sS'pos_y'
p6
I9779
sS'isAlive'
p7
I00
sS'geno'
p8
(lp9
S'flee'
p10
aS'flee'
p11
aS'flee'
p12
aS'alignment'
p13
a(lp14
S'target'
p15
aa(lp16
S'flee'
p17
aS'currentVelocity'
p18
a(lp19
S'alignment'
p20
aS'currentVelocity'
p21
aS'target'
p22
aS'currentVelocity'
p23
aaS'currentVelocity'
p24
aaS'POINT.+'
p25
asS'accel_x'
p26
F0
sS'accel_y'
p27
F0
sS'maxAccel'
p28
I2
sS'maxVel'
p29
F0.5
sS'age'
p30
I0
sS'gener'
p31
S'm'
sS'lastScale'
p32
F5.5
sS'energy'
p33
F0.5
sb.(i__main__
Data_mobile
p1
(dp2
S'vel_y'
p3
I0
sS'vel_x'
p4
I0
sS'pos_x'
p5
I-9579
sS'pos_y'
p6
I9779
sS'isAlive'
p7
I00
sS'geno'
p8
(lp9
S'flee'
p10
aS'flee'
p11
a(lp12
(lp13
S'currentVelocity'
p14
aS'flee'
p15
a(lp16
S'flee'
p17
aaS'alignment'
p18
a(lp19
S'alignment'
p20
aS'flee'
p21
aa(lp22
S'flee'
p23
aS'currentVelocity'
p24
aS'target'
p25
aS'currentVelocity'
p26
aaS'target'
p27
aaS'flee'
p28
aaS'alignment'
p29
aS'currentVelocity'
p30
a(lp31
S'alignment'
p32
aS'currentVelocity'
p33
aS'target'
p34
aS'currentVelocity'
p35
aaS'POINT.+'
p36
asS'accel_x'
p37
F0
sS'accel_y'
p38
F0
sS'maxAccel'
p39
I2
sS'maxVel'
p40
F0.5
sS'age'
p41
I0
sS'gener'
p42
S'm'
sS'lastScale'
p43
F5.5
sS'energy'
p44
F0.5
sb.(i__main__
Data_mobile
p1
(dp2
S'vel_y'
p3
I0
sS'vel_x'
p4
I0
sS'pos_x'
p5
I-9579
sS'pos_y'
p6
I9779
sS'isAlive'
p7
I00
sS'geno'
p8
(lp9
S'flee'
p10
aS'flee'
p11
aS'flee'
p12
aS'alignment'
p13
aS'target'
p14
a(lp15
S'flee'
p16
aS'currentVelocity'
p17
aS'target'
p18
aS'currentVelocity'
p19
aaS'POINT.+'
p20
asS'accel_x'
p21
F0
sS'accel_y'
p22
F0
sS'maxAccel'
p23
I2
sS'maxVel'
p24
F0.5
sS'age'
p25
I0
sS'gener'
p26
S'm'
sS'lastScale'
p27
F5.5
sS'energy'
p28
F0.5
sb.(i__main__
Data_mobile
p1
(dp2
S'vel_y'
p3
I0
sS'vel_x'
p4
I0
sS'pos_x'
p5
I-9579
sS'pos_y'
p6
I9779
sS'isAlive'
p7
I00
sS'geno'
p8
(lp9
S'flee'
p10
aS'flee'
p11
asS'accel_x'
p12
F0
sS'accel_y'
p13
F0
sS'maxAccel'
p14
I2
sS'maxVel'
p15
F0.5
sS'age'
p16
I0
sS'gener'
p17
S'm'
sS'lastScale'
p18
F5.5
sS'energy'
p19
F0.5
sb.(i__main__
Data_mobile
p1
(dp2
S'vel_y'
p3
I0
sS'vel_x'
p4
I0
sS'pos_x'
p5
I-9579
sS'pos_y'
p6
I9779
sS'isAlive'
p7
I00
sS'geno'
p8
(lp9
S'flee'
p10
aS'flee'
p11
aS'flee'
p12
aS'alignment'
p13
a(lp14
S'target'
p15
aa(lp16
S'randV'
p17
aS'flee'
p18
a(lp19
S'target'
p20
aaS'flee'
p21
aS'flee'
p22
aS'target'
p23
aS'POINT.+'
p24
aaS'POINT.+'
p25
asS'accel_x'
p26
F0
sS'accel_y'
p27
F0
sS'maxAccel'
p28
I2
sS'maxVel'
p29
F0.5
sS'age'
p30
I0
sS'gener'
p31
S'm'
sS'lastScale'
p32
F5.5
sS'energy'
p33
F0.5
sb.(i__main__
Data_mobile
p1
(dp2
S'vel_y'
p3
I0
sS'vel_x'
p4
I0
sS'pos_x'
p5
I-9579
sS'pos_y'
p6
I9779
sS'isAlive'
p7
I00
sS'geno'
p8
(lp9
S'flee'
p10
aS'flee'
p11
aS'flee'
p12
aS'alignment'
p13
a(lp14
S'target'
p15
aa(lp16
S'flee'
p17
aS'currentVelocity'
p18
aS'target'
p19
aS'currentVelocity'
p20
aaS'target'
p21
asS'accel_x'
p22
F0
sS'accel_y'
p23
F0
sS'maxAccel'
p24
I2
sS'maxVel'
p25
F0.5
sS'age'
p26
I0
sS'gener'
p27
S'm'
sS'lastScale'
p28
F5.5
sS'energy'
p29
F0.5
sb.(i__main__
Data_mobile
p1
(dp2
S'vel_y'
p3
I0
sS'vel_x'
p4
I0
sS'pos_x'
p5
I-9579
sS'pos_y'
p6
I9779
sS'isAlive'
p7
I00
sS'geno'
p8
(lp9
(lp10
S'flee'
p11
aS'currentVelocity'
p12
aS'target'
p13
aS'currentVelocity'
p14
aaS'flee'
p15
aS'flee'
p16
aS'alignment'
p17
a(lp18
S'target'
p19
aa(lp20
S'flee'
p21
aS'currentVelocity'
p22
a(lp23
S'target'
p24
aaS'currentVelocity'
p25
aaS'POINT.+'
p26
asS'accel_x'
p27
F0
sS'accel_y'
p28
F0
sS'maxAccel'
p29
I2
sS'maxVel'
p30
F0.5
sS'age'
p31
I0
sS'gener'
p32
S'm'
sS'lastScale'
p33
F5.5
sS'energy'
p34
F0.5
sb.(i__main__
Data_mobile
p1
(dp2
S'vel_y'
p3
I0
sS'vel_x'
p4
I0
sS'pos_x'
p5
I-9579
sS'pos_y'
p6
I9779
sS'isAlive'
p7
I00
sS'geno'
p8
(lp9
S'cohesion'
p10
a(lp11
S'cohesion'
p12
aaS'POINT.*'
p13
aS'target'
p14
aS'flee'
p15
a(lp16
S'alignment'
p17
aS'alignment'
p18
aS'target'
p19
aS'currentVelocity'
p20
aaS'POINT.+'
p21
asS'accel_x'
p22
F0
sS'accel_y'
p23
F0
sS'maxAccel'
p24
I2
sS'maxVel'
p25
F0.5
sS'age'
p26
I0
sS'gener'
p27
S'm'
sS'lastScale'
p28
F5.5
sS'energy'
p29
F0.5
sb.(i__main__
Data_mobile
p1
(dp2
S'vel_y'
p3
I0
sS'vel_x'
p4
I0
sS'pos_x'
p5
I-9579
sS'pos_y'
p6
I9779
sS'isAlive'
p7
I00
sS'geno'
p8
(lp9
S'flee'
p10
aS'flee'
p11
a(lp12
S'flee'
p13
aaS'alignment'
p14
a(lp15
S'alignment'
p16
aS'flee'
p17
aa(lp18
S'flee'
p19
aS'currentVelocity'
p20
aS'target'
p21
aS'currentVelocity'
p22
aaS'target'
p23
asS'accel_x'
p24
F0
sS'accel_y'
p25
F0
sS'maxAccel'
p26
I2
sS'maxVel'
p27
F0.5
sS'age'
p28
I0
sS'gener'
p29
S'm'
sS'lastScale'
p30
F5.5
sS'energy'
p31
F0.5
sb.(i__main__
Data_mobile
p1
(dp2
S'vel_y'
p3
I0
sS'vel_x'
p4
I0
sS'pos_x'
p5
I-9579
sS'pos_y'
p6
I9779
sS'isAlive'
p7
I00
sS'geno'
p8
(lp9
S'flee'
p10
a(lp11
S'cohesion'
p12
aaS'POINT.*'
p13
aS'target'
p14
aS'flee'
p15
a(lp16
S'alignment'
p17
aS'target'
p18
aS'target'
p19
aS'currentVelocity'
p20
aaS'POINT.+'
p21
asS'accel_x'
p22
F0
sS'accel_y'
p23
F0
sS'maxAccel'
p24
I2
sS'maxVel'
p25
F0.5
sS'age'
p26
I0
sS'gener'
p27
S'm'
sS'lastScale'
p28
F5.5
sS'energy'
p29
F0.5
sb.(i__main__
Data_mobile
p1
(dp2
S'vel_y'
p3
I0
sS'vel_x'
p4
I0
sS'pos_x'
p5
I-9579
sS'pos_y'
p6
I9779
sS'isAlive'
p7
I00
sS'geno'
p8
(lp9
S'cohesion'
p10
a(lp11
S'cohesion'
p12
aaS'POINT.*'
p13
aS'target'
p14
aS'flee'
p15
a(lp16
S'alignment'
p17
aS'currentVelocity'
p18
aS'target'
p19
aS'currentVelocity'
p20
aaS'POINT.+'
p21
asS'accel_x'
p22
F0
sS'accel_y'
p23
F0
sS'maxAccel'
p24
I2
sS'maxVel'
p25
F0.5
sS'age'
p26
I0
sS'gener'
p27
S'm'
sS'lastScale'
p28
F5.5
sS'energy'
p29
F0.5
sb.(i__main__
Data_mobile
p1
(dp2
S'vel_y'
p3
I0
sS'vel_x'
p4
I0
sS'pos_x'
p5
I-9579
sS'pos_y'
p6
I9779
sS'isAlive'
p7
I00
sS'geno'
p8
(lp9
S'flee'
p10
a(lp11
S'cohesion'
p12
aaS'POINT.*'
p13
aS'target'
p14
aS'flee'
p15
a(lp16
S'alignment'
p17
aS'currentVelocity'
p18
aS'target'
p19
aS'currentVelocity'
p20
aaS'POINT.+'
p21
asS'accel_x'
p22
F0
sS'accel_y'
p23
F0
sS'maxAccel'
p24
I2
sS'maxVel'
p25
F0.5
sS'age'
p26
I0
sS'gener'
p27
S'm'
sS'lastScale'
p28
F5.5
sS'energy'
p29
F0.5
sb.(i__main__
Data_mobile
p1
(dp2
S'vel_y'
p3
I0
sS'vel_x'
p4
I0
sS'pos_x'
p5
I-9579
sS'pos_y'
p6
I9779
sS'isAlive'
p7
I00
sS'geno'
p8
(lp9
S'flee'
p10
aS'flee'
p11
a(lp12
S'randV'
p13
aaS'alignment'
p14
a(lp15
S'alignment'
p16
aS'flee'
p17
aa(lp18
S'flee'
p19
aS'currentVelocity'
p20
aS'target'
p21
aS'currentVelocity'
p22
aaS'POINT.+'
p23
asS'accel_x'
p24
F0
sS'accel_y'
p25
F0
sS'maxAccel'
p26
I2
sS'maxVel'
p27
F0.5
sS'age'
p28
I0
sS'gener'
p29
S'm'
sS'lastScale'
p30
F5.5
sS'energy'
p31
F0.5
sb.(i__main__
Data_mobile
p1
(dp2
S'vel_y'
p3
I0
sS'vel_x'
p4
I0
sS'pos_x'
p5
I-9579
sS'pos_y'
p6
I9779
sS'isAlive'
p7
I00
sS'geno'
p8
(lp9
S'flee'
p10
aS'flee'
p11
aS'flee'
p12
aS'alignment'
p13
aS'target'
p14
a(lp15
S'flee'
p16
aS'currentVelocity'
p17
aS'target'
p18
aS'currentVelocity'
p19
aaS'flee'
p20
asS'accel_x'
p21
F0
sS'accel_y'
p22
F0
sS'maxAccel'
p23
I2
sS'maxVel'
p24
F0.5
sS'age'
p25
I0
sS'gener'
p26
S'm'
sS'lastScale'
p27
F5.5
sS'energy'
p28
F0.5
sb.(i__main__
Data_mobile
p1
(dp2
S'vel_y'
p3
I0
sS'vel_x'
p4
I0
sS'pos_x'
p5
I-9579
sS'pos_y'
p6
I9779
sS'isAlive'
p7
I00
sS'geno'
p8
(lp9
S'randV'
p10
aS'flee'
p11
a(lp12
S'target'
p13
aaS'flee'
p14
aS'target'
p15
aS'target'
p16
aS'POINT.+'
p17
asS'accel_x'
p18
F0
sS'accel_y'
p19
F0
sS'maxAccel'
p20
I2
sS'maxVel'
p21
F0.5
sS'age'
p22
I0
sS'gener'
p23
S'm'
sS'lastScale'
p24
F5.5
sS'energy'
p25
F0.5
sb.(i__main__
Data_mobile
p1
(dp2
S'vel_y'
p3
I0
sS'vel_x'
p4
I0
sS'pos_x'
p5
I-9579
sS'pos_y'
p6
I9779
sS'isAlive'
p7
I00
sS'geno'
p8
(lp9
S'target'
p10
aS'flee'
p11
a(lp12
S'flee'
p13
aS'flee'
p14
aaS'alignment'
p15
a(lp16
S'alignment'
p17
a(lp18
S'target'
p19
aaa(lp20
S'alignment'
p21
aS'currentVelocity'
p22
aS'target'
p23
aS'currentVelocity'
p24
aaS'POINT.+'
p25
asS'accel_x'
p26
F0
sS'accel_y'
p27
F0
sS'maxAccel'
p28
I2
sS'maxVel'
p29
F0.5
sS'age'
p30
I0
sS'gener'
p31
S'm'
sS'lastScale'
p32
F5.5
sS'energy'
p33
F0.5
sb.(i__main__
Data_mobile
p1
(dp2
S'vel_y'
p3
I0
sS'vel_x'
p4
I0
sS'pos_x'
p5
I-9579
sS'pos_y'
p6
I9779
sS'isAlive'
p7
I00
sS'geno'
p8
(lp9
S'flee'
p10
aS'flee'
p11
aS'POINT.-'
p12
aS'alignment'
p13
a(lp14
S'alignment'
p15
aS'flee'
p16
aa(lp17
S'flee'
p18
aS'currentVelocity'
p19
aS'target'
p20
aS'alignment'
p21
aaS'target'
p22
asS'accel_x'
p23
F0
sS'accel_y'
p24
F0
sS'maxAccel'
p25
I2
sS'maxVel'
p26
F0.5
sS'age'
p27
I0
sS'gener'
p28
S'm'
sS'lastScale'
p29
F5.5
sS'energy'
p30
F0.5
sb.(i__main__
Data_mobile
p1
(dp2
S'vel_y'
p3
I0
sS'vel_x'
p4
I0
sS'pos_x'
p5
I-9579
sS'pos_y'
p6
I9779
sS'isAlive'
p7
I00
sS'geno'
p8
(lp9
S'flee'
p10
aS'flee'
p11
a(lp12
S'randV'
p13
aaS'flee'
p14
a(lp15
S'alignment'
p16
aS'flee'
p17
aa(lp18
S'flee'
p19
aS'currentVelocity'
p20
aS'target'
p21
aS'currentVelocity'
p22
aaS'POINT.+'
p23
asS'accel_x'
p24
F0
sS'accel_y'
p25
F0
sS'maxAccel'
p26
I2
sS'maxVel'
p27
F0.5
sS'age'
p28
I0
sS'gener'
p29
S'm'
sS'lastScale'
p30
F5.5
sS'energy'
p31
F0.5
sb.(i__main__
Data_mobile
p1
(dp2
S'vel_y'
p3
I0
sS'vel_x'
p4
I0
sS'pos_x'
p5
I-9579
sS'pos_y'
p6
I9779
sS'isAlive'
p7
I00
sS'geno'
p8
(lp9
S'flee'
p10
aS'flee'
p11
a(lp12
S'target'
p13
aaS'alignment'
p14
aS'alignment'
p15
a(lp16
(lp17
S'flee'
p18
a(lp19
S'cohesion'
p20
aaS'POINT.*'
p21
aS'target'
p22
aS'flee'
p23
a(lp24
S'alignment'
p25
aS'currentVelocity'
p26
aS'target'
p27
aS'currentVelocity'
p28
aaS'POINT.+'
p29
aaS'currentVelocity'
p30
aS'POINT.+'
p31
aS'currentVelocity'
p32
aaS'POINT.+'
p33
asS'accel_x'
p34
F0
sS'accel_y'
p35
F0
sS'maxAccel'
p36
I2
sS'maxVel'
p37
F0.5
sS'age'
p38
I0
sS'gener'
p39
S'm'
sS'lastScale'
p40
F5.5
sS'energy'
p41
F0.5
sb.(i__main__
Data_mobile
p1
(dp2
S'vel_y'
p3
I0
sS'vel_x'
p4
I0
sS'pos_x'
p5
I-9579
sS'pos_y'
p6
I9779
sS'isAlive'
p7
I00
sS'geno'
p8
(lp9
S'POINT.+'
p10
aS'flee'
p11
aS'flee'
p12
aS'alignment'
p13
a(lp14
S'target'
p15
aa(lp16
S'flee'
p17
aS'currentVelocity'
p18
a(lp19
S'target'
p20
aaS'currentVelocity'
p21
aaS'POINT.+'
p22
asS'accel_x'
p23
F0
sS'accel_y'
p24
F0
sS'maxAccel'
p25
I2
sS'maxVel'
p26
F0.5
sS'age'
p27
I0
sS'gener'
p28
S'm'
sS'lastScale'
p29
F5.5
sS'energy'
p30
F0.5
sb.(i__main__
Data_mobile
p1
(dp2
S'vel_y'
p3
I0
sS'vel_x'
p4
I0
sS'pos_x'
p5
I-9579
sS'pos_y'
p6
I9779
sS'isAlive'
p7
I00
sS'geno'
p8
(lp9
S'POINT.*'
p10
aS'flee'
p11
a(lp12
S'target'
p13
aaS'alignment'
p14
a(lp15
S'currentVelocity'
p16
a(lp17
S'target'
p18
aaa(lp19
S'alignment'
p20
aS'currentVelocity'
p21
aS'target'
p22
aS'currentVelocity'
p23
aaS'POINT.+'
p24
asS'accel_x'
p25
F0
sS'accel_y'
p26
F0
sS'maxAccel'
p27
I2
sS'maxVel'
p28
F0.5
sS'age'
p29
I0
sS'gener'
p30
S'm'
sS'lastScale'
p31
F5.5
sS'energy'
p32
F0.5
sb.(i__main__
Data_mobile
p1
(dp2
S'vel_y'
p3
I0
sS'vel_x'
p4
I0
sS'pos_x'
p5
I-9579
sS'pos_y'
p6
I9779
sS'isAlive'
p7
I00
sS'geno'
p8
(lp9
S'alignment'
p10
aS'currentVelocity'
p11
aS'target'
p12
aS'target'
p13
asS'accel_x'
p14
F0
sS'accel_y'
p15
F0
sS'maxAccel'
p16
I2
sS'maxVel'
p17
F0.5
sS'age'
p18
I0
sS'gener'
p19
S'm'
sS'lastScale'
p20
F5.5
sS'energy'
p21
F0.5
sb.(i__main__
Data_mobile
p1
(dp2
S'vel_y'
p3
I0
sS'vel_x'
p4
I0
sS'pos_x'
p5
I-9579
sS'pos_y'
p6
I9779
sS'isAlive'
p7
I00
sS'geno'
p8
(lp9
S'POINT.+'
p10
aS'flee'
p11
a(lp12
S'flee'
p13
aaS'alignment'
p14
a(lp15
S'alignment'
p16
aS'flee'
p17
aa(lp18
S'flee'
p19
aS'currentVelocity'
p20
aS'target'
p21
aS'currentVelocity'
p22
aaS'POINT.+'
p23
asS'accel_x'
p24
F0
sS'accel_y'
p25
F0
sS'maxAccel'
p26
I2
sS'maxVel'
p27
F0.5
sS'age'
p28
I0
sS'gener'
p29
S'm'
sS'lastScale'
p30
F5.5
sS'energy'
p31
F0.5
sb.(i__main__
Data_mobile
p1
(dp2
S'vel_y'
p3
I0
sS'vel_x'
p4
I0
sS'pos_x'
p5
I-9579
sS'pos_y'
p6
I9779
sS'isAlive'
p7
I00
sS'geno'
p8
(lp9
S'flee'
p10
aS'alignment'
p11
a(lp12
S'currentVelocity'
p13
aaS'alignment'
p14
a(lp15
S'alignment'
p16
aS'flee'
p17
aa(lp18
S'target'
p19
aaS'POINT.+'
p20
asS'accel_x'
p21
F0
sS'accel_y'
p22
F0
sS'maxAccel'
p23
I2
sS'maxVel'
p24
F0.5
sS'age'
p25
I0
sS'gener'
p26
S'm'
sS'lastScale'
p27
F5.5
sS'energy'
p28
F0.5
sb.(i__main__
Data_mobile
p1
(dp2
S'vel_y'
p3
I0
sS'vel_x'
p4
I0
sS'pos_x'
p5
I-9579
sS'pos_y'
p6
I9779
sS'isAlive'
p7
I00
sS'geno'
p8
(lp9
S'flee'
p10
aS'flee'
p11
a(lp12
S'flee'
p13
aaS'alignment'
p14
a(lp15
S'alignment'
p16
aS'flee'
p17
aa(lp18
S'flee'
p19
aS'currentVelocity'
p20
aS'target'
p21
a(lp22
S'flee'
p23
a(lp24
S'cohesion'
p25
aaS'POINT.*'
p26
aS'target'
p27
aS'flee'
p28
a(lp29
S'alignment'
p30
aS'currentVelocity'
p31
aS'target'
p32
aS'currentVelocity'
p33
aaS'POINT.+'
p34
aaaS'POINT.+'
p35
asS'accel_x'
p36
F0
sS'accel_y'
p37
F0
sS'maxAccel'
p38
I2
sS'maxVel'
p39
F0.5
sS'age'
p40
I0
sS'gener'
p41
S'm'
sS'lastScale'
p42
F5.5
sS'energy'
p43
F0.5
sb.(i__main__
Data_mobile
p1
(dp2
S'vel_y'
p3
I0
sS'vel_x'
p4
I0
sS'pos_x'
p5
I-9579
sS'pos_y'
p6
I9779
sS'isAlive'
p7
I00
sS'geno'
p8
(lp9
S'flee'
p10
aS'flee'
p11
a(lp12
S'target'
p13
aaS'alignment'
p14
aS'alignment'
p15
a(lp16
(lp17
S'flee'
p18
a(lp19
S'cohesion'
p20
aaS'POINT.*'
p21
aS'target'
p22
aS'flee'
p23
a(lp24
S'alignment'
p25
aS'currentVelocity'
p26
aS'target'
p27
aS'alignment'
p28
aaS'POINT.+'
p29
aaS'currentVelocity'
p30
aS'target'
p31
aS'currentVelocity'
p32
aaS'POINT.+'
p33
asS'accel_x'
p34
F0
sS'accel_y'
p35
F0
sS'maxAccel'
p36
I2
sS'maxVel'
p37
F0.5
sS'age'
p38
I0
sS'gener'
p39
S'm'
sS'lastScale'
p40
F5.5
sS'energy'
p41
F0.5
sb.(i__main__
Data_mobile
p1
(dp2
S'vel_y'
p3
I0
sS'vel_x'
p4
I0
sS'pos_x'
p5
I-9579
sS'pos_y'
p6
I9779
sS'isAlive'
p7
I00
sS'geno'
p8
(lp9
S'flee'
p10
aS'flee'
p11
a(lp12
S'target'
p13
aaS'alignment'
p14
aS'alignment'
p15
a(lp16
(lp17
S'flee'
p18
a(lp19
S'cohesion'
p20
aaS'POINT.*'
p21
aS'target'
p22
aS'flee'
p23
a(lp24
S'alignment'
p25
aS'currentVelocity'
p26
aS'target'
p27
aS'currentVelocity'
p28
aa(lp29
S'flee'
p30
aS'currentVelocity'
p31
aS'target'
p32
aS'currentVelocity'
p33
aaaS'currentVelocity'
p34
aS'target'
p35
aS'currentVelocity'
p36
aaS'POINT.+'
p37
asS'accel_x'
p38
F0
sS'accel_y'
p39
F0
sS'maxAccel'
p40
I2
sS'maxVel'
p41
F0.5
sS'age'
p42
I0
sS'gener'
p43
S'm'
sS'lastScale'
p44
F5.5
sS'energy'
p45
F0.5
sb.(i__main__
Data_mobile
p1
(dp2
S'vel_y'
p3
I0
sS'vel_x'
p4
I0
sS'pos_x'
p5
I-9579
sS'pos_y'
p6
I9779
sS'isAlive'
p7
I00
sS'geno'
p8
(lp9
S'POINT.+'
p10
aS'flee'
p11
aS'flee'
p12
aS'alignment'
p13
a(lp14
S'target'
p15
aa(lp16
S'flee'
p17
aS'currentVelocity'
p18
aS'target'
p19
aS'currentVelocity'
p20
aaS'POINT.+'
p21
asS'accel_x'
p22
F0
sS'accel_y'
p23
F0
sS'maxAccel'
p24
I2
sS'maxVel'
p25
F0.5
sS'age'
p26
I0
sS'gener'
p27
S'm'
sS'lastScale'
p28
F5.5
sS'energy'
p29
F0.5
sb.(i__main__
Data_mobile
p1
(dp2
S'vel_y'
p3
I0
sS'vel_x'
p4
I0
sS'pos_x'
p5
I-9579
sS'pos_y'
p6
I9779
sS'isAlive'
p7
I00
sS'geno'
p8
(lp9
S'flee'
p10
a(lp11
S'cohesion'
p12
aaS'POINT.*'
p13
aS'target'
p14
aS'flee'
p15
a(lp16
S'alignment'
p17
aS'currentVelocity'
p18
aS'target'
p19
aS'currentVelocity'
p20
aaS'POINT.+'
p21
asS'accel_x'
p22
F0
sS'accel_y'
p23
F0
sS'maxAccel'
p24
I2
sS'maxVel'
p25
F0.5
sS'age'
p26
I0
sS'gener'
p27
S'm'
sS'lastScale'
p28
F5.5
sS'energy'
p29
F0.5
sb.(i__main__
Data_mobile
p1
(dp2
S'vel_y'
p3
I0
sS'vel_x'
p4
I0
sS'pos_x'
p5
I-9579
sS'pos_y'
p6
I9779
sS'isAlive'
p7
I00
sS'geno'
p8
(lp9
S'flee'
p10
aS'flee'
p11
a(lp12
S'flee'
p13
aaS'alignment'
p14
a(lp15
S'alignment'
p16
aS'flee'
p17
aa(lp18
S'flee'
p19
aS'currentVelocity'
p20
aS'target'
p21
aS'currentVelocity'
p22
aaS'POINT.+'
p23
asS'accel_x'
p24
F0
sS'accel_y'
p25
F0
sS'maxAccel'
p26
I2
sS'maxVel'
p27
F0.5
sS'age'
p28
I0
sS'gener'
p29
S'm'
sS'lastScale'
p30
F5.5
sS'energy'
p31
F0.5
sb.(i__main__
Data_mobile
p1
(dp2
S'vel_y'
p3
I0
sS'vel_x'
p4
I0
sS'pos_x'
p5
I-9579
sS'pos_y'
p6
I9779
sS'isAlive'
p7
I00
sS'geno'
p8
(lp9
S'flee'
p10
aS'flee'
p11
aS'target'
p12
aS'alignment'
p13
a(lp14
S'alignment'
p15
aS'flee'
p16
aa(lp17
S'flee'
p18
aS'currentVelocity'
p19
aS'target'
p20
aS'currentVelocity'
p21
aaS'POINT.+'
p22
asS'accel_x'
p23
F0
sS'accel_y'
p24
F0
sS'maxAccel'
p25
I2
sS'maxVel'
p26
F0.5
sS'age'
p27
I0
sS'gener'
p28
S'm'
sS'lastScale'
p29
F5.5
sS'energy'
p30
F0.5
sb.(i__main__
Data_mobile
p1
(dp2
S'vel_y'
p3
I0
sS'vel_x'
p4
I0
sS'pos_x'
p5
I-9579
sS'pos_y'
p6
I9779
sS'isAlive'
p7
I00
sS'geno'
p8
(lp9
S'flee'
p10
a(lp11
S'cohesion'
p12
aaS'POINT.*'
p13
aS'target'
p14
aS'flee'
p15
a(lp16
S'alignment'
p17
aS'currentVelocity'
p18
aS'target'
p19
aS'POINT.*'
p20
aaS'POINT.+'
p21
asS'accel_x'
p22
F0
sS'accel_y'
p23
F0
sS'maxAccel'
p24
I2
sS'maxVel'
p25
F0.5
sS'age'
p26
I0
sS'gener'
p27
S'm'
sS'lastScale'
p28
F5.5
sS'energy'
p29
F0.5
sb.(i__main__
Data_mobile
p1
(dp2
S'vel_y'
p3
I0
sS'vel_x'
p4
I0
sS'pos_x'
p5
I-9579
sS'pos_y'
p6
I9779
sS'isAlive'
p7
I00
sS'geno'
p8
(lp9
S'flee'
p10
aS'flee'
p11
aS'flee'
p12
aS'alignment'
p13
a(lp14
S'flee'
p15
aa(lp16
S'flee'
p17
aS'currentVelocity'
p18
aS'target'
p19
aS'currentVelocity'
p20
aaS'POINT.+'
p21
asS'accel_x'
p22
F0
sS'accel_y'
p23
F0
sS'maxAccel'
p24
I2
sS'maxVel'
p25
F0.5
sS'age'
p26
I0
sS'gener'
p27
S'm'
sS'lastScale'
p28
F5.5
sS'energy'
p29
F0.5
sb.(i__main__
Data_mobile
p1
(dp2
S'vel_y'
p3
I0
sS'vel_x'
p4
I0
sS'pos_x'
p5
I-9579
sS'pos_y'
p6
I9779
sS'isAlive'
p7
I00
sS'geno'
p8
(lp9
S'flee'
p10
a(lp11
S'cohesion'
p12
aaS'POINT.*'
p13
aS'target'
p14
aS'flee'
p15
a(lp16
S'alignment'
p17
aS'currentVelocity'
p18
aS'target'
p19
aS'currentVelocity'
p20
aaS'POINT.+'
p21
asS'accel_x'
p22
F0
sS'accel_y'
p23
F0
sS'maxAccel'
p24
I2
sS'maxVel'
p25
F0.5
sS'age'
p26
I0
sS'gener'
p27
S'm'
sS'lastScale'
p28
F5.5
sS'energy'
p29
F0.5
sb.(i__main__
Data_mobile
p1
(dp2
S'vel_y'
p3
I0
sS'vel_x'
p4
I0
sS'pos_x'
p5
I-9579
sS'pos_y'
p6
I9779
sS'isAlive'
p7
I00
sS'geno'
p8
(lp9
S'flee'
p10
aS'flee'
p11
a(lp12
S'flee'
p13
aaS'alignment'
p14
a(lp15
S'alignment'
p16
aS'flee'
p17
aaS'currentVelocity'
p18
aS'POINT.+'
p19
asS'accel_x'
p20
F0
sS'accel_y'
p21
F0
sS'maxAccel'
p22
I2
sS'maxVel'
p23
F0.5
sS'age'
p24
I0
sS'gener'
p25
S'm'
sS'lastScale'
p26
F5.5
sS'energy'
p27
F0.5
sb.(i__main__
Data_mobile
p1
(dp2
S'vel_y'
p3
I0
sS'vel_x'
p4
I0
sS'pos_x'
p5
I-9579
sS'pos_y'
p6
I9779
sS'isAlive'
p7
I00
sS'geno'
p8
(lp9
S'flee'
p10
aS'alignment'
p11
a(lp12
S'target'
p13
aaS'alignment'
p14
aS'currentVelocity'
p15
a(lp16
S'alignment'
p17
aS'currentVelocity'
p18
aS'target'
p19
aS'currentVelocity'
p20
aaS'POINT.+'
p21
asS'accel_x'
p22
F0
sS'accel_y'
p23
F0
sS'maxAccel'
p24
I2
sS'maxVel'
p25
F0.5
sS'age'
p26
I0
sS'gener'
p27
S'm'
sS'lastScale'
p28
F5.5
sS'energy'
p29
F0.5
sb.(i__main__
Data_mobile
p1
(dp2
S'vel_y'
p3
I0
sS'vel_x'
p4
I0
sS'pos_x'
p5
I-9579
sS'pos_y'
p6
I9779
sS'isAlive'
p7
I00
sS'geno'
p8
(lp9
S'POINT.*'
p10
aS'flee'
p11
a(lp12
S'target'
p13
aaS'alignment'
p14
aS'alignment'
p15
a(lp16
S'alignment'
p17
aS'currentVelocity'
p18
aS'target'
p19
aS'currentVelocity'
p20
aaS'POINT.+'
p21
asS'accel_x'
p22
F0
sS'accel_y'
p23
F0
sS'maxAccel'
p24
I2
sS'maxVel'
p25
F0.5
sS'age'
p26
I0
sS'gener'
p27
S'm'
sS'lastScale'
p28
F5.5
sS'energy'
p29
F0.5
sb.(i__main__
Data_mobile
p1
(dp2
S'vel_y'
p3
I0
sS'vel_x'
p4
I0
sS'pos_x'
p5
I-9579
sS'pos_y'
p6
I9779
sS'isAlive'
p7
I00
sS'geno'
p8
(lp9
S'flee'
p10
aS'flee'
p11
a(lp12
S'target'
p13
aaS'alignment'
p14
aS'alignment'
p15
a(lp16
S'flee'
p17
aS'currentVelocity'
p18
aS'target'
p19
aS'currentVelocity'
p20
aaS'POINT.+'
p21
asS'accel_x'
p22
F0
sS'accel_y'
p23
F0
sS'maxAccel'
p24
I2
sS'maxVel'
p25
F0.5
sS'age'
p26
I0
sS'gener'
p27
S'm'
sS'lastScale'
p28
F5.5
sS'energy'
p29
F0.5
sb.(i__main__
Data_mobile
p1
(dp2
S'vel_y'
p3
I0
sS'vel_x'
p4
I0
sS'pos_x'
p5
I-9579
sS'pos_y'
p6
I9779
sS'isAlive'
p7
I00
sS'geno'
p8
(lp9
S'flee'
p10
aS'flee'
p11
a(lp12
S'target'
p13
aaS'alignment'
p14
aS'alignment'
p15
a(lp16
(lp17
S'flee'
p18
a(lp19
S'cohesion'
p20
aaS'POINT.*'
p21
aS'target'
p22
aS'flee'
p23
a(lp24
S'alignment'
p25
aS'currentVelocity'
p26
aS'target'
p27
aS'currentVelocity'
p28
aaS'POINT.+'
p29
aaS'flee'
p30
aS'target'
p31
aS'currentVelocity'
p32
aaS'POINT.+'
p33
asS'accel_x'
p34
F0
sS'accel_y'
p35
F0
sS'maxAccel'
p36
I2
sS'maxVel'
p37
F0.5
sS'age'
p38
I0
sS'gener'
p39
S'm'
sS'lastScale'
p40
F5.5
sS'energy'
p41
F0.5
sb.(i__main__
Data_mobile
p1
(dp2
S'vel_y'
p3
I0
sS'vel_x'
p4
I0
sS'pos_x'
p5
I-9579
sS'pos_y'
p6
I9779
sS'isAlive'
p7
I00
sS'geno'
p8
(lp9
S'flee'
p10
a(lp11
S'cohesion'
p12
aaS'POINT.*'
p13
aS'flee'
p14
aS'randV'
p15
a(lp16
S'alignment'
p17
a(lp18
S'flee'
p19
aS'flee'
p20
aS'alignment'
p21
aS'flee'
p22
aS'flee'
p23
aS'target'
p24
aS'POINT.+'
p25
aaS'target'
p26
aS'currentVelocity'
p27
aaS'POINT.+'
p28
asS'accel_x'
p29
F0
sS'accel_y'
p30
F0
sS'maxAccel'
p31
I2
sS'maxVel'
p32
F0.5
sS'age'
p33
I0
sS'gener'
p34
S'm'
sS'lastScale'
p35
F5.5
sS'energy'
p36
F0.5
sb.(i__main__
Data_mobile
p1
(dp2
S'vel_y'
p3
I0
sS'vel_x'
p4
I0
sS'pos_x'
p5
I-9579
sS'pos_y'
p6
I9779
sS'isAlive'
p7
I00
sS'geno'
p8
(lp9
S'flee'
p10
aS'flee'
p11
a(lp12
S'flee'
p13
aaS'alignment'
p14
a(lp15
S'alignment'
p16
aS'flee'
p17
aa(lp18
S'flee'
p19
aS'currentVelocity'
p20
aS'target'
p21
aS'currentVelocity'
p22
aaS'POINT.+'
p23
asS'accel_x'
p24
F0
sS'accel_y'
p25
F0
sS'maxAccel'
p26
I2
sS'maxVel'
p27
F0.5
sS'age'
p28
I0
sS'gener'
p29
S'm'
sS'lastScale'
p30
F5.5
sS'energy'
p31
F0.5
sb.(i__main__
Data_mobile
p1
(dp2
S'vel_y'
p3
I0
sS'vel_x'
p4
I0
sS'pos_x'
p5
I-9579
sS'pos_y'
p6
I9779
sS'isAlive'
p7
I00
sS'geno'
p8
(lp9
S'flee'
p10
aS'flee'
p11
a(lp12
S'POINT.+'
p13
aaS'alignment'
p14
aS'alignment'
p15
a(lp16
S'flee'
p17
aS'currentVelocity'
p18
aS'target'
p19
aS'currentVelocity'
p20
aaS'target'
p21
asS'accel_x'
p22
F0
sS'accel_y'
p23
F0
sS'maxAccel'
p24
I2
sS'maxVel'
p25
F0.5
sS'age'
p26
I0
sS'gener'
p27
S'm'
sS'lastScale'
p28
F5.5
sS'energy'
p29
F0.5
sb.(i__main__
Data_mobile
p1
(dp2
S'vel_y'
p3
I0
sS'vel_x'
p4
I0
sS'pos_x'
p5
I-9579
sS'pos_y'
p6
I9779
sS'isAlive'
p7
I00
sS'geno'
p8
(lp9
S'flee'
p10
aS'flee'
p11
a(lp12
S'target'
p13
aaS'alignment'
p14
aS'alignment'
p15
a(lp16
(lp17
S'flee'
p18
a(lp19
S'cohesion'
p20
aaS'POINT.*'
p21
aS'target'
p22
aS'alignment'
p23
a(lp24
S'alignment'
p25
aS'currentVelocity'
p26
aS'target'
p27
aS'currentVelocity'
p28
aaS'POINT.+'
p29
aaS'currentVelocity'
p30
aS'target'
p31
aS'currentVelocity'
p32
aaS'POINT.+'
p33
asS'accel_x'
p34
F0
sS'accel_y'
p35
F0
sS'maxAccel'
p36
I2
sS'maxVel'
p37
F0.5
sS'age'
p38
I0
sS'gener'
p39
S'm'
sS'lastScale'
p40
F5.5
sS'energy'
p41
F0.5
sb.(i__main__
Data_mobile
p1
(dp2
S'vel_y'
p3
I0
sS'vel_x'
p4
I0
sS'pos_x'
p5
I-9579
sS'pos_y'
p6
I9779
sS'isAlive'
p7
I00
sS'geno'
p8
(lp9
S'alignment'
p10
a(lp11
(lp12
S'cohesion'
p13
aaaS'POINT.*'
p14
aS'flee'
p15
aS'cohesion'
p16
a(lp17
S'alignment'
p18
aS'currentVelocity'
p19
aS'target'
p20
aS'currentVelocity'
p21
aaS'POINT.+'
p22
asS'accel_x'
p23
F0
sS'accel_y'
p24
F0
sS'maxAccel'
p25
I2
sS'maxVel'
p26
F0.5
sS'age'
p27
I0
sS'gener'
p28
S'm'
sS'lastScale'
p29
F5.5
sS'energy'
p30
F0.5
sb.(i__main__
Data_mobile
p1
(dp2
S'vel_y'
p3
I0
sS'vel_x'
p4
I0
sS'pos_x'
p5
I-9579
sS'pos_y'
p6
I9779
sS'isAlive'
p7
I00
sS'geno'
p8
(lp9
S'POINT.+'
p10
aS'flee'
p11
aS'flee'
p12
a(lp13
S'cohesion'
p14
aa(lp15
S'target'
p16
aa(lp17
S'flee'
p18
aS'currentVelocity'
p19
aS'target'
p20
aS'currentVelocity'
p21
aaS'POINT.+'
p22
asS'accel_x'
p23
F0
sS'accel_y'
p24
F0
sS'maxAccel'
p25
I2
sS'maxVel'
p26
F0.5
sS'age'
p27
I0
sS'gener'
p28
S'm'
sS'lastScale'
p29
F5.5
sS'energy'
p30
F0.5
sb.(i__main__
Data_mobile
p1
(dp2
S'vel_y'
p3
I0
sS'vel_x'
p4
I0
sS'pos_x'
p5
I-9579
sS'pos_y'
p6
I9779
sS'isAlive'
p7
I00
sS'geno'
p8
(lp9
S'flee'
p10
aS'flee'
p11
a(lp12
S'target'
p13
aaS'alignment'
p14
aS'alignment'
p15
a(lp16
(lp17
S'flee'
p18
a(lp19
S'cohesion'
p20
aaS'POINT.*'
p21
aS'target'
p22
aS'flee'
p23
a(lp24
S'alignment'
p25
aS'currentVelocity'
p26
aS'target'
p27
aS'currentVelocity'
p28
aaS'POINT.+'
p29
aaS'currentVelocity'
p30
aS'target'
p31
aS'currentVelocity'
p32
aa(lp33
S'alignment'
p34
aS'flee'
p35
aasS'accel_x'
p36
F0
sS'accel_y'
p37
F0
sS'maxAccel'
p38
I2
sS'maxVel'
p39
F0.5
sS'age'
p40
I0
sS'gener'
p41
S'm'
sS'lastScale'
p42
F5.5
sS'energy'
p43
F0.5
sb.(i__main__
Data_mobile
p1
(dp2
S'vel_y'
p3
I0
sS'vel_x'
p4
I0
sS'pos_x'
p5
I-9579
sS'pos_y'
p6
I9779
sS'isAlive'
p7
I00
sS'geno'
p8
(lp9
S'flee'
p10
aS'flee'
p11
a(lp12
S'target'
p13
aaS'alignment'
p14
aS'flee'
p15
a(lp16
S'flee'
p17
aS'currentVelocity'
p18
aS'target'
p19
aS'currentVelocity'
p20
aaS'POINT.+'
p21
asS'accel_x'
p22
F0
sS'accel_y'
p23
F0
sS'maxAccel'
p24
I2
sS'maxVel'
p25
F0.5
sS'age'
p26
I0
sS'gener'
p27
S'm'
sS'lastScale'
p28
F5.5
sS'energy'
p29
F0.5
sb.(i__main__
Data_mobile
p1
(dp2
S'vel_y'
p3
I0
sS'vel_x'
p4
I0
sS'pos_x'
p5
I-9579
sS'pos_y'
p6
I9779
sS'isAlive'
p7
I00
sS'geno'
p8
(lp9
S'randV'
p10
aS'flee'
p11
a(lp12
S'target'
p13
aaS'flee'
p14
a(lp15
(lp16
S'cohesion'
p17
aa(lp18
(lp19
S'flee'
p20
aS'flee'
p21
a(lp22
S'target'
p23
aaS'flee'
p24
aS'flee'
p25
a(lp26
S'alignment'
p27
aS'currentVelocity'
p28
aS'target'
p29
aS'currentVelocity'
p30
aaS'POINT.+'
p31
aaaaS'currentVelocity'
p32
aS'POINT.+'
p33
asS'accel_x'
p34
F0
sS'accel_y'
p35
F0
sS'maxAccel'
p36
I2
sS'maxVel'
p37
F0.5
sS'age'
p38
I0
sS'gener'
p39
S'm'
sS'lastScale'
p40
F5.5
sS'energy'
p41
F0.5
sb.(i__main__
Data_mobile
p1
(dp2
S'vel_y'
p3
I0
sS'vel_x'
p4
I0
sS'pos_x'
p5
I-9579
sS'pos_y'
p6
I9779
sS'isAlive'
p7
I00
sS'geno'
p8
(lp9
S'flee'
p10
aS'flee'
p11
a(lp12
S'target'
p13
aaS'alignment'
p14
aS'currentVelocity'
p15
a(lp16
S'alignment'
p17
a(lp18
S'target'
p19
aaS'target'
p20
aS'currentVelocity'
p21
aaS'POINT.+'
p22
asS'accel_x'
p23
F0
sS'accel_y'
p24
F0
sS'maxAccel'
p25
I2
sS'maxVel'
p26
F0.5
sS'age'
p27
I0
sS'gener'
p28
S'm'
sS'lastScale'
p29
F5.5
sS'energy'
p30
F0.5
sb.(i__main__
Data_mobile
p1
(dp2
S'vel_y'
p3
I0
sS'vel_x'
p4
I0
sS'pos_x'
p5
I-9579
sS'pos_y'
p6
I9779
sS'isAlive'
p7
I00
sS'geno'
p8
(lp9
S'flee'
p10
a(lp11
S'cohesion'
p12
aaS'POINT.*'
p13
aS'flee'
p14
aS'randV'
p15
a(lp16
S'alignment'
p17
a(lp18
S'flee'
p19
aS'flee'
p20
aS'alignment'
p21
aS'flee'
p22
aS'flee'
p23
aS'target'
p24
aS'POINT.+'
p25
aaS'target'
p26
aS'currentVelocity'
p27
aaS'POINT.+'
p28
asS'accel_x'
p29
F0
sS'accel_y'
p30
F0
sS'maxAccel'
p31
I2
sS'maxVel'
p32
F0.5
sS'age'
p33
I0
sS'gener'
p34
S'm'
sS'lastScale'
p35
F5.5
sS'energy'
p36
F0.5
sb.(i__main__
Data_mobile
p1
(dp2
S'vel_y'
p3
I0
sS'vel_x'
p4
I0
sS'pos_x'
p5
I-9579
sS'pos_y'
p6
I9779
sS'isAlive'
p7
I00
sS'geno'
p8
(lp9
S'alignment'
p10
aS'flee'
p11
aS'POINT.*'
p12
aS'currentVelocity'
p13
aS'separation'
p14
a(lp15
S'alignment'
p16
aS'currentVelocity'
p17
aS'target'
p18
aS'flee'
p19
aaS'POINT.+'
p20
asS'accel_x'
p21
F0
sS'accel_y'
p22
F0
sS'maxAccel'
p23
I2
sS'maxVel'
p24
F0.5
sS'age'
p25
I0
sS'gener'
p26
S'm'
sS'lastScale'
p27
F5.5
sS'energy'
p28
F0.5
sb.(i__main__
Data_mobile
p1
(dp2
S'vel_y'
p3
I0
sS'vel_x'
p4
I0
sS'pos_x'
p5
I-9579
sS'pos_y'
p6
I9779
sS'isAlive'
p7
I00
sS'geno'
p8
(lp9
S'POINT.*'
p10
aS'flee'
p11
a(lp12
S'target'
p13
aaS'alignment'
p14
a(lp15
S'alignment'
p16
a(lp17
S'target'
p18
aaa(lp19
S'alignment'
p20
aS'currentVelocity'
p21
aS'target'
p22
aS'currentVelocity'
p23
aaS'POINT.+'
p24
asS'accel_x'
p25
F0
sS'accel_y'
p26
F0
sS'maxAccel'
p27
I2
sS'maxVel'
p28
F0.5
sS'age'
p29
I0
sS'gener'
p30
S'm'
sS'lastScale'
p31
F5.5
sS'energy'
p32
F0.5
sb.(i__main__
Data_mobile
p1
(dp2
S'vel_y'
p3
I0
sS'vel_x'
p4
I0
sS'pos_x'
p5
I-9579
sS'pos_y'
p6
I9779
sS'isAlive'
p7
I00
sS'geno'
p8
(lp9
S'flee'
p10
aS'flee'
p11
aS'POINT.*'
p12
aS'alignment'
p13
a(lp14
S'alignment'
p15
aS'flee'
p16
aa(lp17
S'flee'
p18
aS'currentVelocity'
p19
aS'target'
p20
aS'currentVelocity'
p21
aaS'POINT.+'
p22
asS'accel_x'
p23
F0
sS'accel_y'
p24
F0
sS'maxAccel'
p25
I2
sS'maxVel'
p26
F0.5
sS'age'
p27
I0
sS'gener'
p28
S'm'
sS'lastScale'
p29
F5.5
sS'energy'
p30
F0.5
sb.(i__main__
Data_mobile
p1
(dp2
S'vel_y'
p3
I0
sS'vel_x'
p4
I0
sS'pos_x'
p5
I-9579
sS'pos_y'
p6
I9779
sS'isAlive'
p7
I00
sS'geno'
p8
(lp9
S'flee'
p10
aS'flee'
p11
a(lp12
S'flee'
p13
aaS'alignment'
p14
a(lp15
S'alignment'
p16
aS'flee'
p17
aa(lp18
S'flee'
p19
a(lp20
S'flee'
p21
aS'flee'
p22
a(lp23
S'target'
p24
aaS'flee'
p25
aS'flee'
p26
a(lp27
S'alignment'
p28
aS'currentVelocity'
p29
aS'target'
p30
aS'currentVelocity'
p31
aaS'POINT.+'
p32
aaS'target'
p33
aS'currentVelocity'
p34
aaS'POINT.+'
p35
asS'accel_x'
p36
F0
sS'accel_y'
p37
F0
sS'maxAccel'
p38
I2
sS'maxVel'
p39
F0.5
sS'age'
p40
I0
sS'gener'
p41
S'm'
sS'lastScale'
p42
F5.5
sS'energy'
p43
F0.5
sb.(i__main__
Data_mobile
p1
(dp2
S'vel_y'
p3
I0
sS'vel_x'
p4
I0
sS'pos_x'
p5
I-9579
sS'pos_y'
p6
I9779
sS'isAlive'
p7
I00
sS'geno'
p8
(lp9
S'flee'
p10
aS'flee'
p11
a(lp12
S'target'
p13
aaS'alignment'
p14
aS'alignment'
p15
a(lp16
S'flee'
p17
aS'currentVelocity'
p18
aS'target'
p19
a(lp20
S'flee'
p21
a(lp22
S'flee'
p23
aS'flee'
p24
a(lp25
S'target'
p26
aaS'flee'
p27
aS'flee'
p28
a(lp29
S'alignment'
p30
aS'currentVelocity'
p31
aS'target'
p32
aS'currentVelocity'
p33
aaS'POINT.+'
p34
aaS'target'
p35
aS'currentVelocity'
p36
aaaS'POINT.+'
p37
asS'accel_x'
p38
F0
sS'accel_y'
p39
F0
sS'maxAccel'
p40
I2
sS'maxVel'
p41
F0.5
sS'age'
p42
I0
sS'gener'
p43
S'm'
sS'lastScale'
p44
F5.5
sS'energy'
p45
F0.5
sb.(i__main__
Data_mobile
p1
(dp2
S'vel_y'
p3
I0
sS'vel_x'
p4
I0
sS'pos_x'
p5
I-9579
sS'pos_y'
p6
I9779
sS'isAlive'
p7
I00
sS'geno'
p8
(lp9
S'flee'
p10
aS'flee'
p11
a(lp12
S'flee'
p13
aS'flee'
p14
aaS'alignment'
p15
a(lp16
S'alignment'
p17
a(lp18
S'target'
p19
aaa(lp20
S'POINT.+'
p21
aS'currentVelocity'
p22
aS'target'
p23
aS'currentVelocity'
p24
aaS'POINT.+'
p25
asS'accel_x'
p26
F0
sS'accel_y'
p27
F0
sS'maxAccel'
p28
I2
sS'maxVel'
p29
F0.5
sS'age'
p30
I0
sS'gener'
p31
S'm'
sS'lastScale'
p32
F5.5
sS'energy'
p33
F0.5
sb.(i__main__
Data_mobile
p1
(dp2
S'vel_y'
p3
I0
sS'vel_x'
p4
I0
sS'pos_x'
p5
I-9579
sS'pos_y'
p6
I9779
sS'isAlive'
p7
I00
sS'geno'
p8
(lp9
S'flee'
p10
aS'flee'
p11
a(lp12
S'flee'
p13
aaS'alignment'
p14
a(lp15
S'alignment'
p16
aS'flee'
p17
aa(lp18
S'flee'
p19
a(lp20
S'flee'
p21
aS'flee'
p22
a(lp23
S'target'
p24
aaS'flee'
p25
aS'flee'
p26
a(lp27
S'alignment'
p28
aS'currentVelocity'
p29
aS'target'
p30
aS'currentVelocity'
p31
aaS'POINT.+'
p32
aaS'target'
p33
aS'currentVelocity'
p34
aaS'POINT.+'
p35
asS'accel_x'
p36
F0
sS'accel_y'
p37
F0
sS'maxAccel'
p38
I2
sS'maxVel'
p39
F0.5
sS'age'
p40
I0
sS'gener'
p41
S'm'
sS'lastScale'
p42
F5.5
sS'energy'
p43
F0.5
sb.(i__main__
Data_mobile
p1
(dp2
S'vel_y'
p3
I0
sS'vel_x'
p4
I0
sS'pos_x'
p5
I-9579
sS'pos_y'
p6
I9779
sS'isAlive'
p7
I00
sS'geno'
p8
(lp9
S'flee'
p10
aS'flee'
p11
a(lp12
S'target'
p13
aaS'alignment'
p14
aS'alignment'
p15
a(lp16
S'flee'
p17
aS'currentVelocity'
p18
aS'target'
p19
aS'currentVelocity'
p20
aaS'POINT.+'
p21
asS'accel_x'
p22
F0
sS'accel_y'
p23
F0
sS'maxAccel'
p24
I2
sS'maxVel'
p25
F0.5
sS'age'
p26
I0
sS'gener'
p27
S'm'
sS'lastScale'
p28
F5.5
sS'energy'
p29
F0.5
sb.(i__main__
Data_mobile
p1
(dp2
S'vel_y'
p3
I0
sS'vel_x'
p4
I0
sS'pos_x'
p5
I-9579
sS'pos_y'
p6
I9779
sS'isAlive'
p7
I00
sS'geno'
p8
(lp9
S'flee'
p10
aS'flee'
p11
a(lp12
S'target'
p13
aaS'alignment'
p14
aS'separation'
p15
a(lp16
S'flee'
p17
aS'currentVelocity'
p18
aS'target'
p19
aS'currentVelocity'
p20
aaS'POINT.+'
p21
asS'accel_x'
p22
F0
sS'accel_y'
p23
F0
sS'maxAccel'
p24
I2
sS'maxVel'
p25
F0.5
sS'age'
p26
I0
sS'gener'
p27
S'm'
sS'lastScale'
p28
F5.5
sS'energy'
p29
F0.5
sb.(i__main__
Data_mobile
p1
(dp2
S'vel_y'
p3
I0
sS'vel_x'
p4
I0
sS'pos_x'
p5
I-9579
sS'pos_y'
p6
I9779
sS'isAlive'
p7
I00
sS'geno'
p8
(lp9
S'currentVelocity'
p10
aS'flee'
p11
aS'POINT.*'
p12
aS'currentVelocity'
p13
aS'separation'
p14
a(lp15
S'alignment'
p16
aS'currentVelocity'
p17
aS'target'
p18
aS'flee'
p19
aaS'POINT.+'
p20
asS'accel_x'
p21
F0
sS'accel_y'
p22
F0
sS'maxAccel'
p23
I2
sS'maxVel'
p24
F0.5
sS'age'
p25
I0
sS'gener'
p26
S'm'
sS'lastScale'
p27
F5.5
sS'energy'
p28
F0.5
sb.(i__main__
Data_mobile
p1
(dp2
S'vel_y'
p3
I0
sS'vel_x'
p4
I0
sS'pos_x'
p5
I-9579
sS'pos_y'
p6
I9779
sS'isAlive'
p7
I00
sS'geno'
p8
(lp9
S'alignment'
p10
a(lp11
(lp12
S'cohesion'
p13
aaaS'POINT.*'
p14
aS'flee'
p15
aS'cohesion'
p16
a(lp17
S'alignment'
p18
aS'currentVelocity'
p19
a(lp20
S'alignment'
p21
aS'currentVelocity'
p22
aS'target'
p23
aS'currentVelocity'
p24
aaS'currentVelocity'
p25
aaS'POINT.+'
p26
asS'accel_x'
p27
F0
sS'accel_y'
p28
F0
sS'maxAccel'
p29
I2
sS'maxVel'
p30
F0.5
sS'age'
p31
I0
sS'gener'
p32
S'm'
sS'lastScale'
p33
F5.5
sS'energy'
p34
F0.5
sb.(i__main__
Data_mobile
p1
(dp2
S'vel_y'
p3
I0
sS'vel_x'
p4
I0
sS'pos_x'
p5
I-9579
sS'pos_y'
p6
I9779
sS'isAlive'
p7
I00
sS'geno'
p8
(lp9
S'flee'
p10
aS'target'
p11
a(lp12
S'target'
p13
aaS'alignment'
p14
a(lp15
S'alignment'
p16
aS'flee'
p17
aa(lp18
S'alignment'
p19
aS'currentVelocity'
p20
aS'target'
p21
aS'currentVelocity'
p22
aaS'target'
p23
asS'accel_x'
p24
F0
sS'accel_y'
p25
F0
sS'maxAccel'
p26
I2
sS'maxVel'
p27
F0.5
sS'age'
p28
I0
sS'gener'
p29
S'm'
sS'lastScale'
p30
F5.5
sS'energy'
p31
F0.5
sb.(i__main__
Data_mobile
p1
(dp2
S'vel_y'
p3
I0
sS'vel_x'
p4
I0
sS'pos_x'
p5
I-9579
sS'pos_y'
p6
I9779
sS'isAlive'
p7
I00
sS'geno'
p8
(lp9
S'randV'
p10
aS'flee'
p11
a(lp12
S'target'
p13
aaS'flee'
p14
a(lp15
(lp16
S'cohesion'
p17
aa(lp18
(lp19
S'flee'
p20
aS'flee'
p21
a(lp22
S'target'
p23
aaS'flee'
p24
aS'flee'
p25
a(lp26
S'alignment'
p27
aS'currentVelocity'
p28
aS'target'
p29
aS'currentVelocity'
p30
aaS'POINT.+'
p31
aaaaS'flee'
p32
aS'POINT.+'
p33
asS'accel_x'
p34
F0
sS'accel_y'
p35
F0
sS'maxAccel'
p36
I2
sS'maxVel'
p37
F0.5
sS'age'
p38
I0
sS'gener'
p39
S'm'
sS'lastScale'
p40
F5.5
sS'energy'
p41
F0.5
sb.(i__main__
Data_mobile
p1
(dp2
S'vel_y'
p3
I0
sS'vel_x'
p4
I0
sS'pos_x'
p5
I-9579
sS'pos_y'
p6
I9779
sS'isAlive'
p7
I00
sS'geno'
p8
(lp9
S'flee'
p10
a(lp11
S'cohesion'
p12
aaS'POINT.*'
p13
aS'target'
p14
aS'flee'
p15
a(lp16
S'alignment'
p17
aS'currentVelocity'
p18
aS'currentVelocity'
p19
aS'currentVelocity'
p20
aaS'POINT.+'
p21
asS'accel_x'
p22
F0
sS'accel_y'
p23
F0
sS'maxAccel'
p24
I2
sS'maxVel'
p25
F0.5
sS'age'
p26
I0
sS'gener'
p27
S'm'
sS'lastScale'
p28
F5.5
sS'energy'
p29
F0.5
sb.(i__main__
Data_mobile
p1
(dp2
S'vel_y'
p3
I0
sS'vel_x'
p4
I0
sS'pos_x'
p5
I-9579
sS'pos_y'
p6
I9779
sS'isAlive'
p7
I00
sS'geno'
p8
(lp9
S'flee'
p10
aS'flee'
p11
a(lp12
S'target'
p13
aaS'alignment'
p14
aS'currentVelocity'
p15
a(lp16
S'alignment'
p17
aS'currentVelocity'
p18
aS'target'
p19
aS'currentVelocity'
p20
aaS'POINT.+'
p21
asS'accel_x'
p22
F0
sS'accel_y'
p23
F0
sS'maxAccel'
p24
I2
sS'maxVel'
p25
F0.5
sS'age'
p26
I0
sS'gener'
p27
S'm'
sS'lastScale'
p28
F5.5
sS'energy'
p29
F0.5
sb.(i__main__
Data_mobile
p1
(dp2
S'vel_y'
p3
I0
sS'vel_x'
p4
I0
sS'pos_x'
p5
I-9579
sS'pos_y'
p6
I9779
sS'isAlive'
p7
I00
sS'geno'
p8
(lp9
S'target'
p10
a(lp11
S'cohesion'
p12
a(lp13
S'flee'
p14
aaS'alignment'
p15
a(lp16
S'flee'
p17
aaasS'accel_x'
p18
F0
sS'accel_y'
p19
F0
sS'maxAccel'
p20
I2
sS'maxVel'
p21
F0.5
sS'age'
p22
I0
sS'gener'
p23
S'm'
sS'lastScale'
p24
F5.5
sS'energy'
p25
F0.5
sb.(i__main__
Data_mobile
p1
(dp2
S'vel_y'
p3
I0
sS'vel_x'
p4
I0
sS'pos_x'
p5
I-9579
sS'pos_y'
p6
I9779
sS'isAlive'
p7
I00
sS'geno'
p8
(lp9
S'alignment'
p10
asS'accel_x'
p11
F0
sS'accel_y'
p12
F0
sS'maxAccel'
p13
I2
sS'maxVel'
p14
F0.5
sS'age'
p15
I0
sS'gener'
p16
S'm'
sS'lastScale'
p17
F5.5
sS'energy'
p18
F0.5
sb.(i__main__
Data_mobile
p1
(dp2
S'vel_y'
p3
I0
sS'vel_x'
p4
I0
sS'pos_x'
p5
I-9579
sS'pos_y'
p6
I9779
sS'isAlive'
p7
I00
sS'geno'
p8
(lp9
S'randV'
p10
aS'flee'
p11
a(lp12
S'target'
p13
aaS'flee'
p14
a(lp15
(lp16
S'cohesion'
p17
aa(lp18
(lp19
S'flee'
p20
aS'flee'
p21
a(lp22
S'target'
p23
aaS'flee'
p24
aS'flee'
p25
a(lp26
S'alignment'
p27
aS'currentVelocity'
p28
aS'target'
p29
aS'currentVelocity'
p30
aaS'POINT.+'
p31
aaaaS'currentVelocity'
p32
aS'POINT.+'
p33
asS'accel_x'
p34
F0
sS'accel_y'
p35
F0
sS'maxAccel'
p36
I2
sS'maxVel'
p37
F0.5
sS'age'
p38
I0
sS'gener'
p39
S'm'
sS'lastScale'
p40
F5.5
sS'energy'
p41
F0.5
sb.(i__main__
Data_mobile
p1
(dp2
S'vel_y'
p3
I0
sS'vel_x'
p4
I0
sS'pos_x'
p5
I-9579
sS'pos_y'
p6
I9779
sS'isAlive'
p7
I00
sS'geno'
p8
(lp9
(lp10
S'target'
p11
aaS'flee'
p12
a(lp13
S'flee'
p14
aaS'alignment'
p15
a(lp16
S'alignment'
p17
aS'flee'
p18
aa(lp19
S'flee'
p20
aS'currentVelocity'
p21
aS'target'
p22
aS'currentVelocity'
p23
aaS'POINT.+'
p24
asS'accel_x'
p25
F0
sS'accel_y'
p26
F0
sS'maxAccel'
p27
I2
sS'maxVel'
p28
F0.5
sS'age'
p29
I0
sS'gener'
p30
S'm'
sS'lastScale'
p31
F5.5
sS'energy'
p32
F0.5
sb.(i__main__
Data_mobile
p1
(dp2
S'vel_y'
p3
I0
sS'vel_x'
p4
I0
sS'pos_x'
p5
I-9579
sS'pos_y'
p6
I9779
sS'isAlive'
p7
I00
sS'geno'
p8
(lp9
S'flee'
p10
a(lp11
S'cohesion'
p12
aaS'POINT.*'
p13
aS'flee'
p14
aS'randV'
p15
a(lp16
S'alignment'
p17
a(lp18
S'flee'
p19
aS'flee'
p20
aS'alignment'
p21
aS'flee'
p22
aS'flee'
p23
aS'target'
p24
aS'POINT.+'
p25
aaS'target'
p26
aS'currentVelocity'
p27
aaS'POINT.+'
p28
asS'accel_x'
p29
F0
sS'accel_y'
p30
F0
sS'maxAccel'
p31
I2
sS'maxVel'
p32
F0.5
sS'age'
p33
I0
sS'gener'
p34
S'm'
sS'lastScale'
p35
F5.5
sS'energy'
p36
F0.5
sb.(i__main__
Data_mobile
p1
(dp2
S'vel_y'
p3
I0
sS'vel_x'
p4
I0
sS'pos_x'
p5
I-9579
sS'pos_y'
p6
I9779
sS'isAlive'
p7
I00
sS'geno'
p8
(lp9
S'randV'
p10
aS'flee'
p11
a(lp12
S'target'
p13
aaS'flee'
p14
a(lp15
(lp16
S'alignment'
p17
aa(lp18
S'mostEnergizedNeighbor'
p19
aaa(lp20
S'target'
p21
aaS'POINT.+'
p22
asS'accel_x'
p23
F0
sS'accel_y'
p24
F0
sS'maxAccel'
p25
I2
sS'maxVel'
p26
F0.5
sS'age'
p27
I0
sS'gener'
p28
S'm'
sS'lastScale'
p29
F5.5
sS'energy'
p30
F0.5
sb.(i__main__
Data_mobile
p1
(dp2
S'vel_y'
p3
I0
sS'vel_x'
p4
I0
sS'pos_x'
p5
I-9579
sS'pos_y'
p6
I9779
sS'isAlive'
p7
I00
sS'geno'
p8
(lp9
S'randV'
p10
aS'flee'
p11
a(lp12
S'target'
p13
aaS'flee'
p14
a(lp15
(lp16
S'alignment'
p17
aa(lp18
S'currentVelocity'
p19
aaaS'target'
p20
aS'POINT.+'
p21
asS'accel_x'
p22
F0
sS'accel_y'
p23
F0
sS'maxAccel'
p24
I2
sS'maxVel'
p25
F0.5
sS'age'
p26
I0
sS'gener'
p27
S'm'
sS'lastScale'
p28
F5.5
sS'energy'
p29
F0.5
sb.(i__main__
Data_mobile
p1
(dp2
S'vel_y'
p3
I0
sS'vel_x'
p4
I0
sS'pos_x'
p5
I-9579
sS'pos_y'
p6
I9779
sS'isAlive'
p7
I00
sS'geno'
p8
(lp9
S'flee'
p10
a(lp11
S'cohesion'
p12
aaS'target'
p13
aS'target'
p14
aS'flee'
p15
a(lp16
S'alignment'
p17
aS'currentVelocity'
p18
aS'target'
p19
aS'currentVelocity'
p20
aaS'POINT.+'
p21
asS'accel_x'
p22
F0
sS'accel_y'
p23
F0
sS'maxAccel'
p24
I2
sS'maxVel'
p25
F0.5
sS'age'
p26
I0
sS'gener'
p27
S'm'
sS'lastScale'
p28
F5.5
sS'energy'
p29
F0.5
sb.(i__main__
Data_mobile
p1
(dp2
S'vel_y'
p3
I0
sS'vel_x'
p4
I0
sS'pos_x'
p5
I-9579
sS'pos_y'
p6
I9779
sS'isAlive'
p7
I00
sS'geno'
p8
(lp9
S'alignment'
p10
aS'alignment'
p11
a(lp12
S'flee'
p13
aaS'flee'
p14
aS'flee'
p15
a(lp16
(lp17
S'separation'
p18
aS'currentVelocity'
p19
aaS'currentVelocity'
p20
aS'target'
p21
aS'currentVelocity'
p22
aaS'POINT.+'
p23
asS'accel_x'
p24
F0
sS'accel_y'
p25
F0
sS'maxAccel'
p26
I2
sS'maxVel'
p27
F0.5
sS'age'
p28
I0
sS'gener'
p29
S'm'
sS'lastScale'
p30
F5.5
sS'energy'
p31
F0.5
sb.(i__main__
Data_mobile
p1
(dp2
S'vel_y'
p3
I0
sS'vel_x'
p4
I0
sS'pos_x'
p5
I-9579
sS'pos_y'
p6
I9779
sS'isAlive'
p7
I00
sS'geno'
p8
(lp9
S'flee'
p10
aS'flee'
p11
a(lp12
S'flee'
p13
aaS'flee'
p14
aS'flee'
p15
a(lp16
(lp17
S'separation'
p18
aS'currentVelocity'
p19
aaS'currentVelocity'
p20
aS'target'
p21
aS'currentVelocity'
p22
aaS'POINT.+'
p23
asS'accel_x'
p24
F0
sS'accel_y'
p25
F0
sS'maxAccel'
p26
I2
sS'maxVel'
p27
F0.5
sS'age'
p28
I0
sS'gener'
p29
S'm'
sS'lastScale'
p30
F5.5
sS'energy'
p31
F0.5
sb.(i__main__
Data_mobile
p1
(dp2
S'vel_y'
p3
I0
sS'vel_x'
p4
I0
sS'pos_x'
p5
I-9579
sS'pos_y'
p6
I9779
sS'isAlive'
p7
I00
sS'geno'
p8
(lp9
(lp10
S'mostEnergizedNeighbor'
p11
a(lp12
(lp13
S'alignment'
p14
aaS'POINT./'
p15
aa(lp16
(lp17
S'POINT.*'
p18
aaS'POINT./'
p19
aaaS'flee'
p20
a(lp21
S'POINT./'
p22
aS'POINT.-'
p23
aS'randV'
p24
aS'POINT.+'
p25
aaS'currentVelocity'
p26
a(lp27
S'alignment'
p28
aS'POINT.+'
p29
aasS'accel_x'
p30
F0
sS'accel_y'
p31
F0
sS'maxAccel'
p32
I2
sS'maxVel'
p33
F0.5
sS'age'
p34
I0
sS'gener'
p35
S'm'
sS'lastScale'
p36
F5.5
sS'energy'
p37
F0.5
sb.(i__main__
Data_mobile
p1
(dp2
S'vel_y'
p3
I0
sS'vel_x'
p4
I0
sS'pos_x'
p5
I-9579
sS'pos_y'
p6
I9779
sS'isAlive'
p7
I00
sS'geno'
p8
(lp9
S'randV'
p10
aS'flee'
p11
a(lp12
S'target'
p13
aaS'flee'
p14
a(lp15
(lp16
S'alignment'
p17
aa(lp18
S'mostEnergizedNeighbor'
p19
aaaS'target'
p20
aS'POINT.+'
p21
asS'accel_x'
p22
F0
sS'accel_y'
p23
F0
sS'maxAccel'
p24
I2
sS'maxVel'
p25
F0.5
sS'age'
p26
I0
sS'gener'
p27
S'm'
sS'lastScale'
p28
F5.5
sS'energy'
p29
F0.5
sb.(i__main__
Data_mobile
p1
(dp2
S'vel_y'
p3
I0
sS'vel_x'
p4
I0
sS'pos_x'
p5
I-9579
sS'pos_y'
p6
I9779
sS'isAlive'
p7
I00
sS'geno'
p8
(lp9
S'separation'
p10
asS'accel_x'
p11
F0
sS'accel_y'
p12
F0
sS'maxAccel'
p13
I2
sS'maxVel'
p14
F0.5
sS'age'
p15
I0
sS'gener'
p16
S'm'
sS'lastScale'
p17
F5.5
sS'energy'
p18
F0.5
sb.(i__main__
Data_mobile
p1
(dp2
S'vel_y'
p3
I0
sS'vel_x'
p4
I0
sS'pos_x'
p5
I-9579
sS'pos_y'
p6
I9779
sS'isAlive'
p7
I00
sS'geno'
p8
(lp9
S'flee'
p10
a(lp11
S'cohesion'
p12
aaS'POINT.*'
p13
aS'flee'
p14
aS'randV'
p15
a(lp16
S'alignment'
p17
a(lp18
S'flee'
p19
aS'flee'
p20
aS'alignment'
p21
aS'flee'
p22
aS'flee'
p23
aS'target'
p24
aS'POINT.+'
p25
aaS'target'
p26
aS'currentVelocity'
p27
aaS'randV'
p28
asS'accel_x'
p29
F0
sS'accel_y'
p30
F0
sS'maxAccel'
p31
I2
sS'maxVel'
p32
F0.5
sS'age'
p33
I0
sS'gener'
p34
S'm'
sS'lastScale'
p35
F5.5
sS'energy'
p36
F0.5
sb.(i__main__
Data_mobile
p1
(dp2
S'vel_y'
p3
I0
sS'vel_x'
p4
I0
sS'pos_x'
p5
I-9579
sS'pos_y'
p6
I9779
sS'isAlive'
p7
I00
sS'geno'
p8
(lp9
S'flee'
p10
aS'alignment'
p11
a(lp12
S'target'
p13
aaS'alignment'
p14
a(lp15
S'alignment'
p16
aS'flee'
p17
aa(lp18
S'target'
p19
aaS'POINT.+'
p20
asS'accel_x'
p21
F0
sS'accel_y'
p22
F0
sS'maxAccel'
p23
I2
sS'maxVel'
p24
F0.5
sS'age'
p25
I0
sS'gener'
p26
S'm'
sS'lastScale'
p27
F5.5
sS'energy'
p28
F0.5
sb.(i__main__
Data_mobile
p1
(dp2
S'vel_y'
p3
I0
sS'vel_x'
p4
I0
sS'pos_x'
p5
I-9579
sS'pos_y'
p6
I9779
sS'isAlive'
p7
I00
sS'geno'
p8
(lp9
S'alignment'
p10
aS'currentVelocity'
p11
a(lp12
S'flee'
p13
aaS'flee'
p14
aS'flee'
p15
a(lp16
(lp17
S'separation'
p18
aS'currentVelocity'
p19
aaS'currentVelocity'
p20
aS'target'
p21
aS'currentVelocity'
p22
aaS'POINT.+'
p23
asS'accel_x'
p24
F0
sS'accel_y'
p25
F0
sS'maxAccel'
p26
I2
sS'maxVel'
p27
F0.5
sS'age'
p28
I0
sS'gener'
p29
S'm'
sS'lastScale'
p30
F5.5
sS'energy'
p31
F0.5
sb.(i__main__
Data_mobile
p1
(dp2
S'vel_y'
p3
I0
sS'vel_x'
p4
I0
sS'pos_x'
p5
I-9579
sS'pos_y'
p6
I9779
sS'isAlive'
p7
I00
sS'geno'
p8
(lp9
S'POINT.*'
p10
aS'flee'
p11
a(lp12
S'target'
p13
aaS'alignment'
p14
a(lp15
S'target'
p16
a(lp17
S'target'
p18
aaa(lp19
S'alignment'
p20
aS'currentVelocity'
p21
aS'target'
p22
aS'currentVelocity'
p23
aaS'POINT.+'
p24
asS'accel_x'
p25
F0
sS'accel_y'
p26
F0
sS'maxAccel'
p27
I2
sS'maxVel'
p28
F0.5
sS'age'
p29
I0
sS'gener'
p30
S'm'
sS'lastScale'
p31
F5.5
sS'energy'
p32
F0.5
sb.(i__main__
Data_mobile
p1
(dp2
S'vel_y'
p3
I0
sS'vel_x'
p4
I0
sS'pos_x'
p5
I-9579
sS'pos_y'
p6
I9779
sS'isAlive'
p7
I00
sS'geno'
p8
(lp9
S'flee'
p10
aS'currentVelocity'
p11
aS'POINT.*'
p12
aS'flee'
p13
aS'randV'
p14
a(lp15
S'alignment'
p16
a(lp17
S'flee'
p18
aS'flee'
p19
aS'alignment'
p20
aS'flee'
p21
aS'flee'
p22
aS'target'
p23
aS'POINT.+'
p24
aaS'target'
p25
aS'currentVelocity'
p26
aaS'POINT.+'
p27
asS'accel_x'
p28
F0
sS'accel_y'
p29
F0
sS'maxAccel'
p30
I2
sS'maxVel'
p31
F0.5
sS'age'
p32
I0
sS'gener'
p33
S'm'
sS'lastScale'
p34
F5.5
sS'energy'
p35
F0.5
sb.(i__main__
Data_mobile
p1
(dp2
S'vel_y'
p3
I0
sS'vel_x'
p4
I0
sS'pos_x'
p5
I-9579
sS'pos_y'
p6
I9779
sS'isAlive'
p7
I00
sS'geno'
p8
(lp9
S'flee'
p10
aS'flee'
p11
a(lp12
S'target'
p13
aaS'alignment'
p14
aS'alignment'
p15
a(lp16
S'flee'
p17
aS'currentVelocity'
p18
aS'flee'
p19
aS'currentVelocity'
p20
aaS'POINT.+'
p21
asS'accel_x'
p22
F0
sS'accel_y'
p23
F0
sS'maxAccel'
p24
I2
sS'maxVel'
p25
F0.5
sS'age'
p26
I0
sS'gener'
p27
S'm'
sS'lastScale'
p28
F5.5
sS'energy'
p29
F0.5
sb.(i__main__
Data_mobile
p1
(dp2
S'vel_y'
p3
I0
sS'vel_x'
p4
I0
sS'pos_x'
p5
I-9579
sS'pos_y'
p6
I9779
sS'isAlive'
p7
I00
sS'geno'
p8
(lp9
S'flee'
p10
aS'flee'
p11
a(lp12
S'target'
p13
aaS'alignment'
p14
aS'currentVelocity'
p15
a(lp16
S'flee'
p17
a(lp18
S'cohesion'
p19
aaS'POINT.*'
p20
aS'flee'
p21
aS'flee'
p22
a(lp23
S'alignment'
p24
aS'currentVelocity'
p25
aS'target'
p26
aS'currentVelocity'
p27
aaS'POINT.+'
p28
aaS'POINT.+'
p29
asS'accel_x'
p30
F0
sS'accel_y'
p31
F0
sS'maxAccel'
p32
I2
sS'maxVel'
p33
F0.5
sS'age'
p34
I0
sS'gener'
p35
S'm'
sS'lastScale'
p36
F5.5
sS'energy'
p37
F0.5
sb.(i__main__
Data_mobile
p1
(dp2
S'vel_y'
p3
I0
sS'vel_x'
p4
I0
sS'pos_x'
p5
I-9579
sS'pos_y'
p6
I9779
sS'isAlive'
p7
I00
sS'geno'
p8
(lp9
S'flee'
p10
aS'flee'
p11
aS'POINT.*'
p12
aS'currentVelocity'
p13
aS'flee'
p14
a(lp15
S'alignment'
p16
aS'currentVelocity'
p17
aS'target'
p18
aS'flee'
p19
aaS'POINT.+'
p20
asS'accel_x'
p21
F0
sS'accel_y'
p22
F0
sS'maxAccel'
p23
I2
sS'maxVel'
p24
F0.5
sS'age'
p25
I0
sS'gener'
p26
S'm'
sS'lastScale'
p27
F5.5
sS'energy'
p28
F0.5
sb.(i__main__
Data_mobile
p1
(dp2
S'vel_y'
p3
I0
sS'vel_x'
p4
I0
sS'pos_x'
p5
I-9579
sS'pos_y'
p6
I9779
sS'isAlive'
p7
I00
sS'geno'
p8
(lp9
S'flee'
p10
aS'flee'
p11
a(lp12
S'target'
p13
aaS'alignment'
p14
aS'currentVelocity'
p15
a(lp16
S'flee'
p17
a(lp18
S'cohesion'
p19
aaS'currentVelocity'
p20
aS'flee'
p21
aS'flee'
p22
a(lp23
S'alignment'
p24
aS'currentVelocity'
p25
aS'target'
p26
aS'currentVelocity'
p27
aaS'POINT.+'
p28
aaS'POINT.+'
p29
asS'accel_x'
p30
F0
sS'accel_y'
p31
F0
sS'maxAccel'
p32
I2
sS'maxVel'
p33
F0.5
sS'age'
p34
I0
sS'gener'
p35
S'm'
sS'lastScale'
p36
F5.5
sS'energy'
p37
F0.5
sb.(i__main__
Data_mobile
p1
(dp2
S'vel_y'
p3
I0
sS'vel_x'
p4
I0
sS'pos_x'
p5
I-9579
sS'pos_y'
p6
I9779
sS'isAlive'
p7
I00
sS'geno'
p8
(lp9
S'randV'
p10
aS'flee'
p11
a(lp12
S'target'
p13
aaS'flee'
p14
a(lp15
(lp16
S'cohesion'
p17
aa(lp18
S'currentVelocity'
p19
aaaS'currentVelocity'
p20
aS'POINT.+'
p21
asS'accel_x'
p22
F0
sS'accel_y'
p23
F0
sS'maxAccel'
p24
I2
sS'maxVel'
p25
F0.5
sS'age'
p26
I0
sS'gener'
p27
S'm'
sS'lastScale'
p28
F5.5
sS'energy'
p29
F0.5
sb.(i__main__
Data_mobile
p1
(dp2
S'vel_y'
p3
I0
sS'vel_x'
p4
I0
sS'pos_x'
p5
I-9579
sS'pos_y'
p6
I9779
sS'isAlive'
p7
I00
sS'geno'
p8
(lp9
S'flee'
p10
aS'flee'
p11
aS'currentVelocity'
p12
aS'alignment'
p13
a(lp14
S'alignment'
p15
a(lp16
S'target'
p17
aaa(lp18
S'alignment'
p19
aS'currentVelocity'
p20
aS'target'
p21
aS'currentVelocity'
p22
aaS'POINT.+'
p23
asS'accel_x'
p24
F0
sS'accel_y'
p25
F0
sS'maxAccel'
p26
I2
sS'maxVel'
p27
F0.5
sS'age'
p28
I0
sS'gener'
p29
S'm'
sS'lastScale'
p30
F5.5
sS'energy'
p31
F0.5
sb.(i__main__
Data_mobile
p1
(dp2
S'vel_y'
p3
I0
sS'vel_x'
p4
I0
sS'pos_x'
p5
I-9579
sS'pos_y'
p6
I9779
sS'isAlive'
p7
I00
sS'geno'
p8
(lp9
S'flee'
p10
aS'alignment'
p11
a(lp12
S'target'
p13
aaS'alignment'
p14
aS'currentVelocity'
p15
a(lp16
S'target'
p17
aaS'POINT.+'
p18
asS'accel_x'
p19
F0
sS'accel_y'
p20
F0
sS'maxAccel'
p21
I2
sS'maxVel'
p22
F0.5
sS'age'
p23
I0
sS'gener'
p24
S'm'
sS'lastScale'
p25
F5.5
sS'energy'
p26
F0.5
sb.(i__main__
Data_mobile
p1
(dp2
S'vel_y'
p3
I0
sS'vel_x'
p4
I0
sS'pos_x'
p5
I-9579
sS'pos_y'
p6
I9779
sS'isAlive'
p7
I00
sS'geno'
p8
(lp9
S'flee'
p10
aS'flee'
p11
a(lp12
S'target'
p13
aaS'POINT.+'
p14
aS'flee'
p15
aS'flee'
p16
aS'POINT.+'
p17
asS'accel_x'
p18
F0
sS'accel_y'
p19
F0
sS'maxAccel'
p20
I2
sS'maxVel'
p21
F0.5
sS'age'
p22
I0
sS'gener'
p23
S'm'
sS'lastScale'
p24
F5.5
sS'energy'
p25
F0.5
sb.(i__main__
Data_mobile
p1
(dp2
S'vel_y'
p3
I0
sS'vel_x'
p4
I0
sS'pos_x'
p5
I-9579
sS'pos_y'
p6
I9779
sS'isAlive'
p7
I00
sS'geno'
p8
(lp9
(lp10
S'target'
p11
aaS'flee'
p12
a(lp13
S'target'
p14
aaS'flee'
p15
a(lp16
(lp17
S'alignment'
p18
aa(lp19
S'mostEnergizedNeighbor'
p20
aaaS'target'
p21
aS'POINT.+'
p22
asS'accel_x'
p23
F0
sS'accel_y'
p24
F0
sS'maxAccel'
p25
I2
sS'maxVel'
p26
F0.5
sS'age'
p27
I0
sS'gener'
p28
S'm'
sS'lastScale'
p29
F5.5
sS'energy'
p30
F0.5
sb.