(i__main__
Data_mobile
p1
(dp2
S'vel_y'
p3
F-0.35675169260522771
sS'vel_x'
p4
F0.34793363840404584
sS'pos_x'
p5
F-99.326092638946292
sS'pos_y'
p6
F93.725380082705371
sS'isAlive'
p7
I01
sS'cumulativeEnergy'
p8
F49
sS'geno'
p9
(i__main__
Node
p10
(dp11
S'vector'
p12
S'+'
sS'depth'
p13
I1
sS'right'
p14
(i__main__
Node
p15
(dp16
g12
S'-'
sg13
I2
sg14
(i__main__
Node
p17
(dp18
g12
S'indiv.currentEnergy()'
p19
sg13
I3
sg14
NsS'parent'
p20
g15
sS'float_size'
p21
S'indiv.getNumPreysNeigh()'
p22
sS'float_bright'
p23
S'indiv.distanceMatingSeason()'
p24
sS'left'
p25
Nsbsg20
g10
sg21
S'+'
sg23
S'/'
sg25
(i__main__
Node
p26
(dp27
g12
S'indiv.target()'
p28
sg13
I3
sg14
Nsg20
g15
sg21
S'indiv.getTailBrightness()'
p29
sg23
g22
sg25
Nsbsbsg20
Nsg21
S'-'
sg23
S'+'
sg25
(i__main__
Node
p30
(dp31
g12
S'-'
sg13
I2
sg14
(i__main__
Node
p32
(dp33
g12
g19
sg13
I3
sg14
Nsg20
g30
sg21
g22
sg23
g24
sg25
Nsbsg20
g10
sg21
S'+'
sg23
S'/'
sg25
(i__main__
Node
p34
(dp35
g12
g28
sg13
I3
sg14
Nsg20
g30
sg21
g29
sg23
g22
sg25
NsbsbsbsS'accel_x'
p36
F-0.24429332858056396
sS'accel_y'
p37
F0.970885942270034
sS'visionAngle'
p38
I150
sS'maxAccel'
p39
I2
sS'maxVel'
p40
F0.5
sS'age'
p41
I400
sS'tailSize'
p42
F0
sS'sexualgeno'
p43
NsS'tailBrigh'
p44
F2
sS'maxSteering'
p45
I30
sS'energy'
p46
F1
sS'lastScale'
p47
F15.5
sb.(i__main__
Data_mobile
p1
(dp2
S'vel_y'
p3
F-0.35981751133729789
sS'vel_x'
p4
F-0.34476215779114394
sS'pos_x'
p5
F-42.226225533811366
sS'pos_y'
p6
F24.285239356258767
sS'isAlive'
p7
I01
sS'cumulativeEnergy'
p8
F48.888757512616358
sS'geno'
p9
(i__main__
Node
p10
(dp11
S'vector'
p12
S'+'
sS'depth'
p13
I1
sS'right'
p14
(i__main__
Node
p15
(dp16
g12
S'-'
sg13
I2
sg14
(i__main__
Node
p17
(dp18
g12
S'indiv.currentEnergy()'
p19
sg13
I3
sg14
NsS'parent'
p20
g15
sS'float_size'
p21
S'indiv.getNumPreysNeigh()'
p22
sS'float_bright'
p23
S'indiv.distanceMatingSeason()'
p24
sS'left'
p25
Nsbsg20
g10
sg21
S'+'
sg23
S'/'
sg25
(i__main__
Node
p26
(dp27
g12
S'indiv.target()'
p28
sg13
I3
sg14
Nsg20
g15
sg21
S'indiv.getTailBrightness()'
p29
sg23
g22
sg25
Nsbsbsg20
Nsg21
S'-'
sg23
S'+'
sg25
(i__main__
Node
p30
(dp31
g12
S'-'
sg13
I2
sg14
(i__main__
Node
p32
(dp33
g12
g19
sg13
I3
sg14
Nsg20
g30
sg21
g22
sg23
g24
sg25
Nsbsg20
g10
sg21
S'+'
sg23
S'/'
sg25
(i__main__
Node
p34
(dp35
g12
g28
sg13
I3
sg14
Nsg20
g30
sg21
g29
sg23
g22
sg25
NsbsbsbsS'accel_x'
p36
F-1.4142135623730949
sS'accel_y'
p37
F-1.4142135623730949
sS'visionAngle'
p38
I150
sS'maxAccel'
p39
I2
sS'maxVel'
p40
F0.5
sS'age'
p41
I100
sS'tailSize'
p42
F0
sS'sexualgeno'
p43
NsS'tailBrigh'
p44
F10
sS'maxSteering'
p45
I30
sS'energy'
p46
F0.9197607989730765
sS'lastScale'
p47
F14.697607989730765
sb.(i__main__
Data_mobile
p1
(dp2
S'vel_y'
p3
F-0.35241138515953446
sS'vel_x'
p4
F-0.35232911108750364
sS'pos_x'
p5
F-147.49337927279228
sS'pos_y'
p6
F39.162984668609333
sS'isAlive'
p7
I01
sS'cumulativeEnergy'
p8
F48.69351946489919
sS'geno'
p9
(i__main__
Node
p10
(dp11
S'vector'
p12
S'+'
sS'depth'
p13
I1
sS'right'
p14
(i__main__
Node
p15
(dp16
g12
S'-'
sg13
I2
sg14
(i__main__
Node
p17
(dp18
g12
S'indiv.currentEnergy()'
p19
sg13
I3
sg14
NsS'parent'
p20
g15
sS'float_size'
p21
S'indiv.getNumPreysNeigh()'
p22
sS'float_bright'
p23
S'indiv.distanceMatingSeason()'
p24
sS'left'
p25
Nsbsg20
g10
sg21
S'+'
sg23
S'/'
sg25
(i__main__
Node
p26
(dp27
g12
S'indiv.target()'
p28
sg13
I3
sg14
Nsg20
g15
sg21
S'indiv.getTailBrightness()'
p29
sg23
g22
sg25
Nsbsbsg20
Nsg21
S'-'
sg23
S'+'
sg25
(i__main__
Node
p30
(dp31
g12
S'-'
sg13
I2
sg14
(i__main__
Node
p32
(dp33
g12
g19
sg13
I3
sg14
Nsg20
g30
sg21
g22
sg23
g24
sg25
Nsbsg20
g10
sg21
S'+'
sg23
S'/'
sg25
(i__main__
Node
p34
(dp35
g12
g28
sg13
I3
sg14
Nsg20
g30
sg21
g29
sg23
g22
sg25
NsbsbsbsS'accel_x'
p36
F-1.4142135623730951
sS'accel_y'
p37
F-1.4142135623730951
sS'visionAngle'
p38
I150
sS'maxAccel'
p39
I2
sS'maxVel'
p40
F0.5
sS'age'
p41
I100
sS'tailSize'
p42
F0
sS'sexualgeno'
p43
NsS'tailBrigh'
p44
F12
sS'maxSteering'
p45
I30
sS'energy'
p46
F0.88736053918190905
sS'lastScale'
p47
F14.37360539181909
sb.(i__main__
Data_mobile
p1
(dp2
S'vel_y'
p3
F-0.35236977178213685
sS'vel_x'
p4
F-0.3523707292667439
sS'pos_x'
p5
F95.06169319195466
sS'pos_y'
p6
F67.104199272951405
sS'isAlive'
p7
I01
sS'cumulativeEnergy'
p8
F48.504120807971724
sS'geno'
p9
(i__main__
Node
p10
(dp11
S'vector'
p12
S'+'
sS'depth'
p13
I1
sS'right'
p14
(i__main__
Node
p15
(dp16
g12
S'-'
sg13
I2
sg14
(i__main__
Node
p17
(dp18
g12
S'indiv.currentEnergy()'
p19
sg13
I3
sg14
NsS'parent'
p20
g15
sS'float_size'
p21
S'indiv.getNumPreysNeigh()'
p22
sS'float_bright'
p23
S'indiv.distanceMatingSeason()'
p24
sS'left'
p25
Nsbsg20
g10
sg21
S'+'
sg23
S'/'
sg25
(i__main__
Node
p26
(dp27
g12
S'indiv.target()'
p28
sg13
I3
sg14
Nsg20
g15
sg21
S'indiv.getTailBrightness()'
p29
sg23
g22
sg25
Nsbsbsg20
Nsg21
S'-'
sg23
S'+'
sg25
(i__main__
Node
p30
(dp31
g12
S'-'
sg13
I2
sg14
(i__main__
Node
p32
(dp33
g12
g19
sg13
I3
sg14
Nsg20
g30
sg21
g22
sg23
g24
sg25
Nsbsg20
g10
sg21
S'+'
sg23
S'/'
sg25
(i__main__
Node
p34
(dp35
g12
g28
sg13
I3
sg14
Nsg20
g30
sg21
g29
sg23
g22
sg25
NsbsbsbsS'accel_x'
p36
F-1.4142135623730951
sS'accel_y'
p37
F-1.4142135623730951
sS'visionAngle'
p38
I150
sS'maxAccel'
p39
I2
sS'maxVel'
p40
F0.5
sS'age'
p41
I100
sS'tailSize'
p42
F0
sS'sexualgeno'
p43
NsS'tailBrigh'
p44
F4
sS'maxSteering'
p45
I30
sS'energy'
p46
F0.87252859027831442
sS'lastScale'
p47
F14.225285902783144
sb.(i__main__
Data_mobile
p1
(dp2
S'vel_y'
p3
F-0.35238177297953671
sS'vel_x'
p4
F-0.35235872769319965
sS'pos_x'
p5
F97.318890306284558
sS'pos_y'
p6
F65.887102478042408
sS'isAlive'
p7
I01
sS'cumulativeEnergy'
p8
F48.385992158788198
sS'geno'
p9
(i__main__
Node
p10
(dp11
S'vector'
p12
S'+'
sS'depth'
p13
I1
sS'right'
p14
(i__main__
Node
p15
(dp16
g12
S'-'
sg13
I2
sg14
(i__main__
Node
p17
(dp18
g12
S'indiv.currentEnergy()'
p19
sg13
I3
sg14
NsS'parent'
p20
g15
sS'float_size'
p21
S'indiv.getNumPreysNeigh()'
p22
sS'float_bright'
p23
S'indiv.distanceMatingSeason()'
p24
sS'left'
p25
Nsbsg20
g10
sg21
S'+'
sg23
S'/'
sg25
(i__main__
Node
p26
(dp27
g12
S'indiv.target()'
p28
sg13
I3
sg14
Nsg20
g15
sg21
S'indiv.getTailBrightness()'
p29
sg23
g22
sg25
Nsbsbsg20
Nsg21
S'-'
sg23
S'+'
sg25
(i__main__
Node
p30
(dp31
g12
S'-'
sg13
I2
sg14
(i__main__
Node
p32
(dp33
g12
g19
sg13
I3
sg14
Nsg20
g30
sg21
g22
sg23
g24
sg25
Nsbsg20
g10
sg21
S'+'
sg23
S'/'
sg25
(i__main__
Node
p34
(dp35
g12
g28
sg13
I3
sg14
Nsg20
g30
sg21
g29
sg23
g22
sg25
NsbsbsbsS'accel_x'
p36
F-1.4142135623730949
sS'accel_y'
p37
F-1.4142135623730949
sS'visionAngle'
p38
I150
sS'maxAccel'
p39
I2
sS'maxVel'
p40
F0.5
sS'age'
p41
I100
sS'tailSize'
p42
F0
sS'sexualgeno'
p43
NsS'tailBrigh'
p44
F4
sS'maxSteering'
p45
I30
sS'energy'
p46
F0.85940318481347788
sS'lastScale'
p47
F14.094031848134778
sb.(i__main__
Data_mobile
p1
(dp2
S'vel_y'
p3
F-0.35236599731024731
sS'vel_x'
p4
F-0.35237450368794698
sS'pos_x'
p5
F94.908784940743246
sS'pos_y'
p6
F67.618849252619086
sS'isAlive'
p7
I01
sS'cumulativeEnergy'
p8
F48.275656839124686
sS'geno'
p9
(i__main__
Node
p10
(dp11
S'vector'
p12
S'+'
sS'depth'
p13
I1
sS'right'
p14
(i__main__
Node
p15
(dp16
g12
S'-'
sg13
I2
sg14
(i__main__
Node
p17
(dp18
g12
S'indiv.currentEnergy()'
p19
sg13
I3
sg14
NsS'parent'
p20
g15
sS'float_size'
p21
S'indiv.getNumPreysNeigh()'
p22
sS'float_bright'
p23
S'indiv.distanceMatingSeason()'
p24
sS'left'
p25
Nsbsg20
g10
sg21
S'+'
sg23
S'/'
sg25
(i__main__
Node
p26
(dp27
g12
S'indiv.target()'
p28
sg13
I3
sg14
Nsg20
g15
sg21
S'indiv.getTailBrightness()'
p29
sg23
g22
sg25
Nsbsbsg20
Nsg21
S'-'
sg23
S'+'
sg25
(i__main__
Node
p30
(dp31
g12
S'-'
sg13
I2
sg14
(i__main__
Node
p32
(dp33
g12
g19
sg13
I3
sg14
Nsg20
g30
sg21
g22
sg23
g24
sg25
Nsbsg20
g10
sg21
S'+'
sg23
S'/'
sg25
(i__main__
Node
p34
(dp35
g12
g28
sg13
I3
sg14
Nsg20
g30
sg21
g29
sg23
g22
sg25
NsbsbsbsS'accel_x'
p36
F-1.4142135623730951
sS'accel_y'
p37
F-1.4142135623730951
sS'visionAngle'
p38
I150
sS'maxAccel'
p39
I2
sS'maxVel'
p40
F0.5
sS'age'
p41
I300
sS'tailSize'
p42
F0
sS'sexualgeno'
p43
NsS'tailBrigh'
p44
F4
sS'maxSteering'
p45
I30
sS'energy'
p46
F0.81838807576849693
sS'lastScale'
p47
F13.683880757684969
sb.(i__main__
Data_mobile
p1
(dp2
S'vel_y'
p3
F0.49152048218737282
sS'vel_x'
p4
F0.082080463571210127
sS'pos_x'
p5
F-74.58947889532449
sS'pos_y'
p6
F66.361505711668514
sS'isAlive'
p7
I01
sS'cumulativeEnergy'
p8
F46.859232568871249
sS'geno'
p9
(i__main__
Node
p10
(dp11
S'vector'
p12
S'+'
sS'depth'
p13
I1
sS'right'
p14
(i__main__
Node
p15
(dp16
g12
S'-'
sg13
I2
sg14
(i__main__
Node
p17
(dp18
g12
S'indiv.currentEnergy()'
p19
sg13
I3
sg14
NsS'parent'
p20
g15
sS'float_size'
p21
S'indiv.getNumPreysNeigh()'
p22
sS'float_bright'
p23
S'indiv.distanceMatingSeason()'
p24
sS'left'
p25
Nsbsg20
g10
sg21
S'+'
sg23
S'/'
sg25
(i__main__
Node
p26
(dp27
g12
S'indiv.target()'
p28
sg13
I3
sg14
Nsg20
g15
sg21
S'indiv.getTailBrightness()'
p29
sg23
g22
sg25
Nsbsbsg20
Nsg21
S'-'
sg23
S'+'
sg25
(i__main__
Node
p30
(dp31
g12
S'-'
sg13
I2
sg14
(i__main__
Node
p32
(dp33
g12
g19
sg13
I3
sg14
Nsg20
g30
sg21
g22
sg23
g24
sg25
Nsbsg20
g10
sg21
S'+'
sg23
S'/'
sg25
(i__main__
Node
p34
(dp35
g12
g28
sg13
I3
sg14
Nsg20
g30
sg21
g29
sg23
g22
sg25
NsbsbsbsS'accel_x'
p36
F-0.63825049610427786
sS'accel_y'
p37
F-0.7708712792074417
sS'visionAngle'
p38
I150
sS'maxAccel'
p39
I2
sS'maxVel'
p40
F0.5
sS'age'
p41
I150
sS'tailSize'
p42
F0
sS'sexualgeno'
p43
NsS'tailBrigh'
p44
F2
sS'maxSteering'
p45
I30
sS'energy'
p46
F1
sS'lastScale'
p47
F15.5
sb.(i__main__
Data_mobile
p1
(dp2
S'vel_y'
p3
F-0.35237025422277607
sS'vel_x'
p4
F-0.35237024682675516
sS'pos_x'
p5
F-33.121549387155383
sS'pos_y'
p6
F-25.592955857404917
sS'isAlive'
p7
I01
sS'cumulativeEnergy'
p8
F46.695642871379228
sS'geno'
p9
(i__main__
Node
p10
(dp11
S'vector'
p12
S'+'
sS'depth'
p13
I1
sS'right'
p14
(i__main__
Node
p15
(dp16
g12
S'-'
sg13
I2
sg14
(i__main__
Node
p17
(dp18
g12
S'indiv.currentEnergy()'
p19
sg13
I3
sg14
NsS'parent'
p20
g15
sS'float_size'
p21
S'indiv.getNumPreysNeigh()'
p22
sS'float_bright'
p23
S'indiv.distanceMatingSeason()'
p24
sS'left'
p25
Nsbsg20
g10
sg21
S'+'
sg23
S'/'
sg25
(i__main__
Node
p26
(dp27
g12
S'indiv.target()'
p28
sg13
I3
sg14
Nsg20
g15
sg21
S'indiv.getTailBrightness()'
p29
sg23
g22
sg25
Nsbsbsg20
Nsg21
S'-'
sg23
S'+'
sg25
(i__main__
Node
p30
(dp31
g12
S'-'
sg13
I2
sg14
(i__main__
Node
p32
(dp33
g12
g19
sg13
I3
sg14
Nsg20
g30
sg21
g22
sg23
g24
sg25
Nsbsg20
g10
sg21
S'+'
sg23
S'/'
sg25
(i__main__
Node
p34
(dp35
g12
g28
sg13
I3
sg14
Nsg20
g30
sg21
g29
sg23
g22
sg25
NsbsbsbsS'accel_x'
p36
F-1.4142135623730949
sS'accel_y'
p37
F-1.4142135623730949
sS'visionAngle'
p38
I150
sS'maxAccel'
p39
I2
sS'maxVel'
p40
F0.5
sS'age'
p41
I100
sS'tailSize'
p42
F0
sS'sexualgeno'
p43
NsS'tailBrigh'
p44
F6
sS'maxSteering'
p45
I30
sS'energy'
p46
F0.83214837104674677
sS'lastScale'
p47
F13.821483710467469
sb.(i__main__
Data_mobile
p1
(dp2
S'vel_y'
p3
F0.45920822835873343
sS'vel_x'
p4
F0.19353911727970016
sS'pos_x'
p5
F-74.508971084525925
sS'pos_y'
p6
F66.27722694485287
sS'isAlive'
p7
I01
sS'cumulativeEnergy'
p8
F46.68367111269756
sS'geno'
p9
(i__main__
Node
p10
(dp11
S'vector'
p12
S'+'
sS'depth'
p13
I1
sS'right'
p14
(i__main__
Node
p15
(dp16
g12
S'-'
sg13
I2
sg14
(i__main__
Node
p17
(dp18
g12
S'indiv.currentEnergy()'
p19
sg13
I3
sg14
NsS'parent'
p20
g15
sS'float_size'
p21
S'indiv.getNumPreysNeigh()'
p22
sS'float_bright'
p23
S'indiv.distanceMatingSeason()'
p24
sS'left'
p25
Nsbsg20
g10
sg21
S'+'
sg23
S'/'
sg25
(i__main__
Node
p26
(dp27
g12
S'indiv.target()'
p28
sg13
I3
sg14
Nsg20
g15
sg21
S'indiv.getTailBrightness()'
p29
sg23
g22
sg25
Nsbsbsg20
Nsg21
S'-'
sg23
S'+'
sg25
(i__main__
Node
p30
(dp31
g12
S'-'
sg13
I2
sg14
(i__main__
Node
p32
(dp33
g12
g19
sg13
I3
sg14
Nsg20
g30
sg21
g22
sg23
g24
sg25
Nsbsg20
g10
sg21
S'+'
sg23
S'/'
sg25
(i__main__
Node
p34
(dp35
g12
g28
sg13
I3
sg14
Nsg20
g30
sg21
g29
sg23
g22
sg25
NsbsbsbsS'accel_x'
p36
F-0.79926611770140799
sS'accel_y'
p37
F-0.60231374557615514
sS'visionAngle'
p38
I150
sS'maxAccel'
p39
I2
sS'maxVel'
p40
F0.5
sS'age'
p41
I150
sS'tailSize'
p42
F0
sS'sexualgeno'
p43
NsS'tailBrigh'
p44
F2
sS'maxSteering'
p45
I30
sS'energy'
p46
F1
sS'lastScale'
p47
F15.5
sb.(i__main__
Data_mobile
p1
(dp2
S'vel_y'
p3
F-0.48134671375471755
sS'vel_x'
p4
F-0.12897646322994855
sS'pos_x'
p5
F-46.149917035569885
sS'pos_y'
p6
F77.559432596841802
sS'isAlive'
p7
I01
sS'cumulativeEnergy'
p8
F45.394528241152884
sS'geno'
p9
(i__main__
Node
p10
(dp11
S'vector'
p12
S'+'
sS'depth'
p13
I1
sS'right'
p14
(i__main__
Node
p15
(dp16
g12
S'-'
sg13
I2
sg14
(i__main__
Node
p17
(dp18
g12
S'indiv.currentEnergy()'
p19
sg13
I3
sg14
NsS'parent'
p20
g15
sS'float_size'
p21
S'indiv.getNumPreysNeigh()'
p22
sS'float_bright'
p23
S'indiv.distanceMatingSeason()'
p24
sS'left'
p25
Nsbsg20
g10
sg21
S'+'
sg23
S'/'
sg25
(i__main__
Node
p26
(dp27
g12
S'indiv.target()'
p28
sg13
I3
sg14
Nsg20
g15
sg21
S'indiv.getTailBrightness()'
p29
sg23
g22
sg25
Nsbsbsg20
Nsg21
S'-'
sg23
S'+'
sg25
(i__main__
Node
p30
(dp31
g12
S'-'
sg13
I2
sg14
(i__main__
Node
p32
(dp33
g12
g19
sg13
I3
sg14
Nsg20
g30
sg21
g22
sg23
g24
sg25
Nsbsg20
g10
sg21
S'+'
sg23
S'/'
sg25
(i__main__
Node
p34
(dp35
g12
g28
sg13
I3
sg14
Nsg20
g30
sg21
g29
sg23
g22
sg25
NsbsbsbsS'accel_x'
p36
F-0.26108376227277241
sS'accel_y'
p37
F0.96664060095629956
sS'visionAngle'
p38
I150
sS'maxAccel'
p39
I2
sS'maxVel'
p40
F0.5
sS'age'
p41
I100
sS'tailSize'
p42
F0
sS'sexualgeno'
p43
NsS'tailBrigh'
p44
F0
sS'maxSteering'
p45
I30
sS'energy'
p46
F1
sS'lastScale'
p47
F15.5
sb.(i__main__
Data_mobile
p1
(dp2
S'vel_y'
p3
F-0.35237024782478144
sS'vel_x'
p4
F-0.35237025322474985
sS'pos_x'
p5
F-107.20632601247294
sS'pos_y'
p6
F-57.591868146641346
sS'isAlive'
p7
I01
sS'cumulativeEnergy'
p8
F44.980130167081086
sS'geno'
p9
(i__main__
Node
p10
(dp11
S'vector'
p12
S'+'
sS'depth'
p13
I1
sS'right'
p14
(i__main__
Node
p15
(dp16
g12
S'-'
sg13
I2
sg14
(i__main__
Node
p17
(dp18
g12
S'indiv.currentEnergy()'
p19
sg13
I3
sg14
NsS'parent'
p20
g15
sS'float_size'
p21
S'indiv.getNumPreysNeigh()'
p22
sS'float_bright'
p23
S'indiv.distanceMatingSeason()'
p24
sS'left'
p25
Nsbsg20
g10
sg21
S'+'
sg23
S'/'
sg25
(i__main__
Node
p26
(dp27
g12
S'indiv.target()'
p28
sg13
I3
sg14
Nsg20
g15
sg21
S'indiv.getTailBrightness()'
p29
sg23
g22
sg25
Nsbsbsg20
Nsg21
S'-'
sg23
S'+'
sg25
(i__main__
Node
p30
(dp31
g12
S'-'
sg13
I2
sg14
(i__main__
Node
p32
(dp33
g12
g19
sg13
I3
sg14
Nsg20
g30
sg21
g22
sg23
g24
sg25
Nsbsg20
g10
sg21
S'+'
sg23
S'/'
sg25
(i__main__
Node
p34
(dp35
g12
g28
sg13
I3
sg14
Nsg20
g30
sg21
g29
sg23
g22
sg25
NsbsbsbsS'accel_x'
p36
F-1.4142135623730949
sS'accel_y'
p37
F-1.4142135623730949
sS'visionAngle'
p38
I150
sS'maxAccel'
p39
I2
sS'maxVel'
p40
F0.5
sS'age'
p41
I100
sS'tailSize'
p42
F0
sS'sexualgeno'
p43
NsS'tailBrigh'
p44
F14
sS'maxSteering'
p45
I30
sS'energy'
p46
F0.78970435141857065
sS'lastScale'
p47
F13.397043514185707
sb.(i__main__
Data_mobile
p1
(dp2
S'vel_y'
p3
F-0.35236995972510682
sS'vel_x'
p4
F-0.35237054132418438
sS'pos_x'
p5
F-105.20942631009234
sS'pos_y'
p6
F-55.252162520314627
sS'isAlive'
p7
I01
sS'cumulativeEnergy'
p8
F44.939422373826908
sS'geno'
p9
(i__main__
Node
p10
(dp11
S'vector'
p12
S'+'
sS'depth'
p13
I1
sS'right'
p14
(i__main__
Node
p15
(dp16
g12
S'-'
sg13
I2
sg14
(i__main__
Node
p17
(dp18
g12
S'indiv.currentEnergy()'
p19
sg13
I3
sg14
NsS'parent'
p20
g15
sS'float_size'
p21
S'indiv.getNumPreysNeigh()'
p22
sS'float_bright'
p23
S'indiv.distanceMatingSeason()'
p24
sS'left'
p25
Nsbsg20
g10
sg21
S'+'
sg23
S'/'
sg25
(i__main__
Node
p26
(dp27
g12
S'indiv.target()'
p28
sg13
I3
sg14
Nsg20
g15
sg21
S'indiv.getTailBrightness()'
p29
sg23
g22
sg25
Nsbsbsg20
Nsg21
S'-'
sg23
S'+'
sg25
(i__main__
Node
p30
(dp31
g12
S'-'
sg13
I2
sg14
(i__main__
Node
p32
(dp33
g12
g19
sg13
I3
sg14
Nsg20
g30
sg21
g22
sg23
g24
sg25
Nsbsg20
g10
sg21
S'+'
sg23
S'/'
sg25
(i__main__
Node
p34
(dp35
g12
g28
sg13
I3
sg14
Nsg20
g30
sg21
g29
sg23
g22
sg25
NsbsbsbsS'accel_x'
p36
F-1.4142135623730951
sS'accel_y'
p37
F-1.4142135623730951
sS'visionAngle'
p38
I150
sS'maxAccel'
p39
I2
sS'maxVel'
p40
F0.5
sS'age'
p41
I100
sS'tailSize'
p42
F0
sS'sexualgeno'
p43
NsS'tailBrigh'
p44
F20
sS'maxSteering'
p45
I30
sS'energy'
p46
F0.77373097929520107
sS'lastScale'
p47
F13.23730979295201
sb.(i__main__
Data_mobile
p1
(dp2
S'vel_y'
p3
F-0.35237027081508643
sS'vel_x'
p4
F-0.35237023023444364
sS'pos_x'
p5
F-103.60853278082519
sS'pos_y'
p6
F-59.269022797041323
sS'isAlive'
p7
I01
sS'cumulativeEnergy'
p8
F44.381756870821853
sS'geno'
p9
(i__main__
Node
p10
(dp11
S'vector'
p12
S'+'
sS'depth'
p13
I1
sS'right'
p14
(i__main__
Node
p15
(dp16
g12
S'-'
sg13
I2
sg14
(i__main__
Node
p17
(dp18
g12
S'indiv.currentEnergy()'
p19
sg13
I3
sg14
NsS'parent'
p20
g15
sS'float_size'
p21
S'indiv.getNumPreysNeigh()'
p22
sS'float_bright'
p23
S'indiv.distanceMatingSeason()'
p24
sS'left'
p25
Nsbsg20
g10
sg21
S'+'
sg23
S'/'
sg25
(i__main__
Node
p26
(dp27
g12
S'indiv.target()'
p28
sg13
I3
sg14
Nsg20
g15
sg21
S'indiv.getTailBrightness()'
p29
sg23
g22
sg25
Nsbsbsg20
Nsg21
S'-'
sg23
S'+'
sg25
(i__main__
Node
p30
(dp31
g12
S'-'
sg13
I2
sg14
(i__main__
Node
p32
(dp33
g12
g19
sg13
I3
sg14
Nsg20
g30
sg21
g22
sg23
g24
sg25
Nsbsg20
g10
sg21
S'+'
sg23
S'/'
sg25
(i__main__
Node
p34
(dp35
g12
g28
sg13
I3
sg14
Nsg20
g30
sg21
g29
sg23
g22
sg25
NsbsbsbsS'accel_x'
p36
F-1.4142135623730949
sS'accel_y'
p37
F-1.4142135623730949
sS'visionAngle'
p38
I150
sS'maxAccel'
p39
I2
sS'maxVel'
p40
F0.5
sS'age'
p41
I100
sS'tailSize'
p42
F0
sS'sexualgeno'
p43
NsS'tailBrigh'
p44
F18
sS'maxSteering'
p45
I30
sS'energy'
p46
F0.78122512910820674
sS'lastScale'
p47
F13.312251291082069
sb.(i__main__
Data_mobile
p1
(dp2
S'vel_y'
p3
F-0.35099560598542412
sS'vel_x'
p4
F-0.35373955318665895
sS'pos_x'
p5
F-43.875932486189534
sS'pos_y'
p6
F24.810923722210731
sS'isAlive'
p7
I01
sS'cumulativeEnergy'
p8
F43.432023493139518
sS'geno'
p9
(i__main__
Node
p10
(dp11
S'vector'
p12
S'+'
sS'depth'
p13
I1
sS'right'
p14
(i__main__
Node
p15
(dp16
g12
S'-'
sg13
I2
sg14
(i__main__
Node
p17
(dp18
g12
S'indiv.currentEnergy()'
p19
sg13
I3
sg14
NsS'parent'
p20
g15
sS'float_size'
p21
S'indiv.getNumPreysNeigh()'
p22
sS'float_bright'
p23
S'indiv.distanceMatingSeason()'
p24
sS'left'
p25
Nsbsg20
g10
sg21
S'+'
sg23
S'/'
sg25
(i__main__
Node
p26
(dp27
g12
S'indiv.target()'
p28
sg13
I3
sg14
Nsg20
g15
sg21
S'indiv.getTailBrightness()'
p29
sg23
g22
sg25
Nsbsbsg20
Nsg21
S'-'
sg23
S'+'
sg25
(i__main__
Node
p30
(dp31
g12
S'-'
sg13
I2
sg14
(i__main__
Node
p32
(dp33
g12
g19
sg13
I3
sg14
Nsg20
g30
sg21
g22
sg23
g24
sg25
Nsbsg20
g10
sg21
S'+'
sg23
S'/'
sg25
(i__main__
Node
p34
(dp35
g12
g28
sg13
I3
sg14
Nsg20
g30
sg21
g29
sg23
g22
sg25
NsbsbsbsS'accel_x'
p36
F-1.4142135623730949
sS'accel_y'
p37
F-1.4142135623730949
sS'visionAngle'
p38
I150
sS'maxAccel'
p39
I2
sS'maxVel'
p40
F0.5
sS'age'
p41
I50
sS'tailSize'
p42
F0
sS'sexualgeno'
p43
NsS'tailBrigh'
p44
F10
sS'maxSteering'
p45
I30
sS'energy'
p46
F0.94984371972593395
sS'lastScale'
p47
F14.998437197259339
sb.(i__main__
Data_mobile
p1
(dp2
S'vel_y'
p3
F-0.35083334401537869
sS'vel_x'
p4
F-0.35390048267381485
sS'pos_x'
p5
F-43.910026162786842
sS'pos_y'
p6
F24.868449279977852
sS'isAlive'
p7
I01
sS'cumulativeEnergy'
p8
F43.431866788778215
sS'geno'
p9
(i__main__
Node
p10
(dp11
S'vector'
p12
S'+'
sS'depth'
p13
I1
sS'right'
p14
(i__main__
Node
p15
(dp16
g12
S'-'
sg13
I2
sg14
(i__main__
Node
p17
(dp18
g12
S'indiv.currentEnergy()'
p19
sg13
I3
sg14
NsS'parent'
p20
g15
sS'float_size'
p21
S'indiv.getNumPreysNeigh()'
p22
sS'float_bright'
p23
S'indiv.distanceMatingSeason()'
p24
sS'left'
p25
Nsbsg20
g10
sg21
S'+'
sg23
S'/'
sg25
(i__main__
Node
p26
(dp27
g12
S'indiv.target()'
p28
sg13
I3
sg14
Nsg20
g15
sg21
S'indiv.getTailBrightness()'
p29
sg23
g22
sg25
Nsbsbsg20
Nsg21
S'-'
sg23
S'+'
sg25
(i__main__
Node
p30
(dp31
g12
S'-'
sg13
I2
sg14
(i__main__
Node
p32
(dp33
g12
g19
sg13
I3
sg14
Nsg20
g30
sg21
g22
sg23
g24
sg25
Nsbsg20
g10
sg21
S'+'
sg23
S'/'
sg25
(i__main__
Node
p34
(dp35
g12
g28
sg13
I3
sg14
Nsg20
g30
sg21
g29
sg23
g22
sg25
NsbsbsbsS'accel_x'
p36
F-1.4142135623730949
sS'accel_y'
p37
F-1.4142135623730949
sS'visionAngle'
p38
I150
sS'maxAccel'
p39
I2
sS'maxVel'
p40
F0.5
sS'age'
p41
I50
sS'tailSize'
p42
F0
sS'sexualgeno'
p43
NsS'tailBrigh'
p44
F8
sS'maxSteering'
p45
I30
sS'energy'
p46
F0.95276356948459673
sS'lastScale'
p47
F15.027635694845969
sb.(i__main__
Data_mobile
p1
(dp2
S'vel_y'
p3
F-0.35236996159158079
sS'vel_x'
p4
F-0.35237053945771363
sS'pos_x'
p5
F-105.10543922081729
sS'pos_y'
p6
F-55.100033068402851
sS'isAlive'
p7
I01
sS'cumulativeEnergy'
p8
F41.883774299589199
sS'geno'
p9
(i__main__
Node
p10
(dp11
S'vector'
p12
S'+'
sS'depth'
p13
I1
sS'right'
p14
(i__main__
Node
p15
(dp16
g12
S'-'
sg13
I2
sg14
(i__main__
Node
p17
(dp18
g12
S'indiv.currentEnergy()'
p19
sg13
I3
sg14
NsS'parent'
p20
g15
sS'float_size'
p21
S'indiv.getNumPreysNeigh()'
p22
sS'float_bright'
p23
S'indiv.distanceMatingSeason()'
p24
sS'left'
p25
Nsbsg20
g10
sg21
S'+'
sg23
S'/'
sg25
(i__main__
Node
p26
(dp27
g12
S'indiv.target()'
p28
sg13
I3
sg14
Nsg20
g15
sg21
S'indiv.getTailBrightness()'
p29
sg23
g22
sg25
Nsbsbsg20
Nsg21
S'-'
sg23
S'+'
sg25
(i__main__
Node
p30
(dp31
g12
S'-'
sg13
I2
sg14
(i__main__
Node
p32
(dp33
g12
g19
sg13
I3
sg14
Nsg20
g30
sg21
g22
sg23
g24
sg25
Nsbsg20
g10
sg21
S'+'
sg23
S'/'
sg25
(i__main__
Node
p34
(dp35
g12
g28
sg13
I3
sg14
Nsg20
g30
sg21
g29
sg23
g22
sg25
NsbsbsbsS'accel_x'
p36
F-1.3741476897869569
sS'accel_y'
p37
F-1.3741476897869569
sS'visionAngle'
p38
I150
sS'maxAccel'
p39
I2
sS'maxVel'
p40
F0.5
sS'age'
p41
I150
sS'tailSize'
p42
F0
sS'sexualgeno'
p43
NsS'tailBrigh'
p44
F22
sS'maxSteering'
p45
I30
sS'energy'
p46
F0.68707384489347845
sS'lastScale'
p47
F12.370738448934786
sb.(i__main__
Data_mobile
p1
(dp2
S'vel_y'
p3
F-0.35237026932955862
sS'vel_x'
p4
F-0.35237023171997162
sS'pos_x'
p5
F-103.6855639968778
sS'pos_y'
p6
F-59.317152840959331
sS'isAlive'
p7
I01
sS'cumulativeEnergy'
p8
F41.745584502650914
sS'geno'
p9
(i__main__
Node
p10
(dp11
S'vector'
p12
S'+'
sS'depth'
p13
I1
sS'right'
p14
(i__main__
Node
p15
(dp16
g12
S'-'
sg13
I2
sg14
(i__main__
Node
p17
(dp18
g12
S'indiv.currentEnergy()'
p19
sg13
I3
sg14
NsS'parent'
p20
g15
sS'float_size'
p21
S'indiv.getNumPreysNeigh()'
p22
sS'float_bright'
p23
S'indiv.distanceMatingSeason()'
p24
sS'left'
p25
Nsbsg20
g10
sg21
S'+'
sg23
S'/'
sg25
(i__main__
Node
p26
(dp27
g12
S'indiv.target()'
p28
sg13
I3
sg14
Nsg20
g15
sg21
S'indiv.getTailBrightness()'
p29
sg23
g22
sg25
Nsbsbsg20
Nsg21
S'-'
sg23
S'+'
sg25
(i__main__
Node
p30
(dp31
g12
S'-'
sg13
I2
sg14
(i__main__
Node
p32
(dp33
g12
g19
sg13
I3
sg14
Nsg20
g30
sg21
g22
sg23
g24
sg25
Nsbsg20
g10
sg21
S'+'
sg23
S'/'
sg25
(i__main__
Node
p34
(dp35
g12
g28
sg13
I3
sg14
Nsg20
g30
sg21
g29
sg23
g22
sg25
NsbsbsbsS'accel_x'
p36
F-1.3896747077137015
sS'accel_y'
p37
F-1.3896747077137015
sS'visionAngle'
p38
I150
sS'maxAccel'
p39
I2
sS'maxVel'
p40
F0.5
sS'age'
p41
I150
sS'tailSize'
p42
F0
sS'sexualgeno'
p43
NsS'tailBrigh'
p44
F18
sS'maxSteering'
p45
I30
sS'energy'
p46
F0.69483735385685075
sS'lastScale'
p47
F12.448373538568507
sb.(i__main__
Data_mobile
p1
(dp2
S'vel_y'
p3
F-0.42430693691176569
sS'vel_x'
p4
F-0.26132969635754594
sS'pos_x'
p5
F89.38150817138002
sS'pos_y'
p6
F32.767166111796371
sS'isAlive'
p7
I01
sS'cumulativeEnergy'
p8
F40.569867645372859
sS'geno'
p9
(i__main__
Node
p10
(dp11
S'vector'
p12
S'+'
sS'depth'
p13
I1
sS'right'
p14
(i__main__
Node
p15
(dp16
g12
S'-'
sg13
I2
sg14
(i__main__
Node
p17
(dp18
g12
S'indiv.currentEnergy()'
p19
sg13
I3
sg14
NsS'parent'
p20
g15
sS'float_size'
p21
S'indiv.getNumPreysNeigh()'
p22
sS'float_bright'
p23
S'indiv.distanceMatingSeason()'
p24
sS'left'
p25
Nsbsg20
g10
sg21
S'+'
sg23
S'/'
sg25
(i__main__
Node
p26
(dp27
g12
S'indiv.target()'
p28
sg13
I3
sg14
Nsg20
g15
sg21
S'indiv.getTailBrightness()'
p29
sg23
g22
sg25
Nsbsbsg20
Nsg21
S'-'
sg23
S'+'
sg25
(i__main__
Node
p30
(dp31
g12
S'-'
sg13
I2
sg14
(i__main__
Node
p32
(dp33
g12
g19
sg13
I3
sg14
Nsg20
g30
sg21
g22
sg23
g24
sg25
Nsbsg20
g10
sg21
S'+'
sg23
S'/'
sg25
(i__main__
Node
p34
(dp35
g12
g28
sg13
I3
sg14
Nsg20
g30
sg21
g29
sg23
g22
sg25
NsbsbsbsS'accel_x'
p36
F0.035253265237156439
sS'accel_y'
p37
F1.0099618434036699
sS'visionAngle'
p38
I150
sS'maxAccel'
p39
I2
sS'maxVel'
p40
F0.5
sS'age'
p41
I50
sS'tailSize'
p42
F0
sS'sexualgeno'
p43
NsS'tailBrigh'
p44
F14
sS'maxSteering'
p45
I30
sS'energy'
p46
F0.94362419217168503
sS'lastScale'
p47
F15.310513929497887
sb.(i__main__
Data_mobile
p1
(dp2
S'vel_y'
p3
F-0.35237025282230655
sS'vel_x'
p4
F-0.35237024822722474
sS'pos_x'
p5
F-33.305572651515796
sS'pos_y'
p6
F-25.460242032458574
sS'isAlive'
p7
I01
sS'cumulativeEnergy'
p8
F40.532927464949303
sS'geno'
p9
(i__main__
Node
p10
(dp11
S'vector'
p12
S'+'
sS'depth'
p13
I1
sS'right'
p14
(i__main__
Node
p15
(dp16
g12
S'-'
sg13
I2
sg14
(i__main__
Node
p17
(dp18
g12
S'indiv.currentEnergy()'
p19
sg13
I3
sg14
NsS'parent'
p20
g15
sS'float_size'
p21
S'indiv.getNumPreysNeigh()'
p22
sS'float_bright'
p23
S'indiv.distanceMatingSeason()'
p24
sS'left'
p25
Nsbsg20
g10
sg21
S'+'
sg23
S'/'
sg25
(i__main__
Node
p26
(dp27
g12
S'indiv.target()'
p28
sg13
I3
sg14
Nsg20
g15
sg21
S'indiv.getTailBrightness()'
p29
sg23
g22
sg25
Nsbsbsg20
Nsg21
S'-'
sg23
S'+'
sg25
(i__main__
Node
p30
(dp31
g12
S'-'
sg13
I2
sg14
(i__main__
Node
p32
(dp33
g12
g19
sg13
I3
sg14
Nsg20
g30
sg21
g22
sg23
g24
sg25
Nsbsg20
g10
sg21
S'+'
sg23
S'/'
sg25
(i__main__
Node
p34
(dp35
g12
g28
sg13
I3
sg14
Nsg20
g30
sg21
g29
sg23
g22
sg25
NsbsbsbsS'accel_x'
p36
F-1.4142135623730949
sS'accel_y'
p37
F-1.4142135623730949
sS'visionAngle'
p38
I150
sS'maxAccel'
p39
I2
sS'maxVel'
p40
F0.5
sS'age'
p41
I100
sS'tailSize'
p42
F0
sS'sexualgeno'
p43
NsS'tailBrigh'
p44
F6
sS'maxSteering'
p45
I30
sS'energy'
p46
F0.83214837104674677
sS'lastScale'
p47
F13.821483710467469
sb.(i__main__
Data_mobile
p1
(dp2
S'vel_y'
p3
F-0.35236686183315336
sS'vel_x'
p4
F-0.35237363918378967
sS'pos_x'
p5
F-148.08760499912131
sS'pos_y'
p6
F39.616731365332363
sS'isAlive'
p7
I01
sS'cumulativeEnergy'
p8
F40.452966774409049
sS'geno'
p9
(i__main__
Node
p10
(dp11
S'vector'
p12
S'+'
sS'depth'
p13
I1
sS'right'
p14
(i__main__
Node
p15
(dp16
g12
S'-'
sg13
I2
sg14
(i__main__
Node
p17
(dp18
g12
S'indiv.currentEnergy()'
p19
sg13
I3
sg14
NsS'parent'
p20
g15
sS'float_size'
p21
S'indiv.getNumPreysNeigh()'
p22
sS'float_bright'
p23
S'indiv.distanceMatingSeason()'
p24
sS'left'
p25
Nsbsg20
g10
sg21
S'+'
sg23
S'/'
sg25
(i__main__
Node
p26
(dp27
g12
S'indiv.target()'
p28
sg13
I3
sg14
Nsg20
g15
sg21
S'indiv.getTailBrightness()'
p29
sg23
g22
sg25
Nsbsbsg20
Nsg21
S'-'
sg23
S'+'
sg25
(i__main__
Node
p30
(dp31
g12
S'-'
sg13
I2
sg14
(i__main__
Node
p32
(dp33
g12
g19
sg13
I3
sg14
Nsg20
g30
sg21
g22
sg23
g24
sg25
Nsbsg20
g10
sg21
S'+'
sg23
S'/'
sg25
(i__main__
Node
p34
(dp35
g12
g28
sg13
I3
sg14
Nsg20
g30
sg21
g29
sg23
g22
sg25
NsbsbsbsS'accel_x'
p36
F-1.4142135623730951
sS'accel_y'
p37
F-1.4142135623730951
sS'visionAngle'
p38
I150
sS'maxAccel'
p39
I2
sS'maxVel'
p40
F0.5
sS'age'
p41
I200
sS'tailSize'
p42
F0
sS'sexualgeno'
p43
NsS'tailBrigh'
p44
F10
sS'maxSteering'
p45
I30
sS'energy'
p46
F0.8500544777636142
sS'lastScale'
p47
F14.00054477763614
sb.(i__main__
Data_mobile
p1
(dp2
S'vel_y'
p3
F0.14661895948349546
sS'vel_x'
p4
F-0.47626932257888416
sS'pos_x'
p5
F176.06780666062699
sS'pos_y'
p6
F-97.892389486480027
sS'isAlive'
p7
I01
sS'cumulativeEnergy'
p8
F40.223869718080813
sS'geno'
p9
(i__main__
Node
p10
(dp11
S'vector'
p12
S'+'
sS'depth'
p13
I1
sS'right'
p14
(i__main__
Node
p15
(dp16
g12
S'-'
sg13
I2
sg14
(i__main__
Node
p17
(dp18
g12
S'indiv.currentEnergy()'
p19
sg13
I3
sg14
NsS'parent'
p20
g15
sS'float_size'
p21
S'indiv.getNumPreysNeigh()'
p22
sS'float_bright'
p23
S'indiv.distanceMatingSeason()'
p24
sS'left'
p25
Nsbsg20
g10
sg21
S'+'
sg23
S'/'
sg25
(i__main__
Node
p26
(dp27
g12
S'indiv.target()'
p28
sg13
I3
sg14
Nsg20
g15
sg21
S'indiv.getTailBrightness()'
p29
sg23
g22
sg25
Nsbsbsg20
Nsg21
S'-'
sg23
S'+'
sg25
(i__main__
Node
p30
(dp31
g12
S'-'
sg13
I2
sg14
(i__main__
Node
p32
(dp33
g12
g19
sg13
I3
sg14
Nsg20
g30
sg21
g22
sg23
g24
sg25
Nsbsg20
g10
sg21
S'+'
sg23
S'/'
sg25
(i__main__
Node
p34
(dp35
g12
g28
sg13
I3
sg14
Nsg20
g30
sg21
g29
sg23
g22
sg25
NsbsbsbsS'accel_x'
p36
F-1.9091988604568855
sS'accel_y'
p37
F0.59578495384671382
sS'visionAngle'
p38
I150
sS'maxAccel'
p39
I2
sS'maxVel'
p40
F0.5
sS'age'
p41
I100
sS'tailSize'
p42
F0
sS'sexualgeno'
p43
NsS'tailBrigh'
p44
F2
sS'maxSteering'
p45
I30
sS'energy'
p46
F0.5187372541527161
sS'lastScale'
p47
F10.687372541527161
sb.(i__main__
Data_mobile
p1
(dp2
S'vel_y'
p3
F-0.4689793878874095
sS'vel_x'
p4
F0.16848715276401008
sS'pos_x'
p5
F89.313998001046329
sS'pos_y'
p6
F32.784909218153302
sS'isAlive'
p7
I01
sS'cumulativeEnergy'
p8
F40.122855467919074
sS'geno'
p9
(i__main__
Node
p10
(dp11
S'vector'
p12
S'+'
sS'depth'
p13
I1
sS'right'
p14
(i__main__
Node
p15
(dp16
g12
S'-'
sg13
I2
sg14
(i__main__
Node
p17
(dp18
g12
S'indiv.currentEnergy()'
p19
sg13
I3
sg14
NsS'parent'
p20
g15
sS'float_size'
p21
S'indiv.getNumPreysNeigh()'
p22
sS'float_bright'
p23
S'indiv.distanceMatingSeason()'
p24
sS'left'
p25
Nsbsg20
g10
sg21
S'+'
sg23
S'/'
sg25
(i__main__
Node
p26
(dp27
g12
S'indiv.target()'
p28
sg13
I3
sg14
Nsg20
g15
sg21
S'indiv.getTailBrightness()'
p29
sg23
g22
sg25
Nsbsbsg20
Nsg21
S'-'
sg23
S'+'
sg25
(i__main__
Node
p30
(dp31
g12
S'-'
sg13
I2
sg14
(i__main__
Node
p32
(dp33
g12
g19
sg13
I3
sg14
Nsg20
g30
sg21
g22
sg23
g24
sg25
Nsbsg20
g10
sg21
S'+'
sg23
S'/'
sg25
(i__main__
Node
p34
(dp35
g12
g28
sg13
I3
sg14
Nsg20
g30
sg21
g29
sg23
g22
sg25
NsbsbsbsS'accel_x'
p36
F0.18966089448177792
sS'accel_y'
p37
F0.99386291926704695
sS'visionAngle'
p38
I150
sS'maxAccel'
p39
I2
sS'maxVel'
p40
F0.5
sS'age'
p41
I150
sS'tailSize'
p42
F0
sS'sexualgeno'
p43
NsS'tailBrigh'
p44
F14
sS'maxSteering'
p45
I30
sS'energy'
p46
F1
sS'lastScale'
p47
F15.5
sb.(i__main__
Data_mobile
p1
(dp2
S'vel_y'
p3
F-0.4679545898406352
sS'vel_x'
p4
F0.17131283885586357
sS'pos_x'
p5
F89.316970030119293
sS'pos_y'
p6
F32.784375118488406
sS'isAlive'
p7
I01
sS'cumulativeEnergy'
p8
F40.122405900191303
sS'geno'
p9
(i__main__
Node
p10
(dp11
S'vector'
p12
S'+'
sS'depth'
p13
I1
sS'right'
p14
(i__main__
Node
p15
(dp16
g12
S'-'
sg13
I2
sg14
(i__main__
Node
p17
(dp18
g12
S'indiv.currentEnergy()'
p19
sg13
I3
sg14
NsS'parent'
p20
g15
sS'float_size'
p21
S'indiv.getNumPreysNeigh()'
p22
sS'float_bright'
p23
S'indiv.distanceMatingSeason()'
p24
sS'left'
p25
Nsbsg20
g10
sg21
S'+'
sg23
S'/'
sg25
(i__main__
Node
p26
(dp27
g12
S'indiv.target()'
p28
sg13
I3
sg14
Nsg20
g15
sg21
S'indiv.getTailBrightness()'
p29
sg23
g22
sg25
Nsbsbsg20
Nsg21
S'-'
sg23
S'+'
sg25
(i__main__
Node
p30
(dp31
g12
S'-'
sg13
I2
sg14
(i__main__
Node
p32
(dp33
g12
g19
sg13
I3
sg14
Nsg20
g30
sg21
g22
sg23
g24
sg25
Nsbsg20
g10
sg21
S'+'
sg23
S'/'
sg25
(i__main__
Node
p34
(dp35
g12
g28
sg13
I3
sg14
Nsg20
g30
sg21
g29
sg23
g22
sg25
NsbsbsbsS'accel_x'
p36
F0.18371683633584945
sS'accel_y'
p37
F0.99493111859684058
sS'visionAngle'
p38
I150
sS'maxAccel'
p39
I2
sS'maxVel'
p40
F0.5
sS'age'
p41
I150
sS'tailSize'
p42
F0
sS'sexualgeno'
p43
NsS'tailBrigh'
p44
F14
sS'maxSteering'
p45
I30
sS'energy'
p46
F1
sS'lastScale'
p47
F15.5
sb.(i__main__
Data_mobile
p1
(dp2
S'vel_y'
p3
F-0.30802651884990645
sS'vel_x'
p4
F-0.39172598917480622
sS'pos_x'
p5
F89.209609049084037
sS'pos_y'
p6
F32.802392548531628
sS'isAlive'
p7
I01
sS'cumulativeEnergy'
p8
F39.838126311786368
sS'geno'
p9
(i__main__
Node
p10
(dp11
S'vector'
p12
S'+'
sS'depth'
p13
I1
sS'right'
p14
(i__main__
Node
p15
(dp16
g12
S'-'
sg13
I2
sg14
(i__main__
Node
p17
(dp18
g12
S'indiv.currentEnergy()'
p19
sg13
I3
sg14
NsS'parent'
p20
g15
sS'float_size'
p21
S'indiv.getNumPreysNeigh()'
p22
sS'float_bright'
p23
S'indiv.distanceMatingSeason()'
p24
sS'left'
p25
Nsbsg20
g10
sg21
S'+'
sg23
S'/'
sg25
(i__main__
Node
p26
(dp27
g12
S'indiv.target()'
p28
sg13
I3
sg14
Nsg20
g15
sg21
S'indiv.getTailBrightness()'
p29
sg23
g22
sg25
Nsbsbsg20
Nsg21
S'-'
sg23
S'+'
sg25
(i__main__
Node
p30
(dp31
g12
S'-'
sg13
I2
sg14
(i__main__
Node
p32
(dp33
g12
g19
sg13
I3
sg14
Nsg20
g30
sg21
g22
sg23
g24
sg25
Nsbsg20
g10
sg21
S'+'
sg23
S'/'
sg25
(i__main__
Node
p34
(dp35
g12
g28
sg13
I3
sg14
Nsg20
g30
sg21
g29
sg23
g22
sg25
NsbsbsbsS'accel_x'
p36
F0.37905150982912228
sS'accel_y'
p37
F0.93950896993315491
sS'visionAngle'
p38
I150
sS'maxAccel'
p39
I2
sS'maxVel'
p40
F0.5
sS'age'
p41
I50
sS'tailSize'
p42
F0
sS'sexualgeno'
p43
NsS'tailBrigh'
p44
F14
sS'maxSteering'
p45
I30
sS'energy'
p46
F0.93105139294978867
sS'lastScale'
p47
F15.310513929497887
sb.(i__main__
Data_mobile
p1
(dp2
S'vel_y'
p3
F-0.17677679504231303
sS'vel_x'
p4
F-0.17677659555094205
sS'pos_x'
p5
F-99.324122287353475
sS'pos_y'
p6
F-54.522482893703639
sS'isAlive'
p7
I01
sS'cumulativeEnergy'
p8
F39.729199781748527
sS'geno'
p9
(i__main__
Node
p10
(dp11
S'vector'
p12
S'+'
sS'depth'
p13
I1
sS'right'
p14
(i__main__
Node
p15
(dp16
g12
S'-'
sg13
I2
sg14
(i__main__
Node
p17
(dp18
g12
S'indiv.currentEnergy()'
p19
sg13
I3
sg14
NsS'parent'
p20
g15
sS'float_size'
p21
S'indiv.getNumPreysNeigh()'
p22
sS'float_bright'
p23
S'indiv.distanceMatingSeason()'
p24
sS'left'
p25
Nsbsg20
g10
sg21
S'+'
sg23
S'/'
sg25
(i__main__
Node
p26
(dp27
g12
S'indiv.target()'
p28
sg13
I3
sg14
Nsg20
g15
sg21
S'indiv.getTailBrightness()'
p29
sg23
g22
sg25
Nsbsbsg20
Nsg21
S'-'
sg23
S'+'
sg25
(i__main__
Node
p30
(dp31
g14
(i__main__
Node
p32
(dp33
g14
Nsg20
g30
sg13
I3
sg12
g28
sg21
S'indiv.getTailSize()'
p34
sg23
S'indiv.getEnergy()'
p35
sg25
Nsbsg20
g10
sg13
I2
sg12
S'-'
sg21
S'-'
sg23
S'*'
sg25
(i__main__
Node
p36
(dp37
g14
Nsg20
g30
sg13
I3
sg12
g28
sg21
S'indiv.randF()'
p38
sg23
g24
sg25
NsbsbsbsS'accel_x'
p39
F-0.68165352499089849
sS'accel_y'
p40
F-0.68165352499089849
sS'visionAngle'
p41
I150
sS'maxAccel'
p42
I2
sS'maxVel'
p43
F0.5
sS'age'
p44
I100
sS'tailSize'
p45
F-50.661745573745563
sS'sexualgeno'
p46
NsS'tailBrigh'
p47
F12.681653524990898
sS'maxSteering'
p48
I30
sS'energy'
p49
F0.68165352499089849
sS'lastScale'
p50
F12.316535249908986
sb.(i__main__
Data_mobile
p1
(dp2
S'vel_y'
p3
F0.49102356576144796
sS'vel_x'
p4
F-0.085002616293177513
sS'pos_x'
p5
F35.468203662230323
sS'pos_y'
p6
F-32.718444728640634
sS'isAlive'
p7
I01
sS'cumulativeEnergy'
p8
F38.611868976993868
sS'geno'
p9
(i__main__
Node
p10
(dp11
S'vector'
p12
S'+'
sS'depth'
p13
I1
sS'right'
p14
(i__main__
Node
p15
(dp16
g12
S'-'
sg13
I2
sg14
(i__main__
Node
p17
(dp18
g12
S'indiv.currentEnergy()'
p19
sg13
I3
sg14
NsS'parent'
p20
g15
sS'float_size'
p21
S'indiv.getNumPreysNeigh()'
p22
sS'float_bright'
p23
S'indiv.distanceMatingSeason()'
p24
sS'left'
p25
Nsbsg20
g10
sg21
S'+'
sg23
S'/'
sg25
(i__main__
Node
p26
(dp27
g12
S'indiv.target()'
p28
sg13
I3
sg14
Nsg20
g15
sg21
S'indiv.getTailBrightness()'
p29
sg23
g22
sg25
Nsbsbsg20
Nsg21
S'-'
sg23
S'+'
sg25
(i__main__
Node
p30
(dp31
g12
S'-'
sg13
I2
sg14
(i__main__
Node
p32
(dp33
g12
g19
sg13
I3
sg14
Nsg20
g30
sg21
g22
sg23
g24
sg25
Nsbsg20
g10
sg21
S'+'
sg23
S'/'
sg25
(i__main__
Node
p34
(dp35
g12
g28
sg13
I3
sg14
Nsg20
g30
sg21
g29
sg23
g22
sg25
NsbsbsbsS'accel_x'
p36
F-0.34717373465098977
sS'accel_y'
p37
F-0.93820282349670525
sS'visionAngle'
p38
I150
sS'maxAccel'
p39
I2
sS'maxVel'
p40
F0.5
sS'age'
p41
I50
sS'tailSize'
p42
F0
sS'sexualgeno'
p43
NsS'tailBrigh'
p44
F4
sS'maxSteering'
p45
I30
sS'energy'
p46
F1
sS'lastScale'
p47
F15.5
sb.(i__main__
Data_mobile
p1
(dp2
S'vel_y'
p3
F-0.49374829470875525
sS'vel_x'
p4
F0.067395907753871429
sS'pos_x'
p5
F-40.585170352973087
sS'pos_y'
p6
F25.269372826487665
sS'isAlive'
p7
I01
sS'cumulativeEnergy'
p8
F38.374751805713871
sS'geno'
p9
(i__main__
Node
p10
(dp11
S'vector'
p12
S'+'
sS'depth'
p13
I1
sS'right'
p14
(i__main__
Node
p15
(dp16
g12
S'-'
sg13
I2
sg14
(i__main__
Node
p17
(dp18
g12
S'indiv.currentEnergy()'
p19
sg13
I3
sg14
NsS'parent'
p20
g15
sS'float_size'
p21
S'indiv.getNumPreysNeigh()'
p22
sS'float_bright'
p23
S'indiv.distanceMatingSeason()'
p24
sS'left'
p25
Nsbsg20
g10
sg21
S'+'
sg23
S'/'
sg25
(i__main__
Node
p26
(dp27
g12
S'indiv.target()'
p28
sg13
I3
sg14
Nsg20
g15
sg21
S'indiv.getTailBrightness()'
p29
sg23
g22
sg25
Nsbsbsg20
Nsg21
S'-'
sg23
S'+'
sg25
(i__main__
Node
p30
(dp31
g12
S'-'
sg13
I2
sg14
(i__main__
Node
p32
(dp33
g12
g19
sg13
I3
sg14
Nsg20
g30
sg21
g22
sg23
g24
sg25
Nsbsg20
g10
sg21
S'+'
sg23
S'/'
sg25
(i__main__
Node
p34
(dp35
g12
g28
sg13
I3
sg14
Nsg20
g30
sg21
g29
sg23
g22
sg25
NsbsbsbsS'accel_x'
p36
F-1.4142135623730951
sS'accel_y'
p37
F-1.4142135623730951
sS'visionAngle'
p38
I150
sS'maxAccel'
p39
I2
sS'maxVel'
p40
F0.5
sS'age'
p41
I50
sS'tailSize'
p42
F0
sS'sexualgeno'
p43
NsS'tailBrigh'
p44
F16
sS'maxSteering'
p45
I30
sS'energy'
p46
F0.93357979235057309
sS'lastScale'
p47
F14.83579792350573
sb.(i__main__
Data_mobile
p1
(dp2
S'vel_y'
p3
F-0.35984423204989308
sS'vel_x'
p4
F-0.34473426805322804
sS'pos_x'
p5
F-42.451868596242008
sS'pos_y'
p6
F24.394454193697793
sS'isAlive'
p7
I01
sS'cumulativeEnergy'
p8
F38.049252031886134
sS'geno'
p9
(i__main__
Node
p10
(dp11
S'vector'
p12
S'+'
sS'depth'
p13
I1
sS'right'
p14
(i__main__
Node
p15
(dp16
g12
S'-'
sg13
I2
sg14
(i__main__
Node
p17
(dp18
g12
S'indiv.currentEnergy()'
p19
sg13
I3
sg14
NsS'parent'
p20
g15
sS'float_size'
p21
S'indiv.getNumPreysNeigh()'
p22
sS'float_bright'
p23
S'indiv.distanceMatingSeason()'
p24
sS'left'
p25
Nsbsg20
g10
sg21
S'+'
sg23
S'/'
sg25
(i__main__
Node
p26
(dp27
g12
S'indiv.target()'
p28
sg13
I3
sg14
Nsg20
g15
sg21
S'indiv.getTailBrightness()'
p29
sg23
g22
sg25
Nsbsbsg20
Nsg21
S'-'
sg23
S'+'
sg25
(i__main__
Node
p30
(dp31
g12
S'-'
sg13
I2
sg14
(i__main__
Node
p32
(dp33
g12
g19
sg13
I3
sg14
Nsg20
g30
sg21
g22
sg23
g24
sg25
Nsbsg20
g10
sg21
S'+'
sg23
S'/'
sg25
(i__main__
Node
p34
(dp35
g12
g28
sg13
I3
sg14
Nsg20
g30
sg21
g29
sg23
g22
sg25
NsbsbsbsS'accel_x'
p36
F-1.402902420212655
sS'accel_y'
p37
F-1.402902420212655
sS'visionAngle'
p38
I150
sS'maxAccel'
p39
I2
sS'maxVel'
p40
F0.5
sS'age'
p41
I100
sS'tailSize'
p42
F0
sS'sexualgeno'
p43
NsS'tailBrigh'
p44
F8
sS'maxSteering'
p45
I30
sS'energy'
p46
F0.70145121010632749
sS'lastScale'
p47
F12.514512101063275
sb.(i__main__
Data_mobile
p1
(dp2
S'vel_y'
p3
F-0.11767871407670231
sS'vel_x'
p4
F-0.48423269939464642
sS'pos_x'
p5
F-72.60977752396586
sS'pos_y'
p6
F36.092714632270564
sS'isAlive'
p7
I01
sS'cumulativeEnergy'
p8
F37.688602112877497
sS'geno'
p9
(i__main__
Node
p10
(dp11
S'vector'
p12
S'+'
sS'depth'
p13
I1
sS'right'
p14
(i__main__
Node
p15
(dp16
g12
S'-'
sg13
I2
sg14
(i__main__
Node
p17
(dp18
g12
S'indiv.currentEnergy()'
p19
sg13
I3
sg14
NsS'parent'
p20
g15
sS'float_size'
p21
S'indiv.getNumPreysNeigh()'
p22
sS'float_bright'
p23
S'indiv.distanceMatingSeason()'
p24
sS'left'
p25
Nsbsg20
g10
sg21
S'+'
sg23
S'/'
sg25
(i__main__
Node
p26
(dp27
g12
S'indiv.target()'
p28
sg13
I3
sg14
Nsg20
g15
sg21
S'indiv.getTailBrightness()'
p29
sg23
g22
sg25
Nsbsbsg20
Nsg21
S'-'
sg23
S'+'
sg25
(i__main__
Node
p30
(dp31
g12
S'-'
sg13
I2
sg14
(i__main__
Node
p32
(dp33
g12
g19
sg13
I3
sg14
Nsg20
g30
sg21
g22
sg23
g24
sg25
Nsbsg20
g10
sg21
S'+'
sg23
S'/'
sg25
(i__main__
Node
p34
(dp35
g12
g28
sg13
I3
sg14
Nsg20
g30
sg21
g29
sg23
g22
sg25
NsbsbsbsS'accel_x'
p36
F0.95986279240204642
sS'accel_y'
p37
F-0.2840144030785039
sS'visionAngle'
p38
I150
sS'maxAccel'
p39
I2
sS'maxVel'
p40
F0.5
sS'age'
p41
I50
sS'tailSize'
p42
F0
sS'sexualgeno'
p43
NsS'tailBrigh'
p44
F0
sS'maxSteering'
p45
I30
sS'energy'
p46
F1
sS'lastScale'
p47
F15.5
sb.(i__main__
Data_mobile
p1
(dp2
S'vel_y'
p3
F-0.393446222653416
sS'vel_x'
p4
F0.30582618722001353
sS'pos_x'
p5
F35.361561413469225
sS'pos_y'
p6
F-33.683745706267061
sS'isAlive'
p7
I01
sS'cumulativeEnergy'
p8
F37.672376546944498
sS'geno'
p9
(i__main__
Node
p10
(dp11
S'vector'
p12
S'+'
sS'depth'
p13
I1
sS'right'
p14
(i__main__
Node
p15
(dp16
g12
S'-'
sg13
I2
sg14
(i__main__
Node
p17
(dp18
g12
S'indiv.currentEnergy()'
p19
sg13
I3
sg14
NsS'parent'
p20
g15
sS'float_size'
p21
S'indiv.getNumPreysNeigh()'
p22
sS'float_bright'
p23
S'indiv.distanceMatingSeason()'
p24
sS'left'
p25
Nsbsg20
g10
sg21
S'+'
sg23
S'/'
sg25
(i__main__
Node
p26
(dp27
g12
S'indiv.target()'
p28
sg13
I3
sg14
Nsg20
g15
sg21
S'indiv.getTailBrightness()'
p29
sg23
g22
sg25
Nsbsbsg20
Nsg21
S'-'
sg23
S'+'
sg25
(i__main__
Node
p30
(dp31
g12
S'-'
sg13
I2
sg14
(i__main__
Node
p32
(dp33
g12
g19
sg13
I3
sg14
Nsg20
g30
sg21
g22
sg23
g24
sg25
Nsbsg20
g10
sg21
S'+'
sg23
S'/'
sg25
(i__main__
Node
p34
(dp35
g12
g28
sg13
I3
sg14
Nsg20
g30
sg21
g29
sg23
g22
sg25
NsbsbsbsS'accel_x'
p36
F-0.13388923712879408
sS'accel_y'
p37
F0.99239913175614869
sS'visionAngle'
p38
I150
sS'maxAccel'
p39
I2
sS'maxVel'
p40
F0.5
sS'age'
p41
I50
sS'tailSize'
p42
F0
sS'sexualgeno'
p43
NsS'tailBrigh'
p44
F4
sS'maxSteering'
p45
I30
sS'energy'
p46
F1
sS'lastScale'
p47
F15.5
sb.(i__main__
Data_mobile
p1
(dp2
S'vel_y'
p3
F-0.4659856945013936
sS'vel_x'
p4
F0.17659818637184804
sS'pos_x'
p5
F89.435813611153677
sS'pos_y'
p6
F32.89667956140174
sS'isAlive'
p7
I01
sS'cumulativeEnergy'
p8
F36.466555995151978
sS'geno'
p9
(i__main__
Node
p10
(dp11
S'vector'
p12
S'+'
sS'depth'
p13
I1
sS'right'
p14
(i__main__
Node
p15
(dp16
g12
S'-'
sg13
I2
sg14
(i__main__
Node
p17
(dp18
g12
S'indiv.currentEnergy()'
p19
sg13
I3
sg14
NsS'parent'
p20
g15
sS'float_size'
p21
S'indiv.getNumPreysNeigh()'
p22
sS'float_bright'
p23
S'indiv.distanceMatingSeason()'
p24
sS'left'
p25
Nsbsg20
g10
sg21
S'+'
sg23
S'/'
sg25
(i__main__
Node
p26
(dp27
g12
S'indiv.target()'
p28
sg13
I3
sg14
Nsg20
g15
sg21
S'indiv.getTailBrightness()'
p29
sg23
g22
sg25
Nsbsbsg20
Nsg21
S'-'
sg23
S'+'
sg25
(i__main__
Node
p30
(dp31
g12
S'-'
sg13
I2
sg14
(i__main__
Node
p32
(dp33
g12
g19
sg13
I3
sg14
Nsg20
g30
sg21
g22
sg23
g24
sg25
Nsbsg20
g10
sg21
S'+'
sg23
S'/'
sg25
(i__main__
Node
p34
(dp35
g12
g28
sg13
I3
sg14
Nsg20
g30
sg21
g29
sg23
g22
sg25
NsbsbsbsS'accel_x'
p36
F0.12063566558772476
sS'accel_y'
p37
F0.94492822409081367
sS'visionAngle'
p38
I150
sS'maxAccel'
p39
I2
sS'maxVel'
p40
F0.5
sS'age'
p41
I200
sS'tailSize'
p42
F0
sS'sexualgeno'
p43
NsS'tailBrigh'
p44
F14
sS'maxSteering'
p45
I30
sS'energy'
p46
F0.93405475300084773
sS'lastScale'
p47
F14.840547530008475
sb.(i__main__
Data_mobile
p1
(dp2
S'vel_y'
p3
F-0.34620942943821148
sS'vel_x'
p4
F-0.35842519146656016
sS'pos_x'
p5
F184.30912021593122
sS'pos_y'
p6
F101.8300988988448
sS'isAlive'
p7
I01
sS'cumulativeEnergy'
p8
F36.321805363819863
sS'geno'
p9
(i__main__
Node
p10
(dp11
S'vector'
p12
S'+'
sS'depth'
p13
I1
sS'right'
p14
(i__main__
Node
p15
(dp16
g12
S'-'
sg13
I2
sg14
(i__main__
Node
p17
(dp18
g12
S'indiv.currentEnergy()'
p19
sg13
I3
sg14
NsS'parent'
p20
g15
sS'float_size'
p21
S'indiv.getNumPreysNeigh()'
p22
sS'float_bright'
p23
S'indiv.distanceMatingSeason()'
p24
sS'left'
p25
Nsbsg20
g10
sg21
S'+'
sg23
S'/'
sg25
(i__main__
Node
p26
(dp27
g12
S'indiv.target()'
p28
sg13
I3
sg14
Nsg20
g15
sg21
S'indiv.getTailBrightness()'
p29
sg23
g22
sg25
Nsbsbsg20
Nsg21
S'-'
sg23
S'+'
sg25
(i__main__
Node
p30
(dp31
g12
S'-'
sg13
I2
sg14
(i__main__
Node
p32
(dp33
g12
g19
sg13
I3
sg14
Nsg20
g30
sg21
g22
sg23
g24
sg25
Nsbsg20
g10
sg21
S'+'
sg23
S'/'
sg25
(i__main__
Node
p34
(dp35
g12
g28
sg13
I3
sg14
Nsg20
g30
sg21
g29
sg23
g22
sg25
NsbsbsbsS'accel_x'
p36
F-1.4385523080234628
sS'accel_y'
p37
F-1.389448544236298
sS'visionAngle'
p38
I150
sS'maxAccel'
p39
I2
sS'maxVel'
p40
F0.5
sS'age'
p41
I50
sS'tailSize'
p42
F0
sS'sexualgeno'
p43
NsS'tailBrigh'
p44
F0
sS'maxSteering'
p45
I30
sS'energy'
p46
F0.54378573129912733
sS'lastScale'
p47
F10.937857312991273
sb.(i__main__
Data_mobile
p1
(dp2
S'vel_y'
p3
F0.17566174807157567
sS'vel_x'
p4
F0.46633950848519196
sS'pos_x'
p5
F37.24848046242159
sS'pos_y'
p6
F37.930318323740281
sS'isAlive'
p7
I01
sS'cumulativeEnergy'
p8
F36.115142635439341
sS'geno'
p9
(i__main__
Node
p10
(dp11
S'vector'
p12
S'+'
sS'depth'
p13
I1
sS'right'
p14
(i__main__
Node
p15
(dp16
g12
S'-'
sg13
I2
sg14
(i__main__
Node
p17
(dp18
g12
S'indiv.currentEnergy()'
p19
sg13
I3
sg14
NsS'parent'
p20
g15
sS'float_size'
p21
S'indiv.getNumPreysNeigh()'
p22
sS'float_bright'
p23
S'indiv.distanceMatingSeason()'
p24
sS'left'
p25
Nsbsg20
g10
sg21
S'+'
sg23
S'/'
sg25
(i__main__
Node
p26
(dp27
g12
S'indiv.target()'
p28
sg13
I3
sg14
Nsg20
g15
sg21
S'indiv.getTailBrightness()'
p29
sg23
g22
sg25
Nsbsbsg20
Nsg21
S'-'
sg23
S'+'
sg25
(i__main__
Node
p30
(dp31
g12
S'-'
sg13
I2
sg14
(i__main__
Node
p32
(dp33
g12
g19
sg13
I3
sg14
Nsg20
g30
sg21
g22
sg23
g24
sg25
Nsbsg20
g10
sg21
S'+'
sg23
S'/'
sg25
(i__main__
Node
p34
(dp35
g12
g28
sg13
I3
sg14
Nsg20
g30
sg21
g29
sg23
g22
sg25
NsbsbsbsS'accel_x'
p36
F-0.63274036870456629
sS'accel_y'
p37
F-0.77541175687954111
sS'visionAngle'
p38
I150
sS'maxAccel'
p39
I2
sS'maxVel'
p40
F0.5
sS'age'
p41
I50
sS'tailSize'
p42
F0
sS'sexualgeno'
p43
NsS'tailBrigh'
p44
F2
sS'maxSteering'
p45
I30
sS'energy'
p46
F1
sS'lastScale'
p47
F15.5
sb.(i__main__
Data_mobile
p1
(dp2
S'vel_y'
p3
F0.063371001930982315
sS'vel_x'
p4
F0.4942809960174836
sS'pos_x'
p5
F0.41117224689318793
sS'pos_y'
p6
F-50.920452665279662
sS'isAlive'
p7
I01
sS'cumulativeEnergy'
p8
F35.302054866155359
sS'geno'
p9
(i__main__
Node
p10
(dp11
S'vector'
p12
S'+'
sS'depth'
p13
I1
sS'right'
p14
(i__main__
Node
p15
(dp16
g12
S'-'
sg13
I2
sg14
(i__main__
Node
p17
(dp18
g12
S'indiv.currentEnergy()'
p19
sg13
I3
sg14
NsS'parent'
p20
g15
sS'float_size'
p21
S'indiv.getNumPreysNeigh()'
p22
sS'float_bright'
p23
S'indiv.distanceMatingSeason()'
p24
sS'left'
p25
Nsbsg20
g10
sg21
S'+'
sg23
S'/'
sg25
(i__main__
Node
p26
(dp27
g12
S'indiv.target()'
p28
sg13
I3
sg14
Nsg20
g15
sg21
S'indiv.getTailBrightness()'
p29
sg23
g22
sg25
Nsbsbsg20
Nsg21
S'-'
sg23
S'+'
sg25
(i__main__
Node
p30
(dp31
g12
S'-'
sg13
I2
sg14
(i__main__
Node
p32
(dp33
g12
g19
sg13
I3
sg14
Nsg20
g30
sg21
g22
sg23
g24
sg25
Nsbsg20
g10
sg21
S'+'
sg23
S'/'
sg25
(i__main__
Node
p34
(dp35
g12
g28
sg13
I3
sg14
Nsg20
g30
sg21
g29
sg23
g22
sg25
NsbsbsbsS'accel_x'
p36
F-0.9223909849161418
sS'accel_y'
p37
F0.38863092356741302
sS'visionAngle'
p38
I150
sS'maxAccel'
p39
I2
sS'maxVel'
p40
F0.5
sS'age'
p41
I50
sS'tailSize'
p42
F0
sS'sexualgeno'
p43
NsS'tailBrigh'
p44
F2
sS'maxSteering'
p45
I30
sS'energy'
p46
F1
sS'lastScale'
p47
F15.5
sb.(i__main__
Data_mobile
p1
(dp2
S'vel_y'
p3
F-0.35237025162179497
sS'vel_x'
p4
F-0.35237024942773626
sS'pos_x'
p5
F-32.610016279679947
sS'pos_y'
p6
F-25.151395558102561
sS'isAlive'
p7
I01
sS'cumulativeEnergy'
p8
F35.256266977471327
sS'geno'
p9
(i__main__
Node
p10
(dp11
S'vector'
p12
S'+'
sS'depth'
p13
I1
sS'right'
p14
(i__main__
Node
p15
(dp16
g12
S'-'
sg13
I2
sg14
(i__main__
Node
p17
(dp18
g12
S'indiv.currentEnergy()'
p19
sg13
I3
sg14
NsS'parent'
p20
g15
sS'float_size'
p21
S'indiv.getNumPreysNeigh()'
p22
sS'float_bright'
p23
S'indiv.distanceMatingSeason()'
p24
sS'left'
p25
Nsbsg20
g10
sg21
S'+'
sg23
S'/'
sg25
(i__main__
Node
p26
(dp27
g12
S'indiv.target()'
p28
sg13
I3
sg14
Nsg20
g15
sg21
S'indiv.getTailBrightness()'
p29
sg23
g22
sg25
Nsbsbsg20
Nsg21
S'-'
sg23
S'+'
sg25
(i__main__
Node
p30
(dp31
g12
S'-'
sg13
I2
sg14
(i__main__
Node
p32
(dp33
g12
g19
sg13
I3
sg14
Nsg20
g30
sg21
g22
sg23
g24
sg25
Nsbsg20
g10
sg21
S'+'
sg23
S'/'
sg25
(i__main__
Node
p34
(dp35
g12
g28
sg13
I3
sg14
Nsg20
g30
sg21
g29
sg23
g22
sg25
NsbsbsbsS'accel_x'
p36
F-1.2409148551825162
sS'accel_y'
p37
F-1.2409148551825162
sS'visionAngle'
p38
I150
sS'maxAccel'
p39
I2
sS'maxVel'
p40
F0.5
sS'age'
p41
I100
sS'tailSize'
p42
F0
sS'sexualgeno'
p43
NsS'tailBrigh'
p44
F6
sS'maxSteering'
p45
I30
sS'energy'
p46
F0.6204574275912581
sS'lastScale'
p47
F11.704574275912581
sb.(i__main__
Data_mobile
p1
(dp2
S'vel_y'
p3
F0.20983495673106631
sS'vel_x'
p4
F-0.45199433386210019
sS'pos_x'
p5
F178.40261091718645
sS'pos_y'
p6
F-99.535775764759236
sS'isAlive'
p7
I01
sS'cumulativeEnergy'
p8
F35.195536964699784
sS'geno'
p9
(i__main__
Node
p10
(dp11
S'vector'
p12
S'+'
sS'depth'
p13
I1
sS'right'
p14
(i__main__
Node
p15
(dp16
g12
S'-'
sg13
I2
sg14
(i__main__
Node
p17
(dp18
g12
S'indiv.currentEnergy()'
p19
sg13
I3
sg14
NsS'parent'
p20
g15
sS'float_size'
p21
S'indiv.getNumPreysNeigh()'
p22
sS'float_bright'
p23
S'indiv.distanceMatingSeason()'
p24
sS'left'
p25
Nsbsg20
g10
sg21
S'+'
sg23
S'/'
sg25
(i__main__
Node
p26
(dp27
g12
S'indiv.target()'
p28
sg13
I3
sg14
Nsg20
g15
sg21
S'indiv.getTailBrightness()'
p29
sg23
g22
sg25
Nsbsbsg20
Nsg21
S'-'
sg23
S'+'
sg25
(i__main__
Node
p30
(dp31
g12
S'-'
sg13
I2
sg14
(i__main__
Node
p32
(dp33
g12
g19
sg13
I3
sg14
Nsg20
g30
sg21
g22
sg23
g24
sg25
Nsbsg20
g10
sg21
S'+'
sg23
S'/'
sg25
(i__main__
Node
p34
(dp35
g12
g28
sg13
I3
sg14
Nsg20
g30
sg21
g29
sg23
g22
sg25
NsbsbsbsS'accel_x'
p36
F-1.8107699631185961
sS'accel_y'
p37
F0.84918321972792044
sS'visionAngle'
p38
I150
sS'maxAccel'
p39
I2
sS'maxVel'
p40
F0.5
sS'age'
p41
I150
sS'tailSize'
p42
F0
sS'sexualgeno'
p43
NsS'tailBrigh'
p44
F4
sS'maxSteering'
p45
I30
sS'energy'
p46
F0.25521600755907881
sS'lastScale'
p47
F8.0521600755907876
sb.(i__main__
Data_mobile
p1
(dp2
S'vel_y'
p3
F-0.35423138062206222
sS'vel_x'
p4
F-0.35049923807671796
sS'pos_x'
p5
F186.83712237972395
sS'pos_y'
p6
F104.96614331196631
sS'isAlive'
p7
I01
sS'cumulativeEnergy'
p8
F35.191943120131043
sS'geno'
p9
(i__main__
Node
p10
(dp11
S'vector'
p12
S'+'
sS'depth'
p13
I1
sS'right'
p14
(i__main__
Node
p15
(dp16
g12
S'-'
sg13
I2
sg14
(i__main__
Node
p17
(dp18
g12
S'indiv.currentEnergy()'
p19
sg13
I3
sg14
NsS'parent'
p20
g15
sS'float_size'
p21
S'indiv.getNumPreysNeigh()'
p22
sS'float_bright'
p23
S'indiv.distanceMatingSeason()'
p24
sS'left'
p25
Nsbsg20
g10
sg21
S'+'
sg23
S'/'
sg25
(i__main__
Node
p26
(dp27
g12
S'indiv.target()'
p28
sg13
I3
sg14
Nsg20
g15
sg21
S'indiv.getTailBrightness()'
p29
sg23
g22
sg25
Nsbsbsg20
Nsg21
S'-'
sg23
S'+'
sg25
(i__main__
Node
p30
(dp31
g12
S'-'
sg13
I2
sg14
(i__main__
Node
p32
(dp33
g12
g19
sg13
I3
sg14
Nsg20
g30
sg21
g22
sg23
g24
sg25
Nsbsg20
g10
sg21
S'+'
sg23
S'/'
sg25
(i__main__
Node
p34
(dp35
g12
g28
sg13
I3
sg14
Nsg20
g30
sg21
g29
sg23
g22
sg25
NsbsbsbsS'accel_x'
p36
F-1.4063129783887565
sS'accel_y'
p37
F-1.4220702538255081
sS'visionAngle'
p38
I150
sS'maxAccel'
p39
I2
sS'maxVel'
p40
F0.5
sS'age'
p41
I150
sS'tailSize'
p42
F0
sS'sexualgeno'
p43
NsS'tailBrigh'
p44
F2
sS'maxSteering'
p45
I30
sS'energy'
p46
F0.25535350813453522
sS'lastScale'
p47
F8.0535350813453519
sb.(i__main__
Data_mobile
p1
(dp2
S'vel_y'
p3
F-0.35237025052476567
sS'vel_x'
p4
F-0.35237025052476567
sS'pos_x'
p5
F189.34199858144945
sS'pos_y'
p6
F106.90657185891796
sS'isAlive'
p7
I01
sS'cumulativeEnergy'
p8
F35.184300179649313
sS'geno'
p9
(i__main__
Node
p10
(dp11
S'vector'
p12
S'+'
sS'depth'
p13
I1
sS'right'
p14
(i__main__
Node
p15
(dp16
g12
S'-'
sg13
I2
sg14
(i__main__
Node
p17
(dp18
g12
S'indiv.currentEnergy()'
p19
sg13
I3
sg14
NsS'parent'
p20
g15
sS'float_size'
p21
S'indiv.getNumPreysNeigh()'
p22
sS'float_bright'
p23
S'indiv.distanceMatingSeason()'
p24
sS'left'
p25
Nsbsg20
g10
sg21
S'+'
sg23
S'/'
sg25
(i__main__
Node
p26
(dp27
g12
S'indiv.target()'
p28
sg13
I3
sg14
Nsg20
g15
sg21
S'indiv.getTailBrightness()'
p29
sg23
g22
sg25
Nsbsbsg20
Nsg21
S'-'
sg23
S'+'
sg25
(i__main__
Node
p30
(dp31
g12
S'-'
sg13
I2
sg14
(i__main__
Node
p32
(dp33
g12
g19
sg13
I3
sg14
Nsg20
g30
sg21
g22
sg23
g24
sg25
Nsbsg20
g10
sg21
S'+'
sg23
S'/'
sg25
(i__main__
Node
p34
(dp35
g12
g28
sg13
I3
sg14
Nsg20
g30
sg21
g29
sg23
g22
sg25
NsbsbsbsS'accel_x'
p36
F-1.4301828864934718
sS'accel_y'
p37
F-1.398061840971708
sS'visionAngle'
p38
I150
sS'maxAccel'
p39
I2
sS'maxVel'
p40
F0.5
sS'age'
p41
I150
sS'tailSize'
p42
F0
sS'sexualgeno'
p43
NsS'tailBrigh'
p44
F6
sS'maxSteering'
p45
I30
sS'energy'
p46
F0.25345555100529393
sS'lastScale'
p47
F8.0345555100529396
sb.(i__main__
Data_mobile
p1
(dp2
S'vel_y'
p3
F-0.35237025262583599
sS'vel_x'
p4
F-0.35237024842369524
sS'pos_x'
p5
F-33.104047111429416
sS'pos_y'
p6
F-25.168742047833227
sS'isAlive'
p7
I01
sS'cumulativeEnergy'
p8
F34.907588062536682
sS'geno'
p9
(i__main__
Node
p10
(dp11
S'vector'
p12
S'+'
sS'depth'
p13
I1
sS'right'
p14
(i__main__
Node
p15
(dp16
g12
S'-'
sg13
I2
sg14
(i__main__
Node
p17
(dp18
g12
S'indiv.currentEnergy()'
p19
sg13
I3
sg14
NsS'parent'
p20
g15
sS'float_size'
p21
S'indiv.getNumPreysNeigh()'
p22
sS'float_bright'
p23
S'indiv.distanceMatingSeason()'
p24
sS'left'
p25
Nsbsg20
g10
sg21
S'+'
sg23
S'/'
sg25
(i__main__
Node
p26
(dp27
g12
S'indiv.target()'
p28
sg13
I3
sg14
Nsg20
g15
sg21
S'indiv.getTailBrightness()'
p29
sg23
g22
sg25
Nsbsbsg20
Nsg21
S'-'
sg23
S'+'
sg25
(i__main__
Node
p30
(dp31
g12
S'-'
sg13
I2
sg14
(i__main__
Node
p32
(dp33
g12
g19
sg13
I3
sg14
Nsg20
g30
sg21
g22
sg23
g24
sg25
Nsbsg20
g10
sg21
S'+'
sg23
S'/'
sg25
(i__main__
Node
p34
(dp35
g12
g28
sg13
I3
sg14
Nsg20
g30
sg21
g29
sg23
g22
sg25
NsbsbsbsS'accel_x'
p36
F-1.2729266485829946
sS'accel_y'
p37
F-1.2729266485829946
sS'visionAngle'
p38
I150
sS'maxAccel'
p39
I2
sS'maxVel'
p40
F0.5
sS'age'
p41
I150
sS'tailSize'
p42
F0
sS'sexualgeno'
p43
NsS'tailBrigh'
p44
F6
sS'maxSteering'
p45
I30
sS'energy'
p46
F0.63646332429149732
sS'lastScale'
p47
F11.864633242914973
sb.(i__main__
Data_mobile
p1
(dp2
S'vel_y'
p3
F-0.35237025052476567
sS'vel_x'
p4
F-0.35237025052476567
sS'pos_x'
p5
F189.74078697656327
sS'pos_y'
p6
F107.30654477752481
sS'isAlive'
p7
I01
sS'cumulativeEnergy'
p8
F34.518957437505762
sS'geno'
p9
(i__main__
Node
p10
(dp11
S'vector'
p12
S'+'
sS'depth'
p13
I1
sS'right'
p14
(i__main__
Node
p15
(dp16
g12
S'-'
sg13
I2
sg14
(i__main__
Node
p17
(dp18
g12
S'indiv.currentEnergy()'
p19
sg13
I3
sg14
NsS'parent'
p20
g15
sS'float_size'
p21
S'indiv.getNumPreysNeigh()'
p22
sS'float_bright'
p23
S'indiv.distanceMatingSeason()'
p24
sS'left'
p25
Nsbsg20
g10
sg21
S'+'
sg23
S'/'
sg25
(i__main__
Node
p26
(dp27
g12
S'indiv.target()'
p28
sg13
I3
sg14
Nsg20
g15
sg21
S'indiv.getTailBrightness()'
p29
sg23
g22
sg25
Nsbsbsg20
Nsg21
S'-'
sg23
S'+'
sg25
(i__main__
Node
p30
(dp31
g12
S'-'
sg13
I2
sg14
(i__main__
Node
p32
(dp33
g12
g19
sg13
I3
sg14
Nsg20
g30
sg21
g22
sg23
g24
sg25
Nsbsg20
g10
sg21
S'+'
sg23
S'/'
sg25
(i__main__
Node
p34
(dp35
g12
g28
sg13
I3
sg14
Nsg20
g30
sg21
g29
sg23
g22
sg25
NsbsbsbsS'accel_x'
p36
F-1.4297949493179103
sS'accel_y'
p37
F-1.3984585810473595
sS'visionAngle'
p38
I150
sS'maxAccel'
p39
I2
sS'maxVel'
p40
F0.5
sS'age'
p41
I150
sS'tailSize'
p42
F0
sS'sexualgeno'
p43
NsS'tailBrigh'
p44
F6
sS'maxSteering'
p45
I30
sS'energy'
p46
F0.23644290039106372
sS'lastScale'
p47
F7.8644290039106375
sb.(i__main__
Data_mobile
p1
(dp2
S'vel_y'
p3
F0.1880636190223994
sS'vel_x'
p4
F-0.46147769405462058
sS'pos_x'
p5
F176.84659406813481
sS'pos_y'
p6
F-98.76123652391199
sS'isAlive'
p7
I01
sS'cumulativeEnergy'
p8
F34.363422906909761
sS'geno'
p9
(i__main__
Node
p10
(dp11
S'vector'
p12
S'+'
sS'depth'
p13
I1
sS'right'
p14
(i__main__
Node
p15
(dp16
g12
S'-'
sg13
I2
sg14
(i__main__
Node
p17
(dp18
g12
S'indiv.currentEnergy()'
p19
sg13
I3
sg14
NsS'parent'
p20
g15
sS'float_size'
p21
S'indiv.getNumPreysNeigh()'
p22
sS'float_bright'
p23
S'indiv.distanceMatingSeason()'
p24
sS'left'
p25
Nsbsg20
g10
sg21
S'+'
sg23
S'/'
sg25
(i__main__
Node
p26
(dp27
g12
S'indiv.target()'
p28
sg13
I3
sg14
Nsg20
g15
sg21
S'indiv.getTailBrightness()'
p29
sg23
g22
sg25
Nsbsbsg20
Nsg21
S'-'
sg23
S'+'
sg25
(i__main__
Node
p30
(dp31
g12
S'-'
sg13
I2
sg14
(i__main__
Node
p32
(dp33
g12
g19
sg13
I3
sg14
Nsg20
g30
sg21
g22
sg23
g24
sg25
Nsbsg20
g10
sg21
S'+'
sg23
S'/'
sg25
(i__main__
Node
p34
(dp35
g12
g28
sg13
I3
sg14
Nsg20
g30
sg21
g29
sg23
g22
sg25
NsbsbsbsS'accel_x'
p36
F-1.8502653943987775
sS'accel_y'
p37
F0.75928780465007895
sS'visionAngle'
p38
I150
sS'maxAccel'
p39
I2
sS'maxVel'
p40
F0.5
sS'age'
p41
I50
sS'tailSize'
p42
F0
sS'sexualgeno'
p43
NsS'tailBrigh'
p44
F4
sS'maxSteering'
p45
I30
sS'energy'
p46
F0.49256645206981214
sS'lastScale'
p47
F10.42566452069812
sb.(i__main__
Data_mobile
p1
(dp2
S'vel_y'
p3
F-0.36008988575066142
sS'vel_x'
p4
F-0.34447766413781872
sS'pos_x'
p5
F-42.679013254117216
sS'pos_y'
p6
F24.13510207380255
sS'isAlive'
p7
I01
sS'cumulativeEnergy'
p8
F34.342989340507494
sS'geno'
p9
(i__main__
Node
p10
(dp11
S'vector'
p12
S'+'
sS'depth'
p13
I1
sS'right'
p14
(i__main__
Node
p15
(dp16
g12
S'-'
sg13
I2
sg14
(i__main__
Node
p17
(dp18
g12
S'indiv.currentEnergy()'
p19
sg13
I3
sg14
NsS'parent'
p20
g15
sS'float_size'
p21
S'indiv.getNumPreysNeigh()'
p22
sS'float_bright'
p23
S'indiv.distanceMatingSeason()'
p24
sS'left'
p25
Nsbsg20
g10
sg21
S'+'
sg23
S'/'
sg25
(i__main__
Node
p26
(dp27
g12
S'indiv.target()'
p28
sg13
I3
sg14
Nsg20
g15
sg21
S'indiv.getTailBrightness()'
p29
sg23
g22
sg25
Nsbsbsg20
Nsg21
S'-'
sg23
S'+'
sg25
(i__main__
Node
p30
(dp31
g12
S'-'
sg13
I2
sg14
(i__main__
Node
p32
(dp33
g12
g19
sg13
I3
sg14
Nsg20
g30
sg21
g22
sg23
g24
sg25
Nsbsg20
g10
sg21
S'+'
sg23
S'/'
sg25
(i__main__
Node
p34
(dp35
g12
g28
sg13
I3
sg14
Nsg20
g30
sg21
g29
sg23
g22
sg25
NsbsbsbsS'accel_x'
p36
F-1.4142135623730951
sS'accel_y'
p37
F-1.4142135623730951
sS'visionAngle'
p38
I150
sS'maxAccel'
p39
I2
sS'maxVel'
p40
F0.5
sS'age'
p41
I50
sS'tailSize'
p42
F0
sS'sexualgeno'
p43
NsS'tailBrigh'
p44
F8
sS'maxSteering'
p45
I30
sS'energy'
p46
F0.92439947978609327
sS'lastScale'
p47
F14.743994797860932
sb.(i__main__
Data_mobile
p1
(dp2
S'vel_y'
p3
F-0.35236349180457133
sS'vel_x'
p4
F-0.35237700911532527
sS'pos_x'
p5
F-148.22904298147017
sS'pos_y'
p6
F39.694209631403425
sS'isAlive'
p7
I01
sS'cumulativeEnergy'
p8
F34.169610901351611
sS'geno'
p9
(i__main__
Node
p10
(dp11
S'vector'
p12
S'+'
sS'depth'
p13
I1
sS'right'
p14
(i__main__
Node
p15
(dp16
g12
S'-'
sg13
I2
sg14
(i__main__
Node
p17
(dp18
g12
S'indiv.currentEnergy()'
p19
sg13
I3
sg14
NsS'parent'
p20
g15
sS'float_size'
p21
S'indiv.getNumPreysNeigh()'
p22
sS'float_bright'
p23
S'indiv.distanceMatingSeason()'
p24
sS'left'
p25
Nsbsg20
g10
sg21
S'+'
sg23
S'/'
sg25
(i__main__
Node
p26
(dp27
g12
S'indiv.target()'
p28
sg13
I3
sg14
Nsg20
g15
sg21
S'indiv.getTailBrightness()'
p29
sg23
g22
sg25
Nsbsbsg20
Nsg21
S'-'
sg23
S'+'
sg25
(i__main__
Node
p30
(dp31
g12
S'-'
sg13
I2
sg14
(i__main__
Node
p32
(dp33
g12
g19
sg13
I3
sg14
Nsg20
g30
sg21
g22
sg23
g24
sg25
Nsbsg20
g10
sg21
S'+'
sg23
S'/'
sg25
(i__main__
Node
p34
(dp35
g12
g28
sg13
I3
sg14
Nsg20
g30
sg21
g29
sg23
g22
sg25
NsbsbsbsS'accel_x'
p36
F-1.4142135623730951
sS'accel_y'
p37
F-1.4142135623730951
sS'visionAngle'
p38
I150
sS'maxAccel'
p39
I2
sS'maxVel'
p40
F0.5
sS'age'
p41
I100
sS'tailSize'
p42
F0
sS'sexualgeno'
p43
NsS'tailBrigh'
p44
F10
sS'maxSteering'
p45
I30
sS'energy'
p46
F0.89120529555310868
sS'lastScale'
p47
F14.412052955531086
sb.(i__main__
Data_mobile
p1
(dp2
S'vel_y'
p3
F-0.35237024761704006
sS'vel_x'
p4
F-0.35237025343249112
sS'pos_x'
p5
F-107.20270640063671
sS'pos_y'
p6
F-57.534264654004929
sS'isAlive'
p7
I01
sS'cumulativeEnergy'
p8
F33.491906729084299
sS'geno'
p9
(i__main__
Node
p10
(dp11
S'vector'
p12
S'+'
sS'depth'
p13
I1
sS'right'
p14
(i__main__
Node
p15
(dp16
g12
S'-'
sg13
I2
sg14
(i__main__
Node
p17
(dp18
g12
S'indiv.currentEnergy()'
p19
sg13
I3
sg14
NsS'parent'
p20
g15
sS'float_size'
p21
S'indiv.getNumPreysNeigh()'
p22
sS'float_bright'
p23
S'indiv.distanceMatingSeason()'
p24
sS'left'
p25
Nsbsg20
g10
sg21
S'+'
sg23
S'/'
sg25
(i__main__
Node
p26
(dp27
g12
S'indiv.target()'
p28
sg13
I3
sg14
Nsg20
g15
sg21
S'indiv.getTailBrightness()'
p29
sg23
g22
sg25
Nsbsbsg20
Nsg21
S'-'
sg23
S'+'
sg25
(i__main__
Node
p30
(dp31
g12
S'-'
sg13
I2
sg14
(i__main__
Node
p32
(dp33
g12
g19
sg13
I3
sg14
Nsg20
g30
sg21
g22
sg23
g24
sg25
Nsbsg20
g10
sg21
S'+'
sg23
S'/'
sg25
(i__main__
Node
p34
(dp35
g12
g28
sg13
I3
sg14
Nsg20
g30
sg21
g29
sg23
g22
sg25
NsbsbsbsS'accel_x'
p36
F-1.4142135623730949
sS'accel_y'
p37
F-1.4142135623730949
sS'visionAngle'
p38
I150
sS'maxAccel'
p39
I2
sS'maxVel'
p40
F0.5
sS'age'
p41
I50
sS'tailSize'
p42
F0
sS'sexualgeno'
p43
NsS'tailBrigh'
p44
F14
sS'maxSteering'
p45
I30
sS'energy'
p46
F0.83767995054240241
sS'lastScale'
p47
F13.876799505424025
sb.(i__main__
Data_mobile
p1
(dp2
S'vel_y'
p3
F-0.35190655085978062
sS'vel_x'
p4
F-0.35190654131368942
sS'pos_x'
p5
F77.414406521630866
sS'pos_y'
p6
F23.252147909659108
sS'isAlive'
p7
I01
sS'cumulativeEnergy'
p8
F33.317646671277259
sS'geno'
p9
(i__main__
Node
p10
(dp11
S'vector'
p12
S'+'
sS'depth'
p13
I1
sS'right'
p14
(i__main__
Node
p15
(dp16
g12
S'-'
sg13
I2
sg14
(i__main__
Node
p17
(dp18
g12
S'indiv.separation()'
p19
sg13
I3
sg14
NsS'parent'
p20
g15
sS'float_size'
p21
S'indiv.getNumPreysNeigh()'
p22
sS'float_bright'
p23
S'indiv.distanceMatingSeason()'
p24
sS'left'
p25
Nsbsg20
g10
sg21
S'+'
sg23
S'/'
sg25
(i__main__
Node
p26
(dp27
g12
S'indiv.flee()'
p28
sg13
I3
sg14
Nsg20
g15
sg21
S'indiv.getNumPredatorsNeigh()'
p29
sg23
g24
sg25
Nsbsbsg20
Nsg21
S'-'
sg23
S'+'
sg25
(i__main__
Node
p30
(dp31
g12
S'-'
sg13
I2
sg14
(i__main__
Node
p32
(dp33
g12
S'indiv.currentEnergy()'
p34
sg13
I3
sg14
Nsg20
g30
sg21
g22
sg23
g24
sg25
Nsbsg20
g10
sg21
S'+'
sg23
S'/'
sg25
(i__main__
Node
p35
(dp36
g12
S'indiv.target()'
p37
sg13
I3
sg14
Nsg20
g30
sg21
S'indiv.getTailBrightness()'
p38
sg23
g22
sg25
NsbsbsbsS'accel_x'
p39
F-0.84506450626596663
sS'accel_y'
p40
F-0.84506450626596663
sS'visionAngle'
p41
I150
sS'maxAccel'
p42
I2
sS'maxVel'
p43
F0.5
sS'age'
p44
I50
sS'tailSize'
p45
F-0.5
sS'sexualgeno'
p46
NsS'tailBrigh'
p47
F2
sS'maxSteering'
p48
I30
sS'energy'
p49
F0.84506450626596663
sS'lastScale'
p50
F13.950645062659667
sb.(i__main__
Data_mobile
p1
(dp2
S'vel_y'
p3
F-0.35237581031486293
sS'vel_x'
p4
F-0.35236469064694315
sS'pos_x'
p5
F-147.74452407112443
sS'pos_y'
p6
F39.423076353521864
sS'isAlive'
p7
I01
sS'cumulativeEnergy'
p8
F32.900323488433955
sS'geno'
p9
(i__main__
Node
p10
(dp11
S'vector'
p12
S'+'
sS'depth'
p13
I1
sS'right'
p14
(i__main__
Node
p15
(dp16
g12
S'-'
sg13
I2
sg14
(i__main__
Node
p17
(dp18
g12
S'indiv.currentEnergy()'
p19
sg13
I3
sg14
NsS'parent'
p20
g15
sS'float_size'
p21
S'indiv.getNumPreysNeigh()'
p22
sS'float_bright'
p23
S'indiv.distanceMatingSeason()'
p24
sS'left'
p25
Nsbsg20
g10
sg21
S'+'
sg23
S'/'
sg25
(i__main__
Node
p26
(dp27
g12
S'indiv.target()'
p28
sg13
I3
sg14
Nsg20
g15
sg21
S'indiv.getTailBrightness()'
p29
sg23
g22
sg25
Nsbsbsg20
Nsg21
S'-'
sg23
S'+'
sg25
(i__main__
Node
p30
(dp31
g12
S'-'
sg13
I2
sg14
(i__main__
Node
p32
(dp33
g12
g19
sg13
I3
sg14
Nsg20
g30
sg21
g22
sg23
g24
sg25
Nsbsg20
g10
sg21
S'+'
sg23
S'/'
sg25
(i__main__
Node
p34
(dp35
g12
g28
sg13
I3
sg14
Nsg20
g30
sg21
g29
sg23
g22
sg25
NsbsbsbsS'accel_x'
p36
F-1.4142135623730949
sS'accel_y'
p37
F-1.4142135623730949
sS'visionAngle'
p38
I150
sS'maxAccel'
p39
I2
sS'maxVel'
p40
F0.5
sS'age'
p41
I50
sS'tailSize'
p42
F0
sS'sexualgeno'
p43
NsS'tailBrigh'
p44
F12
sS'maxSteering'
p45
I30
sS'energy'
p46
F0.87463181904406495
sS'lastScale'
p47
F14.24631819044065
sb.(i__main__
Data_mobile
p1
(dp2
S'vel_y'
p3
F-0.4155853635653099
sS'vel_x'
p4
F-0.26989195900169372
sS'pos_x'
p5
F-0.25900240421331189
sS'pos_y'
p6
F-49.799556773188819
sS'isAlive'
p7
I01
sS'cumulativeEnergy'
p8
F32.818927179480454
sS'geno'
p9
(i__main__
Node
p10
(dp11
S'vector'
p12
S'+'
sS'depth'
p13
I1
sS'right'
p14
(i__main__
Node
p15
(dp16
g14
(i__main__
Node
p17
(dp18
g14
NsS'parent'
p19
g15
sg13
I3
sg12
S'indiv.currentVelocity()'
p20
sS'float_size'
p21
S'indiv.getTailBrightness()'
p22
sS'float_bright'
p23
S'indiv.getTailSize()'
p24
sS'left'
p25
Nsbsg19
g10
sg13
I2
sg12
S'+'
sg21
S'*'
sg23
S'-'
sg25
(i__main__
Node
p26
(dp27
g14
Nsg19
g15
sg13
I3
sg12
S'indiv.currentEnergy()'
p28
sg21
S'indiv.getEnergy()'
p29
sg23
S'indiv.getNumPredatorsNeigh()'
p30
sg25
Nsbsbsg19
Nsg21
S'-'
sg23
S'+'
sg25
(i__main__
Node
p31
(dp32
g12
S'-'
sg13
I2
sg14
(i__main__
Node
p33
(dp34
g12
g28
sg13
I3
sg14
Nsg19
g31
sg21
S'indiv.getNumPreysNeigh()'
p35
sg23
S'indiv.distanceMatingSeason()'
p36
sg25
Nsbsg19
g10
sg21
S'+'
sg23
S'/'
sg25
(i__main__
Node
p37
(dp38
g12
S'indiv.target()'
p39
sg13
I3
sg14
Nsg19
g31
sg21
g22
sg23
g35
sg25
NsbsbsbsS'accel_x'
p40
F0.92876670127668182
sS'accel_y'
p41
F-0.35248629224249983
sS'visionAngle'
p42
I150
sS'maxAccel'
p43
I2
sS'maxVel'
p44
F0.5
sS'age'
p45
I50
sS'tailSize'
p46
F0.99498583359840431
sS'sexualgeno'
p47
NsS'tailBrigh'
p48
F0.0066935828940757336
sS'maxSteering'
p49
I30
sS'energy'
p50
F1
sS'lastScale'
p51
F15.5
sb.(i__main__
Data_mobile
p1
(dp2
S'vel_y'
p3
F-0.35235283606905071
sS'vel_x'
p4
F-0.35238766411988498
sS'pos_x'
p5
F-148.45455715092976
sS'pos_y'
p6
F40.016886306600163
sS'isAlive'
p7
I01
sS'cumulativeEnergy'
p8
F31.492039072180503
sS'geno'
p9
(i__main__
Node
p10
(dp11
S'vector'
p12
S'+'
sS'depth'
p13
I1
sS'right'
p14
(i__main__
Node
p15
(dp16
g12
S'-'
sg13
I2
sg14
(i__main__
Node
p17
(dp18
g12
S'indiv.currentEnergy()'
p19
sg13
I3
sg14
NsS'parent'
p20
g15
sS'float_size'
p21
S'indiv.getNumPreysNeigh()'
p22
sS'float_bright'
p23
S'indiv.distanceMatingSeason()'
p24
sS'left'
p25
Nsbsg20
g10
sg21
S'+'
sg23
S'/'
sg25
(i__main__
Node
p26
(dp27
g12
S'indiv.target()'
p28
sg13
I3
sg14
Nsg20
g15
sg21
S'indiv.getTailBrightness()'
p29
sg23
g22
sg25
Nsbsbsg20
Nsg21
S'-'
sg23
S'+'
sg25
(i__main__
Node
p30
(dp31
g12
S'-'
sg13
I2
sg14
(i__main__
Node
p32
(dp33
g12
g19
sg13
I3
sg14
Nsg20
g30
sg21
g22
sg23
g24
sg25
Nsbsg20
g10
sg21
S'+'
sg23
S'/'
sg25
(i__main__
Node
p34
(dp35
g12
g28
sg13
I3
sg14
Nsg20
g30
sg21
g29
sg23
g22
sg25
NsbsbsbsS'accel_x'
p36
F-1.4142135623730951
sS'accel_y'
p37
F-1.4142135623730951
sS'visionAngle'
p38
I150
sS'maxAccel'
p39
I2
sS'maxVel'
p40
F0.5
sS'age'
p41
I100
sS'tailSize'
p42
F0
sS'sexualgeno'
p43
NsS'tailBrigh'
p44
F10
sS'maxSteering'
p45
I30
sS'energy'
p46
F0.88736053918190905
sS'lastScale'
p47
F14.37360539181909
sb.(i__main__
Data_mobile
p1
(dp2
S'vel_y'
p3
F-0.35237025468876521
sS'vel_x'
p4
F-0.35237024636076597
sS'pos_x'
p5
F-104.60554719186491
sS'pos_y'
p6
F-59.53165804105118
sS'isAlive'
p7
I01
sS'cumulativeEnergy'
p8
F30.72133525141146
sS'geno'
p9
(i__main__
Node
p10
(dp11
S'vector'
p12
S'+'
sS'depth'
p13
I1
sS'right'
p14
(i__main__
Node
p15
(dp16
g12
S'-'
sg13
I2
sg14
(i__main__
Node
p17
(dp18
g12
S'indiv.currentEnergy()'
p19
sg13
I3
sg14
NsS'parent'
p20
g15
sS'float_size'
p21
S'indiv.getNumPreysNeigh()'
p22
sS'float_bright'
p23
S'indiv.distanceMatingSeason()'
p24
sS'left'
p25
Nsbsg20
g10
sg21
S'+'
sg23
S'/'
sg25
(i__main__
Node
p26
(dp27
g12
S'indiv.target()'
p28
sg13
I3
sg14
Nsg20
g15
sg21
S'indiv.getTailBrightness()'
p29
sg23
g22
sg25
Nsbsbsg20
Nsg21
S'-'
sg23
S'+'
sg25
(i__main__
Node
p30
(dp31
g12
S'-'
sg13
I2
sg14
(i__main__
Node
p32
(dp33
g12
g19
sg13
I3
sg14
Nsg20
g30
sg21
g22
sg23
g24
sg25
Nsbsg20
g10
sg21
S'+'
sg23
S'/'
sg25
(i__main__
Node
p34
(dp35
g12
g28
sg13
I3
sg14
Nsg20
g30
sg21
g29
sg23
g22
sg25
NsbsbsbsS'accel_x'
p36
F-1.4142135623730951
sS'accel_y'
p37
F-1.4142135623730951
sS'visionAngle'
p38
I150
sS'maxAccel'
p39
I2
sS'maxVel'
p40
F0.5
sS'age'
p41
I50
sS'tailSize'
p42
F0
sS'sexualgeno'
p43
NsS'tailBrigh'
p44
F14
sS'maxSteering'
p45
I30
sS'energy'
p46
F0.82299189251869598
sS'lastScale'
p47
F13.729918925186958
sb.(i__main__
Data_mobile
p1
(dp2
S'vel_y'
p3
F-0.48984210242422122
sS'vel_x'
p4
F-0.091565832068468578
sS'pos_x'
p5
F-39.661947890205603
sS'pos_y'
p6
F25.995685642165331
sS'isAlive'
p7
I01
sS'cumulativeEnergy'
p8
F30.43172220035882
sS'geno'
p9
(i__main__
Node
p10
(dp11
S'vector'
p12
S'+'
sS'depth'
p13
I1
sS'right'
p14
(i__main__
Node
p15
(dp16
g12
S'-'
sg13
I2
sg14
(i__main__
Node
p17
(dp18
g12
S'indiv.currentEnergy()'
p19
sg13
I3
sg14
NsS'parent'
p20
g15
sS'float_size'
p21
S'indiv.getNumPreysNeigh()'
p22
sS'float_bright'
p23
S'indiv.distanceMatingSeason()'
p24
sS'left'
p25
Nsbsg20
g10
sg21
S'+'
sg23
S'/'
sg25
(i__main__
Node
p26
(dp27
g12
S'indiv.target()'
p28
sg13
I3
sg14
Nsg20
g15
sg21
S'indiv.getTailBrightness()'
p29
sg23
g22
sg25
Nsbsbsg20
Nsg21
S'-'
sg23
S'+'
sg25
(i__main__
Node
p30
(dp31
g12
S'-'
sg13
I2
sg14
(i__main__
Node
p32
(dp33
g12
g19
sg13
I3
sg14
Nsg20
g30
sg21
g22
sg23
g24
sg25
Nsbsg20
g10
sg21
S'+'
sg23
S'/'
sg25
(i__main__
Node
p34
(dp35
g12
g28
sg13
I3
sg14
Nsg20
g30
sg21
g29
sg23
g22
sg25
NsbsbsbsS'accel_x'
p36
F-0.82381246521937301
sS'accel_y'
p37
F-0.82381246521937301
sS'visionAngle'
p38
I150
sS'maxAccel'
p39
I2
sS'maxVel'
p40
F0.5
sS'age'
p41
I150
sS'tailSize'
p42
F0
sS'sexualgeno'
p43
NsS'tailBrigh'
p44
F18
sS'maxSteering'
p45
I30
sS'energy'
p46
F0.41190623260968651
sS'lastScale'
p47
F9.6190623260968646
sb.(i__main__
Data_mobile
p1
(dp2
S'vel_y'
p3
F0.19153009979783042
sS'vel_x'
p4
F0.4600497883720906
sS'pos_x'
p5
F85.549090584786995
sS'pos_y'
p6
F-93.901129314892486
sS'isAlive'
p7
I01
sS'cumulativeEnergy'
p8
F30.369553247115782
sS'geno'
p9
(i__main__
Node
p10
(dp11
S'vector'
p12
S'+'
sS'depth'
p13
I1
sS'right'
p14
(i__main__
Node
p15
(dp16
g12
S'-'
sg13
I2
sg14
(i__main__
Node
p17
(dp18
g12
S'indiv.currentEnergy()'
p19
sg13
I3
sg14
NsS'parent'
p20
g15
sS'float_size'
p21
S'indiv.getNumPreysNeigh()'
p22
sS'float_bright'
p23
S'indiv.distanceMatingSeason()'
p24
sS'left'
p25
Nsbsg20
g10
sg21
S'+'
sg23
S'/'
sg25
(i__main__
Node
p26
(dp27
g12
S'indiv.target()'
p28
sg13
I3
sg14
Nsg20
g15
sg21
S'indiv.getTailBrightness()'
p29
sg23
g22
sg25
Nsbsbsg20
Nsg21
S'-'
sg23
S'+'
sg25
(i__main__
Node
p30
(dp31
g12
S'-'
sg13
I2
sg14
(i__main__
Node
p32
(dp33
g12
g19
sg13
I3
sg14
Nsg20
g30
sg21
g22
sg23
g24
sg25
Nsbsg20
g10
sg21
S'+'
sg23
S'/'
sg25
(i__main__
Node
p34
(dp35
g12
g28
sg13
I3
sg14
Nsg20
g30
sg21
g29
sg23
g22
sg25
NsbsbsbsS'accel_x'
p36
F-0.96223705087202926
sS'accel_y'
p37
F0.16145071315705639
sS'visionAngle'
p38
I150
sS'maxAccel'
p39
I2
sS'maxVel'
p40
F0.5
sS'age'
p41
I100
sS'tailSize'
p42
F0
sS'sexualgeno'
p43
NsS'tailBrigh'
p44
F2
sS'maxSteering'
p45
I30
sS'energy'
p46
F0.48636432271493174
sS'lastScale'
p47
F10.863643227149318
sb.(i__main__
Data_mobile
p1
(dp2
S'vel_y'
p3
F-0.40338064033827103
sS'vel_x'
p4
F0.29259809621742011
sS'pos_x'
p5
F-40.290394317830078
sS'pos_y'
p6
F26.579195452986987
sS'isAlive'
p7
I01
sS'cumulativeEnergy'
p8
F30.351616650765866
sS'geno'
p9
(i__main__
Node
p10
(dp11
S'vector'
p12
S'+'
sS'depth'
p13
I1
sS'right'
p14
(i__main__
Node
p15
(dp16
g12
S'-'
sg13
I2
sg14
(i__main__
Node
p17
(dp18
g12
S'indiv.currentEnergy()'
p19
sg13
I3
sg14
NsS'parent'
p20
g15
sS'float_size'
p21
S'indiv.getNumPreysNeigh()'
p22
sS'float_bright'
p23
S'indiv.distanceMatingSeason()'
p24
sS'left'
p25
Nsbsg20
g10
sg21
S'+'
sg23
S'/'
sg25
(i__main__
Node
p26
(dp27
g12
S'indiv.target()'
p28
sg13
I3
sg14
Nsg20
g15
sg21
S'indiv.getTailBrightness()'
p29
sg23
g22
sg25
Nsbsbsg20
Nsg21
S'-'
sg23
S'+'
sg25
(i__main__
Node
p30
(dp31
g12
S'-'
sg13
I2
sg14
(i__main__
Node
p32
(dp33
g12
g19
sg13
I3
sg14
Nsg20
g30
sg21
g22
sg23
g24
sg25
Nsbsg20
g10
sg21
S'+'
sg23
S'/'
sg25
(i__main__
Node
p34
(dp35
g12
g28
sg13
I3
sg14
Nsg20
g30
sg21
g29
sg23
g22
sg25
NsbsbsbsS'accel_x'
p36
F-1.2263444483996244
sS'accel_y'
p37
F-1.2263444483996244
sS'visionAngle'
p38
I150
sS'maxAccel'
p39
I2
sS'maxVel'
p40
F0.5
sS'age'
p41
I100
sS'tailSize'
p42
F0
sS'sexualgeno'
p43
NsS'tailBrigh'
p44
F18
sS'maxSteering'
p45
I30
sS'energy'
p46
F0.61317222419981221
sS'lastScale'
p47
F11.631722241998121
sb.(i__main__
Data_mobile
p1
(dp2
S'vel_y'
p3
F-0.3523702890671811
sS'vel_x'
p4
F-0.35237021198234597
sS'pos_x'
p5
F-31.33765297953039
sS'pos_y'
p6
F-24.245463079692279
sS'isAlive'
p7
I01
sS'cumulativeEnergy'
p8
F29.919146093305393
sS'geno'
p9
(i__main__
Node
p10
(dp11
S'vector'
p12
S'+'
sS'depth'
p13
I1
sS'right'
p14
(i__main__
Node
p15
(dp16
g12
S'-'
sg13
I2
sg14
(i__main__
Node
p17
(dp18
g12
S'indiv.currentEnergy()'
p19
sg13
I3
sg14
NsS'parent'
p20
g15
sS'float_size'
p21
S'indiv.getNumPreysNeigh()'
p22
sS'float_bright'
p23
S'indiv.distanceMatingSeason()'
p24
sS'left'
p25
Nsbsg20
g10
sg21
S'+'
sg23
S'/'
sg25
(i__main__
Node
p26
(dp27
g12
S'indiv.target()'
p28
sg13
I3
sg14
Nsg20
g15
sg21
S'indiv.getTailBrightness()'
p29
sg23
g22
sg25
Nsbsbsg20
Nsg21
S'-'
sg23
S'+'
sg25
(i__main__
Node
p30
(dp31
g12
S'-'
sg13
I2
sg14
(i__main__
Node
p32
(dp33
g12
g19
sg13
I3
sg14
Nsg20
g30
sg21
g22
sg23
g24
sg25
Nsbsg20
g10
sg21
S'+'
sg23
S'/'
sg25
(i__main__
Node
p34
(dp35
g12
g28
sg13
I3
sg14
Nsg20
g30
sg21
g29
sg23
g22
sg25
NsbsbsbsS'accel_x'
p36
F-0.95294087253477477
sS'accel_y'
p37
F-0.95294087253477477
sS'visionAngle'
p38
I150
sS'maxAccel'
p39
I2
sS'maxVel'
p40
F0.5
sS'age'
p41
I150
sS'tailSize'
p42
F0
sS'sexualgeno'
p43
NsS'tailBrigh'
p44
F8
sS'maxSteering'
p45
I30
sS'energy'
p46
F0.47647043626738739
sS'lastScale'
p47
F10.264704362673873
sb.(i__main__
Data_mobile
p1
(dp2
S'vel_y'
p3
F-0.29844713177266197
sS'vel_x'
p4
F-0.39907254534287812
sS'pos_x'
p5
F182.36385776093584
sS'pos_y'
p6
F59.533981280166124
sS'isAlive'
p7
I01
sS'cumulativeEnergy'
p8
F29.33979812804143
sS'geno'
p9
(i__main__
Node
p10
(dp11
S'vector'
p12
S'+'
sS'depth'
p13
I1
sS'right'
p14
(i__main__
Node
p15
(dp16
g12
S'-'
sg13
I2
sg14
(i__main__
Node
p17
(dp18
g12
S'indiv.currentEnergy()'
p19
sg13
I3
sg14
NsS'parent'
p20
g15
sS'float_size'
p21
S'indiv.getNumPreysNeigh()'
p22
sS'float_bright'
p23
S'indiv.distanceMatingSeason()'
p24
sS'left'
p25
Nsbsg20
g10
sg21
S'+'
sg23
S'/'
sg25
(i__main__
Node
p26
(dp27
g12
S'indiv.target()'
p28
sg13
I3
sg14
Nsg20
g15
sg21
S'indiv.getTailBrightness()'
p29
sg23
g22
sg25
Nsbsbsg20
Nsg21
S'-'
sg23
S'+'
sg25
(i__main__
Node
p30
(dp31
g12
S'-'
sg13
I2
sg14
(i__main__
Node
p32
(dp33
g12
g19
sg13
I3
sg14
Nsg20
g30
sg21
g22
sg23
g24
sg25
Nsbsg20
g10
sg21
S'+'
sg23
S'/'
sg25
(i__main__
Node
p34
(dp35
g12
g28
sg13
I3
sg14
Nsg20
g30
sg21
g29
sg23
g22
sg25
NsbsbsbsS'accel_x'
p36
F0.9436371538627204
sS'accel_y'
p37
F0.065250308493343345
sS'visionAngle'
p38
I150
sS'maxAccel'
p39
I2
sS'maxVel'
p40
F0.5
sS'age'
p41
I150
sS'tailSize'
p42
F0
sS'sexualgeno'
p43
NsS'tailBrigh'
p44
F10
sS'maxSteering'
p45
I30
sS'energy'
p46
F0.78771653532565489
sS'lastScale'
p47
F13.377165353256551
sb.(i__main__
Data_mobile
p1
(dp2
S'vel_y'
p3
F-0.35237025052476567
sS'vel_x'
p4
F-0.35237025052476567
sS'pos_x'
p5
F36.338524080349792
sS'pos_y'
p6
F-104.67902528797256
sS'isAlive'
p7
I01
sS'cumulativeEnergy'
p8
F29.128603772267418
sS'geno'
p9
(i__main__
Node
p10
(dp11
S'vector'
p12
S'+'
sS'depth'
p13
I1
sS'right'
p14
(i__main__
Node
p15
(dp16
g12
S'-'
sg13
I2
sg14
(i__main__
Node
p17
(dp18
g12
S'indiv.currentEnergy()'
p19
sg13
I3
sg14
NsS'parent'
p20
g15
sS'float_size'
p21
S'indiv.getNumPreysNeigh()'
p22
sS'float_bright'
p23
S'indiv.distanceMatingSeason()'
p24
sS'left'
p25
Nsbsg20
g10
sg21
S'+'
sg23
S'/'
sg25
(i__main__
Node
p26
(dp27
g12
S'indiv.target()'
p28
sg13
I3
sg14
Nsg20
g15
sg21
S'indiv.getTailBrightness()'
p29
sg23
g22
sg25
Nsbsbsg20
Nsg21
S'-'
sg23
S'+'
sg25
(i__main__
Node
p30
(dp31
g12
S'-'
sg13
I2
sg14
(i__main__
Node
p32
(dp33
g12
g19
sg13
I3
sg14
Nsg20
g30
sg21
g22
sg23
g24
sg25
Nsbsg20
g10
sg21
S'+'
sg23
S'/'
sg25
(i__main__
Node
p34
(dp35
g12
g28
sg13
I3
sg14
Nsg20
g30
sg21
g29
sg23
g22
sg25
NsbsbsbsS'accel_x'
p36
F-0.19288189491575491
sS'accel_y'
p37
F-0.19288189491575491
sS'visionAngle'
p38
I150
sS'maxAccel'
p39
I2
sS'maxVel'
p40
F0.5
sS'age'
p41
I250
sS'tailSize'
p42
F0
sS'sexualgeno'
p43
NsS'tailBrigh'
p44
F2
sS'maxSteering'
p45
I30
sS'energy'
p46
F0.096440947457877457
sS'lastScale'
p47
F6.4644094745787744
sb.(i__main__
Data_mobile
p1
(dp2
S'vel_y'
p3
F0.23127040128599027
sS'vel_x'
p4
F0.44141090652450943
sS'pos_x'
p5
F35.561114402594207
sS'pos_y'
p6
F-32.764290547141044
sS'isAlive'
p7
I01
sS'cumulativeEnergy'
p8
F28.547295390653129
sS'geno'
p9
(i__main__
Node
p10
(dp11
S'vector'
p12
S'+'
sS'depth'
p13
I1
sS'right'
p14
(i__main__
Node
p15
(dp16
g12
S'-'
sg13
I2
sg14
(i__main__
Node
p17
(dp18
g12
S'indiv.currentEnergy()'
p19
sg13
I3
sg14
NsS'parent'
p20
g15
sS'float_size'
p21
S'indiv.getNumPreysNeigh()'
p22
sS'float_bright'
p23
S'indiv.distanceMatingSeason()'
p24
sS'left'
p25
Nsbsg20
g10
sg21
S'+'
sg23
S'/'
sg25
(i__main__
Node
p26
(dp27
g12
S'indiv.target()'
p28
sg13
I3
sg14
Nsg20
g15
sg21
S'indiv.getTailBrightness()'
p29
sg23
g22
sg25
Nsbsbsg20
Nsg21
S'-'
sg23
S'+'
sg25
(i__main__
Node
p30
(dp31
g12
S'-'
sg13
I2
sg14
(i__main__
Node
p32
(dp33
g12
g19
sg13
I3
sg14
Nsg20
g30
sg21
g22
sg23
g24
sg25
Nsbsg20
g10
sg21
S'+'
sg23
S'/'
sg25
(i__main__
Node
p34
(dp35
g12
g28
sg13
I3
sg14
Nsg20
g30
sg21
g29
sg23
g22
sg25
NsbsbsbsS'accel_x'
p36
F-0.53299521537875738
sS'accel_y'
p37
F-0.8465111864958843
sS'visionAngle'
p38
I150
sS'maxAccel'
p39
I2
sS'maxVel'
p40
F0.5
sS'age'
p41
I50
sS'tailSize'
p42
F0
sS'sexualgeno'
p43
NsS'tailBrigh'
p44
F4
sS'maxSteering'
p45
I30
sS'energy'
p46
F1
sS'lastScale'
p47
F15.5
sb.(i__main__
Data_mobile
p1
(dp2
S'vel_y'
p3
F-0.35237025052476567
sS'vel_x'
p4
F-0.35237025052476567
sS'pos_x'
p5
F35.665010802231109
sS'pos_y'
p6
F-103.6688328376282
sS'isAlive'
p7
I01
sS'cumulativeEnergy'
p8
F28.271001170891807
sS'geno'
p9
(i__main__
Node
p10
(dp11
S'vector'
p12
S'+'
sS'depth'
p13
I1
sS'right'
p14
(i__main__
Node
p15
(dp16
g12
S'-'
sg13
I2
sg14
(i__main__
Node
p17
(dp18
g12
S'indiv.currentEnergy()'
p19
sg13
I3
sg14
NsS'parent'
p20
g15
sS'float_size'
p21
S'indiv.getNumPreysNeigh()'
p22
sS'float_bright'
p23
S'indiv.distanceMatingSeason()'
p24
sS'left'
p25
Nsbsg20
g10
sg21
S'+'
sg23
S'/'
sg25
(i__main__
Node
p26
(dp27
g12
S'indiv.target()'
p28
sg13
I3
sg14
Nsg20
g15
sg21
S'indiv.getTailBrightness()'
p29
sg23
g22
sg25
Nsbsbsg20
Nsg21
S'-'
sg23
S'+'
sg25
(i__main__
Node
p30
(dp31
g12
S'-'
sg13
I2
sg14
(i__main__
Node
p32
(dp33
g12
g19
sg13
I3
sg14
Nsg20
g30
sg21
g22
sg23
g24
sg25
Nsbsg20
g10
sg21
S'+'
sg23
S'/'
sg25
(i__main__
Node
p34
(dp35
g12
g28
sg13
I3
sg14
Nsg20
g30
sg21
g29
sg23
g22
sg25
NsbsbsbsS'accel_x'
p36
F-0.15538683128604677
sS'accel_y'
p37
F-0.15538683128604677
sS'visionAngle'
p38
I150
sS'maxAccel'
p39
I2
sS'maxVel'
p40
F0.5
sS'age'
p41
I200
sS'tailSize'
p42
F0
sS'sexualgeno'
p43
NsS'tailBrigh'
p44
F2
sS'maxSteering'
p45
I30
sS'energy'
p46
F0.077693415643023386
sS'lastScale'
p47
F6.276934156430233
sb.(i__main__
Data_mobile
p1
(dp2
S'vel_y'
p3
F-0.10867136635341988
sS'vel_x'
p4
F0.44277095137562983
sS'pos_x'
p5
F37.579888794761743
sS'pos_y'
p6
F37.486755285856439
sS'isAlive'
p7
I01
sS'cumulativeEnergy'
p8
F28.007112176192635
sS'geno'
p9
(i__main__
Node
p10
(dp11
S'vector'
p12
S'+'
sS'depth'
p13
I1
sS'right'
p14
(i__main__
Node
p15
(dp16
g12
S'-'
sg13
I2
sg14
(i__main__
Node
p17
(dp18
g12
S'indiv.currentEnergy()'
p19
sg13
I3
sg14
NsS'parent'
p20
g15
sS'float_size'
p21
S'indiv.getNumPreysNeigh()'
p22
sS'float_bright'
p23
S'indiv.distanceMatingSeason()'
p24
sS'left'
p25
Nsbsg20
g10
sg21
S'+'
sg23
S'/'
sg25
(i__main__
Node
p26
(dp27
g12
S'indiv.target()'
p28
sg13
I3
sg14
Nsg20
g15
sg21
S'indiv.getTailBrightness()'
p29
sg23
g22
sg25
Nsbsbsg20
Nsg21
S'-'
sg23
S'+'
sg25
(i__main__
Node
p30
(dp31
g14
(i__main__
Node
p32
(dp33
g14
Nsg20
g30
sg13
I3
sg12
S'indiv.alignment()'
p34
sg21
g24
sg23
g29
sg25
Nsbsg20
g10
sg13
I2
sg12
S'-'
sg21
S'*'
sg23
S'/'
sg25
(i__main__
Node
p35
(dp36
g14
Nsg20
g30
sg13
I3
sg12
S'indiv.flee()'
p37
sg21
g24
sg23
S'indiv.randF()'
p38
sg25
NsbsbsbsS'accel_x'
p39
F-0.95401606080058332
sS'accel_y'
p40
F-0.31964668810910163
sS'visionAngle'
p41
I150
sS'maxAccel'
p42
I2
sS'maxVel'
p43
F0.5
sS'age'
p44
I50
sS'tailSize'
p45
F-10.923194484064759
sS'sexualgeno'
p46
NsS'tailBrigh'
p47
F1.0619057237053815
sS'maxSteering'
p48
I30
sS'energy'
p49
F1
sS'lastScale'
p50
F15.5
sb.(i__main__
Data_mobile
p1
(dp2
S'vel_y'
p3
F-0.48729385082272048
sS'vel_x'
p4
F0.10427986315744937
sS'pos_x'
p5
F89.573576348477573
sS'pos_y'
p6
F33.125966926450779
sS'isAlive'
p7
I01
sS'cumulativeEnergy'
p8
F27.823284767947627
sS'geno'
p9
(i__main__
Node
p10
(dp11
S'vector'
p12
S'+'
sS'depth'
p13
I1
sS'right'
p14
(i__main__
Node
p15
(dp16
g12
S'-'
sg13
I2
sg14
(i__main__
Node
p17
(dp18
g12
S'indiv.currentEnergy()'
p19
sg13
I3
sg14
NsS'parent'
p20
g15
sS'float_size'
p21
S'indiv.getNumPreysNeigh()'
p22
sS'float_bright'
p23
S'indiv.distanceMatingSeason()'
p24
sS'left'
p25
Nsbsg20
g10
sg21
S'+'
sg23
S'/'
sg25
(i__main__
Node
p26
(dp27
g12
S'indiv.target()'
p28
sg13
I3
sg14
Nsg20
g15
sg21
S'indiv.getTailBrightness()'
p29
sg23
g22
sg25
Nsbsbsg20
Nsg21
S'-'
sg23
S'+'
sg25
(i__main__
Node
p30
(dp31
g12
S'-'
sg13
I2
sg14
(i__main__
Node
p32
(dp33
g12
g19
sg13
I3
sg14
Nsg20
g30
sg21
g22
sg23
g24
sg25
Nsbsg20
g10
sg21
S'+'
sg23
S'/'
sg25
(i__main__
Node
p34
(dp35
g12
g28
sg13
I3
sg14
Nsg20
g30
sg21
g29
sg23
g22
sg25
NsbsbsbsS'accel_x'
p36
F0.26775526970019814
sS'accel_y'
p37
F0.90899857275300167
sS'visionAngle'
p38
I150
sS'maxAccel'
p39
I2
sS'maxVel'
p40
F0.5
sS'age'
p41
I300
sS'tailSize'
p42
F0
sS'sexualgeno'
p43
NsS'tailBrigh'
p44
F14
sS'maxSteering'
p45
I30
sS'energy'
p46
F0.6227322136207144
sS'lastScale'
p47
F12.227322136207142
sb.(i__main__
Data_mobile
p1
(dp2
S'vel_y'
p3
F-0.35237025058528604
sS'vel_x'
p4
F-0.35237025046424525
sS'pos_x'
p5
F-106.50947544925363
sS'pos_y'
p6
F-59.052354830269586
sS'isAlive'
p7
I01
sS'cumulativeEnergy'
p8
F27.812340720755582
sS'geno'
p9
(i__main__
Node
p10
(dp11
S'vector'
p12
S'+'
sS'depth'
p13
I1
sS'right'
p14
(i__main__
Node
p15
(dp16
g12
S'-'
sg13
I2
sg14
(i__main__
Node
p17
(dp18
g12
S'indiv.currentEnergy()'
p19
sg13
I3
sg14
NsS'parent'
p20
g15
sS'float_size'
p21
S'indiv.getNumPreysNeigh()'
p22
sS'float_bright'
p23
S'indiv.distanceMatingSeason()'
p24
sS'left'
p25
Nsbsg20
g10
sg21
S'+'
sg23
S'/'
sg25
(i__main__
Node
p26
(dp27
g12
S'indiv.target()'
p28
sg13
I3
sg14
Nsg20
g15
sg21
S'indiv.getTailBrightness()'
p29
sg23
g22
sg25
Nsbsbsg20
Nsg21
S'-'
sg23
S'+'
sg25
(i__main__
Node
p30
(dp31
g12
S'-'
sg13
I2
sg14
(i__main__
Node
p32
(dp33
g12
g19
sg13
I3
sg14
Nsg20
g30
sg21
g22
sg23
g24
sg25
Nsbsg20
g10
sg21
S'+'
sg23
S'/'
sg25
(i__main__
Node
p34
(dp35
g12
g28
sg13
I3
sg14
Nsg20
g30
sg21
g29
sg23
g22
sg25
NsbsbsbsS'accel_x'
p36
F-1.4142135623730951
sS'accel_y'
p37
F-1.4142135623730951
sS'visionAngle'
p38
I150
sS'maxAccel'
p39
I2
sS'maxVel'
p40
F0.5
sS'age'
p41
I50
sS'tailSize'
p42
F0
sS'sexualgeno'
p43
NsS'tailBrigh'
p44
F12
sS'maxSteering'
p45
I30
sS'energy'
p46
F0.72868789747982865
sS'lastScale'
p47
F12.786878974798285
sb.(i__main__
Data_mobile
p1
(dp2
S'vel_y'
p3
F-0.17677669435767723
sS'vel_x'
p4
F-0.1767766962355965
sS'pos_x'
p5
F-99.457460807019189
sS'pos_y'
p6
F-50.875552100540013
sS'isAlive'
p7
I01
sS'cumulativeEnergy'
p8
F27.390701027404482
sS'geno'
p9
(i__main__
Node
p10
(dp11
S'vector'
p12
S'+'
sS'depth'
p13
I1
sS'right'
p14
(i__main__
Node
p15
(dp16
g14
(i__main__
Node
p17
(dp18
g14
NsS'parent'
p19
g15
sg13
I3
sg12
S'indiv.separation()'
p20
sS'float_size'
p21
S'indiv.getNumPredatorsNeigh()'
p22
sS'float_bright'
p23
S'indiv.getEnergy()'
p24
sS'left'
p25
Nsbsg19
g10
sg13
I2
sg12
S'*'
sg21
S'*'
sg23
S'+'
sg25
(i__main__
Node
p26
(dp27
g14
Nsg19
g15
sg13
I3
sg12
S'indiv.target()'
p28
sg21
S'indiv.distanceMatingSeason()'
p29
sg23
S'indiv.getTailSize()'
p30
sg25
Nsbsbsg19
Nsg21
S'-'
sg23
S'+'
sg25
(i__main__
Node
p31
(dp32
g12
S'-'
sg13
I2
sg14
(i__main__
Node
p33
(dp34
g12
S'indiv.currentEnergy()'
p35
sg13
I3
sg14
Nsg19
g31
sg21
S'indiv.getNumPreysNeigh()'
p36
sg23
g29
sg25
Nsbsg19
g10
sg21
S'+'
sg23
S'/'
sg25
(i__main__
Node
p37
(dp38
g12
g28
sg13
I3
sg14
Nsg19
g31
sg21
S'indiv.getTailBrightness()'
p39
sg23
g36
sg25
NsbsbsbsS'accel_x'
p40
F-0.58512199691779976
sS'accel_y'
p41
F-0.58512199691779976
sS'visionAngle'
p42
I150
sS'maxAccel'
p43
I2
sS'maxVel'
p44
F0.5
sS'age'
p45
I50
sS'tailSize'
p46
F265.05081102373629
sS'sexualgeno'
p47
NsS'tailBrigh'
p48
F267.73015185135523
sS'maxSteering'
p49
I30
sS'energy'
p50
F0.58512199691779976
sS'lastScale'
p51
F11.351219969177999
sb.(i__main__
Data_mobile
p1
(dp2
S'vel_y'
p3
F-0.35236461318767998
sS'vel_x'
p4
F-0.35237588777166479
sS'pos_x'
p5
F-148.10945865083744
sS'pos_y'
p6
F39.711003735821031
sS'isAlive'
p7
I01
sS'cumulativeEnergy'
p8
F27.015398841733443
sS'geno'
p9
(i__main__
Node
p10
(dp11
S'vector'
p12
S'+'
sS'depth'
p13
I1
sS'right'
p14
(i__main__
Node
p15
(dp16
g12
S'-'
sg13
I2
sg14
(i__main__
Node
p17
(dp18
g12
S'indiv.currentEnergy()'
p19
sg13
I3
sg14
NsS'parent'
p20
g15
sS'float_size'
p21
S'indiv.getNumPreysNeigh()'
p22
sS'float_bright'
p23
S'indiv.distanceMatingSeason()'
p24
sS'left'
p25
Nsbsg20
g10
sg21
S'+'
sg23
S'/'
sg25
(i__main__
Node
p26
(dp27
g12
S'indiv.target()'
p28
sg13
I3
sg14
Nsg20
g15
sg21
S'indiv.getTailBrightness()'
p29
sg23
g22
sg25
Nsbsbsg20
Nsg21
S'-'
sg23
S'+'
sg25
(i__main__
Node
p30
(dp31
g12
S'-'
sg13
I2
sg14
(i__main__
Node
p32
(dp33
g12
g19
sg13
I3
sg14
Nsg20
g30
sg21
g22
sg23
g24
sg25
Nsbsg20
g10
sg21
S'+'
sg23
S'/'
sg25
(i__main__
Node
p34
(dp35
g12
g28
sg13
I3
sg14
Nsg20
g30
sg21
g29
sg23
g22
sg25
NsbsbsbsS'accel_x'
p36
F-1.4142135623730949
sS'accel_y'
p37
F-1.4142135623730949
sS'visionAngle'
p38
I150
sS'maxAccel'
p39
I2
sS'maxVel'
p40
F0.5
sS'age'
p41
I50
sS'tailSize'
p42
F0
sS'sexualgeno'
p43
NsS'tailBrigh'
p44
F12
sS'maxSteering'
p45
I30
sS'energy'
p46
F0.82904485430943176
sS'lastScale'
p47
F13.790448543094318
sb.(i__main__
Data_mobile
p1
(dp2
S'vel_y'
p3
F-0.35235373606438725
sS'vel_x'
p4
F-0.35238676421120069
sS'pos_x'
p5
F-147.93057512279123
sS'pos_y'
p6
F40.432345674605671
sS'isAlive'
p7
I01
sS'cumulativeEnergy'
p8
F26.794799599153404
sS'geno'
p9
(i__main__
Node
p10
(dp11
S'vector'
p12
S'+'
sS'depth'
p13
I1
sS'right'
p14
(i__main__
Node
p15
(dp16
g12
S'-'
sg13
I2
sg14
(i__main__
Node
p17
(dp18
g12
S'indiv.currentEnergy()'
p19
sg13
I3
sg14
NsS'parent'
p20
g15
sS'float_size'
p21
S'indiv.getNumPreysNeigh()'
p22
sS'float_bright'
p23
S'indiv.distanceMatingSeason()'
p24
sS'left'
p25
Nsbsg20
g10
sg21
S'+'
sg23
S'/'
sg25
(i__main__
Node
p26
(dp27
g12
S'indiv.target()'
p28
sg13
I3
sg14
Nsg20
g15
sg21
S'indiv.getTailBrightness()'
p29
sg23
g22
sg25
Nsbsbsg20
Nsg21
S'-'
sg23
S'+'
sg25
(i__main__
Node
p30
(dp31
g12
S'-'
sg13
I2
sg14
(i__main__
Node
p32
(dp33
g12
g19
sg13
I3
sg14
Nsg20
g30
sg21
g22
sg23
g24
sg25
Nsbsg20
g10
sg21
S'+'
sg23
S'/'
sg25
(i__main__
Node
p34
(dp35
g12
g28
sg13
I3
sg14
Nsg20
g30
sg21
g29
sg23
g22
sg25
NsbsbsbsS'accel_x'
p36
F-1.2070178868563008
sS'accel_y'
p37
F-1.2070178868563008
sS'visionAngle'
p38
I150
sS'maxAccel'
p39
I2
sS'maxVel'
p40
F0.5
sS'age'
p41
I150
sS'tailSize'
p42
F0
sS'sexualgeno'
p43
NsS'tailBrigh'
p44
F12
sS'maxSteering'
p45
I30
sS'energy'
p46
F0.60350894342815042
sS'lastScale'
p47
F11.535089434281504
sb.(i__main__
Data_mobile
p1
(dp2
S'vel_y'
p3
F-0.3523702503922499
sS'vel_x'
p4
F-0.35237025065728134
sS'pos_x'
p5
F-106.81930027275492
sS'pos_y'
p6
F-58.352905813341948
sS'isAlive'
p7
I01
sS'cumulativeEnergy'
p8
F26.398711225710436
sS'geno'
p9
(i__main__
Node
p10
(dp11
S'vector'
p12
S'+'
sS'depth'
p13
I1
sS'right'
p14
(i__main__
Node
p15
(dp16
g12
S'-'
sg13
I2
sg14
(i__main__
Node
p17
(dp18
g12
S'indiv.currentEnergy()'
p19
sg13
I3
sg14
NsS'parent'
p20
g15
sS'float_size'
p21
S'indiv.getNumPreysNeigh()'
p22
sS'float_bright'
p23
S'indiv.distanceMatingSeason()'
p24
sS'left'
p25
Nsbsg20
g10
sg21
S'+'
sg23
S'/'
sg25
(i__main__
Node
p26
(dp27
g12
S'indiv.target()'
p28
sg13
I3
sg14
Nsg20
g15
sg21
S'indiv.getTailBrightness()'
p29
sg23
g22
sg25
Nsbsbsg20
Nsg21
S'-'
sg23
S'+'
sg25
(i__main__
Node
p30
(dp31
g12
S'-'
sg13
I2
sg14
(i__main__
Node
p32
(dp33
g12
g19
sg13
I3
sg14
Nsg20
g30
sg21
g22
sg23
g24
sg25
Nsbsg20
g10
sg21
S'+'
sg23
S'/'
sg25
(i__main__
Node
p34
(dp35
g12
g28
sg13
I3
sg14
Nsg20
g30
sg21
g29
sg23
g22
sg25
NsbsbsbsS'accel_x'
p36
F-1.3553272480698493
sS'accel_y'
p37
F-1.3553272480698493
sS'visionAngle'
p38
I150
sS'maxAccel'
p39
I2
sS'maxVel'
p40
F0.5
sS'age'
p41
I50
sS'tailSize'
p42
F0
sS'sexualgeno'
p43
NsS'tailBrigh'
p44
F14
sS'maxSteering'
p45
I30
sS'energy'
p46
F0.67766362403492464
sS'lastScale'
p47
F12.276636240349244
sb.(i__main__
Data_mobile
p1
(dp2
S'vel_y'
p3
F-0.35237025031560931
sS'vel_x'
p4
F-0.35237025073392203
sS'pos_x'
p5
F-106.45886138877559
sS'pos_y'
p6
F-58.017353258800178
sS'isAlive'
p7
I01
sS'cumulativeEnergy'
p8
F25.045245685104099
sS'geno'
p9
(i__main__
Node
p10
(dp11
S'vector'
p12
S'+'
sS'depth'
p13
I1
sS'right'
p14
(i__main__
Node
p15
(dp16
g12
S'-'
sg13
I2
sg14
(i__main__
Node
p17
(dp18
g12
S'indiv.currentEnergy()'
p19
sg13
I3
sg14
NsS'parent'
p20
g15
sS'float_size'
p21
S'indiv.getNumPreysNeigh()'
p22
sS'float_bright'
p23
S'indiv.distanceMatingSeason()'
p24
sS'left'
p25
Nsbsg20
g10
sg21
S'+'
sg23
S'/'
sg25
(i__main__
Node
p26
(dp27
g12
S'indiv.target()'
p28
sg13
I3
sg14
Nsg20
g15
sg21
S'indiv.getTailBrightness()'
p29
sg23
g22
sg25
Nsbsbsg20
Nsg21
S'-'
sg23
S'+'
sg25
(i__main__
Node
p30
(dp31
g12
S'-'
sg13
I2
sg14
(i__main__
Node
p32
(dp33
g12
g19
sg13
I3
sg14
Nsg20
g30
sg21
g22
sg23
g24
sg25
Nsbsg20
g10
sg21
S'+'
sg23
S'/'
sg25
(i__main__
Node
p34
(dp35
g12
g28
sg13
I3
sg14
Nsg20
g30
sg21
g29
sg23
g22
sg25
NsbsbsbsS'accel_x'
p36
F-1.2463310311019733
sS'accel_y'
p37
F-1.2463310311019733
sS'visionAngle'
p38
I150
sS'maxAccel'
p39
I2
sS'maxVel'
p40
F0.5
sS'age'
p41
I50
sS'tailSize'
p42
F0
sS'sexualgeno'
p43
NsS'tailBrigh'
p44
F14
sS'maxSteering'
p45
I30
sS'energy'
p46
F0.62316551555098665
sS'lastScale'
p47
F11.731655155509866
sb.(i__main__
Data_mobile
p1
(dp2
S'vel_y'
p3
F-0.27080063592216069
sS'vel_x'
p4
F-0.41832595245086762
sS'pos_x'
p5
F182.51215785455324
sS'pos_y'
p6
F59.718782029731194
sS'isAlive'
p7
I01
sS'cumulativeEnergy'
p8
F24.679194800262668
sS'geno'
p9
(i__main__
Node
p10
(dp11
S'vector'
p12
S'+'
sS'depth'
p13
I1
sS'right'
p14
(i__main__
Node
p15
(dp16
g12
S'-'
sg13
I2
sg14
(i__main__
Node
p17
(dp18
g12
S'indiv.currentEnergy()'
p19
sg13
I3
sg14
NsS'parent'
p20
g15
sS'float_size'
p21
S'indiv.getNumPreysNeigh()'
p22
sS'float_bright'
p23
S'indiv.distanceMatingSeason()'
p24
sS'left'
p25
Nsbsg20
g10
sg21
S'+'
sg23
S'/'
sg25
(i__main__
Node
p26
(dp27
g12
S'indiv.target()'
p28
sg13
I3
sg14
Nsg20
g15
sg21
S'indiv.getTailBrightness()'
p29
sg23
g22
sg25
Nsbsbsg20
Nsg21
S'-'
sg23
S'+'
sg25
(i__main__
Node
p30
(dp31
g12
S'-'
sg13
I2
sg14
(i__main__
Node
p32
(dp33
g12
g19
sg13
I3
sg14
Nsg20
g30
sg21
g22
sg23
g24
sg25
Nsbsg20
g10
sg21
S'+'
sg23
S'/'
sg25
(i__main__
Node
p34
(dp35
g12
g28
sg13
I3
sg14
Nsg20
g30
sg21
g29
sg23
g22
sg25
NsbsbsbsS'accel_x'
p36
F0.94952198291070644
sS'accel_y'
p37
F-0.0018661743540242526
sS'visionAngle'
p38
I150
sS'maxAccel'
p39
I2
sS'maxVel'
p40
F0.5
sS'age'
p41
I200
sS'tailSize'
p42
F0
sS'sexualgeno'
p43
NsS'tailBrigh'
p44
F10
sS'maxSteering'
p45
I30
sS'energy'
p46
F0.63647402718426815
sS'lastScale'
p47
F11.864740271842681
sb.(i__main__
Data_mobile
p1
(dp2
S'vel_y'
p3
F-0.17677683791567847
sS'vel_x'
p4
F-0.17677655267748019
sS'pos_x'
p5
F-27.585019424266168
sS'pos_y'
p6
F-18.946596904771038
sS'isAlive'
p7
I01
sS'cumulativeEnergy'
p8
F24.527820965221728
sS'geno'
p9
(i__main__
Node
p10
(dp11
S'vector'
p12
S'+'
sS'depth'
p13
I1
sS'right'
p14
(i__main__
Node
p15
(dp16
g12
S'-'
sg13
I2
sg14
(i__main__
Node
p17
(dp18
g12
S'indiv.currentEnergy()'
p19
sg13
I3
sg14
NsS'parent'
p20
g15
sS'float_size'
p21
S'indiv.getNumPreysNeigh()'
p22
sS'float_bright'
p23
S'indiv.distanceMatingSeason()'
p24
sS'left'
p25
Nsbsg20
g10
sg21
S'+'
sg23
S'/'
sg25
(i__main__
Node
p26
(dp27
g12
S'indiv.target()'
p28
sg13
I3
sg14
Nsg20
g15
sg21
S'indiv.getTailBrightness()'
p29
sg23
g22
sg25
Nsbsbsg20
Nsg21
S'-'
sg23
S'+'
sg25
(i__main__
Node
p30
(dp31
g12
S'-'
sg13
I2
sg14
(i__main__
Node
p32
(dp33
g12
S'indiv.currentVelocity()'
p34
sg13
I3
sg14
Nsg20
g30
sg21
g22
sg23
g29
sg25
Nsbsg20
g10
sg21
S'*'
sg23
S'+'
sg25
(i__main__
Node
p35
(dp36
g12
S'indiv.alignment()'
p37
sg13
I3
sg14
Nsg20
g30
sg21
S'indiv.randF()'
p38
sg23
g29
sg25
NsbsbsbsS'accel_x'
p39
F-0.58469724768446685
sS'accel_y'
p40
F-0.5846974081471934
sS'visionAngle'
p41
I150
sS'maxAccel'
p42
I2
sS'maxVel'
p43
F0.5
sS'age'
p44
I50
sS'tailSize'
p45
F-1531455747074.322
sS'sexualgeno'
p46
NsS'tailBrigh'
p47
F3062911494186.165
sS'maxSteering'
p48
I30
sS'energy'
p49
F0.39896313641752845
sS'lastScale'
p50
F9.591037726879609
sb.(i__main__
Data_mobile
p1
(dp2
S'vel_y'
p3
F-0.35237070450289876
sS'vel_x'
p4
F-0.35236979654604761
sS'pos_x'
p5
F-29.121118057091447
sS'pos_y'
p6
F-21.297821447275386
sS'isAlive'
p7
I01
sS'cumulativeEnergy'
p8
F23.922967795795653
sS'geno'
p9
(i__main__
Node
p10
(dp11
S'vector'
p12
S'+'
sS'depth'
p13
I1
sS'right'
p14
(i__main__
Node
p15
(dp16
g12
S'-'
sg13
I2
sg14
(i__main__
Node
p17
(dp18
g12
S'indiv.currentEnergy()'
p19
sg13
I3
sg14
NsS'parent'
p20
g15
sS'float_size'
p21
S'indiv.getNumPreysNeigh()'
p22
sS'float_bright'
p23
S'indiv.distanceMatingSeason()'
p24
sS'left'
p25
Nsbsg20
g10
sg21
S'+'
sg23
S'/'
sg25
(i__main__
Node
p26
(dp27
g12
S'indiv.target()'
p28
sg13
I3
sg14
Nsg20
g15
sg21
S'indiv.getTailBrightness()'
p29
sg23
g22
sg25
Nsbsbsg20
Nsg21
S'-'
sg23
S'+'
sg25
(i__main__
Node
p30
(dp31
g12
S'-'
sg13
I2
sg14
(i__main__
Node
p32
(dp33
g12
g19
sg13
I3
sg14
Nsg20
g30
sg21
g22
sg23
g24
sg25
Nsbsg20
g10
sg21
S'+'
sg23
S'/'
sg25
(i__main__
Node
p34
(dp35
g12
g28
sg13
I3
sg14
Nsg20
g30
sg21
g29
sg23
g22
sg25
NsbsbsbsS'accel_x'
p36
F-0.48892784546451545
sS'accel_y'
p37
F-0.48892784546451545
sS'visionAngle'
p38
I150
sS'maxAccel'
p39
I2
sS'maxVel'
p40
F0.5
sS'age'
p41
I200
sS'tailSize'
p42
F0
sS'sexualgeno'
p43
NsS'tailBrigh'
p44
F10
sS'maxSteering'
p45
I30
sS'energy'
p46
F0.24446392273225773
sS'lastScale'
p47
F7.9446392273225772
sb.(i__main__
Data_mobile
p1
(dp2
S'vel_y'
p3
F-0.36429607339235165
sS'vel_x'
p4
F-0.34002640753430685
sS'pos_x'
p5
F-41.321392370783293
sS'pos_y'
p6
F26.456915785419788
sS'isAlive'
p7
I01
sS'cumulativeEnergy'
p8
F23.741266676205967
sS'geno'
p9
(i__main__
Node
p10
(dp11
S'vector'
p12
S'+'
sS'depth'
p13
I1
sS'right'
p14
(i__main__
Node
p15
(dp16
g12
S'-'
sg13
I2
sg14
(i__main__
Node
p17
(dp18
g12
S'indiv.currentEnergy()'
p19
sg13
I3
sg14
NsS'parent'
p20
g15
sS'float_size'
p21
S'indiv.getNumPreysNeigh()'
p22
sS'float_bright'
p23
S'indiv.distanceMatingSeason()'
p24
sS'left'
p25
Nsbsg20
g10
sg21
S'+'
sg23
S'/'
sg25
(i__main__
Node
p26
(dp27
g12
S'indiv.target()'
p28
sg13
I3
sg14
Nsg20
g15
sg21
S'indiv.getTailBrightness()'
p29
sg23
g22
sg25
Nsbsbsg20
Nsg21
S'-'
sg23
S'+'
sg25
(i__main__
Node
p30
(dp31
g12
S'-'
sg13
I2
sg14
(i__main__
Node
p32
(dp33
g12
g19
sg13
I3
sg14
Nsg20
g30
sg21
g22
sg23
g24
sg25
Nsbsg20
g10
sg21
S'+'
sg23
S'/'
sg25
(i__main__
Node
p34
(dp35
g12
g28
sg13
I3
sg14
Nsg20
g30
sg21
g29
sg23
g22
sg25
NsbsbsbsS'accel_x'
p36
F-0.39121192404391025
sS'accel_y'
p37
F-0.39121192404391025
sS'visionAngle'
p38
I150
sS'maxAccel'
p39
I2
sS'maxVel'
p40
F0.5
sS'age'
p41
I150
sS'tailSize'
p42
F0
sS'sexualgeno'
p43
NsS'tailBrigh'
p44
F18
sS'maxSteering'
p45
I30
sS'energy'
p46
F0.19560596202195513
sS'lastScale'
p47
F7.456059620219551
sb.(i__main__
Data_mobile
p1
(dp2
S'vel_y'
p3
F0.40302638994086631
sS'vel_x'
p4
F0.2930858507690281
sS'pos_x'
p5
F85.844073159882427
sS'pos_y'
p6
F-93.299903908057928
sS'isAlive'
p7
I01
sS'cumulativeEnergy'
p8
F23.688623952525674
sS'geno'
p9
(i__main__
Node
p10
(dp11
S'vector'
p12
S'+'
sS'depth'
p13
I1
sS'right'
p14
(i__main__
Node
p15
(dp16
g12
S'-'
sg13
I2
sg14
(i__main__
Node
p17
(dp18
g12
S'indiv.currentEnergy()'
p19
sg13
I3
sg14
NsS'parent'
p20
g15
sS'float_size'
p21
S'indiv.getNumPreysNeigh()'
p22
sS'float_bright'
p23
S'indiv.distanceMatingSeason()'
p24
sS'left'
p25
Nsbsg20
g10
sg21
S'+'
sg23
S'/'
sg25
(i__main__
Node
p26
(dp27
g12
S'indiv.target()'
p28
sg13
I3
sg14
Nsg20
g15
sg21
S'indiv.getTailBrightness()'
p29
sg23
g22
sg25
Nsbsbsg20
Nsg21
S'-'
sg23
S'+'
sg25
(i__main__
Node
p30
(dp31
g12
S'-'
sg13
I2
sg14
(i__main__
Node
p32
(dp33
g12
g19
sg13
I3
sg14
Nsg20
g30
sg21
g22
sg23
g24
sg25
Nsbsg20
g10
sg21
S'+'
sg23
S'/'
sg25
(i__main__
Node
p34
(dp35
g12
g28
sg13
I3
sg14
Nsg20
g30
sg21
g29
sg23
g22
sg25
NsbsbsbsS'accel_x'
p36
F-0.8754123711322046
sS'accel_y'
p37
F-0.36421027058137206
sS'visionAngle'
p38
I150
sS'maxAccel'
p39
I2
sS'maxVel'
p40
F0.5
sS'age'
p41
I150
sS'tailSize'
p42
F0
sS'sexualgeno'
p43
NsS'tailBrigh'
p44
F2
sS'maxSteering'
p45
I30
sS'energy'
p46
F0.14796940774958756
sS'lastScale'
p47
F7.4796940774958749
sb.(i__main__
Data_mobile
p1
(dp2
S'vel_y'
p3
F-0.065572065145025712
sS'vel_x'
p4
F-0.49368097097546421
sS'pos_x'
p5
F73.505217810192832
sS'pos_y'
p6
F29.614997013019561
sS'isAlive'
p7
I01
sS'cumulativeEnergy'
p8
F23.388611068926089
sS'geno'
p9
(i__main__
Node
p10
(dp11
S'vector'
p12
S'+'
sS'depth'
p13
I1
sS'right'
p14
(i__main__
Node
p15
(dp16
g12
S'-'
sg13
I2
sg14
(i__main__
Node
p17
(dp18
g12
S'indiv.currentEnergy()'
p19
sg13
I3
sg14
NsS'parent'
p20
g15
sS'float_size'
p21
S'indiv.getNumPreysNeigh()'
p22
sS'float_bright'
p23
S'indiv.distanceMatingSeason()'
p24
sS'left'
p25
Nsbsg20
g10
sg21
S'+'
sg23
S'/'
sg25
(i__main__
Node
p26
(dp27
g12
S'indiv.target()'
p28
sg13
I3
sg14
Nsg20
g15
sg21
S'indiv.getTailBrightness()'
p29
sg23
g22
sg25
Nsbsbsg20
Nsg21
S'-'
sg23
S'+'
sg25
(i__main__
Node
p30
(dp31
g12
S'/'
sg13
I2
sg14
(i__main__
Node
p32
(dp33
g12
S'-'
sg13
I3
sg14
(i__main__
Node
p34
(dp35
g12
g19
sg13
I4
sg14
Nsg20
g32
sg21
g22
sg23
g24
sg25
Nsbsg20
g30
sg21
S'+'
sg23
S'/'
sg25
(i__main__
Node
p36
(dp37
g12
g28
sg13
I4
sg14
Nsg20
g32
sg21
g29
sg23
g22
sg25
Nsbsbsg20
g10
sg21
S'+'
sg23
S'*'
sg25
(i__main__
Node
p38
(dp39
g12
S'*'
sg13
I3
sg14
(i__main__
Node
p40
(dp41
g12
S'indiv.randV()'
p42
sg13
I4
sg14
Nsg20
g38
sg21
g24
sg23
S'indiv.getTailSize()'
p43
sg25
Nsbsg20
g30
sg21
S'/'
sg23
S'*'
sg25
(i__main__
Node
p44
(dp45
g12
S'indiv.cohesion()'
p46
sg13
I4
sg14
Nsg20
g38
sg21
g29
sg23
S'indiv.getEnergy()'
p47
sg25
NsbsbsbsbsS'accel_x'
p48
F-1.4361207756578303
sS'accel_y'
p49
F-1.3919616078484176
sS'visionAngle'
p50
I150
sS'maxAccel'
p51
I2
sS'maxVel'
p52
F0.5
sS'age'
p53
I50
sS'tailSize'
p54
F0.52138424641262704
sS'sexualgeno'
p55
NsS'tailBrigh'
p56
F1.084624546057404
sS'maxSteering'
p57
I30
sS'energy'
p58
F0.49405770337679328
sS'lastScale'
p59
F10.440577033767932
sb.(i__main__
Data_mobile
p1
(dp2
S'vel_y'
p3
F-0.19483296612305526
sS'vel_x'
p4
F-0.33556288321825911
sS'pos_x'
p5
F182.541072329748
sS'pos_y'
p6
F59.771354861225049
sS'isAlive'
p7
I01
sS'cumulativeEnergy'
p8
F23.273728609580271
sS'geno'
p9
(i__main__
Node
p10
(dp11
S'vector'
p12
S'+'
sS'depth'
p13
I1
sS'right'
p14
(i__main__
Node
p15
(dp16
g12
S'-'
sg13
I2
sg14
(i__main__
Node
p17
(dp18
g12
S'indiv.currentEnergy()'
p19
sg13
I3
sg14
NsS'parent'
p20
g15
sS'float_size'
p21
S'indiv.getNumPreysNeigh()'
p22
sS'float_bright'
p23
S'indiv.distanceMatingSeason()'
p24
sS'left'
p25
Nsbsg20
g10
sg21
S'+'
sg23
S'/'
sg25
(i__main__
Node
p26
(dp27
g12
S'indiv.target()'
p28
sg13
I3
sg14
Nsg20
g15
sg21
S'indiv.getTailBrightness()'
p29
sg23
g22
sg25
Nsbsbsg20
Nsg21
S'-'
sg23
S'+'
sg25
(i__main__
Node
p30
(dp31
g12
S'-'
sg13
I2
sg14
(i__main__
Node
p32
(dp33
g12
g19
sg13
I3
sg14
Nsg20
g30
sg21
g22
sg23
g24
sg25
Nsbsg20
g10
sg21
S'+'
sg23
S'/'
sg25
(i__main__
Node
p34
(dp35
g12
g28
sg13
I3
sg14
Nsg20
g30
sg21
g29
sg23
g22
sg25
NsbsbsbsS'accel_x'
p36
F0.94920395096792731
sS'accel_y'
p37
F-0.049500918894977985
sS'visionAngle'
p38
I150
sS'maxAccel'
p39
I2
sS'maxVel'
p40
F0.5
sS'age'
p41
I200
sS'tailSize'
p42
F0
sS'sexualgeno'
p43
NsS'tailBrigh'
p44
F10
sS'maxSteering'
p45
I30
sS'energy'
p46
F0.6077185679608903
sS'lastScale'
p47
F11.577185679608903
sb.(i__main__
Data_mobile
p1
(dp2
S'vel_y'
p3
F-0.49656067812998528
sS'vel_x'
p4
F-0.041917536245124426
sS'pos_x'
p5
F89.66075424421561
sS'pos_y'
p6
F33.410481690570997
sS'isAlive'
p7
I01
sS'cumulativeEnergy'
p8
F23.165511164178984
sS'geno'
p9
(i__main__
Node
p10
(dp11
S'vector'
p12
S'+'
sS'depth'
p13
I1
sS'right'
p14
(i__main__
Node
p15
(dp16
g12
S'-'
sg13
I2
sg14
(i__main__
Node
p17
(dp18
g12
S'indiv.currentEnergy()'
p19
sg13
I3
sg14
NsS'parent'
p20
g15
sS'float_size'
p21
S'indiv.getNumPreysNeigh()'
p22
sS'float_bright'
p23
S'indiv.distanceMatingSeason()'
p24
sS'left'
p25
Nsbsg20
g10
sg21
S'+'
sg23
S'/'
sg25
(i__main__
Node
p26
(dp27
g12
S'indiv.target()'
p28
sg13
I3
sg14
Nsg20
g15
sg21
S'indiv.getTailBrightness()'
p29
sg23
g22
sg25
Nsbsbsg20
Nsg21
S'-'
sg23
S'+'
sg25
(i__main__
Node
p30
(dp31
g12
S'-'
sg13
I2
sg14
(i__main__
Node
p32
(dp33
g12
g19
sg13
I3
sg14
Nsg20
g30
sg21
g22
sg23
g24
sg25
Nsbsg20
g10
sg21
S'+'
sg23
S'/'
sg25
(i__main__
Node
p34
(dp35
g12
g28
sg13
I3
sg14
Nsg20
g30
sg21
g29
sg23
g22
sg25
NsbsbsbsS'accel_x'
p36
F0.5712451528866993
sS'accel_y'
p37
F0.81781471917514215
sS'visionAngle'
p38
I150
sS'maxAccel'
p39
I2
sS'maxVel'
p40
F0.5
sS'age'
p41
I200
sS'tailSize'
p42
F0
sS'sexualgeno'
p43
NsS'tailBrigh'
p44
F14
sS'maxSteering'
p45
I30
sS'energy'
p46
F0.36381198819261767
sS'lastScale'
p47
F9.8380937628942675
sb.(i__main__
Data_mobile
p1
(dp2
S'vel_y'
p3
F0.030360082900897083
sS'vel_x'
p4
F-0.4974010979843359
sS'pos_x'
p5
F182.81643350017453
sS'pos_y'
p6
F59.991920929398262
sS'isAlive'
p7
I01
sS'cumulativeEnergy'
p8
F22.95463005832428
sS'geno'
p9
(i__main__
Node
p10
(dp11
S'vector'
p12
S'+'
sS'depth'
p13
I1
sS'right'
p14
(i__main__
Node
p15
(dp16
g12
S'-'
sg13
I2
sg14
(i__main__
Node
p17
(dp18
g12
S'indiv.currentEnergy()'
p19
sg13
I3
sg14
NsS'parent'
p20
g15
sS'float_size'
p21
S'indiv.getNumPreysNeigh()'
p22
sS'float_bright'
p23
S'indiv.distanceMatingSeason()'
p24
sS'left'
p25
Nsbsg20
g10
sg21
S'+'
sg23
S'/'
sg25
(i__main__
Node
p26
(dp27
g12
S'indiv.target()'
p28
sg13
I3
sg14
Nsg20
g15
sg21
S'indiv.getTailBrightness()'
p29
sg23
g22
sg25
Nsbsbsg20
Nsg21
S'-'
sg23
S'+'
sg25
(i__main__
Node
p30
(dp31
g12
S'-'
sg13
I2
sg14
(i__main__
Node
p32
(dp33
g12
g19
sg13
I3
sg14
Nsg20
g30
sg21
g22
sg23
g24
sg25
Nsbsg20
g10
sg21
S'+'
sg23
S'/'
sg25
(i__main__
Node
p34
(dp35
g12
g28
sg13
I3
sg14
Nsg20
g30
sg21
g29
sg23
g22
sg25
NsbsbsbsS'accel_x'
p36
F0.48296533940555864
sS'accel_y'
p37
F-0.40614932595072983
sS'visionAngle'
p38
I150
sS'maxAccel'
p39
I2
sS'maxVel'
p40
F0.5
sS'age'
p41
I200
sS'tailSize'
p42
F0
sS'sexualgeno'
p43
NsS'tailBrigh'
p44
F10
sS'maxSteering'
p45
I30
sS'energy'
p46
F0.56547670331555355
sS'lastScale'
p47
F11.154767033155537
sb.(i__main__
Data_mobile
p1
(dp2
S'vel_y'
p3
F-0.3522995215917798
sS'vel_x'
p4
F-0.35244096526365271
sS'pos_x'
p5
F-146.93839804207258
sS'pos_y'
p6
F41.570116813283825
sS'isAlive'
p7
I01
sS'cumulativeEnergy'
p8
F20.501228251665353
sS'geno'
p9
(i__main__
Node
p10
(dp11
S'vector'
p12
S'+'
sS'depth'
p13
I1
sS'right'
p14
(i__main__
Node
p15
(dp16
g12
S'-'
sg13
I2
sg14
(i__main__
Node
p17
(dp18
g12
S'indiv.currentEnergy()'
p19
sg13
I3
sg14
NsS'parent'
p20
g15
sS'float_size'
p21
S'indiv.getNumPreysNeigh()'
p22
sS'float_bright'
p23
S'indiv.distanceMatingSeason()'
p24
sS'left'
p25
Nsbsg20
g10
sg21
S'+'
sg23
S'/'
sg25
(i__main__
Node
p26
(dp27
g12
S'indiv.target()'
p28
sg13
I3
sg14
Nsg20
g15
sg21
S'indiv.getTailBrightness()'
p29
sg23
g22
sg25
Nsbsbsg20
Nsg21
S'-'
sg23
S'+'
sg25
(i__main__
Node
p30
(dp31
g12
S'-'
sg13
I2
sg14
(i__main__
Node
p32
(dp33
g12
g19
sg13
I3
sg14
Nsg20
g30
sg21
g22
sg23
g24
sg25
Nsbsg20
g10
sg21
S'+'
sg23
S'/'
sg25
(i__main__
Node
p34
(dp35
g12
g28
sg13
I3
sg14
Nsg20
g30
sg21
g29
sg23
g22
sg25
NsbsbsbsS'accel_x'
p36
F-0.85522638860951328
sS'accel_y'
p37
F-0.85522638860951328
sS'visionAngle'
p38
I150
sS'maxAccel'
p39
I2
sS'maxVel'
p40
F0.5
sS'age'
p41
I150
sS'tailSize'
p42
F0
sS'sexualgeno'
p43
NsS'tailBrigh'
p44
F14
sS'maxSteering'
p45
I30
sS'energy'
p46
F0.42761319430475664
sS'lastScale'
p47
F9.7761319430475666
sb.(i__main__
Data_mobile
p1
(dp2
S'vel_y'
p3
F-0.22889024734681027
sS'vel_x'
p4
F-0.44264979563904494
sS'pos_x'
p5
F-37.210101343900831
sS'pos_y'
p6
F26.73887552903907
sS'isAlive'
p7
I01
sS'cumulativeEnergy'
p8
F20.412500551406204
sS'geno'
p9
(i__main__
Node
p10
(dp11
S'vector'
p12
S'+'
sS'depth'
p13
I1
sS'right'
p14
(i__main__
Node
p15
(dp16
g12
S'-'
sg13
I2
sg14
(i__main__
Node
p17
(dp18
g12
S'indiv.currentEnergy()'
p19
sg13
I3
sg14
NsS'parent'
p20
g15
sS'float_size'
p21
S'indiv.getNumPreysNeigh()'
p22
sS'float_bright'
p23
S'indiv.distanceMatingSeason()'
p24
sS'left'
p25
Nsbsg20
g10
sg21
S'+'
sg23
S'/'
sg25
(i__main__
Node
p26
(dp27
g12
S'indiv.target()'
p28
sg13
I3
sg14
Nsg20
g15
sg21
S'indiv.getTailBrightness()'
p29
sg23
g22
sg25
Nsbsbsg20
Nsg21
S'-'
sg23
S'+'
sg25
(i__main__
Node
p30
(dp31
g12
S'-'
sg13
I2
sg14
(i__main__
Node
p32
(dp33
g12
g19
sg13
I3
sg14
Nsg20
g30
sg21
g22
sg23
g24
sg25
Nsbsg20
g10
sg21
S'+'
sg23
S'/'
sg25
(i__main__
Node
p34
(dp35
g12
g28
sg13
I3
sg14
Nsg20
g30
sg21
g29
sg23
g22
sg25
NsbsbsbsS'accel_x'
p36
F0
sS'accel_y'
p37
F0
sS'visionAngle'
p38
I150
sS'maxAccel'
p39
I2
sS'maxVel'
p40
F0.5
sS'age'
p41
I100
sS'tailSize'
p42
F0
sS'sexualgeno'
p43
NsS'tailBrigh'
p44
F18
sS'maxSteering'
p45
I30
sS'energy'
p46
I0
sS'lastScale'
p47
F5.5
sb.(i__main__
Data_mobile
p1
(dp2
S'vel_y'
p3
F0.179052198715386
sS'vel_x'
p4
F0.46504827388665593
sS'pos_x'
p5
F183.83722651524704
sS'pos_y'
p6
F59.994906329944911
sS'isAlive'
p7
I01
sS'cumulativeEnergy'
p8
F19.726509569762385
sS'geno'
p9
(i__main__
Node
p10
(dp11
S'vector'
p12
S'+'
sS'depth'
p13
I1
sS'right'
p14
(i__main__
Node
p15
(dp16
g12
S'-'
sg13
I2
sg14
(i__main__
Node
p17
(dp18
g12
S'indiv.currentEnergy()'
p19
sg13
I3
sg14
NsS'parent'
p20
g15
sS'float_size'
p21
S'indiv.getNumPreysNeigh()'
p22
sS'float_bright'
p23
S'indiv.distanceMatingSeason()'
p24
sS'left'
p25
Nsbsg20
g10
sg21
S'+'
sg23
S'/'
sg25
(i__main__
Node
p26
(dp27
g12
S'indiv.target()'
p28
sg13
I3
sg14
Nsg20
g15
sg21
S'indiv.getTailBrightness()'
p29
sg23
g22
sg25
Nsbsbsg20
Nsg21
S'-'
sg23
S'+'
sg25
(i__main__
Node
p30
(dp31
g12
S'-'
sg13
I2
sg14
(i__main__
Node
p32
(dp33
g12
g19
sg13
I3
sg14
Nsg20
g30
sg21
g22
sg23
g24
sg25
Nsbsg20
g10
sg21
S'+'
sg23
S'/'
sg25
(i__main__
Node
p34
(dp35
g12
g28
sg13
I3
sg14
Nsg20
g30
sg21
g29
sg23
g22
sg25
NsbsbsbsS'accel_x'
p36
F-1.0387150846278697
sS'accel_y'
p37
F0.10778547906757052
sS'visionAngle'
p38
I150
sS'maxAccel'
p39
I2
sS'maxVel'
p40
F0.5
sS'age'
p41
I200
sS'tailSize'
p42
F0
sS'sexualgeno'
p43
NsS'tailBrigh'
p44
F10
sS'maxSteering'
p45
I30
sS'energy'
p46
F0.30552390025975434
sS'lastScale'
p47
F8.555239002597542
sb.(i__main__
Data_mobile
p1
(dp2
S'vel_y'
p3
F0.2136676336885896
sS'vel_x'
p4
F-0.45019521235092097
sS'pos_x'
p5
F182.9322246014444
sS'pos_y'
p6
F60.359030325636063
sS'isAlive'
p7
I01
sS'cumulativeEnergy'
p8
F18.291078388386964
sS'geno'
p9
(i__main__
Node
p10
(dp11
S'vector'
p12
S'+'
sS'depth'
p13
I1
sS'right'
p14
(i__main__
Node
p15
(dp16
g12
S'-'
sg13
I2
sg14
(i__main__
Node
p17
(dp18
g12
S'indiv.currentEnergy()'
p19
sg13
I3
sg14
NsS'parent'
p20
g15
sS'float_size'
p21
S'indiv.getNumPreysNeigh()'
p22
sS'float_bright'
p23
S'indiv.distanceMatingSeason()'
p24
sS'left'
p25
Nsbsg20
g10
sg21
S'+'
sg23
S'/'
sg25
(i__main__
Node
p26
(dp27
g12
S'indiv.target()'
p28
sg13
I3
sg14
Nsg20
g15
sg21
S'indiv.getTailBrightness()'
p29
sg23
g22
sg25
Nsbsbsg20
Nsg21
S'-'
sg23
S'+'
sg25
(i__main__
Node
p30
(dp31
g12
S'-'
sg13
I2
sg14
(i__main__
Node
p32
(dp33
g12
g19
sg13
I3
sg14
Nsg20
g30
sg21
g22
sg23
g24
sg25
Nsbsg20
g10
sg21
S'+'
sg23
S'/'
sg25
(i__main__
Node
p34
(dp35
g12
g28
sg13
I3
sg14
Nsg20
g30
sg21
g29
sg23
g22
sg25
NsbsbsbsS'accel_x'
p36
F0.51619745968092412
sS'accel_y'
p37
F-0.87555379561121105
sS'visionAngle'
p38
I150
sS'maxAccel'
p39
I2
sS'maxVel'
p40
F0.5
sS'age'
p41
I250
sS'tailSize'
p42
F0
sS'sexualgeno'
p43
NsS'tailBrigh'
p44
F10
sS'maxSteering'
p45
I30
sS'energy'
p46
F0.43306954190799318
sS'lastScale'
p47
F9.8306954190799321
sb.(i__main__
Data_mobile
p1
(dp2
S'vel_y'
p3
F0.46300134409208044
sS'vel_x'
p4
F-0.11486215777567217
sS'pos_x'
p5
F61.575354546440053
sS'pos_y'
p6
F-12.122068390828383
sS'isAlive'
p7
I01
sS'cumulativeEnergy'
p8
F17.603157548614977
sS'geno'
p9
(i__main__
Node
p10
(dp11
S'vector'
p12
S'+'
sS'depth'
p13
I1
sS'right'
p14
(i__main__
Node
p15
(dp16
g12
S'-'
sg13
I2
sg14
(i__main__
Node
p17
(dp18
g12
S'indiv.currentEnergy()'
p19
sg13
I3
sg14
NsS'parent'
p20
g15
sS'float_size'
p21
S'indiv.getNumPreysNeigh()'
p22
sS'float_bright'
p23
S'indiv.distanceMatingSeason()'
p24
sS'left'
p25
Nsbsg20
g10
sg21
S'+'
sg23
S'/'
sg25
(i__main__
Node
p26
(dp27
g12
S'indiv.target()'
p28
sg13
I3
sg14
Nsg20
g15
sg21
S'indiv.getTailBrightness()'
p29
sg23
g22
sg25
Nsbsbsg20
Nsg21
S'-'
sg23
S'+'
sg25
(i__main__
Node
p30
(dp31
g12
S'/'
sg13
I2
sg14
(i__main__
Node
p32
(dp33
g12
S'-'
sg13
I3
sg14
(i__main__
Node
p34
(dp35
g12
S'indiv.separation()'
p36
sg13
I4
sg14
Nsg20
g32
sg21
g22
sg23
g24
sg25
Nsbsg20
g30
sg21
S'+'
sg23
S'/'
sg25
(i__main__
Node
p37
(dp38
g12
S'indiv.flee()'
p39
sg13
I4
sg14
Nsg20
g32
sg21
S'indiv.getNumPredatorsNeigh()'
p40
sg23
g24
sg25
Nsbsbsg20
g10
sg21
S'+'
sg23
S'*'
sg25
(i__main__
Node
p41
(dp42
g12
S'*'
sg13
I3
sg14
(i__main__
Node
p43
(dp44
g12
S'indiv.randV()'
p45
sg13
I4
sg14
Nsg20
g41
sg21
g24
sg23
S'indiv.getTailSize()'
p46
sg25
Nsbsg20
g30
sg21
S'/'
sg23
S'*'
sg25
(i__main__
Node
p47
(dp48
g12
S'indiv.cohesion()'
p49
sg13
I4
sg14
Nsg20
g41
sg21
g29
sg23
S'indiv.getEnergy()'
p50
sg25
NsbsbsbsbsS'accel_x'
p51
F-0.46821292240814938
sS'accel_y'
p52
F-0.5593928994320817
sS'visionAngle'
p53
I150
sS'maxAccel'
p54
I2
sS'maxVel'
p55
F0.5
sS'age'
p56
I50
sS'tailSize'
p57
F3
sS'sexualgeno'
p58
NsS'tailBrigh'
p59
F0.58629535976034053
sS'maxSteering'
p60
I30
sS'energy'
p61
F0.24615904929341215
sS'lastScale'
p62
F8.1644032183427715
sb.(i__main__
Data_mobile
p1
(dp2
S'vel_y'
p3
F-0.49818835008173701
sS'vel_x'
p4
F-0.011745414109720586
sS'pos_x'
p5
F89.793304981252859
sS'pos_y'
p6
F33.501016957821385
sS'isAlive'
p7
I01
sS'cumulativeEnergy'
p8
F17.50234325006458
sS'geno'
p9
(i__main__
Node
p10
(dp11
S'vector'
p12
S'+'
sS'depth'
p13
I1
sS'right'
p14
(i__main__
Node
p15
(dp16
g12
S'-'
sg13
I2
sg14
(i__main__
Node
p17
(dp18
g12
S'indiv.currentEnergy()'
p19
sg13
I3
sg14
NsS'parent'
p20
g15
sS'float_size'
p21
S'indiv.getNumPreysNeigh()'
p22
sS'float_bright'
p23
S'indiv.distanceMatingSeason()'
p24
sS'left'
p25
Nsbsg20
g10
sg21
S'+'
sg23
S'/'
sg25
(i__main__
Node
p26
(dp27
g12
S'indiv.target()'
p28
sg13
I3
sg14
Nsg20
g15
sg21
S'indiv.getTailBrightness()'
p29
sg23
g22
sg25
Nsbsbsg20
Nsg21
S'-'
sg23
S'+'
sg25
(i__main__
Node
p30
(dp31
g12
S'-'
sg13
I2
sg14
(i__main__
Node
p32
(dp33
g12
g19
sg13
I3
sg14
Nsg20
g30
sg21
g22
sg23
g24
sg25
Nsbsg20
g10
sg21
S'+'
sg23
S'/'
sg25
(i__main__
Node
p34
(dp35
g12
g28
sg13
I3
sg14
Nsg20
g30
sg21
g29
sg23
g22
sg25
NsbsbsbsS'accel_x'
p36
F0.46046852499423507
sS'accel_y'
p37
F0.79106903085640012
sS'visionAngle'
p38
I150
sS'maxAccel'
p39
I2
sS'maxVel'
p40
F0.5
sS'age'
p41
I50
sS'tailSize'
p42
F0
sS'sexualgeno'
p43
NsS'tailBrigh'
p44
F14
sS'maxSteering'
p45
I30
sS'energy'
p46
F0.30664695319840968
sS'lastScale'
p47
F9.0664695319840973
sb.(i__main__
Data_mobile
p1
(dp2
S'vel_y'
p3
F-0.35068990435054104
sS'vel_x'
p4
F-0.35068990435053682
sS'pos_x'
p5
F206.86076072483525
sS'pos_y'
p6
F-92.704114742756673
sS'isAlive'
p7
I01
sS'cumulativeEnergy'
p8
F16.260279512352202
sS'geno'
p9
(i__main__
Node
p10
(dp11
S'vector'
p12
S'+'
sS'depth'
p13
I1
sS'right'
p14
(i__main__
Node
p15
(dp16
g14
(i__main__
Node
p17
(dp18
g14
NsS'parent'
p19
g15
sg13
I3
sg12
S'indiv.flee()'
p20
sS'float_size'
p21
S'indiv.getTailBrightness()'
p22
sS'float_bright'
p23
g22
sS'left'
p24
Nsbsg19
g10
sg13
I2
sg12
S'/'
sg21
S'-'
sg23
S'/'
sg24
(i__main__
Node
p25
(dp26
g14
Nsg19
g15
sg13
I3
sg12
S'indiv.randV()'
p27
sg21
g22
sg23
S'indiv.distanceMatingSeason()'
p28
sg24
Nsbsbsg19
Nsg21
S'-'
sg23
S'+'
sg24
(i__main__
Node
p29
(dp30
g12
S'-'
sg13
I2
sg14
(i__main__
Node
p31
(dp32
g12
S'indiv.currentEnergy()'
p33
sg13
I3
sg14
Nsg19
g29
sg21
S'indiv.getNumPreysNeigh()'
p34
sg23
g28
sg24
Nsbsg19
g10
sg21
S'+'
sg23
S'/'
sg24
(i__main__
Node
p35
(dp36
g12
S'indiv.target()'
p37
sg13
I3
sg14
Nsg19
g29
sg21
g22
sg23
g34
sg24
NsbsbsbsS'accel_x'
p38
F-0.023654936071232559
sS'accel_y'
p39
F-0.023654936071232559
sS'visionAngle'
p40
I150
sS'maxAccel'
p41
I2
sS'maxVel'
p42
F0.5
sS'age'
p43
I50
sS'tailSize'
p44
F2.2384297663087969
sS'sexualgeno'
p45
NsS'tailBrigh'
p46
F0.44674173612738116
sS'maxSteering'
p47
I30
sS'energy'
p48
F0.023654936071232559
sS'lastScale'
p49
F5.7365493607123259
sb.(i__main__
Data_mobile
p1
(dp2
S'vel_y'
p3
F-0.35237144257552355
sS'vel_x'
p4
F-0.35236905846997496
sS'pos_x'
p5
F-99.93535590972472
sS'pos_y'
p6
F-53.796553114255886
sS'isAlive'
p7
I01
sS'cumulativeEnergy'
p8
F16.02857189060305
sS'geno'
p9
(i__main__
Node
p10
(dp11
S'vector'
p12
S'+'
sS'depth'
p13
I1
sS'right'
p14
(i__main__
Node
p15
(dp16
g12
S'-'
sg13
I2
sg14
(i__main__
Node
p17
(dp18
g12
S'indiv.currentEnergy()'
p19
sg13
I3
sg14
NsS'parent'
p20
g15
sS'float_size'
p21
S'indiv.getNumPreysNeigh()'
p22
sS'float_bright'
p23
S'indiv.distanceMatingSeason()'
p24
sS'left'
p25
Nsbsg20
g10
sg21
S'+'
sg23
S'/'
sg25
(i__main__
Node
p26
(dp27
g12
S'indiv.target()'
p28
sg13
I3
sg14
Nsg20
g15
sg21
S'indiv.getTailBrightness()'
p29
sg23
g22
sg25
Nsbsbsg20
Nsg21
S'-'
sg23
S'+'
sg25
(i__main__
Node
p30
(dp31
g12
S'-'
sg13
I2
sg14
(i__main__
Node
p32
(dp33
g12
g19
sg13
I3
sg14
Nsg20
g30
sg21
g22
sg23
g24
sg25
Nsbsg20
g10
sg21
S'+'
sg23
S'/'
sg25
(i__main__
Node
p34
(dp35
g12
g28
sg13
I3
sg14
Nsg20
g30
sg21
g29
sg23
g22
sg25
NsbsbsbsS'accel_x'
p36
F-0.40726770167124349
sS'accel_y'
p37
F-0.40726770167124349
sS'visionAngle'
p38
I150
sS'maxAccel'
p39
I2
sS'maxVel'
p40
F0.5
sS'age'
p41
I50
sS'tailSize'
p42
F0
sS'sexualgeno'
p43
NsS'tailBrigh'
p44
F22
sS'maxSteering'
p45
I30
sS'energy'
p46
F0.20363385083562174
sS'lastScale'
p47
F7.5363385083562164
sb.(i__main__
Data_mobile
p1
(dp2
S'vel_y'
p3
F-0.47842002290357588
sS'vel_x'
p4
F-0.14065199446112625
sS'pos_x'
p5
F-95.247103182493007
sS'pos_y'
p6
F98.397320316124052
sS'isAlive'
p7
I01
sS'cumulativeEnergy'
p8
F14.381785735056473
sS'geno'
p9
(i__main__
Node
p10
(dp11
S'vector'
p12
S'+'
sS'depth'
p13
I1
sS'right'
p14
(i__main__
Node
p15
(dp16
g12
S'-'
sg13
I2
sg14
(i__main__
Node
p17
(dp18
g12
S'indiv.currentEnergy()'
p19
sg13
I3
sg14
NsS'parent'
p20
g15
sS'float_size'
p21
S'indiv.getNumPreysNeigh()'
p22
sS'float_bright'
p23
S'indiv.distanceMatingSeason()'
p24
sS'left'
p25
Nsbsg20
g10
sg21
S'+'
sg23
S'/'
sg25
(i__main__
Node
p26
(dp27
g12
S'indiv.target()'
p28
sg13
I3
sg14
Nsg20
g15
sg21
S'indiv.getTailBrightness()'
p29
sg23
g22
sg25
Nsbsbsg20
Nsg21
S'-'
sg23
S'+'
sg25
(i__main__
Node
p30
(dp31
g14
(i__main__
Node
p32
(dp33
g14
Nsg20
g30
sg13
I3
sg12
S'indiv.separation()'
p34
sg21
S'indiv.getEnergy()'
p35
sg23
g22
sg25
Nsbsg20
g10
sg13
I2
sg12
S'+'
sg21
S'+'
sg23
S'*'
sg25
(i__main__
Node
p36
(dp37
g14
Nsg20
g30
sg13
I3
sg12
S'indiv.randV()'
p38
sg21
g22
sg23
S'indiv.getNumPredatorsNeigh()'
p39
sg25
NsbsbsbsS'accel_x'
p40
F0.61569206750843852
sS'accel_y'
p41
F0.54926498125061851
sS'visionAngle'
p42
I150
sS'maxAccel'
p43
I2
sS'maxVel'
p44
F0.5
sS'age'
p45
I50
sS'tailSize'
p46
F-0.40554304667930041
sS'sexualgeno'
p47
NsS'tailBrigh'
p48
F1
sS'maxSteering'
p49
I30
sS'energy'
p50
F0.09445695332069963
sS'lastScale'
p51
F6.4445695332069963
sb.(i__main__
Data_mobile
p1
(dp2
S'vel_y'
p3
F-0.49463261831430616
sS'vel_x'
p4
F-0.060565335046593331
sS'pos_x'
p5
F-180.35570039959157
sS'pos_y'
p6
F-77.874274401377036
sS'isAlive'
p7
I01
sS'cumulativeEnergy'
p8
F13.199257637880816
sS'geno'
p9
(i__main__
Node
p10
(dp11
S'vector'
p12
S'+'
sS'depth'
p13
I1
sS'right'
p14
(i__main__
Node
p15
(dp16
g12
S'-'
sg13
I2
sg14
(i__main__
Node
p17
(dp18
g12
S'indiv.currentEnergy()'
p19
sg13
I3
sg14
NsS'parent'
p20
g15
sS'float_size'
p21
S'indiv.getNumPreysNeigh()'
p22
sS'float_bright'
p23
S'indiv.distanceMatingSeason()'
p24
sS'left'
p25
Nsbsg20
g10
sg21
S'+'
sg23
S'/'
sg25
(i__main__
Node
p26
(dp27
g12
S'indiv.target()'
p28
sg13
I3
sg14
Nsg20
g15
sg21
S'indiv.getTailBrightness()'
p29
sg23
g22
sg25
Nsbsbsg20
Nsg21
S'-'
sg23
S'+'
sg25
(i__main__
Node
p30
(dp31
g12
S'-'
sg13
I2
sg14
(i__main__
Node
p32
(dp33
g12
g19
sg13
I3
sg14
Nsg20
g30
sg21
g22
sg23
g24
sg25
Nsbsg20
g10
sg21
S'+'
sg23
S'/'
sg25
(i__main__
Node
p34
(dp35
g12
g28
sg13
I3
sg14
Nsg20
g30
sg21
g29
sg23
g22
sg25
NsbsbsbsS'accel_x'
p36
F0.52413323311030324
sS'accel_y'
p37
F0.71811225401095924
sS'visionAngle'
p38
I150
sS'maxAccel'
p39
I2
sS'maxVel'
p40
F0.5
sS'age'
p41
I50
sS'tailSize'
p42
F0
sS'sexualgeno'
p43
NsS'tailBrigh'
p44
F0
sS'maxSteering'
p45
I30
sS'energy'
p46
F0.3449103347622578
sS'lastScale'
p47
F8.949103347622577
sb.(i__main__
Data_mobile
p1
(dp2
S'vel_y'
p3
F-0.35237025052408188
sS'vel_x'
p4
F-0.35237025052544946
sS'pos_x'
p5
F-196.13757325836829
sS'pos_y'
p6
F-93.420181735727354
sS'isAlive'
p7
I01
sS'cumulativeEnergy'
p8
F12.148334166980996
sS'geno'
p9
(i__main__
Node
p10
(dp11
S'vector'
p12
S'+'
sS'depth'
p13
I1
sS'right'
p14
(i__main__
Node
p15
(dp16
g12
S'-'
sg13
I2
sg14
(i__main__
Node
p17
(dp18
g12
S'indiv.currentEnergy()'
p19
sg13
I3
sg14
NsS'parent'
p20
g15
sS'float_size'
p21
S'indiv.getNumPreysNeigh()'
p22
sS'float_bright'
p23
S'indiv.distanceMatingSeason()'
p24
sS'left'
p25
Nsbsg20
g10
sg21
S'+'
sg23
S'/'
sg25
(i__main__
Node
p26
(dp27
g12
S'indiv.target()'
p28
sg13
I3
sg14
Nsg20
g15
sg21
S'indiv.getTailBrightness()'
p29
sg23
g22
sg25
Nsbsbsg20
Nsg21
S'-'
sg23
S'+'
sg25
(i__main__
Node
p30
(dp31
g12
S'-'
sg13
I2
sg14
(i__main__
Node
p32
(dp33
g12
g19
sg13
I3
sg14
Nsg20
g30
sg21
g22
sg23
g24
sg25
Nsbsg20
g10
sg21
S'+'
sg23
S'/'
sg25
(i__main__
Node
p34
(dp35
g12
g28
sg13
I3
sg14
Nsg20
g30
sg21
g29
sg23
g22
sg25
NsbsbsbsS'accel_x'
p36
F0
sS'accel_y'
p37
F0
sS'visionAngle'
p38
I150
sS'maxAccel'
p39
I2
sS'maxVel'
p40
F0.5
sS'age'
p41
I50
sS'tailSize'
p42
F0
sS'sexualgeno'
p43
NsS'tailBrigh'
p44
F0
sS'maxSteering'
p45
I30
sS'energy'
p46
I0
sS'lastScale'
p47
F5.5
sb.(i__main__
Data_mobile
p1
(dp2
S'vel_y'
p3
F-0.35237025052477033
sS'vel_x'
p4
F-0.35237025052476084
sS'pos_x'
p5
F36.00409472256711
sS'pos_y'
p6
F-86.623647768626967
sS'isAlive'
p7
I01
sS'cumulativeEnergy'
p8
F12.147660751918931
sS'geno'
p9
(i__main__
Node
p10
(dp11
S'vector'
p12
S'+'
sS'depth'
p13
I1
sS'right'
p14
(i__main__
Node
p15
(dp16
g12
S'-'
sg13
I2
sg14
(i__main__
Node
p17
(dp18
g12
S'indiv.currentEnergy()'
p19
sg13
I3
sg14
NsS'parent'
p20
g15
sS'float_size'
p21
S'indiv.getNumPreysNeigh()'
p22
sS'float_bright'
p23
S'indiv.distanceMatingSeason()'
p24
sS'left'
p25
Nsbsg20
g10
sg21
S'+'
sg23
S'/'
sg25
(i__main__
Node
p26
(dp27
g12
S'indiv.target()'
p28
sg13
I3
sg14
Nsg20
g15
sg21
S'indiv.getTailBrightness()'
p29
sg23
g22
sg25
Nsbsbsg20
Nsg21
S'-'
sg23
S'+'
sg25
(i__main__
Node
p30
(dp31
g12
S'-'
sg13
I2
sg14
(i__main__
Node
p32
(dp33
g12
g19
sg13
I3
sg14
Nsg20
g30
sg21
g22
sg23
g24
sg25
Nsbsg20
g10
sg21
S'+'
sg23
S'/'
sg25
(i__main__
Node
p34
(dp35
g12
g28
sg13
I3
sg14
Nsg20
g30
sg21
g29
sg23
g22
sg25
NsbsbsbsS'accel_x'
p36
F0
sS'accel_y'
p37
F0
sS'visionAngle'
p38
I150
sS'maxAccel'
p39
I2
sS'maxVel'
p40
F0.5
sS'age'
p41
I50
sS'tailSize'
p42
F0
sS'sexualgeno'
p43
NsS'tailBrigh'
p44
F0
sS'maxSteering'
p45
I30
sS'energy'
p46
I0
sS'lastScale'
p47
F5.5
sb.(i__main__
Data_mobile
p1
(dp2
S'vel_y'
p3
F-0.34748729828497554
sS'vel_x'
p4
F-0.35718645612674144
sS'pos_x'
p5
F-89.256388495134416
sS'pos_y'
p6
F-48.166133354059077
sS'isAlive'
p7
I01
sS'cumulativeEnergy'
p8
F12.133389627964315
sS'geno'
p9
(i__main__
Node
p10
(dp11
S'vector'
p12
S'+'
sS'depth'
p13
I1
sS'right'
p14
(i__main__
Node
p15
(dp16
g12
S'-'
sg13
I2
sg14
(i__main__
Node
p17
(dp18
g12
S'indiv.currentEnergy()'
p19
sg13
I3
sg14
NsS'parent'
p20
g15
sS'float_size'
p21
S'indiv.getNumPreysNeigh()'
p22
sS'float_bright'
p23
S'indiv.distanceMatingSeason()'
p24
sS'left'
p25
Nsbsg20
g10
sg21
S'+'
sg23
S'/'
sg25
(i__main__
Node
p26
(dp27
g12
S'indiv.target()'
p28
sg13
I3
sg14
Nsg20
g15
sg21
S'indiv.getTailBrightness()'
p29
sg23
g22
sg25
Nsbsbsg20
Nsg21
S'-'
sg23
S'+'
sg25
(i__main__
Node
p30
(dp31
g12
S'-'
sg13
I2
sg14
(i__main__
Node
p32
(dp33
g12
g19
sg13
I3
sg14
Nsg20
g30
sg21
g22
sg23
g24
sg25
Nsbsg20
g10
sg21
S'+'
sg23
S'/'
sg25
(i__main__
Node
p34
(dp35
g12
g28
sg13
I3
sg14
Nsg20
g30
sg21
g29
sg23
g22
sg25
NsbsbsbsS'accel_x'
p36
F0
sS'accel_y'
p37
F0
sS'visionAngle'
p38
I150
sS'maxAccel'
p39
I2
sS'maxVel'
p40
F0.5
sS'age'
p41
I50
sS'tailSize'
p42
F0
sS'sexualgeno'
p43
NsS'tailBrigh'
p44
F2
sS'maxSteering'
p45
I30
sS'energy'
p46
I0
sS'lastScale'
p47
F5.5
sb.(i__main__
Data_mobile
p1
(dp2
S'vel_y'
p3
F-0.41583557949222261
sS'vel_x'
p4
F-0.2720507499212394
sS'pos_x'
p5
F46.607047111938414
sS'pos_y'
p6
F13.106442912406468
sS'isAlive'
p7
I01
sS'cumulativeEnergy'
p8
F0.5
sS'geno'
p9
(i__main__
Node
p10
(dp11
S'vector'
p12
S'+'
sS'depth'
p13
I1
sS'right'
p14
(i__main__
Node
p15
(dp16
g12
S'-'
sg13
I2
sg14
(i__main__
Node
p17
(dp18
g12
S'indiv.currentEnergy()'
p19
sg13
I3
sg14
NsS'parent'
p20
g15
sS'float_size'
p21
S'indiv.getNumPreysNeigh()'
p22
sS'float_bright'
p23
S'indiv.distanceMatingSeason()'
p24
sS'left'
p25
Nsbsg20
g10
sg21
S'+'
sg23
S'/'
sg25
(i__main__
Node
p26
(dp27
g12
S'indiv.target()'
p28
sg13
I3
sg14
Nsg20
g15
sg21
S'indiv.getTailBrightness()'
p29
sg23
g22
sg25
Nsbsbsg20
Nsg21
S'-'
sg23
S'+'
sg25
(i__main__
Node
p30
(dp31
g12
S'-'
sg13
I2
sg14
(i__main__
Node
p32
(dp33
g12
g19
sg13
I3
sg14
Nsg20
g30
sg21
g22
sg23
g24
sg25
Nsbsg20
g10
sg21
S'+'
sg23
S'/'
sg25
(i__main__
Node
p34
(dp35
g12
g28
sg13
I3
sg14
Nsg20
g30
sg21
g29
sg23
g22
sg25
NsbsbsbsS'accel_x'
p36
F0
sS'accel_y'
p37
F0
sS'visionAngle'
p38
I150
sS'maxAccel'
p39
I2
sS'maxVel'
p40
F0.5
sS'age'
p41
I0
sS'tailSize'
p42
F-2.16968356431166e-005
sS'sexualgeno'
p43
NsS'tailBrigh'
p44
F0
sS'maxSteering'
p45
I30
sS'energy'
p46
F0.5
sS'lastScale'
p47
F5.5
sb.(i__main__
Data_mobile
p1
(dp2
S'vel_y'
p3
F-0.35151203463810177
sS'vel_x'
p4
F0.34900507700836064
sS'pos_x'
p5
F39.938357083068716
sS'pos_y'
p6
F-47.611613497969834
sS'isAlive'
p7
I01
sS'cumulativeEnergy'
p8
F0.5
sS'geno'
p9
(i__main__
Node
p10
(dp11
S'vector'
p12
S'+'
sS'depth'
p13
I1
sS'right'
p14
(i__main__
Node
p15
(dp16
g12
S'-'
sg13
I2
sg14
(i__main__
Node
p17
(dp18
g12
S'indiv.currentEnergy()'
p19
sg13
I3
sg14
NsS'parent'
p20
g15
sS'float_size'
p21
S'indiv.getNumPreysNeigh()'
p22
sS'float_bright'
p23
S'indiv.distanceMatingSeason()'
p24
sS'left'
p25
Nsbsg20
g10
sg21
S'+'
sg23
S'/'
sg25
(i__main__
Node
p26
(dp27
g12
S'indiv.target()'
p28
sg13
I3
sg14
Nsg20
g15
sg21
S'indiv.getTailBrightness()'
p29
sg23
g22
sg25
Nsbsbsg20
Nsg21
S'-'
sg23
S'+'
sg25
(i__main__
Node
p30
(dp31
g12
S'-'
sg13
I2
sg14
(i__main__
Node
p32
(dp33
g12
g19
sg13
I3
sg14
Nsg20
g30
sg21
g22
sg23
g24
sg25
Nsbsg20
g10
sg21
S'+'
sg23
S'/'
sg25
(i__main__
Node
p34
(dp35
g12
g28
sg13
I3
sg14
Nsg20
g30
sg21
g29
sg23
g22
sg25
NsbsbsbsS'accel_x'
p36
F0
sS'accel_y'
p37
F0
sS'visionAngle'
p38
I150
sS'maxAccel'
p39
I2
sS'maxVel'
p40
F0.5
sS'age'
p41
I0
sS'tailSize'
p42
F0
sS'sexualgeno'
p43
NsS'tailBrigh'
p44
F0.45454545454545453
sS'maxSteering'
p45
I30
sS'energy'
p46
F0.5
sS'lastScale'
p47
F5.5
sb.(i__main__
Data_mobile
p1
(dp2
S'vel_y'
p3
F-0.31433891594907248
sS'vel_x'
p4
F-0.37373831810174984
sS'pos_x'
p5
F-33.050872213776294
sS'pos_y'
p6
F-23.319652355224321
sS'isAlive'
p7
I01
sS'cumulativeEnergy'
p8
F0.5
sS'geno'
p9
(i__main__
Node
p10
(dp11
S'vector'
p12
S'+'
sS'depth'
p13
I1
sS'right'
p14
(i__main__
Node
p15
(dp16
g14
(i__main__
Node
p17
(dp18
g14
NsS'parent'
p19
g15
sg13
I3
sg12
S'indiv.alignment()'
p20
sS'float_size'
p21
S'indiv.distanceMatingSeason()'
p22
sS'float_bright'
p23
S'indiv.getNumPredatorsNeigh()'
p24
sS'left'
p25
Nsbsg19
g10
sg13
I2
sg12
S'*'
sg21
S'*'
sg23
S'*'
sg25
(i__main__
Node
p26
(dp27
g14
Nsg19
g15
sg13
I3
sg12
g20
sg21
S'indiv.getNumPreysNeigh()'
p28
sg23
g24
sg25
Nsbsbsg19
Nsg21
S'-'
sg23
S'+'
sg25
(i__main__
Node
p29
(dp30
g12
S'-'
sg13
I2
sg14
(i__main__
Node
p31
(dp32
g12
S'indiv.currentEnergy()'
p33
sg13
I3
sg14
Nsg19
g29
sg21
g28
sg23
g22
sg25
Nsbsg19
g10
sg21
S'+'
sg23
S'/'
sg25
(i__main__
Node
p34
(dp35
g12
S'indiv.target()'
p36
sg13
I3
sg14
Nsg19
g29
sg21
S'indiv.getTailBrightness()'
p37
sg23
g28
sg25
NsbsbsbsS'accel_x'
p38
F0
sS'accel_y'
p39
F0
sS'visionAngle'
p40
I150
sS'maxAccel'
p41
I2
sS'maxVel'
p42
F0.5
sS'age'
p43
I0
sS'tailSize'
p44
F0
sS'sexualgeno'
p45
NsS'tailBrigh'
p46
F0.42105263157894735
sS'maxSteering'
p47
I30
sS'energy'
p48
F0.5
sS'lastScale'
p49
F5.5
sb.(i__main__
Data_mobile
p1
(dp2
S'vel_y'
p3
F-0.3010066912773956
sS'vel_x'
p4
F-0.3812290871387134
sS'pos_x'
p5
F-56.64927330142018
sS'pos_y'
p6
F18.059888992565121
sS'isAlive'
p7
I01
sS'cumulativeEnergy'
p8
F0.5
sS'geno'
p9
(i__main__
Node
p10
(dp11
S'vector'
p12
S'+'
sS'depth'
p13
I1
sS'right'
p14
(i__main__
Node
p15
(dp16
g12
S'-'
sg13
I2
sg14
(i__main__
Node
p17
(dp18
g12
S'indiv.currentEnergy()'
p19
sg13
I3
sg14
NsS'parent'
p20
g15
sS'float_size'
p21
S'indiv.getNumPreysNeigh()'
p22
sS'float_bright'
p23
S'indiv.distanceMatingSeason()'
p24
sS'left'
p25
Nsbsg20
g10
sg21
S'+'
sg23
S'/'
sg25
(i__main__
Node
p26
(dp27
g12
S'indiv.target()'
p28
sg13
I3
sg14
Nsg20
g15
sg21
S'indiv.getTailBrightness()'
p29
sg23
g22
sg25
Nsbsbsg20
Nsg21
S'-'
sg23
S'+'
sg25
(i__main__
Node
p30
(dp31
g12
S'-'
sg13
I2
sg14
(i__main__
Node
p32
(dp33
g12
g19
sg13
I3
sg14
Nsg20
g30
sg21
g22
sg23
g24
sg25
Nsbsg20
g10
sg21
S'+'
sg23
S'/'
sg25
(i__main__
Node
p34
(dp35
g12
g28
sg13
I3
sg14
Nsg20
g30
sg21
g29
sg23
g22
sg25
NsbsbsbsS'accel_x'
p36
F0
sS'accel_y'
p37
F0
sS'visionAngle'
p38
I150
sS'maxAccel'
p39
I2
sS'maxVel'
p40
F0.5
sS'age'
p41
I0
sS'tailSize'
p42
F0
sS'sexualgeno'
p43
NsS'tailBrigh'
p44
F0.90909090909090906
sS'maxSteering'
p45
I30
sS'energy'
p46
F0.5
sS'lastScale'
p47
F5.5
sb.(i__main__
Data_mobile
p1
(dp2
S'vel_y'
p3
F-0.17134940771928059
sS'vel_x'
p4
F-0.45407758940063186
sS'pos_x'
p5
F-32.608843262180287
sS'pos_y'
p6
F-9.1019648659594488
sS'isAlive'
p7
I01
sS'cumulativeEnergy'
p8
F0.5
sS'geno'
p9
(i__main__
Node
p10
(dp11
S'vector'
p12
S'+'
sS'depth'
p13
I1
sS'right'
p14
(i__main__
Node
p15
(dp16
g12
S'-'
sg13
I2
sg14
(i__main__
Node
p17
(dp18
g12
S'indiv.currentEnergy()'
p19
sg13
I3
sg14
NsS'parent'
p20
g15
sS'float_size'
p21
S'indiv.getNumPreysNeigh()'
p22
sS'float_bright'
p23
S'indiv.distanceMatingSeason()'
p24
sS'left'
p25
Nsbsg20
g10
sg21
S'+'
sg23
S'/'
sg25
(i__main__
Node
p26
(dp27
g12
S'indiv.target()'
p28
sg13
I3
sg14
Nsg20
g15
sg21
S'indiv.getTailBrightness()'
p29
sg23
g22
sg25
Nsbsbsg20
Nsg21
S'-'
sg23
S'+'
sg25
(i__main__
Node
p30
(dp31
g14
(i__main__
Node
p32
(dp33
g14
Nsg20
g30
sg13
I3
sg12
S'indiv.cohesion()'
p34
sg21
g22
sg23
S'indiv.getNumPredatorsNeigh()'
p35
sg25
Nsbsg20
g10
sg13
I2
sg12
S'/'
sg21
S'+'
sg23
S'/'
sg25
(i__main__
Node
p36
(dp37
g14
Nsg20
g30
sg13
I3
sg12
S'indiv.currentVelocity()'
p38
sg21
g35
sg23
g29
sg25
NsbsbsbsS'accel_x'
p39
F0
sS'accel_y'
p40
F0
sS'visionAngle'
p41
I150
sS'maxAccel'
p42
I2
sS'maxVel'
p43
F0.5
sS'age'
p44
I0
sS'tailSize'
p45
F0
sS'sexualgeno'
p46
NsS'tailBrigh'
p47
F0.76470588235294112
sS'maxSteering'
p48
I30
sS'energy'
p49
F0.5
sS'lastScale'
p50
F5.5
sb.(i__main__
Data_mobile
p1
(dp2
S'vel_y'
p3
F-0.35236902300757561
sS'vel_x'
p4
F-0.35237147802227142
sS'pos_x'
p5
F-131.89840420090496
sS'pos_y'
p6
F30.504418003973647
sS'isAlive'
p7
I01
sS'cumulativeEnergy'
p8
F0.5
sS'geno'
p9
(i__main__
Node
p10
(dp11
S'vector'
p12
S'+'
sS'depth'
p13
I1
sS'right'
p14
(i__main__
Node
p15
(dp16
g12
S'-'
sg13
I2
sg14
(i__main__
Node
p17
(dp18
g12
S'indiv.currentEnergy()'
p19
sg13
I3
sg14
NsS'parent'
p20
g15
sS'float_size'
p21
S'indiv.getNumPreysNeigh()'
p22
sS'float_bright'
p23
S'indiv.distanceMatingSeason()'
p24
sS'left'
p25
Nsbsg20
g10
sg21
S'+'
sg23
S'/'
sg25
(i__main__
Node
p26
(dp27
g12
S'indiv.target()'
p28
sg13
I3
sg14
Nsg20
g15
sg21
S'indiv.getTailBrightness()'
p29
sg23
g22
sg25
Nsbsbsg20
Nsg21
S'-'
sg23
S'+'
sg25
(i__main__
Node
p30
(dp31
g14
Nsg20
g10
sg13
I2
sg12
S'indiv.cohesion()'
p32
sg21
g29
sg23
S'indiv.getNumPredatorsNeigh()'
p33
sg25
NsbsbsS'accel_x'
p34
F0
sS'accel_y'
p35
F0
sS'visionAngle'
p36
I150
sS'maxAccel'
p37
I2
sS'maxVel'
p38
F0.5
sS'age'
p39
I0
sS'tailSize'
p40
F-1.1554813656962817
sS'sexualgeno'
p41
NsS'tailBrigh'
p42
F1.0036378348815309
sS'maxSteering'
p43
I30
sS'energy'
p44
F0.5
sS'lastScale'
p45
F5.5
sb.(i__main__
Data_mobile
p1
(dp2
S'vel_y'
p3
F-0.35903752152485452
sS'vel_x'
p4
F-0.34546944892949166
sS'pos_x'
p5
F26.802276073661275
sS'pos_y'
p6
F28.758344614726909
sS'isAlive'
p7
I01
sS'cumulativeEnergy'
p8
F0.5
sS'geno'
p9
(i__main__
Node
p10
(dp11
S'vector'
p12
S'+'
sS'depth'
p13
I1
sS'right'
p14
(i__main__
Node
p15
(dp16
g14
NsS'parent'
p17
g10
sg13
I2
sg12
S'indiv.flee()'
p18
sS'float_size'
p19
S'indiv.getNumPreysNeigh()'
p20
sS'float_bright'
p21
S'indiv.getNumPredatorsNeigh()'
p22
sS'left'
p23
Nsbsg17
Nsg19
S'-'
sg21
S'+'
sg23
(i__main__
Node
p24
(dp25
g12
S'-'
sg13
I2
sg14
(i__main__
Node
p26
(dp27
g12
S'indiv.currentEnergy()'
p28
sg13
I3
sg14
Nsg17
g24
sg19
g20
sg21
S'indiv.distanceMatingSeason()'
p29
sg23
Nsbsg17
g10
sg19
S'+'
sg21
S'/'
sg23
(i__main__
Node
p30
(dp31
g12
S'indiv.target()'
p32
sg13
I3
sg14
Nsg17
g24
sg19
S'indiv.getTailBrightness()'
p33
sg21
g20
sg23
NsbsbsbsS'accel_x'
p34
F0
sS'accel_y'
p35
F0
sS'visionAngle'
p36
I150
sS'maxAccel'
p37
I2
sS'maxVel'
p38
F0.5
sS'age'
p39
I0
sS'tailSize'
p40
F0
sS'sexualgeno'
p41
NsS'tailBrigh'
p42
F0.90909090909090906
sS'maxSteering'
p43
I30
sS'energy'
p44
F0.5
sS'lastScale'
p45
F5.5
sb.(i__main__
Data_mobile
p1
(dp2
S'vel_y'
p3
F-0.39977647618462092
sS'vel_x'
p4
F-0.13758477133256988
sS'pos_x'
p5
F-12.416258672923121
sS'pos_y'
p6
F-15.645318601021541
sS'isAlive'
p7
I01
sS'cumulativeEnergy'
p8
F0.5
sS'geno'
p9
(i__main__
Node
p10
(dp11
S'vector'
p12
S'+'
sS'depth'
p13
I1
sS'right'
p14
(i__main__
Node
p15
(dp16
g12
S'-'
sg13
I2
sg14
(i__main__
Node
p17
(dp18
g12
S'indiv.currentEnergy()'
p19
sg13
I3
sg14
NsS'parent'
p20
g15
sS'float_size'
p21
S'indiv.getNumPreysNeigh()'
p22
sS'float_bright'
p23
S'indiv.distanceMatingSeason()'
p24
sS'left'
p25
Nsbsg20
g10
sg21
S'+'
sg23
S'/'
sg25
(i__main__
Node
p26
(dp27
g12
S'indiv.target()'
p28
sg13
I3
sg14
Nsg20
g15
sg21
S'indiv.getTailBrightness()'
p29
sg23
g22
sg25
Nsbsbsg20
Nsg21
S'-'
sg23
S'+'
sg25
(i__main__
Node
p30
(dp31
g12
S'-'
sg13
I2
sg14
(i__main__
Node
p32
(dp33
g12
g19
sg13
I3
sg14
Nsg20
g30
sg21
g22
sg23
g24
sg25
Nsbsg20
g10
sg21
S'+'
sg23
S'/'
sg25
(i__main__
Node
p34
(dp35
g12
g28
sg13
I3
sg14
Nsg20
g30
sg21
g29
sg23
g22
sg25
NsbsbsbsS'accel_x'
p36
F0
sS'accel_y'
p37
F0
sS'visionAngle'
p38
I150
sS'maxAccel'
p39
I2
sS'maxVel'
p40
F0.5
sS'age'
p41
I0
sS'tailSize'
p42
F0
sS'sexualgeno'
p43
NsS'tailBrigh'
p44
F0.12903225806451613
sS'maxSteering'
p45
I30
sS'energy'
p46
F0.5
sS'lastScale'
p47
F5.5
sb.(i__main__
Data_mobile
p1
(dp2
S'vel_y'
p3
F-0.33956103705168822
sS'vel_x'
p4
F-0.3595671606855016
sS'pos_x'
p5
F-32.902503290706335
sS'pos_y'
p6
F-18.547424260863224
sS'isAlive'
p7
I01
sS'cumulativeEnergy'
p8
F0.5
sS'geno'
p9
(i__main__
Node
p10
(dp11
S'vector'
p12
S'+'
sS'depth'
p13
I1
sS'right'
p14
(i__main__
Node
p15
(dp16
g12
S'-'
sg13
I2
sg14
(i__main__
Node
p17
(dp18
g12
S'indiv.currentEnergy()'
p19
sg13
I3
sg14
NsS'parent'
p20
g15
sS'float_size'
p21
S'indiv.getNumPreysNeigh()'
p22
sS'float_bright'
p23
S'indiv.distanceMatingSeason()'
p24
sS'left'
p25
Nsbsg20
g10
sg21
S'+'
sg23
S'/'
sg25
(i__main__
Node
p26
(dp27
g12
S'indiv.target()'
p28
sg13
I3
sg14
Nsg20
g15
sg21
S'indiv.getTailBrightness()'
p29
sg23
g22
sg25
Nsbsbsg20
Nsg21
S'-'
sg23
S'+'
sg25
(i__main__
Node
p30
(dp31
g12
S'/'
sg13
I2
sg14
(i__main__
Node
p32
(dp33
g12
S'indiv.cohesion()'
p34
sg13
I3
sg14
Nsg20
g30
sg21
g22
sg23
S'indiv.getNumPredatorsNeigh()'
p35
sg25
Nsbsg20
g10
sg21
S'+'
sg23
S'/'
sg25
(i__main__
Node
p36
(dp37
g12
S'indiv.currentVelocity()'
p38
sg13
I3
sg14
Nsg20
g30
sg21
g35
sg23
g29
sg25
NsbsbsbsS'accel_x'
p39
F0
sS'accel_y'
p40
F0
sS'visionAngle'
p41
I150
sS'maxAccel'
p42
I2
sS'maxVel'
p43
F0.5
sS'age'
p44
I0
sS'tailSize'
p45
F0
sS'sexualgeno'
p46
NsS'tailBrigh'
p47
F0.31578947368421051
sS'maxSteering'
p48
I30
sS'energy'
p49
F0.5
sS'lastScale'
p50
F5.5
sb.(i__main__
Data_mobile
p1
(dp2
S'vel_y'
p3
F0.19888315785412877
sS'vel_x'
p4
F0.093681812640081047
sS'pos_x'
p5
F168.76343759673523
sS'pos_y'
p6
F-98.950840120582285
sS'isAlive'
p7
I01
sS'cumulativeEnergy'
p8
F0.5
sS'geno'
p9
(i__main__
Node
p10
(dp11
S'vector'
p12
S'+'
sS'depth'
p13
I1
sS'right'
p14
(i__main__
Node
p15
(dp16
g12
S'-'
sg13
I2
sg14
(i__main__
Node
p17
(dp18
g12
S'indiv.currentEnergy()'
p19
sg13
I3
sg14
NsS'parent'
p20
g15
sS'float_size'
p21
S'indiv.getNumPreysNeigh()'
p22
sS'float_bright'
p23
S'indiv.distanceMatingSeason()'
p24
sS'left'
p25
Nsbsg20
g10
sg21
S'+'
sg23
S'/'
sg25
(i__main__
Node
p26
(dp27
g12
S'indiv.target()'
p28
sg13
I3
sg14
Nsg20
g15
sg21
S'indiv.getTailBrightness()'
p29
sg23
g22
sg25
Nsbsbsg20
Nsg21
S'-'
sg23
S'+'
sg25
(i__main__
Node
p30
(dp31
g12
S'-'
sg13
I2
sg14
(i__main__
Node
p32
(dp33
g12
g19
sg13
I3
sg14
Nsg20
g30
sg21
g22
sg23
g24
sg25
Nsbsg20
g10
sg21
S'+'
sg23
S'/'
sg25
(i__main__
Node
p34
(dp35
g12
g28
sg13
I3
sg14
Nsg20
g30
sg21
g29
sg23
g22
sg25
NsbsbsbsS'accel_x'
p36
F0
sS'accel_y'
p37
F0
sS'visionAngle'
p38
I150
sS'maxAccel'
p39
I2
sS'maxVel'
p40
F0.5
sS'age'
p41
I0
sS'tailSize'
p42
F0
sS'sexualgeno'
p43
NsS'tailBrigh'
p44
F0.125
sS'maxSteering'
p45
I30
sS'energy'
p46
F0.5
sS'lastScale'
p47
F5.5
sb.(i__main__
Data_mobile
p1
(dp2
S'vel_y'
p3
F-0.34774982737945059
sS'vel_x'
p4
F-0.35688426515194993
sS'pos_x'
p5
F42.306101564918393
sS'pos_y'
p6
F25.658115153944379
sS'isAlive'
p7
I01
sS'cumulativeEnergy'
p8
F0.5
sS'geno'
p9
(i__main__
Node
p10
(dp11
S'vector'
p12
S'+'
sS'depth'
p13
I1
sS'right'
p14
(i__main__
Node
p15
(dp16
g12
S'-'
sg13
I2
sg14
(i__main__
Node
p17
(dp18
g12
S'indiv.currentEnergy()'
p19
sg13
I3
sg14
NsS'parent'
p20
g15
sS'float_size'
p21
S'indiv.getNumPreysNeigh()'
p22
sS'float_bright'
p23
S'indiv.distanceMatingSeason()'
p24
sS'left'
p25
Nsbsg20
g10
sg21
S'+'
sg23
S'/'
sg25
(i__main__
Node
p26
(dp27
g12
S'indiv.target()'
p28
sg13
I3
sg14
Nsg20
g15
sg21
S'indiv.getTailBrightness()'
p29
sg23
g22
sg25
Nsbsbsg20
Nsg21
S'-'
sg23
S'+'
sg25
(i__main__
Node
p30
(dp31
g12
S'-'
sg13
I2
sg14
(i__main__
Node
p32
(dp33
g12
g19
sg13
I3
sg14
Nsg20
g30
sg21
g22
sg23
g24
sg25
Nsbsg20
g10
sg21
S'+'
sg23
S'/'
sg25
(i__main__
Node
p34
(dp35
g12
g28
sg13
I3
sg14
Nsg20
g30
sg21
g29
sg23
g22
sg25
NsbsbsbsS'accel_x'
p36
F0
sS'accel_y'
p37
F0
sS'visionAngle'
p38
I150
sS'maxAccel'
p39
I2
sS'maxVel'
p40
F0.5
sS'age'
p41
I0
sS'tailSize'
p42
F0
sS'sexualgeno'
p43
NsS'tailBrigh'
p44
F0
sS'maxSteering'
p45
I30
sS'energy'
p46
F0.5
sS'lastScale'
p47
F5.5
sb.(i__main__
Data_mobile
p1
(dp2
S'vel_y'
p3
F-0.41405116102243783
sS'vel_x'
p4
F-0.11280385464982337
sS'pos_x'
p5
F-76.936491178543136
sS'pos_y'
p6
F-83.682694977429321
sS'isAlive'
p7
I01
sS'cumulativeEnergy'
p8
F0.5
sS'geno'
p9
(i__main__
Node
p10
(dp11
S'vector'
p12
S'+'
sS'depth'
p13
I1
sS'right'
p14
(i__main__
Node
p15
(dp16
g12
S'-'
sg13
I2
sg14
(i__main__
Node
p17
(dp18
g12
S'indiv.currentEnergy()'
p19
sg13
I3
sg14
NsS'parent'
p20
g15
sS'float_size'
p21
S'indiv.getNumPreysNeigh()'
p22
sS'float_bright'
p23
S'indiv.distanceMatingSeason()'
p24
sS'left'
p25
Nsbsg20
g10
sg21
S'+'
sg23
S'/'
sg25
(i__main__
Node
p26
(dp27
g12
S'indiv.target()'
p28
sg13
I3
sg14
Nsg20
g15
sg21
S'indiv.getTailBrightness()'
p29
sg23
g22
sg25
Nsbsbsg20
Nsg21
S'-'
sg23
S'+'
sg25
(i__main__
Node
p30
(dp31
g12
S'-'
sg13
I2
sg14
(i__main__
Node
p32
(dp33
g12
g19
sg13
I3
sg14
Nsg20
g30
sg21
g22
sg23
g24
sg25
Nsbsg20
g10
sg21
S'+'
sg23
S'/'
sg25
(i__main__
Node
p34
(dp35
g12
g28
sg13
I3
sg14
Nsg20
g30
sg21
g29
sg23
g22
sg25
NsbsbsbsS'accel_x'
p36
F0
sS'accel_y'
p37
F0
sS'visionAngle'
p38
I150
sS'maxAccel'
p39
I2
sS'maxVel'
p40
F0.5
sS'age'
p41
I0
sS'tailSize'
p42
F0
sS'sexualgeno'
p43
NsS'tailBrigh'
p44
F1
sS'maxSteering'
p45
I30
sS'energy'
p46
F0.5
sS'lastScale'
p47
F5.5
sb.(i__main__
Data_mobile
p1
(dp2
S'vel_y'
p3
F-0.44340244121363037
sS'vel_x'
p4
F0.060073332829613649
sS'pos_x'
p5
F26.02586594078636
sS'pos_y'
p6
F3.6783488362072916
sS'isAlive'
p7
I01
sS'cumulativeEnergy'
p8
F0.5
sS'geno'
p9
(i__main__
Node
p10
(dp11
S'vector'
p12
S'+'
sS'depth'
p13
I1
sS'right'
p14
(i__main__
Node
p15
(dp16
g12
S'-'
sg13
I2
sg14
(i__main__
Node
p17
(dp18
g12
S'indiv.currentEnergy()'
p19
sg13
I3
sg14
NsS'parent'
p20
g15
sS'float_size'
p21
S'indiv.getNumPreysNeigh()'
p22
sS'float_bright'
p23
S'indiv.distanceMatingSeason()'
p24
sS'left'
p25
Nsbsg20
g10
sg21
S'+'
sg23
S'/'
sg25
(i__main__
Node
p26
(dp27
g12
S'indiv.target()'
p28
sg13
I3
sg14
Nsg20
g15
sg21
S'indiv.getTailBrightness()'
p29
sg23
g22
sg25
Nsbsbsg20
Nsg21
S'-'
sg23
S'+'
sg25
(i__main__
Node
p30
(dp31
g12
S'-'
sg13
I2
sg14
(i__main__
Node
p32
(dp33
g12
g19
sg13
I3
sg14
Nsg20
g30
sg21
g22
sg23
g24
sg25
Nsbsg20
g10
sg21
S'+'
sg23
S'/'
sg25
(i__main__
Node
p34
(dp35
g12
g28
sg13
I3
sg14
Nsg20
g30
sg21
g29
sg23
g22
sg25
NsbsbsbsS'accel_x'
p36
F0
sS'accel_y'
p37
F0
sS'visionAngle'
p38
I150
sS'maxAccel'
p39
I2
sS'maxVel'
p40
F0.5
sS'age'
p41
I0
sS'tailSize'
p42
F0
sS'sexualgeno'
p43
NsS'tailBrigh'
p44
F0.2857142857142857
sS'maxSteering'
p45
I30
sS'energy'
p46
F0.5
sS'lastScale'
p47
F5.5
sb.(i__main__
Data_mobile
p1
(dp2
S'vel_y'
p3
F-0.31956084037536647
sS'vel_x'
p4
F-0.38126672000018041
sS'pos_x'
p5
F-20.727316651237444
sS'pos_y'
p6
F25.678386826282342
sS'isAlive'
p7
I01
sS'cumulativeEnergy'
p8
F0.5
sS'geno'
p9
(i__main__
Node
p10
(dp11
S'vector'
p12
S'+'
sS'depth'
p13
I1
sS'right'
p14
(i__main__
Node
p15
(dp16
g12
S'-'
sg13
I2
sg14
(i__main__
Node
p17
(dp18
g12
S'indiv.currentEnergy()'
p19
sg13
I3
sg14
NsS'parent'
p20
g15
sS'float_size'
p21
S'indiv.getNumPreysNeigh()'
p22
sS'float_bright'
p23
S'indiv.distanceMatingSeason()'
p24
sS'left'
p25
Nsbsg20
g10
sg21
S'+'
sg23
S'/'
sg25
(i__main__
Node
p26
(dp27
g12
S'indiv.target()'
p28
sg13
I3
sg14
Nsg20
g15
sg21
S'indiv.getTailBrightness()'
p29
sg23
g22
sg25
Nsbsbsg20
Nsg21
S'-'
sg23
S'+'
sg25
(i__main__
Node
p30
(dp31
g12
S'-'
sg13
I2
sg14
(i__main__
Node
p32
(dp33
g12
g19
sg13
I3
sg14
Nsg20
g30
sg21
g22
sg23
g24
sg25
Nsbsg20
g10
sg21
S'+'
sg23
S'/'
sg25
(i__main__
Node
p34
(dp35
g12
g28
sg13
I3
sg14
Nsg20
g30
sg21
g29
sg23
g22
sg25
NsbsbsbsS'accel_x'
p36
F0
sS'accel_y'
p37
F0
sS'visionAngle'
p38
I150
sS'maxAccel'
p39
I2
sS'maxVel'
p40
F0.5
sS'age'
p41
I0
sS'tailSize'
p42
F0
sS'sexualgeno'
p43
NsS'tailBrigh'
p44
F0.72727272727272729
sS'maxSteering'
p45
I30
sS'energy'
p46
F0.5
sS'lastScale'
p47
F5.5
sb.(i__main__
Data_mobile
p1
(dp2
S'vel_y'
p3
F-0.40668335063281652
sS'vel_x'
p4
F-0.10629151564879512
sS'pos_x'
p5
F16.989913282199069
sS'pos_y'
p6
F-1.7303657002064377
sS'isAlive'
p7
I01
sS'cumulativeEnergy'
p8
F0.5
sS'geno'
p9
(i__main__
Node
p10
(dp11
S'vector'
p12
S'+'
sS'depth'
p13
I1
sS'right'
p14
(i__main__
Node
p15
(dp16
g14
(i__main__
Node
p17
(dp18
g14
(i__main__
Node
p19
(dp20
g14
NsS'parent'
p21
g17
sg13
I4
sg12
S'indiv.separation()'
p22
sS'float_size'
p23
S'indiv.distanceMatingSeason()'
p24
sS'float_bright'
p25
S'indiv.getNumPredatorsNeigh()'
p26
sS'left'
p27
Nsbsg21
g15
sg13
I3
sg12
S'*'
sg23
S'/'
sg25
S'-'
sg27
(i__main__
Node
p28
(dp29
g14
Nsg21
g17
sg13
I4
sg12
S'indiv.cohesion()'
p30
sg23
g24
sg25
S'indiv.getNumPreysNeigh()'
p31
sg27
Nsbsbsg21
g10
sg13
I2
sg12
S'*'
sg23
S'*'
sg25
S'/'
sg27
(i__main__
Node
p32
(dp33
g14
(i__main__
Node
p34
(dp35
g14
Nsg21
g32
sg13
I4
sg12
S'indiv.alignment()'
p36
sg23
g24
sg25
S'indiv.getEnergy()'
p37
sg27
Nsbsg21
g15
sg13
I3
sg12
S'/'
sg23
S'-'
sg25
S'/'
sg27
(i__main__
Node
p38
(dp39
g14
Nsg21
g32
sg13
I4
sg12
S'indiv.flee()'
p40
sg23
S'indiv.randF()'
p41
sg25
S'indiv.getTailBrightness()'
p42
sg27
Nsbsbsbsg21
Nsg23
S'-'
sg25
S'+'
sg27
(i__main__
Node
p43
(dp44
g12
S'-'
sg13
I2
sg14
(i__main__
Node
p45
(dp46
g12
S'indiv.currentEnergy()'
p47
sg13
I3
sg14
Nsg21
g43
sg23
g31
sg25
g24
sg27
Nsbsg21
g10
sg23
S'+'
sg25
S'/'
sg27
(i__main__
Node
p48
(dp49
g12
S'indiv.target()'
p50
sg13
I3
sg14
Nsg21
g43
sg23
g42
sg25
g31
sg27
NsbsbsbsS'accel_x'
p51
F0
sS'accel_y'
p52
F0
sS'visionAngle'
p53
I150
sS'maxAccel'
p54
I2
sS'maxVel'
p55
F0.5
sS'age'
p56
I0
sS'tailSize'
p57
F0
sS'sexualgeno'
p58
NsS'tailBrigh'
p59
F0.77419354838709675
sS'maxSteering'
p60
I30
sS'energy'
p61
F0.5
sS'lastScale'
p62
F5.5
sb.(i__main__
Data_mobile
p1
(dp2
S'vel_y'
p3
F-0.35237026674031363
sS'vel_x'
p4
F-0.35237023430921677
sS'pos_x'
p5
F-57.105397881534913
sS'pos_y'
p6
F-36.926236403366005
sS'isAlive'
p7
I01
sS'cumulativeEnergy'
p8
F0.5
sS'geno'
p9
(i__main__
Node
p10
(dp11
S'vector'
p12
S'+'
sS'depth'
p13
I1
sS'right'
p14
(i__main__
Node
p15
(dp16
g12
S'-'
sg13
I2
sg14
(i__main__
Node
p17
(dp18
g12
S'indiv.currentEnergy()'
p19
sg13
I3
sg14
NsS'parent'
p20
g15
sS'float_size'
p21
S'indiv.getNumPreysNeigh()'
p22
sS'float_bright'
p23
S'indiv.distanceMatingSeason()'
p24
sS'left'
p25
Nsbsg20
g10
sg21
S'+'
sg23
S'/'
sg25
(i__main__
Node
p26
(dp27
g12
S'indiv.target()'
p28
sg13
I3
sg14
Nsg20
g15
sg21
S'indiv.getTailBrightness()'
p29
sg23
g22
sg25
Nsbsbsg20
Nsg21
S'-'
sg23
S'+'
sg25
(i__main__
Node
p30
(dp31
g12
S'-'
sg13
I2
sg14
(i__main__
Node
p32
(dp33
g12
g19
sg13
I3
sg14
Nsg20
g30
sg21
g22
sg23
g24
sg25
Nsbsg20
g10
sg21
S'+'
sg23
S'/'
sg25
(i__main__
Node
p34
(dp35
g12
g28
sg13
I3
sg14
Nsg20
g30
sg21
g29
sg23
g22
sg25
NsbsbsbsS'accel_x'
p36
F0
sS'accel_y'
p37
F0
sS'visionAngle'
p38
I150
sS'maxAccel'
p39
I2
sS'maxVel'
p40
F0.5
sS'age'
p41
I0
sS'tailSize'
p42
F0
sS'sexualgeno'
p43
NsS'tailBrigh'
p44
F0.64000000000000001
sS'maxSteering'
p45
I30
sS'energy'
p46
F0.5
sS'lastScale'
p47
F5.5
sb.(i__main__
Data_mobile
p1
(dp2
S'vel_y'
p3
F-0.35237025323717741
sS'vel_x'
p4
F-0.35237024781235382
sS'pos_x'
p5
F-33.145144011025856
sS'pos_y'
p6
F-25.575939895901875
sS'isAlive'
p7
I01
sS'cumulativeEnergy'
p8
F0.5
sS'geno'
p9
(i__main__
Node
p10
(dp11
S'vector'
p12
S'+'
sS'depth'
p13
I1
sS'right'
p14
(i__main__
Node
p15
(dp16
g12
S'-'
sg13
I2
sg14
(i__main__
Node
p17
(dp18
g12
S'indiv.currentEnergy()'
p19
sg13
I3
sg14
NsS'parent'
p20
g15
sS'float_size'
p21
S'indiv.getNumPreysNeigh()'
p22
sS'float_bright'
p23
S'indiv.distanceMatingSeason()'
p24
sS'left'
p25
Nsbsg20
g10
sg21
S'+'
sg23
S'/'
sg25
(i__main__
Node
p26
(dp27
g12
S'indiv.target()'
p28
sg13
I3
sg14
Nsg20
g15
sg21
S'indiv.getTailBrightness()'
p29
sg23
g22
sg25
Nsbsbsg20
Nsg21
S'-'
sg23
S'+'
sg25
(i__main__
Node
p30
(dp31
g12
S'-'
sg13
I2
sg14
(i__main__
Node
p32
(dp33
g12
g19
sg13
I3
sg14
Nsg20
g30
sg21
g22
sg23
g24
sg25
Nsbsg20
g10
sg21
S'+'
sg23
S'/'
sg25
(i__main__
Node
p34
(dp35
g12
g28
sg13
I3
sg14
Nsg20
g30
sg21
g29
sg23
g22
sg25
NsbsbsbsS'accel_x'
p36
F0
sS'accel_y'
p37
F0
sS'visionAngle'
p38
I150
sS'maxAccel'
p39
I2
sS'maxVel'
p40
F0.5
sS'age'
p41
I0
sS'tailSize'
p42
F0
sS'sexualgeno'
p43
NsS'tailBrigh'
p44
F0.73469387755102045
sS'maxSteering'
p45
I30
sS'energy'
p46
F0.5
sS'lastScale'
p47
F5.5
sb.(i__main__
Data_mobile
p1
(dp2
S'vel_y'
p3
F-0.35237026177689501
sS'vel_x'
p4
F-0.35237023927263561
sS'pos_x'
p5
F-36.236238523940308
sS'pos_y'
p6
F-26.894507402193462
sS'isAlive'
p7
I01
sS'cumulativeEnergy'
p8
F0.5
sS'geno'
p9
(i__main__
Node
p10
(dp11
S'vector'
p12
S'+'
sS'depth'
p13
I1
sS'right'
p14
(i__main__
Node
p15
(dp16
g12
S'-'
sg13
I2
sg14
(i__main__
Node
p17
(dp18
g12
S'indiv.currentEnergy()'
p19
sg13
I3
sg14
NsS'parent'
p20
g15
sS'float_size'
p21
S'indiv.getNumPreysNeigh()'
p22
sS'float_bright'
p23
S'indiv.distanceMatingSeason()'
p24
sS'left'
p25
Nsbsg20
g10
sg21
S'+'
sg23
S'/'
sg25
(i__main__
Node
p26
(dp27
g12
S'indiv.target()'
p28
sg13
I3
sg14
Nsg20
g15
sg21
S'indiv.getTailBrightness()'
p29
sg23
g22
sg25
Nsbsbsg20
Nsg21
S'-'
sg23
S'+'
sg25
(i__main__
Node
p30
(dp31
g12
S'-'
sg13
I2
sg14
(i__main__
Node
p32
(dp33
g12
g19
sg13
I3
sg14
Nsg20
g30
sg21
g22
sg23
g24
sg25
Nsbsg20
g10
sg21
S'+'
sg23
S'/'
sg25
(i__main__
Node
p34
(dp35
g12
g28
sg13
I3
sg14
Nsg20
g30
sg21
g29
sg23
g22
sg25
NsbsbsbsS'accel_x'
p36
F0
sS'accel_y'
p37
F0
sS'visionAngle'
p38
I150
sS'maxAccel'
p39
I2
sS'maxVel'
p40
F0.5
sS'age'
p41
I0
sS'tailSize'
p42
F0
sS'sexualgeno'
p43
NsS'tailBrigh'
p44
F0.71999999999999997
sS'maxSteering'
p45
I30
sS'energy'
p46
F0.5
sS'lastScale'
p47
F5.5
sb.(i__main__
Data_mobile
p1
(dp2
S'vel_y'
p3
F-0.060132915454484057
sS'vel_x'
p4
F-0.45200619815600734
sS'pos_x'
p5
F60.304120775357703
sS'pos_y'
p6
F15.069950590235187
sS'isAlive'
p7
I01
sS'cumulativeEnergy'
p8
F0.5
sS'geno'
p9
(i__main__
Node
p10
(dp11
S'vector'
p12
S'+'
sS'depth'
p13
I1
sS'right'
p14
(i__main__
Node
p15
(dp16
g12
S'-'
sg13
I2
sg14
(i__main__
Node
p17
(dp18
g12
S'indiv.currentEnergy()'
p19
sg13
I3
sg14
NsS'parent'
p20
g15
sS'float_size'
p21
S'indiv.getNumPreysNeigh()'
p22
sS'float_bright'
p23
S'indiv.distanceMatingSeason()'
p24
sS'left'
p25
Nsbsg20
g10
sg21
S'+'
sg23
S'/'
sg25
(i__main__
Node
p26
(dp27
g12
S'indiv.target()'
p28
sg13
I3
sg14
Nsg20
g15
sg21
S'indiv.getTailBrightness()'
p29
sg23
g22
sg25
Nsbsbsg20
Nsg21
S'-'
sg23
S'+'
sg25
(i__main__
Node
p30
(dp31
g12
S'-'
sg13
I2
sg14
(i__main__
Node
p32
(dp33
g12
g19
sg13
I3
sg14
Nsg20
g30
sg21
g22
sg23
g24
sg25
Nsbsg20
g10
sg21
S'+'
sg23
S'/'
sg25
(i__main__
Node
p34
(dp35
g12
g28
sg13
I3
sg14
Nsg20
g30
sg21
g29
sg23
g22
sg25
NsbsbsbsS'accel_x'
p36
F0
sS'accel_y'
p37
F0
sS'visionAngle'
p38
I150
sS'maxAccel'
p39
I2
sS'maxVel'
p40
F0.5
sS'age'
p41
I0
sS'tailSize'
p42
F0
sS'sexualgeno'
p43
NsS'tailBrigh'
p44
F0.19047619047619047
sS'maxSteering'
p45
I30
sS'energy'
p46
F0.5
sS'lastScale'
p47
F5.5
sb.(i__main__
Data_mobile
p1
(dp2
S'vel_y'
p3
F-0.37377950194958531
sS'vel_x'
p4
F-0.25537041811431221
sS'pos_x'
p5
F7.2184861909512108
sS'pos_y'
p6
F-6.2982774017902692
sS'isAlive'
p7
I01
sS'cumulativeEnergy'
p8
F0.5
sS'geno'
p9
(i__main__
Node
p10
(dp11
S'vector'
p12
S'+'
sS'depth'
p13
I1
sS'right'
p14
(i__main__
Node
p15
(dp16
g12
S'-'
sg13
I2
sg14
(i__main__
Node
p17
(dp18
g12
S'indiv.currentEnergy()'
p19
sg13
I3
sg14
NsS'parent'
p20
g15
sS'float_size'
p21
S'indiv.getNumPreysNeigh()'
p22
sS'float_bright'
p23
S'indiv.distanceMatingSeason()'
p24
sS'left'
p25
Nsbsg20
g10
sg21
S'+'
sg23
S'/'
sg25
(i__main__
Node
p26
(dp27
g12
S'indiv.target()'
p28
sg13
I3
sg14
Nsg20
g15
sg21
S'indiv.getTailBrightness()'
p29
sg23
g22
sg25
Nsbsbsg20
Nsg21
S'-'
sg23
S'+'
sg25
(i__main__
Node
p30
(dp31
g12
S'-'
sg13
I2
sg14
(i__main__
Node
p32
(dp33
g12
g19
sg13
I3
sg14
Nsg20
g30
sg21
g22
sg23
g24
sg25
Nsbsg20
g10
sg21
S'+'
sg23
S'/'
sg25
(i__main__
Node
p34
(dp35
g12
g28
sg13
I3
sg14
Nsg20
g30
sg21
g29
sg23
g22
sg25
NsbsbsbsS'accel_x'
p36
F0
sS'accel_y'
p37
F0
sS'visionAngle'
p38
I150
sS'maxAccel'
p39
I2
sS'maxVel'
p40
F0.5
sS'age'
p41
I0
sS'tailSize'
p42
F0
sS'sexualgeno'
p43
NsS'tailBrigh'
p44
F0.72727272727272729
sS'maxSteering'
p45
I30
sS'energy'
p46
F0.5
sS'lastScale'
p47
F5.5
sb.(i__main__
Data_mobile
p1
(dp2
S'vel_y'
p3
F-0.35095136559924461
sS'vel_x'
p4
F-0.30721312758770858
sS'pos_x'
p5
F-36.602783316566871
sS'pos_y'
p6
F-42.047031556853554
sS'isAlive'
p7
I01
sS'cumulativeEnergy'
p8
F0.5
sS'geno'
p9
(i__main__
Node
p10
(dp11
S'vector'
p12
S'+'
sS'depth'
p13
I1
sS'right'
p14
(i__main__
Node
p15
(dp16
g12
S'-'
sg13
I2
sg14
(i__main__
Node
p17
(dp18
g12
S'indiv.currentEnergy()'
p19
sg13
I3
sg14
NsS'parent'
p20
g15
sS'float_size'
p21
S'indiv.getNumPreysNeigh()'
p22
sS'float_bright'
p23
S'indiv.distanceMatingSeason()'
p24
sS'left'
p25
Nsbsg20
g10
sg21
S'+'
sg23
S'/'
sg25
(i__main__
Node
p26
(dp27
g12
S'indiv.target()'
p28
sg13
I3
sg14
Nsg20
g15
sg21
S'indiv.getTailBrightness()'
p29
sg23
g22
sg25
Nsbsbsg20
Nsg21
S'-'
sg23
S'+'
sg25
(i__main__
Node
p30
(dp31
g12
S'-'
sg13
I2
sg14
(i__main__
Node
p32
(dp33
g12
g19
sg13
I3
sg14
Nsg20
g30
sg21
g22
sg23
g24
sg25
Nsbsg20
g10
sg21
S'+'
sg23
S'/'
sg25
(i__main__
Node
p34
(dp35
g12
g28
sg13
I3
sg14
Nsg20
g30
sg21
g29
sg23
g22
sg25
NsbsbsbsS'accel_x'
p36
F0
sS'accel_y'
p37
F0
sS'visionAngle'
p38
I150
sS'maxAccel'
p39
I2
sS'maxVel'
p40
F0.5
sS'age'
p41
I0
sS'tailSize'
p42
F0
sS'sexualgeno'
p43
NsS'tailBrigh'
p44
F0.95238095238095233
sS'maxSteering'
p45
I30
sS'energy'
p46
F0.5
sS'lastScale'
p47
F5.5
sb.(i__main__
Data_mobile
p1
(dp2
S'vel_y'
p3
F-0.39434928460738217
sS'vel_x'
p4
F-0.11218838142913473
sS'pos_x'
p5
F-77.499979109848482
sS'pos_y'
p6
F75.099838124123181
sS'isAlive'
p7
I01
sS'cumulativeEnergy'
p8
F0.5
sS'geno'
p9
(i__main__
Node
p10
(dp11
S'vector'
p12
S'+'
sS'depth'
p13
I1
sS'right'
p14
(i__main__
Node
p15
(dp16
g12
S'-'
sg13
I2
sg14
(i__main__
Node
p17
(dp18
g12
S'indiv.currentEnergy()'
p19
sg13
I3
sg14
NsS'parent'
p20
g15
sS'float_size'
p21
S'indiv.getNumPreysNeigh()'
p22
sS'float_bright'
p23
S'indiv.distanceMatingSeason()'
p24
sS'left'
p25
Nsbsg20
g10
sg21
S'+'
sg23
S'/'
sg25
(i__main__
Node
p26
(dp27
g12
S'indiv.target()'
p28
sg13
I3
sg14
Nsg20
g15
sg21
S'indiv.getTailBrightness()'
p29
sg23
g22
sg25
Nsbsbsg20
Nsg21
S'-'
sg23
S'+'
sg25
(i__main__
Node
p30
(dp31
g12
S'-'
sg13
I2
sg14
(i__main__
Node
p32
(dp33
g12
g19
sg13
I3
sg14
Nsg20
g30
sg21
g22
sg23
g24
sg25
Nsbsg20
g10
sg21
S'+'
sg23
S'/'
sg25
(i__main__
Node
p34
(dp35
g12
g28
sg13
I3
sg14
Nsg20
g30
sg21
g29
sg23
g22
sg25
NsbsbsbsS'accel_x'
p36
F0
sS'accel_y'
p37
F0
sS'visionAngle'
p38
I150
sS'maxAccel'
p39
I2
sS'maxVel'
p40
F0.5
sS'age'
p41
I0
sS'tailSize'
p42
F0
sS'sexualgeno'
p43
NsS'tailBrigh'
p44
F0.086956521739130432
sS'maxSteering'
p45
I30
sS'energy'
p46
F0.5
sS'lastScale'
p47
F5.5
sb.(i__main__
Data_mobile
p1
(dp2
S'vel_y'
p3
F-0.10228565251914812
sS'vel_x'
p4
F0.39996847360625576
sS'pos_x'
p5
F36.056138949546209
sS'pos_y'
p6
F-43.671619906556444
sS'isAlive'
p7
I01
sS'cumulativeEnergy'
p8
F0.5
sS'geno'
p9
(i__main__
Node
p10
(dp11
S'vector'
p12
S'+'
sS'depth'
p13
I1
sS'right'
p14
(i__main__
Node
p15
(dp16
g12
S'-'
sg13
I2
sg14
(i__main__
Node
p17
(dp18
g12
S'indiv.currentEnergy()'
p19
sg13
I3
sg14
NsS'parent'
p20
g15
sS'float_size'
p21
S'indiv.getNumPreysNeigh()'
p22
sS'float_bright'
p23
S'indiv.distanceMatingSeason()'
p24
sS'left'
p25
Nsbsg20
g10
sg21
S'+'
sg23
S'/'
sg25
(i__main__
Node
p26
(dp27
g12
S'indiv.target()'
p28
sg13
I3
sg14
Nsg20
g15
sg21
S'indiv.getTailBrightness()'
p29
sg23
g22
sg25
Nsbsbsg20
Nsg21
S'-'
sg23
S'+'
sg25
(i__main__
Node
p30
(dp31
g12
S'-'
sg13
I2
sg14
(i__main__
Node
p32
(dp33
g12
g19
sg13
I3
sg14
Nsg20
g30
sg21
g22
sg23
g24
sg25
Nsbsg20
g10
sg21
S'+'
sg23
S'/'
sg25
(i__main__
Node
p34
(dp35
g12
g28
sg13
I3
sg14
Nsg20
g30
sg21
g29
sg23
g22
sg25
NsbsbsbsS'accel_x'
p36
F0
sS'accel_y'
p37
F0
sS'visionAngle'
p38
I150
sS'maxAccel'
p39
I2
sS'maxVel'
p40
F0.5
sS'age'
p41
I0
sS'tailSize'
p42
F0
sS'sexualgeno'
p43
NsS'tailBrigh'
p44
F0.45454545454545453
sS'maxSteering'
p45
I30
sS'energy'
p46
F0.5
sS'lastScale'
p47
F5.5
sb.(i__main__
Data_mobile
p1
(dp2
S'vel_y'
p3
F-0.35720774632602742
sS'vel_x'
p4
F-0.10502109856817289
sS'pos_x'
p5
F-87.553721653135213
sS'pos_y'
p6
F74.31106362246463
sS'isAlive'
p7
I01
sS'cumulativeEnergy'
p8
F0.5
sS'geno'
p9
(i__main__
Node
p10
(dp11
S'vector'
p12
S'+'
sS'depth'
p13
I1
sS'right'
p14
(i__main__
Node
p15
(dp16
g12
S'-'
sg13
I2
sg14
(i__main__
Node
p17
(dp18
g12
S'indiv.currentEnergy()'
p19
sg13
I3
sg14
NsS'parent'
p20
g15
sS'float_size'
p21
S'indiv.getNumPreysNeigh()'
p22
sS'float_bright'
p23
S'indiv.distanceMatingSeason()'
p24
sS'left'
p25
Nsbsg20
g10
sg21
S'+'
sg23
S'/'
sg25
(i__main__
Node
p26
(dp27
g12
S'indiv.target()'
p28
sg13
I3
sg14
Nsg20
g15
sg21
S'indiv.getTailBrightness()'
p29
sg23
g22
sg25
Nsbsbsg20
Nsg21
S'-'
sg23
S'+'
sg25
(i__main__
Node
p30
(dp31
g12
S'-'
sg13
I2
sg14
(i__main__
Node
p32
(dp33
g12
g19
sg13
I3
sg14
Nsg20
g30
sg21
g22
sg23
g24
sg25
Nsbsg20
g10
sg21
S'+'
sg23
S'/'
sg25
(i__main__
Node
p34
(dp35
g12
g28
sg13
I3
sg14
Nsg20
g30
sg21
g29
sg23
g22
sg25
NsbsbsbsS'accel_x'
p36
F0
sS'accel_y'
p37
F0
sS'visionAngle'
p38
I150
sS'maxAccel'
p39
I2
sS'maxVel'
p40
F0.5
sS'age'
p41
I0
sS'tailSize'
p42
F0
sS'sexualgeno'
p43
NsS'tailBrigh'
p44
F0.58333333333333337
sS'maxSteering'
p45
I30
sS'energy'
p46
F0.5
sS'lastScale'
p47
F5.5
sb.(i__main__
Data_mobile
p1
(dp2
S'vel_y'
p3
F0.19564929790363123
sS'vel_x'
p4
F0.25480970185207491
sS'pos_x'
p5
F163.20508181947207
sS'pos_y'
p6
F-98.613541442671789
sS'isAlive'
p7
I01
sS'cumulativeEnergy'
p8
F0.5
sS'geno'
p9
(i__main__
Node
p10
(dp11
S'vector'
p12
S'+'
sS'depth'
p13
I1
sS'right'
p14
(i__main__
Node
p15
(dp16
g12
S'-'
sg13
I2
sg14
(i__main__
Node
p17
(dp18
g12
S'indiv.currentEnergy()'
p19
sg13
I3
sg14
NsS'parent'
p20
g15
sS'float_size'
p21
S'indiv.getNumPreysNeigh()'
p22
sS'float_bright'
p23
S'indiv.distanceMatingSeason()'
p24
sS'left'
p25
Nsbsg20
g10
sg21
S'+'
sg23
S'/'
sg25
(i__main__
Node
p26
(dp27
g12
S'indiv.target()'
p28
sg13
I3
sg14
Nsg20
g15
sg21
S'indiv.getTailBrightness()'
p29
sg23
g22
sg25
Nsbsbsg20
Nsg21
S'-'
sg23
S'+'
sg25
(i__main__
Node
p30
(dp31
g12
S'-'
sg13
I2
sg14
(i__main__
Node
p32
(dp33
g12
g19
sg13
I3
sg14
Nsg20
g30
sg21
g22
sg23
g24
sg25
Nsbsg20
g10
sg21
S'+'
sg23
S'/'
sg25
(i__main__
Node
p34
(dp35
g12
g28
sg13
I3
sg14
Nsg20
g30
sg21
g29
sg23
g22
sg25
NsbsbsbsS'accel_x'
p36
F0
sS'accel_y'
p37
F0
sS'visionAngle'
p38
I150
sS'maxAccel'
p39
I2
sS'maxVel'
p40
F0.5
sS'age'
p41
I0
sS'tailSize'
p42
F0.87019116704312172
sS'sexualgeno'
p43
NsS'tailBrigh'
p44
F0.080813135273627407
sS'maxSteering'
p45
I30
sS'energy'
p46
F0.5
sS'lastScale'
p47
F5.5
sb.(i__main__
Data_mobile
p1
(dp2
S'vel_y'
p3
F-0.24455149699212081
sS'vel_x'
p4
F-0.051909202641850859
sS'pos_x'
p5
F-43.703910145284013
sS'pos_y'
p6
F-27.268190415318685
sS'isAlive'
p7
I01
sS'cumulativeEnergy'
p8
F0.5
sS'geno'
p9
(i__main__
Node
p10
(dp11
S'vector'
p12
S'+'
sS'depth'
p13
I1
sS'right'
p14
(i__main__
Node
p15
(dp16
g12
S'-'
sg13
I2
sg14
(i__main__
Node
p17
(dp18
g12
S'indiv.currentEnergy()'
p19
sg13
I3
sg14
NsS'parent'
p20
g15
sS'float_size'
p21
S'indiv.getNumPreysNeigh()'
p22
sS'float_bright'
p23
S'indiv.distanceMatingSeason()'
p24
sS'left'
p25
Nsbsg20
g10
sg21
S'+'
sg23
S'/'
sg25
(i__main__
Node
p26
(dp27
g12
S'indiv.target()'
p28
sg13
I3
sg14
Nsg20
g15
sg21
S'indiv.getTailBrightness()'
p29
sg23
g22
sg25
Nsbsbsg20
Nsg21
S'-'
sg23
S'+'
sg25
(i__main__
Node
p30
(dp31
g12
S'-'
sg13
I2
sg14
(i__main__
Node
p32
(dp33
g12
g19
sg13
I3
sg14
Nsg20
g30
sg21
g22
sg23
g24
sg25
Nsbsg20
g10
sg21
S'+'
sg23
S'/'
sg25
(i__main__
Node
p34
(dp35
g12
g28
sg13
I3
sg14
Nsg20
g30
sg21
g29
sg23
g22
sg25
NsbsbsbsS'accel_x'
p36
F0
sS'accel_y'
p37
F0
sS'visionAngle'
p38
I150
sS'maxAccel'
p39
I2
sS'maxVel'
p40
F0.5
sS'age'
p41
I0
sS'tailSize'
p42
F-21660828.179283906
sS'sexualgeno'
p43
NsS'tailBrigh'
p44
F43321647.62751741
sS'maxSteering'
p45
I30
sS'energy'
p46
F0.5
sS'lastScale'
p47
F5.5
sb.(i__main__
Data_mobile
p1
(dp2
S'vel_y'
p3
F-0.36505876822498518
sS'vel_x'
p4
F-0.29488181247907153
sS'pos_x'
p5
F83.577036322342138
sS'pos_y'
p6
F30.144720403012041
sS'isAlive'
p7
I01
sS'cumulativeEnergy'
p8
F0.5
sS'geno'
p9
(i__main__
Node
p10
(dp11
S'vector'
p12
S'+'
sS'depth'
p13
I1
sS'right'
p14
(i__main__
Node
p15
(dp16
g12
S'-'
sg13
I2
sg14
(i__main__
Node
p17
(dp18
g12
S'indiv.currentEnergy()'
p19
sg13
I3
sg14
NsS'parent'
p20
g15
sS'float_size'
p21
S'indiv.getNumPreysNeigh()'
p22
sS'float_bright'
p23
S'indiv.distanceMatingSeason()'
p24
sS'left'
p25
Nsbsg20
g10
sg21
S'+'
sg23
S'/'
sg25
(i__main__
Node
p26
(dp27
g12
S'indiv.target()'
p28
sg13
I3
sg14
Nsg20
g15
sg21
S'indiv.getTailBrightness()'
p29
sg23
g22
sg25
Nsbsbsg20
Nsg21
S'-'
sg23
S'+'
sg25
(i__main__
Node
p30
(dp31
g12
S'-'
sg13
I2
sg14
(i__main__
Node
p32
(dp33
g12
g19
sg13
I3
sg14
Nsg20
g30
sg21
g22
sg23
g24
sg25
Nsbsg20
g10
sg21
S'+'
sg23
S'/'
sg25
(i__main__
Node
p34
(dp35
g12
g28
sg13
I3
sg14
Nsg20
g30
sg21
g29
sg23
g22
sg25
NsbsbsbsS'accel_x'
p36
F0
sS'accel_y'
p37
F0
sS'visionAngle'
p38
I150
sS'maxAccel'
p39
I2
sS'maxVel'
p40
F0.5
sS'age'
p41
I0
sS'tailSize'
p42
F-1.8792889460812559
sS'sexualgeno'
p43
NsS'tailBrigh'
p44
F2.8438537699715312
sS'maxSteering'
p45
I30
sS'energy'
p46
F0.5
sS'lastScale'
p47
F5.5
sb.(i__main__
Data_mobile
p1
(dp2
S'vel_y'
p3
F-0.35729821741064199
sS'vel_x'
p4
F-0.19487741256406887
sS'pos_x'
p5
F-55.918035556180058
sS'pos_y'
p6
F22.139311469615745
sS'isAlive'
p7
I01
sS'cumulativeEnergy'
p8
F0.5
sS'geno'
p9
(i__main__
Node
p10
(dp11
S'vector'
p12
S'+'
sS'depth'
p13
I1
sS'right'
p14
(i__main__
Node
p15
(dp16
g12
S'-'
sg13
I2
sg14
(i__main__
Node
p17
(dp18
g12
S'indiv.currentEnergy()'
p19
sg13
I3
sg14
NsS'parent'
p20
g15
sS'float_size'
p21
S'indiv.getNumPreysNeigh()'
p22
sS'float_bright'
p23
S'indiv.distanceMatingSeason()'
p24
sS'left'
p25
Nsbsg20
g10
sg21
S'+'
sg23
S'/'
sg25
(i__main__
Node
p26
(dp27
g12
S'indiv.target()'
p28
sg13
I3
sg14
Nsg20
g15
sg21
S'indiv.getTailBrightness()'
p29
sg23
g22
sg25
Nsbsbsg20
Nsg21
S'-'
sg23
S'+'
sg25
(i__main__
Node
p30
(dp31
g12
S'-'
sg13
I2
sg14
(i__main__
Node
p32
(dp33
g12
g19
sg13
I3
sg14
Nsg20
g30
sg21
g22
sg23
g24
sg25
Nsbsg20
g10
sg21
S'+'
sg23
S'/'
sg25
(i__main__
Node
p34
(dp35
g12
g28
sg13
I3
sg14
Nsg20
g30
sg21
g29
sg23
g22
sg25
NsbsbsbsS'accel_x'
p36
F0
sS'accel_y'
p37
F0
sS'visionAngle'
p38
I150
sS'maxAccel'
p39
I2
sS'maxVel'
p40
F0.5
sS'age'
p41
I0
sS'tailSize'
p42
F0
sS'sexualgeno'
p43
NsS'tailBrigh'
p44
F0.71999999999999997
sS'maxSteering'
p45
I30
sS'energy'
p46
F0.5
sS'lastScale'
p47
F5.5
sb.(i__main__
Data_mobile
p1
(dp2
S'vel_y'
p3
F-0.39002598800186122
sS'vel_x'
p4
F-0.11135410554565148
sS'pos_x'
p5
F-86.107520615458185
sS'pos_y'
p6
F74.424526494413101
sS'isAlive'
p7
I01
sS'cumulativeEnergy'
p8
F0.5
sS'geno'
p9
(i__main__
Node
p10
(dp11
S'vector'
p12
S'+'
sS'depth'
p13
I1
sS'right'
p14
(i__main__
Node
p15
(dp16
g12
S'-'
sg13
I2
sg14
(i__main__
Node
p17
(dp18
g12
S'indiv.currentEnergy()'
p19
sg13
I3
sg14
NsS'parent'
p20
g15
sS'float_size'
p21
S'indiv.getNumPreysNeigh()'
p22
sS'float_bright'
p23
S'indiv.distanceMatingSeason()'
p24
sS'left'
p25
Nsbsg20
g10
sg21
S'+'
sg23
S'/'
sg25
(i__main__
Node
p26
(dp27
g12
S'indiv.target()'
p28
sg13
I3
sg14
Nsg20
g15
sg21
S'indiv.getTailBrightness()'
p29
sg23
g22
sg25
Nsbsbsg20
Nsg21
S'-'
sg23
S'+'
sg25
(i__main__
Node
p30
(dp31
g12
S'-'
sg13
I2
sg14
(i__main__
Node
p32
(dp33
g12
g19
sg13
I3
sg14
Nsg20
g30
sg21
g22
sg23
g24
sg25
Nsbsg20
g10
sg21
S'+'
sg23
S'/'
sg25
(i__main__
Node
p34
(dp35
g12
g28
sg13
I3
sg14
Nsg20
g30
sg21
g29
sg23
g22
sg25
NsbsbsbsS'accel_x'
p36
F0
sS'accel_y'
p37
F0
sS'visionAngle'
p38
I150
sS'maxAccel'
p39
I2
sS'maxVel'
p40
F0.5
sS'age'
p41
I0
sS'tailSize'
p42
F0
sS'sexualgeno'
p43
NsS'tailBrigh'
p44
F0
sS'maxSteering'
p45
I30
sS'energy'
p46
F0.5
sS'lastScale'
p47
F5.5
sb.(i__main__
Data_mobile
p1
(dp2
S'vel_y'
p3
F0.16228447998771234
sS'vel_x'
p4
F-0.4435685736711546
sS'pos_x'
p5
F101.12454743630602
sS'pos_y'
p6
F55.174893822477244
sS'isAlive'
p7
I01
sS'cumulativeEnergy'
p8
F0.5
sS'geno'
p9
(i__main__
Node
p10
(dp11
S'vector'
p12
S'+'
sS'depth'
p13
I1
sS'right'
p14
(i__main__
Node
p15
(dp16
g12
S'-'
sg13
I2
sg14
(i__main__
Node
p17
(dp18
g12
S'indiv.currentEnergy()'
p19
sg13
I3
sg14
NsS'parent'
p20
g15
sS'float_size'
p21
S'indiv.getNumPreysNeigh()'
p22
sS'float_bright'
p23
S'indiv.distanceMatingSeason()'
p24
sS'left'
p25
Nsbsg20
g10
sg21
S'+'
sg23
S'/'
sg25
(i__main__
Node
p26
(dp27
g12
S'indiv.target()'
p28
sg13
I3
sg14
Nsg20
g15
sg21
S'indiv.getTailBrightness()'
p29
sg23
g22
sg25
Nsbsbsg20
Nsg21
S'-'
sg23
S'+'
sg25
(i__main__
Node
p30
(dp31
g12
S'-'
sg13
I2
sg14
(i__main__
Node
p32
(dp33
g12
g19
sg13
I3
sg14
Nsg20
g30
sg21
g22
sg23
g24
sg25
Nsbsg20
g10
sg21
S'+'
sg23
S'/'
sg25
(i__main__
Node
p34
(dp35
g12
g28
sg13
I3
sg14
Nsg20
g30
sg21
g29
sg23
g22
sg25
NsbsbsbsS'accel_x'
p36
F0
sS'accel_y'
p37
F0
sS'visionAngle'
p38
I150
sS'maxAccel'
p39
I2
sS'maxVel'
p40
F0.5
sS'age'
p41
I0
sS'tailSize'
p42
F0
sS'sexualgeno'
p43
NsS'tailBrigh'
p44
F0.59999999999999998
sS'maxSteering'
p45
I30
sS'energy'
p46
F0.5
sS'lastScale'
p47
F5.5
sb.(i__main__
Data_mobile
p1
(dp2
S'vel_y'
p3
F-0.35719578814139769
sS'vel_x'
p4
F-0.34744050032279866
sS'pos_x'
p5
F-40.916080538871142
sS'pos_y'
p6
F18.445882858386486
sS'isAlive'
p7
I01
sS'cumulativeEnergy'
p8
F0.5
sS'geno'
p9
(i__main__
Node
p10
(dp11
S'vector'
p12
S'+'
sS'depth'
p13
I1
sS'right'
p14
(i__main__
Node
p15
(dp16
g12
S'-'
sg13
I2
sg14
(i__main__
Node
p17
(dp18
g12
S'indiv.currentEnergy()'
p19
sg13
I3
sg14
NsS'parent'
p20
g15
sS'float_size'
p21
S'indiv.getNumPreysNeigh()'
p22
sS'float_bright'
p23
S'indiv.distanceMatingSeason()'
p24
sS'left'
p25
Nsbsg20
g10
sg21
S'+'
sg23
S'/'
sg25
(i__main__
Node
p26
(dp27
g12
S'indiv.target()'
p28
sg13
I3
sg14
Nsg20
g15
sg21
S'indiv.getTailBrightness()'
p29
sg23
g22
sg25
Nsbsbsg20
Nsg21
S'-'
sg23
S'+'
sg25
(i__main__
Node
p30
(dp31
g12
S'-'
sg13
I2
sg14
(i__main__
Node
p32
(dp33
g12
g19
sg13
I3
sg14
Nsg20
g30
sg21
g22
sg23
g24
sg25
Nsbsg20
g10
sg21
S'+'
sg23
S'/'
sg25
(i__main__
Node
p34
(dp35
g12
g28
sg13
I3
sg14
Nsg20
g30
sg21
g29
sg23
g22
sg25
NsbsbsbsS'accel_x'
p36
F0
sS'accel_y'
p37
F0
sS'visionAngle'
p38
I150
sS'maxAccel'
p39
I2
sS'maxVel'
p40
F0.5
sS'age'
p41
I0
sS'tailSize'
p42
F0
sS'sexualgeno'
p43
NsS'tailBrigh'
p44
F0.83333333333333337
sS'maxSteering'
p45
I30
sS'energy'
p46
F0.5
sS'lastScale'
p47
F5.5
sb.(i__main__
Data_mobile
p1
(dp2
S'vel_y'
p3
F-0.41260586214409678
sS'vel_x'
p4
F-0.079458126828978848
sS'pos_x'
p5
F33.436750464161264
sS'pos_y'
p6
F6.1181262493712261
sS'isAlive'
p7
I01
sS'cumulativeEnergy'
p8
F0.5
sS'geno'
p9
(i__main__
Node
p10
(dp11
S'vector'
p12
S'+'
sS'depth'
p13
I1
sS'right'
p14
(i__main__
Node
p15
(dp16
g14
NsS'parent'
p17
g10
sg13
I2
sg12
S'indiv.randV()'
p18
sS'float_size'
p19
S'indiv.getTailSize()'
p20
sS'float_bright'
p21
g20
sS'left'
p22
Nsbsg17
Nsg19
S'-'
sg21
S'+'
sg22
(i__main__
Node
p23
(dp24
g12
S'-'
sg13
I2
sg14
(i__main__
Node
p25
(dp26
g12
S'indiv.currentEnergy()'
p27
sg13
I3
sg14
Nsg17
g23
sg19
S'indiv.getNumPreysNeigh()'
p28
sg21
S'indiv.distanceMatingSeason()'
p29
sg22
Nsbsg17
g10
sg19
S'+'
sg21
S'/'
sg22
(i__main__
Node
p30
(dp31
g12
S'indiv.target()'
p32
sg13
I3
sg14
Nsg17
g23
sg19
S'indiv.getTailBrightness()'
p33
sg21
g28
sg22
NsbsbsbsS'accel_x'
p34
F0
sS'accel_y'
p35
F0
sS'visionAngle'
p36
I150
sS'maxAccel'
p37
I2
sS'maxVel'
p38
F0.5
sS'age'
p39
I0
sS'tailSize'
p40
F0
sS'sexualgeno'
p41
NsS'tailBrigh'
p42
F0.77419354838709675
sS'maxSteering'
p43
I30
sS'energy'
p44
F0.5
sS'lastScale'
p45
F5.5
sb.(i__main__
Data_mobile
p1
(dp2
S'vel_y'
p3
F-0.01772425698065766
sS'vel_x'
p4
F-0.43546288506501368
sS'pos_x'
p5
F185.19716768440651
sS'pos_y'
p6
F39.117619253711801
sS'isAlive'
p7
I01
sS'cumulativeEnergy'
p8
F0.5
sS'geno'
p9
(i__main__
Node
p10
(dp11
S'vector'
p12
S'+'
sS'depth'
p13
I1
sS'right'
p14
(i__main__
Node
p15
(dp16
g12
S'-'
sg13
I2
sg14
(i__main__
Node
p17
(dp18
g12
S'indiv.currentEnergy()'
p19
sg13
I3
sg14
NsS'parent'
p20
g15
sS'float_size'
p21
S'indiv.getNumPreysNeigh()'
p22
sS'float_bright'
p23
S'indiv.distanceMatingSeason()'
p24
sS'left'
p25
Nsbsg20
g10
sg21
S'+'
sg23
S'/'
sg25
(i__main__
Node
p26
(dp27
g12
S'indiv.target()'
p28
sg13
I3
sg14
Nsg20
g15
sg21
S'indiv.getTailBrightness()'
p29
sg23
g22
sg25
Nsbsbsg20
Nsg21
S'-'
sg23
S'+'
sg25
(i__main__
Node
p30
(dp31
g12
S'-'
sg13
I2
sg14
(i__main__
Node
p32
(dp33
g12
g19
sg13
I3
sg14
Nsg20
g30
sg21
g22
sg23
g24
sg25
Nsbsg20
g10
sg21
S'+'
sg23
S'/'
sg25
(i__main__
Node
p34
(dp35
g12
g28
sg13
I3
sg14
Nsg20
g30
sg21
g29
sg23
g22
sg25
NsbsbsbsS'accel_x'
p36
F0
sS'accel_y'
p37
F0
sS'visionAngle'
p38
I150
sS'maxAccel'
p39
I2
sS'maxVel'
p40
F0.5
sS'age'
p41
I0
sS'tailSize'
p42
F0
sS'sexualgeno'
p43
NsS'tailBrigh'
p44
F0.7142857142857143
sS'maxSteering'
p45
I30
sS'energy'
p46
F0.5
sS'lastScale'
p47
F5.5
sb.(i__main__
Data_mobile
p1
(dp2
S'vel_y'
p3
F-0.35236964358114109
sS'vel_x'
p4
F-0.35237085745862745
sS'pos_x'
p5
F-34.563527709247062
sS'pos_y'
p6
F-24.774027200616782
sS'isAlive'
p7
I01
sS'cumulativeEnergy'
p8
F0.5
sS'geno'
p9
(i__main__
Node
p10
(dp11
S'vector'
p12
S'+'
sS'depth'
p13
I1
sS'right'
p14
(i__main__
Node
p15
(dp16
g12
S'-'
sg13
I2
sg14
(i__main__
Node
p17
(dp18
g12
S'indiv.currentEnergy()'
p19
sg13
I3
sg14
NsS'parent'
p20
g15
sS'float_size'
p21
S'indiv.getNumPreysNeigh()'
p22
sS'float_bright'
p23
S'indiv.distanceMatingSeason()'
p24
sS'left'
p25
Nsbsg20
g10
sg21
S'+'
sg23
S'/'
sg25
(i__main__
Node
p26
(dp27
g12
S'indiv.target()'
p28
sg13
I3
sg14
Nsg20
g15
sg21
S'indiv.getTailBrightness()'
p29
sg23
g22
sg25
Nsbsbsg20
Nsg21
S'-'
sg23
S'+'
sg25
(i__main__
Node
p30
(dp31
g12
S'-'
sg13
I2
sg14
(i__main__
Node
p32
(dp33
g12
g19
sg13
I3
sg14
Nsg20
g30
sg21
g22
sg23
g24
sg25
Nsbsg20
g10
sg21
S'+'
sg23
S'/'
sg25
(i__main__
Node
p34
(dp35
g12
g28
sg13
I3
sg14
Nsg20
g30
sg21
g29
sg23
g22
sg25
NsbsbsbsS'accel_x'
p36
F0
sS'accel_y'
p37
F0
sS'visionAngle'
p38
I150
sS'maxAccel'
p39
I2
sS'maxVel'
p40
F0.5
sS'age'
p41
I0
sS'tailSize'
p42
F0
sS'sexualgeno'
p43
NsS'tailBrigh'
p44
F0
sS'maxSteering'
p45
I30
sS'energy'
p46
F0.5
sS'lastScale'
p47
F5.5
sb.(i__main__
Data_mobile
p1
(dp2
S'vel_y'
p3
F-0.35745156120591004
sS'vel_x'
p4
F-0.34717920352449194
sS'pos_x'
p5
F-33.420436247754651
sS'pos_y'
p6
F-14.962434057763357
sS'isAlive'
p7
I01
sS'cumulativeEnergy'
p8
F0.5
sS'geno'
p9
(i__main__
Node
p10
(dp11
S'vector'
p12
S'+'
sS'depth'
p13
I1
sS'right'
p14
(i__main__
Node
p15
(dp16
g12
S'-'
sg13
I2
sg14
(i__main__
Node
p17
(dp18
g12
S'indiv.currentEnergy()'
p19
sg13
I3
sg14
NsS'parent'
p20
g15
sS'float_size'
p21
S'indiv.getNumPreysNeigh()'
p22
sS'float_bright'
p23
S'indiv.distanceMatingSeason()'
p24
sS'left'
p25
Nsbsg20
g10
sg21
S'+'
sg23
S'/'
sg25
(i__main__
Node
p26
(dp27
g12
S'indiv.target()'
p28
sg13
I3
sg14
Nsg20
g15
sg21
S'indiv.getTailBrightness()'
p29
sg23
g22
sg25
Nsbsbsg20
Nsg21
S'-'
sg23
S'+'
sg25
(i__main__
Node
p30
(dp31
g12
S'-'
sg13
I2
sg14
(i__main__
Node
p32
(dp33
g12
g19
sg13
I3
sg14
Nsg20
g30
sg21
g22
sg23
g24
sg25
Nsbsg20
g10
sg21
S'+'
sg23
S'/'
sg25
(i__main__
Node
p34
(dp35
g12
g28
sg13
I3
sg14
Nsg20
g30
sg21
g29
sg23
g22
sg25
NsbsbsbsS'accel_x'
p36
F0
sS'accel_y'
p37
F0
sS'visionAngle'
p38
I150
sS'maxAccel'
p39
I2
sS'maxVel'
p40
F0.5
sS'age'
p41
I0
sS'tailSize'
p42
F0
sS'sexualgeno'
p43
NsS'tailBrigh'
p44
F0.86486486486486491
sS'maxSteering'
p45
I30
sS'energy'
p46
F0.5
sS'lastScale'
p47
F5.5
sb.(i__main__
Data_mobile
p1
(dp2
S'vel_y'
p3
F-0.41704977752101141
sS'vel_x'
p4
F-0.27051410337702148
sS'pos_x'
p5
F19.610386289275255
sS'pos_y'
p6
F0.69777983177516489
sS'isAlive'
p7
I01
sS'cumulativeEnergy'
p8
F0.5
sS'geno'
p9
(i__main__
Node
p10
(dp11
S'vector'
p12
S'+'
sS'depth'
p13
I1
sS'right'
p14
(i__main__
Node
p15
(dp16
g12
S'-'
sg13
I2
sg14
(i__main__
Node
p17
(dp18
g12
S'indiv.currentEnergy()'
p19
sg13
I3
sg14
NsS'parent'
p20
g15
sS'float_size'
p21
S'indiv.getNumPreysNeigh()'
p22
sS'float_bright'
p23
S'indiv.distanceMatingSeason()'
p24
sS'left'
p25
Nsbsg20
g10
sg21
S'+'
sg23
S'/'
sg25
(i__main__
Node
p26
(dp27
g12
S'indiv.target()'
p28
sg13
I3
sg14
Nsg20
g15
sg21
S'indiv.getTailBrightness()'
p29
sg23
g22
sg25
Nsbsbsg20
Nsg21
S'-'
sg23
S'+'
sg25
(i__main__
Node
p30
(dp31
g12
S'-'
sg13
I2
sg14
(i__main__
Node
p32
(dp33
g12
g19
sg13
I3
sg14
Nsg20
g30
sg21
g22
sg23
g24
sg25
Nsbsg20
g10
sg21
S'+'
sg23
S'/'
sg25
(i__main__
Node
p34
(dp35
g12
g28
sg13
I3
sg14
Nsg20
g30
sg21
g29
sg23
g22
sg25
NsbsbsbsS'accel_x'
p36
F0
sS'accel_y'
p37
F0
sS'visionAngle'
p38
I150
sS'maxAccel'
p39
I2
sS'maxVel'
p40
F0.5
sS'age'
p41
I0
sS'tailSize'
p42
F0
sS'sexualgeno'
p43
NsS'tailBrigh'
p44
F0
sS'maxSteering'
p45
I30
sS'energy'
p46
F0.5
sS'lastScale'
p47
F5.5
sb.(i__main__
Data_mobile
p1
(dp2
S'vel_y'
p3
F-0.11299899603531857
sS'vel_x'
p4
F-0.30796686051744593
sS'pos_x'
p5
F70.92219228191415
sS'pos_y'
p6
F-91.987007356419454
sS'isAlive'
p7
I01
sS'cumulativeEnergy'
p8
F0.5
sS'geno'
p9
(i__main__
Node
p10
(dp11
S'vector'
p12
S'+'
sS'depth'
p13
I1
sS'right'
p14
(i__main__
Node
p15
(dp16
g12
S'-'
sg13
I2
sg14
(i__main__
Node
p17
(dp18
g12
S'indiv.currentEnergy()'
p19
sg13
I3
sg14
NsS'parent'
p20
g15
sS'float_size'
p21
S'indiv.getNumPreysNeigh()'
p22
sS'float_bright'
p23
S'indiv.distanceMatingSeason()'
p24
sS'left'
p25
Nsbsg20
g10
sg21
S'+'
sg23
S'/'
sg25
(i__main__
Node
p26
(dp27
g12
S'indiv.target()'
p28
sg13
I3
sg14
Nsg20
g15
sg21
S'indiv.getTailBrightness()'
p29
sg23
g22
sg25
Nsbsbsg20
Nsg21
S'-'
sg23
S'+'
sg25
(i__main__
Node
p30
(dp31
g12
S'-'
sg13
I2
sg14
(i__main__
Node
p32
(dp33
g12
g19
sg13
I3
sg14
Nsg20
g30
sg21
g22
sg23
g24
sg25
Nsbsg20
g10
sg21
S'+'
sg23
S'/'
sg25
(i__main__
Node
p34
(dp35
g12
g28
sg13
I3
sg14
Nsg20
g30
sg21
g29
sg23
g22
sg25
NsbsbsbsS'accel_x'
p36
F0
sS'accel_y'
p37
F0
sS'visionAngle'
p38
I150
sS'maxAccel'
p39
I2
sS'maxVel'
p40
F0.5
sS'age'
p41
I0
sS'tailSize'
p42
F-32.743453400407084
sS'sexualgeno'
p43
NsS'tailBrigh'
p44
F32.743453400407084
sS'maxSteering'
p45
I30
sS'energy'
p46
F0.5
sS'lastScale'
p47
F5.5
sb.(i__main__
Data_mobile
p1
(dp2
S'vel_y'
p3
F-0.23454535770472376
sS'vel_x'
p4
F-0.086535976213151872
sS'pos_x'
p5
F-28.72928969991785
sS'pos_y'
p6
F-41.132019018271791
sS'isAlive'
p7
I01
sS'cumulativeEnergy'
p8
F0.5
sS'geno'
p9
(i__main__
Node
p10
(dp11
S'vector'
p12
S'+'
sS'depth'
p13
I1
sS'right'
p14
(i__main__
Node
p15
(dp16
g12
S'-'
sg13
I2
sg14
(i__main__
Node
p17
(dp18
g12
S'indiv.currentEnergy()'
p19
sg13
I3
sg14
NsS'parent'
p20
g15
sS'float_size'
p21
S'indiv.getNumPreysNeigh()'
p22
sS'float_bright'
p23
S'indiv.distanceMatingSeason()'
p24
sS'left'
p25
Nsbsg20
g10
sg21
S'+'
sg23
S'/'
sg25
(i__main__
Node
p26
(dp27
g12
S'indiv.target()'
p28
sg13
I3
sg14
Nsg20
g15
sg21
S'indiv.getTailBrightness()'
p29
sg23
g22
sg25
Nsbsbsg20
Nsg21
S'-'
sg23
S'+'
sg25
(i__main__
Node
p30
(dp31
g12
S'-'
sg13
I2
sg14
(i__main__
Node
p32
(dp33
g12
g19
sg13
I3
sg14
Nsg20
g30
sg21
g22
sg23
g24
sg25
Nsbsg20
g10
sg21
S'+'
sg23
S'/'
sg25
(i__main__
Node
p34
(dp35
g12
g28
sg13
I3
sg14
Nsg20
g30
sg21
g29
sg23
g22
sg25
NsbsbsbsS'accel_x'
p36
F0
sS'accel_y'
p37
F0
sS'visionAngle'
p38
I150
sS'maxAccel'
p39
I2
sS'maxVel'
p40
F0.5
sS'age'
p41
I0
sS'tailSize'
p42
F141.17549341995058
sS'sexualgeno'
p43
NsS'tailBrigh'
p44
F0
sS'maxSteering'
p45
I30
sS'energy'
p46
F0.5
sS'lastScale'
p47
F5.5
sb.(i__main__
Data_mobile
p1
(dp2
S'vel_y'
p3
F0.0011749350249644838
sS'vel_x'
p4
F0.017734641156287312
sS'pos_x'
p5
F8.7198788337701334
sS'pos_y'
p6
F-41.765870837684695
sS'isAlive'
p7
I01
sS'cumulativeEnergy'
p8
F0.5
sS'geno'
p9
(i__main__
Node
p10
(dp11
S'vector'
p12
S'+'
sS'depth'
p13
I1
sS'right'
p14
(i__main__
Node
p15
(dp16
g12
S'-'
sg13
I2
sg14
(i__main__
Node
p17
(dp18
g12
S'indiv.currentEnergy()'
p19
sg13
I3
sg14
NsS'parent'
p20
g15
sS'float_size'
p21
S'indiv.getNumPreysNeigh()'
p22
sS'float_bright'
p23
S'indiv.distanceMatingSeason()'
p24
sS'left'
p25
Nsbsg20
g10
sg21
S'+'
sg23
S'/'
sg25
(i__main__
Node
p26
(dp27
g12
S'indiv.target()'
p28
sg13
I3
sg14
Nsg20
g15
sg21
S'indiv.getTailBrightness()'
p29
sg23
g22
sg25
Nsbsbsg20
Nsg21
S'-'
sg23
S'+'
sg25
(i__main__
Node
p30
(dp31
g12
S'/'
sg13
I2
sg14
(i__main__
Node
p32
(dp33
g12
S'-'
sg13
I3
sg14
(i__main__
Node
p34
(dp35
g12
g19
sg13
I4
sg14
Nsg20
g32
sg21
g22
sg23
g24
sg25
Nsbsg20
g30
sg21
S'+'
sg23
S'/'
sg25
(i__main__
Node
p36
(dp37
g12
g28
sg13
I4
sg14
Nsg20
g32
sg21
g29
sg23
g22
sg25
Nsbsbsg20
g10
sg21
S'+'
sg23
S'*'
sg25
(i__main__
Node
p38
(dp39
g12
S'*'
sg13
I3
sg14
(i__main__
Node
p40
(dp41
g12
S'indiv.randV()'
p42
sg13
I4
sg14
Nsg20
g38
sg21
g24
sg23
S'indiv.getTailSize()'
p43
sg25
Nsbsg20
g30
sg21
S'/'
sg23
S'*'
sg25
(i__main__
Node
p44
(dp45
g12
S'indiv.cohesion()'
p46
sg13
I4
sg14
Nsg20
g38
sg21
g29
sg23
S'indiv.getEnergy()'
p47
sg25
NsbsbsbsbsS'accel_x'
p48
F0
sS'accel_y'
p49
F0
sS'visionAngle'
p50
I150
sS'maxAccel'
p51
I2
sS'maxVel'
p52
F0.5
sS'age'
p53
I0
sS'tailSize'
p54
F0
sS'sexualgeno'
p55
NsS'tailBrigh'
p56
F0
sS'maxSteering'
p57
I30
sS'energy'
p58
F0.5
sS'lastScale'
p59
F5.5
sb.(i__main__
Data_mobile
p1
(dp2
S'vel_y'
p3
F-0.35237025311889081
sS'vel_x'
p4
F-0.35237024793064048
sS'pos_x'
p5
F-33.220480519639331
sS'pos_y'
p6
F-25.521608742441757
sS'isAlive'
p7
I01
sS'cumulativeEnergy'
p8
F0.5
sS'geno'
p9
(i__main__
Node
p10
(dp11
S'vector'
p12
S'+'
sS'depth'
p13
I1
sS'right'
p14
(i__main__
Node
p15
(dp16
g12
S'-'
sg13
I2
sg14
(i__main__
Node
p17
(dp18
g12
S'indiv.currentEnergy()'
p19
sg13
I3
sg14
NsS'parent'
p20
g15
sS'float_size'
p21
S'indiv.getNumPreysNeigh()'
p22
sS'float_bright'
p23
S'indiv.distanceMatingSeason()'
p24
sS'left'
p25
Nsbsg20
g10
sg21
S'+'
sg23
S'/'
sg25
(i__main__
Node
p26
(dp27
g12
S'indiv.target()'
p28
sg13
I3
sg14
Nsg20
g15
sg21
S'indiv.getTailBrightness()'
p29
sg23
g22
sg25
Nsbsbsg20
Nsg21
S'-'
sg23
S'+'
sg25
(i__main__
Node
p30
(dp31
g12
S'-'
sg13
I2
sg14
(i__main__
Node
p32
(dp33
g12
g19
sg13
I3
sg14
Nsg20
g30
sg21
g22
sg23
g24
sg25
Nsbsg20
g10
sg21
S'+'
sg23
S'/'
sg25
(i__main__
Node
p34
(dp35
g12
g28
sg13
I3
sg14
Nsg20
g30
sg21
g29
sg23
g22
sg25
NsbsbsbsS'accel_x'
p36
F0
sS'accel_y'
p37
F0
sS'visionAngle'
p38
I150
sS'maxAccel'
p39
I2
sS'maxVel'
p40
F0.5
sS'age'
p41
I0
sS'tailSize'
p42
F0
sS'sexualgeno'
p43
NsS'tailBrigh'
p44
F0
sS'maxSteering'
p45
I30
sS'energy'
p46
F0.5
sS'lastScale'
p47
F5.5
sb.(i__main__
Data_mobile
p1
(dp2
S'vel_y'
p3
F-0.30080525177620793
sS'vel_x'
p4
F-0.36517384500592154
sS'pos_x'
p5
F187.95083378800427
sS'pos_y'
p6
F80.443602084140778
sS'isAlive'
p7
I01
sS'cumulativeEnergy'
p8
F0.5
sS'geno'
p9
(i__main__
Node
p10
(dp11
S'vector'
p12
S'+'
sS'depth'
p13
I1
sS'right'
p14
(i__main__
Node
p15
(dp16
g12
S'-'
sg13
I2
sg14
(i__main__
Node
p17
(dp18
g12
S'indiv.currentEnergy()'
p19
sg13
I3
sg14
NsS'parent'
p20
g15
sS'float_size'
p21
S'indiv.getNumPreysNeigh()'
p22
sS'float_bright'
p23
S'indiv.distanceMatingSeason()'
p24
sS'left'
p25
Nsbsg20
g10
sg21
S'+'
sg23
S'/'
sg25
(i__main__
Node
p26
(dp27
g12
S'indiv.target()'
p28
sg13
I3
sg14
Nsg20
g15
sg21
S'indiv.getTailBrightness()'
p29
sg23
g22
sg25
Nsbsbsg20
Nsg21
S'-'
sg23
S'+'
sg25
(i__main__
Node
p30
(dp31
g12
S'-'
sg13
I2
sg14
(i__main__
Node
p32
(dp33
g12
g19
sg13
I3
sg14
Nsg20
g30
sg21
g22
sg23
g24
sg25
Nsbsg20
g10
sg21
S'+'
sg23
S'/'
sg25
(i__main__
Node
p34
(dp35
g12
g28
sg13
I3
sg14
Nsg20
g30
sg21
g29
sg23
g22
sg25
NsbsbsbsS'accel_x'
p36
F0
sS'accel_y'
p37
F0
sS'visionAngle'
p38
I150
sS'maxAccel'
p39
I2
sS'maxVel'
p40
F0.5
sS'age'
p41
I0
sS'tailSize'
p42
F0
sS'sexualgeno'
p43
NsS'tailBrigh'
p44
F0.55172413793103448
sS'maxSteering'
p45
I30
sS'energy'
p46
F0.5
sS'lastScale'
p47
F5.5
sb.(i__main__
Data_mobile
p1
(dp2
S'vel_y'
p3
F-0.44473175363486506
sS'vel_x'
p4
F-0.15350894474580776
sS'pos_x'
p5
F26.157841455034998
sS'pos_y'
p6
F4.5177278225007989
sS'isAlive'
p7
I01
sS'cumulativeEnergy'
p8
F0.5
sS'geno'
p9
(i__main__
Node
p10
(dp11
S'vector'
p12
S'+'
sS'depth'
p13
I1
sS'right'
p14
(i__main__
Node
p15
(dp16
g12
S'-'
sg13
I2
sg14
(i__main__
Node
p17
(dp18
g12
S'indiv.currentEnergy()'
p19
sg13
I3
sg14
NsS'parent'
p20
g15
sS'float_size'
p21
S'indiv.getNumPreysNeigh()'
p22
sS'float_bright'
p23
S'indiv.distanceMatingSeason()'
p24
sS'left'
p25
Nsbsg20
g10
sg21
S'+'
sg23
S'/'
sg25
(i__main__
Node
p26
(dp27
g12
S'indiv.target()'
p28
sg13
I3
sg14
Nsg20
g15
sg21
S'indiv.getTailBrightness()'
p29
sg23
g22
sg25
Nsbsbsg20
Nsg21
S'-'
sg23
S'+'
sg25
(i__main__
Node
p30
(dp31
g12
S'-'
sg13
I2
sg14
(i__main__
Node
p32
(dp33
g12
g19
sg13
I3
sg14
Nsg20
g30
sg21
g22
sg23
g24
sg25
Nsbsg20
g10
sg21
S'+'
sg23
S'/'
sg25
(i__main__
Node
p34
(dp35
g12
g28
sg13
I3
sg14
Nsg20
g30
sg21
g29
sg23
g22
sg25
NsbsbsbsS'accel_x'
p36
F0
sS'accel_y'
p37
F0
sS'visionAngle'
p38
I150
sS'maxAccel'
p39
I2
sS'maxVel'
p40
F0.5
sS'age'
p41
I0
sS'tailSize'
p42
F0
sS'sexualgeno'
p43
NsS'tailBrigh'
p44
F0
sS'maxSteering'
p45
I30
sS'energy'
p46
F0.5
sS'lastScale'
p47
F5.5
sb.(i__main__
Data_mobile
p1
(dp2
S'vel_y'
p3
F-0.3304433033236413
sS'vel_x'
p4
F-0.3562591200981588
sS'pos_x'
p5
F148.57904408405827
sS'pos_y'
p6
F-39.829000175402939
sS'isAlive'
p7
I01
sS'cumulativeEnergy'
p8
F0.5
sS'geno'
p9
(i__main__
Node
p10
(dp11
S'vector'
p12
S'+'
sS'depth'
p13
I1
sS'right'
p14
(i__main__
Node
p15
(dp16
g12
S'-'
sg13
I2
sg14
(i__main__
Node
p17
(dp18
g12
S'indiv.currentEnergy()'
p19
sg13
I3
sg14
NsS'parent'
p20
g15
sS'float_size'
p21
S'indiv.getNumPreysNeigh()'
p22
sS'float_bright'
p23
S'indiv.distanceMatingSeason()'
p24
sS'left'
p25
Nsbsg20
g10
sg21
S'+'
sg23
S'/'
sg25
(i__main__
Node
p26
(dp27
g12
S'indiv.target()'
p28
sg13
I3
sg14
Nsg20
g15
sg21
S'indiv.getTailBrightness()'
p29
sg23
g22
sg25
Nsbsbsg20
Nsg21
S'-'
sg23
S'+'
sg25
(i__main__
Node
p30
(dp31
g12
S'-'
sg13
I2
sg14
(i__main__
Node
p32
(dp33
g12
g19
sg13
I3
sg14
Nsg20
g30
sg21
g22
sg23
g24
sg25
Nsbsg20
g10
sg21
S'+'
sg23
S'/'
sg25
(i__main__
Node
p34
(dp35
g12
g28
sg13
I3
sg14
Nsg20
g30
sg21
g29
sg23
g22
sg25
NsbsbsbsS'accel_x'
p36
F0
sS'accel_y'
p37
F0
sS'visionAngle'
p38
I150
sS'maxAccel'
p39
I2
sS'maxVel'
p40
F0.5
sS'age'
p41
I0
sS'tailSize'
p42
F0
sS'sexualgeno'
p43
NsS'tailBrigh'
p44
F0.83870967741935487
sS'maxSteering'
p45
I30
sS'energy'
p46
F0.5
sS'lastScale'
p47
F5.5
sb.(i__main__
Data_mobile
p1
(dp2
S'vel_y'
p3
F-0.34735836494672312
sS'vel_x'
p4
F-0.35727586186058091
sS'pos_x'
p5
F-24.006094175123284
sS'pos_y'
p6
F-9.9124772460157224
sS'isAlive'
p7
I01
sS'cumulativeEnergy'
p8
F0.5
sS'geno'
p9
(i__main__
Node
p10
(dp11
S'vector'
p12
S'+'
sS'depth'
p13
I1
sS'right'
p14
(i__main__
Node
p15
(dp16
g12
S'-'
sg13
I2
sg14
(i__main__
Node
p17
(dp18
g12
S'indiv.currentEnergy()'
p19
sg13
I3
sg14
NsS'parent'
p20
g15
sS'float_size'
p21
S'indiv.getNumPreysNeigh()'
p22
sS'float_bright'
p23
S'indiv.distanceMatingSeason()'
p24
sS'left'
p25
Nsbsg20
g10
sg21
S'+'
sg23
S'/'
sg25
(i__main__
Node
p26
(dp27
g12
S'indiv.target()'
p28
sg13
I3
sg14
Nsg20
g15
sg21
S'indiv.getTailBrightness()'
p29
sg23
g22
sg25
Nsbsbsg20
Nsg21
S'-'
sg23
S'+'
sg25
(i__main__
Node
p30
(dp31
g12
S'-'
sg13
I2
sg14
(i__main__
Node
p32
(dp33
g12
g19
sg13
I3
sg14
Nsg20
g30
sg21
g22
sg23
g24
sg25
Nsbsg20
g10
sg21
S'+'
sg23
S'/'
sg25
(i__main__
Node
p34
(dp35
g12
g28
sg13
I3
sg14
Nsg20
g30
sg21
g29
sg23
g22
sg25
NsbsbsbsS'accel_x'
p36
F0
sS'accel_y'
p37
F0
sS'visionAngle'
p38
I150
sS'maxAccel'
p39
I2
sS'maxVel'
p40
F0.5
sS'age'
p41
I0
sS'tailSize'
p42
F0
sS'sexualgeno'
p43
NsS'tailBrigh'
p44
F0.27272727272727271
sS'maxSteering'
p45
I30
sS'energy'
p46
F0.5
sS'lastScale'
p47
F5.5
sb.(i__main__
Data_mobile
p1
(dp2
S'vel_y'
p3
I0
sS'vel_x'
p4
I0
sS'pos_x'
p5
I-9579
sS'pos_y'
p6
I9779
sS'isAlive'
p7
I00
sS'cumulativeEnergy'
p8
F0.5
sS'geno'
p9
(i__main__
Node
p10
(dp11
S'vector'
p12
S'+'
sS'depth'
p13
I1
sS'right'
p14
(i__main__
Node
p15
(dp16
g12
S'-'
sg13
I2
sg14
(i__main__
Node
p17
(dp18
g12
S'indiv.currentEnergy()'
p19
sg13
I3
sg14
NsS'parent'
p20
g15
sS'float_size'
p21
S'indiv.getNumPreysNeigh()'
p22
sS'float_bright'
p23
S'indiv.distanceMatingSeason()'
p24
sS'left'
p25
Nsbsg20
g10
sg21
S'+'
sg23
S'/'
sg25
(i__main__
Node
p26
(dp27
g12
S'indiv.target()'
p28
sg13
I3
sg14
Nsg20
g15
sg21
S'indiv.getTailBrightness()'
p29
sg23
g22
sg25
Nsbsbsg20
Nsg21
S'-'
sg23
S'+'
sg25
(i__main__
Node
p30
(dp31
g12
S'-'
sg13
I2
sg14
(i__main__
Node
p32
(dp33
g12
g19
sg13
I3
sg14
Nsg20
g30
sg21
g22
sg23
g24
sg25
Nsbsg20
g10
sg21
S'+'
sg23
S'/'
sg25
(i__main__
Node
p34
(dp35
g12
g28
sg13
I3
sg14
Nsg20
g30
sg21
g29
sg23
g22
sg25
NsbsbsbsS'accel_x'
p36
F0
sS'accel_y'
p37
F0
sS'visionAngle'
p38
I150
sS'maxAccel'
p39
I2
sS'maxVel'
p40
F0.5
sS'age'
p41
I0
sS'tailSize'
p42
F0
sS'sexualgeno'
p43
NsS'tailBrigh'
p44
F0
sS'maxSteering'
p45
I30
sS'energy'
p46
F0.5
sS'lastScale'
p47
F5.5
sb.(i__main__
Data_mobile
p1
(dp2
S'vel_y'
p3
I0
sS'vel_x'
p4
I0
sS'pos_x'
p5
I-9579
sS'pos_y'
p6
I9779
sS'isAlive'
p7
I00
sS'cumulativeEnergy'
p8
F0.5
sS'geno'
p9
(i__main__
Node
p10
(dp11
S'vector'
p12
S'+'
sS'depth'
p13
I1
sS'right'
p14
(i__main__
Node
p15
(dp16
g12
S'-'
sg13
I2
sg14
(i__main__
Node
p17
(dp18
g12
S'indiv.currentEnergy()'
p19
sg13
I3
sg14
NsS'parent'
p20
g15
sS'float_size'
p21
S'indiv.getNumPreysNeigh()'
p22
sS'float_bright'
p23
S'indiv.distanceMatingSeason()'
p24
sS'left'
p25
Nsbsg20
g10
sg21
S'+'
sg23
S'/'
sg25
(i__main__
Node
p26
(dp27
g12
S'indiv.target()'
p28
sg13
I3
sg14
Nsg20
g15
sg21
S'indiv.getTailBrightness()'
p29
sg23
g22
sg25
Nsbsbsg20
Nsg21
S'-'
sg23
S'+'
sg25
(i__main__
Node
p30
(dp31
g12
S'-'
sg13
I2
sg14
(i__main__
Node
p32
(dp33
g12
g19
sg13
I3
sg14
Nsg20
g30
sg21
g22
sg23
g24
sg25
Nsbsg20
g10
sg21
S'+'
sg23
S'/'
sg25
(i__main__
Node
p34
(dp35
g12
g28
sg13
I3
sg14
Nsg20
g30
sg21
g29
sg23
g22
sg25
NsbsbsbsS'accel_x'
p36
F0
sS'accel_y'
p37
F0
sS'visionAngle'
p38
I150
sS'maxAccel'
p39
I2
sS'maxVel'
p40
F0.5
sS'age'
p41
I0
sS'tailSize'
p42
F0
sS'sexualgeno'
p43
NsS'tailBrigh'
p44
F6.666666666666667
sS'maxSteering'
p45
I30
sS'energy'
p46
F0.5
sS'lastScale'
p47
F5.5
sb.(i__main__
Data_mobile
p1
(dp2
S'vel_y'
p3
I0
sS'vel_x'
p4
I0
sS'pos_x'
p5
I-9579
sS'pos_y'
p6
I9779
sS'isAlive'
p7
I00
sS'cumulativeEnergy'
p8
F0.5
sS'geno'
p9
(i__main__
Node
p10
(dp11
S'vector'
p12
S'+'
sS'depth'
p13
I1
sS'right'
p14
(i__main__
Node
p15
(dp16
g12
S'-'
sg13
I2
sg14
(i__main__
Node
p17
(dp18
g12
S'indiv.currentEnergy()'
p19
sg13
I3
sg14
NsS'parent'
p20
g15
sS'float_size'
p21
S'indiv.getNumPreysNeigh()'
p22
sS'float_bright'
p23
S'indiv.distanceMatingSeason()'
p24
sS'left'
p25
Nsbsg20
g10
sg21
S'+'
sg23
S'/'
sg25
(i__main__
Node
p26
(dp27
g12
S'indiv.target()'
p28
sg13
I3
sg14
Nsg20
g15
sg21
S'indiv.getTailBrightness()'
p29
sg23
g22
sg25
Nsbsbsg20
Nsg21
S'-'
sg23
S'+'
sg25
(i__main__
Node
p30
(dp31
g12
S'-'
sg13
I2
sg14
(i__main__
Node
p32
(dp33
g12
g19
sg13
I3
sg14
Nsg20
g30
sg21
g22
sg23
g24
sg25
Nsbsg20
g10
sg21
S'+'
sg23
S'/'
sg25
(i__main__
Node
p34
(dp35
g12
g28
sg13
I3
sg14
Nsg20
g30
sg21
g29
sg23
g22
sg25
NsbsbsbsS'accel_x'
p36
F0
sS'accel_y'
p37
F0
sS'visionAngle'
p38
I150
sS'maxAccel'
p39
I2
sS'maxVel'
p40
F0.5
sS'age'
p41
I0
sS'tailSize'
p42
F0
sS'sexualgeno'
p43
NsS'tailBrigh'
p44
F0.90909090909090906
sS'maxSteering'
p45
I30
sS'energy'
p46
F0.5
sS'lastScale'
p47
F5.5
sb.(i__main__
Data_mobile
p1
(dp2
S'vel_y'
p3
I0
sS'vel_x'
p4
I0
sS'pos_x'
p5
I-9579
sS'pos_y'
p6
I9779
sS'isAlive'
p7
I00
sS'cumulativeEnergy'
p8
F0.5
sS'geno'
p9
(i__main__
Node
p10
(dp11
S'vector'
p12
S'+'
sS'depth'
p13
I1
sS'right'
p14
(i__main__
Node
p15
(dp16
g12
S'-'
sg13
I2
sg14
(i__main__
Node
p17
(dp18
g12
S'indiv.currentEnergy()'
p19
sg13
I3
sg14
NsS'parent'
p20
g15
sS'float_size'
p21
S'indiv.getNumPreysNeigh()'
p22
sS'float_bright'
p23
S'indiv.distanceMatingSeason()'
p24
sS'left'
p25
Nsbsg20
g10
sg21
S'+'
sg23
S'/'
sg25
(i__main__
Node
p26
(dp27
g12
S'indiv.target()'
p28
sg13
I3
sg14
Nsg20
g15
sg21
S'indiv.getTailBrightness()'
p29
sg23
g22
sg25
Nsbsbsg20
Nsg21
S'-'
sg23
S'+'
sg25
(i__main__
Node
p30
(dp31
g12
S'-'
sg13
I2
sg14
(i__main__
Node
p32
(dp33
g12
g19
sg13
I3
sg14
Nsg20
g30
sg21
g22
sg23
g24
sg25
Nsbsg20
g10
sg21
S'+'
sg23
S'/'
sg25
(i__main__
Node
p34
(dp35
g12
g28
sg13
I3
sg14
Nsg20
g30
sg21
g29
sg23
g22
sg25
NsbsbsbsS'accel_x'
p36
F0
sS'accel_y'
p37
F0
sS'visionAngle'
p38
I150
sS'maxAccel'
p39
I2
sS'maxVel'
p40
F0.5
sS'age'
p41
I0
sS'tailSize'
p42
F0
sS'sexualgeno'
p43
NsS'tailBrigh'
p44
F0.46153846153846156
sS'maxSteering'
p45
I30
sS'energy'
p46
F0.5
sS'lastScale'
p47
F5.5
sb.(i__main__
Data_mobile
p1
(dp2
S'vel_y'
p3
I0
sS'vel_x'
p4
I0
sS'pos_x'
p5
I-9579
sS'pos_y'
p6
I9779
sS'isAlive'
p7
I00
sS'cumulativeEnergy'
p8
F0.5
sS'geno'
p9
(i__main__
Node
p10
(dp11
S'vector'
p12
S'+'
sS'depth'
p13
I1
sS'right'
p14
(i__main__
Node
p15
(dp16
g12
S'-'
sg13
I2
sg14
(i__main__
Node
p17
(dp18
g12
S'indiv.currentEnergy()'
p19
sg13
I3
sg14
NsS'parent'
p20
g15
sS'float_size'
p21
S'indiv.getNumPreysNeigh()'
p22
sS'float_bright'
p23
S'indiv.distanceMatingSeason()'
p24
sS'left'
p25
Nsbsg20
g10
sg21
S'+'
sg23
S'/'
sg25
(i__main__
Node
p26
(dp27
g12
S'indiv.target()'
p28
sg13
I3
sg14
Nsg20
g15
sg21
S'indiv.getTailBrightness()'
p29
sg23
g22
sg25
Nsbsbsg20
Nsg21
S'-'
sg23
S'+'
sg25
(i__main__
Node
p30
(dp31
g12
S'-'
sg13
I2
sg14
(i__main__
Node
p32
(dp33
g12
g19
sg13
I3
sg14
Nsg20
g30
sg21
g22
sg23
g24
sg25
Nsbsg20
g10
sg21
S'+'
sg23
S'/'
sg25
(i__main__
Node
p34
(dp35
g12
g28
sg13
I3
sg14
Nsg20
g30
sg21
g29
sg23
g22
sg25
NsbsbsbsS'accel_x'
p36
F0
sS'accel_y'
p37
F0
sS'visionAngle'
p38
I150
sS'maxAccel'
p39
I2
sS'maxVel'
p40
F0.5
sS'age'
p41
I0
sS'tailSize'
p42
F0
sS'sexualgeno'
p43
NsS'tailBrigh'
p44
F0.42857142857142855
sS'maxSteering'
p45
I30
sS'energy'
p46
F0.5
sS'lastScale'
p47
F5.5
sb.(i__main__
Data_mobile
p1
(dp2
S'vel_y'
p3
I0
sS'vel_x'
p4
I0
sS'pos_x'
p5
I-9579
sS'pos_y'
p6
I9779
sS'isAlive'
p7
I00
sS'cumulativeEnergy'
p8
F0.5
sS'geno'
p9
(i__main__
Node
p10
(dp11
S'vector'
p12
S'+'
sS'depth'
p13
I1
sS'right'
p14
(i__main__
Node
p15
(dp16
g12
S'-'
sg13
I2
sg14
(i__main__
Node
p17
(dp18
g12
S'indiv.currentEnergy()'
p19
sg13
I3
sg14
NsS'parent'
p20
g15
sS'float_size'
p21
S'indiv.getNumPreysNeigh()'
p22
sS'float_bright'
p23
S'indiv.distanceMatingSeason()'
p24
sS'left'
p25
Nsbsg20
g10
sg21
S'+'
sg23
S'/'
sg25
(i__main__
Node
p26
(dp27
g12
S'indiv.target()'
p28
sg13
I3
sg14
Nsg20
g15
sg21
S'indiv.getTailBrightness()'
p29
sg23
g22
sg25
Nsbsbsg20
Nsg21
S'-'
sg23
S'+'
sg25
(i__main__
Node
p30
(dp31
g12
S'-'
sg13
I2
sg14
(i__main__
Node
p32
(dp33
g12
g19
sg13
I3
sg14
Nsg20
g30
sg21
g22
sg23
g24
sg25
Nsbsg20
g10
sg21
S'+'
sg23
S'/'
sg25
(i__main__
Node
p34
(dp35
g12
g28
sg13
I3
sg14
Nsg20
g30
sg21
g29
sg23
g22
sg25
NsbsbsbsS'accel_x'
p36
F0
sS'accel_y'
p37
F0
sS'visionAngle'
p38
I150
sS'maxAccel'
p39
I2
sS'maxVel'
p40
F0.5
sS'age'
p41
I0
sS'tailSize'
p42
F0
sS'sexualgeno'
p43
NsS'tailBrigh'
p44
F0.5714285714285714
sS'maxSteering'
p45
I30
sS'energy'
p46
F0.5
sS'lastScale'
p47
F5.5
sb.(i__main__
Data_mobile
p1
(dp2
S'vel_y'
p3
I0
sS'vel_x'
p4
I0
sS'pos_x'
p5
I-9579
sS'pos_y'
p6
I9779
sS'isAlive'
p7
I00
sS'cumulativeEnergy'
p8
F0.5
sS'geno'
p9
(i__main__
Node
p10
(dp11
S'vector'
p12
S'+'
sS'depth'
p13
I1
sS'right'
p14
(i__main__
Node
p15
(dp16
g12
S'-'
sg13
I2
sg14
(i__main__
Node
p17
(dp18
g12
S'indiv.currentEnergy()'
p19
sg13
I3
sg14
NsS'parent'
p20
g15
sS'float_size'
p21
S'indiv.getNumPreysNeigh()'
p22
sS'float_bright'
p23
S'indiv.distanceMatingSeason()'
p24
sS'left'
p25
Nsbsg20
g10
sg21
S'+'
sg23
S'/'
sg25
(i__main__
Node
p26
(dp27
g12
S'indiv.target()'
p28
sg13
I3
sg14
Nsg20
g15
sg21
S'indiv.getTailBrightness()'
p29
sg23
g22
sg25
Nsbsbsg20
Nsg21
S'-'
sg23
S'+'
sg25
(i__main__
Node
p30
(dp31
g12
S'-'
sg13
I2
sg14
(i__main__
Node
p32
(dp33
g12
g19
sg13
I3
sg14
Nsg20
g30
sg21
g22
sg23
g24
sg25
Nsbsg20
g10
sg21
S'+'
sg23
S'/'
sg25
(i__main__
Node
p34
(dp35
g12
g28
sg13
I3
sg14
Nsg20
g30
sg21
g29
sg23
g22
sg25
NsbsbsbsS'accel_x'
p36
F0
sS'accel_y'
p37
F0
sS'visionAngle'
p38
I150
sS'maxAccel'
p39
I2
sS'maxVel'
p40
F0.5
sS'age'
p41
I0
sS'tailSize'
p42
F0
sS'sexualgeno'
p43
NsS'tailBrigh'
p44
F0.5714285714285714
sS'maxSteering'
p45
I30
sS'energy'
p46
F0.5
sS'lastScale'
p47
F5.5
sb.