(i__main__
Data_mobile
p1
(dp2
S'vel_y'
p3
F0.25015557289826085
sS'vel_x'
p4
F-0.43292284456695396
sS'pos_x'
p5
F60.022165376436881
sS'pos_y'
p6
F51.401255308254257
sS'isAlive'
p7
I01
sS'cumulativeEnergy'
p8
F49
sS'geno'
p9
(lp10
(lp11
S'POINT.*'
p12
aaS'POINT./'
p13
a(lp14
S'target'
p15
aS'POINT.*'
p16
aS'target'
p17
aS'POINT.+'
p18
aaS'POINT.+'
p19
asS'accel_x'
p20
F-0.43292284456695396
sS'accel_y'
p21
F0.25015557289826085
sS'visionAngle'
p22
I150
sS'maxAccel'
p23
I2
sS'maxVel'
p24
F0.5
sS'age'
p25
I150
sS'tailSize'
p26
I0
sS'sexualgeno'
p27
NsS'tailBrigh'
p28
I0
sS'maxSteering'
p29
I30
sS'energy'
p30
F0.98016571944094744
sS'lastScale'
p31
F15.301657194409474
sb.(i__main__
Data_mobile
p1
(dp2
S'vel_y'
p3
F0.40326173776295976
sS'vel_x'
p4
F0.29560103324649922
sS'pos_x'
p5
F-63.101404986583375
sS'pos_y'
p6
F3.181511177272113
sS'isAlive'
p7
I01
sS'cumulativeEnergy'
p8
F49
sS'geno'
p9
(lp10
(lp11
S'currentVelocity'
p12
a(lp13
(lp14
(lp15
S'POINT.+'
p16
aa(lp17
S'POINT.*'
p18
aaaaS'POINT.*'
p19
a(lp20
S'POINT.+'
p21
aaaS'POINT./'
p22
aS'target'
p23
aS'POINT.+'
p24
asS'accel_x'
p25
F1.0828246030102535
sS'accel_y'
p26
F-0.73035920932153509
sS'visionAngle'
p27
I150
sS'maxAccel'
p28
I2
sS'maxVel'
p29
F0.5
sS'age'
p30
I100
sS'tailSize'
p31
I0
sS'sexualgeno'
p32
NsS'tailBrigh'
p33
I0
sS'maxSteering'
p34
I30
sS'energy'
p35
F1
sS'lastScale'
p36
F15.5
sb.(i__main__
Data_mobile
p1
(dp2
S'vel_y'
p3
F0.38456129061349154
sS'vel_x'
p4
F0.3195506435006597
sS'pos_x'
p5
F38.393815388667207
sS'pos_y'
p6
F78.772753748295415
sS'isAlive'
p7
I01
sS'cumulativeEnergy'
p8
F49
sS'geno'
p9
(lp10
(lp11
(lp12
(lp13
S'POINT./'
p14
a(lp15
S'POINT.*'
p16
aaaS'POINT./'
p17
aS'POINT.*'
p18
aS'flee'
p19
aaS'POINT.*'
p20
aS'randV'
p21
a(lp22
(lp23
(lp24
S'POINT.+'
p25
aa(lp26
S'POINT.*'
p27
aaaS'flee'
p28
aS'POINT.*'
p29
aS'flee'
p30
aa(lp31
S'currentVelocity'
p32
aa(lp33
S'currentVelocity'
p34
a(lp35
(lp36
S'target'
p37
aaaS'POINT.*'
p38
aS'POINT./'
p39
aaaS'POINT./'
p40
aS'POINT.+'
p41
a(lp42
S'POINT.+'
p43
aasS'accel_x'
p44
F-0.97112364784456906
sS'accel_y'
p45
F0.87341430954727417
sS'visionAngle'
p46
I150
sS'maxAccel'
p47
I2
sS'maxVel'
p48
F0.5
sS'age'
p49
I100
sS'tailSize'
p50
I0
sS'sexualgeno'
p51
NsS'tailBrigh'
p52
I0
sS'maxSteering'
p53
I30
sS'energy'
p54
F1
sS'lastScale'
p55
F15.5
sb.(i__main__
Data_mobile
p1
(dp2
S'vel_y'
p3
F0.46033535832751576
sS'vel_x'
p4
F0.19517007422624427
sS'pos_x'
p5
F84.348428627262734
sS'pos_y'
p6
F79.765793437423369
sS'isAlive'
p7
I01
sS'cumulativeEnergy'
p8
F49
sS'geno'
p9
(lp10
(lp11
(lp12
(lp13
(lp14
S'POINT.+'
p15
aa(lp16
(lp17
S'POINT.+'
p18
aS'POINT.*'
p19
aS'target'
p20
aS'POINT.+'
p21
aaaaS'POINT./'
p22
aS'POINT.*'
p23
aS'flee'
p24
aaS'POINT.*'
p25
aS'randV'
p26
aS'flee'
p27
a(lp28
S'currentVelocity'
p29
aa(lp30
S'currentVelocity'
p31
a(lp32
S'POINT./'
p33
aa(lp34
S'flee'
p35
aaS'POINT./'
p36
aaaS'POINT./'
p37
a(lp38
S'POINT.+'
p39
aS'POINT.*'
p40
aS'target'
p41
aS'POINT.+'
p42
aa(lp43
S'POINT.*'
p44
aasS'accel_x'
p45
F0.8190850394772764
sS'accel_y'
p46
F-0.57781689332012931
sS'visionAngle'
p47
I150
sS'maxAccel'
p48
I2
sS'maxVel'
p49
F0.5
sS'age'
p50
I100
sS'tailSize'
p51
I0
sS'sexualgeno'
p52
NsS'tailBrigh'
p53
I0
sS'maxSteering'
p54
I30
sS'energy'
p55
F1
sS'lastScale'
p56
F15.5
sb.(i__main__
Data_mobile
p1
(dp2
S'vel_y'
p3
F0.48462449664224505
sS'vel_x'
p4
F-0.1230410389026793
sS'pos_x'
p5
F-88.429567840841742
sS'pos_y'
p6
F-22.914733377927366
sS'isAlive'
p7
I01
sS'cumulativeEnergy'
p8
F49
sS'geno'
p9
(lp10
(lp11
(lp12
S'flee'
p13
aS'POINT.+'
p14
aaS'POINT.*'
p15
aS'randV'
p16
aS'flee'
p17
a(lp18
S'currentVelocity'
p19
aa(lp20
S'currentVelocity'
p21
a(lp22
(lp23
S'POINT.+'
p24
aaaS'POINT.*'
p25
aS'POINT.+'
p26
aaaS'POINT./'
p27
a(lp28
S'POINT.+'
p29
aS'POINT.*'
p30
aS'target'
p31
aS'POINT.*'
p32
aa(lp33
S'POINT.*'
p34
aasS'accel_x'
p35
F0.75111932871327269
sS'accel_y'
p36
F-0.30001983671622767
sS'visionAngle'
p37
I150
sS'maxAccel'
p38
I2
sS'maxVel'
p39
F0.5
sS'age'
p40
I100
sS'tailSize'
p41
I0
sS'sexualgeno'
p42
NsS'tailBrigh'
p43
I0
sS'maxSteering'
p44
I30
sS'energy'
p45
F1
sS'lastScale'
p46
F15.5
sb.(i__main__
Data_mobile
p1
(dp2
S'vel_y'
p3
F0.4992894170802219
sS'vel_x'
p4
F-0.02664728863678742
sS'pos_x'
p5
F83.618514683029531
sS'pos_y'
p6
F79.605620906066008
sS'isAlive'
p7
I01
sS'cumulativeEnergy'
p8
F49
sS'geno'
p9
(lp10
(lp11
(lp12
(lp13
(lp14
S'POINT.+'
p15
aa(lp16
S'POINT.*'
p17
aaaS'POINT./'
p18
aS'POINT.*'
p19
aS'flee'
p20
aaS'POINT.*'
p21
aS'randV'
p22
aS'flee'
p23
a(lp24
S'currentVelocity'
p25
aa(lp26
S'currentVelocity'
p27
a(lp28
S'POINT./'
p29
aa(lp30
S'POINT.*'
p31
aaS'POINT./'
p32
aaaS'POINT./'
p33
a(lp34
S'POINT.+'
p35
aS'POINT.*'
p36
aS'target'
p37
aS'POINT.+'
p38
aa(lp39
S'POINT./'
p40
aasS'accel_x'
p41
F1.3005343322106606
sS'accel_y'
p42
F0.12059911387015965
sS'visionAngle'
p43
I150
sS'maxAccel'
p44
I2
sS'maxVel'
p45
F0.5
sS'age'
p46
I250
sS'tailSize'
p47
I0
sS'sexualgeno'
p48
NsS'tailBrigh'
p49
I0
sS'maxSteering'
p50
I30
sS'energy'
p51
F1
sS'lastScale'
p52
F15.5
sb.(i__main__
Data_mobile
p1
(dp2
S'vel_y'
p3
F-0.41614210967447718
sS'vel_x'
p4
F-0.27717457415079666
sS'pos_x'
p5
F162.7285089965074
sS'pos_y'
p6
F-83.210464601602382
sS'isAlive'
p7
I01
sS'cumulativeEnergy'
p8
F49
sS'geno'
p9
(lp10
(lp11
(lp12
S'POINT.*'
p13
aS'POINT.*'
p14
aS'target'
p15
aS'POINT.+'
p16
aaaS'POINT./'
p17
a(lp18
S'POINT.+'
p19
aS'POINT.*'
p20
aS'target'
p21
aS'POINT.+'
p22
aaS'POINT.+'
p23
asS'accel_x'
p24
F-0.18477975350746151
sS'accel_y'
p25
F1.0850250139848656
sS'visionAngle'
p26
I150
sS'maxAccel'
p27
I2
sS'maxVel'
p28
F0.5
sS'age'
p29
I250
sS'tailSize'
p30
I0
sS'sexualgeno'
p31
NsS'tailBrigh'
p32
I0
sS'maxSteering'
p33
I30
sS'energy'
p34
F1
sS'lastScale'
p35
F15.5
sb.(i__main__
Data_mobile
p1
(dp2
S'vel_y'
p3
F-0.32394259769396028
sS'vel_x'
p4
F-0.38086899768724813
sS'pos_x'
p5
F161.98855884795023
sS'pos_y'
p6
F-82.269712261949337
sS'isAlive'
p7
I01
sS'cumulativeEnergy'
p8
F49
sS'geno'
p9
(lp10
(lp11
(lp12
S'POINT.+'
p13
aS'currentVelocity'
p14
aS'target'
p15
aS'POINT.+'
p16
aaaS'POINT./'
p17
a(lp18
S'POINT.+'
p19
aS'POINT.*'
p20
a(lp21
(lp22
(lp23
(lp24
(lp25
S'POINT.*'
p26
aa(lp27
S'POINT.*'
p28
aaaS'POINT./'
p29
aS'POINT.*'
p30
aS'flee'
p31
aaS'POINT.*'
p32
aS'randV'
p33
aS'flee'
p34
a(lp35
S'currentVelocity'
p36
aa(lp37
S'currentVelocity'
p38
a(lp39
(lp40
S'POINT.+'
p41
aaaS'POINT.*'
p42
aS'POINT./'
p43
aaaS'POINT./'
p44
a(lp45
S'POINT.+'
p46
aS'POINT.*'
p47
aS'POINT./'
p48
aS'target'
p49
aa(lp50
S'POINT.*'
p51
aaaS'POINT.+'
p52
aaS'POINT.+'
p53
asS'accel_x'
p54
F0.78614755887883803
sS'accel_y'
p55
F-0.1901687778233736
sS'visionAngle'
p56
I150
sS'maxAccel'
p57
I2
sS'maxVel'
p58
F0.5
sS'age'
p59
I300
sS'tailSize'
p60
I0
sS'sexualgeno'
p61
NsS'tailBrigh'
p62
I0
sS'maxSteering'
p63
I30
sS'energy'
p64
F1
sS'lastScale'
p65
F15.5
sb.(i__main__
Data_mobile
p1
(dp2
S'vel_y'
p3
F0.19141884491190822
sS'vel_x'
p4
F-0.4619078109456376
sS'pos_x'
p5
F84.689397148585542
sS'pos_y'
p6
F79.905338639001087
sS'isAlive'
p7
I01
sS'cumulativeEnergy'
p8
F49
sS'geno'
p9
(lp10
(lp11
S'POINT.*'
p12
aaS'POINT./'
p13
a(lp14
S'POINT.*'
p15
aS'POINT.*'
p16
aS'target'
p17
aS'POINT.+'
p18
aaS'POINT.+'
p19
asS'accel_x'
p20
F-0.17896136701741283
sS'accel_y'
p21
F-0.98627860831345504
sS'visionAngle'
p22
I150
sS'maxAccel'
p23
I2
sS'maxVel'
p24
F0.5
sS'age'
p25
I100
sS'tailSize'
p26
I0
sS'sexualgeno'
p27
NsS'tailBrigh'
p28
I0
sS'maxSteering'
p29
I30
sS'energy'
p30
F1
sS'lastScale'
p31
F15.5
sb.(i__main__
Data_mobile
p1
(dp2
S'vel_y'
p3
F0.49842447270098539
sS'vel_x'
p4
F-0.039661631493732835
sS'pos_x'
p5
F59.397898143761736
sS'pos_y'
p6
F52.245241152930468
sS'isAlive'
p7
I01
sS'cumulativeEnergy'
p8
F48.985415704832171
sS'geno'
p9
(lp10
(lp11
(lp12
(lp13
(lp14
S'POINT.+'
p15
aaS'target'
p16
aaS'POINT./'
p17
aS'POINT.*'
p18
a(lp19
S'POINT.+'
p20
aaa(lp21
S'POINT.+'
p22
aS'POINT.*'
p23
aS'target'
p24
aS'POINT.+'
p25
aaS'randV'
p26
aS'target'
p27
a(lp28
S'currentVelocity'
p29
aa(lp30
S'currentVelocity'
p31
a(lp32
(lp33
S'POINT.*'
p34
aaaS'POINT.*'
p35
aS'POINT.+'
p36
aaaS'POINT./'
p37
aS'POINT.+'
p38
a(lp39
S'POINT.*'
p40
aasS'accel_x'
p41
F-0.07932326298746567
sS'accel_y'
p42
F0.99684894540197078
sS'visionAngle'
p43
I150
sS'maxAccel'
p44
I2
sS'maxVel'
p45
F0.5
sS'age'
p46
I100
sS'tailSize'
p47
I0
sS'sexualgeno'
p48
NsS'tailBrigh'
p49
I0
sS'maxSteering'
p50
I30
sS'energy'
p51
F0.9706239176858954
sS'lastScale'
p52
F15.206239176858954
sb.(i__main__
Data_mobile
p1
(dp2
S'vel_y'
p3
F-0.11944398407622364
sS'vel_x'
p4
F-0.48552356757216109
sS'pos_x'
p5
F60.164532617884483
sS'pos_y'
p6
F49.908869814456452
sS'isAlive'
p7
I01
sS'cumulativeEnergy'
p8
F48.980000000682558
sS'geno'
p9
(lp10
(lp11
S'currentVelocity'
p12
a(lp13
(lp14
(lp15
S'POINT.+'
p16
aaS'POINT.+'
p17
aaaS'POINT.*'
p18
a(lp19
S'POINT.+'
p20
aaaS'POINT./'
p21
aS'target'
p22
aS'POINT.+'
p23
asS'accel_x'
p24
F-0.97104713514432217
sS'accel_y'
p25
F-0.23888796815244728
sS'visionAngle'
p26
I150
sS'maxAccel'
p27
I2
sS'maxVel'
p28
F0.5
sS'age'
p29
I300
sS'tailSize'
p30
I0
sS'sexualgeno'
p31
NsS'tailBrigh'
p32
I0
sS'maxSteering'
p33
I30
sS'energy'
p34
F0.96000000131054608
sS'lastScale'
p35
F15.100000013105461
sb.(i__main__
Data_mobile
p1
(dp2
S'vel_y'
p3
F-0.29791942251398762
sS'vel_x'
p4
F-0.40155201118775652
sS'pos_x'
p5
F119.55354912455675
sS'pos_y'
p6
F25.663878631972651
sS'isAlive'
p7
I01
sS'cumulativeEnergy'
p8
F48.956659234849887
sS'geno'
p9
(lp10
(lp11
S'currentVelocity'
p12
a(lp13
(lp14
S'POINT.*'
p15
aaaS'POINT.-'
p16
aS'POINT.+'
p17
aaS'POINT./'
p18
aS'target'
p19
aS'POINT.+'
p20
asS'accel_x'
p21
F0
sS'accel_y'
p22
F0
sS'visionAngle'
p23
I150
sS'maxAccel'
p24
I2
sS'maxVel'
p25
F0.5
sS'age'
p26
I100
sS'tailSize'
p27
I0
sS'sexualgeno'
p28
NsS'tailBrigh'
p29
I0
sS'maxSteering'
p30
I30
sS'energy'
p31
F0.95624568269475341
sS'lastScale'
p32
F15.062456826947534
sb.(i__main__
Data_mobile
p1
(dp2
S'vel_y'
p3
F-0.36720284308642132
sS'vel_x'
p4
F0.33935537719218334
sS'pos_x'
p5
F124.08495553921739
sS'pos_y'
p6
F24.741522039612608
sS'isAlive'
p7
I01
sS'cumulativeEnergy'
p8
F48.9405702376025
sS'geno'
p9
(lp10
(lp11
S'currentVelocity'
p12
a(lp13
(lp14
S'POINT.*'
p15
aaaS'POINT.*'
p16
aS'POINT.+'
p17
aaS'POINT./'
p18
aS'target'
p19
aS'POINT.+'
p20
asS'accel_x'
p21
F0.67871075438436668
sS'accel_y'
p22
F-0.73440568617284263
sS'visionAngle'
p23
I150
sS'maxAccel'
p24
I2
sS'maxVel'
p25
F0.5
sS'age'
p26
I150
sS'tailSize'
p27
I0
sS'sexualgeno'
p28
NsS'tailBrigh'
p29
I0
sS'maxSteering'
p30
I30
sS'energy'
p31
F0.94054076929200836
sS'lastScale'
p32
F14.905407692920082
sb.(i__main__
Data_mobile
p1
(dp2
S'vel_y'
p3
F-0.33128957097738987
sS'vel_x'
p4
F0.3744959548000712
sS'pos_x'
p5
F122.66711705425578
sS'pos_y'
p6
F25.529994866253343
sS'isAlive'
p7
I01
sS'cumulativeEnergy'
p8
F48.940009009729472
sS'geno'
p9
(lp10
(lp11
(lp12
(lp13
(lp14
S'POINT.+'
p15
aa(lp16
S'POINT.*'
p17
aaaS'POINT./'
p18
aS'POINT.*'
p19
aS'flee'
p20
aaS'POINT.*'
p21
aS'randV'
p22
aS'flee'
p23
a(lp24
S'currentVelocity'
p25
aa(lp26
S'currentVelocity'
p27
a(lp28
(lp29
S'POINT.*'
p30
aaaS'POINT.*'
p31
aS'POINT./'
p32
aaaS'POINT./'
p33
a(lp34
(lp35
S'POINT.+'
p36
aaS'POINT.+'
p37
aS'target'
p38
aS'POINT.*'
p39
aa(lp40
S'POINT.*'
p41
aasS'accel_x'
p42
F0
sS'accel_y'
p43
F0
sS'visionAngle'
p44
I150
sS'maxAccel'
p45
I2
sS'maxVel'
p46
F0.5
sS'age'
p47
I200
sS'tailSize'
p48
I0
sS'sexualgeno'
p49
NsS'tailBrigh'
p50
I0
sS'maxSteering'
p51
I30
sS'energy'
p52
F0.94000853617978453
sS'lastScale'
p53
F14.900085361797846
sb.(i__main__
Data_mobile
p1
(dp2
S'vel_y'
p3
F0.49443354006084905
sS'vel_x'
p4
F-0.074400769235921593
sS'pos_x'
p5
F102.20088851843323
sS'pos_y'
p6
F-57.178040012173618
sS'isAlive'
p7
I01
sS'cumulativeEnergy'
p8
F48.378582611326252
sS'geno'
p9
(lp10
(lp11
(lp12
(lp13
(lp14
S'POINT.+'
p15
aa(lp16
S'POINT.*'
p17
aaaS'POINT./'
p18
aS'POINT.*'
p19
aS'flee'
p20
aaS'POINT.*'
p21
aS'POINT.*'
p22
aS'flee'
p23
a(lp24
S'currentVelocity'
p25
aa(lp26
S'currentVelocity'
p27
a(lp28
(lp29
S'POINT.+'
p30
aaaS'POINT.*'
p31
aS'POINT./'
p32
aaaS'POINT./'
p33
a(lp34
(lp35
S'POINT.+'
p36
aaS'POINT./'
p37
aS'target'
p38
aS'POINT.+'
p39
aa(lp40
S'POINT.*'
p41
aasS'accel_x'
p42
F-1.2976682220136406
sS'accel_y'
p43
F-0.1311406946808682
sS'visionAngle'
p44
I150
sS'maxAccel'
p45
I2
sS'maxVel'
p46
F0.5
sS'age'
p47
I100
sS'tailSize'
p48
I0
sS'sexualgeno'
p49
NsS'tailBrigh'
p50
I0
sS'maxSteering'
p51
I30
sS'energy'
p52
F1
sS'lastScale'
p53
F15.5
sb.(i__main__
Data_mobile
p1
(dp2
S'vel_y'
p3
F-0.36918250722448565
sS'vel_x'
p4
F-0.33720064703295372
sS'pos_x'
p5
F83.768655024816042
sS'pos_y'
p6
F78.862414378433371
sS'isAlive'
p7
I01
sS'cumulativeEnergy'
p8
F48.149942748023363
sS'geno'
p9
(lp10
(lp11
S'POINT.+'
p12
aS'currentVelocity'
p13
aS'target'
p14
a(lp15
S'POINT.+'
p16
aaasS'accel_x'
p17
F0.86648792066477121
sS'accel_y'
p18
F-0.50395569988213285
sS'visionAngle'
p19
I150
sS'maxAccel'
p20
I2
sS'maxVel'
p21
F0.5
sS'age'
p22
I200
sS'tailSize'
p23
I0
sS'sexualgeno'
p24
NsS'tailBrigh'
p25
I0
sS'maxSteering'
p26
I30
sS'energy'
p27
F1
sS'lastScale'
p28
F15.5
sb.(i__main__
Data_mobile
p1
(dp2
S'vel_y'
p3
F0.1785503504642815
sS'vel_x'
p4
F-0.46703294567844167
sS'pos_x'
p5
F-52.63455698626904
sS'pos_y'
p6
F-84.428237069159039
sS'isAlive'
p7
I01
sS'cumulativeEnergy'
p8
F47.386147053480741
sS'geno'
p9
(lp10
(lp11
(lp12
S'POINT.*'
p13
aS'POINT.*'
p14
aS'target'
p15
aS'POINT.+'
p16
aaaS'POINT./'
p17
a(lp18
S'POINT.+'
p19
aS'POINT.*'
p20
aS'target'
p21
aS'POINT.+'
p22
aaS'POINT.+'
p23
asS'accel_x'
p24
F1.0175368976227317
sS'accel_y'
p25
F0.41957299752896338
sS'visionAngle'
p26
I150
sS'maxAccel'
p27
I2
sS'maxVel'
p28
F0.5
sS'age'
p29
I150
sS'tailSize'
p30
I0
sS'sexualgeno'
p31
NsS'tailBrigh'
p32
I0
sS'maxSteering'
p33
I30
sS'energy'
p34
F1
sS'lastScale'
p35
F15.5
sb.(i__main__
Data_mobile
p1
(dp2
S'vel_y'
p3
F-0.48470635727741107
sS'vel_x'
p4
F-0.12271816171562692
sS'pos_x'
p5
F-137.51697383424226
sS'pos_y'
p6
F57.815730951360258
sS'isAlive'
p7
I01
sS'cumulativeEnergy'
p8
F45.939999999999998
sS'geno'
p9
(lp10
(lp11
S'currentVelocity'
p12
a(lp13
(lp14
(lp15
S'POINT.+'
p16
aaS'POINT.+'
p17
aaaS'POINT.*'
p18
a(lp19
S'currentVelocity'
p20
aaaS'POINT./'
p21
a(lp22
S'target'
p23
a(lp24
S'POINT.*'
p25
aaaS'POINT.+'
p26
asS'accel_x'
p27
F-0.12271816171562692
sS'accel_y'
p28
F-0.48470635727741107
sS'visionAngle'
p29
I150
sS'maxAccel'
p30
I2
sS'maxVel'
p31
F0.5
sS'age'
p32
I663
sS'tailSize'
p33
I0
sS'sexualgeno'
p34
NsS'tailBrigh'
p35
I0
sS'maxSteering'
p36
I30
sS'energy'
p37
F0.63999999999999968
sS'lastScale'
p38
F11.899999999999997
sb.(i__main__
Data_mobile
p1
(dp2
S'vel_y'
p3
F-0.30369821088083637
sS'vel_x'
p4
F-0.3971994419781818
sS'pos_x'
p5
F58.376816809677614
sS'pos_y'
p6
F-2.4477032140548811
sS'isAlive'
p7
I01
sS'cumulativeEnergy'
p8
F45.803496950544385
sS'geno'
p9
(lp10
(lp11
(lp12
(lp13
(lp14
S'target'
p15
aa(lp16
S'POINT.*'
p17
aaaS'POINT./'
p18
aS'POINT.*'
p19
aS'flee'
p20
aaS'POINT.*'
p21
aS'randV'
p22
aS'flee'
p23
a(lp24
S'currentVelocity'
p25
aa(lp26
S'currentVelocity'
p27
a(lp28
S'POINT./'
p29
aa(lp30
S'POINT.*'
p31
aaS'POINT./'
p32
aaaS'POINT./'
p33
a(lp34
S'POINT.+'
p35
aS'POINT.*'
p36
aS'target'
p37
aS'POINT.+'
p38
aa(lp39
S'POINT./'
p40
aasS'accel_x'
p41
F0.7521144425514501
sS'accel_y'
p42
F-1.0678284323010954
sS'visionAngle'
p43
I150
sS'maxAccel'
p44
I2
sS'maxVel'
p45
F0.5
sS'age'
p46
I150
sS'tailSize'
p47
I0
sS'sexualgeno'
p48
NsS'tailBrigh'
p49
I0
sS'maxSteering'
p50
I30
sS'energy'
p51
F1
sS'lastScale'
p52
F15.5
sb.(i__main__
Data_mobile
p1
(dp2
S'vel_y'
p3
F-0.31093800961948087
sS'vel_x'
p4
F-0.39155785546184058
sS'pos_x'
p5
F-145.08439169251156
sS'pos_y'
p6
F61.960235129764605
sS'isAlive'
p7
I01
sS'cumulativeEnergy'
p8
F45.581325707493569
sS'geno'
p9
(lp10
(lp11
(lp12
(lp13
S'POINT./'
p14
a(lp15
S'POINT.*'
p16
aaaS'POINT./'
p17
aS'POINT.*'
p18
aS'flee'
p19
aaS'POINT.*'
p20
aS'randV'
p21
aS'flee'
p22
a(lp23
S'currentVelocity'
p24
aa(lp25
S'currentVelocity'
p26
a(lp27
(lp28
S'target'
p29
aaaS'POINT.*'
p30
aS'POINT./'
p31
aaaS'POINT./'
p32
aS'currentVelocity'
p33
a(lp34
S'POINT.+'
p35
aasS'accel_x'
p36
F-0.39155785546184058
sS'accel_y'
p37
F-0.31093800961948087
sS'visionAngle'
p38
I150
sS'maxAccel'
p39
I2
sS'maxVel'
p40
F0.5
sS'age'
p41
I200
sS'tailSize'
p42
I0
sS'sexualgeno'
p43
NsS'tailBrigh'
p44
I0
sS'maxSteering'
p45
I30
sS'energy'
p46
F0.62011629291209791
sS'lastScale'
p47
F11.701162929120979
sb.(i__main__
Data_mobile
p1
(dp2
S'vel_y'
p3
F0.37331324348681078
sS'vel_x'
p4
F-0.33262174047611071
sS'pos_x'
p5
F-150.45111838916219
sS'pos_y'
p6
F87.294279813761477
sS'isAlive'
p7
I01
sS'cumulativeEnergy'
p8
F45.580000000076645
sS'geno'
p9
(lp10
(lp11
(lp12
S'currentVelocity'
p13
a(lp14
(lp15
(lp16
S'POINT.+'
p17
aaS'POINT.+'
p18
aaaS'POINT.*'
p19
a(lp20
S'currentVelocity'
p21
aaaS'POINT./'
p22
a(lp23
S'target'
p24
a(lp25
S'POINT.*'
p26
aaaS'POINT.+'
p27
aa(lp28
S'POINT.+'
p29
aS'POINT.*'
p30
aS'target'
p31
aS'POINT.*'
p32
aaS'POINT.*'
p33
aS'POINT.+'
p34
asS'accel_x'
p35
F-0.99786522142833212
sS'accel_y'
p36
F1.1199397304604324
sS'visionAngle'
p37
I150
sS'maxAccel'
p38
I2
sS'maxVel'
p39
F0.5
sS'age'
p40
I400
sS'tailSize'
p41
I0
sS'sexualgeno'
p42
NsS'tailBrigh'
p43
I0
sS'maxSteering'
p44
I30
sS'energy'
p45
F0.62000000000672417
sS'lastScale'
p46
F11.700000000067242
sb.(i__main__
Data_mobile
p1
(dp2
S'vel_y'
p3
F0.19012324693996333
sS'vel_x'
p4
F-0.46244259208360744
sS'pos_x'
p5
F-63.983655700402757
sS'pos_y'
p6
F0.79835820616560205
sS'isAlive'
p7
I01
sS'cumulativeEnergy'
p8
F45.149068079821149
sS'geno'
p9
(lp10
(lp11
S'currentVelocity'
p12
a(lp13
(lp14
(lp15
S'POINT.+'
p16
aa(lp17
S'POINT.*'
p18
aaaaS'POINT.*'
p19
a(lp20
S'POINT./'
p21
aaaS'POINT./'
p22
aS'target'
p23
aS'POINT.+'
p24
asS'accel_x'
p25
F0.44898806616942155
sS'accel_y'
p26
F1.2265167801389829
sS'visionAngle'
p27
I150
sS'maxAccel'
p28
I2
sS'maxVel'
p29
F0.5
sS'age'
p30
I50
sS'tailSize'
p31
I0
sS'sexualgeno'
p32
NsS'tailBrigh'
p33
I0
sS'maxSteering'
p34
I30
sS'energy'
p35
F1
sS'lastScale'
p36
F15.5
sb.(i__main__
Data_mobile
p1
(dp2
S'vel_y'
p3
F-0.48786806335844091
sS'vel_x'
p4
F0.10947489554635058
sS'pos_x'
p5
F108.87811690459685
sS'pos_y'
p6
F-24.198035918347866
sS'isAlive'
p7
I01
sS'cumulativeEnergy'
p8
F44.567217873831055
sS'geno'
p9
(lp10
(lp11
(lp12
(lp13
S'POINT./'
p14
a(lp15
S'POINT.*'
p16
aaaS'POINT./'
p17
aS'POINT.*'
p18
aS'flee'
p19
aaS'POINT.*'
p20
aS'POINT.*'
p21
aS'flee'
p22
a(lp23
S'currentVelocity'
p24
aa(lp25
S'currentVelocity'
p26
a(lp27
(lp28
S'POINT.+'
p29
aaaS'POINT.*'
p30
aS'POINT./'
p31
aaaS'POINT./'
p32
a(lp33
(lp34
S'POINT.*'
p35
aaS'POINT./'
p36
aS'target'
p37
aS'POINT.+'
p38
aa(lp39
S'POINT.*'
p40
aasS'accel_x'
p41
F-1.2622543293062838
sS'accel_y'
p42
F-0.33563030803638938
sS'visionAngle'
p43
I150
sS'maxAccel'
p44
I2
sS'maxVel'
p45
F0.5
sS'age'
p46
I100
sS'tailSize'
p47
I0
sS'sexualgeno'
p48
NsS'tailBrigh'
p49
I0
sS'maxSteering'
p50
I30
sS'energy'
p51
F1
sS'lastScale'
p52
F15.5
sb.(i__main__
Data_mobile
p1
(dp2
S'vel_y'
p3
F0.32911070851636942
sS'vel_x'
p4
F0.37641219632186912
sS'pos_x'
p5
F-7.653930217770526
sS'pos_y'
p6
F2.0054323258468845
sS'isAlive'
p7
I01
sS'cumulativeEnergy'
p8
F43.210105895271525
sS'geno'
p9
(lp10
(lp11
(lp12
S'POINT.-'
p13
aaS'currentVelocity'
p14
a(lp15
S'POINT.+'
p16
aS'POINT.+'
p17
aa(lp18
S'POINT.+'
p19
aaaS'POINT./'
p20
aS'target'
p21
aS'POINT.+'
p22
asS'accel_x'
p23
F1.8996357073467378
sS'accel_y'
p24
F0.62560704869211525
sS'visionAngle'
p25
I150
sS'maxAccel'
p26
I2
sS'maxVel'
p27
F0.5
sS'age'
p28
I100
sS'tailSize'
p29
I0
sS'sexualgeno'
p30
NsS'tailBrigh'
p31
I0
sS'maxSteering'
p32
I30
sS'energy'
p33
F0.15409225927248366
sS'lastScale'
p34
F7.0409225927248364
sb.(i__main__
Data_mobile
p1
(dp2
S'vel_y'
p3
F0.48650117881610694
sS'vel_x'
p4
F0.11539758667553794
sS'pos_x'
p5
F-75.354009575001072
sS'pos_y'
p6
F94.096424429095293
sS'isAlive'
p7
I01
sS'cumulativeEnergy'
p8
F41.863417033797475
sS'geno'
p9
(lp10
(lp11
(lp12
(lp13
(lp14
S'POINT.+'
p15
aa(lp16
S'POINT.+'
p17
aaaS'POINT./'
p18
aS'POINT.*'
p19
aS'flee'
p20
aaS'POINT.*'
p21
aS'POINT.*'
p22
aS'flee'
p23
a(lp24
S'currentVelocity'
p25
aa(lp26
S'currentVelocity'
p27
a(lp28
(lp29
S'POINT.+'
p30
aaaS'POINT.*'
p31
aS'POINT./'
p32
aaaS'POINT./'
p33
a(lp34
S'POINT.+'
p35
aS'POINT./'
p36
aS'target'
p37
aS'POINT.+'
p38
aa(lp39
S'POINT.*'
p40
aasS'accel_x'
p41
F0.23079517335107588
sS'accel_y'
p42
F0.97300235763221388
sS'visionAngle'
p43
I150
sS'maxAccel'
p44
I2
sS'maxVel'
p45
F0.5
sS'age'
p46
I100
sS'tailSize'
p47
I0
sS'sexualgeno'
p48
NsS'tailBrigh'
p49
I0
sS'maxSteering'
p50
I30
sS'energy'
p51
F0.56490146604297531
sS'lastScale'
p52
F11.149014660429753
sb.(i__main__
Data_mobile
p1
(dp2
S'vel_y'
p3
F-0.29726196456032739
sS'vel_x'
p4
F-0.40203895884072566
sS'pos_x'
p5
F59.424223484301386
sS'pos_y'
p6
F-2.9635443198528169
sS'isAlive'
p7
I01
sS'cumulativeEnergy'
p8
F41.788254845517123
sS'geno'
p9
(lp10
(lp11
S'currentVelocity'
p12
a(lp13
S'POINT./'
p14
aaS'POINT.*'
p15
aS'target'
p16
aaS'POINT./'
p17
aS'target'
p18
aS'POINT.+'
p19
asS'accel_x'
p20
F0.99821330376808248
sS'accel_y'
p21
F0.11081819051702624
sS'visionAngle'
p22
I150
sS'maxAccel'
p23
I2
sS'maxVel'
p24
F0.5
sS'age'
p25
I50
sS'tailSize'
p26
I0
sS'sexualgeno'
p27
NsS'tailBrigh'
p28
I0
sS'maxSteering'
p29
I30
sS'energy'
p30
F1
sS'lastScale'
p31
F15.5
sb.(i__main__
Data_mobile
p1
(dp2
S'vel_y'
p3
F-0.46716226473767991
sS'vel_x'
p4
F-0.1782117235345696
sS'pos_x'
p5
F119.42566650848354
sS'pos_y'
p6
F24.302240587115168
sS'isAlive'
p7
I01
sS'cumulativeEnergy'
p8
F41.397764308061859
sS'geno'
p9
(lp10
S'POINT.+'
p11
a(lp12
S'target'
p13
aS'POINT.+'
p14
aaS'POINT.+'
p15
aS'POINT.+'
p16
asS'accel_x'
p17
F-0.1782117235345696
sS'accel_y'
p18
F-0.46716226473767991
sS'visionAngle'
p19
I150
sS'maxAccel'
p20
I2
sS'maxVel'
p21
F0.5
sS'age'
p22
I150
sS'tailSize'
p23
I0
sS'sexualgeno'
p24
NsS'tailBrigh'
p25
I0
sS'maxSteering'
p26
I30
sS'energy'
p27
F0.94054076929200836
sS'lastScale'
p28
F14.905407692920082
sb.(i__main__
Data_mobile
p1
(dp2
S'vel_y'
p3
F-0.26929437220575347
sS'vel_x'
p4
F0.42128439455824734
sS'pos_x'
p5
F-90.024872147836248
sS'pos_y'
p6
F37.988631140190989
sS'isAlive'
p7
I01
sS'cumulativeEnergy'
p8
F41.087319092701932
sS'geno'
p9
(lp10
(lp11
(lp12
(lp13
(lp14
S'POINT.*'
p15
aa(lp16
S'POINT.*'
p17
aaaS'POINT./'
p18
aS'POINT.*'
p19
aS'flee'
p20
aaS'POINT.*'
p21
aS'randV'
p22
aS'flee'
p23
a(lp24
S'currentVelocity'
p25
aa(lp26
S'currentVelocity'
p27
a(lp28
S'POINT./'
p29
aa(lp30
S'flee'
p31
aaS'POINT./'
p32
aaaS'POINT./'
p33
a(lp34
S'POINT.+'
p35
aS'POINT.*'
p36
aS'target'
p37
aS'POINT.+'
p38
aa(lp39
S'POINT.*'
p40
aasS'accel_x'
p41
F-0.7052785054717905
sS'accel_y'
p42
F-0.71295240043214814
sS'visionAngle'
p43
I150
sS'maxAccel'
p44
I2
sS'maxVel'
p45
F0.5
sS'age'
p46
I150
sS'tailSize'
p47
I0
sS'sexualgeno'
p48
NsS'tailBrigh'
p49
I0
sS'maxSteering'
p50
I30
sS'energy'
p51
F0.96180802464909088
sS'lastScale'
p52
F15.118080246490909
sb.(i__main__
Data_mobile
p1
(dp2
S'vel_y'
p3
F0.49283404100402894
sS'vel_x'
p4
F-0.084348135887162029
sS'pos_x'
p5
F59.281295401163263
sS'pos_y'
p6
F-2.1390678528518867
sS'isAlive'
p7
I01
sS'cumulativeEnergy'
p8
F39.832553294005841
sS'geno'
p9
(lp10
(lp11
(lp12
S'POINT.-'
p13
aaS'currentVelocity'
p14
a(lp15
S'flee'
p16
aS'POINT.+'
p17
aa(lp18
(lp19
(lp20
S'currentVelocity'
p21
a(lp22
(lp23
S'POINT.*'
p24
aaaS'POINT.*'
p25
aS'POINT.+'
p26
aaS'POINT./'
p27
aS'target'
p28
aS'POINT.+'
p29
aaaaS'POINT./'
p30
aS'target'
p31
aS'POINT.+'
p32
asS'accel_x'
p33
F1.1153731982700053
sS'accel_y'
p34
F-0.55246666147677614
sS'visionAngle'
p35
I150
sS'maxAccel'
p36
I2
sS'maxVel'
p37
F0.5
sS'age'
p38
I100
sS'tailSize'
p39
I0
sS'sexualgeno'
p40
NsS'tailBrigh'
p41
I0
sS'maxSteering'
p42
I30
sS'energy'
p43
F1
sS'lastScale'
p44
F15.5
sb.(i__main__
Data_mobile
p1
(dp2
S'vel_y'
p3
F0.49586735909604801
sS'vel_x'
p4
F-0.064152647514432448
sS'pos_x'
p5
F-90.256495971701312
sS'pos_y'
p6
F38.385781214927867
sS'isAlive'
p7
I01
sS'cumulativeEnergy'
p8
F39.320000212786013
sS'geno'
p9
(lp10
(lp11
S'POINT.*'
p12
aaS'POINT./'
p13
a(lp14
S'POINT.*'
p15
aS'POINT.*'
p16
aS'target'
p17
aS'POINT.+'
p18
aaS'POINT.+'
p19
asS'accel_x'
p20
F-0.95909172367940632
sS'accel_y'
p21
F-0.34494074386722456
sS'visionAngle'
p22
I150
sS'maxAccel'
p23
I2
sS'maxVel'
p24
F0.5
sS'age'
p25
I350
sS'tailSize'
p26
I0
sS'sexualgeno'
p27
NsS'tailBrigh'
p28
I0
sS'maxSteering'
p29
I30
sS'energy'
p30
F0.80000000195830656
sS'lastScale'
p31
F13.500000019583066
sb.(i__main__
Data_mobile
p1
(dp2
S'vel_y'
p3
F0.27198366291790649
sS'vel_x'
p4
F0.4195531993749525
sS'pos_x'
p5
F61.904726303062084
sS'pos_y'
p6
F50.968285104438166
sS'isAlive'
p7
I01
sS'cumulativeEnergy'
p8
F39.238130865202208
sS'geno'
p9
(lp10
(lp11
S'currentVelocity'
p12
a(lp13
S'POINT./'
p14
aaS'POINT.*'
p15
aS'POINT.*'
p16
aaS'POINT./'
p17
aS'target'
p18
aS'POINT.+'
p19
asS'accel_x'
p20
F0.4195531993749525
sS'accel_y'
p21
F0.27198366291790649
sS'visionAngle'
p22
I150
sS'maxAccel'
p23
I2
sS'maxVel'
p24
F0.5
sS'age'
p25
I50
sS'tailSize'
p26
I0
sS'sexualgeno'
p27
NsS'tailBrigh'
p28
I0
sS'maxSteering'
p29
I30
sS'energy'
p30
F0.97972982645426054
sS'lastScale'
p31
F15.297298264542604
sb.(i__main__
Data_mobile
p1
(dp2
S'vel_y'
p3
F-0.39172585164842322
sS'vel_x'
p4
F-0.31072633803769761
sS'pos_x'
p5
F120.52286560254952
sS'pos_y'
p6
F23.678304015605093
sS'isAlive'
p7
I01
sS'cumulativeEnergy'
p8
F38.459592044687021
sS'geno'
p9
(lp10
S'POINT.+'
p11
aS'POINT.*'
p12
aS'target'
p13
aS'POINT.+'
p14
asS'accel_x'
p15
F-0.31072633803769761
sS'accel_y'
p16
F-0.39172585164842322
sS'visionAngle'
p17
I150
sS'maxAccel'
p18
I2
sS'maxVel'
p19
F0.5
sS'age'
p20
I200
sS'tailSize'
p21
I0
sS'sexualgeno'
p22
NsS'tailBrigh'
p23
I0
sS'maxSteering'
p24
I30
sS'energy'
p25
F0.86096138199697803
sS'lastScale'
p26
F14.10961381996978
sb.(i__main__
Data_mobile
p1
(dp2
S'vel_y'
p3
F-0.44127338998935295
sS'vel_x'
p4
F-0.23511230356428509
sS'pos_x'
p5
F-32.705698124338141
sS'pos_y'
p6
F6.4847918485974114
sS'isAlive'
p7
I01
sS'cumulativeEnergy'
p8
F37.984881460209323
sS'geno'
p9
(lp10
(lp11
S'flee'
p12
aaS'POINT./'
p13
a(lp14
S'POINT.*'
p15
aS'POINT.*'
p16
aS'target'
p17
aS'POINT.+'
p18
aaS'POINT.+'
p19
asS'accel_x'
p20
F0.9653424963296906
sS'accel_y'
p21
F-0.29477067464794116
sS'visionAngle'
p22
I150
sS'maxAccel'
p23
I2
sS'maxVel'
p24
F0.5
sS'age'
p25
I50
sS'tailSize'
p26
I0
sS'sexualgeno'
p27
NsS'tailBrigh'
p28
I0
sS'maxSteering'
p29
I30
sS'energy'
p30
F1
sS'lastScale'
p31
F15.5
sb.(i__main__
Data_mobile
p1
(dp2
S'vel_y'
p3
F-0.39455275847164956
sS'vel_x'
p4
F0.30712883417616804
sS'pos_x'
p5
F-48.209501347526071
sS'pos_y'
p6
F42.650105070535922
sS'isAlive'
p7
I01
sS'cumulativeEnergy'
p8
F37.804208782781572
sS'geno'
p9
(lp10
(lp11
(lp12
(lp13
(lp14
S'POINT.+'
p15
aa(lp16
S'POINT.*'
p17
aaaS'POINT./'
p18
aS'POINT.*'
p19
aS'flee'
p20
aa(lp21
S'POINT.*'
p22
aaS'POINT.*'
p23
aS'flee'
p24
a(lp25
S'currentVelocity'
p26
aa(lp27
S'currentVelocity'
p28
a(lp29
(lp30
S'POINT.+'
p31
aaaS'POINT.*'
p32
aS'POINT./'
p33
aaaS'POINT./'
p34
a(lp35
S'POINT.+'
p36
aS'POINT./'
p37
aS'target'
p38
aS'POINT.+'
p39
aa(lp40
S'POINT.*'
p41
aasS'accel_x'
p42
F1.2285139635100304
sS'accel_y'
p43
F-1.578212102811557
sS'visionAngle'
p44
I150
sS'maxAccel'
p45
I2
sS'maxVel'
p46
F0.5
sS'age'
p47
I150
sS'tailSize'
p48
I0
sS'sexualgeno'
p49
NsS'tailBrigh'
p50
I0
sS'maxSteering'
p51
I30
sS'energy'
p52
F0.32943344436565136
sS'lastScale'
p53
F8.7943344436565134
sb.(i__main__
Data_mobile
p1
(dp2
S'vel_y'
p3
F0.090260771700878678
sS'vel_x'
p4
F0.4917855153336278
sS'pos_x'
p5
F61.123888575591444
sS'pos_y'
p6
F52.132179355979041
sS'isAlive'
p7
I01
sS'cumulativeEnergy'
p8
F37.707682842169291
sS'geno'
p9
(lp10
(lp11
(lp12
S'flee'
p13
aS'POINT.+'
p14
aaS'POINT.*'
p15
aS'POINT.+'
p16
aS'flee'
p17
a(lp18
S'currentVelocity'
p19
aa(lp20
S'currentVelocity'
p21
a(lp22
(lp23
S'POINT.+'
p24
aaaS'POINT.*'
p25
aS'POINT.+'
p26
aaaS'POINT./'
p27
a(lp28
S'POINT.+'
p29
aS'POINT.*'
p30
aS'target'
p31
aS'POINT.*'
p32
aa(lp33
S'POINT.*'
p34
aasS'accel_x'
p35
F0
sS'accel_y'
p36
F0
sS'visionAngle'
p37
I150
sS'maxAccel'
p38
I2
sS'maxVel'
p39
F0.5
sS'age'
p40
I50
sS'tailSize'
p41
I0
sS'sexualgeno'
p42
NsS'tailBrigh'
p43
I0
sS'maxSteering'
p44
I30
sS'energy'
p45
F0.97972982645426054
sS'lastScale'
p46
F15.297298264542604
sb.(i__main__
Data_mobile
p1
(dp2
S'vel_y'
p3
F0.22985990618314928
sS'vel_x'
p4
F0.44403200732545595
sS'pos_x'
p5
F-58.439761784898906
sS'pos_y'
p6
F71.033331105739975
sS'isAlive'
p7
I01
sS'cumulativeEnergy'
p8
F37.187319092701927
sS'geno'
p9
(lp10
(lp11
(lp12
S'POINT.*'
p13
aS'POINT.*'
p14
aS'POINT.+'
p15
aS'POINT.+'
p16
aaaS'POINT./'
p17
a(lp18
S'POINT.+'
p19
aS'POINT.*'
p20
aS'target'
p21
aS'POINT.+'
p22
aaS'POINT.+'
p23
asS'accel_x'
p24
F0.44403200732545595
sS'accel_y'
p25
F0.22985990618314928
sS'visionAngle'
p26
I150
sS'maxAccel'
p27
I2
sS'maxVel'
p28
F0.5
sS'age'
p29
I150
sS'tailSize'
p30
I0
sS'sexualgeno'
p31
NsS'tailBrigh'
p32
I0
sS'maxSteering'
p33
I30
sS'energy'
p34
F0.31180802464909041
sS'lastScale'
p35
F8.618080246490905
sb.(i__main__
Data_mobile
p1
(dp2
S'vel_y'
p3
F-0.16979449151390888
sS'vel_x'
p4
F0.47028696627860433
sS'pos_x'
p5
F-41.893412013382893
sS'pos_y'
p6
F37.157361624556508
sS'isAlive'
p7
I01
sS'cumulativeEnergy'
p8
F36.937555145072906
sS'geno'
p9
(lp10
(lp11
(lp12
(lp13
(lp14
S'POINT.+'
p15
aa(lp16
S'POINT.*'
p17
aaaS'POINT./'
p18
aS'POINT.*'
p19
aS'flee'
p20
aa(lp21
S'POINT.*'
p22
aaS'POINT.*'
p23
aS'flee'
p24
a(lp25
S'currentVelocity'
p26
aa(lp27
S'currentVelocity'
p28
a(lp29
(lp30
S'POINT.+'
p31
aaaS'POINT.*'
p32
aS'POINT./'
p33
aaaS'POINT./'
p34
a(lp35
S'POINT.+'
p36
aS'POINT.+'
p37
aS'target'
p38
aS'POINT.+'
p39
aa(lp40
S'POINT.*'
p41
aasS'accel_x'
p42
F-0.39512345574214991
sS'accel_y'
p43
F-1.2449141136637834
sS'visionAngle'
p44
I150
sS'maxAccel'
p45
I2
sS'maxVel'
p46
F0.5
sS'age'
p47
I50
sS'tailSize'
p48
I0
sS'sexualgeno'
p49
NsS'tailBrigh'
p50
I0
sS'maxSteering'
p51
I30
sS'energy'
p52
F1
sS'lastScale'
p53
F15.5
sb.(i__main__
Data_mobile
p1
(dp2
S'vel_y'
p3
F0.47403512257684288
sS'vel_x'
p4
F-0.15903050827925305
sS'pos_x'
p5
F174.11459218621644
sS'pos_y'
p6
F87.156697044638378
sS'isAlive'
p7
I01
sS'cumulativeEnergy'
p8
F36.899002261011454
sS'geno'
p9
(lp10
S'POINT.+'
p11
aS'POINT.*'
p12
a(lp13
(lp14
S'POINT.*'
p15
aaS'POINT./'
p16
a(lp17
S'POINT.*'
p18
aS'POINT.*'
p19
aS'target'
p20
aS'POINT.+'
p21
aaS'POINT.+'
p22
aaS'POINT.+'
p23
asS'accel_x'
p24
F0.99629039360890725
sS'accel_y'
p25
F0.11035450015429338
sS'visionAngle'
p26
I150
sS'maxAccel'
p27
I2
sS'maxVel'
p28
F0.5
sS'age'
p29
I100
sS'tailSize'
p30
I0
sS'sexualgeno'
p31
NsS'tailBrigh'
p32
I0
sS'maxSteering'
p33
I30
sS'energy'
p34
F1
sS'lastScale'
p35
F15.5
sb.(i__main__
Data_mobile
p1
(dp2
S'vel_y'
p3
F-0.48916211929732878
sS'vel_x'
p4
F-0.10353946612063383
sS'pos_x'
p5
F121.62942483803887
sS'pos_y'
p6
F23.65412217262168
sS'isAlive'
p7
I01
sS'cumulativeEnergy'
p8
F36.823194588560781
sS'geno'
p9
(lp10
(lp11
S'POINT.*'
p12
aaS'POINT./'
p13
a(lp14
S'POINT.*'
p15
aS'POINT.*'
p16
aS'target'
p17
aS'POINT.+'
p18
aaS'POINT./'
p19
asS'accel_x'
p20
F-0.10353946612063383
sS'accel_y'
p21
F-0.48916211929732878
sS'visionAngle'
p22
I150
sS'maxAccel'
p23
I2
sS'maxVel'
p24
F0.5
sS'age'
p25
I200
sS'tailSize'
p26
I0
sS'sexualgeno'
p27
NsS'tailBrigh'
p28
I0
sS'maxSteering'
p29
I30
sS'energy'
p30
F0.79104715685111493
sS'lastScale'
p31
F13.41047156851115
sb.(i__main__
Data_mobile
p1
(dp2
S'vel_y'
p3
F0.49771314792194626
sS'vel_x'
p4
F0.047766331088193559
sS'pos_x'
p5
F-1.2130048113535141
sS'pos_y'
p6
F-89.346601479807248
sS'isAlive'
p7
I01
sS'cumulativeEnergy'
p8
F36.733023155513386
sS'geno'
p9
(lp10
(lp11
S'POINT.*'
p12
aaS'POINT./'
p13
a(lp14
S'target'
p15
aS'POINT.*'
p16
aS'target'
p17
a(lp18
S'POINT.+'
p19
aaaS'POINT.+'
p20
asS'accel_x'
p21
F0.67533253024158624
sS'accel_y'
p22
F-0.86910805535138591
sS'visionAngle'
p23
I150
sS'maxAccel'
p24
I2
sS'maxVel'
p25
F0.5
sS'age'
p26
I100
sS'tailSize'
p27
I0
sS'sexualgeno'
p28
NsS'tailBrigh'
p29
I0
sS'maxSteering'
p30
I30
sS'energy'
p31
F1
sS'lastScale'
p32
F15.5
sb.(i__main__
Data_mobile
p1
(dp2
S'vel_y'
p3
F0.49058423652953176
sS'vel_x'
p4
F0.09657694791582741
sS'pos_x'
p5
F-117.64580455327042
sS'pos_y'
p6
F-85.598725742230116
sS'isAlive'
p7
I01
sS'cumulativeEnergy'
p8
F36.260279366236354
sS'geno'
p9
(lp10
(lp11
(lp12
S'currentVelocity'
p13
a(lp14
(lp15
(lp16
S'POINT.+'
p17
aaS'POINT.+'
p18
aaaS'POINT.*'
p19
aS'POINT./'
p20
aa(lp21
S'POINT.+'
p22
aS'currentVelocity'
p23
a(lp24
S'currentVelocity'
p25
a(lp26
(lp27
S'target'
p28
aaaS'POINT.*'
p29
aS'POINT./'
p30
aaS'POINT.+'
p31
aa(lp32
S'target'
p33
a(lp34
S'POINT.*'
p35
aaaS'POINT.+'
p36
aaS'target'
p37
aS'POINT.*'
p38
aS'POINT.+'
p39
asS'accel_x'
p40
F0.34116127951738573
sS'accel_y'
p41
F-1.0417076961737561
sS'visionAngle'
p42
I150
sS'maxAccel'
p43
I2
sS'maxVel'
p44
F0.5
sS'age'
p45
I100
sS'tailSize'
p46
I0
sS'sexualgeno'
p47
NsS'tailBrigh'
p48
I0
sS'maxSteering'
p49
I30
sS'energy'
p50
F0.98520821285372739
sS'lastScale'
p51
F15.5
sb.(i__main__
Data_mobile
p1
(dp2
S'vel_y'
p3
F-0.42647261296016414
sS'vel_x'
p4
F-0.26100021148445463
sS'pos_x'
p5
F-142.47372716478068
sS'pos_y'
p6
F59.871578905209439
sS'isAlive'
p7
I01
sS'cumulativeEnergy'
p8
F35.998515606554555
sS'geno'
p9
(lp10
(lp11
(lp12
S'target'
p13
a(lp14
S'POINT.*'
p15
aaaaS'flee'
p16
a(lp17
S'POINT.+'
p18
a(lp19
S'POINT.*'
p20
aaS'target'
p21
aS'POINT.+'
p22
aaS'POINT.+'
p23
asS'accel_x'
p24
F-0.26100021148445463
sS'accel_y'
p25
F-0.42647261296016414
sS'visionAngle'
p26
I150
sS'maxAccel'
p27
I2
sS'maxVel'
p28
F0.5
sS'age'
p29
I50
sS'tailSize'
p30
I0
sS'sexualgeno'
p31
NsS'tailBrigh'
p32
I0
sS'maxSteering'
p33
I30
sS'energy'
p34
F0.80859478759311088
sS'lastScale'
p35
F13.58594787593111
sb.(i__main__
Data_mobile
p1
(dp2
S'vel_y'
p3
F-0.24162312602482328
sS'vel_x'
p4
F0.43774223576208898
sS'pos_x'
p5
F-123.87376418782233
sS'pos_y'
p6
F63.733064791320089
sS'isAlive'
p7
I01
sS'cumulativeEnergy'
p8
F35.998515606554555
sS'geno'
p9
(lp10
(lp11
S'POINT.*'
p12
aaS'POINT./'
p13
a(lp14
S'POINT.*'
p15
aS'POINT.*'
p16
a(lp17
S'POINT.+'
p18
aS'POINT.*'
p19
aS'target'
p20
aS'POINT.*'
p21
aaS'POINT.+'
p22
aaS'POINT.+'
p23
asS'accel_x'
p24
F0.43774223576208898
sS'accel_y'
p25
F-0.24162312602482328
sS'visionAngle'
p26
I150
sS'maxAccel'
p27
I2
sS'maxVel'
p28
F0.5
sS'age'
p29
I50
sS'tailSize'
p30
I0
sS'sexualgeno'
p31
NsS'tailBrigh'
p32
I0
sS'maxSteering'
p33
I30
sS'energy'
p34
F0.80859478759311088
sS'lastScale'
p35
F13.58594787593111
sb.(i__main__
Data_mobile
p1
(dp2
S'vel_y'
p3
F0.26289248540615318
sS'vel_x'
p4
F-0.42530875974634663
sS'pos_x'
p5
F-43.319881265404518
sS'pos_y'
p6
F37.459840472773884
sS'isAlive'
p7
I01
sS'cumulativeEnergy'
p8
F35.336626327230135
sS'geno'
p9
(lp10
S'POINT.+'
p11
a(lp12
S'target'
p13
aS'POINT.+'
p14
aaS'flee'
p15
aS'POINT.+'
p16
asS'accel_x'
p17
F-0.33453689602407943
sS'accel_y'
p18
F-0.9449114934471885
sS'visionAngle'
p19
I150
sS'maxAccel'
p20
I2
sS'maxVel'
p21
F0.5
sS'age'
p22
I50
sS'tailSize'
p23
I0
sS'sexualgeno'
p24
NsS'tailBrigh'
p25
I0
sS'maxSteering'
p26
I30
sS'energy'
p27
F1
sS'lastScale'
p28
F15.5
sb.(i__main__
Data_mobile
p1
(dp2
S'vel_y'
p3
F0.47500674531265852
sS'vel_x'
p4
F0.15610442629046492
sS'pos_x'
p5
F176.42296944912371
sS'pos_y'
p6
F87.163814223937294
sS'isAlive'
p7
I01
sS'cumulativeEnergy'
p8
F34.633023155513378
sS'geno'
p9
(lp10
S'POINT.*'
p11
aS'POINT./'
p12
a(lp13
S'POINT.*'
p14
aS'POINT.*'
p15
aS'target'
p16
aS'POINT.+'
p17
aaS'POINT.+'
p18
asS'accel_x'
p19
F-0.99695193472864596
sS'accel_y'
p20
F0.10420894359119282
sS'visionAngle'
p21
I150
sS'maxAccel'
p22
I2
sS'maxVel'
p23
F0.5
sS'age'
p24
I100
sS'tailSize'
p25
I0
sS'sexualgeno'
p26
NsS'tailBrigh'
p27
I0
sS'maxSteering'
p28
I30
sS'energy'
p29
F1
sS'lastScale'
p30
F15.5
sb.(i__main__
Data_mobile
p1
(dp2
S'vel_y'
p3
F0.49805190769731644
sS'vel_x'
p4
F0.044094186000694174
sS'pos_x'
p5
F-145.22004979303608
sS'pos_y'
p6
F33.642001543691556
sS'isAlive'
p7
I01
sS'cumulativeEnergy'
p8
F33.685852344322861
sS'geno'
p9
(lp10
(lp11
(lp12
S'currentVelocity'
p13
a(lp14
(lp15
(lp16
S'POINT.+'
p17
aaS'POINT.+'
p18
aaaS'POINT.*'
p19
a(lp20
S'POINT.+'
p21
aaaS'POINT./'
p22
a(lp23
S'target'
p24
a(lp25
S'POINT.*'
p26
aaaS'POINT.+'
p27
aa(lp28
S'POINT.+'
p29
aS'POINT.*'
p30
aS'target'
p31
aS'POINT.*'
p32
aaS'POINT.*'
p33
aS'POINT.+'
p34
asS'accel_x'
p35
F0.9376520675846558
sS'accel_y'
p36
F-0.81858743187059746
sS'visionAngle'
p37
I150
sS'maxAccel'
p38
I2
sS'maxVel'
p39
F0.5
sS'age'
p40
I50
sS'tailSize'
p41
I0
sS'sexualgeno'
p42
NsS'tailBrigh'
p43
I0
sS'maxSteering'
p44
I30
sS'energy'
p45
F1
sS'lastScale'
p46
F15.5
sb.(i__main__
Data_mobile
p1
(dp2
S'vel_y'
p3
F0.39186389876371003
sS'vel_x'
p4
F-0.3105522256331531
sS'pos_x'
p5
F-63.819949727334539
sS'pos_y'
p6
F1.5943776717186782
sS'isAlive'
p7
I01
sS'cumulativeEnergy'
p8
F33.685852344322861
sS'geno'
p9
(lp10
(lp11
S'currentVelocity'
p12
a(lp13
S'flee'
p14
aaS'POINT.*'
p15
a(lp16
S'POINT.+'
p17
aaaS'POINT./'
p18
aS'target'
p19
aS'POINT.+'
p20
asS'accel_x'
p21
F0.89961505163526512
sS'accel_y'
p22
F0.44211471946969022
sS'visionAngle'
p23
I150
sS'maxAccel'
p24
I2
sS'maxVel'
p25
F0.5
sS'age'
p26
I50
sS'tailSize'
p27
I0
sS'sexualgeno'
p28
NsS'tailBrigh'
p29
I0
sS'maxSteering'
p30
I30
sS'energy'
p31
F1
sS'lastScale'
p32
F15.5
sb.(i__main__
Data_mobile
p1
(dp2
S'vel_y'
p3
F0.48458596093265238
sS'vel_x'
p4
F0.12319272083600492
sS'pos_x'
p5
F171.37001604326113
sS'pos_y'
p6
F6.9846983806254013
sS'isAlive'
p7
I01
sS'cumulativeEnergy'
p8
F33.251970247574135
sS'geno'
p9
(lp10
(lp11
S'currentVelocity'
p12
a(lp13
S'POINT./'
p14
aaS'POINT.*'
p15
a(lp16
S'target'
p17
aaaS'POINT./'
p18
aS'target'
p19
aS'POINT.+'
p20
asS'accel_x'
p21
F0
sS'accel_y'
p22
F0
sS'visionAngle'
p23
I150
sS'maxAccel'
p24
I2
sS'maxVel'
p25
F0.5
sS'age'
p26
I150
sS'tailSize'
p27
I0
sS'sexualgeno'
p28
NsS'tailBrigh'
p29
I0
sS'maxSteering'
p30
I30
sS'energy'
p31
F0.20951262837610687
sS'lastScale'
p32
F7.5951262837610685
sb.(i__main__
Data_mobile
p1
(dp2
S'vel_y'
p3
F0.43812574388659842
sS'vel_x'
p4
F-0.24092702742493377
sS'pos_x'
p5
F-44.829940369040749
sS'pos_y'
p6
F36.454623103044014
sS'isAlive'
p7
I01
sS'cumulativeEnergy'
p8
F32.84492826699519
sS'geno'
p9
(lp10
(lp11
(lp12
(lp13
S'POINT./'
p14
a(lp15
S'POINT.*'
p16
aaaS'POINT./'
p17
aS'POINT.*'
p18
aS'flee'
p19
aaS'POINT.*'
p20
aS'randV'
p21
aS'flee'
p22
a(lp23
S'currentVelocity'
p24
aa(lp25
S'currentVelocity'
p26
a(lp27
(lp28
S'target'
p29
aaaS'POINT.*'
p30
aS'POINT.+'
p31
aaaS'POINT./'
p32
aS'POINT.+'
p33
a(lp34
S'POINT.+'
p35
aasS'accel_x'
p36
F1.11897691250863
sS'accel_y'
p37
F0.67366487864972502
sS'visionAngle'
p38
I150
sS'maxAccel'
p39
I2
sS'maxVel'
p40
F0.5
sS'age'
p41
I50
sS'tailSize'
p42
I0
sS'sexualgeno'
p43
NsS'tailBrigh'
p44
I0
sS'maxSteering'
p45
I30
sS'energy'
p46
F1
sS'lastScale'
p47
F15.5
sb.(i__main__
Data_mobile
p1
(dp2
S'vel_y'
p3
F0.029490086540585096
sS'vel_x'
p4
F0.4991295771599083
sS'pos_x'
p5
F-47.153485005019334
sS'pos_y'
p6
F72.169166963812259
sS'isAlive'
p7
I01
sS'cumulativeEnergy'
p8
F32.481245061703305
sS'geno'
p9
(lp10
(lp11
(lp12
(lp13
(lp14
S'POINT.+'
p15
aa(lp16
S'POINT.*'
p17
aaaS'POINT./'
p18
aS'POINT.*'
p19
aS'flee'
p20
aaS'POINT.*'
p21
aS'randV'
p22
aS'flee'
p23
a(lp24
S'currentVelocity'
p25
aa(lp26
S'currentVelocity'
p27
a(lp28
S'POINT./'
p29
aa(lp30
S'POINT.*'
p31
aaS'POINT./'
p32
aaaS'POINT./'
p33
a(lp34
S'POINT.+'
p35
aS'POINT.*'
p36
aS'target'
p37
aS'POINT.+'
p38
aa(lp39
S'POINT.*'
p40
aasS'accel_x'
p41
F1.9965689767516654
sS'accel_y'
p42
F0.11709962029318258
sS'visionAngle'
p43
I150
sS'maxAccel'
p44
I2
sS'maxVel'
p45
F0.5
sS'age'
p46
I50
sS'tailSize'
p47
I0
sS'sexualgeno'
p48
NsS'tailBrigh'
p49
I0
sS'maxSteering'
p50
I30
sS'energy'
p51
F0.49825676022440007
sS'lastScale'
p52
F10.482567602244002
sb.(i__main__
Data_mobile
p1
(dp2
S'vel_y'
p3
F-0.47528429482101786
sS'vel_x'
p4
F-0.1552573318606493
sS'pos_x'
p5
F58.77093666900371
sS'pos_y'
p6
F-3.2809881161989205
sS'isAlive'
p7
I01
sS'cumulativeEnergy'
p8
F31.980959266170586
sS'geno'
p9
(lp10
S'POINT.+'
p11
aS'POINT.+'
p12
aS'target'
p13
aS'POINT.+'
p14
asS'accel_x'
p15
F0.99713613532106804
sS'accel_y'
p16
F-0.1024314032164011
sS'visionAngle'
p17
I150
sS'maxAccel'
p18
I2
sS'maxVel'
p19
F0.5
sS'age'
p20
I50
sS'tailSize'
p21
I0
sS'sexualgeno'
p22
NsS'tailBrigh'
p23
I0
sS'maxSteering'
p24
I30
sS'energy'
p25
F1
sS'lastScale'
p26
F15.5
sb.(i__main__
Data_mobile
p1
(dp2
S'vel_y'
p3
F0.43771521726228035
sS'vel_x'
p4
F0.24167206825993512
sS'pos_x'
p5
F185.54019021901823
sS'pos_y'
p6
F23.898082650371109
sS'isAlive'
p7
I01
sS'cumulativeEnergy'
p8
F31.809592044687022
sS'geno'
p9
(lp10
(lp11
S'currentVelocity'
p12
a(lp13
S'POINT./'
p14
aaS'POINT.*'
p15
a(lp16
S'POINT.+'
p17
aaaS'POINT./'
p18
aS'target'
p19
aS'POINT.+'
p20
asS'accel_x'
p21
F0.48334413651987024
sS'accel_y'
p22
F0.87543043452456071
sS'visionAngle'
p23
I150
sS'maxAccel'
p24
I2
sS'maxVel'
p25
F0.5
sS'age'
p26
I200
sS'tailSize'
p27
I0
sS'sexualgeno'
p28
NsS'tailBrigh'
p29
I0
sS'maxSteering'
p30
I30
sS'energy'
p31
F0.16096138199697743
sS'lastScale'
p32
F7.1096138199697743
sb.(i__main__
Data_mobile
p1
(dp2
S'vel_y'
p3
F0.35281128417848706
sS'vel_x'
p4
F0.35429394259050895
sS'pos_x'
p5
F197.02927991167496
sS'pos_y'
p6
F15.236631149433681
sS'isAlive'
p7
I01
sS'cumulativeEnergy'
p8
F31.780007148022072
sS'geno'
p9
(lp10
(lp11
(lp12
(lp13
(lp14
S'POINT.+'
p15
aa(lp16
S'POINT.*'
p17
aaaS'POINT./'
p18
aS'POINT.*'
p19
aS'flee'
p20
aaS'POINT.*'
p21
aS'randV'
p22
aS'flee'
p23
a(lp24
S'currentVelocity'
p25
aa(lp26
S'currentVelocity'
p27
a(lp28
S'POINT./'
p29
aa(lp30
S'POINT.*'
p31
aaS'POINT./'
p32
aaaS'POINT./'
p33
a(lp34
S'POINT.+'
p35
aS'POINT.*'
p36
aS'target'
p37
aS'POINT.+'
p38
aa(lp39
S'POINT./'
p40
aasS'accel_x'
p41
F0.7085878851810179
sS'accel_y'
p42
F0.70562256835697412
sS'visionAngle'
p43
I150
sS'maxAccel'
p44
I2
sS'maxVel'
p45
F0.5
sS'age'
p46
I300
sS'tailSize'
p47
I0
sS'sexualgeno'
p48
NsS'tailBrigh'
p49
I0
sS'maxSteering'
p50
I30
sS'energy'
p51
F0.16000023207236069
sS'lastScale'
p52
F7.1000023207236067
sb.(i__main__
Data_mobile
p1
(dp2
S'vel_y'
p3
F0.37900993173624176
sS'vel_x'
p4
F-0.3261157335138698
sS'pos_x'
p5
F-19.956873110386383
sS'pos_y'
p6
F-42.721344102915651
sS'isAlive'
p7
I01
sS'cumulativeEnergy'
p8
F31.546580634262856
sS'geno'
p9
(lp10
(lp11
(lp12
(lp13
(lp14
S'POINT.+'
p15
aa(lp16
S'POINT.*'
p17
aaaS'POINT./'
p18
aS'POINT.*'
p19
aS'target'
p20
aaS'POINT.*'
p21
aS'randV'
p22
aS'flee'
p23
a(lp24
S'currentVelocity'
p25
aa(lp26
S'currentVelocity'
p27
a(lp28
(lp29
S'POINT.+'
p30
aaaS'POINT.*'
p31
aS'POINT.+'
p32
aaaS'POINT./'
p33
a(lp34
S'POINT.+'
p35
aS'POINT.*'
p36
aS'target'
p37
aS'POINT.*'
p38
aa(lp39
S'POINT.*'
p40
aasS'accel_x'
p41
F0.8061121021093669
sS'accel_y'
p42
F0.066147012198086941
sS'visionAngle'
p43
I150
sS'maxAccel'
p44
I2
sS'maxVel'
p45
F0.5
sS'age'
p46
I100
sS'tailSize'
p47
I0
sS'sexualgeno'
p48
NsS'tailBrigh'
p49
I0
sS'maxSteering'
p50
I30
sS'energy'
p51
F0.36141498649177561
sS'lastScale'
p52
F9.3169625903264066
sb.(i__main__
Data_mobile
p1
(dp2
S'vel_y'
p3
F0.17964170885745712
sS'vel_x'
p4
F-0.4666142480023221
sS'pos_x'
p5
F19.384291945223271
sS'pos_y'
p6
F-27.273045992870426
sS'isAlive'
p7
I01
sS'cumulativeEnergy'
p8
F30.583725573229227
sS'geno'
p9
(lp10
(lp11
(lp12
S'POINT.+'
p13
aS'POINT.*'
p14
aS'target'
p15
aS'POINT.+'
p16
aaaS'POINT./'
p17
a(lp18
S'POINT.+'
p19
aS'POINT.*'
p20
a(lp21
(lp22
(lp23
(lp24
(lp25
S'POINT.*'
p26
aa(lp27
S'POINT.*'
p28
aaaS'POINT./'
p29
aS'POINT.*'
p30
aS'flee'
p31
aaS'POINT.*'
p32
aS'randV'
p33
aS'flee'
p34
a(lp35
S'currentVelocity'
p36
aa(lp37
S'currentVelocity'
p38
a(lp39
(lp40
S'POINT.+'
p41
aaaS'POINT.*'
p42
aS'POINT./'
p43
aaaS'POINT./'
p44
a(lp45
S'POINT.+'
p46
aS'POINT.*'
p47
aS'POINT./'
p48
aS'target'
p49
aa(lp50
S'POINT.*'
p51
aaaS'POINT.+'
p52
aaS'POINT.+'
p53
asS'accel_x'
p54
F0.42120239671518522
sS'accel_y'
p55
F1.2363341929061966
sS'visionAngle'
p56
I150
sS'maxAccel'
p57
I2
sS'maxVel'
p58
F0.5
sS'age'
p59
I50
sS'tailSize'
p60
I0
sS'sexualgeno'
p61
NsS'tailBrigh'
p62
I0
sS'maxSteering'
p63
I30
sS'energy'
p64
F1
sS'lastScale'
p65
F15.5
sb.(i__main__
Data_mobile
p1
(dp2
S'vel_y'
p3
F-0.4996207461546312
sS'vel_x'
p4
F-0.019470747594525245
sS'pos_x'
p5
F-43.901327232194845
sS'pos_y'
p6
F35.802241641633792
sS'isAlive'
p7
I01
sS'cumulativeEnergy'
p8
F29.341771377868316
sS'geno'
p9
(lp10
(lp11
(lp12
S'POINT.+'
p13
a(lp14
S'target'
p15
a(lp16
S'POINT.+'
p17
aS'POINT./'
p18
aS'target'
p19
aS'POINT.+'
p20
aaaS'POINT.+'
p21
aS'POINT.+'
p22
aaS'POINT.*'
p23
aS'randV'
p24
aS'flee'
p25
a(lp26
S'currentVelocity'
p27
aa(lp28
S'currentVelocity'
p29
a(lp30
(lp31
S'POINT.+'
p32
aaaS'POINT.*'
p33
aS'POINT./'
p34
aaaS'POINT./'
p35
a(lp36
S'POINT.+'
p37
aS'POINT.*'
p38
aS'POINT./'
p39
aS'target'
p40
aa(lp41
S'POINT.*'
p42
aasS'accel_x'
p43
F0.67221783051259365
sS'accel_y'
p44
F0.44979485228675031
sS'visionAngle'
p45
I150
sS'maxAccel'
p46
I2
sS'maxVel'
p47
F0.5
sS'age'
p48
I50
sS'tailSize'
p49
I0
sS'sexualgeno'
p50
NsS'tailBrigh'
p51
I0
sS'maxSteering'
p52
I30
sS'energy'
p53
F1
sS'lastScale'
p54
F15.5
sb.(i__main__
Data_mobile
p1
(dp2
S'vel_y'
p3
F0.42798960389230151
sS'vel_x'
p4
F0.25850512366317008
sS'pos_x'
p5
F-0.88194610281490216
sS'pos_y'
p6
F-89.028326114391959
sS'isAlive'
p7
I01
sS'cumulativeEnergy'
p8
F29.006083233267105
sS'geno'
p9
(lp10
(lp11
(lp12
S'currentVelocity'
p13
a(lp14
(lp15
(lp16
S'POINT.+'
p17
aaS'POINT.+'
p18
aaaS'POINT.*'
p19
a(lp20
S'currentVelocity'
p21
aaaS'POINT./'
p22
a(lp23
S'target'
p24
aS'currentVelocity'
p25
aaS'POINT.+'
p26
aa(lp27
S'POINT.+'
p28
aS'POINT.*'
p29
aS'target'
p30
aS'POINT.*'
p31
aaS'POINT.*'
p32
aS'POINT.+'
p33
asS'accel_x'
p34
F0.48245902940250895
sS'accel_y'
p35
F-1.1473927263193073
sS'visionAngle'
p36
I150
sS'maxAccel'
p37
I2
sS'maxVel'
p38
F0.5
sS'age'
p39
I200
sS'tailSize'
p40
I0
sS'sexualgeno'
p41
NsS'tailBrigh'
p42
I0
sS'maxSteering'
p43
I30
sS'energy'
p44
F1
sS'lastScale'
p45
F15.5
sb.(i__main__
Data_mobile
p1
(dp2
S'vel_y'
p3
F0.39989104820068622
sS'vel_x'
p4
F-0.30014521413635176
sS'pos_x'
p5
F106.81838254008252
sS'pos_y'
p6
F-23.183614038502
sS'isAlive'
p7
I01
sS'cumulativeEnergy'
p8
F25.636918387247519
sS'geno'
p9
(lp10
(lp11
S'currentVelocity'
p12
a(lp13
S'POINT./'
p14
aaS'POINT.*'
p15
a(lp16
S'target'
p17
aaaS'POINT./'
p18
aS'target'
p19
a(lp20
(lp21
(lp22
S'POINT.*'
p23
aS'POINT.*'
p24
aS'POINT.+'
p25
aS'POINT.+'
p26
aaaS'POINT./'
p27
a(lp28
S'POINT.+'
p29
aS'POINT.*'
p30
aS'target'
p31
aS'POINT.+'
p32
aaS'POINT.+'
p33
aasS'accel_x'
p34
F1.1353003040733223
sS'accel_y'
p35
F-0.32316608709474814
sS'visionAngle'
p36
I150
sS'maxAccel'
p37
I2
sS'maxVel'
p38
F0.5
sS'age'
p39
I50
sS'tailSize'
p40
I0
sS'sexualgeno'
p41
NsS'tailBrigh'
p42
I0
sS'maxSteering'
p43
I30
sS'energy'
p44
F0.94999999999999996
sS'lastScale'
p45
F15.5
sb.(i__main__
Data_mobile
p1
(dp2
S'vel_y'
p3
F-0.43710236823807741
sS'vel_x'
p4
F-0.19917161251599982
sS'pos_x'
p5
F158.58388133679935
sS'pos_y'
p6
F-31.855018293964836
sS'isAlive'
p7
I01
sS'cumulativeEnergy'
p8
F25.581245061703306
sS'geno'
p9
(lp10
(lp11
(lp12
(lp13
(lp14
S'target'
p15
aa(lp16
S'POINT.*'
p17
aaaS'POINT./'
p18
aS'POINT.*'
p19
aS'flee'
p20
aaS'POINT.*'
p21
aS'randV'
p22
aS'flee'
p23
a(lp24
S'currentVelocity'
p25
aa(lp26
S'currentVelocity'
p27
a(lp28
(lp29
S'POINT.+'
p30
aaaS'POINT.*'
p31
aS'POINT.+'
p32
aaaS'POINT./'
p33
a(lp34
S'POINT.+'
p35
aS'POINT.*'
p36
aS'target'
p37
aS'POINT.*'
p38
aa(lp39
S'POINT.*'
p40
aasS'accel_x'
p41
F0
sS'accel_y'
p42
F0
sS'visionAngle'
p43
I150
sS'maxAccel'
p44
I2
sS'maxVel'
p45
F0.5
sS'age'
p46
I50
sS'tailSize'
p47
I0
sS'sexualgeno'
p48
NsS'tailBrigh'
p49
I0
sS'maxSteering'
p50
I30
sS'energy'
p51
F0.29825676022439984
sS'lastScale'
p52
F8.4825676022439982
sb.(i__main__
Data_mobile
p1
(dp2
S'vel_y'
p3
F-0.32917066380810617
sS'vel_x'
p4
F0.37635976682973271
sS'pos_x'
p5
F-51.5713582657853
sS'pos_y'
p6
F-85.256771348836722
sS'isAlive'
p7
I01
sS'cumulativeEnergy'
p8
F25.090442554281378
sS'geno'
p9
(lp10
(lp11
(lp12
S'POINT.*'
p13
a(lp14
S'currentVelocity'
p15
aaS'target'
p16
aS'POINT.+'
p17
aaaS'POINT./'
p18
a(lp19
S'POINT.+'
p20
aS'POINT.*'
p21
aS'target'
p22
aS'POINT.+'
p23
aaS'POINT.+'
p24
asS'accel_x'
p25
F0.11089193599315861
sS'accel_y'
p26
F1.2397498788038357
sS'visionAngle'
p27
I150
sS'maxAccel'
p28
I2
sS'maxVel'
p29
F0.5
sS'age'
p30
I50
sS'tailSize'
p31
I0
sS'sexualgeno'
p32
NsS'tailBrigh'
p33
I0
sS'maxSteering'
p34
I30
sS'energy'
p35
F0.98000261190319093
sS'lastScale'
p36
F15.5
sb.(i__main__
Data_mobile
p1
(dp2
S'vel_y'
p3
F0.48972360718675401
sS'vel_x'
p4
F-0.10085032753538248
sS'pos_x'
p5
F84.235661849162682
sS'pos_y'
p6
F79.061545550439149
sS'isAlive'
p7
I01
sS'cumulativeEnergy'
p8
F22.969816732619677
sS'geno'
p9
(lp10
(lp11
(lp12
S'POINT.+'
p13
a(lp14
S'target'
p15
a(lp16
S'POINT.*'
p17
aaaS'POINT.+'
p18
aS'POINT.+'
p19
aaS'POINT.*'
p20
aS'randV'
p21
aS'flee'
p22
a(lp23
S'currentVelocity'
p24
aa(lp25
S'currentVelocity'
p26
a(lp27
(lp28
S'POINT.+'
p29
aaaS'POINT.*'
p30
aS'POINT./'
p31
aaaS'POINT./'
p32
a(lp33
S'POINT.+'
p34
aS'POINT.*'
p35
aS'POINT./'
p36
aS'target'
p37
aa(lp38
S'POINT.*'
p39
aasS'accel_x'
p40
F0.73668174335108461
sS'accel_y'
p41
F-0.33390436466342521
sS'visionAngle'
p42
I150
sS'maxAccel'
p43
I2
sS'maxVel'
p44
F0.5
sS'age'
p45
I150
sS'tailSize'
p46
I0
sS'sexualgeno'
p47
NsS'tailBrigh'
p48
I0
sS'maxSteering'
p49
I30
sS'energy'
p50
F1
sS'lastScale'
p51
F15.5
sb.(i__main__
Data_mobile
p1
(dp2
S'vel_y'
p3
F0.48318531003792947
sS'vel_x'
p4
F0.12857665481552222
sS'pos_x'
p5
F-76.229691192921607
sS'pos_y'
p6
F85.506635726973741
sS'isAlive'
p7
I01
sS'cumulativeEnergy'
p8
F21.731245061703294
sS'geno'
p9
(lp10
(lp11
(lp12
S'POINT.*'
p13
aS'POINT.*'
p14
aS'POINT.+'
p15
aS'POINT.+'
p16
aaaS'POINT./'
p17
a(lp18
S'POINT.+'
p19
aS'POINT.*'
p20
aS'target'
p21
aS'POINT.+'
p22
aaS'POINT.+'
p23
asS'accel_x'
p24
F0.12857665481552222
sS'accel_y'
p25
F0.48318531003792947
sS'visionAngle'
p26
I150
sS'maxAccel'
p27
I2
sS'maxVel'
p28
F0.5
sS'age'
p29
I50
sS'tailSize'
p30
I0
sS'sexualgeno'
p31
NsS'tailBrigh'
p32
I0
sS'maxSteering'
p33
I30
sS'energy'
p34
F0.24825676022439966
sS'lastScale'
p35
F7.9825676022439964
sb.(i__main__
Data_mobile
p1
(dp2
S'vel_y'
p3
F-0.28330342344836318
sS'vel_x'
p4
F0.41199413862631273
sS'pos_x'
p5
F28.402861864041299
sS'pos_y'
p6
F28.999450324931843
sS'isAlive'
p7
I01
sS'cumulativeEnergy'
p8
F19.531245061703295
sS'geno'
p9
(lp10
(lp11
(lp12
(lp13
(lp14
S'POINT.+'
p15
aa(lp16
S'POINT.*'
p17
aaaS'POINT./'
p18
aS'POINT.*'
p19
aS'flee'
p20
aa(lp21
S'POINT.*'
p22
aaS'POINT.*'
p23
aS'flee'
p24
a(lp25
S'currentVelocity'
p26
aa(lp27
S'POINT.+'
p28
a(lp29
(lp30
S'POINT.+'
p31
aaaS'POINT.*'
p32
aS'POINT./'
p33
aaaS'POINT./'
p34
a(lp35
S'POINT.+'
p36
aS'POINT./'
p37
aS'target'
p38
aS'POINT.+'
p39
aa(lp40
S'POINT.*'
p41
aasS'accel_x'
p42
F0.82398827725262547
sS'accel_y'
p43
F-0.56660684689672636
sS'visionAngle'
p44
I150
sS'maxAccel'
p45
I2
sS'maxVel'
p46
F0.5
sS'age'
p47
I50
sS'tailSize'
p48
I0
sS'sexualgeno'
p49
NsS'tailBrigh'
p50
I0
sS'maxSteering'
p51
I30
sS'energy'
p52
F0.098256760224399817
sS'lastScale'
p53
F7.4825676022439982
sb.(i__main__
Data_mobile
p1
(dp2
S'vel_y'
p3
F0.24196497484969418
sS'vel_x'
p4
F-0.4375533692545252
sS'pos_x'
p5
F118.7205725660162
sS'pos_y'
p6
F26.22987561785445
sS'isAlive'
p7
I01
sS'cumulativeEnergy'
p8
F19.080013770441571
sS'geno'
p9
(lp10
(lp11
S'POINT.*'
p12
aaS'POINT./'
p13
a(lp14
S'POINT.*'
p15
aS'POINT.*'
p16
aS'target'
p17
aS'POINT.+'
p18
aaS'POINT.+'
p19
asS'accel_x'
p20
F-0.4375533692545252
sS'accel_y'
p21
F0.24196497484969418
sS'visionAngle'
p22
I150
sS'maxAccel'
p23
I2
sS'maxVel'
p24
F0.5
sS'age'
p25
I350
sS'tailSize'
p26
I0
sS'sexualgeno'
p27
NsS'tailBrigh'
p28
I0
sS'maxSteering'
p29
I30
sS'energy'
p30
F0.57000028258575863
sS'lastScale'
p31
F11.200002825857586
sb.(i__main__
Data_mobile
p1
(dp2
S'vel_y'
p3
F-0.32477237749337973
sS'vel_x'
p4
F-0.38016167983806265
sS'pos_x'
p5
F-164.39344936618997
sS'pos_y'
p6
F-34.868475458162401
sS'isAlive'
p7
I01
sS'cumulativeEnergy'
p8
F18.140056808068739
sS'geno'
p9
(lp10
(lp11
(lp12
S'currentVelocity'
p13
a(lp14
(lp15
(lp16
S'POINT.+'
p17
aaS'POINT.+'
p18
aaaS'POINT.*'
p19
aS'POINT./'
p20
aa(lp21
S'POINT.+'
p22
aS'currentVelocity'
p23
aS'target'
p24
aS'POINT.+'
p25
aa(lp26
S'target'
p27
a(lp28
S'POINT.*'
p29
aaaS'POINT.+'
p30
aaS'target'
p31
aS'POINT.*'
p32
aS'POINT.+'
p33
asS'accel_x'
p34
F1.0751380189320565
sS'accel_y'
p35
F0.21359816259578879
sS'visionAngle'
p36
I150
sS'maxAccel'
p37
I2
sS'maxVel'
p38
F0.5
sS'age'
p39
I300
sS'tailSize'
p40
I0
sS'sexualgeno'
p41
NsS'tailBrigh'
p42
I0
sS'maxSteering'
p43
I30
sS'energy'
p44
F0.079333891943771856
sS'lastScale'
p45
F6.6000125973221495
sb.(i__main__
Data_mobile
p1
(dp2
S'vel_y'
p3
F0.055998335559712932
sS'vel_x'
p4
F0.49685429092898237
sS'pos_x'
p5
F62.209401784228042
sS'pos_y'
p6
F51.127501886397503
sS'isAlive'
p7
I01
sS'cumulativeEnergy'
p8
F17.481245061703291
sS'geno'
p9
(lp10
S'POINT.+'
p11
aS'POINT.*'
p12
a(lp13
S'POINT.+'
p14
aS'currentEnergy'
p15
aS'target'
p16
aS'POINT.+'
p17
aaS'POINT.+'
p18
asS'accel_x'
p19
F1.1951110511533822
sS'accel_y'
p20
F0.75425509578411265
sS'visionAngle'
p21
I150
sS'maxAccel'
p22
I2
sS'maxVel'
p23
F0.5
sS'age'
p24
I50
sS'tailSize'
p25
I0
sS'sexualgeno'
p26
NsS'tailBrigh'
p27
I0
sS'maxSteering'
p28
I30
sS'energy'
p29
F0.69825676022439975
sS'lastScale'
p30
F12.482567602243996
sb.(i__main__
Data_mobile
p1
(dp2
S'vel_y'
p3
F-0.4913779008630853
sS'vel_x'
p4
F0.076630028601299222
sS'pos_x'
p5
F-91.615379636920792
sS'pos_y'
p6
F37.033154205346726
sS'isAlive'
p7
I01
sS'cumulativeEnergy'
p8
F13.281245061703293
sS'geno'
p9
(lp10
(lp11
(lp12
(lp13
(lp14
S'POINT.+'
p15
aa(lp16
S'POINT.*'
p17
aaaS'POINT./'
p18
aS'POINT.*'
p19
aS'flee'
p20
aaS'POINT.*'
p21
aS'POINT.*'
p22
aS'flee'
p23
a(lp24
S'currentVelocity'
p25
aa(lp26
S'currentVelocity'
p27
a(lp28
(lp29
S'POINT.+'
p30
aaaS'POINT.*'
p31
aS'POINT./'
p32
aaaS'POINT./'
p33
a(lp34
(lp35
S'POINT.*'
p36
aaS'POINT./'
p37
aS'target'
p38
a(lp39
S'POINT./'
p40
aaa(lp41
S'POINT.*'
p42
aasS'accel_x'
p43
F0.4639445890545062
sS'accel_y'
p44
F0.51181890661786866
sS'visionAngle'
p45
I150
sS'maxAccel'
p46
I2
sS'maxVel'
p47
F0.5
sS'age'
p48
I50
sS'tailSize'
p49
I0
sS'sexualgeno'
p50
NsS'tailBrigh'
p51
I0
sS'maxSteering'
p52
I30
sS'energy'
p53
F0.34825676022439972
sS'lastScale'
p54
F8.9825676022439982
sb.(i__main__
Data_mobile
p1
(dp2
S'vel_y'
p3
F0.45863726099687618
sS'vel_x'
p4
F0.19912775503501079
sS'pos_x'
p5
F61.369819961007224
sS'pos_y'
p6
F51.844129053322732
sS'isAlive'
p7
I01
sS'cumulativeEnergy'
p8
F12.681245061703294
sS'geno'
p9
(lp10
(lp11
(lp12
(lp13
(lp14
S'POINT.+'
p15
aa(lp16
S'POINT.*'
p17
aaaS'POINT./'
p18
aS'POINT.*'
p19
aS'flee'
p20
aaS'POINT.*'
p21
aS'POINT.*'
p22
aS'flee'
p23
a(lp24
S'currentVelocity'
p25
aaS'POINT.*'
p26
aaS'POINT./'
p27
a(lp28
(lp29
S'POINT.*'
p30
aaS'POINT./'
p31
aS'target'
p32
aS'POINT.+'
p33
aa(lp34
S'POINT.*'
p35
aasS'accel_x'
p36
F0.19912775503501079
sS'accel_y'
p37
F0.45863726099687618
sS'visionAngle'
p38
I150
sS'maxAccel'
p39
I2
sS'maxVel'
p40
F0.5
sS'age'
p41
I50
sS'tailSize'
p42
I0
sS'sexualgeno'
p43
NsS'tailBrigh'
p44
I0
sS'maxSteering'
p45
I30
sS'energy'
p46
F0.14825676022439971
sS'lastScale'
p47
F6.9825676022439973
sb.(i__main__
Data_mobile
p1
(dp2
S'vel_y'
p3
F0.38133398162326226
sS'vel_x'
p4
F-0.32339510580611686
sS'pos_x'
p5
F-30.197611913502101
sS'pos_y'
p6
F73.569434480127583
sS'isAlive'
p7
I01
sS'cumulativeEnergy'
p8
F12.281245061703295
sS'geno'
p9
(lp10
(lp11
(lp12
(lp13
S'POINT./'
p14
a(lp15
S'POINT.*'
p16
aaaS'POINT./'
p17
a(lp18
S'POINT./'
p19
aaS'flee'
p20
aaS'POINT.*'
p21
aS'randV'
p22
aS'flee'
p23
a(lp24
S'currentVelocity'
p25
aa(lp26
S'currentVelocity'
p27
a(lp28
(lp29
S'target'
p30
aaaS'POINT.*'
p31
aS'POINT./'
p32
aaaS'POINT.+'
p33
aS'POINT.+'
p34
a(lp35
S'POINT.+'
p36
aasS'accel_x'
p37
F-0.31860520606628651
sS'accel_y'
p38
F0.37568596221083417
sS'visionAngle'
p39
I150
sS'maxAccel'
p40
I2
sS'maxVel'
p41
F0.5
sS'age'
p42
I50
sS'tailSize'
p43
I0
sS'sexualgeno'
p44
NsS'tailBrigh'
p45
I0
sS'maxSteering'
p46
I30
sS'energy'
p47
F0.09825676022439972
sS'lastScale'
p48
F6.4825676022439982
sb.(i__main__
Data_mobile
p1
(dp2
S'vel_y'
p3
F-0.18580829784769062
sS'vel_x'
p4
F0.46419314563115199
sS'pos_x'
p5
F178.68673938880218
sS'pos_y'
p6
F-18.261854408698969
sS'isAlive'
p7
I01
sS'cumulativeEnergy'
p8
F12.231245061703294
sS'geno'
p9
(lp10
(lp11
S'currentVelocity'
p12
a(lp13
S'POINT./'
p14
aaS'POINT.*'
p15
aS'flee'
p16
aaS'POINT./'
p17
aS'target'
p18
aS'POINT.+'
p19
asS'accel_x'
p20
F0
sS'accel_y'
p21
F0
sS'visionAngle'
p22
I150
sS'maxAccel'
p23
I2
sS'maxVel'
p24
F0.5
sS'age'
p25
I50
sS'tailSize'
p26
I0
sS'sexualgeno'
p27
NsS'tailBrigh'
p28
I0
sS'maxSteering'
p29
I30
sS'energy'
p30
I0
sS'lastScale'
p31
F5.5
sb.(i__main__
Data_mobile
p1
(dp2
S'vel_y'
p3
F0.19992295231052096
sS'vel_x'
p4
F0.45829118815382552
sS'pos_x'
p5
F61.004596896767985
sS'pos_y'
p6
F51.503394854089393
sS'isAlive'
p7
I01
sS'cumulativeEnergy'
p8
F12.231245061703294
sS'geno'
p9
(lp10
(lp11
(lp12
(lp13
(lp14
S'POINT.+'
p15
aa(lp16
S'POINT.*'
p17
aaaS'POINT./'
p18
aS'POINT.*'
p19
aS'flee'
p20
aaS'POINT.*'
p21
aS'POINT.*'
p22
aS'flee'
p23
a(lp24
S'currentVelocity'
p25
aa(lp26
S'currentVelocity'
p27
a(lp28
(lp29
S'POINT./'
p30
aaaS'POINT.*'
p31
aS'POINT./'
p32
aaaS'POINT./'
p33
a(lp34
(lp35
S'POINT.+'
p36
aaS'POINT./'
p37
aS'target'
p38
aS'POINT.+'
p39
aa(lp40
S'POINT.*'
p41
aasS'accel_x'
p42
F0.91658237630765105
sS'accel_y'
p43
F0.39984590462104191
sS'visionAngle'
p44
I150
sS'maxAccel'
p45
I2
sS'maxVel'
p46
F0.5
sS'age'
p47
I50
sS'tailSize'
p48
I0
sS'sexualgeno'
p49
NsS'tailBrigh'
p50
I0
sS'maxSteering'
p51
I30
sS'energy'
p52
I0
sS'lastScale'
p53
F5.5
sb.(i__main__
Data_mobile
p1
(dp2
S'vel_y'
p3
F0.17301722861711111
sS'vel_x'
p4
F0.4691109022413083
sS'pos_x'
p5
F11.981948991536623
sS'pos_y'
p6
F50.155332329218993
sS'isAlive'
p7
I01
sS'cumulativeEnergy'
p8
F12.231245061703294
sS'geno'
p9
(lp10
S'POINT.*'
p11
asS'accel_x'
p12
F0.4691109022413083
sS'accel_y'
p13
F0.17301722861711111
sS'visionAngle'
p14
I150
sS'maxAccel'
p15
I2
sS'maxVel'
p16
F0.5
sS'age'
p17
I50
sS'tailSize'
p18
I0
sS'sexualgeno'
p19
NsS'tailBrigh'
p20
I0
sS'maxSteering'
p21
I30
sS'energy'
p22
I0
sS'lastScale'
p23
F5.5
sb.(i__main__
Data_mobile
p1
(dp2
S'vel_y'
p3
F-0.36408986903982804
sS'vel_x'
p4
F-0.34269310944715664
sS'pos_x'
p5
F-108.12489598362551
sS'pos_y'
p6
F-19.403533166335638
sS'isAlive'
p7
I01
sS'cumulativeEnergy'
p8
F12.231245061703294
sS'geno'
p9
(lp10
(lp11
(lp12
(lp13
(lp14
S'POINT.+'
p15
aa(lp16
S'POINT.*'
p17
aaaS'POINT./'
p18
aS'POINT.*'
p19
aS'flee'
p20
aa(lp21
S'POINT.*'
p22
aaS'POINT.*'
p23
aS'flee'
p24
a(lp25
S'currentVelocity'
p26
aa(lp27
S'currentVelocity'
p28
a(lp29
(lp30
S'POINT.+'
p31
aaaS'POINT.*'
p32
aS'POINT./'
p33
aaaS'POINT./'
p34
aS'POINT.*'
p35
a(lp36
S'POINT.*'
p37
aasS'accel_x'
p38
F-0.68538621889431328
sS'accel_y'
p39
F-0.72817973807965608
sS'visionAngle'
p40
I150
sS'maxAccel'
p41
I2
sS'maxVel'
p42
F0.5
sS'age'
p43
I50
sS'tailSize'
p44
I0
sS'sexualgeno'
p45
NsS'tailBrigh'
p46
I0
sS'maxSteering'
p47
I30
sS'energy'
p48
I0
sS'lastScale'
p49
F5.5
sb.(i__main__
Data_mobile
p1
(dp2
S'vel_y'
p3
F0.34964677725699739
sS'vel_x'
p4
F0.35741730673513228
sS'pos_x'
p5
F-27.328323643808574
sS'pos_y'
p6
F-20.908956878305879
sS'isAlive'
p7
I01
sS'cumulativeEnergy'
p8
F12.231245061703294
sS'geno'
p9
(lp10
(lp11
S'currentVelocity'
p12
a(lp13
S'POINT./'
p14
aaS'POINT.*'
p15
a(lp16
S'target'
p17
aaaS'POINT./'
p18
aS'target'
p19
aS'currentVelocity'
p20
asS'accel_x'
p21
F0.35741730673513228
sS'accel_y'
p22
F0.34964677725699739
sS'visionAngle'
p23
I150
sS'maxAccel'
p24
I2
sS'maxVel'
p25
F0.5
sS'age'
p26
I50
sS'tailSize'
p27
I0
sS'sexualgeno'
p28
NsS'tailBrigh'
p29
I0
sS'maxSteering'
p30
I30
sS'energy'
p31
I0
sS'lastScale'
p32
F5.5
sb.(i__main__
Data_mobile
p1
(dp2
S'vel_y'
p3
F0.36092906754414378
sS'vel_x'
p4
F0.34602053147423911
sS'pos_x'
p5
F118.02953453731011
sS'pos_y'
p6
F64.905703087298392
sS'isAlive'
p7
I01
sS'cumulativeEnergy'
p8
F12.231245061703294
sS'geno'
p9
(lp10
(lp11
(lp12
(lp13
S'POINT./'
p14
a(lp15
S'POINT.*'
p16
aaaS'POINT./'
p17
aS'POINT.*'
p18
aS'flee'
p19
aaS'POINT.*'
p20
aS'randV'
p21
aS'flee'
p22
a(lp23
S'currentVelocity'
p24
aa(lp25
S'currentVelocity'
p26
a(lp27
(lp28
S'randV'
p29
aaaS'POINT.*'
p30
aS'POINT./'
p31
aaaS'POINT./'
p32
aS'currentVelocity'
p33
a(lp34
S'POINT.+'
p35
aasS'accel_x'
p36
F0.91549492214945383
sS'accel_y'
p37
F1.7781645164378252
sS'visionAngle'
p38
I150
sS'maxAccel'
p39
I2
sS'maxVel'
p40
F0.5
sS'age'
p41
I50
sS'tailSize'
p42
I0
sS'sexualgeno'
p43
NsS'tailBrigh'
p44
I0
sS'maxSteering'
p45
I30
sS'energy'
p46
I0
sS'lastScale'
p47
F5.5
sb.(i__main__
Data_mobile
p1
(dp2
S'vel_y'
p3
F0.077513465311579835
sS'vel_x'
p4
F0.38124231461675101
sS'pos_x'
p5
F-97.564345660773967
sS'pos_y'
p6
F72.079266254933756
sS'isAlive'
p7
I01
sS'cumulativeEnergy'
p8
F12.231245061703294
sS'geno'
p9
(lp10
(lp11
(lp12
S'currentVelocity'
p13
a(lp14
(lp15
(lp16
S'POINT.+'
p17
aaS'POINT.+'
p18
aaaS'POINT.*'
p19
a(lp20
S'currentVelocity'
p21
aaaS'POINT./'
p22
a(lp23
S'target'
p24
a(lp25
S'POINT.*'
p26
aaaS'POINT.+'
p27
aa(lp28
S'POINT.+'
p29
aS'POINT.*'
p30
aS'target'
p31
aS'POINT.*'
p32
aaS'POINT.*'
p33
aS'POINT./'
p34
asS'accel_x'
p35
F0
sS'accel_y'
p36
F0
sS'visionAngle'
p37
I150
sS'maxAccel'
p38
I2
sS'maxVel'
p39
F0.5
sS'age'
p40
I50
sS'tailSize'
p41
I0
sS'sexualgeno'
p42
NsS'tailBrigh'
p43
I0
sS'maxSteering'
p44
I30
sS'energy'
p45
I0
sS'lastScale'
p46
F5.5
sb.(i__main__
Data_mobile
p1
(dp2
S'vel_y'
p3
F-0.25549806323920954
sS'vel_x'
p4
F0.42979150722299392
sS'pos_x'
p5
F185.16800180123067
sS'pos_y'
p6
F-24.489371664803642
sS'isAlive'
p7
I01
sS'cumulativeEnergy'
p8
F12.231245061703294
sS'geno'
p9
(lp10
(lp11
(lp12
(lp13
(lp14
S'POINT.+'
p15
aa(lp16
S'POINT.*'
p17
aaaS'POINT.+'
p18
aS'POINT.*'
p19
aS'flee'
p20
aaS'POINT./'
p21
aS'randV'
p22
aS'flee'
p23
a(lp24
S'currentVelocity'
p25
aa(lp26
S'currentVelocity'
p27
a(lp28
S'POINT./'
p29
aa(lp30
S'flee'
p31
aaS'POINT./'
p32
aaaS'POINT./'
p33
a(lp34
S'POINT.+'
p35
aS'POINT.*'
p36
aS'target'
p37
aS'POINT.+'
p38
aa(lp39
S'POINT.*'
p40
aasS'accel_x'
p41
F0.42979150722299392
sS'accel_y'
p42
F-0.25549806323920954
sS'visionAngle'
p43
I150
sS'maxAccel'
p44
I2
sS'maxVel'
p45
F0.5
sS'age'
p46
I50
sS'tailSize'
p47
I0
sS'sexualgeno'
p48
NsS'tailBrigh'
p49
I0
sS'maxSteering'
p50
I30
sS'energy'
p51
I0
sS'lastScale'
p52
F5.5
sb.(i__main__
Data_mobile
p1
(dp2
S'vel_y'
p3
F-0.45924626077659003
sS'vel_x'
p4
F-0.18007276419801121
sS'pos_x'
p5
F-46.976176091820946
sS'pos_y'
p6
F15.288449183255509
sS'isAlive'
p7
I01
sS'cumulativeEnergy'
p8
F0.5
sS'geno'
p9
(lp10
(lp11
(lp12
S'POINT.*'
p13
aS'POINT.*'
p14
aS'target'
p15
aS'POINT.+'
p16
aaaS'POINT./'
p17
a(lp18
S'POINT.+'
p19
aS'POINT.*'
p20
aS'target'
p21
aS'POINT.+'
p22
aaS'POINT.+'
p23
asS'accel_x'
p24
F0
sS'accel_y'
p25
F0
sS'visionAngle'
p26
I150
sS'maxAccel'
p27
I2
sS'maxVel'
p28
F0.5
sS'age'
p29
I0
sS'tailSize'
p30
I0
sS'sexualgeno'
p31
NsS'tailBrigh'
p32
I0
sS'maxSteering'
p33
I30
sS'energy'
p34
F0.5
sS'lastScale'
p35
F5.5
sb.(i__main__
Data_mobile
p1
(dp2
S'vel_y'
p3
F0.11482165353228728
sS'vel_x'
p4
F-0.13544005974559811
sS'pos_x'
p5
F5.2563618032384163
sS'pos_y'
p6
F29.094410932875295
sS'isAlive'
p7
I01
sS'cumulativeEnergy'
p8
F0.5
sS'geno'
p9
(lp10
(lp11
S'POINT.+'
p12
aaS'POINT./'
p13
aS'target'
p14
aS'POINT.+'
p15
asS'accel_x'
p16
F0
sS'accel_y'
p17
F0
sS'visionAngle'
p18
I150
sS'maxAccel'
p19
I2
sS'maxVel'
p20
F0.5
sS'age'
p21
I0
sS'tailSize'
p22
I0
sS'sexualgeno'
p23
NsS'tailBrigh'
p24
I0
sS'maxSteering'
p25
I30
sS'energy'
p26
F0.5
sS'lastScale'
p27
F5.5
sb.(i__main__
Data_mobile
p1
(dp2
S'vel_y'
p3
F-0.44535494318639368
sS'vel_x'
p4
F-0.21136608621336836
sS'pos_x'
p5
F-65.188176975416866
sS'pos_y'
p6
F23.842680120573341
sS'isAlive'
p7
I01
sS'cumulativeEnergy'
p8
F0.5
sS'geno'
p9
(lp10
(lp11
S'currentVelocity'
p12
a(lp13
(lp14
(lp15
S'POINT.+'
p16
aaS'POINT.+'
p17
aaaS'POINT.*'
p18
a(lp19
S'currentEnergy'
p20
aaaS'POINT./'
p21
a(lp22
S'target'
p23
a(lp24
S'POINT.*'
p25
aaaS'POINT.+'
p26
asS'accel_x'
p27
F0
sS'accel_y'
p28
F0
sS'visionAngle'
p29
I150
sS'maxAccel'
p30
I2
sS'maxVel'
p31
F0.5
sS'age'
p32
I0
sS'tailSize'
p33
I0
sS'sexualgeno'
p34
NsS'tailBrigh'
p35
I0
sS'maxSteering'
p36
I30
sS'energy'
p37
F0.5
sS'lastScale'
p38
F5.5
sb.(i__main__
Data_mobile
p1
(dp2
S'vel_y'
p3
F0.35845438529205204
sS'vel_x'
p4
F0.082394555208812309
sS'pos_x'
p5
F55.307604674054517
sS'pos_y'
p6
F49.554858959540667
sS'isAlive'
p7
I01
sS'cumulativeEnergy'
p8
F0.5
sS'geno'
p9
(lp10
(lp11
S'POINT.*'
p12
aaS'POINT./'
p13
a(lp14
S'target'
p15
aS'POINT.*'
p16
aS'target'
p17
aS'POINT.+'
p18
aaS'POINT.+'
p19
asS'accel_x'
p20
F0
sS'accel_y'
p21
F0
sS'visionAngle'
p22
I150
sS'maxAccel'
p23
I2
sS'maxVel'
p24
F0.5
sS'age'
p25
I0
sS'tailSize'
p26
I0
sS'sexualgeno'
p27
NsS'tailBrigh'
p28
I0
sS'maxSteering'
p29
I30
sS'energy'
p30
F0.5
sS'lastScale'
p31
F5.5
sb.(i__main__
Data_mobile
p1
(dp2
S'vel_y'
p3
F-0.36651502108771244
sS'vel_x'
p4
F0.33706536872690651
sS'pos_x'
p5
F122.3407826444848
sS'pos_y'
p6
F25.42825413265922
sS'isAlive'
p7
I01
sS'cumulativeEnergy'
p8
F0.5
sS'geno'
p9
(lp10
(lp11
S'currentVelocity'
p12
a(lp13
(lp14
(lp15
S'POINT.+'
p16
aaS'POINT.+'
p17
aaaS'POINT.*'
p18
a(lp19
S'POINT.+'
p20
aaaS'POINT.*'
p21
aS'target'
p22
aS'POINT.+'
p23
asS'accel_x'
p24
F0
sS'accel_y'
p25
F0
sS'visionAngle'
p26
I150
sS'maxAccel'
p27
I2
sS'maxVel'
p28
F0.5
sS'age'
p29
I0
sS'tailSize'
p30
I0
sS'sexualgeno'
p31
NsS'tailBrigh'
p32
I0
sS'maxSteering'
p33
I30
sS'energy'
p34
F0.5
sS'lastScale'
p35
F5.5
sb.(i__main__
Data_mobile
p1
(dp2
S'vel_y'
p3
F0.41969883719970258
sS'vel_x'
p4
F0.12147347969470099
sS'pos_x'
p5
F44.484952169530679
sS'pos_y'
p6
F-1.2229067941485425
sS'isAlive'
p7
I01
sS'cumulativeEnergy'
p8
F0.5
sS'geno'
p9
(lp10
(lp11
(lp12
S'POINT.-'
p13
aaS'currentVelocity'
p14
a(lp15
S'flee'
p16
aS'POINT.+'
p17
aa(lp18
(lp19
(lp20
S'currentVelocity'
p21
a(lp22
(lp23
S'POINT.*'
p24
aaaS'POINT.*'
p25
aS'POINT.+'
p26
aaS'POINT./'
p27
aS'target'
p28
a(lp29
(lp30
S'POINT.-'
p31
aaS'currentVelocity'
p32
a(lp33
S'POINT.+'
p34
aS'POINT.+'
p35
aa(lp36
S'POINT.+'
p37
aaaaaaS'POINT./'
p38
aS'target'
p39
aS'POINT.+'
p40
asS'accel_x'
p41
F0
sS'accel_y'
p42
F0
sS'visionAngle'
p43
I150
sS'maxAccel'
p44
I2
sS'maxVel'
p45
F0.5
sS'age'
p46
I0
sS'tailSize'
p47
I0
sS'sexualgeno'
p48
NsS'tailBrigh'
p49
I0
sS'maxSteering'
p50
I30
sS'energy'
p51
F0.5
sS'lastScale'
p52
F5.5
sb.(i__main__
Data_mobile
p1
(dp2
S'vel_y'
p3
F0.42380407247572038
sS'vel_x'
p4
F-0.079129014524900176
sS'pos_x'
p5
F-89.013800685272315
sS'pos_y'
p6
F-0.6106840929056947
sS'isAlive'
p7
I01
sS'cumulativeEnergy'
p8
F0.5
sS'geno'
p9
(lp10
(lp11
(lp12
(lp13
(lp14
S'POINT.*'
p15
aa(lp16
S'POINT.*'
p17
aaaS'POINT./'
p18
aS'POINT.*'
p19
aS'flee'
p20
aaS'POINT.*'
p21
aS'randV'
p22
aS'flee'
p23
aS'POINT.*'
p24
a(lp25
S'currentVelocity'
p26
a(lp27
S'POINT./'
p28
aa(lp29
S'flee'
p30
aaS'POINT./'
p31
aaaS'POINT./'
p32
a(lp33
S'POINT.+'
p34
aS'POINT.*'
p35
aS'target'
p36
aS'POINT.+'
p37
aa(lp38
S'POINT.*'
p39
aasS'accel_x'
p40
F0
sS'accel_y'
p41
F0
sS'visionAngle'
p42
I150
sS'maxAccel'
p43
I2
sS'maxVel'
p44
F0.5
sS'age'
p45
I0
sS'tailSize'
p46
I0
sS'sexualgeno'
p47
NsS'tailBrigh'
p48
I0
sS'maxSteering'
p49
I30
sS'energy'
p50
F0.5
sS'lastScale'
p51
F5.5
sb.(i__main__
Data_mobile
p1
(dp2
S'vel_y'
p3
F-0.050985546279144131
sS'vel_x'
p4
F-0.35758066196048072
sS'pos_x'
p5
F-12.060750395069583
sS'pos_y'
p6
F-54.874463046009801
sS'isAlive'
p7
I01
sS'cumulativeEnergy'
p8
F0.5
sS'geno'
p9
(lp10
(lp11
(lp12
S'POINT.*'
p13
aS'POINT.*'
p14
aS'target'
p15
aS'POINT.+'
p16
aaaS'POINT./'
p17
a(lp18
S'POINT.+'
p19
aS'POINT.*'
p20
aS'target'
p21
aS'target'
p22
aaS'POINT.+'
p23
asS'accel_x'
p24
F0
sS'accel_y'
p25
F0
sS'visionAngle'
p26
I150
sS'maxAccel'
p27
I2
sS'maxVel'
p28
F0.5
sS'age'
p29
I0
sS'tailSize'
p30
I0
sS'sexualgeno'
p31
NsS'tailBrigh'
p32
I0
sS'maxSteering'
p33
I30
sS'energy'
p34
F0.5
sS'lastScale'
p35
F5.5
sb.(i__main__
Data_mobile
p1
(dp2
S'vel_y'
p3
F0.022737890215810436
sS'vel_x'
p4
F-0.25075596516787563
sS'pos_x'
p5
F92.36607941409298
sS'pos_y'
p6
F66.474733748666097
sS'isAlive'
p7
I01
sS'cumulativeEnergy'
p8
F0.5
sS'geno'
p9
(lp10
(lp11
S'currentVelocity'
p12
a(lp13
(lp14
S'POINT.*'
p15
aaaS'POINT.-'
p16
aS'POINT.+'
p17
aaS'POINT./'
p18
aS'target'
p19
aS'POINT.+'
p20
asS'accel_x'
p21
F0
sS'accel_y'
p22
F0
sS'visionAngle'
p23
I150
sS'maxAccel'
p24
I2
sS'maxVel'
p25
F0.5
sS'age'
p26
I0
sS'tailSize'
p27
I0
sS'sexualgeno'
p28
NsS'tailBrigh'
p29
I0
sS'maxSteering'
p30
I30
sS'energy'
p31
F0.5
sS'lastScale'
p32
F5.5
sb.(i__main__
Data_mobile
p1
(dp2
S'vel_y'
p3
F0.45593856570364255
sS'vel_x'
p4
F0.19000799175023136
sS'pos_x'
p5
F74.659626564743036
sS'pos_y'
p6
F67.804204491352976
sS'isAlive'
p7
I01
sS'cumulativeEnergy'
p8
F0.5
sS'geno'
p9
(lp10
(lp11
S'currentVelocity'
p12
a(lp13
(lp14
(lp15
S'POINT.+'
p16
aaS'POINT.+'
p17
aaaS'POINT.*'
p18
a(lp19
S'POINT.+'
p20
aaaS'POINT.*'
p21
aS'target'
p22
aS'POINT.+'
p23
asS'accel_x'
p24
F0
sS'accel_y'
p25
F0
sS'visionAngle'
p26
I150
sS'maxAccel'
p27
I2
sS'maxVel'
p28
F0.5
sS'age'
p29
I0
sS'tailSize'
p30
I0
sS'sexualgeno'
p31
NsS'tailBrigh'
p32
I0
sS'maxSteering'
p33
I30
sS'energy'
p34
F0.5
sS'lastScale'
p35
F5.5
sb.(i__main__
Data_mobile
p1
(dp2
S'vel_y'
p3
F-0.10704783602600823
sS'vel_x'
p4
F-0.29972971392494796
sS'pos_x'
p5
F59.959665905627311
sS'pos_y'
p6
F77.780241769803808
sS'isAlive'
p7
I01
sS'cumulativeEnergy'
p8
F0.5
sS'geno'
p9
(lp10
(lp11
(lp12
(lp13
S'target'
p14
a(lp15
S'POINT.*'
p16
aaaS'POINT./'
p17
aS'POINT.*'
p18
aS'flee'
p19
aaS'POINT.*'
p20
aS'randV'
p21
aS'flee'
p22
a(lp23
S'currentVelocity'
p24
aa(lp25
S'currentVelocity'
p26
a(lp27
S'POINT.*'
p28
aaS'POINT.*'
p29
aS'POINT./'
p30
aaaS'POINT./'
p31
aS'currentVelocity'
p32
a(lp33
S'POINT.+'
p34
aasS'accel_x'
p35
F0
sS'accel_y'
p36
F0
sS'visionAngle'
p37
I150
sS'maxAccel'
p38
I2
sS'maxVel'
p39
F0.5
sS'age'
p40
I0
sS'tailSize'
p41
I0
sS'sexualgeno'
p42
NsS'tailBrigh'
p43
I0
sS'maxSteering'
p44
I30
sS'energy'
p45
F0.5
sS'lastScale'
p46
F5.5
sb.(i__main__
Data_mobile
p1
(dp2
S'vel_y'
p3
F-0.20788349783647328
sS'vel_x'
p4
F-0.02420344751077852
sS'pos_x'
p5
F-41.245278539474064
sS'pos_y'
p6
F-1.7771438935922257
sS'isAlive'
p7
I01
sS'cumulativeEnergy'
p8
F0.5
sS'geno'
p9
(lp10
(lp11
(lp12
(lp13
S'POINT./'
p14
a(lp15
S'POINT.*'
p16
aaaS'POINT./'
p17
aS'POINT.*'
p18
aS'flee'
p19
aaS'POINT.*'
p20
aS'POINT.*'
p21
aS'flee'
p22
a(lp23
S'currentVelocity'
p24
aa(lp25
S'currentVelocity'
p26
a(lp27
(lp28
S'POINT.+'
p29
aaaS'POINT.*'
p30
aS'POINT./'
p31
aaaS'POINT./'
p32
a(lp33
(lp34
S'POINT.*'
p35
aaS'POINT./'
p36
aS'target'
p37
aS'POINT.+'
p38
aa(lp39
S'POINT.*'
p40
aasS'accel_x'
p41
F0
sS'accel_y'
p42
F0
sS'visionAngle'
p43
I150
sS'maxAccel'
p44
I2
sS'maxVel'
p45
F0.5
sS'age'
p46
I0
sS'tailSize'
p47
I0
sS'sexualgeno'
p48
NsS'tailBrigh'
p49
I0
sS'maxSteering'
p50
I30
sS'energy'
p51
F0.5
sS'lastScale'
p52
F5.5
sb.(i__main__
Data_mobile
p1
(dp2
S'vel_y'
p3
F0.31679144683787619
sS'vel_x'
p4
F-0.11584988197999802
sS'pos_x'
p5
F-31.716602765039227
sS'pos_y'
p6
F15.472960558266292
sS'isAlive'
p7
I01
sS'cumulativeEnergy'
p8
F0.5
sS'geno'
p9
(lp10
(lp11
S'currentVelocity'
p12
a(lp13
(lp14
(lp15
S'POINT.+'
p16
aa(lp17
S'POINT.*'
p18
aaaaS'POINT.*'
p19
aS'alignment'
p20
aaS'POINT./'
p21
aS'target'
p22
aS'POINT.+'
p23
asS'accel_x'
p24
F0
sS'accel_y'
p25
F0
sS'visionAngle'
p26
I150
sS'maxAccel'
p27
I2
sS'maxVel'
p28
F0.5
sS'age'
p29
I0
sS'tailSize'
p30
I0
sS'sexualgeno'
p31
NsS'tailBrigh'
p32
I0
sS'maxSteering'
p33
I30
sS'energy'
p34
F0.5
sS'lastScale'
p35
F5.5
sb.(i__main__
Data_mobile
p1
(dp2
S'vel_y'
p3
F-0.45296845113607492
sS'vel_x'
p4
F0.092812111558509047
sS'pos_x'
p5
F39.984940778963406
sS'pos_y'
p6
F-13.908857082589618
sS'isAlive'
p7
I01
sS'cumulativeEnergy'
p8
F0.5
sS'geno'
p9
(lp10
(lp11
S'currentVelocity'
p12
a(lp13
(lp14
(lp15
S'POINT./'
p16
a(lp17
S'POINT.*'
p18
aaaS'POINT./'
p19
aS'POINT.*'
p20
aS'flee'
p21
aaaS'POINT.*'
p22
a(lp23
S'POINT.+'
p24
aaaS'POINT./'
p25
aS'target'
p26
aS'POINT.+'
p27
asS'accel_x'
p28
F0
sS'accel_y'
p29
F0
sS'visionAngle'
p30
I150
sS'maxAccel'
p31
I2
sS'maxVel'
p32
F0.5
sS'age'
p33
I0
sS'tailSize'
p34
I0
sS'sexualgeno'
p35
NsS'tailBrigh'
p36
I0
sS'maxSteering'
p37
I30
sS'energy'
p38
F0.5
sS'lastScale'
p39
F5.5
sb.(i__main__
Data_mobile
p1
(dp2
S'vel_y'
p3
F0.37127700360581606
sS'vel_x'
p4
F0.32580087496797527
sS'pos_x'
p5
F-25.950568981076668
sS'pos_y'
p6
F17.383363383120063
sS'isAlive'
p7
I01
sS'cumulativeEnergy'
p8
F0.5
sS'geno'
p9
(lp10
(lp11
S'currentVelocity'
p12
a(lp13
S'POINT./'
p14
aaS'POINT.*'
p15
aS'POINT.*'
p16
aaS'POINT./'
p17
aS'POINT.+'
p18
aS'POINT.+'
p19
asS'accel_x'
p20
F0
sS'accel_y'
p21
F0
sS'visionAngle'
p22
I150
sS'maxAccel'
p23
I2
sS'maxVel'
p24
F0.5
sS'age'
p25
I0
sS'tailSize'
p26
I0
sS'sexualgeno'
p27
NsS'tailBrigh'
p28
I0
sS'maxSteering'
p29
I30
sS'energy'
p30
F0.5
sS'lastScale'
p31
F5.5
sb.(i__main__
Data_mobile
p1
(dp2
S'vel_y'
p3
F0.394036049761468
sS'vel_x'
p4
F0.1936952839164173
sS'pos_x'
p5
F38.629598018933613
sS'pos_y'
p6
F-0.86035454906236697
sS'isAlive'
p7
I01
sS'cumulativeEnergy'
p8
F0.5
sS'geno'
p9
(lp10
(lp11
(lp12
S'POINT.-'
p13
aaS'currentVelocity'
p14
a(lp15
(lp16
(lp17
(lp18
S'currentVelocity'
p19
a(lp20
(lp21
S'POINT.*'
p22
aaaS'POINT.*'
p23
aS'POINT.+'
p24
aaS'POINT./'
p25
aS'target'
p26
aS'POINT.+'
p27
aaaS'POINT.+'
p28
aa(lp29
S'POINT.+'
p30
aaaS'POINT./'
p31
aS'target'
p32
aS'POINT.+'
p33
asS'accel_x'
p34
F0
sS'accel_y'
p35
F0
sS'visionAngle'
p36
I150
sS'maxAccel'
p37
I2
sS'maxVel'
p38
F0.5
sS'age'
p39
I0
sS'tailSize'
p40
I0
sS'sexualgeno'
p41
NsS'tailBrigh'
p42
I0
sS'maxSteering'
p43
I30
sS'energy'
p44
F0.5
sS'lastScale'
p45
F5.5
sb.(i__main__
Data_mobile
p1
(dp2
S'vel_y'
p3
F0.1381531615006831
sS'vel_x'
p4
F0.068747058439139419
sS'pos_x'
p5
F-45.773423204280121
sS'pos_y'
p6
F59.674131255066712
sS'isAlive'
p7
I01
sS'cumulativeEnergy'
p8
F0.5
sS'geno'
p9
(lp10
S'POINT.+'
p11
a(lp12
S'target'
p13
aS'POINT.+'
p14
aaS'flee'
p15
aS'POINT.+'
p16
asS'accel_x'
p17
F0
sS'accel_y'
p18
F0
sS'visionAngle'
p19
I150
sS'maxAccel'
p20
I2
sS'maxVel'
p21
F0.5
sS'age'
p22
I0
sS'tailSize'
p23
I0
sS'sexualgeno'
p24
NsS'tailBrigh'
p25
I0
sS'maxSteering'
p26
I30
sS'energy'
p27
F0.5
sS'lastScale'
p28
F5.5
sb.(i__main__
Data_mobile
p1
(dp2
S'vel_y'
p3
F-0.096800291216580639
sS'vel_x'
p4
F0.29674458094760547
sS'pos_x'
p5
F-89.160078810843927
sS'pos_y'
p6
F4.9737238245393378
sS'isAlive'
p7
I01
sS'cumulativeEnergy'
p8
F0.5
sS'geno'
p9
(lp10
(lp11
S'currentVelocity'
p12
a(lp13
S'POINT./'
p14
aaS'cohesion'
p15
aS'POINT./'
p16
aaS'POINT./'
p17
a(lp18
S'POINT.+'
p19
aS'POINT.*'
p20
aS'target'
p21
aS'POINT.*'
p22
aa(lp23
S'POINT.*'
p24
aasS'accel_x'
p25
F0
sS'accel_y'
p26
F0
sS'visionAngle'
p27
I150
sS'maxAccel'
p28
I2
sS'maxVel'
p29
F0.5
sS'age'
p30
I0
sS'tailSize'
p31
I0
sS'sexualgeno'
p32
NsS'tailBrigh'
p33
I0
sS'maxSteering'
p34
I30
sS'energy'
p35
F0.5
sS'lastScale'
p36
F5.5
sb.(i__main__
Data_mobile
p1
(dp2
S'vel_y'
p3
F0.25744408314180672
sS'vel_x'
p4
F-0.13556969114164663
sS'pos_x'
p5
F-128.49387843561112
sS'pos_y'
p6
F63.240262617321527
sS'isAlive'
p7
I01
sS'cumulativeEnergy'
p8
F0.5
sS'geno'
p9
(lp10
(lp11
(lp12
(lp13
(lp14
S'currentVelocity'
p15
aa(lp16
S'POINT.*'
p17
aaaS'POINT./'
p18
aS'POINT.*'
p19
aS'flee'
p20
aaS'POINT.*'
p21
aS'randV'
p22
aS'flee'
p23
a(lp24
S'currentVelocity'
p25
aa(lp26
S'currentVelocity'
p27
a(lp28
S'POINT./'
p29
aa(lp30
S'POINT.*'
p31
aaS'POINT./'
p32
aaaS'POINT./'
p33
a(lp34
S'POINT.+'
p35
aS'POINT.*'
p36
aS'target'
p37
aS'POINT.+'
p38
aa(lp39
S'POINT./'
p40
aasS'accel_x'
p41
F0
sS'accel_y'
p42
F0
sS'visionAngle'
p43
I150
sS'maxAccel'
p44
I2
sS'maxVel'
p45
F0.5
sS'age'
p46
I0
sS'tailSize'
p47
I0
sS'sexualgeno'
p48
NsS'tailBrigh'
p49
I0
sS'maxSteering'
p50
I30
sS'energy'
p51
F0.5
sS'lastScale'
p52
F5.5
sb.(i__main__
Data_mobile
p1
(dp2
S'vel_y'
p3
F-0.47554031242911909
sS'vel_x'
p4
F-0.11761319732558956
sS'pos_x'
p5
F82.305633619553078
sS'pos_y'
p6
F40.451291702563623
sS'isAlive'
p7
I01
sS'cumulativeEnergy'
p8
F0.5
sS'geno'
p9
(lp10
(lp11
S'POINT.*'
p12
aS'POINT.*'
p13
aS'target'
p14
aS'POINT.+'
p15
aaS'POINT./'
p16
aS'target'
p17
aS'POINT.+'
p18
asS'accel_x'
p19
F0
sS'accel_y'
p20
F0
sS'visionAngle'
p21
I150
sS'maxAccel'
p22
I2
sS'maxVel'
p23
F0.5
sS'age'
p24
I0
sS'tailSize'
p25
I0
sS'sexualgeno'
p26
NsS'tailBrigh'
p27
I0
sS'maxSteering'
p28
I30
sS'energy'
p29
F0.5
sS'lastScale'
p30
F5.5
sb.(i__main__
Data_mobile
p1
(dp2
S'vel_y'
p3
F0.28729866158929018
sS'vel_x'
p4
F0.40509284670895718
sS'pos_x'
p5
F1.5602967505121264
sS'pos_y'
p6
F27.900091704308814
sS'isAlive'
p7
I01
sS'cumulativeEnergy'
p8
F0.5
sS'geno'
p9
(lp10
(lp11
S'currentVelocity'
p12
a(lp13
(lp14
(lp15
S'POINT.+'
p16
aa(lp17
(lp18
S'POINT./'
p19
aaaaaS'POINT.*'
p20
a(lp21
S'POINT.+'
p22
aaaS'POINT./'
p23
aS'target'
p24
aS'POINT.+'
p25
asS'accel_x'
p26
F0
sS'accel_y'
p27
F0
sS'visionAngle'
p28
I150
sS'maxAccel'
p29
I2
sS'maxVel'
p30
F0.5
sS'age'
p31
I0
sS'tailSize'
p32
I0
sS'sexualgeno'
p33
NsS'tailBrigh'
p34
I0
sS'maxSteering'
p35
I30
sS'energy'
p36
F0.5
sS'lastScale'
p37
F5.5
sb.(i__main__
Data_mobile
p1
(dp2
S'vel_y'
p3
F0.39949326336703533
sS'vel_x'
p4
F-0.0078525574285555622
sS'pos_x'
p5
F-0.2256110775784137
sS'pos_y'
p6
F23.703270228564193
sS'isAlive'
p7
I01
sS'cumulativeEnergy'
p8
F0.5
sS'geno'
p9
(lp10
(lp11
S'currentVelocity'
p12
aS'POINT.+'
p13
aS'POINT.*'
p14
a(lp15
S'POINT./'
p16
aaaS'POINT./'
p17
aS'target'
p18
aS'POINT.+'
p19
asS'accel_x'
p20
F0
sS'accel_y'
p21
F0
sS'visionAngle'
p22
I150
sS'maxAccel'
p23
I2
sS'maxVel'
p24
F0.5
sS'age'
p25
I0
sS'tailSize'
p26
I0
sS'sexualgeno'
p27
NsS'tailBrigh'
p28
I0
sS'maxSteering'
p29
I30
sS'energy'
p30
F0.5
sS'lastScale'
p31
F5.5
sb.(i__main__
Data_mobile
p1
(dp2
S'vel_y'
p3
F0.46675941701721996
sS'vel_x'
p4
F0.17423151162601794
sS'pos_x'
p5
F-107.1252893174436
sS'pos_y'
p6
F-76.986004893215394
sS'isAlive'
p7
I01
sS'cumulativeEnergy'
p8
F0.5
sS'geno'
p9
(lp10
(lp11
(lp12
S'currentVelocity'
p13
a(lp14
(lp15
(lp16
S'POINT.+'
p17
aaS'POINT.+'
p18
aaaS'POINT.*'
p19
aS'POINT./'
p20
aa(lp21
S'POINT.+'
p22
aS'currentVelocity'
p23
a(lp24
S'currentVelocity'
p25
a(lp26
(lp27
S'target'
p28
aaaS'POINT.*'
p29
aS'POINT./'
p30
aaS'POINT.+'
p31
aa(lp32
S'target'
p33
a(lp34
S'POINT.*'
p35
aaaS'POINT.+'
p36
aaS'target'
p37
aS'POINT.*'
p38
aS'POINT.+'
p39
asS'accel_x'
p40
F0
sS'accel_y'
p41
F0
sS'visionAngle'
p42
I150
sS'maxAccel'
p43
I2
sS'maxVel'
p44
F0.5
sS'age'
p45
I0
sS'tailSize'
p46
I0
sS'sexualgeno'
p47
NsS'tailBrigh'
p48
I0
sS'maxSteering'
p49
I30
sS'energy'
p50
F0.5
sS'lastScale'
p51
F5.5
sb.(i__main__
Data_mobile
p1
(dp2
S'vel_y'
p3
F-0.040668170866079593
sS'vel_x'
p4
F-0.36780202162958442
sS'pos_x'
p5
F-5.1337654160486359
sS'pos_y'
p6
F25.155746202806348
sS'isAlive'
p7
I01
sS'cumulativeEnergy'
p8
F0.5
sS'geno'
p9
(lp10
(lp11
S'currentVelocity'
p12
a(lp13
(lp14
S'POINT.+'
p15
aa(lp16
S'POINT.*'
p17
aaaS'POINT.*'
p18
a(lp19
S'POINT.+'
p20
aaaS'POINT./'
p21
aS'target'
p22
aS'POINT.+'
p23
asS'accel_x'
p24
F0
sS'accel_y'
p25
F0
sS'visionAngle'
p26
I150
sS'maxAccel'
p27
I2
sS'maxVel'
p28
F0.5
sS'age'
p29
I0
sS'tailSize'
p30
I0
sS'sexualgeno'
p31
NsS'tailBrigh'
p32
I0
sS'maxSteering'
p33
I30
sS'energy'
p34
F0.5
sS'lastScale'
p35
F5.5
sb.(i__main__
Data_mobile
p1
(dp2
S'vel_y'
p3
F0.455717654877836
sS'vel_x'
p4
F0.11422341372301012
sS'pos_x'
p5
F77.849672783366728
sS'pos_y'
p6
F51.751613281396146
sS'isAlive'
p7
I01
sS'cumulativeEnergy'
p8
F0.5
sS'geno'
p9
(lp10
S'POINT.*'
p11
aS'POINT./'
p12
aS'POINT.*'
p13
aS'POINT.+'
p14
asS'accel_x'
p15
F0
sS'accel_y'
p16
F0
sS'visionAngle'
p17
I150
sS'maxAccel'
p18
I2
sS'maxVel'
p19
F0.5
sS'age'
p20
I0
sS'tailSize'
p21
I0
sS'sexualgeno'
p22
NsS'tailBrigh'
p23
I0
sS'maxSteering'
p24
I30
sS'energy'
p25
F0.5
sS'lastScale'
p26
F5.5
sb.(i__main__
Data_mobile
p1
(dp2
S'vel_y'
p3
F-0.41196185023092952
sS'vel_x'
p4
F-0.18330097252742389
sS'pos_x'
p5
F112.21669374813871
sS'pos_y'
p6
F27.674773156611323
sS'isAlive'
p7
I01
sS'cumulativeEnergy'
p8
F0.5
sS'geno'
p9
(lp10
(lp11
S'POINT.*'
p12
aaS'POINT./'
p13
a(lp14
S'POINT.*'
p15
aS'POINT.*'
p16
aS'target'
p17
aS'POINT./'
p18
aaS'POINT./'
p19
asS'accel_x'
p20
F0
sS'accel_y'
p21
F0
sS'visionAngle'
p22
I150
sS'maxAccel'
p23
I2
sS'maxVel'
p24
F0.5
sS'age'
p25
I0
sS'tailSize'
p26
I0
sS'sexualgeno'
p27
NsS'tailBrigh'
p28
I0
sS'maxSteering'
p29
I30
sS'energy'
p30
F0.5
sS'lastScale'
p31
F5.5
sb.(i__main__
Data_mobile
p1
(dp2
S'vel_y'
p3
F0.47680238847665046
sS'vel_x'
p4
F0.14149747279592495
sS'pos_x'
p5
F-56.140467259893597
sS'pos_y'
p6
F-35.246790598559585
sS'isAlive'
p7
I01
sS'cumulativeEnergy'
p8
F0.5
sS'geno'
p9
(lp10
(lp11
(lp12
(lp13
(lp14
S'POINT.+'
p15
aa(lp16
(lp17
S'POINT.+'
p18
aS'POINT.*'
p19
aS'target'
p20
aS'POINT.+'
p21
aaaaS'POINT./'
p22
aS'POINT.*'
p23
aS'flee'
p24
aaS'POINT.*'
p25
aS'randV'
p26
aS'flee'
p27
a(lp28
S'currentVelocity'
p29
aa(lp30
S'currentVelocity'
p31
a(lp32
S'POINT./'
p33
aa(lp34
S'currentVelocity'
p35
a(lp36
(lp37
S'target'
p38
aaaS'POINT.*'
p39
aS'POINT./'
p40
aaS'POINT./'
p41
aaaS'POINT./'
p42
a(lp43
S'POINT.+'
p44
aS'POINT.*'
p45
aS'target'
p46
aS'POINT.+'
p47
aa(lp48
S'POINT.*'
p49
aasS'accel_x'
p50
F0
sS'accel_y'
p51
F0
sS'visionAngle'
p52
I150
sS'maxAccel'
p53
I2
sS'maxVel'
p54
F0.5
sS'age'
p55
I0
sS'tailSize'
p56
I0
sS'sexualgeno'
p57
NsS'tailBrigh'
p58
I0
sS'maxSteering'
p59
I30
sS'energy'
p60
F0.5
sS'lastScale'
p61
F5.5
sb.(i__main__
Data_mobile
p1
(dp2
S'vel_y'
p3
F-0.33749832438703553
sS'vel_x'
p4
F-0.36778417429237442
sS'pos_x'
p5
F124.43677038451334
sS'pos_y'
p6
F-4.9134482099625956
sS'isAlive'
p7
I01
sS'cumulativeEnergy'
p8
F0.5
sS'geno'
p9
(lp10
(lp11
S'POINT.+'
p12
aS'currentVelocity'
p13
aS'target'
p14
a(lp15
S'POINT./'
p16
aaasS'accel_x'
p17
F0
sS'accel_y'
p18
F0
sS'visionAngle'
p19
I150
sS'maxAccel'
p20
I2
sS'maxVel'
p21
F0.5
sS'age'
p22
I0
sS'tailSize'
p23
I0
sS'sexualgeno'
p24
NsS'tailBrigh'
p25
I0
sS'maxSteering'
p26
I30
sS'energy'
p27
F0.5
sS'lastScale'
p28
F5.5
sb.(i__main__
Data_mobile
p1
(dp2
S'vel_y'
p3
F0.49492590327858943
sS'vel_x'
p4
F-0.056059983030625114
sS'pos_x'
p5
F24.695191822762464
sS'pos_y'
p6
F-81.287438546232224
sS'isAlive'
p7
I01
sS'cumulativeEnergy'
p8
F0.5
sS'geno'
p9
(lp10
(lp11
(lp12
(lp13
(lp14
S'POINT.+'
p15
aa(lp16
S'POINT.*'
p17
aaaS'POINT./'
p18
aS'POINT.*'
p19
aS'flee'
p20
aaS'POINT.*'
p21
aS'POINT.*'
p22
aS'flee'
p23
a(lp24
S'currentVelocity'
p25
aa(lp26
S'currentVelocity'
p27
a(lp28
(lp29
S'POINT.+'
p30
aaaS'POINT.*'
p31
aS'POINT./'
p32
aaaS'POINT./'
p33
a(lp34
S'POINT.*'
p35
aa(lp36
S'POINT.*'
p37
aasS'accel_x'
p38
F0
sS'accel_y'
p39
F0
sS'visionAngle'
p40
I150
sS'maxAccel'
p41
I2
sS'maxVel'
p42
F0.5
sS'age'
p43
I0
sS'tailSize'
p44
I0
sS'sexualgeno'
p45
NsS'tailBrigh'
p46
I0
sS'maxSteering'
p47
I30
sS'energy'
p48
F0.5
sS'lastScale'
p49
F5.5
sb.(i__main__
Data_mobile
p1
(dp2
S'vel_y'
p3
F0.086934940763648896
sS'vel_x'
p4
F-0.24322307208147154
sS'pos_x'
p5
F76.476037844687866
sS'pos_y'
p6
F70.046707222599323
sS'isAlive'
p7
I01
sS'cumulativeEnergy'
p8
F0.5
sS'geno'
p9
(lp10
(lp11
(lp12
(lp13
(lp14
S'POINT.+'
p15
aa(lp16
(lp17
S'POINT.+'
p18
aS'POINT.*'
p19
aS'target'
p20
aS'POINT.+'
p21
aaaaS'POINT./'
p22
aS'POINT.*'
p23
aS'flee'
p24
aaS'POINT.*'
p25
aS'randV'
p26
aS'flee'
p27
a(lp28
S'currentVelocity'
p29
aa(lp30
S'currentVelocity'
p31
a(lp32
S'POINT./'
p33
aa(lp34
S'flee'
p35
aaS'POINT./'
p36
aaaS'POINT./'
p37
a(lp38
S'POINT.+'
p39
aS'POINT.*'
p40
aS'target'
p41
aS'POINT.+'
p42
aaS'currentVelocity'
p43
asS'accel_x'
p44
F0
sS'accel_y'
p45
F0
sS'visionAngle'
p46
I150
sS'maxAccel'
p47
I2
sS'maxVel'
p48
F0.5
sS'age'
p49
I0
sS'tailSize'
p50
I0
sS'sexualgeno'
p51
NsS'tailBrigh'
p52
I0
sS'maxSteering'
p53
I30
sS'energy'
p54
F0.5
sS'lastScale'
p55
F5.5
sb.(i__main__
Data_mobile
p1
(dp2
S'vel_y'
p3
F0.2168771277726792
sS'vel_x'
p4
F-0.24305544577190077
sS'pos_x'
p5
F-46.911605015958166
sS'pos_y'
p6
F69.979193225729375
sS'isAlive'
p7
I01
sS'cumulativeEnergy'
p8
F0.5
sS'geno'
p9
(lp10
(lp11
(lp12
(lp13
(lp14
S'POINT.+'
p15
aa(lp16
S'POINT.*'
p17
aaaS'flee'
p18
aS'POINT.*'
p19
aS'flee'
p20
aaS'POINT.*'
p21
aS'randV'
p22
aS'flee'
p23
a(lp24
S'currentVelocity'
p25
aa(lp26
S'currentVelocity'
p27
a(lp28
S'POINT./'
p29
aa(lp30
S'POINT.*'
p31
aaS'POINT./'
p32
aaaS'POINT./'
p33
a(lp34
S'POINT.+'
p35
aS'POINT.*'
p36
aS'target'
p37
aS'POINT.+'
p38
aa(lp39
S'POINT.*'
p40
aasS'accel_x'
p41
F0
sS'accel_y'
p42
F0
sS'visionAngle'
p43
I150
sS'maxAccel'
p44
I2
sS'maxVel'
p45
F0.5
sS'age'
p46
I0
sS'tailSize'
p47
I0
sS'sexualgeno'
p48
NsS'tailBrigh'
p49
I0
sS'maxSteering'
p50
I30
sS'energy'
p51
F0.5
sS'lastScale'
p52
F5.5
sb.(i__main__
Data_mobile
p1
(dp2
S'vel_y'
p3
F-0.33957404064237695
sS'vel_x'
p4
F-0.36578056495191125
sS'pos_x'
p5
F131.54297135601044
sS'pos_y'
p6
F-19.552142696986827
sS'isAlive'
p7
I01
sS'cumulativeEnergy'
p8
F0.5
sS'geno'
p9
(lp10
(lp11
(lp12
S'POINT.+'
p13
aS'currentVelocity'
p14
aS'target'
p15
aS'POINT.+'
p16
aaaS'POINT./'
p17
a(lp18
(lp19
S'POINT.+'
p20
aS'currentVelocity'
p21
aS'target'
p22
a(lp23
S'POINT.+'
p24
aaaS'POINT.*'
p25
a(lp26
(lp27
(lp28
(lp29
(lp30
S'POINT.*'
p31
aa(lp32
S'POINT.*'
p33
aaaS'POINT./'
p34
aS'POINT.*'
p35
aS'flee'
p36
aaS'POINT.*'
p37
aS'randV'
p38
aS'flee'
p39
a(lp40
S'currentVelocity'
p41
aa(lp42
S'currentVelocity'
p43
a(lp44
(lp45
S'POINT.+'
p46
aaaS'POINT.*'
p47
aS'POINT./'
p48
aaaS'POINT./'
p49
a(lp50
S'POINT.+'
p51
aS'POINT.*'
p52
aS'POINT./'
p53
aS'target'
p54
aa(lp55
S'POINT.*'
p56
aaaS'POINT.+'
p57
aaS'POINT.+'
p58
asS'accel_x'
p59
F0
sS'accel_y'
p60
F0
sS'visionAngle'
p61
I150
sS'maxAccel'
p62
I2
sS'maxVel'
p63
F0.5
sS'age'
p64
I0
sS'tailSize'
p65
I0
sS'sexualgeno'
p66
NsS'tailBrigh'
p67
I0
sS'maxSteering'
p68
I30
sS'energy'
p69
F0.5
sS'lastScale'
p70
F5.5
sb.(i__main__
Data_mobile
p1
(dp2
S'vel_y'
p3
F-0.20695593277225682
sS'vel_x'
p4
F-0.19416460594696211
sS'pos_x'
p5
F78.173267951834447
sS'pos_y'
p6
F42.818301817238542
sS'isAlive'
p7
I01
sS'cumulativeEnergy'
p8
F0.5
sS'geno'
p9
(lp10
(lp11
S'POINT.+'
p12
aaS'POINT./'
p13
aS'target'
p14
aS'POINT.+'
p15
asS'accel_x'
p16
F0
sS'accel_y'
p17
F0
sS'visionAngle'
p18
I150
sS'maxAccel'
p19
I2
sS'maxVel'
p20
F0.5
sS'age'
p21
I0
sS'tailSize'
p22
I0
sS'sexualgeno'
p23
NsS'tailBrigh'
p24
I0
sS'maxSteering'
p25
I30
sS'energy'
p26
F0.5
sS'lastScale'
p27
F5.5
sb.(i__main__
Data_mobile
p1
(dp2
S'vel_y'
p3
F-0.15981022221821009
sS'vel_x'
p4
F-0.33660316861724471
sS'pos_x'
p5
F107.73044567636161
sS'pos_y'
p6
F43.41142803589031
sS'isAlive'
p7
I01
sS'cumulativeEnergy'
p8
F0.5
sS'geno'
p9
(lp10
(lp11
(lp12
(lp13
(lp14
S'POINT.+'
p15
aa(lp16
(lp17
S'currentVelocity'
p18
a(lp19
(lp20
S'POINT.*'
p21
aaaS'POINT.-'
p22
aS'POINT.+'
p23
aaaaS'POINT./'
p24
aS'POINT.*'
p25
aS'flee'
p26
aaS'POINT.*'
p27
aS'randV'
p28
aS'flee'
p29
a(lp30
S'currentVelocity'
p31
aa(lp32
S'currentVelocity'
p33
a(lp34
S'POINT./'
p35
aa(lp36
S'POINT.*'
p37
aaS'POINT./'
p38
aaaS'POINT./'
p39
a(lp40
S'POINT.+'
p41
aS'POINT.*'
p42
aS'target'
p43
aS'POINT.+'
p44
aa(lp45
S'POINT./'
p46
aasS'accel_x'
p47
F0
sS'accel_y'
p48
F0
sS'visionAngle'
p49
I150
sS'maxAccel'
p50
I2
sS'maxVel'
p51
F0.5
sS'age'
p52
I0
sS'tailSize'
p53
I0
sS'sexualgeno'
p54
NsS'tailBrigh'
p55
I0
sS'maxSteering'
p56
I30
sS'energy'
p57
F0.5
sS'lastScale'
p58
F5.5
sb.(i__main__
Data_mobile
p1
(dp2
S'vel_y'
p3
F0.15115688803115127
sS'vel_x'
p4
F-0.45397060090018793
sS'pos_x'
p5
F41.900757924033314
sS'pos_y'
p6
F-15.569148686943416
sS'isAlive'
p7
I01
sS'cumulativeEnergy'
p8
F0.5
sS'geno'
p9
(lp10
S'POINT.+'
p11
aS'POINT.+'
p12
aS'target'
p13
aS'POINT.+'
p14
asS'accel_x'
p15
F0
sS'accel_y'
p16
F0
sS'visionAngle'
p17
I150
sS'maxAccel'
p18
I2
sS'maxVel'
p19
F0.5
sS'age'
p20
I0
sS'tailSize'
p21
I0
sS'sexualgeno'
p22
NsS'tailBrigh'
p23
I0
sS'maxSteering'
p24
I30
sS'energy'
p25
F0.5
sS'lastScale'
p26
F5.5
sb.(i__main__
Data_mobile
p1
(dp2
S'vel_y'
p3
F0.49501331964823214
sS'vel_x'
p4
F-0.052803677748889569
sS'pos_x'
p5
F89.699946594102414
sS'pos_y'
p6
F-61.066659865346914
sS'isAlive'
p7
I01
sS'cumulativeEnergy'
p8
F0.5
sS'geno'
p9
(lp10
(lp11
S'POINT.*'
p12
aaS'POINT./'
p13
a(lp14
S'target'
p15
aS'POINT.*'
p16
aS'target'
p17
a(lp18
S'target'
p19
aaaS'POINT.+'
p20
asS'accel_x'
p21
F0
sS'accel_y'
p22
F0
sS'visionAngle'
p23
I150
sS'maxAccel'
p24
I2
sS'maxVel'
p25
F0.5
sS'age'
p26
I0
sS'tailSize'
p27
I0
sS'sexualgeno'
p28
NsS'tailBrigh'
p29
I0
sS'maxSteering'
p30
I30
sS'energy'
p31
F0.5
sS'lastScale'
p32
F5.5
sb.(i__main__
Data_mobile
p1
(dp2
S'vel_y'
p3
F0.1890834091884015
sS'vel_x'
p4
F0.28386034324285742
sS'pos_x'
p5
F53.282174507178404
sS'pos_y'
p6
F-2.8441651934934766
sS'isAlive'
p7
I01
sS'cumulativeEnergy'
p8
I0
sS'geno'
p9
(lp10
S'POINT./'
p11
aS'POINT.+'
p12
aS'target'
p13
aS'POINT.+'
p14
asS'accel_x'
p15
F0
sS'accel_y'
p16
F0
sS'visionAngle'
p17
I150
sS'maxAccel'
p18
I2
sS'maxVel'
p19
F0.5
sS'age'
p20
I0
sS'tailSize'
p21
I0
sS'sexualgeno'
p22
NsS'tailBrigh'
p23
I0
sS'maxSteering'
p24
I30
sS'energy'
p25
F0.5
sS'lastScale'
p26
F15.5
sb.(i__main__
Data_mobile
p1
(dp2
S'vel_y'
p3
F0.32072006188814928
sS'vel_x'
p4
F0.37086634992120349
sS'pos_x'
p5
F5.8184862979618055
sS'pos_y'
p6
F0.93323058257619362
sS'isAlive'
p7
I01
sS'cumulativeEnergy'
p8
I0
sS'geno'
p9
(lp10
(lp11
(lp12
S'POINT.-'
p13
aaS'currentVelocity'
p14
a(lp15
S'POINT.+'
p16
aS'POINT.+'
p17
aaS'target'
p18
aaS'POINT./'
p19
aS'target'
p20
aS'POINT.+'
p21
asS'accel_x'
p22
F0
sS'accel_y'
p23
F0
sS'visionAngle'
p24
I150
sS'maxAccel'
p25
I2
sS'maxVel'
p26
F0.5
sS'age'
p27
I0
sS'tailSize'
p28
I0
sS'sexualgeno'
p29
NsS'tailBrigh'
p30
I0
sS'maxSteering'
p31
I30
sS'energy'
p32
F0.5
sS'lastScale'
p33
F15.5
sb.(i__main__
Data_mobile
p1
(dp2
S'vel_y'
p3
F0.24837945041242498
sS'vel_x'
p4
F-0.0018525182089808821
sS'pos_x'
p5
F103.88795955887446
sS'pos_y'
p6
F-16.488612028123057
sS'isAlive'
p7
I01
sS'cumulativeEnergy'
p8
I0
sS'geno'
p9
(lp10
(lp11
(lp12
(lp13
S'POINT./'
p14
a(lp15
S'POINT.*'
p16
aaaS'POINT./'
p17
aS'POINT.*'
p18
aS'flee'
p19
aaS'POINT.*'
p20
aS'POINT.*'
p21
aS'flee'
p22
a(lp23
S'currentVelocity'
p24
aa(lp25
S'currentVelocity'
p26
a(lp27
(lp28
S'POINT.+'
p29
aaaS'POINT.*'
p30
aS'POINT./'
p31
aaaS'POINT./'
p32
a(lp33
(lp34
S'POINT.*'
p35
aaS'POINT./'
p36
aS'POINT.*'
p37
aS'POINT.+'
p38
aa(lp39
S'POINT.*'
p40
aasS'accel_x'
p41
F0
sS'accel_y'
p42
F0
sS'visionAngle'
p43
I150
sS'maxAccel'
p44
I2
sS'maxVel'
p45
F0.5
sS'age'
p46
I0
sS'tailSize'
p47
I0
sS'sexualgeno'
p48
NsS'tailBrigh'
p49
I0
sS'maxSteering'
p50
I30
sS'energy'
p51
F0.5
sS'lastScale'
p52
F15.5
sb.(i__main__
Data_mobile
p1
(dp2
S'vel_y'
p3
F-0.11263576688802099
sS'vel_x'
p4
F0.052736311928496239
sS'pos_x'
p5
F61.04184153193949
sS'pos_y'
p6
F49.705470249341865
sS'isAlive'
p7
I01
sS'cumulativeEnergy'
p8
I0
sS'geno'
p9
(lp10
(lp11
(lp12
S'POINT.*'
p13
aS'POINT./'
p14
aS'POINT.*'
p15
a(lp16
S'POINT.+'
p17
aaa(lp18
S'POINT.+'
p19
aS'POINT.*'
p20
aS'target'
p21
aS'POINT.+'
p22
aaS'randV'
p23
aS'target'
p24
a(lp25
S'separation'
p26
aa(lp27
S'currentVelocity'
p28
a(lp29
(lp30
S'POINT.*'
p31
aaaS'POINT.*'
p32
aS'POINT.+'
p33
aaaS'POINT./'
p34
aS'POINT.+'
p35
a(lp36
S'POINT.*'
p37
aasS'accel_x'
p38
F0
sS'accel_y'
p39
F0
sS'visionAngle'
p40
I150
sS'maxAccel'
p41
I2
sS'maxVel'
p42
F0.5
sS'age'
p43
I0
sS'tailSize'
p44
I0
sS'sexualgeno'
p45
NsS'tailBrigh'
p46
I0
sS'maxSteering'
p47
I30
sS'energy'
p48
F0.5
sS'lastScale'
p49
F15.5
sb.