(i__main__
Data_mobile
p1
(dp2
S'vel_y'
p3
F-0.10344896411907209
sS'vel_x'
p4
F-0.48918126683540419
sS'pos_x'
p5
F1.4209589717649926
sS'pos_y'
p6
F-35.666886464292418
sS'isAlive'
p7
I01
sS'cumulativeEnergy'
p8
F49
sS'geno'
p9
(lp10
F1.68488854536053
aF0.41898728901790916
aF0.091405357281225008
aF4.0918305726565336
aF2.6844979683342944
aF-0.61207814738848654
asS'accel_x'
p11
F1.9462787723845612
sS'accel_y'
p12
F-0.4604334264204169
sS'visionAngle'
p13
I150
sS'maxAccel'
p14
I2
sS'maxVel'
p15
F0.5
sS'age'
p16
I150
sS'tailSize'
p17
I0
sS'sexualgeno'
p18
NsS'tailBrigh'
p19
I0
sS'maxSteering'
p20
I30
sS'energy'
p21
F1
sS'lastScale'
p22
F15.5
sb.(i__main__
Data_mobile
p1
(dp2
S'vel_y'
p3
F0.3807675712393031
sS'vel_x'
p4
F-0.32406180998772793
sS'pos_x'
p5
F-147.7922107050982
sS'pos_y'
p6
F7.2383670564295537
sS'isAlive'
p7
I01
sS'cumulativeEnergy'
p8
F49
sS'geno'
p9
(lp10
F1.68488854536053
aF0.77576084970688997
aF-0.35375472969760546
aF4.8998655045134871
aF2.8094724544002099
aF-1.0407393616361826
asS'accel_x'
p11
F1.9219543560081331
sS'accel_y'
p12
F-0.55325532389789278
sS'visionAngle'
p13
I150
sS'maxAccel'
p14
I2
sS'maxVel'
p15
F0.5
sS'age'
p16
I100
sS'tailSize'
p17
I0
sS'sexualgeno'
p18
NsS'tailBrigh'
p19
I0
sS'maxSteering'
p20
I30
sS'energy'
p21
F1
sS'lastScale'
p22
F15.5
sb.(i__main__
Data_mobile
p1
(dp2
S'vel_y'
p3
F-0.25191050996398234
sS'vel_x'
p4
F-0.43190403444479003
sS'pos_x'
p5
F-115.23279742267799
sS'pos_y'
p6
F-26.577900357964566
sS'isAlive'
p7
I01
sS'cumulativeEnergy'
p8
F47.438299021217382
sS'geno'
p9
(lp10
F1.68488854536053
aF0.34573426638431659
aF-0.26189010438835303
aF4.3152062264633342
aF2.5490725783053234
aF-0.72383320143259877
asS'accel_x'
p11
F-1.8216965220786152
sS'accel_y'
p12
F-0.82548275660166137
sS'visionAngle'
p13
I150
sS'maxAccel'
p14
I2
sS'maxVel'
p15
F0.5
sS'age'
p16
I100
sS'tailSize'
p17
I0
sS'sexualgeno'
p18
NsS'tailBrigh'
p19
I0
sS'maxSteering'
p20
I30
sS'energy'
p21
F0.87809823813916144
sS'lastScale'
p22
F14.280982381391613
sb.(i__main__
Data_mobile
p1
(dp2
S'vel_y'
p3
F-0.17441313148394827
sS'vel_x'
p4
F-0.46859370414674051
sS'pos_x'
p5
F-115.2381570254167
sS'pos_y'
p6
F-27.113673026610627
sS'isAlive'
p7
I01
sS'cumulativeEnergy'
p8
F46.980878490787845
sS'geno'
p9
(lp10
F1.68488854536053
aF0.34573426638431659
aF-0.26189010438835303
aF3.8354840959187437
aF2.5490725783053234
aF-0.64487187124907452
asS'accel_x'
p11
F-1.7159566139171276
sS'accel_y'
p12
F-1.0273718407441703
sS'visionAngle'
p13
I150
sS'maxAccel'
p14
I2
sS'maxVel'
p15
F0.5
sS'age'
p16
I100
sS'tailSize'
p17
I0
sS'sexualgeno'
p18
NsS'tailBrigh'
p19
I0
sS'maxSteering'
p20
I30
sS'energy'
p21
F0.8143228314511799
sS'lastScale'
p22
F13.643228314511799
sb.(i__main__
Data_mobile
p1
(dp2
S'vel_y'
p3
F-0.39749619198509512
sS'vel_x'
p4
F-0.30330970534644691
sS'pos_x'
p5
F-155.57622523732775
sS'pos_y'
p6
F-71.374936386585034
sS'isAlive'
p7
I01
sS'cumulativeEnergy'
p8
F46.167726587363035
sS'geno'
p9
(lp10
F2.1024149392065721
aF0.34573426638431659
aF-0.1963882611557457
aF4.0918305726565336
aF2.6844979683342944
aF-0.24663529592194788
asS'accel_x'
p11
F-1.0886346684451109
sS'accel_y'
p12
F-1.6777587903686881
sS'visionAngle'
p13
I150
sS'maxAccel'
p14
I2
sS'maxVel'
p15
F0.5
sS'age'
p16
I100
sS'tailSize'
p17
I0
sS'sexualgeno'
p18
NsS'tailBrigh'
p19
I0
sS'maxSteering'
p20
I30
sS'energy'
p21
F0.71642198043668237
sS'lastScale'
p22
F12.664219804366825
sb.(i__main__
Data_mobile
p1
(dp2
S'vel_y'
p3
F-0.31629845709983051
sS'vel_x'
p4
F-0.38724060483924805
sS'pos_x'
p5
F-114.56387673206434
sS'pos_y'
p6
F-28.564766945921505
sS'isAlive'
p7
I01
sS'cumulativeEnergy'
p8
F45.461330532182409
sS'geno'
p9
(lp10
F1.68488854536053
aF0.34573426638431659
aF-0.26189010438835303
aF4.3152062264633342
aF2.8885399636114846
aF-0.64487187124907452
asS'accel_x'
p11
F-1.6980144817250924
sS'accel_y'
p12
F-1.0567624235616373
sS'visionAngle'
p13
I150
sS'maxAccel'
p14
I2
sS'maxVel'
p15
F0.5
sS'age'
p16
I150
sS'tailSize'
p17
I0
sS'sexualgeno'
p18
NsS'tailBrigh'
p19
I0
sS'maxSteering'
p20
I30
sS'energy'
p21
F0.78988736171035256
sS'lastScale'
p22
F13.398873617103526
sb.(i__main__
Data_mobile
p1
(dp2
S'vel_y'
p3
F-0.3952654492122103
sS'vel_x'
p4
F-0.30621107860276647
sS'pos_x'
p5
F-156.09576310994544
sS'pos_y'
p6
F-72.67357408252748
sS'isAlive'
p7
I01
sS'cumulativeEnergy'
p8
F45.170436665034337
sS'geno'
p9
(lp10
F1.9106113726602807
aF0.34573426638431659
aF-0.1963882611557457
aF4.0918305726565336
aF2.6844979683342944
aF-0.61207814738848654
asS'accel_x'
p11
F-1.1230878416478911
sS'accel_y'
p12
F-1.6548938636488693
sS'visionAngle'
p13
I150
sS'maxAccel'
p14
I2
sS'maxVel'
p15
F0.5
sS'age'
p16
I100
sS'tailSize'
p17
I0
sS'sexualgeno'
p18
NsS'tailBrigh'
p19
I0
sS'maxSteering'
p20
I30
sS'energy'
p21
F0.71642198043668237
sS'lastScale'
p22
F12.664219804366825
sb.(i__main__
Data_mobile
p1
(dp2
S'vel_y'
p3
F-0.34285582917002699
sS'vel_x'
p4
F-0.36393664339295834
sS'pos_x'
p5
F-141.99363005919795
sS'pos_y'
p6
F18.988549482191797
sS'isAlive'
p7
I01
sS'cumulativeEnergy'
p8
F44.815420109698643
sS'geno'
p9
(lp10
F1.8511250582009549
aF0.34573426638431659
aF-0.35375472969760546
aF4.8998655045134871
aF2.6844979683342944
aF-0.40568868978320416
asS'accel_x'
p11
F-1.3105586149985777
sS'accel_y'
p12
F-1.5107733505238337
sS'visionAngle'
p13
I150
sS'maxAccel'
p14
I2
sS'maxVel'
p15
F0.5
sS'age'
p16
I150
sS'tailSize'
p17
I0
sS'sexualgeno'
p18
NsS'tailBrigh'
p19
I0
sS'maxSteering'
p20
I30
sS'energy'
p21
F0.58874646546461762
sS'lastScale'
p22
F11.387464654646175
sb.(i__main__
Data_mobile
p1
(dp2
S'vel_y'
p3
F-0.35655763525272677
sS'vel_x'
p4
F-0.35052339828174583
sS'pos_x'
p5
F-155.70204981708125
sS'pos_y'
p6
F-72.266471578637422
sS'isAlive'
p7
I01
sS'cumulativeEnergy'
p8
F44.787038856275473
sS'geno'
p9
(lp10
F2.2014661034293943
aF0.34573426638431659
aF-0.35375472969760546
aF4.0918305726565336
aF2.6844979683342944
aF-0.61207814738848654
asS'accel_x'
p11
F-1.1867573402722258
sS'accel_y'
p12
F-1.6098468918844402
sS'visionAngle'
p13
I150
sS'maxAccel'
p14
I2
sS'maxVel'
p15
F0.5
sS'age'
p16
I100
sS'tailSize'
p17
I0
sS'sexualgeno'
p18
NsS'tailBrigh'
p19
I0
sS'maxSteering'
p20
I30
sS'energy'
p21
F0.71642198043668237
sS'lastScale'
p22
F12.664219804366825
sb.(i__main__
Data_mobile
p1
(dp2
S'vel_y'
p3
F-0.38337111959686321
sS'vel_x'
p4
F-0.32097754541252199
sS'pos_x'
p5
F-155.29848271603277
sS'pos_y'
p6
F-72.175223134266091
sS'isAlive'
p7
I01
sS'cumulativeEnergy'
p8
F44.787038856275473
sS'geno'
p9
(lp10
F1.4788969826633194
aF0.34573426638431659
aF-0.57660293458564882
aF4.8459688268947039
aF2.9494833087820393
aF-0.61207814738848654
asS'accel_x'
p11
F-1.278371646662769
sS'accel_y'
p12
F-1.5381046560649638
sS'visionAngle'
p13
I150
sS'maxAccel'
p14
I2
sS'maxVel'
p15
F0.5
sS'age'
p16
I100
sS'tailSize'
p17
I0
sS'sexualgeno'
p18
NsS'tailBrigh'
p19
I0
sS'maxSteering'
p20
I30
sS'energy'
p21
F0.71642198043668237
sS'lastScale'
p22
F12.664219804366825
sb.(i__main__
Data_mobile
p1
(dp2
S'vel_y'
p3
F-0.35745209981288439
sS'vel_x'
p4
F-0.34961120739953361
sS'pos_x'
p5
F-152.45817028389061
sS'pos_y'
p6
F-69.727108818127206
sS'isAlive'
p7
I01
sS'cumulativeEnergy'
p8
F44.510465967099215
sS'geno'
p9
(lp10
F1.68488854536053
aF0.34573426638431659
aF-0.7037615815378977
aF4.8998655045134871
aF2.6844979683342944
aF-0.61207814738848654
asS'accel_x'
p11
F-1.4304697319519792
sS'accel_y'
p12
F-1.3977683448873897
sS'visionAngle'
p13
I150
sS'maxAccel'
p14
I2
sS'maxVel'
p15
F0.5
sS'age'
p16
I150
sS'tailSize'
p17
I0
sS'sexualgeno'
p18
NsS'tailBrigh'
p19
I0
sS'maxSteering'
p20
I30
sS'energy'
p21
F0.56963046223668823
sS'lastScale'
p22
F11.196304622366881
sb.(i__main__
Data_mobile
p1
(dp2
S'vel_y'
p3
F-0.39282588668818952
sS'vel_x'
p4
F-0.30933448360575266
sS'pos_x'
p5
F-154.74758571431153
sS'pos_y'
p6
F-70.531038778037455
sS'isAlive'
p7
I01
sS'cumulativeEnergy'
p8
F44.091442849377025
sS'geno'
p9
(lp10
F1.7340335567162957
aF0.34573426638431659
aF-0.1963882611557457
aF4.0918305726565336
aF2.0986253234910341
aF-0.40568868978320416
asS'accel_x'
p11
F-1.1410713809284128
sS'accel_y'
p12
F-1.6425456169087436
sS'visionAngle'
p13
I150
sS'maxAccel'
p14
I2
sS'maxVel'
p15
F0.5
sS'age'
p16
I150
sS'tailSize'
p17
I0
sS'sexualgeno'
p18
NsS'tailBrigh'
p19
I0
sS'maxSteering'
p20
I30
sS'energy'
p21
F0.55058395688567929
sS'lastScale'
p22
F11.005839568856793
sb.(i__main__
Data_mobile
p1
(dp2
S'vel_y'
p3
F-0.27935630792709792
sS'vel_x'
p4
F-0.41468066415175475
sS'pos_x'
p5
F-114.78710124720975
sS'pos_y'
p6
F-27.464946020910944
sS'isAlive'
p7
I01
sS'cumulativeEnergy'
p8
F43.787700715330281
sS'geno'
p9
(lp10
F1.68488854536053
aF0.34573426638431659
aF-0.1963882611557457
aF4.0918305726565336
aF2.6844979683342944
aF-0.61207814738848654
asS'accel_x'
p11
F-1.8281922849661632
sS'accel_y'
p12
F-0.81099504880745077
sS'visionAngle'
p13
I150
sS'maxAccel'
p14
I2
sS'maxVel'
p15
F0.5
sS'age'
p16
I200
sS'tailSize'
p17
I0
sS'sexualgeno'
p18
NsS'tailBrigh'
p19
I0
sS'maxSteering'
p20
I30
sS'energy'
p21
F0.57995313755197697
sS'lastScale'
p22
F11.64818705260674
sb.(i__main__
Data_mobile
p1
(dp2
S'vel_y'
p3
F-0.38857794351161423
sS'vel_x'
p4
F-0.31465406689932474
sS'pos_x'
p5
F-155.68883915182306
sS'pos_y'
p6
F-72.352726943860418
sS'isAlive'
p7
I01
sS'cumulativeEnergy'
p8
F43.720000731286049
sS'geno'
p9
(lp10
F1.9106113726602807
aF0.34573426638431659
aF-0.1963882611557457
aF4.0918305726565336
aF2.6844979683342944
aF-0.61207814738848654
asS'accel_x'
p11
F-1.2092025554650987
sS'accel_y'
p12
F-1.5930565526235017
sS'visionAngle'
p13
I150
sS'maxAccel'
p14
I2
sS'maxVel'
p15
F0.5
sS'age'
p16
I350
sS'tailSize'
p17
I0
sS'sexualgeno'
p18
NsS'tailBrigh'
p19
I0
sS'maxSteering'
p20
I30
sS'energy'
p21
F0.54000000064960141
sS'lastScale'
p22
F10.900000006496013
sb.(i__main__
Data_mobile
p1
(dp2
S'vel_y'
p3
F-0.30366314879688394
sS'vel_x'
p4
F-0.39722624795292866
sS'pos_x'
p5
F-137.00510491643172
sS'pos_y'
p6
F19.341179786175221
sS'isAlive'
p7
I01
sS'cumulativeEnergy'
p8
F43.206436578228242
sS'geno'
p9
(lp10
F1.68488854536053
aF0.77576084970688997
aF-0.35375472969760546
aF4.8998655045134871
aF2.8094724544002099
aF-1.0434538851560045
asS'accel_x'
p11
F-1.5445903888700159
sS'accel_y'
p12
F-1.2705276583413574
sS'visionAngle'
p13
I150
sS'maxAccel'
p14
I2
sS'maxVel'
p15
F0.5
sS'age'
p16
I150
sS'tailSize'
p17
I0
sS'sexualgeno'
p18
NsS'tailBrigh'
p19
I0
sS'maxSteering'
p20
I30
sS'energy'
p21
F0.58874646546461762
sS'lastScale'
p22
F11.387464654646175
sb.(i__main__
Data_mobile
p1
(dp2
S'vel_y'
p3
F-0.10447639735877103
sS'vel_x'
p4
F-0.48896286402438804
sS'pos_x'
p5
F-79.200249942033054
sS'pos_y'
p6
F-26.175855571696985
sS'isAlive'
p7
I01
sS'cumulativeEnergy'
p8
F43.173926795679073
sS'geno'
p9
(lp10
F1.4788969826633194
aF-0.04366608436777053
aF-0.57660293458564882
aF4.8459688268947039
aF2.9494833087820393
aF-0.61207814738848654
asS'accel_x'
p11
F-1.9554089135856829
sS'accel_y'
p12
F-0.41997140458566845
sS'visionAngle'
p13
I150
sS'maxAccel'
p14
I2
sS'maxVel'
p15
F0.5
sS'age'
p16
I100
sS'tailSize'
p17
I0
sS'sexualgeno'
p18
NsS'tailBrigh'
p19
I0
sS'maxSteering'
p20
I30
sS'energy'
p21
F0.55644492159531345
sS'lastScale'
p22
F11.16585557865746
sb.(i__main__
Data_mobile
p1
(dp2
S'vel_y'
p3
F0.34966759823793475
sS'vel_x'
p4
F0.35739693723158034
sS'pos_x'
p5
F83.153013837085538
sS'pos_y'
p6
F66.107561147352612
sS'isAlive'
p7
I01
sS'cumulativeEnergy'
p8
F43.031377816392947
sS'geno'
p9
(lp10
F1.7340335567162957
aF0.53644229874626981
aF-0.35375472969760546
aF4.8998655045134871
aF2.8094724544002099
aF-0.76242957684459056
asS'accel_x'
p11
F0.2006936801114009
sS'accel_y'
p12
F-1.9899050346092759
sS'visionAngle'
p13
I150
sS'maxAccel'
p14
I2
sS'maxVel'
p15
F0.5
sS'age'
p16
I100
sS'tailSize'
p17
I0
sS'sexualgeno'
p18
NsS'tailBrigh'
p19
I0
sS'maxSteering'
p20
I30
sS'energy'
p21
F1
sS'lastScale'
p22
F15.5
sb.(i__main__
Data_mobile
p1
(dp2
S'vel_y'
p3
F-0.26419824406317088
sS'vel_x'
p4
F-0.42449886670512699
sS'pos_x'
p5
F-114.3926856069269
sS'pos_y'
p6
F-28.758293929782134
sS'isAlive'
p7
I01
sS'cumulativeEnergy'
p8
F42.815952794004609
sS'geno'
p9
(lp10
F1.9106113726602807
aF0.34573426638431659
aF-0.1963882611557457
aF4.0918305726565336
aF2.6844979683342944
aF-0.61207814738848654
asS'accel_x'
p11
F-1.7236169522024758
sS'accel_y'
p12
F-1.0144676446689904
sS'visionAngle'
p13
I150
sS'maxAccel'
p14
I2
sS'maxVel'
p15
F0.5
sS'age'
p16
I150
sS'tailSize'
p17
I0
sS'sexualgeno'
p18
NsS'tailBrigh'
p19
I0
sS'maxSteering'
p20
I30
sS'energy'
p21
F0.87075256039655902
sS'lastScale'
p22
F14.207525603965589
sb.(i__main__
Data_mobile
p1
(dp2
S'vel_y'
p3
F0.22827543349937984
sS'vel_x'
p4
F-0.44484865568041254
sS'pos_x'
p5
F-112.33630306089997
sS'pos_y'
p6
F-22.748294477093758
sS'isAlive'
p7
I01
sS'cumulativeEnergy'
p8
F42.186266601820407
sS'geno'
p9
(lp10
F2.2014661034293943
aF0.34573426638431659
aF-0.1963882611557457
aF4.0918305726565336
aF2.6844979683342944
aF-0.52535501499846837
asS'accel_x'
p11
F-1.7962118107016838
sS'accel_y'
p12
F-0.87955848645543622
sS'visionAngle'
p13
I150
sS'maxAccel'
p14
I2
sS'maxVel'
p15
F0.5
sS'age'
p16
I50
sS'tailSize'
p17
I0
sS'sexualgeno'
p18
NsS'tailBrigh'
p19
I0
sS'maxSteering'
p20
I30
sS'energy'
p21
F0.90950065341584285
sS'lastScale'
p22
F14.595006534158427
sb.(i__main__
Data_mobile
p1
(dp2
S'vel_y'
p3
F0.17041841718165954
sS'vel_x'
p4
F-0.47006123333593236
sS'pos_x'
p5
F-45.902671436112243
sS'pos_y'
p6
F34.721759483797989
sS'isAlive'
p7
I01
sS'cumulativeEnergy'
p8
F41.799646202463478
sS'geno'
p9
(lp10
F1.68488854536053
aF0.34573426638431659
aF-0.26189010438835303
aF4.4335099156939677
aF2.6844979683342944
aF-0.76242957684459056
asS'accel_x'
p11
F-1.9295817156368562
sS'accel_y'
p12
F0.52603650318198203
sS'visionAngle'
p13
I150
sS'maxAccel'
p14
I2
sS'maxVel'
p15
F0.5
sS'age'
p16
I100
sS'tailSize'
p17
I0
sS'sexualgeno'
p18
NsS'tailBrigh'
p19
I0
sS'maxSteering'
p20
I30
sS'energy'
p21
F0.56490146604297531
sS'lastScale'
p22
F11.149014660429753
sb.(i__main__
Data_mobile
p1
(dp2
S'vel_y'
p3
F-0.49728472935548895
sS'vel_x'
p4
F0.052037466789209619
sS'pos_x'
p5
F-110.25615887157105
sS'pos_y'
p6
F-26.743205454898995
sS'isAlive'
p7
I01
sS'cumulativeEnergy'
p8
F41.735523879932707
sS'geno'
p9
(lp10
F1.9106113726602807
aF0.34573426638431659
aF-0.35375472969760546
aF4.0918305726565336
aF2.4068698259734633
aF-0.76242957684459056
asS'accel_x'
p11
F-1.8955987678351318
sS'accel_y'
p12
F-0.63773451481155563
sS'visionAngle'
p13
I150
sS'maxAccel'
p14
I2
sS'maxVel'
p15
F0.5
sS'age'
p16
I50
sS'tailSize'
p17
I0
sS'sexualgeno'
p18
NsS'tailBrigh'
p19
I0
sS'maxSteering'
p20
I30
sS'energy'
p21
F0.94939947978609318
sS'lastScale'
p22
F14.993994797860932
sb.(i__main__
Data_mobile
p1
(dp2
S'vel_y'
p3
F-0.38806096489351538
sS'vel_x'
p4
F-0.31529143268714704
sS'pos_x'
p5
F-155.39464863920887
sS'pos_y'
p6
F-72.26326274568342
sS'isAlive'
p7
I01
sS'cumulativeEnergy'
p8
F40.518385615212949
sS'geno'
p9
(lp10
F1.7340335567162957
aF0.34573426638431659
aF-0.1963882611557457
aF4.2535463169095022
aF2.6681169205342177
aF-0.64487187124907452
asS'accel_x'
p11
F-1.2540713511972137
sS'accel_y'
p12
F-1.557981080150332
sS'visionAngle'
p13
I150
sS'maxAccel'
p14
I2
sS'maxVel'
p15
F0.5
sS'age'
p16
I50
sS'tailSize'
p17
I0
sS'sexualgeno'
p18
NsS'tailBrigh'
p19
I0
sS'maxSteering'
p20
I30
sS'energy'
p21
F0.77851399459609583
sS'lastScale'
p22
F13.28513994596096
sb.(i__main__
Data_mobile
p1
(dp2
S'vel_y'
p3
F0.35255713459041527
sS'vel_x'
p4
F-0.3545468471858067
sS'pos_x'
p5
F-54.432012344038185
sS'pos_y'
p6
F36.271474591670767
sS'isAlive'
p7
I01
sS'cumulativeEnergy'
p8
F39.740731290555424
sS'geno'
p9
(lp10
F1.7340335567162957
aF0.53644229874626981
aF-0.26189010438835303
aF4.3152062264633342
aF2.5490725783053234
aF-0.64487187124907452
asS'accel_x'
p11
F-1.3551237015455428
sS'accel_y'
p12
F1.4709315937559795
sS'visionAngle'
p13
I150
sS'maxAccel'
p14
I2
sS'maxVel'
p15
F0.5
sS'age'
p16
I100
sS'tailSize'
p17
I0
sS'sexualgeno'
p18
NsS'tailBrigh'
p19
I0
sS'maxSteering'
p20
I30
sS'energy'
p21
F0.51080903073162087
sS'lastScale'
p22
F10.608090307316209
sb.(i__main__
Data_mobile
p1
(dp2
S'vel_y'
p3
F-0.35857053391462135
sS'vel_x'
p4
F-0.34846401852728409
sS'pos_x'
p5
F-141.91165645523841
sS'pos_y'
p6
F19.000727557637848
sS'isAlive'
p7
I01
sS'cumulativeEnergy'
p8
F39.529085148278696
sS'geno'
p9
(lp10
F2.2014661034293943
aF-0.1448067190452873
aF-0.35375472969760546
aF4.8998655045134871
aF2.6844979683342944
aF-0.64487187124907452
asS'accel_x'
p11
F-1.3624259110916526
sS'accel_y'
p12
F-1.4641706310352218
sS'visionAngle'
p13
I150
sS'maxAccel'
p14
I2
sS'maxVel'
p15
F0.5
sS'age'
p16
I50
sS'tailSize'
p17
I0
sS'sexualgeno'
p18
NsS'tailBrigh'
p19
I0
sS'maxSteering'
p20
I30
sS'energy'
p21
F0.79856559009518691
sS'lastScale'
p22
F13.485655900951869
sb.(i__main__
Data_mobile
p1
(dp2
S'vel_y'
p3
F-0.16483414375429045
sS'vel_x'
p4
F-0.47204841388653124
sS'pos_x'
p5
F-137.40930753108876
sS'pos_y'
p6
F12.917925071471586
sS'isAlive'
p7
I01
sS'cumulativeEnergy'
p8
F39.338763648267808
sS'geno'
p9
(lp10
F1.879059832491258
aF0.34573426638431659
aF-0.57660293458564882
aF4.8459688268947039
aF2.4068698259734633
aF-0.62115733502738757
asS'accel_x'
p11
F-1.8550897005429994
sS'accel_y'
p12
F-0.74742371044761835
sS'visionAngle'
p13
I150
sS'maxAccel'
p14
I2
sS'maxVel'
p15
F0.5
sS'age'
p16
I50
sS'tailSize'
p17
I0
sS'sexualgeno'
p18
NsS'tailBrigh'
p19
I0
sS'maxSteering'
p20
I30
sS'energy'
p21
F0.58865457207606009
sS'lastScale'
p22
F11.53238867243892
sb.(i__main__
Data_mobile
p1
(dp2
S'vel_y'
p3
F-0.18321081121009639
sS'vel_x'
p4
F-0.46522446050883703
sS'pos_x'
p5
F-80.871430984004448
sS'pos_y'
p6
F-26.735480467736441
sS'isAlive'
p7
I01
sS'cumulativeEnergy'
p8
F39.088790066164819
sS'geno'
p9
(lp10
F1.68488854536053
aF0.34573426638431659
aF-0.1963882611557457
aF4.0918305726565336
aF2.6844979683342944
aF-0.24663529592194788
asS'accel_x'
p11
F-1.8061346357538111
sS'accel_y'
p12
F-0.85899806608073803
sS'visionAngle'
p13
I150
sS'maxAccel'
p14
I2
sS'maxVel'
p15
F0.5
sS'age'
p16
I200
sS'tailSize'
p17
I0
sS'sexualgeno'
p18
NsS'tailBrigh'
p19
I0
sS'maxSteering'
p20
I30
sS'energy'
p21
F0.36040182559302325
sS'lastScale'
p22
F9.1040182559302316
sb.(i__main__
Data_mobile
p1
(dp2
S'vel_y'
p3
F-0.15055795827573987
sS'vel_x'
p4
F-0.47679377219070362
sS'pos_x'
p5
F-132.16704680776667
sS'pos_y'
p6
F12.787535058021497
sS'isAlive'
p7
I01
sS'cumulativeEnergy'
p8
F38.899666022353379
sS'geno'
p9
(lp10
F1.4788969826633194
aF0.34573426638431659
aF-0.26189010438835303
aF4.4247196854012385
aF2.5490725783053234
aF-0.72383320143259877
asS'accel_x'
p11
F-1.9464026640663989
sS'accel_y'
p12
F-0.45990941424939968
sS'visionAngle'
p13
I150
sS'maxAccel'
p14
I2
sS'maxVel'
p15
F0.5
sS'age'
p16
I50
sS'tailSize'
p17
I0
sS'sexualgeno'
p18
NsS'tailBrigh'
p19
I0
sS'maxSteering'
p20
I30
sS'energy'
p21
F0.75252239497971019
sS'lastScale'
p22
F13.025223949797102
sb.(i__main__
Data_mobile
p1
(dp2
S'vel_y'
p3
F-0.26123036750576878
sS'vel_x'
p4
F-0.42633167263622462
sS'pos_x'
p5
F-64.69464182155069
sS'pos_y'
p6
F55.5465291320331
sS'isAlive'
p7
I01
sS'cumulativeEnergy'
p8
F38.488046860086634
sS'geno'
p9
(lp10
F1.7340335567162957
aF0.53644229874626981
aF-0.35375472969760546
aF4.8998655045134871
aF2.8094724544002099
aF-0.76242957684459056
asS'accel_x'
p11
F-0.1592939268574815
sS'accel_y'
p12
F1.9936462687413541
sS'visionAngle'
p13
I150
sS'maxAccel'
p14
I2
sS'maxVel'
p15
F0.5
sS'age'
p16
I50
sS'tailSize'
p17
I0
sS'sexualgeno'
p18
NsS'tailBrigh'
p19
I0
sS'maxSteering'
p20
I30
sS'energy'
p21
F1
sS'lastScale'
p22
F15.5
sb.(i__main__
Data_mobile
p1
(dp2
S'vel_y'
p3
F-0.27509833758247382
sS'vel_x'
p4
F-0.4175175501213802
sS'pos_x'
p5
F-141.21089365084075
sS'pos_y'
p6
F19.685994341778944
sS'isAlive'
p7
I01
sS'cumulativeEnergy'
p8
F37.137871491776423
sS'geno'
p9
(lp10
F1.7340335567162957
aF0.34573426638431659
aF-0.97236550618827289
aF4.8459688268947039
aF2.6681169205342177
aF-0.72383320143259877
asS'accel_x'
p11
F-1.2436055577454264
sS'accel_y'
p12
F-1.566347731745632
sS'visionAngle'
p13
I150
sS'maxAccel'
p14
I2
sS'maxVel'
p15
F0.5
sS'age'
p16
I50
sS'tailSize'
p17
I0
sS'sexualgeno'
p18
NsS'tailBrigh'
p19
I0
sS'maxSteering'
p20
I30
sS'energy'
p21
F0.78853872082766219
sS'lastScale'
p22
F13.385387208276622
sb.(i__main__
Data_mobile
p1
(dp2
S'vel_y'
p3
F-0.22813748435163475
sS'vel_x'
p4
F-0.44491941768561599
sS'pos_x'
p5
F-80.325509443900856
sS'pos_y'
p6
F-26.983044606608388
sS'isAlive'
p7
I01
sS'cumulativeEnergy'
p8
F36.931245061703301
sS'geno'
p9
(lp10
F1.7340335567162957
aF0.53644229874626981
aF-0.26189010438835303
aF4.3152062264633342
aF2.6844979683342944
aF-0.76242957684459056
asS'accel_x'
p11
F-1.8038194904704499
sS'accel_y'
p12
F-0.86384908739832977
sS'visionAngle'
p13
I150
sS'maxAccel'
p14
I2
sS'maxVel'
p15
F0.5
sS'age'
p16
I50
sS'tailSize'
p17
I0
sS'sexualgeno'
p18
NsS'tailBrigh'
p19
I0
sS'maxSteering'
p20
I30
sS'energy'
p21
F0.64825676022440015
sS'lastScale'
p22
F11.982567602244004
sb.(i__main__
Data_mobile
p1
(dp2
S'vel_y'
p3
F-0.39495761025317028
sS'vel_x'
p4
F0.30660803333100201
sS'pos_x'
p5
F-151.64427642036731
sS'pos_y'
p6
F94.738290392301749
sS'isAlive'
p7
I01
sS'cumulativeEnergy'
p8
F35.732880358768121
sS'geno'
p9
(lp10
F2.2014661034293943
aF0.34573426638431659
aF-0.35375472969760546
aF4.8998655045134871
aF2.6844979683342944
aF-0.41755163827325459
asS'accel_x'
p11
F1.5031813655859791
sS'accel_y'
p12
F-1.3192595582958915
sS'visionAngle'
p13
I150
sS'maxAccel'
p14
I2
sS'maxVel'
p15
F0.5
sS'age'
p16
I150
sS'tailSize'
p17
I0
sS'sexualgeno'
p18
NsS'tailBrigh'
p19
I0
sS'maxSteering'
p20
I30
sS'energy'
p21
F0.27612019206376498
sS'lastScale'
p22
F8.2612019206376495
sb.(i__main__
Data_mobile
p1
(dp2
S'vel_y'
p3
F-0.28070093241086141
sS'vel_x'
p4
F0.41377165990878711
sS'pos_x'
p5
F-150.08719939464081
sS'pos_y'
p6
F93.181334102068007
sS'isAlive'
p7
I01
sS'cumulativeEnergy'
p8
F35.677302189042329
sS'geno'
p9
(lp10
F2.2014661034293943
aF0.76603586349764452
aF-0.57660293458564882
aF4.8459688268947039
aF2.9494833087820393
aF-0.021525341714152324
asS'accel_x'
p11
F1.9909323323424295
sS'accel_y'
p12
F-0.1902326155882148
sS'visionAngle'
p13
I150
sS'maxAccel'
p14
I2
sS'maxVel'
p15
F0.5
sS'age'
p16
I150
sS'tailSize'
p17
I0
sS'sexualgeno'
p18
NsS'tailBrigh'
p19
I0
sS'maxSteering'
p20
I30
sS'energy'
p21
F0.32612019206376497
sS'lastScale'
p22
F8.7612019206376495
sb.(i__main__
Data_mobile
p1
(dp2
S'vel_y'
p3
F0.25526552326102075
sS'vel_x'
p4
F-0.42992966010066958
sS'pos_x'
p5
F-51.226514764696262
sS'pos_y'
p6
F39.277589377884567
sS'isAlive'
p7
I01
sS'cumulativeEnergy'
p8
F35.382631441938805
sS'geno'
p9
(lp10
F1.7999669008060439
aF0.34573426638431659
aF-0.26189010438835303
aF4.3152062264633342
aF2.6844979683342944
aF-0.76242957684459056
asS'accel_x'
p11
F-1.5144957450496528
sS'accel_y'
p12
F1.3062551964399975
sS'visionAngle'
p13
I150
sS'maxAccel'
p14
I2
sS'maxVel'
p15
F0.5
sS'age'
p16
I100
sS'tailSize'
p17
I0
sS'sexualgeno'
p18
NsS'tailBrigh'
p19
I0
sS'maxSteering'
p20
I30
sS'energy'
p21
F0.15506897796399899
sS'lastScale'
p22
F7.1965327313183103
sb.(i__main__
Data_mobile
p1
(dp2
S'vel_y'
p3
F-0.32364520928980922
sS'vel_x'
p4
F-0.38112173711788677
sS'pos_x'
p5
F140.835287682738
sS'pos_y'
p6
F-47.950569409094769
sS'isAlive'
p7
I01
sS'cumulativeEnergy'
p8
F35.336626327230135
sS'geno'
p9
(lp10
F1.68488854536053
aF0.34573426638431659
aF-0.1963882611557457
aF4.4001599946093393
aF2.5490725783053234
aF-0.64487187124907452
asS'accel_x'
p11
F0.74193693094856938
sS'accel_y'
p12
F1.8572909278017318
sS'visionAngle'
p13
I150
sS'maxAccel'
p14
I2
sS'maxVel'
p15
F0.5
sS'age'
p16
I50
sS'tailSize'
p17
I0
sS'sexualgeno'
p18
NsS'tailBrigh'
p19
I0
sS'maxSteering'
p20
I30
sS'energy'
p21
F1
sS'lastScale'
p22
F15.5
sb.(i__main__
Data_mobile
p1
(dp2
S'vel_y'
p3
F-0.35892132874978006
sS'vel_x'
p4
F0.34810268566687663
sS'pos_x'
p5
F-150.87140229504678
sS'pos_y'
p6
F93.943241246743085
sS'isAlive'
p7
I01
sS'cumulativeEnergy'
p8
F35.019278843756055
sS'geno'
p9
(lp10
F1.7340335567162957
aF0.34573426638431659
aF-0.1963882611557457
aF4.0918305726565336
aF2.9494833087820393
aF-0.28574673076047152
asS'accel_x'
p11
F1.7773757634045064
sS'accel_y'
p12
F-0.91702529717682713
sS'visionAngle'
p13
I150
sS'maxAccel'
p14
I2
sS'maxVel'
p15
F0.5
sS'age'
p16
I150
sS'tailSize'
p17
I0
sS'sexualgeno'
p18
NsS'tailBrigh'
p19
I0
sS'maxSteering'
p20
I30
sS'energy'
p21
F0.27612019206376498
sS'lastScale'
p22
F8.2612019206376495
sb.(i__main__
Data_mobile
p1
(dp2
S'vel_y'
p3
F-0.32006596783687896
sS'vel_x'
p4
F0.38413249827714652
sS'pos_x'
p5
F-150.55143042518924
sS'pos_y'
p6
F93.551232167822022
sS'isAlive'
p7
I01
sS'cumulativeEnergy'
p8
F34.92631067509403
sS'geno'
p9
(lp10
F1.7340335567162957
aF0.34573426638431659
aF-0.1963882611557457
aF4.0918305726565336
aF2.4068698259734633
aF-0.40568868978320416
asS'accel_x'
p11
F1.8611313926591599
sS'accel_y'
p12
F-0.73224991584743504
sS'visionAngle'
p13
I150
sS'maxAccel'
p14
I2
sS'maxVel'
p15
F0.5
sS'age'
p16
I150
sS'tailSize'
p17
I0
sS'sexualgeno'
p18
NsS'tailBrigh'
p19
I0
sS'maxSteering'
p20
I30
sS'energy'
p21
F0.25951262837610684
sS'lastScale'
p22
F8.0951262837610685
sb.(i__main__
Data_mobile
p1
(dp2
S'vel_y'
p3
F0.39845038595606563
sS'vel_x'
p4
F-0.30205511075209834
sS'pos_x'
p5
F-111.95071904087841
sS'pos_y'
p6
F-22.48859970309098
sS'isAlive'
p7
I01
sS'cumulativeEnergy'
p8
F34.750990957561498
sS'geno'
p9
(lp10
F2.2014661034293943
aF0.34573426638431659
aF-0.35375472969760546
aF4.0918305726565336
aF2.4068698259734633
aF-0.76242957684459056
asS'accel_x'
p11
F-1.7455384129730904
sS'accel_y'
p12
F-0.9762661772464436
sS'visionAngle'
p13
I150
sS'maxAccel'
p14
I2
sS'maxVel'
p15
F0.5
sS'age'
p16
I150
sS'tailSize'
p17
I0
sS'sexualgeno'
p18
NsS'tailBrigh'
p19
I0
sS'maxSteering'
p20
I30
sS'energy'
p21
F0.79279328302629326
sS'lastScale'
p22
F13.427932830262932
sb.(i__main__
Data_mobile
p1
(dp2
S'vel_y'
p3
F-0.34947733232032979
sS'vel_x'
p4
F0.35758298924063175
sS'pos_x'
p5
F-150.5565098276636
sS'pos_y'
p6
F93.423639403277235
sS'isAlive'
p7
I01
sS'cumulativeEnergy'
p8
F34.678716997793856
sS'geno'
p9
(lp10
F2.2014661034293943
aF0.76603586349764452
aF-0.35375472969760546
aF4.8998655045134871
aF2.6844979683342944
aF-0.40568868978320416
asS'accel_x'
p11
F1.9452916349475771
sS'accel_y'
p12
F-0.46458632674991912
sS'visionAngle'
p13
I150
sS'maxAccel'
p14
I2
sS'maxVel'
p15
F0.5
sS'age'
p16
I200
sS'tailSize'
p17
I0
sS'sexualgeno'
p18
NsS'tailBrigh'
p19
I0
sS'maxSteering'
p20
I30
sS'energy'
p21
F0.2371914800955254
sS'lastScale'
p22
F7.8719148009552535
sb.(i__main__
Data_mobile
p1
(dp2
S'vel_y'
p3
F-0.26786198253551585
sS'vel_x'
p4
F0.42219658728149739
sS'pos_x'
p5
F83.085283661989862
sS'pos_y'
p6
F65.668346963165135
sS'isAlive'
p7
I01
sS'cumulativeEnergy'
p8
F34.144867258092901
sS'geno'
p9
(lp10
F1.68488854536053
aF0.83002332664185563
aF-0.35375472969760546
aF4.8998655045134871
aF2.8094724544002099
aF-0.76242957684459056
asS'accel_x'
p11
F0.79747892506769757
sS'accel_y'
p12
F1.8341285026063112
sS'visionAngle'
p13
I150
sS'maxAccel'
p14
I2
sS'maxVel'
p15
F0.5
sS'age'
p16
I200
sS'tailSize'
p17
I0
sS'sexualgeno'
p18
NsS'tailBrigh'
p19
I0
sS'maxSteering'
p20
I30
sS'energy'
p21
F1
sS'lastScale'
p22
F15.5
sb.(i__main__
Data_mobile
p1
(dp2
S'vel_y'
p3
F0.49193492964436658
sS'vel_x'
p4
F-0.089442858830608679
sS'pos_x'
p5
F82.971160807291454
sS'pos_y'
p6
F66.380442327685714
sS'isAlive'
p7
I01
sS'cumulativeEnergy'
p8
F34.09846751632201
sS'geno'
p9
(lp10
F1.7340335567162957
aF0.53644229874626981
aF-0.26189010438835303
aF4.3152062264633342
aF2.6844979683342944
aF-0.76242957684459056
asS'accel_x'
p11
F1.2880003797288
sS'accel_y'
p12
F-1.5300506598862884
sS'visionAngle'
p13
I150
sS'maxAccel'
p14
I2
sS'maxVel'
p15
F0.5
sS'age'
p16
I200
sS'tailSize'
p17
I0
sS'sexualgeno'
p18
NsS'tailBrigh'
p19
I0
sS'maxSteering'
p20
I30
sS'energy'
p21
F1
sS'lastScale'
p22
F15.5
sb.(i__main__
Data_mobile
p1
(dp2
S'vel_y'
p3
F0.39781995675315951
sS'vel_x'
p4
F0.30288493196082622
sS'pos_x'
p5
F83.786202858190279
sS'pos_y'
p6
F66.330576216087607
sS'isAlive'
p7
I01
sS'cumulativeEnergy'
p8
F34.09846751632201
sS'geno'
p9
(lp10
F1.9106113726602807
aF0.34573426638431659
aF-0.1963882611557457
aF4.0918305726565336
aF2.5761477760607043
aF-1.0550204000336769
asS'accel_x'
p11
F-1.6418337432938261
sS'accel_y'
p12
F-1.1420954248143109
sS'visionAngle'
p13
I150
sS'maxAccel'
p14
I2
sS'maxVel'
p15
F0.5
sS'age'
p16
I200
sS'tailSize'
p17
I0
sS'sexualgeno'
p18
NsS'tailBrigh'
p19
I0
sS'maxSteering'
p20
I30
sS'energy'
p21
F1
sS'lastScale'
p22
F15.5
sb.(i__main__
Data_mobile
p1
(dp2
S'vel_y'
p3
F-0.3886530952535997
sS'vel_x'
p4
F0.31456123656578588
sS'pos_x'
p5
F-151.69792864182543
sS'pos_y'
p6
F94.805346355596271
sS'isAlive'
p7
I01
sS'cumulativeEnergy'
p8
F33.595208071904523
sS'geno'
p9
(lp10
F1.4788969826633194
aF0.34573426638431659
aF-0.97236550618827289
aF3.8447234834643278
aF3.1318485990441562
aF-0.24663529592194788
asS'accel_x'
p11
F1.5124636841003165
sS'accel_y'
p12
F-1.3086075058158955
sS'visionAngle'
p13
I150
sS'maxAccel'
p14
I2
sS'maxVel'
p15
F0.5
sS'age'
p16
I200
sS'tailSize'
p17
I0
sS'sexualgeno'
p18
NsS'tailBrigh'
p19
I0
sS'maxSteering'
p20
I30
sS'energy'
p21
F0.22050914228846211
sS'lastScale'
p22
F7.705091422884621
sb.(i__main__
Data_mobile
p1
(dp2
S'vel_y'
p3
F-0.46980576105419491
sS'vel_x'
p4
F0.17112143898497556
sS'pos_x'
p5
F-155.70132845130266
sS'pos_y'
p6
F100.57511983932334
sS'isAlive'
p7
I01
sS'cumulativeEnergy'
p8
F33.03739751834086
sS'geno'
p9
(lp10
F1.7340335567162957
aF-0.07994637261411508
aF0.0067080804860358834
aF4.8998655045134871
aF2.6844979683342944
aF-0.61207814738848654
asS'accel_x'
p11
F0.83641147745547506
sS'accel_y'
p12
F-1.8167046651508192
sS'visionAngle'
p13
I150
sS'maxAccel'
p14
I2
sS'maxVel'
p15
F0.5
sS'age'
p16
I150
sS'tailSize'
p17
I0
sS'sexualgeno'
p18
NsS'tailBrigh'
p19
I0
sS'maxSteering'
p20
I30
sS'energy'
p21
F0.20545795379751056
sS'lastScale'
p22
F7.5545795379751048
sb.(i__main__
Data_mobile
p1
(dp2
S'vel_y'
p3
F-0.23809390697548535
sS'vel_x'
p4
F-0.43967179971104459
sS'pos_x'
p5
F-114.36927524069678
sS'pos_y'
p6
F-29.129712266987049
sS'isAlive'
p7
I01
sS'cumulativeEnergy'
p8
F32.963055242809205
sS'geno'
p9
(lp10
F1.9106113726602807
aF0.34573426638431659
aF-0.1963882611557457
aF4.0918305726565336
aF2.6844979683342944
aF-0.61207814738848654
asS'accel_x'
p11
F-1.8547444301982068
sS'accel_y'
p12
F-0.74828009371406445
sS'visionAngle'
p13
I150
sS'maxAccel'
p14
I2
sS'maxVel'
p15
F0.5
sS'age'
p16
I50
sS'tailSize'
p17
I0
sS'sexualgeno'
p18
NsS'tailBrigh'
p19
I0
sS'maxSteering'
p20
I30
sS'energy'
p21
F0.90950065341584285
sS'lastScale'
p22
F14.595006534158427
sb.(i__main__
Data_mobile
p1
(dp2
S'vel_y'
p3
F-0.29786504107813105
sS'vel_x'
p4
F-0.40159235214770128
sS'pos_x'
p5
F-112.87377215507712
sS'pos_y'
p6
F-29.436766481636607
sS'isAlive'
p7
I01
sS'cumulativeEnergy'
p8
F30.632097686777243
sS'geno'
p9
(lp10
F1.4788969826633194
aF0.34573426638431659
aF-0.57660293458564882
aF4.8459688268947039
aF2.4068698259734633
aF-0.76242957684459056
asS'accel_x'
p11
F-1.6307203696283965
sS'accel_y'
p12
F-1.1579080602876142
sS'visionAngle'
p13
I150
sS'maxAccel'
p14
I2
sS'maxVel'
p15
F0.5
sS'age'
p16
I50
sS'tailSize'
p17
I0
sS'sexualgeno'
p18
NsS'tailBrigh'
p19
I0
sS'maxSteering'
p20
I30
sS'energy'
p21
F0.84939947978609309
sS'lastScale'
p22
F13.993994797860932
sb.(i__main__
Data_mobile
p1
(dp2
S'vel_y'
p3
F-0.3229837491757534
sS'vel_x'
p4
F-0.38168245672073275
sS'pos_x'
p5
F-142.2254331135691
sS'pos_y'
p6
F18.631420500744213
sS'isAlive'
p7
I01
sS'cumulativeEnergy'
p8
F28.329651740717885
sS'geno'
p9
(lp10
F1.68488854536053
aF0.53644229874626981
aF-0.26189010438835303
aF4.1534763615517463
aF2.7868306123791822
aF-0.76242957684459056
asS'accel_x'
p11
F-1.4195297954519797
sS'accel_y'
p12
F-1.4088772692552254
sS'visionAngle'
p13
I150
sS'maxAccel'
p14
I2
sS'maxVel'
p15
F0.5
sS'age'
p16
I50
sS'tailSize'
p17
I0
sS'sexualgeno'
p18
NsS'tailBrigh'
p19
I0
sS'maxSteering'
p20
I30
sS'energy'
p21
F0.57546163274201911
sS'lastScale'
p22
F11.254616327420191
sb.(i__main__
Data_mobile
p1
(dp2
S'vel_y'
p3
F-0.48520881991655074
sS'vel_x'
p4
F-0.12071620054983594
sS'pos_x'
p5
F-174.46944254880296
sS'pos_y'
p6
F38.621395736138211
sS'isAlive'
p7
I01
sS'cumulativeEnergy'
p8
F27.144157264503402
sS'geno'
p9
(lp10
F1.68488854536053
aF0.77576084970688997
aF-0.1963882611557457
aF3.6245557501965164
aF2.6265131425489683
aF-0.61207814738848654
asS'accel_x'
p11
F0.28980878382477165
sS'accel_y'
p12
F-1.9788913231448579
sS'visionAngle'
p13
I150
sS'maxAccel'
p14
I2
sS'maxVel'
p15
F0.5
sS'age'
p16
I100
sS'tailSize'
p17
I0
sS'sexualgeno'
p18
NsS'tailBrigh'
p19
I0
sS'maxSteering'
p20
I30
sS'energy'
p21
F0.25961459281481919
sS'lastScale'
p22
F8.0961459281481929
sb.(i__main__
Data_mobile
p1
(dp2
S'vel_y'
p3
F0.2031895468930513
sS'vel_x'
p4
F-0.45685228250868631
sS'pos_x'
p5
F-178.5212896779563
sS'pos_y'
p6
F66.314723079943818
sS'isAlive'
p7
I01
sS'cumulativeEnergy'
p8
F25.885473858612105
sS'geno'
p9
(lp10
F1.68488854536053
aF-0.07994637261411508
aF0.0067080804860358834
aF4.0918305726565336
aF2.4068698259734633
aF-0.35436108682617551
asS'accel_x'
p11
F-1.8130109529288718
sS'accel_y'
p12
F0.844388112516954
sS'visionAngle'
p13
I150
sS'maxAccel'
p14
I2
sS'maxVel'
p15
F0.5
sS'age'
p16
I100
sS'tailSize'
p17
I0
sS'sexualgeno'
p18
NsS'tailBrigh'
p19
I0
sS'maxSteering'
p20
I30
sS'energy'
p21
F0.21964146208234375
sS'lastScale'
p22
F7.696414620823437
sb.(i__main__
Data_mobile
p1
(dp2
S'vel_y'
p3
F-0.29752698827313812
sS'vel_x'
p4
F0.40184286885437687
sS'pos_x'
p5
F-109.67120627459367
sS'pos_y'
p6
F-25.847925973102015
sS'isAlive'
p7
I01
sS'cumulativeEnergy'
p8
F24.9713603392089
sS'geno'
p9
(lp10
F1.68488854536053
aF0.34573426638431659
aF-0.26189010438835303
aF4.3152062264633342
aF2.5490725783053234
aF-0.64487187124907452
asS'accel_x'
p11
F-1.6978762844607562
sS'accel_y'
p12
F-1.0569844476934069
sS'visionAngle'
p13
I150
sS'maxAccel'
p14
I2
sS'maxVel'
p15
F0.5
sS'age'
p16
I50
sS'tailSize'
p17
I0
sS'sexualgeno'
p18
NsS'tailBrigh'
p19
I0
sS'maxSteering'
p20
I30
sS'energy'
p21
F0.73815558659465008
sS'lastScale'
p22
F12.881555865946501
sb.(i__main__
Data_mobile
p1
(dp2
S'vel_y'
p3
F-0.44516901982933899
sS'vel_x'
p4
F-0.22765004674760253
sS'pos_x'
p5
F-173.58784615288215
sS'pos_y'
p6
F37.991366458879085
sS'isAlive'
p7
I01
sS'cumulativeEnergy'
p8
F21.864033340448998
sS'geno'
p9
(lp10
F1.68488854536053
aF-0.07994637261411508
aF0.0067080804860358834
aF4.0918305726565336
aF2.4068698259734633
aF-0.76242957684459056
asS'accel_x'
p11
F0.11018754228748447
sS'accel_y'
p12
F-1.9969623695815211
sS'visionAngle'
p13
I150
sS'maxAccel'
p14
I2
sS'maxVel'
p15
F0.5
sS'age'
p16
I150
sS'tailSize'
p17
I0
sS'sexualgeno'
p18
NsS'tailBrigh'
p19
I0
sS'maxSteering'
p20
I30
sS'energy'
p21
F0.073052325460687989
sS'lastScale'
p22
F6.2305232546068794
sb.(i__main__
Data_mobile
p1
(dp2
S'vel_y'
p3
F0.1678105261814988
sS'vel_x'
p4
F-0.47099854278191616
sS'pos_x'
p5
F-55.227489918455589
sS'pos_y'
p6
F30.127855963930148
sS'isAlive'
p7
I01
sS'cumulativeEnergy'
p8
F21.825120264822925
sS'geno'
p9
(lp10
F1.68488854536053
aF0.34573426638431659
aF-0.26189010438835303
aF4.3152062264633342
aF2.5490725783053234
aF-0.76242957684459056
asS'accel_x'
p11
F-1.9173221249040808
sS'accel_y'
p12
F0.56910093072608803
sS'visionAngle'
p13
I150
sS'maxAccel'
p14
I2
sS'maxVel'
p15
F0.5
sS'age'
p16
I50
sS'tailSize'
p17
I0
sS'sexualgeno'
p18
NsS'tailBrigh'
p19
I0
sS'maxSteering'
p20
I30
sS'energy'
p21
F0.23778250149262412
sS'lastScale'
p22
F7.8778250149262412
sb.(i__main__
Data_mobile
p1
(dp2
S'vel_y'
p3
F-0.48846697811518219
sS'vel_x'
p4
F0.10677083539535534
sS'pos_x'
p5
F-151.3312708190013
sS'pos_y'
p6
F95.390178458889253
sS'isAlive'
p7
I01
sS'cumulativeEnergy'
p8
F21.791356819168055
sS'geno'
p9
(lp10
F1.7340335567162957
aF0.53675950380069926
aF-0.26189010438835303
aF4.3152062264633342
aF2.6844979683342944
aF-0.40568868978320416
asS'accel_x'
p11
F0.99607029216440968
sS'accel_y'
p12
F-1.7343136893502014
sS'visionAngle'
p13
I150
sS'maxAccel'
p14
I2
sS'maxVel'
p15
F0.5
sS'age'
p16
I50
sS'tailSize'
p17
I0
sS'sexualgeno'
p18
NsS'tailBrigh'
p19
I0
sS'maxSteering'
p20
I30
sS'energy'
p21
F0.22741436459905495
sS'lastScale'
p22
F7.7741436459905495
sb.(i__main__
Data_mobile
p1
(dp2
S'vel_y'
p3
F-0.33012970453279922
sS'vel_x'
p4
F-0.37551881202555848
sS'pos_x'
p5
F-152.18597283168586
sS'pos_y'
p6
F-69.54530675857076
sS'isAlive'
p7
I01
sS'cumulativeEnergy'
p8
F20.981245061703284
sS'geno'
p9
(lp10
F1.7340335567162957
aF0.34573426638431659
aF-0.26189010438835303
aF4.0204400347475966
aF2.4474488989397294
aF-0.41755163827325459
asS'accel_x'
p11
F-1.5053222070235546
sS'accel_y'
p12
F-1.3168162563705443
sS'visionAngle'
p13
I150
sS'maxAccel'
p14
I2
sS'maxVel'
p15
F0.5
sS'age'
p16
I50
sS'tailSize'
p17
I0
sS'sexualgeno'
p18
NsS'tailBrigh'
p19
I0
sS'maxSteering'
p20
I30
sS'energy'
p21
F0.34825676022439944
sS'lastScale'
p22
F8.9825676022439946
sb.(i__main__
Data_mobile
p1
(dp2
S'vel_y'
p3
F0.30238089426608278
sS'vel_x'
p4
F-0.39820320790124741
sS'pos_x'
p5
F-50.759847193907213
sS'pos_y'
p6
F42.925596506465766
sS'isAlive'
p7
I01
sS'cumulativeEnergy'
p8
F17.731245061703284
sS'geno'
p9
(lp10
F1.68488854536053
aF0.34573426638431659
aF-0.1963882611557457
aF4.0918305726565336
aF2.6844979683342944
aF-0.24663529592194788
asS'accel_x'
p11
F-1.5730838436747543
sS'accel_y'
p12
F1.2350737713875479
sS'visionAngle'
p13
I150
sS'maxAccel'
p14
I2
sS'maxVel'
p15
F0.5
sS'age'
p16
I50
sS'tailSize'
p17
I0
sS'sexualgeno'
p18
NsS'tailBrigh'
p19
I0
sS'maxSteering'
p20
I30
sS'energy'
p21
F0.14825676022439971
sS'lastScale'
p22
F6.9825676022439973
sb.(i__main__
Data_mobile
p1
(dp2
S'vel_y'
p3
F0.059128962656277151
sS'vel_x'
p4
F-0.49649145589344496
sS'pos_x'
p5
F-65.254301146275878
sS'pos_y'
p6
F56.080006026166487
sS'isAlive'
p7
I01
sS'cumulativeEnergy'
p8
F17.481245061703291
sS'geno'
p9
(lp10
F1.4788969826633194
aF0.34573426638431659
aF-0.39201022821217135
aF4.8459688268947039
aF2.4068698259734633
aF-0.62115733502738757
asS'accel_x'
p11
F1.7705127009417998
sS'accel_y'
p12
F-0.93020684570893875
sS'visionAngle'
p13
I150
sS'maxAccel'
p14
I2
sS'maxVel'
p15
F0.5
sS'age'
p16
I50
sS'tailSize'
p17
I0
sS'sexualgeno'
p18
NsS'tailBrigh'
p19
I0
sS'maxSteering'
p20
I30
sS'energy'
p21
F0.7482567602243998
sS'lastScale'
p22
F12.982567602244
sb.(i__main__
Data_mobile
p1
(dp2
S'vel_y'
p3
F-0.24017765866985724
sS'vel_x'
p4
F-0.43853699077257502
sS'pos_x'
p5
F-114.76239905936264
sS'pos_y'
p6
F-27.557910987126821
sS'isAlive'
p7
I01
sS'cumulativeEnergy'
p8
F16.481245061703291
sS'geno'
p9
(lp10
F1.6578347977897803
aF0.83002332664185563
aF-0.35375472969760546
aF4.8998655045134871
aF2.4987287798226276
aF-0.72383320143259877
asS'accel_x'
p11
F-1.8526475959364326
sS'accel_y'
p12
F-0.75345662467786212
sS'visionAngle'
p13
I150
sS'maxAccel'
p14
I2
sS'maxVel'
p15
F0.5
sS'age'
p16
I50
sS'tailSize'
p17
I0
sS'sexualgeno'
p18
NsS'tailBrigh'
p19
I0
sS'maxSteering'
p20
I30
sS'energy'
p21
F0.19825676022439961
sS'lastScale'
p22
F7.4825676022439964
sb.(i__main__
Data_mobile
p1
(dp2
S'vel_y'
p3
F-0.30397567234020167
sS'vel_x'
p4
F-0.39698714163726051
sS'pos_x'
p5
F-139.79069626032879
sS'pos_y'
p6
F17.9811550999312
sS'isAlive'
p7
I01
sS'cumulativeEnergy'
p8
F14.281245061703293
sS'geno'
p9
(lp10
F1.68488854536053
aF0.77576084970688997
aF-0.1963882611557457
aF4.0918305726565336
aF2.6844979683342944
aF-0.24663529592194788
asS'accel_x'
p11
F-1.5751998203303064
sS'accel_y'
p12
F-1.2323739392048867
sS'visionAngle'
p13
I150
sS'maxAccel'
p14
I2
sS'maxVel'
p15
F0.5
sS'age'
p16
I50
sS'tailSize'
p17
I0
sS'sexualgeno'
p18
NsS'tailBrigh'
p19
I0
sS'maxSteering'
p20
I30
sS'energy'
p21
F0.098256760224399664
sS'lastScale'
p22
F6.4825676022439964
sb.(i__main__
Data_mobile
p1
(dp2
S'vel_y'
p3
F-0.29750133845085741
sS'vel_x'
p4
F-0.4018618588768389
sS'pos_x'
p5
F-139.31781843610329
sS'pos_y'
p6
F20.884437774722528
sS'isAlive'
p7
I01
sS'cumulativeEnergy'
p8
F13.281245061703293
sS'geno'
p9
(lp10
F1.68488854536053
aF0.34573426638431659
aF-0.1963882611557457
aF3.6245557501965164
aF2.6265131425489683
aF-0.61855470569988935
asS'accel_x'
p11
F-1.5969500147798403
sS'accel_y'
p12
F-1.2040559165980071
sS'visionAngle'
p13
I150
sS'maxAccel'
p14
I2
sS'maxVel'
p15
F0.5
sS'age'
p16
I50
sS'tailSize'
p17
I0
sS'sexualgeno'
p18
NsS'tailBrigh'
p19
I0
sS'maxSteering'
p20
I30
sS'energy'
p21
F0.048256760224399661
sS'lastScale'
p22
F5.9825676022439964
sb.(i__main__
Data_mobile
p1
(dp2
S'vel_y'
p3
F-0.019408760377875377
sS'vel_x'
p4
F-0.49962315801070933
sS'pos_x'
p5
F152.58973522703687
sS'pos_y'
p6
F-47.049508876901903
sS'isAlive'
p7
I01
sS'cumulativeEnergy'
p8
F12.231245061703294
sS'geno'
p9
(lp10
F2.2014661034293943
aF0.23021131069126355
aF-0.26189010438835303
aF4.0918305726565336
aF2.6844979683342944
aF-0.24663529592194788
asS'accel_x'
p11
F-1.9955513067727524
sS'accel_y'
p12
F-0.13332284889530782
sS'visionAngle'
p13
I150
sS'maxAccel'
p14
I2
sS'maxVel'
p15
F0.5
sS'age'
p16
I50
sS'tailSize'
p17
I0
sS'sexualgeno'
p18
NsS'tailBrigh'
p19
I0
sS'maxSteering'
p20
I30
sS'energy'
p21
I0
sS'lastScale'
p22
F5.5
sb.(i__main__
Data_mobile
p1
(dp2
S'vel_y'
p3
F-0.49023159794819088
sS'vel_x'
p4
F-0.098351310988533752
sS'pos_x'
p5
F-174.11297032613339
sS'pos_y'
p6
F37.938306212751144
sS'isAlive'
p7
I01
sS'cumulativeEnergy'
p8
F12.231245061703294
sS'geno'
p9
(lp10
F1.4788969826633194
aF0.34573426638431659
aF-0.1963882611557457
aF3.6245557501965164
aF2.6265131425489683
aF-0.58945734600473765
asS'accel_x'
p11
F0.77236362005586723
sS'accel_y'
p12
F-1.8448453697841987
sS'visionAngle'
p13
I150
sS'maxAccel'
p14
I2
sS'maxVel'
p15
F0.5
sS'age'
p16
I50
sS'tailSize'
p17
I0
sS'sexualgeno'
p18
NsS'tailBrigh'
p19
I0
sS'maxSteering'
p20
I30
sS'energy'
p21
F0.050000000000000003
sS'lastScale'
p22
F6
sb.(i__main__
Data_mobile
p1
(dp2
S'vel_y'
p3
F-0.36096883481078745
sS'vel_x'
p4
F-0.34597904603507773
sS'pos_x'
p5
F-82.093305308597394
sS'pos_y'
p6
F-46.981755027374653
sS'isAlive'
p7
I01
sS'cumulativeEnergy'
p8
F12.231245061703294
sS'geno'
p9
(lp10
F1.68488854536053
aF0.34573426638431659
aF-0.1963882611557457
aF4.0918305726565336
aF2.6844979683342944
aF-0.55261483943910905
asS'accel_x'
p11
F-0.54631205807046279
sS'accel_y'
p12
F-0.083224371281059209
sS'visionAngle'
p13
I150
sS'maxAccel'
p14
I2
sS'maxVel'
p15
F0.5
sS'age'
p16
I50
sS'tailSize'
p17
I0
sS'sexualgeno'
p18
NsS'tailBrigh'
p19
I0
sS'maxSteering'
p20
I30
sS'energy'
p21
I0
sS'lastScale'
p22
F5.5
sb.(i__main__
Data_mobile
p1
(dp2
S'vel_y'
p3
F-0.48030282488758574
sS'vel_x'
p4
F-0.1389575345384523
sS'pos_x'
p5
F-173.93223203077724
sS'pos_y'
p6
F38.157449717306548
sS'isAlive'
p7
I01
sS'cumulativeEnergy'
p8
F12.231245061703294
sS'geno'
p9
(lp10
F1.7340335567162957
aF0.34573426638431659
aF-0.97236550618827289
aF4.8459688268947039
aF2.0986253234910341
aF-0.40568868978320416
asS'accel_x'
p11
F0.49679907780130794
sS'accel_y'
p12
F-1.9373153270172023
sS'visionAngle'
p13
I150
sS'maxAccel'
p14
I2
sS'maxVel'
p15
F0.5
sS'age'
p16
I50
sS'tailSize'
p17
I0
sS'sexualgeno'
p18
NsS'tailBrigh'
p19
I0
sS'maxSteering'
p20
I30
sS'energy'
p21
F0.050000000000000003
sS'lastScale'
p22
F6
sb.(i__main__
Data_mobile
p1
(dp2
S'vel_y'
p3
F0.21508034735726211
sS'vel_x'
p4
F-0.45137616704992245
sS'pos_x'
p5
F-179.18755020308402
sS'pos_y'
p6
F66.362911996582483
sS'isAlive'
p7
I01
sS'cumulativeEnergy'
p8
F12.231245061703294
sS'geno'
p9
(lp10
F2.2014661034293943
aF0.34573426638431659
aF-0.35375472969760546
aF4.0918305726565336
aF2.4068698259734633
aF-0.62115733502738757
asS'accel_x'
p11
F-1.7553767017622997
sS'accel_y'
p12
F0.95846368471116861
sS'visionAngle'
p13
I150
sS'maxAccel'
p14
I2
sS'maxVel'
p15
F0.5
sS'age'
p16
I50
sS'tailSize'
p17
I0
sS'sexualgeno'
p18
NsS'tailBrigh'
p19
I0
sS'maxSteering'
p20
I30
sS'energy'
p21
I0
sS'lastScale'
p22
F5.5
sb.(i__main__
Data_mobile
p1
(dp2
S'vel_y'
p3
F-0.49928853401369161
sS'vel_x'
p4
F0.026663829478503369
sS'pos_x'
p5
F-173.98802978849221
sS'pos_y'
p6
F37.145993870680854
sS'isAlive'
p7
I01
sS'cumulativeEnergy'
p8
F12.231245061703294
sS'geno'
p9
(lp10
F1.68488854536053
aF0.77576084970688997
aF-0.57660293458564882
aF4.8459688268947039
aF2.3109414191284681
aF-0.62115733502738757
asS'accel_x'
p11
F1.9494350776050473
sS'accel_y'
p12
F-0.44688127976343184
sS'visionAngle'
p13
I150
sS'maxAccel'
p14
I2
sS'maxVel'
p15
F0.5
sS'age'
p16
I50
sS'tailSize'
p17
I0
sS'sexualgeno'
p18
NsS'tailBrigh'
p19
I0
sS'maxSteering'
p20
I30
sS'energy'
p21
F0.050000000000000003
sS'lastScale'
p22
F6
sb.(i__main__
Data_mobile
p1
(dp2
S'vel_y'
p3
F-0.24983538366574376
sS'vel_x'
p4
F-0.43270713405121825
sS'pos_x'
p5
F-100.10047658110921
sS'pos_y'
p6
F-26.409056600754532
sS'isAlive'
p7
I01
sS'cumulativeEnergy'
p8
F0.5
sS'geno'
p9
(lp10
F1.68488854536053
aF0.34573426638431659
aF-0.26189010438835303
aF4.3152062264633342
aF2.5490725783053234
aF-0.61207814738848654
asS'accel_x'
p11
F0
sS'accel_y'
p12
F0
sS'visionAngle'
p13
I150
sS'maxAccel'
p14
I2
sS'maxVel'
p15
F0.5
sS'age'
p16
I0
sS'tailSize'
p17
I0
sS'sexualgeno'
p18
NsS'tailBrigh'
p19
I0
sS'maxSteering'
p20
I30
sS'energy'
p21
F0.5
sS'lastScale'
p22
F5.5
sb.(i__main__
Data_mobile
p1
(dp2
S'vel_y'
p3
F-0.20749565177810492
sS'vel_x'
p4
F-0.44909313525225414
sS'pos_x'
p5
F-106.78603073393896
sS'pos_y'
p6
F-26.483652830507609
sS'isAlive'
p7
I01
sS'cumulativeEnergy'
p8
F0.5
sS'geno'
p9
(lp10
F1.4788969826633194
aF-0.04366608436777053
aF-0.57660293458564882
aF4.8459688268947039
aF2.9494833087820393
aF-0.72383320143259877
asS'accel_x'
p11
F0
sS'accel_y'
p12
F0
sS'visionAngle'
p13
I150
sS'maxAccel'
p14
I2
sS'maxVel'
p15
F0.5
sS'age'
p16
I0
sS'tailSize'
p17
I0
sS'sexualgeno'
p18
NsS'tailBrigh'
p19
I0
sS'maxSteering'
p20
I30
sS'energy'
p21
F0.5
sS'lastScale'
p22
F5.5
sb.(i__main__
Data_mobile
p1
(dp2
S'vel_y'
p3
F-0.38184890053690385
sS'vel_x'
p4
F-0.31806047190751485
sS'pos_x'
p5
F-150.45993412447123
sS'pos_y'
p6
F-65.867186489138348
sS'isAlive'
p7
I01
sS'cumulativeEnergy'
p8
F0.5
sS'geno'
p9
(lp10
F2.1024149392065721
aF0.34573426638431659
aF-0.1963882611557457
aF4.0918305726565336
aF2.6844979683342944
aF-0.61207814738848654
asS'accel_x'
p11
F0
sS'accel_y'
p12
F0
sS'visionAngle'
p13
I150
sS'maxAccel'
p14
I2
sS'maxVel'
p15
F0.5
sS'age'
p16
I0
sS'tailSize'
p17
I0
sS'sexualgeno'
p18
NsS'tailBrigh'
p19
I0
sS'maxSteering'
p20
I30
sS'energy'
p21
F0.5
sS'lastScale'
p22
F5.5
sb.(i__main__
Data_mobile
p1
(dp2
S'vel_y'
p3
F-0.36600371764674655
sS'vel_x'
p4
F-0.33528525514456065
sS'pos_x'
p5
F-155.12156954226677
sS'pos_y'
p6
F-67.978074302384726
sS'isAlive'
p7
I01
sS'cumulativeEnergy'
p8
F0.5
sS'geno'
p9
(lp10
F1.68488854536053
aF0.34573426638431659
aF-0.1963882611557457
aF4.0918305726565336
aF2.6844979683342944
aF-0.61207814738848654
asS'accel_x'
p11
F0
sS'accel_y'
p12
F0
sS'visionAngle'
p13
I150
sS'maxAccel'
p14
I2
sS'maxVel'
p15
F0.5
sS'age'
p16
I0
sS'tailSize'
p17
I0
sS'sexualgeno'
p18
NsS'tailBrigh'
p19
I0
sS'maxSteering'
p20
I30
sS'energy'
p21
F0.5
sS'lastScale'
p22
F5.5
sb.(i__main__
Data_mobile
p1
(dp2
S'vel_y'
p3
F-0.21430011954779191
sS'vel_x'
p4
F-0.44223338104030457
sS'pos_x'
p5
F-40.615322529514508
sS'pos_y'
p6
F-32.69997455917126
sS'isAlive'
p7
I01
sS'cumulativeEnergy'
p8
F0.5
sS'geno'
p9
(lp10
F1.68488854536053
aF0.41898728901790916
aF0.091405357281225008
aF3.7529736694476004
aF2.6844979683342944
aF-0.61207814738848654
asS'accel_x'
p11
F0
sS'accel_y'
p12
F0
sS'visionAngle'
p13
I150
sS'maxAccel'
p14
I2
sS'maxVel'
p15
F0.5
sS'age'
p16
I0
sS'tailSize'
p17
I0
sS'sexualgeno'
p18
NsS'tailBrigh'
p19
I0
sS'maxSteering'
p20
I30
sS'energy'
p21
F0.5
sS'lastScale'
p22
F5.5
sb.(i__main__
Data_mobile
p1
(dp2
S'vel_y'
p3
F-0.29027675131086955
sS'vel_x'
p4
F-0.40355647938759126
sS'pos_x'
p5
F-152.41477798868934
sS'pos_y'
p6
F-69.680406906283238
sS'isAlive'
p7
I01
sS'cumulativeEnergy'
p8
F0.5
sS'geno'
p9
(lp10
F1.9106113726602807
aF0.34573426638431659
aF-0.1963882611557457
aF4.8998655045134871
aF2.6844979683342944
aF-0.61207814738848654
asS'accel_x'
p11
F0
sS'accel_y'
p12
F0
sS'visionAngle'
p13
I150
sS'maxAccel'
p14
I2
sS'maxVel'
p15
F0.5
sS'age'
p16
I0
sS'tailSize'
p17
I0
sS'sexualgeno'
p18
NsS'tailBrigh'
p19
I0
sS'maxSteering'
p20
I30
sS'energy'
p21
F0.5
sS'lastScale'
p22
F5.5
sb.(i__main__
Data_mobile
p1
(dp2
S'vel_y'
p3
F0.23445504147373675
sS'vel_x'
p4
F-0.32127637746170479
sS'pos_x'
p5
F-149.85051444373542
sS'pos_y'
p6
F-15.775928875657442
sS'isAlive'
p7
I01
sS'cumulativeEnergy'
p8
F0.5
sS'geno'
p9
(lp10
F1.68488854536053
aF0.77576084970688997
aF-0.1963882611557457
aF4.0918305726565336
aF2.0986253234910341
aF-0.26865816787339558
asS'accel_x'
p11
F0
sS'accel_y'
p12
F0
sS'visionAngle'
p13
I150
sS'maxAccel'
p14
I2
sS'maxVel'
p15
F0.5
sS'age'
p16
I0
sS'tailSize'
p17
I0
sS'sexualgeno'
p18
NsS'tailBrigh'
p19
I0
sS'maxSteering'
p20
I30
sS'energy'
p21
F0.5
sS'lastScale'
p22
F5.5
sb.(i__main__
Data_mobile
p1
(dp2
S'vel_y'
p3
F-0.39343817903280121
sS'vel_x'
p4
F-0.30854461541263906
sS'pos_x'
p5
F-154.78213817250193
sS'pos_y'
p6
F-70.566227465067726
sS'isAlive'
p7
I01
sS'cumulativeEnergy'
p8
F0.5
sS'geno'
p9
(lp10
F2.1024149392065721
aF0.34573426638431659
aF-0.1963882611557457
aF4.0918305726565336
aF2.6844979683342944
aF-0.24663529592194788
asS'accel_x'
p11
F0
sS'accel_y'
p12
F0
sS'visionAngle'
p13
I150
sS'maxAccel'
p14
I2
sS'maxVel'
p15
F0.5
sS'age'
p16
I0
sS'tailSize'
p17
I0
sS'sexualgeno'
p18
NsS'tailBrigh'
p19
I0
sS'maxSteering'
p20
I30
sS'energy'
p21
F0.5
sS'lastScale'
p22
F5.5
sb.(i__main__
Data_mobile
p1
(dp2
S'vel_y'
p3
F-0.21863957712567686
sS'vel_x'
p4
F-0.44587300697010934
sS'pos_x'
p5
F-114.9949818517704
sS'pos_y'
p6
F-27.303052867227684
sS'isAlive'
p7
I01
sS'cumulativeEnergy'
p8
F0.5
sS'geno'
p9
(lp10
F1.4704445757067788
aF0.34573426638431659
aF-0.1963882611557457
aF4.0918305726565336
aF2.6844979683342944
aF-0.61207814738848654
asS'accel_x'
p11
F0
sS'accel_y'
p12
F0
sS'visionAngle'
p13
I150
sS'maxAccel'
p14
I2
sS'maxVel'
p15
F0.5
sS'age'
p16
I0
sS'tailSize'
p17
I0
sS'sexualgeno'
p18
NsS'tailBrigh'
p19
I0
sS'maxSteering'
p20
I30
sS'energy'
p21
F0.5
sS'lastScale'
p22
F5.5
sb.(i__main__
Data_mobile
p1
(dp2
S'vel_y'
p3
F-0.2121244624967342
sS'vel_x'
p4
F-0.44922005293790873
sS'pos_x'
p5
F-114.90389970877793
sS'pos_y'
p6
F-27.373985773183215
sS'isAlive'
p7
I01
sS'cumulativeEnergy'
p8
F0.5
sS'geno'
p9
(lp10
F1.68488854536053
aF0.34573426638431659
aF-0.26189010438835303
aF3.8354840959187437
aF2.5490725783053234
aF-0.64487187124907452
asS'accel_x'
p11
F0
sS'accel_y'
p12
F0
sS'visionAngle'
p13
I150
sS'maxAccel'
p14
I2
sS'maxVel'
p15
F0.5
sS'age'
p16
I0
sS'tailSize'
p17
I0
sS'sexualgeno'
p18
NsS'tailBrigh'
p19
I0
sS'maxSteering'
p20
I30
sS'energy'
p21
F0.5
sS'lastScale'
p22
F5.5
sb.(i__main__
Data_mobile
p1
(dp2
S'vel_y'
p3
F-0.30971906525128284
sS'vel_x'
p4
F-0.38521339976766372
sS'pos_x'
p5
F-143.83226079578438
sS'pos_y'
p6
F3.0693133718901802
sS'isAlive'
p7
I01
sS'cumulativeEnergy'
p8
F0.5
sS'geno'
p9
(lp10
F1.7340335567162957
aF0.34573426638431659
aF-0.97236550618827289
aF4.0918305726565336
aF2.9671900376474696
aF-0.24663529592194788
asS'accel_x'
p11
F0
sS'accel_y'
p12
F0
sS'visionAngle'
p13
I150
sS'maxAccel'
p14
I2
sS'maxVel'
p15
F0.5
sS'age'
p16
I0
sS'tailSize'
p17
I0
sS'sexualgeno'
p18
NsS'tailBrigh'
p19
I0
sS'maxSteering'
p20
I30
sS'energy'
p21
F0.5
sS'lastScale'
p22
F5.5
sb.(i__main__
Data_mobile
p1
(dp2
S'vel_y'
p3
F-0.30484332317797191
sS'vel_x'
p4
F-0.39380866001676862
sS'pos_x'
p5
F-114.95333126697875
sS'pos_y'
p6
F-27.726636107701943
sS'isAlive'
p7
I01
sS'cumulativeEnergy'
p8
F0.5
sS'geno'
p9
(lp10
F1.68488854536053
aF0.34573426638431659
aF-0.26189010438835303
aF4.3152062264633342
aF2.8885399636114846
aF-0.64487187124907452
asS'accel_x'
p11
F0
sS'accel_y'
p12
F0
sS'visionAngle'
p13
I150
sS'maxAccel'
p14
I2
sS'maxVel'
p15
F0.5
sS'age'
p16
I0
sS'tailSize'
p17
I0
sS'sexualgeno'
p18
NsS'tailBrigh'
p19
I0
sS'maxSteering'
p20
I30
sS'energy'
p21
F0.5
sS'lastScale'
p22
F5.5
sb.(i__main__
Data_mobile
p1
(dp2
S'vel_y'
p3
F0.25507510819728624
sS'vel_x'
p4
F-0.32262797881093175
sS'pos_x'
p5
F-149.61846358614733
sS'pos_y'
p6
F-11.859464682882784
sS'isAlive'
p7
I01
sS'cumulativeEnergy'
p8
F0.5
sS'geno'
p9
(lp10
F1.7340335567162957
aF0.82767421738784897
aF-0.1963882611557457
aF4.2535463169095022
aF2.8094724544002099
aF-1.0407393616361826
asS'accel_x'
p11
F0
sS'accel_y'
p12
F0
sS'visionAngle'
p13
I150
sS'maxAccel'
p14
I2
sS'maxVel'
p15
F0.5
sS'age'
p16
I0
sS'tailSize'
p17
I0
sS'sexualgeno'
p18
NsS'tailBrigh'
p19
I0
sS'maxSteering'
p20
I30
sS'energy'
p21
F0.5
sS'lastScale'
p22
F5.5
sb.(i__main__
Data_mobile
p1
(dp2
S'vel_y'
p3
F0.21526115299234988
sS'vel_x'
p4
F-0.3209109727942947
sS'pos_x'
p5
F-150.14826233573518
sS'pos_y'
p6
F-19.105106183655284
sS'isAlive'
p7
I01
sS'cumulativeEnergy'
p8
F0.5
sS'geno'
p9
(lp10
F1.7340335567162957
aF0.34573426638431659
aF-0.35375472969760546
aF4.8998655045134871
aF2.8094724544002099
aF-1.1410152973943053
asS'accel_x'
p11
F0
sS'accel_y'
p12
F0
sS'visionAngle'
p13
I150
sS'maxAccel'
p14
I2
sS'maxVel'
p15
F0.5
sS'age'
p16
I0
sS'tailSize'
p17
I0
sS'sexualgeno'
p18
NsS'tailBrigh'
p19
I0
sS'maxSteering'
p20
I30
sS'energy'
p21
F0.5
sS'lastScale'
p22
F5.5
sb.(i__main__
Data_mobile
p1
(dp2
S'vel_y'
p3
F-0.31527726242570975
sS'vel_x'
p4
F-0.3800271183314114
sS'pos_x'
p5
F-150.7001935273548
sS'pos_y'
p6
F-40.466078968436427
sS'isAlive'
p7
I01
sS'cumulativeEnergy'
p8
F0.5
sS'geno'
p9
(lp10
F2.1024149392065721
aF0.34573426638431659
aF-0.1963882611557457
aF4.8459688268947039
aF2.6681169205342177
aF-0.72383320143259877
asS'accel_x'
p11
F0
sS'accel_y'
p12
F0
sS'visionAngle'
p13
I150
sS'maxAccel'
p14
I2
sS'maxVel'
p15
F0.5
sS'age'
p16
I0
sS'tailSize'
p17
I0
sS'sexualgeno'
p18
NsS'tailBrigh'
p19
I0
sS'maxSteering'
p20
I30
sS'energy'
p21
F0.5
sS'lastScale'
p22
F5.5
sb.(i__main__
Data_mobile
p1
(dp2
S'vel_y'
p3
F-0.39608038242849092
sS'vel_x'
p4
F-0.30513612526841605
sS'pos_x'
p5
F-154.8860863759711
sS'pos_y'
p6
F-70.672089710210386
sS'isAlive'
p7
I01
sS'cumulativeEnergy'
p8
F0.5
sS'geno'
p9
(lp10
F1.7340335567162957
aF0.34573426638431659
aF-0.1963882611557457
aF4.0918305726565336
aF1.7460295632530405
aF-0.40568868978320416
asS'accel_x'
p11
F0
sS'accel_y'
p12
F0
sS'visionAngle'
p13
I150
sS'maxAccel'
p14
I2
sS'maxVel'
p15
F0.5
sS'age'
p16
I0
sS'tailSize'
p17
I0
sS'sexualgeno'
p18
NsS'tailBrigh'
p19
I0
sS'maxSteering'
p20
I30
sS'energy'
p21
F0.5
sS'lastScale'
p22
F5.5
sb.(i__main__
Data_mobile
p1
(dp2
S'vel_y'
p3
F-0.29647427623271094
sS'vel_x'
p4
F-0.38311740187271531
sS'pos_x'
p5
F-73.906874946148079
sS'pos_y'
p6
F-52.340250715101362
sS'isAlive'
p7
I01
sS'cumulativeEnergy'
p8
F0.5
sS'geno'
p9
(lp10
F1.68488854536053
aF0.34573426638431659
aF0.091405357281225008
aF4.0504253049959535
aF2.6844979683342944
aF-1.0689547490520364
asS'accel_x'
p11
F0
sS'accel_y'
p12
F0
sS'visionAngle'
p13
I150
sS'maxAccel'
p14
I2
sS'maxVel'
p15
F0.5
sS'age'
p16
I0
sS'tailSize'
p17
I0
sS'sexualgeno'
p18
NsS'tailBrigh'
p19
I0
sS'maxSteering'
p20
I30
sS'energy'
p21
F0.5
sS'lastScale'
p22
F5.5
sb.(i__main__
Data_mobile
p1
(dp2
S'vel_y'
p3
F-0.37540254702510645
sS'vel_x'
p4
F-0.018256964370756912
sS'pos_x'
p5
F-150.66376127849568
sS'pos_y'
p6
F90.207652298571603
sS'isAlive'
p7
I01
sS'cumulativeEnergy'
p8
F0.5
sS'geno'
p9
(lp10
F1.9106113726602807
aF0.34573426638431659
aF-0.1963882611557457
aF4.8998655045134871
aF2.6844979683342944
aF-0.40568868978320416
asS'accel_x'
p11
F0
sS'accel_y'
p12
F0
sS'visionAngle'
p13
I150
sS'maxAccel'
p14
I2
sS'maxVel'
p15
F0.5
sS'age'
p16
I0
sS'tailSize'
p17
I0
sS'sexualgeno'
p18
NsS'tailBrigh'
p19
I0
sS'maxSteering'
p20
I30
sS'energy'
p21
F0.5
sS'lastScale'
p22
F5.5
sb.(i__main__
Data_mobile
p1
(dp2
S'vel_y'
p3
F-0.30635709154144153
sS'vel_x'
p4
F-0.38922691342564225
sS'pos_x'
p5
F-120.90880698004986
sS'pos_y'
p6
F-34.055037041635586
sS'isAlive'
p7
I01
sS'cumulativeEnergy'
p8
F0.5
sS'geno'
p9
(lp10
F1.68488854536053
aF0.34573426638431659
aF-0.1963882611557457
aF4.0918305726565336
aF2.6844979683342944
aF-0.24663529592194788
asS'accel_x'
p11
F0
sS'accel_y'
p12
F0
sS'visionAngle'
p13
I150
sS'maxAccel'
p14
I2
sS'maxVel'
p15
F0.5
sS'age'
p16
I0
sS'tailSize'
p17
I0
sS'sexualgeno'
p18
NsS'tailBrigh'
p19
I0
sS'maxSteering'
p20
I30
sS'energy'
p21
F0.5
sS'lastScale'
p22
F5.5
sb.(i__main__
Data_mobile
p1
(dp2
S'vel_y'
p3
F-0.28423926856058129
sS'vel_x'
p4
F-0.34707734953221009
sS'pos_x'
p5
F-148.45542244517529
sS'pos_y'
p6
F-3.7013777739012301
sS'isAlive'
p7
I01
sS'cumulativeEnergy'
p8
F0.5
sS'geno'
p9
(lp10
F1.68488854536053
aF0.34573426638431659
aF-0.35375472969760546
aF5.0761962462679246
aF2.8094724544002099
aF-1.0407393616361826
asS'accel_x'
p11
F0
sS'accel_y'
p12
F0
sS'visionAngle'
p13
I150
sS'maxAccel'
p14
I2
sS'maxVel'
p15
F0.5
sS'age'
p16
I0
sS'tailSize'
p17
I0
sS'sexualgeno'
p18
NsS'tailBrigh'
p19
I0
sS'maxSteering'
p20
I30
sS'energy'
p21
F0.5
sS'lastScale'
p22
F5.5
sb.(i__main__
Data_mobile
p1
(dp2
S'vel_y'
p3
F0.12726425076121839
sS'vel_x'
p4
F-0.33283542756266393
sS'pos_x'
p5
F-147.82505384290971
sS'pos_y'
p6
F6.6966161714956458
sS'isAlive'
p7
I01
sS'cumulativeEnergy'
p8
F0.5
sS'geno'
p9
(lp10
F1.68488854536053
aF0.77576084970688997
aF-0.7037615815378977
aF4.8998655045134871
aF2.6844979683342944
aF-0.61207814738848654
asS'accel_x'
p11
F0
sS'accel_y'
p12
F0
sS'visionAngle'
p13
I150
sS'maxAccel'
p14
I2
sS'maxVel'
p15
F0.5
sS'age'
p16
I0
sS'tailSize'
p17
I0
sS'sexualgeno'
p18
NsS'tailBrigh'
p19
I0
sS'maxSteering'
p20
I30
sS'energy'
p21
F0.5
sS'lastScale'
p22
F5.5
sb.(i__main__
Data_mobile
p1
(dp2
S'vel_y'
p3
F-0.32074377990084801
sS'vel_x'
p4
F0.015497278335145304
sS'pos_x'
p5
F-151.88417532255721
sS'pos_y'
p6
F-30.288149099626697
sS'isAlive'
p7
I01
sS'cumulativeEnergy'
p8
F0.5
sS'geno'
p9
(lp10
F2.2014661034293943
aF0.34573426638431659
aF-0.7037615815378977
aF4.8998655045134871
aF2.6844979683342944
aF-0.19302918438230843
asS'accel_x'
p11
F0
sS'accel_y'
p12
F0
sS'visionAngle'
p13
I150
sS'maxAccel'
p14
I2
sS'maxVel'
p15
F0.5
sS'age'
p16
I0
sS'tailSize'
p17
I0
sS'sexualgeno'
p18
NsS'tailBrigh'
p19
I0
sS'maxSteering'
p20
I30
sS'energy'
p21
F0.5
sS'lastScale'
p22
F5.5
sb.(i__main__
Data_mobile
p1
(dp2
S'vel_y'
p3
F-0.36035280279445897
sS'vel_x'
p4
F0.19992040611280043
sS'pos_x'
p5
F-154.74135532700717
sS'pos_y'
p6
F-32.060995598507695
sS'isAlive'
p7
I01
sS'cumulativeEnergy'
p8
F0.5
sS'geno'
p9
(lp10
F2.2014661034293943
aF0.76603586349764452
aF-0.35375472969760546
aF4.0918305726565336
aF2.6844979683342944
aF-0.61207814738848654
asS'accel_x'
p11
F0
sS'accel_y'
p12
F0
sS'visionAngle'
p13
I150
sS'maxAccel'
p14
I2
sS'maxVel'
p15
F0.5
sS'age'
p16
I0
sS'tailSize'
p17
I0
sS'sexualgeno'
p18
NsS'tailBrigh'
p19
I0
sS'maxSteering'
p20
I30
sS'energy'
p21
F0.5
sS'lastScale'
p22
F5.5
sb.(i__main__
Data_mobile
p1
(dp2
S'vel_y'
p3
F-0.056198013366829697
sS'vel_x'
p4
F-0.31907714453339753
sS'pos_x'
p5
F-152.81675119366804
sS'pos_y'
p6
F-45.30519348428998
sS'isAlive'
p7
I01
sS'cumulativeEnergy'
p8
F0.5
sS'geno'
p9
(lp10
F1.68488854536053
aF0.77576084970688997
aF-0.35375472969760546
aF4.8998655045134871
aF2.6681169205342177
aF-0.18111200833225216
asS'accel_x'
p11
F0
sS'accel_y'
p12
F0
sS'visionAngle'
p13
I150
sS'maxAccel'
p14
I2
sS'maxVel'
p15
F0.5
sS'age'
p16
I0
sS'tailSize'
p17
I0
sS'sexualgeno'
p18
NsS'tailBrigh'
p19
I0
sS'maxSteering'
p20
I30
sS'energy'
p21
F0.5
sS'lastScale'
p22
F5.5
sb.(i__main__
Data_mobile
p1
(dp2
S'vel_y'
p3
F-0.305431664672902
sS'vel_x'
p4
F-0.39028238830425271
sS'pos_x'
p5
F-116.38610856557136
sS'pos_y'
p6
F-27.879954020289365
sS'isAlive'
p7
I01
sS'cumulativeEnergy'
p8
F0.5
sS'geno'
p9
(lp10
F1.68488854536053
aF0.34573426638431659
aF-0.26189010438835303
aF4.0918305726565336
aF2.6844979683342944
aF-0.61207814738848654
asS'accel_x'
p11
F0
sS'accel_y'
p12
F0
sS'visionAngle'
p13
I150
sS'maxAccel'
p14
I2
sS'maxVel'
p15
F0.5
sS'age'
p16
I0
sS'tailSize'
p17
I0
sS'sexualgeno'
p18
NsS'tailBrigh'
p19
I0
sS'maxSteering'
p20
I30
sS'energy'
p21
F0.5
sS'lastScale'
p22
F5.5
sb.(i__main__
Data_mobile
p1
(dp2
S'vel_y'
p3
F-0.26109997184196898
sS'vel_x'
p4
F-0.41888988099457802
sS'pos_x'
p5
F-115.05003308440274
sS'pos_y'
p6
F-27.518527668772776
sS'isAlive'
p7
I01
sS'cumulativeEnergy'
p8
F0.5
sS'geno'
p9
(lp10
F1.68488854536053
aF0.34573426638431659
aF-0.26189010438835303
aF3.8354840959187437
aF2.5490725783053234
aF-0.64487187124907452
asS'accel_x'
p11
F0
sS'accel_y'
p12
F0
sS'visionAngle'
p13
I150
sS'maxAccel'
p14
I2
sS'maxVel'
p15
F0.5
sS'age'
p16
I0
sS'tailSize'
p17
I0
sS'sexualgeno'
p18
NsS'tailBrigh'
p19
I0
sS'maxSteering'
p20
I30
sS'energy'
p21
F0.5
sS'lastScale'
p22
F5.5
sb.(i__main__
Data_mobile
p1
(dp2
S'vel_y'
p3
F-0.30972186761064646
sS'vel_x'
p4
F-0.38794104737238683
sS'pos_x'
p5
F-142.3513415583632
sS'pos_y'
p6
F-58.849412167782894
sS'isAlive'
p7
I01
sS'cumulativeEnergy'
p8
F0.5
sS'geno'
p9
(lp10
F2.1321226551160684
aF-0.089426483239697929
aF-0.7037615815378977
aF4.0918305726565336
aF2.6844979683342944
aF-0.61207814738848654
asS'accel_x'
p11
F0
sS'accel_y'
p12
F0
sS'visionAngle'
p13
I150
sS'maxAccel'
p14
I2
sS'maxVel'
p15
F0.5
sS'age'
p16
I0
sS'tailSize'
p17
I0
sS'sexualgeno'
p18
NsS'tailBrigh'
p19
I0
sS'maxSteering'
p20
I30
sS'energy'
p21
F0.5
sS'lastScale'
p22
F5.5
sb.(i__main__
Data_mobile
p1
(dp2
S'vel_y'
p3
F-0.32373346303406236
sS'vel_x'
p4
F-0.014238723862996211
sS'pos_x'
p5
F-151.57097875255849
sS'pos_y'
p6
F-8.7685404963413305
sS'isAlive'
p7
I01
sS'cumulativeEnergy'
p8
F0.5
sS'geno'
p9
(lp10
F1.68488854536053
aF0.76603586349764452
aF-0.57660293458564882
aF4.8459688268947039
aF2.9494833087820393
aF-0.021525341714152324
asS'accel_x'
p11
F0
sS'accel_y'
p12
F0
sS'visionAngle'
p13
I150
sS'maxAccel'
p14
I2
sS'maxVel'
p15
F0.5
sS'age'
p16
I0
sS'tailSize'
p17
I0
sS'sexualgeno'
p18
NsS'tailBrigh'
p19
I0
sS'maxSteering'
p20
I30
sS'energy'
p21
F0.5
sS'lastScale'
p22
F5.5
sb.(i__main__
Data_mobile
p1
(dp2
S'vel_y'
p3
F-0.28862449338525942
sS'vel_x'
p4
F-0.40335277401925068
sS'pos_x'
p5
F-139.7972710974816
sS'pos_y'
p6
F-54.310453805006262
sS'isAlive'
p7
I01
sS'cumulativeEnergy'
p8
F0.5
sS'geno'
p9
(lp10
F2.2014661034293943
aF0.45183901381531011
aF-0.35375472969760546
aF4.3152062264633342
aF2.5490725783053234
aF-0.72383320143259877
asS'accel_x'
p11
F0
sS'accel_y'
p12
F0
sS'visionAngle'
p13
I150
sS'maxAccel'
p14
I2
sS'maxVel'
p15
F0.5
sS'age'
p16
I0
sS'tailSize'
p17
I0
sS'sexualgeno'
p18
NsS'tailBrigh'
p19
I0
sS'maxSteering'
p20
I30
sS'energy'
p21
F0.5
sS'lastScale'
p22
F5.5
sb.(i__main__
Data_mobile
p1
(dp2
S'vel_y'
p3
F-0.25532738785139469
sS'vel_x'
p4
F-0.40572686156026883
sS'pos_x'
p5
F-62.05104424535557
sS'pos_y'
p6
F-49.716033696122025
sS'isAlive'
p7
I01
sS'cumulativeEnergy'
p8
F0.5
sS'geno'
p9
(lp10
F1.68488854536053
aF0.41898728901790916
aF-0.7037615815378977
aF5.1344063667715503
aF2.6844979683342944
aF-0.61207814738848654
asS'accel_x'
p11
F0
sS'accel_y'
p12
F0
sS'visionAngle'
p13
I150
sS'maxAccel'
p14
I2
sS'maxVel'
p15
F0.5
sS'age'
p16
I0
sS'tailSize'
p17
I0
sS'sexualgeno'
p18
NsS'tailBrigh'
p19
I0
sS'maxSteering'
p20
I30
sS'energy'
p21
F0.5
sS'lastScale'
p22
F5.5
sb.(i__main__
Data_mobile
p1
(dp2
S'vel_y'
p3
F-0.34843988048277463
sS'vel_x'
p4
F-0.35273651572065545
sS'pos_x'
p5
F-151.89833819405473
sS'pos_y'
p6
F-52.442473792372553
sS'isAlive'
p7
I01
sS'cumulativeEnergy'
p8
F0.5
sS'geno'
p9
(lp10
F1.9106113726602807
aF0.77576084970688997
aF-0.35375472969760546
aF5.1514477968143799
aF2.8094724544002099
aF-1.0434538851560045
asS'accel_x'
p11
F0
sS'accel_y'
p12
F0
sS'visionAngle'
p13
I150
sS'maxAccel'
p14
I2
sS'maxVel'
p15
F0.5
sS'age'
p16
I0
sS'tailSize'
p17
I0
sS'sexualgeno'
p18
NsS'tailBrigh'
p19
I0
sS'maxSteering'
p20
I30
sS'energy'
p21
F0.5
sS'lastScale'
p22
F5.5
sb.(i__main__
Data_mobile
p1
(dp2
S'vel_y'
p3
F-0.15862159116325272
sS'vel_x'
p4
F-0.46581445407221739
sS'pos_x'
p5
F-84.74900864219228
sS'pos_y'
p6
F-29.58502827781194
sS'isAlive'
p7
I01
sS'cumulativeEnergy'
p8
F0.5
sS'geno'
p9
(lp10
F1.68488854536053
aF0.34573426638431659
aF-0.1963882611557457
aF4.0918305726565336
aF2.6844979683342944
aF-0.61207814738848654
asS'accel_x'
p11
F0
sS'accel_y'
p12
F0
sS'visionAngle'
p13
I150
sS'maxAccel'
p14
I2
sS'maxVel'
p15
F0.5
sS'age'
p16
I0
sS'tailSize'
p17
I0
sS'sexualgeno'
p18
NsS'tailBrigh'
p19
I0
sS'maxSteering'
p20
I30
sS'energy'
p21
F0.5
sS'lastScale'
p22
F5.5
sb.(i__main__
Data_mobile
p1
(dp2
S'vel_y'
p3
I0
sS'vel_x'
p4
I0
sS'pos_x'
p5
I-9579
sS'pos_y'
p6
I9779
sS'isAlive'
p7
I00
sS'cumulativeEnergy'
p8
F0.5
sS'geno'
p9
(lp10
F1.7340335567162957
aF0.34573426638431659
aF-0.26189010438835303
aF4.3152062264633342
aF2.6681169205342177
aF-0.64487187124907452
asS'accel_x'
p11
F0
sS'accel_y'
p12
F0
sS'visionAngle'
p13
I150
sS'maxAccel'
p14
I2
sS'maxVel'
p15
F0.5
sS'age'
p16
I0
sS'tailSize'
p17
I0
sS'sexualgeno'
p18
NsS'tailBrigh'
p19
I0
sS'maxSteering'
p20
I30
sS'energy'
p21
F0.5
sS'lastScale'
p22
F5.5
sb.(i__main__
Data_mobile
p1
(dp2
S'vel_y'
p3
I0
sS'vel_x'
p4
I0
sS'pos_x'
p5
I-9579
sS'pos_y'
p6
I9779
sS'isAlive'
p7
I00
sS'cumulativeEnergy'
p8
F0.5
sS'geno'
p9
(lp10
F1.68488854536053
aF0.34573426638431659
aF-0.1963882611557457
aF4.0918305726565336
aF2.6844979683342944
aF-0.24663529592194788
asS'accel_x'
p11
F0
sS'accel_y'
p12
F0
sS'visionAngle'
p13
I150
sS'maxAccel'
p14
I2
sS'maxVel'
p15
F0.5
sS'age'
p16
I0
sS'tailSize'
p17
I0
sS'sexualgeno'
p18
NsS'tailBrigh'
p19
I0
sS'maxSteering'
p20
I30
sS'energy'
p21
F0.5
sS'lastScale'
p22
F5.5
sb.(i__main__
Data_mobile
p1
(dp2
S'vel_y'
p3
I0
sS'vel_x'
p4
I0
sS'pos_x'
p5
I-9579
sS'pos_y'
p6
I9779
sS'isAlive'
p7
I00
sS'cumulativeEnergy'
p8
F0.5
sS'geno'
p9
(lp10
F2.2014661034293943
aF0.76603586349764452
aF-0.35375472969760546
aF4.8998655045134871
aF2.7868306123791822
aF-0.57680962123150681
asS'accel_x'
p11
F0
sS'accel_y'
p12
F0
sS'visionAngle'
p13
I150
sS'maxAccel'
p14
I2
sS'maxVel'
p15
F0.5
sS'age'
p16
I0
sS'tailSize'
p17
I0
sS'sexualgeno'
p18
NsS'tailBrigh'
p19
I0
sS'maxSteering'
p20
I30
sS'energy'
p21
F0.5
sS'lastScale'
p22
F5.5
sb.(i__main__
Data_mobile
p1
(dp2
S'vel_y'
p3
I0
sS'vel_x'
p4
I0
sS'pos_x'
p5
I-9579
sS'pos_y'
p6
I9779
sS'isAlive'
p7
I00
sS'cumulativeEnergy'
p8
F0.5
sS'geno'
p9
(lp10
F1.4788969826633194
aF0.34573426638431659
aF-0.57660293458564882
aF4.8459688268947039
aF2.4068698259734633
aF-0.62115733502738757
asS'accel_x'
p11
F0
sS'accel_y'
p12
F0
sS'visionAngle'
p13
I150
sS'maxAccel'
p14
I2
sS'maxVel'
p15
F0.5
sS'age'
p16
I0
sS'tailSize'
p17
I0
sS'sexualgeno'
p18
NsS'tailBrigh'
p19
I0
sS'maxSteering'
p20
I30
sS'energy'
p21
F0.5
sS'lastScale'
p22
F5.5
sb.(i__main__
Data_mobile
p1
(dp2
S'vel_y'
p3
I0
sS'vel_x'
p4
I0
sS'pos_x'
p5
I-9579
sS'pos_y'
p6
I9779
sS'isAlive'
p7
I00
sS'cumulativeEnergy'
p8
F0.5
sS'geno'
p9
(lp10
F1.7340335567162957
aF0.34573426638431659
aF-0.97236550618827289
aF4.8459688268947039
aF2.6681169205342177
aF-0.64487187124907452
asS'accel_x'
p11
F0
sS'accel_y'
p12
F0
sS'visionAngle'
p13
I150
sS'maxAccel'
p14
I2
sS'maxVel'
p15
F0.5
sS'age'
p16
I0
sS'tailSize'
p17
I0
sS'sexualgeno'
p18
NsS'tailBrigh'
p19
I0
sS'maxSteering'
p20
I30
sS'energy'
p21
F0.5
sS'lastScale'
p22
F5.5
sb.(i__main__
Data_mobile
p1
(dp2
S'vel_y'
p3
I0
sS'vel_x'
p4
I0
sS'pos_x'
p5
I-9579
sS'pos_y'
p6
I9779
sS'isAlive'
p7
I00
sS'cumulativeEnergy'
p8
F0.5
sS'geno'
p9
(lp10
F1.7340335567162957
aF0.77576084970688997
aF-0.1963882611557457
aF3.6245557501965164
aF2.6844979683342944
aF-0.61207814738848654
asS'accel_x'
p11
F0
sS'accel_y'
p12
F0
sS'visionAngle'
p13
I150
sS'maxAccel'
p14
I2
sS'maxVel'
p15
F0.5
sS'age'
p16
I0
sS'tailSize'
p17
I0
sS'sexualgeno'
p18
NsS'tailBrigh'
p19
I0
sS'maxSteering'
p20
I30
sS'energy'
p21
F0.5
sS'lastScale'
p22
F5.5
sb.(i__main__
Data_mobile
p1
(dp2
S'vel_y'
p3
I0
sS'vel_x'
p4
I0
sS'pos_x'
p5
I-9579
sS'pos_y'
p6
I9779
sS'isAlive'
p7
I00
sS'cumulativeEnergy'
p8
F0.5
sS'geno'
p9
(lp10
F2.2014661034293943
aF0.34573426638431659
aF-0.076815848042117607
aF4.8998655045134871
aF2.6844979683342944
aF-0.24663529592194788
asS'accel_x'
p11
F0
sS'accel_y'
p12
F0
sS'visionAngle'
p13
I150
sS'maxAccel'
p14
I2
sS'maxVel'
p15
F0.5
sS'age'
p16
I0
sS'tailSize'
p17
I0
sS'sexualgeno'
p18
NsS'tailBrigh'
p19
I0
sS'maxSteering'
p20
I30
sS'energy'
p21
F0.5
sS'lastScale'
p22
F5.5
sb.(i__main__
Data_mobile
p1
(dp2
S'vel_y'
p3
I0
sS'vel_x'
p4
I0
sS'pos_x'
p5
I-9579
sS'pos_y'
p6
I9779
sS'isAlive'
p7
I00
sS'cumulativeEnergy'
p8
F0.5
sS'geno'
p9
(lp10
F1.68488854536053
aF0.77576084970688997
aF-0.1963882611557457
aF3.6245557501965164
aF2.6844979683342944
aF-0.61207814738848654
asS'accel_x'
p11
F0
sS'accel_y'
p12
F0
sS'visionAngle'
p13
I150
sS'maxAccel'
p14
I2
sS'maxVel'
p15
F0.5
sS'age'
p16
I0
sS'tailSize'
p17
I0
sS'sexualgeno'
p18
NsS'tailBrigh'
p19
I0
sS'maxSteering'
p20
I30
sS'energy'
p21
F0.5
sS'lastScale'
p22
F5.5
sb.(i__main__
Data_mobile
p1
(dp2
S'vel_y'
p3
I0
sS'vel_x'
p4
I0
sS'pos_x'
p5
I-9579
sS'pos_y'
p6
I9779
sS'isAlive'
p7
I00
sS'cumulativeEnergy'
p8
F0.5
sS'geno'
p9
(lp10
F1.4788969826633194
aF0.53644229874626981
aF-0.26189010438835303
aF4.1534763615517463
aF2.7868306123791822
aF-0.76242957684459056
asS'accel_x'
p11
F0
sS'accel_y'
p12
F0
sS'visionAngle'
p13
I150
sS'maxAccel'
p14
I2
sS'maxVel'
p15
F0.5
sS'age'
p16
I0
sS'tailSize'
p17
I0
sS'sexualgeno'
p18
NsS'tailBrigh'
p19
I0
sS'maxSteering'
p20
I30
sS'energy'
p21
F0.5
sS'lastScale'
p22
F5.5
sb.(i__main__
Data_mobile
p1
(dp2
S'vel_y'
p3
I0
sS'vel_x'
p4
I0
sS'pos_x'
p5
I-9579
sS'pos_y'
p6
I9779
sS'isAlive'
p7
I00
sS'cumulativeEnergy'
p8
F0.5
sS'geno'
p9
(lp10
F1.9106113726602807
aF0.34573426638431659
aF-0.1963882611557457
aF4.8998655045134871
aF2.6844979683342944
aF-0.61207814738848654
asS'accel_x'
p11
F0
sS'accel_y'
p12
F0
sS'visionAngle'
p13
I150
sS'maxAccel'
p14
I2
sS'maxVel'
p15
F0.5
sS'age'
p16
I0
sS'tailSize'
p17
I0
sS'sexualgeno'
p18
NsS'tailBrigh'
p19
I0
sS'maxSteering'
p20
I30
sS'energy'
p21
F0.5
sS'lastScale'
p22
F5.5
sb.(i__main__
Data_mobile
p1
(dp2
S'vel_y'
p3
I0
sS'vel_x'
p4
I0
sS'pos_x'
p5
I-9579
sS'pos_y'
p6
I9779
sS'isAlive'
p7
I00
sS'cumulativeEnergy'
p8
F0.5
sS'geno'
p9
(lp10
F1.7340335567162957
aF0.53644229874626981
aF-0.26189010438835303
aF4.3152062264633342
aF2.7868306123791822
aF-0.76242957684459056
asS'accel_x'
p11
F0
sS'accel_y'
p12
F0
sS'visionAngle'
p13
I150
sS'maxAccel'
p14
I2
sS'maxVel'
p15
F0.5
sS'age'
p16
I0
sS'tailSize'
p17
I0
sS'sexualgeno'
p18
NsS'tailBrigh'
p19
I0
sS'maxSteering'
p20
I30
sS'energy'
p21
F0.5
sS'lastScale'
p22
F5.5
sb.(i__main__
Data_mobile
p1
(dp2
S'vel_y'
p3
I0
sS'vel_x'
p4
I0
sS'pos_x'
p5
I-9579
sS'pos_y'
p6
I9779
sS'isAlive'
p7
I00
sS'cumulativeEnergy'
p8
F0.5
sS'geno'
p9
(lp10
F1.68488854536053
aF0.70342649556729653
aF-0.35375472969760546
aF4.8998655045134871
aF2.8094724544002099
aF-1.0434538851560045
asS'accel_x'
p11
F0
sS'accel_y'
p12
F0
sS'visionAngle'
p13
I150
sS'maxAccel'
p14
I2
sS'maxVel'
p15
F0.5
sS'age'
p16
I0
sS'tailSize'
p17
I0
sS'sexualgeno'
p18
NsS'tailBrigh'
p19
I0
sS'maxSteering'
p20
I30
sS'energy'
p21
F0.5
sS'lastScale'
p22
F5.5
sb.(i__main__
Data_mobile
p1
(dp2
S'vel_y'
p3
I0
sS'vel_x'
p4
I0
sS'pos_x'
p5
I-9579
sS'pos_y'
p6
I9779
sS'isAlive'
p7
I00
sS'cumulativeEnergy'
p8
F0.5
sS'geno'
p9
(lp10
F1.68488854536053
aF0.34573426638431659
aF-0.26189010438835303
aF4.3152062264633342
aF2.8885399636114846
aF-0.76242957684459056
asS'accel_x'
p11
F0
sS'accel_y'
p12
F0
sS'visionAngle'
p13
I150
sS'maxAccel'
p14
I2
sS'maxVel'
p15
F0.5
sS'age'
p16
I0
sS'tailSize'
p17
I0
sS'sexualgeno'
p18
NsS'tailBrigh'
p19
I0
sS'maxSteering'
p20
I30
sS'energy'
p21
F0.5
sS'lastScale'
p22
F5.5
sb.(i__main__
Data_mobile
p1
(dp2
S'vel_y'
p3
I0
sS'vel_x'
p4
I0
sS'pos_x'
p5
I-9579
sS'pos_y'
p6
I9779
sS'isAlive'
p7
I00
sS'cumulativeEnergy'
p8
F0.5
sS'geno'
p9
(lp10
F1.7999669008060439
aF0.34573426638431659
aF-0.26189010438835303
aF4.3152062264633342
aF2.6844979683342944
aF-0.64487187124907452
asS'accel_x'
p11
F0
sS'accel_y'
p12
F0
sS'visionAngle'
p13
I150
sS'maxAccel'
p14
I2
sS'maxVel'
p15
F0.5
sS'age'
p16
I0
sS'tailSize'
p17
I0
sS'sexualgeno'
p18
NsS'tailBrigh'
p19
I0
sS'maxSteering'
p20
I30
sS'energy'
p21
F0.5
sS'lastScale'
p22
F5.5
sb.(i__main__
Data_mobile
p1
(dp2
S'vel_y'
p3
I0
sS'vel_x'
p4
I0
sS'pos_x'
p5
I-9579
sS'pos_y'
p6
I9779
sS'isAlive'
p7
I00
sS'cumulativeEnergy'
p8
F0.5
sS'geno'
p9
(lp10
F2.0089282395720951
aF0.34573426638431659
aF-0.1963882611557457
aF4.0918305726565336
aF2.5761477760607043
aF-1.0550204000336769
asS'accel_x'
p11
F0
sS'accel_y'
p12
F0
sS'visionAngle'
p13
I150
sS'maxAccel'
p14
I2
sS'maxVel'
p15
F0.5
sS'age'
p16
I0
sS'tailSize'
p17
I0
sS'sexualgeno'
p18
NsS'tailBrigh'
p19
I0
sS'maxSteering'
p20
I30
sS'energy'
p21
F0.5
sS'lastScale'
p22
F5.5
sb.(i__main__
Data_mobile
p1
(dp2
S'vel_y'
p3
I0
sS'vel_x'
p4
I0
sS'pos_x'
p5
I-9579
sS'pos_y'
p6
I9779
sS'isAlive'
p7
I00
sS'cumulativeEnergy'
p8
F0.5
sS'geno'
p9
(lp10
F1.68488854536053
aF0.34573426638431659
aF-0.26189010438835303
aF3.8354840959187437
aF2.5490725783053234
aF-0.72383320143259877
asS'accel_x'
p11
F0
sS'accel_y'
p12
F0
sS'visionAngle'
p13
I150
sS'maxAccel'
p14
I2
sS'maxVel'
p15
F0.5
sS'age'
p16
I0
sS'tailSize'
p17
I0
sS'sexualgeno'
p18
NsS'tailBrigh'
p19
I0
sS'maxSteering'
p20
I30
sS'energy'
p21
F0.5
sS'lastScale'
p22
F5.5
sb.(i__main__
Data_mobile
p1
(dp2
S'vel_y'
p3
I0
sS'vel_x'
p4
I0
sS'pos_x'
p5
I-9579
sS'pos_y'
p6
I9779
sS'isAlive'
p7
I00
sS'cumulativeEnergy'
p8
F0.5
sS'geno'
p9
(lp10
F1.68488854536053
aF0.83002332664185563
aF-0.35375472969760546
aF4.8998655045134871
aF2.7945698580555072
aF-0.76242957684459056
asS'accel_x'
p11
F0
sS'accel_y'
p12
F0
sS'visionAngle'
p13
I150
sS'maxAccel'
p14
I2
sS'maxVel'
p15
F0.5
sS'age'
p16
I0
sS'tailSize'
p17
I0
sS'sexualgeno'
p18
NsS'tailBrigh'
p19
I0
sS'maxSteering'
p20
I30
sS'energy'
p21
F0.5
sS'lastScale'
p22
F5.5
sb.(i__main__
Data_mobile
p1
(dp2
S'vel_y'
p3
I0
sS'vel_x'
p4
I0
sS'pos_x'
p5
I-9579
sS'pos_y'
p6
I9779
sS'isAlive'
p7
I00
sS'cumulativeEnergy'
p8
F0.5
sS'geno'
p9
(lp10
F1.4788969826633194
aF0.34573426638431659
aF-0.57660293458564882
aF4.8459688268947039
aF2.9494833087820393
aF-0.61207814738848654
asS'accel_x'
p11
F0
sS'accel_y'
p12
F0
sS'visionAngle'
p13
I150
sS'maxAccel'
p14
I2
sS'maxVel'
p15
F0.5
sS'age'
p16
I0
sS'tailSize'
p17
I0
sS'sexualgeno'
p18
NsS'tailBrigh'
p19
I0
sS'maxSteering'
p20
I30
sS'energy'
p21
F0.5
sS'lastScale'
p22
F5.5
sb.(i__main__
Data_mobile
p1
(dp2
S'vel_y'
p3
I0
sS'vel_x'
p4
I0
sS'pos_x'
p5
I-9579
sS'pos_y'
p6
I9779
sS'isAlive'
p7
I00
sS'cumulativeEnergy'
p8
F0.5
sS'geno'
p9
(lp10
F1.7340335567162957
aF0.53644229874626981
aF-0.26189010438835303
aF4.3152062264633342
aF2.7868306123791822
aF-0.76242957684459056
asS'accel_x'
p11
F0
sS'accel_y'
p12
F0
sS'visionAngle'
p13
I150
sS'maxAccel'
p14
I2
sS'maxVel'
p15
F0.5
sS'age'
p16
I0
sS'tailSize'
p17
I0
sS'sexualgeno'
p18
NsS'tailBrigh'
p19
I0
sS'maxSteering'
p20
I30
sS'energy'
p21
F0.5
sS'lastScale'
p22
F5.5
sb.(i__main__
Data_mobile
p1
(dp2
S'vel_y'
p3
I0
sS'vel_x'
p4
I0
sS'pos_x'
p5
I-9579
sS'pos_y'
p6
I9779
sS'isAlive'
p7
I00
sS'cumulativeEnergy'
p8
F0.5
sS'geno'
p9
(lp10
F2.2014661034293943
aF0.34573426638431659
aF-0.35375472969760546
aF4.8998655045134871
aF2.6844979683342944
aF-0.61207814738848654
asS'accel_x'
p11
F0
sS'accel_y'
p12
F0
sS'visionAngle'
p13
I150
sS'maxAccel'
p14
I2
sS'maxVel'
p15
F0.5
sS'age'
p16
I0
sS'tailSize'
p17
I0
sS'sexualgeno'
p18
NsS'tailBrigh'
p19
I0
sS'maxSteering'
p20
I30
sS'energy'
p21
F0.5
sS'lastScale'
p22
F5.5
sb.(i__main__
Data_mobile
p1
(dp2
S'vel_y'
p3
I0
sS'vel_x'
p4
I0
sS'pos_x'
p5
I-9579
sS'pos_y'
p6
I9779
sS'isAlive'
p7
I00
sS'cumulativeEnergy'
p8
F0.5
sS'geno'
p9
(lp10
F1.68488854536053
aF0.34573426638431659
aF-0.26189010438835303
aF4.1819752951536291
aF2.5490725783053234
aF-0.64487187124907452
asS'accel_x'
p11
F0
sS'accel_y'
p12
F0
sS'visionAngle'
p13
I150
sS'maxAccel'
p14
I2
sS'maxVel'
p15
F0.5
sS'age'
p16
I0
sS'tailSize'
p17
I0
sS'sexualgeno'
p18
NsS'tailBrigh'
p19
I0
sS'maxSteering'
p20
I30
sS'energy'
p21
F0.5
sS'lastScale'
p22
F5.5
sb.(i__main__
Data_mobile
p1
(dp2
S'vel_y'
p3
I0
sS'vel_x'
p4
I0
sS'pos_x'
p5
I-9579
sS'pos_y'
p6
I9779
sS'isAlive'
p7
I00
sS'cumulativeEnergy'
p8
F0.5
sS'geno'
p9
(lp10
F1.68488854536053
aF0.34573426638431659
aF-0.1963882611557457
aF4.0918305726565336
aF2.6844979683342944
aF-0.61207814738848654
asS'accel_x'
p11
F0
sS'accel_y'
p12
F0
sS'visionAngle'
p13
I150
sS'maxAccel'
p14
I2
sS'maxVel'
p15
F0.5
sS'age'
p16
I0
sS'tailSize'
p17
I0
sS'sexualgeno'
p18
NsS'tailBrigh'
p19
I0
sS'maxSteering'
p20
I30
sS'energy'
p21
F0.5
sS'lastScale'
p22
F5.5
sb.(i__main__
Data_mobile
p1
(dp2
S'vel_y'
p3
I0
sS'vel_x'
p4
I0
sS'pos_x'
p5
I-9579
sS'pos_y'
p6
I9779
sS'isAlive'
p7
I00
sS'cumulativeEnergy'
p8
F0.5
sS'geno'
p9
(lp10
F1.68488854536053
aF0.34573426638431659
aF-0.1963882611557457
aF4.0918305726565336
aF2.6844979683342944
aF-0.61207814738848654
asS'accel_x'
p11
F0
sS'accel_y'
p12
F0
sS'visionAngle'
p13
I150
sS'maxAccel'
p14
I2
sS'maxVel'
p15
F0.5
sS'age'
p16
I0
sS'tailSize'
p17
I0
sS'sexualgeno'
p18
NsS'tailBrigh'
p19
I0
sS'maxSteering'
p20
I30
sS'energy'
p21
F0.5
sS'lastScale'
p22
F5.5
sb.(i__main__
Data_mobile
p1
(dp2
S'vel_y'
p3
I0
sS'vel_x'
p4
I0
sS'pos_x'
p5
I-9579
sS'pos_y'
p6
I9779
sS'isAlive'
p7
I00
sS'cumulativeEnergy'
p8
F0.5
sS'geno'
p9
(lp10
F1.68488854536053
aF0.77576084970688997
aF-0.35375472969760546
aF4.8998655045134871
aF2.8094724544002099
aF-1.0434538851560045
asS'accel_x'
p11
F0
sS'accel_y'
p12
F0
sS'visionAngle'
p13
I150
sS'maxAccel'
p14
I2
sS'maxVel'
p15
F0.5
sS'age'
p16
I0
sS'tailSize'
p17
I0
sS'sexualgeno'
p18
NsS'tailBrigh'
p19
I0
sS'maxSteering'
p20
I30
sS'energy'
p21
F0.5
sS'lastScale'
p22
F5.5
sb.(i__main__
Data_mobile
p1
(dp2
S'vel_y'
p3
I0
sS'vel_x'
p4
I0
sS'pos_x'
p5
I-9579
sS'pos_y'
p6
I9779
sS'isAlive'
p7
I00
sS'cumulativeEnergy'
p8
F0.5
sS'geno'
p9
(lp10
F1.68488854536053
aF0.34573426638431659
aF-0.26189010438835303
aF4.3152062264633342
aF2.5490725783053234
aF-0.64487187124907452
asS'accel_x'
p11
F0
sS'accel_y'
p12
F0
sS'visionAngle'
p13
I150
sS'maxAccel'
p14
I2
sS'maxVel'
p15
F0.5
sS'age'
p16
I0
sS'tailSize'
p17
I0
sS'sexualgeno'
p18
NsS'tailBrigh'
p19
I0
sS'maxSteering'
p20
I30
sS'energy'
p21
F0.5
sS'lastScale'
p22
F5.5
sb.(i__main__
Data_mobile
p1
(dp2
S'vel_y'
p3
I0
sS'vel_x'
p4
I0
sS'pos_x'
p5
I-9579
sS'pos_y'
p6
I9779
sS'isAlive'
p7
I00
sS'cumulativeEnergy'
p8
F0.5
sS'geno'
p9
(lp10
F1.68488854536053
aF0.34573426638431659
aF-0.35375472969760546
aF4.8998655045134871
aF2.8094724544002099
aF-0.76242957684459056
asS'accel_x'
p11
F0
sS'accel_y'
p12
F0
sS'visionAngle'
p13
I150
sS'maxAccel'
p14
I2
sS'maxVel'
p15
F0.5
sS'age'
p16
I0
sS'tailSize'
p17
I0
sS'sexualgeno'
p18
NsS'tailBrigh'
p19
I0
sS'maxSteering'
p20
I30
sS'energy'
p21
F0.5
sS'lastScale'
p22
F5.5
sb.(i__main__
Data_mobile
p1
(dp2
S'vel_y'
p3
I0
sS'vel_x'
p4
I0
sS'pos_x'
p5
I-9579
sS'pos_y'
p6
I9779
sS'isAlive'
p7
I00
sS'cumulativeEnergy'
p8
F0.5
sS'geno'
p9
(lp10
F1.68488854536053
aF0.34573426638431659
aF-0.26189010438835303
aF4.3152062264633342
aF2.6681169205342177
aF-0.64487187124907452
asS'accel_x'
p11
F0
sS'accel_y'
p12
F0
sS'visionAngle'
p13
I150
sS'maxAccel'
p14
I2
sS'maxVel'
p15
F0.5
sS'age'
p16
I0
sS'tailSize'
p17
I0
sS'sexualgeno'
p18
NsS'tailBrigh'
p19
I0
sS'maxSteering'
p20
I30
sS'energy'
p21
F0.5
sS'lastScale'
p22
F5.5
sb.(i__main__
Data_mobile
p1
(dp2
S'vel_y'
p3
I0
sS'vel_x'
p4
I0
sS'pos_x'
p5
I-9579
sS'pos_y'
p6
I9779
sS'isAlive'
p7
I00
sS'cumulativeEnergy'
p8
F0.5
sS'geno'
p9
(lp10
F2.2014661034293943
aF0.23021131069126355
aF-0.26189010438835303
aF4.4001599946093393
aF2.5490725783053234
aF-0.64487187124907452
asS'accel_x'
p11
F0
sS'accel_y'
p12
F0
sS'visionAngle'
p13
I150
sS'maxAccel'
p14
I2
sS'maxVel'
p15
F0.5
sS'age'
p16
I0
sS'tailSize'
p17
I0
sS'sexualgeno'
p18
NsS'tailBrigh'
p19
I0
sS'maxSteering'
p20
I30
sS'energy'
p21
F0.5
sS'lastScale'
p22
F5.5
sb.(i__main__
Data_mobile
p1
(dp2
S'vel_y'
p3
I0
sS'vel_x'
p4
I0
sS'pos_x'
p5
I-9579
sS'pos_y'
p6
I9779
sS'isAlive'
p7
I00
sS'cumulativeEnergy'
p8
F0.5
sS'geno'
p9
(lp10
F1.68488854536053
aF0.77576084970688997
aF-0.1963882611557457
aF3.6245557501965164
aF2.6844979683342944
aF-0.62040485851790783
asS'accel_x'
p11
F0
sS'accel_y'
p12
F0
sS'visionAngle'
p13
I150
sS'maxAccel'
p14
I2
sS'maxVel'
p15
F0.5
sS'age'
p16
I0
sS'tailSize'
p17
I0
sS'sexualgeno'
p18
NsS'tailBrigh'
p19
I0
sS'maxSteering'
p20
I30
sS'energy'
p21
F0.5
sS'lastScale'
p22
F5.5
sb.(i__main__
Data_mobile
p1
(dp2
S'vel_y'
p3
I0
sS'vel_x'
p4
I0
sS'pos_x'
p5
I-9579
sS'pos_y'
p6
I9779
sS'isAlive'
p7
I00
sS'cumulativeEnergy'
p8
F0.5
sS'geno'
p9
(lp10
F1.68488854536053
aF0.34573426638431659
aF-0.26189010438835303
aF4.3152062264633342
aF2.7868306123791822
aF-0.76242957684459056
asS'accel_x'
p11
F0
sS'accel_y'
p12
F0
sS'visionAngle'
p13
I150
sS'maxAccel'
p14
I2
sS'maxVel'
p15
F0.5
sS'age'
p16
I0
sS'tailSize'
p17
I0
sS'sexualgeno'
p18
NsS'tailBrigh'
p19
I0
sS'maxSteering'
p20
I30
sS'energy'
p21
F0.5
sS'lastScale'
p22
F5.5
sb.(i__main__
Data_mobile
p1
(dp2
S'vel_y'
p3
I0
sS'vel_x'
p4
I0
sS'pos_x'
p5
I-9579
sS'pos_y'
p6
I9779
sS'isAlive'
p7
I00
sS'cumulativeEnergy'
p8
F0.5
sS'geno'
p9
(lp10
F1.68488854536053
aF0.53644229874626981
aF0.074832001816700466
aF4.3152062264633342
aF2.6844979683342944
aF-0.76242957684459056
asS'accel_x'
p11
F0
sS'accel_y'
p12
F0
sS'visionAngle'
p13
I150
sS'maxAccel'
p14
I2
sS'maxVel'
p15
F0.5
sS'age'
p16
I0
sS'tailSize'
p17
I0
sS'sexualgeno'
p18
NsS'tailBrigh'
p19
I0
sS'maxSteering'
p20
I30
sS'energy'
p21
F0.5
sS'lastScale'
p22
F5.5
sb.(i__main__
Data_mobile
p1
(dp2
S'vel_y'
p3
I0
sS'vel_x'
p4
I0
sS'pos_x'
p5
I-9579
sS'pos_y'
p6
I9779
sS'isAlive'
p7
I00
sS'cumulativeEnergy'
p8
F0.5
sS'geno'
p9
(lp10
F1.68488854536053
aF0.34573426638431659
aF-0.1963882611557457
aF4.0918305726565336
aF2.6844979683342944
aF-0.61207814738848654
asS'accel_x'
p11
F0
sS'accel_y'
p12
F0
sS'visionAngle'
p13
I150
sS'maxAccel'
p14
I2
sS'maxVel'
p15
F0.5
sS'age'
p16
I0
sS'tailSize'
p17
I0
sS'sexualgeno'
p18
NsS'tailBrigh'
p19
I0
sS'maxSteering'
p20
I30
sS'energy'
p21
F0.5
sS'lastScale'
p22
F5.5
sb.(i__main__
Data_mobile
p1
(dp2
S'vel_y'
p3
I0
sS'vel_x'
p4
I0
sS'pos_x'
p5
I-9579
sS'pos_y'
p6
I9779
sS'isAlive'
p7
I00
sS'cumulativeEnergy'
p8
F0.5
sS'geno'
p9
(lp10
F1.7340335567162957
aF0.33952915891357027
aF-0.58130558609876259
aF4.3152062264633342
aF2.5490725783053234
aF-0.64487187124907452
asS'accel_x'
p11
F0
sS'accel_y'
p12
F0
sS'visionAngle'
p13
I150
sS'maxAccel'
p14
I2
sS'maxVel'
p15
F0.5
sS'age'
p16
I0
sS'tailSize'
p17
I0
sS'sexualgeno'
p18
NsS'tailBrigh'
p19
I0
sS'maxSteering'
p20
I30
sS'energy'
p21
F0.5
sS'lastScale'
p22
F5.5
sb.(i__main__
Data_mobile
p1
(dp2
S'vel_y'
p3
I0
sS'vel_x'
p4
I0
sS'pos_x'
p5
I-9579
sS'pos_y'
p6
I9779
sS'isAlive'
p7
I00
sS'cumulativeEnergy'
p8
F0.5
sS'geno'
p9
(lp10
F1.4788969826633194
aF0.34573426638431659
aF-0.97236550618827289
aF4.8459688268947039
aF2.6681169205342177
aF-0.64487187124907452
asS'accel_x'
p11
F0
sS'accel_y'
p12
F0
sS'visionAngle'
p13
I150
sS'maxAccel'
p14
I2
sS'maxVel'
p15
F0.5
sS'age'
p16
I0
sS'tailSize'
p17
I0
sS'sexualgeno'
p18
NsS'tailBrigh'
p19
I0
sS'maxSteering'
p20
I30
sS'energy'
p21
F0.5
sS'lastScale'
p22
F5.5
sb.(i__main__
Data_mobile
p1
(dp2
S'vel_y'
p3
I0
sS'vel_x'
p4
I0
sS'pos_x'
p5
I-9579
sS'pos_y'
p6
I9779
sS'isAlive'
p7
I00
sS'cumulativeEnergy'
p8
F0.5
sS'geno'
p9
(lp10
F1.7340335567162957
aF0.34573426638431659
aF-0.1963882611557457
aF4.0918305726565336
aF2.4068698259734633
aF-0.40568868978320416
asS'accel_x'
p11
F0
sS'accel_y'
p12
F0
sS'visionAngle'
p13
I150
sS'maxAccel'
p14
I2
sS'maxVel'
p15
F0.5
sS'age'
p16
I0
sS'tailSize'
p17
I0
sS'sexualgeno'
p18
NsS'tailBrigh'
p19
I0
sS'maxSteering'
p20
I30
sS'energy'
p21
F0.5
sS'lastScale'
p22
F5.5
sb.(i__main__
Data_mobile
p1
(dp2
S'vel_y'
p3
I0
sS'vel_x'
p4
I0
sS'pos_x'
p5
I-9579
sS'pos_y'
p6
I9779
sS'isAlive'
p7
I00
sS'cumulativeEnergy'
p8
F0.5
sS'geno'
p9
(lp10
F1.7340335567162957
aF-0.07994637261411508
aF0.0067080804860358834
aF4.0918305726565336
aF2.4068698259734633
aF-0.76242957684459056
asS'accel_x'
p11
F0
sS'accel_y'
p12
F0
sS'visionAngle'
p13
I150
sS'maxAccel'
p14
I2
sS'maxVel'
p15
F0.5
sS'age'
p16
I0
sS'tailSize'
p17
I0
sS'sexualgeno'
p18
NsS'tailBrigh'
p19
I0
sS'maxSteering'
p20
I30
sS'energy'
p21
F0.5
sS'lastScale'
p22
F5.5
sb.(i__main__
Data_mobile
p1
(dp2
S'vel_y'
p3
I0
sS'vel_x'
p4
I0
sS'pos_x'
p5
I-9579
sS'pos_y'
p6
I9779
sS'isAlive'
p7
I00
sS'cumulativeEnergy'
p8
F0.5
sS'geno'
p9
(lp10
F2.0151384953657634
aF0.45720444337671406
aF-0.26189010438835303
aF3.8354840959187437
aF2.5490725783053234
aF-0.72383320143259877
asS'accel_x'
p11
F0
sS'accel_y'
p12
F0
sS'visionAngle'
p13
I150
sS'maxAccel'
p14
I2
sS'maxVel'
p15
F0.5
sS'age'
p16
I0
sS'tailSize'
p17
I0
sS'sexualgeno'
p18
NsS'tailBrigh'
p19
I0
sS'maxSteering'
p20
I30
sS'energy'
p21
F0.5
sS'lastScale'
p22
F5.5
sb.(i__main__
Data_mobile
p1
(dp2
S'vel_y'
p3
I0
sS'vel_x'
p4
I0
sS'pos_x'
p5
I-9579
sS'pos_y'
p6
I9779
sS'isAlive'
p7
I00
sS'cumulativeEnergy'
p8
F0.5
sS'geno'
p9
(lp10
F2.2014661034293943
aF0.34573426638431659
aF-0.35375472969760546
aF4.8998655045134871
aF2.6844979683342944
aF-0.76242957684459056
asS'accel_x'
p11
F0
sS'accel_y'
p12
F0
sS'visionAngle'
p13
I150
sS'maxAccel'
p14
I2
sS'maxVel'
p15
F0.5
sS'age'
p16
I0
sS'tailSize'
p17
I0
sS'sexualgeno'
p18
NsS'tailBrigh'
p19
I0
sS'maxSteering'
p20
I30
sS'energy'
p21
F0.5
sS'lastScale'
p22
F5.5
sb.(i__main__
Data_mobile
p1
(dp2
S'vel_y'
p3
I0
sS'vel_x'
p4
I0
sS'pos_x'
p5
I-9579
sS'pos_y'
p6
I9779
sS'isAlive'
p7
I00
sS'cumulativeEnergy'
p8
F0.5
sS'geno'
p9
(lp10
F1.4788969826633194
aF0.34573426638431659
aF-0.57660293458564882
aF4.8459688268947039
aF2.9494833087820393
aF-0.24663529592194788
asS'accel_x'
p11
F0
sS'accel_y'
p12
F0
sS'visionAngle'
p13
I150
sS'maxAccel'
p14
I2
sS'maxVel'
p15
F0.5
sS'age'
p16
I0
sS'tailSize'
p17
I0
sS'sexualgeno'
p18
NsS'tailBrigh'
p19
I0
sS'maxSteering'
p20
I30
sS'energy'
p21
F0.5
sS'lastScale'
p22
F5.5
sb.(i__main__
Data_mobile
p1
(dp2
S'vel_y'
p3
I0
sS'vel_x'
p4
I0
sS'pos_x'
p5
I-9579
sS'pos_y'
p6
I9779
sS'isAlive'
p7
I00
sS'cumulativeEnergy'
p8
F0.5
sS'geno'
p9
(lp10
F1.68488854536053
aF0.59624716828756996
aF-0.35201600608905015
aF3.8447234834643278
aF3.2474264396870987
aF-0.64487187124907452
asS'accel_x'
p11
F0
sS'accel_y'
p12
F0
sS'visionAngle'
p13
I150
sS'maxAccel'
p14
I2
sS'maxVel'
p15
F0.5
sS'age'
p16
I0
sS'tailSize'
p17
I0
sS'sexualgeno'
p18
NsS'tailBrigh'
p19
I0
sS'maxSteering'
p20
I30
sS'energy'
p21
F0.5
sS'lastScale'
p22
F5.5
sb.(i__main__
Data_mobile
p1
(dp2
S'vel_y'
p3
I0
sS'vel_x'
p4
I0
sS'pos_x'
p5
I-9579
sS'pos_y'
p6
I9779
sS'isAlive'
p7
I00
sS'cumulativeEnergy'
p8
F0.5
sS'geno'
p9
(lp10
F1.68488854536053
aF0.59624716828756996
aF-0.6238145133117492
aF3.8447234834643278
aF3.1318485990441562
aF-0.24663529592194788
asS'accel_x'
p11
F0
sS'accel_y'
p12
F0
sS'visionAngle'
p13
I150
sS'maxAccel'
p14
I2
sS'maxVel'
p15
F0.5
sS'age'
p16
I0
sS'tailSize'
p17
I0
sS'sexualgeno'
p18
NsS'tailBrigh'
p19
I0
sS'maxSteering'
p20
I30
sS'energy'
p21
F0.5
sS'lastScale'
p22
F5.5
sb.(i__main__
Data_mobile
p1
(dp2
S'vel_y'
p3
I0
sS'vel_x'
p4
I0
sS'pos_x'
p5
I-9579
sS'pos_y'
p6
I9779
sS'isAlive'
p7
I00
sS'cumulativeEnergy'
p8
F0.5
sS'geno'
p9
(lp10
F1.68488854536053
aF0.59624716828756996
aF-0.35201600608905015
aF4.3152062264633342
aF2.8348742909849838
aF-0.76242957684459056
asS'accel_x'
p11
F0
sS'accel_y'
p12
F0
sS'visionAngle'
p13
I150
sS'maxAccel'
p14
I2
sS'maxVel'
p15
F0.5
sS'age'
p16
I0
sS'tailSize'
p17
I0
sS'sexualgeno'
p18
NsS'tailBrigh'
p19
I0
sS'maxSteering'
p20
I30
sS'energy'
p21
F0.5
sS'lastScale'
p22
F5.5
sb.(i__main__
Data_mobile
p1
(dp2
S'vel_y'
p3
I0
sS'vel_x'
p4
I0
sS'pos_x'
p5
I-9579
sS'pos_y'
p6
I9779
sS'isAlive'
p7
I00
sS'cumulativeEnergy'
p8
F0.5
sS'geno'
p9
(lp10
F1.7340335567162957
aF0.16743472062453246
aF0.091405357281225008
aF4.0918305726565336
aF2.5761477760607043
aF-1.0550204000336769
asS'accel_x'
p11
F0
sS'accel_y'
p12
F0
sS'visionAngle'
p13
I150
sS'maxAccel'
p14
I2
sS'maxVel'
p15
F0.5
sS'age'
p16
I0
sS'tailSize'
p17
I0
sS'sexualgeno'
p18
NsS'tailBrigh'
p19
I0
sS'maxSteering'
p20
I30
sS'energy'
p21
F0.5
sS'lastScale'
p22
F5.5
sb.(i__main__
Data_mobile
p1
(dp2
S'vel_y'
p3
I0
sS'vel_x'
p4
I0
sS'pos_x'
p5
I-9579
sS'pos_y'
p6
I9779
sS'isAlive'
p7
I00
sS'cumulativeEnergy'
p8
F0.5
sS'geno'
p9
(lp10
F1.68488854536053
aF0.34573426638431659
aF-0.35375472969760546
aF4.8998655045134871
aF2.6844979683342944
aF-0.61207814738848654
asS'accel_x'
p11
F0
sS'accel_y'
p12
F0
sS'visionAngle'
p13
I150
sS'maxAccel'
p14
I2
sS'maxVel'
p15
F0.5
sS'age'
p16
I0
sS'tailSize'
p17
I0
sS'sexualgeno'
p18
NsS'tailBrigh'
p19
I0
sS'maxSteering'
p20
I30
sS'energy'
p21
F0.5
sS'lastScale'
p22
F5.5
sb.(i__main__
Data_mobile
p1
(dp2
S'vel_y'
p3
I0
sS'vel_x'
p4
I0
sS'pos_x'
p5
I-9579
sS'pos_y'
p6
I9779
sS'isAlive'
p7
I00
sS'cumulativeEnergy'
p8
F0.5
sS'geno'
p9
(lp10
F2.0151384953657634
aF0.45720444337671406
aF0.091405357281225008
aF4.0918305726565336
aF2.6844979683342944
aF-0.61207814738848654
asS'accel_x'
p11
F0
sS'accel_y'
p12
F0
sS'visionAngle'
p13
I150
sS'maxAccel'
p14
I2
sS'maxVel'
p15
F0.5
sS'age'
p16
I0
sS'tailSize'
p17
I0
sS'sexualgeno'
p18
NsS'tailBrigh'
p19
I0
sS'maxSteering'
p20
I30
sS'energy'
p21
F0.5
sS'lastScale'
p22
F5.5
sb.(i__main__
Data_mobile
p1
(dp2
S'vel_y'
p3
I0
sS'vel_x'
p4
I0
sS'pos_x'
p5
I-9579
sS'pos_y'
p6
I9779
sS'isAlive'
p7
I00
sS'cumulativeEnergy'
p8
F0.5
sS'geno'
p9
(lp10
F1.7340335567162957
aF0.53644229874626981
aF-0.26189010438835303
aF4.3152062264633342
aF2.6681169205342177
aF-0.64487187124907452
asS'accel_x'
p11
F0
sS'accel_y'
p12
F0
sS'visionAngle'
p13
I150
sS'maxAccel'
p14
I2
sS'maxVel'
p15
F0.5
sS'age'
p16
I0
sS'tailSize'
p17
I0
sS'sexualgeno'
p18
NsS'tailBrigh'
p19
I0
sS'maxSteering'
p20
I30
sS'energy'
p21
F0.5
sS'lastScale'
p22
F5.5
sb.(i__main__
Data_mobile
p1
(dp2
S'vel_y'
p3
I0
sS'vel_x'
p4
I0
sS'pos_x'
p5
I-9579
sS'pos_y'
p6
I9779
sS'isAlive'
p7
I00
sS'cumulativeEnergy'
p8
F0.5
sS'geno'
p9
(lp10
F1.68488854536053
aF0.53644229874626981
aF-0.23058796919726865
aF4.0918305726565336
aF3.1245828998457825
aF-0.64487187124907452
asS'accel_x'
p11
F0
sS'accel_y'
p12
F0
sS'visionAngle'
p13
I150
sS'maxAccel'
p14
I2
sS'maxVel'
p15
F0.5
sS'age'
p16
I0
sS'tailSize'
p17
I0
sS'sexualgeno'
p18
NsS'tailBrigh'
p19
I0
sS'maxSteering'
p20
I30
sS'energy'
p21
F0.5
sS'lastScale'
p22
F5.5
sb.(i__main__
Data_mobile
p1
(dp2
S'vel_y'
p3
I0
sS'vel_x'
p4
I0
sS'pos_x'
p5
I-9579
sS'pos_y'
p6
I9779
sS'isAlive'
p7
I00
sS'cumulativeEnergy'
p8
F0.5
sS'geno'
p9
(lp10
F1.7340335567162957
aF0.53644229874626981
aF-0.26189010438835303
aF4.3152062264633342
aF2.6681169205342177
aF0.014728362404509254
asS'accel_x'
p11
F0
sS'accel_y'
p12
F0
sS'visionAngle'
p13
I150
sS'maxAccel'
p14
I2
sS'maxVel'
p15
F0.5
sS'age'
p16
I0
sS'tailSize'
p17
I0
sS'sexualgeno'
p18
NsS'tailBrigh'
p19
I0
sS'maxSteering'
p20
I30
sS'energy'
p21
F0.5
sS'lastScale'
p22
F5.5
sb.(i__main__
Data_mobile
p1
(dp2
S'vel_y'
p3
I0
sS'vel_x'
p4
I0
sS'pos_x'
p5
I-9579
sS'pos_y'
p6
I9779
sS'isAlive'
p7
I00
sS'cumulativeEnergy'
p8
F0.5
sS'geno'
p9
(lp10
F1.7340335567162957
aF0.53644229874626981
aF-0.26189010438835303
aF4.3152062264633342
aF2.6681169205342177
aF0.014728362404509254
asS'accel_x'
p11
F0
sS'accel_y'
p12
F0
sS'visionAngle'
p13
I150
sS'maxAccel'
p14
I2
sS'maxVel'
p15
F0.5
sS'age'
p16
I0
sS'tailSize'
p17
I0
sS'sexualgeno'
p18
NsS'tailBrigh'
p19
I0
sS'maxSteering'
p20
I30
sS'energy'
p21
F0.5
sS'lastScale'
p22
F5.5
sb.(i__main__
Data_mobile
p1
(dp2
S'vel_y'
p3
I0
sS'vel_x'
p4
I0
sS'pos_x'
p5
I-9579
sS'pos_y'
p6
I9779
sS'isAlive'
p7
I00
sS'cumulativeEnergy'
p8
F0.5
sS'geno'
p9
(lp10
F1.68488854536053
aF0.30599615427947369
aF-0.35201600608905015
aF4.3152062264633342
aF2.6681169205342177
aF-0.87747621417894328
asS'accel_x'
p11
F0
sS'accel_y'
p12
F0
sS'visionAngle'
p13
I150
sS'maxAccel'
p14
I2
sS'maxVel'
p15
F0.5
sS'age'
p16
I0
sS'tailSize'
p17
I0
sS'sexualgeno'
p18
NsS'tailBrigh'
p19
I0
sS'maxSteering'
p20
I30
sS'energy'
p21
F0.5
sS'lastScale'
p22
F5.5
sb.(i__main__
Data_mobile
p1
(dp2
S'vel_y'
p3
I0
sS'vel_x'
p4
I0
sS'pos_x'
p5
I-9579
sS'pos_y'
p6
I9779
sS'isAlive'
p7
I00
sS'cumulativeEnergy'
p8
F0.5
sS'geno'
p9
(lp10
F1.68488854536053
aF0.17312092157639003
aF-0.1963882611557457
aF4.0918305726565336
aF2.6844979683342944
aF-0.64487187124907452
asS'accel_x'
p11
F0
sS'accel_y'
p12
F0
sS'visionAngle'
p13
I150
sS'maxAccel'
p14
I2
sS'maxVel'
p15
F0.5
sS'age'
p16
I0
sS'tailSize'
p17
I0
sS'sexualgeno'
p18
NsS'tailBrigh'
p19
I0
sS'maxSteering'
p20
I30
sS'energy'
p21
F0.5
sS'lastScale'
p22
F5.5
sb.(i__main__
Data_mobile
p1
(dp2
S'vel_y'
p3
I0
sS'vel_x'
p4
I0
sS'pos_x'
p5
I-9579
sS'pos_y'
p6
I9779
sS'isAlive'
p7
I00
sS'cumulativeEnergy'
p8
F0.5
sS'geno'
p9
(lp10
F1.383786027362556
aF0.51306098475917905
aF-0.35201600608905015
aF3.8447234834643278
aF3.2474264396870987
aF-0.64487187124907452
asS'accel_x'
p11
F0
sS'accel_y'
p12
F0
sS'visionAngle'
p13
I150
sS'maxAccel'
p14
I2
sS'maxVel'
p15
F0.5
sS'age'
p16
I0
sS'tailSize'
p17
I0
sS'sexualgeno'
p18
NsS'tailBrigh'
p19
I0
sS'maxSteering'
p20
I30
sS'energy'
p21
F0.5
sS'lastScale'
p22
F5.5
sb.(i__main__
Data_mobile
p1
(dp2
S'vel_y'
p3
I0
sS'vel_x'
p4
I0
sS'pos_x'
p5
I-9579
sS'pos_y'
p6
I9779
sS'isAlive'
p7
I00
sS'cumulativeEnergy'
p8
F0.5
sS'geno'
p9
(lp10
F1.68488854536053
aF0.35302572730662141
aF-0.6238145133117492
aF4.8459688268947039
aF2.6681169205342177
aF-0.64487187124907452
asS'accel_x'
p11
F0
sS'accel_y'
p12
F0
sS'visionAngle'
p13
I150
sS'maxAccel'
p14
I2
sS'maxVel'
p15
F0.5
sS'age'
p16
I0
sS'tailSize'
p17
I0
sS'sexualgeno'
p18
NsS'tailBrigh'
p19
I0
sS'maxSteering'
p20
I30
sS'energy'
p21
F0.5
sS'lastScale'
p22
F5.5
sb.(i__main__
Data_mobile
p1
(dp2
S'vel_y'
p3
I0
sS'vel_x'
p4
I0
sS'pos_x'
p5
I-9579
sS'pos_y'
p6
I9779
sS'isAlive'
p7
I00
sS'cumulativeEnergy'
p8
F0.5
sS'geno'
p9
(lp10
F1.7340335567162957
aF0.53644229874626981
aF-0.26189010438835303
aF4.3152062264633342
aF2.6681169205342177
aF-0.18522030177565751
asS'accel_x'
p11
F0
sS'accel_y'
p12
F0
sS'visionAngle'
p13
I150
sS'maxAccel'
p14
I2
sS'maxVel'
p15
F0.5
sS'age'
p16
I0
sS'tailSize'
p17
I0
sS'sexualgeno'
p18
NsS'tailBrigh'
p19
I0
sS'maxSteering'
p20
I30
sS'energy'
p21
F0.5
sS'lastScale'
p22
F5.5
sb.(i__main__
Data_mobile
p1
(dp2
S'vel_y'
p3
I0
sS'vel_x'
p4
I0
sS'pos_x'
p5
I-9579
sS'pos_y'
p6
I9779
sS'isAlive'
p7
I00
sS'cumulativeEnergy'
p8
F0.5
sS'geno'
p9
(lp10
F1.68488854536053
aF0.53644229874626981
aF-0.26189010438835303
aF4.2055707616396605
aF2.7868306123791822
aF-0.76242957684459056
asS'accel_x'
p11
F0
sS'accel_y'
p12
F0
sS'visionAngle'
p13
I150
sS'maxAccel'
p14
I2
sS'maxVel'
p15
F0.5
sS'age'
p16
I0
sS'tailSize'
p17
I0
sS'sexualgeno'
p18
NsS'tailBrigh'
p19
I0
sS'maxSteering'
p20
I30
sS'energy'
p21
F0.5
sS'lastScale'
p22
F5.5
sb.(i__main__
Data_mobile
p1
(dp2
S'vel_y'
p3
I0
sS'vel_x'
p4
I0
sS'pos_x'
p5
I-9579
sS'pos_y'
p6
I9779
sS'isAlive'
p7
I00
sS'cumulativeEnergy'
p8
F0.5
sS'geno'
p9
(lp10
F1.68488854536053
aF0.59624716828756996
aF-0.35375472969760546
aF4.8998655045134871
aF2.6844979683342944
aF-0.61207814738848654
asS'accel_x'
p11
F0
sS'accel_y'
p12
F0
sS'visionAngle'
p13
I150
sS'maxAccel'
p14
I2
sS'maxVel'
p15
F0.5
sS'age'
p16
I0
sS'tailSize'
p17
I0
sS'sexualgeno'
p18
NsS'tailBrigh'
p19
I0
sS'maxSteering'
p20
I30
sS'energy'
p21
F0.5
sS'lastScale'
p22
F5.5
sb.(i__main__
Data_mobile
p1
(dp2
S'vel_y'
p3
I0
sS'vel_x'
p4
I0
sS'pos_x'
p5
I-9579
sS'pos_y'
p6
I9779
sS'isAlive'
p7
I00
sS'cumulativeEnergy'
p8
F0.5
sS'geno'
p9
(lp10
F1.7340335567162957
aF0.59624716828756996
aF-0.59634241698866053
aF3.8447234834643278
aF3.2474264396870987
aF-0.64487187124907452
asS'accel_x'
p11
F0
sS'accel_y'
p12
F0
sS'visionAngle'
p13
I150
sS'maxAccel'
p14
I2
sS'maxVel'
p15
F0.5
sS'age'
p16
I0
sS'tailSize'
p17
I0
sS'sexualgeno'
p18
NsS'tailBrigh'
p19
I0
sS'maxSteering'
p20
I30
sS'energy'
p21
F0.5
sS'lastScale'
p22
F5.5
sb.(i__main__
Data_mobile
p1
(dp2
S'vel_y'
p3
I0
sS'vel_x'
p4
I0
sS'pos_x'
p5
I-9579
sS'pos_y'
p6
I9779
sS'isAlive'
p7
I00
sS'cumulativeEnergy'
p8
F0.5
sS'geno'
p9
(lp10
F2.0151384953657634
aF0.45720444337671406
aF0.091405357281225008
aF4.0918305726565336
aF2.6844979683342944
aF0.014728362404509254
asS'accel_x'
p11
F0
sS'accel_y'
p12
F0
sS'visionAngle'
p13
I150
sS'maxAccel'
p14
I2
sS'maxVel'
p15
F0.5
sS'age'
p16
I0
sS'tailSize'
p17
I0
sS'sexualgeno'
p18
NsS'tailBrigh'
p19
I0
sS'maxSteering'
p20
I30
sS'energy'
p21
F0.5
sS'lastScale'
p22
F5.5
sb.(i__main__
Data_mobile
p1
(dp2
S'vel_y'
p3
I0
sS'vel_x'
p4
I0
sS'pos_x'
p5
I-9579
sS'pos_y'
p6
I9779
sS'isAlive'
p7
I00
sS'cumulativeEnergy'
p8
F0.5
sS'geno'
p9
(lp10
F1.7340335567162957
aF0.41363242925702004
aF-0.35201600608905015
aF3.8447234834643278
aF3.2474264396870987
aF-0.64487187124907452
asS'accel_x'
p11
F0
sS'accel_y'
p12
F0
sS'visionAngle'
p13
I150
sS'maxAccel'
p14
I2
sS'maxVel'
p15
F0.5
sS'age'
p16
I0
sS'tailSize'
p17
I0
sS'sexualgeno'
p18
NsS'tailBrigh'
p19
I0
sS'maxSteering'
p20
I30
sS'energy'
p21
F0.5
sS'lastScale'
p22
F5.5
sb.(i__main__
Data_mobile
p1
(dp2
S'vel_y'
p3
I0
sS'vel_x'
p4
I0
sS'pos_x'
p5
I-9579
sS'pos_y'
p6
I9779
sS'isAlive'
p7
I00
sS'cumulativeEnergy'
p8
F0.5
sS'geno'
p9
(lp10
F2.0428431397180993
aF0.53644229874626981
aF-0.26189010438835303
aF4.3152062264633342
aF2.6681169205342177
aF-0.61207814738848654
asS'accel_x'
p11
F0
sS'accel_y'
p12
F0
sS'visionAngle'
p13
I150
sS'maxAccel'
p14
I2
sS'maxVel'
p15
F0.5
sS'age'
p16
I0
sS'tailSize'
p17
I0
sS'sexualgeno'
p18
NsS'tailBrigh'
p19
I0
sS'maxSteering'
p20
I30
sS'energy'
p21
F0.5
sS'lastScale'
p22
F5.5
sb.(i__main__
Data_mobile
p1
(dp2
S'vel_y'
p3
I0
sS'vel_x'
p4
I0
sS'pos_x'
p5
I-9579
sS'pos_y'
p6
I9779
sS'isAlive'
p7
I00
sS'cumulativeEnergy'
p8
F0.5
sS'geno'
p9
(lp10
F2.2014661034293943
aF0.34573426638431659
aF-0.35375472969760546
aF4.8998655045134871
aF2.6681169205342177
aF-0.64487187124907452
asS'accel_x'
p11
F0
sS'accel_y'
p12
F0
sS'visionAngle'
p13
I150
sS'maxAccel'
p14
I2
sS'maxVel'
p15
F0.5
sS'age'
p16
I0
sS'tailSize'
p17
I0
sS'sexualgeno'
p18
NsS'tailBrigh'
p19
I0
sS'maxSteering'
p20
I30
sS'energy'
p21
F0.5
sS'lastScale'
p22
F5.5
sb.(i__main__
Data_mobile
p1
(dp2
S'vel_y'
p3
I0
sS'vel_x'
p4
I0
sS'pos_x'
p5
I-9579
sS'pos_y'
p6
I9779
sS'isAlive'
p7
I00
sS'cumulativeEnergy'
p8
F0.5
sS'geno'
p9
(lp10
F1.7340335567162957
aF0.53644229874626981
aF-0.26189010438835303
aF4.3152062264633342
aF2.6681169205342177
aF-0.64487187124907452
asS'accel_x'
p11
F0
sS'accel_y'
p12
F0
sS'visionAngle'
p13
I150
sS'maxAccel'
p14
I2
sS'maxVel'
p15
F0.5
sS'age'
p16
I0
sS'tailSize'
p17
I0
sS'sexualgeno'
p18
NsS'tailBrigh'
p19
I0
sS'maxSteering'
p20
I30
sS'energy'
p21
F0.5
sS'lastScale'
p22
F5.5
sb.(i__main__
Data_mobile
p1
(dp2
S'vel_y'
p3
I0
sS'vel_x'
p4
I0
sS'pos_x'
p5
I-9579
sS'pos_y'
p6
I9779
sS'isAlive'
p7
I00
sS'cumulativeEnergy'
p8
F0.5
sS'geno'
p9
(lp10
F1.68488854536053
aF0.53644229874626981
aF-0.29827583421226733
aF4.3152062264633342
aF2.6681169205342177
aF-0.64487187124907452
asS'accel_x'
p11
F0
sS'accel_y'
p12
F0
sS'visionAngle'
p13
I150
sS'maxAccel'
p14
I2
sS'maxVel'
p15
F0.5
sS'age'
p16
I0
sS'tailSize'
p17
I0
sS'sexualgeno'
p18
NsS'tailBrigh'
p19
I0
sS'maxSteering'
p20
I30
sS'energy'
p21
F0.5
sS'lastScale'
p22
F5.5
sb.(i__main__
Data_mobile
p1
(dp2
S'vel_y'
p3
I0
sS'vel_x'
p4
I0
sS'pos_x'
p5
I-9579
sS'pos_y'
p6
I9779
sS'isAlive'
p7
I00
sS'cumulativeEnergy'
p8
F0.5
sS'geno'
p9
(lp10
F2.1397461111903286
aF0.34573426638431659
aF0.091405357281225008
aF4.0918305726565336
aF3.2474264396870987
aF-0.64487187124907452
asS'accel_x'
p11
F0
sS'accel_y'
p12
F0
sS'visionAngle'
p13
I150
sS'maxAccel'
p14
I2
sS'maxVel'
p15
F0.5
sS'age'
p16
I0
sS'tailSize'
p17
I0
sS'sexualgeno'
p18
NsS'tailBrigh'
p19
I0
sS'maxSteering'
p20
I30
sS'energy'
p21
F0.5
sS'lastScale'
p22
F5.5
sb.(i__main__
Data_mobile
p1
(dp2
S'vel_y'
p3
I0
sS'vel_x'
p4
I0
sS'pos_x'
p5
I-9579
sS'pos_y'
p6
I9779
sS'isAlive'
p7
I00
sS'cumulativeEnergy'
p8
F0.5
sS'geno'
p9
(lp10
F1.68488854536053
aF0.34573426638431659
aF0.091405357281225008
aF4.0918305726565336
aF2.6844979683342944
aF-0.61207814738848654
asS'accel_x'
p11
F0
sS'accel_y'
p12
F0
sS'visionAngle'
p13
I150
sS'maxAccel'
p14
I2
sS'maxVel'
p15
F0.5
sS'age'
p16
I0
sS'tailSize'
p17
I0
sS'sexualgeno'
p18
NsS'tailBrigh'
p19
I0
sS'maxSteering'
p20
I30
sS'energy'
p21
F0.5
sS'lastScale'
p22
F5.5
sb.(i__main__
Data_mobile
p1
(dp2
S'vel_y'
p3
I0
sS'vel_x'
p4
I0
sS'pos_x'
p5
I-9579
sS'pos_y'
p6
I9779
sS'isAlive'
p7
I00
sS'cumulativeEnergy'
p8
F0.5
sS'geno'
p9
(lp10
F1.7340335567162957
aF0.6142729121098881
aF-0.35375472969760546
aF4.0918305726565336
aF2.6844979683342944
aF0.014728362404509254
asS'accel_x'
p11
F0
sS'accel_y'
p12
F0
sS'visionAngle'
p13
I150
sS'maxAccel'
p14
I2
sS'maxVel'
p15
F0.5
sS'age'
p16
I0
sS'tailSize'
p17
I0
sS'sexualgeno'
p18
NsS'tailBrigh'
p19
I0
sS'maxSteering'
p20
I30
sS'energy'
p21
F0.5
sS'lastScale'
p22
F5.5
sb.(i__main__
Data_mobile
p1
(dp2
S'vel_y'
p3
I0
sS'vel_x'
p4
I0
sS'pos_x'
p5
I-9579
sS'pos_y'
p6
I9779
sS'isAlive'
p7
I00
sS'cumulativeEnergy'
p8
F0.5
sS'geno'
p9
(lp10
F1.383786027362556
aF0.34573426638431659
aF-0.35375472969760546
aF4.8998655045134871
aF2.6844979683342944
aF-0.61207814738848654
asS'accel_x'
p11
F0
sS'accel_y'
p12
F0
sS'visionAngle'
p13
I150
sS'maxAccel'
p14
I2
sS'maxVel'
p15
F0.5
sS'age'
p16
I0
sS'tailSize'
p17
I0
sS'sexualgeno'
p18
NsS'tailBrigh'
p19
I0
sS'maxSteering'
p20
I30
sS'energy'
p21
F0.5
sS'lastScale'
p22
F5.5
sb.(i__main__
Data_mobile
p1
(dp2
S'vel_y'
p3
I0
sS'vel_x'
p4
I0
sS'pos_x'
p5
I-9579
sS'pos_y'
p6
I9779
sS'isAlive'
p7
I00
sS'cumulativeEnergy'
p8
F0.5
sS'geno'
p9
(lp10
F1.68488854536053
aF0.59624716828756996
aF-0.35201600608905015
aF3.8447234834643278
aF3.2474264396870987
aF-0.64487187124907452
asS'accel_x'
p11
F0
sS'accel_y'
p12
F0
sS'visionAngle'
p13
I150
sS'maxAccel'
p14
I2
sS'maxVel'
p15
F0.5
sS'age'
p16
I0
sS'tailSize'
p17
I0
sS'sexualgeno'
p18
NsS'tailBrigh'
p19
I0
sS'maxSteering'
p20
I30
sS'energy'
p21
F0.5
sS'lastScale'
p22
F5.5
sb.(i__main__
Data_mobile
p1
(dp2
S'vel_y'
p3
I0
sS'vel_x'
p4
I0
sS'pos_x'
p5
I-9579
sS'pos_y'
p6
I9779
sS'isAlive'
p7
I00
sS'cumulativeEnergy'
p8
F0.5
sS'geno'
p9
(lp10
F1.68488854536053
aF0.72195845881164411
aF-0.97236550618827289
aF4.8459688268947039
aF2.6681169205342177
aF-0.64487187124907452
asS'accel_x'
p11
F0
sS'accel_y'
p12
F0
sS'visionAngle'
p13
I150
sS'maxAccel'
p14
I2
sS'maxVel'
p15
F0.5
sS'age'
p16
I0
sS'tailSize'
p17
I0
sS'sexualgeno'
p18
NsS'tailBrigh'
p19
I0
sS'maxSteering'
p20
I30
sS'energy'
p21
F0.5
sS'lastScale'
p22
F5.5
sb.(i__main__
Data_mobile
p1
(dp2
S'vel_y'
p3
I0
sS'vel_x'
p4
I0
sS'pos_x'
p5
I-9579
sS'pos_y'
p6
I9779
sS'isAlive'
p7
I00
sS'cumulativeEnergy'
p8
F0.5
sS'geno'
p9
(lp10
F1.68488854536053
aF0.53644229874626981
aF-0.23058796919726865
aF4.0918305726565336
aF3.1245828998457825
aF-0.64487187124907452
asS'accel_x'
p11
F0
sS'accel_y'
p12
F0
sS'visionAngle'
p13
I150
sS'maxAccel'
p14
I2
sS'maxVel'
p15
F0.5
sS'age'
p16
I0
sS'tailSize'
p17
I0
sS'sexualgeno'
p18
NsS'tailBrigh'
p19
I0
sS'maxSteering'
p20
I30
sS'energy'
p21
F0.5
sS'lastScale'
p22
F5.5
sb.(i__main__
Data_mobile
p1
(dp2
S'vel_y'
p3
I0
sS'vel_x'
p4
I0
sS'pos_x'
p5
I-9579
sS'pos_y'
p6
I9779
sS'isAlive'
p7
I00
sS'cumulativeEnergy'
p8
F0.5
sS'geno'
p9
(lp10
F1.68488854536053
aF0.59624716828756996
aF-0.35201600608905015
aF3.8447234834643278
aF3.2474264396870987
aF-0.64487187124907452
asS'accel_x'
p11
F0
sS'accel_y'
p12
F0
sS'visionAngle'
p13
I150
sS'maxAccel'
p14
I2
sS'maxVel'
p15
F0.5
sS'age'
p16
I0
sS'tailSize'
p17
I0
sS'sexualgeno'
p18
NsS'tailBrigh'
p19
I0
sS'maxSteering'
p20
I30
sS'energy'
p21
F0.5
sS'lastScale'
p22
F5.5
sb.(i__main__
Data_mobile
p1
(dp2
S'vel_y'
p3
I0
sS'vel_x'
p4
I0
sS'pos_x'
p5
I-9579
sS'pos_y'
p6
I9779
sS'isAlive'
p7
I00
sS'cumulativeEnergy'
p8
F0.5
sS'geno'
p9
(lp10
F1.68488854536053
aF0.53644229874626981
aF-0.1963882611557457
aF4.8027072842595793
aF2.8094724544002099
aF-0.76242957684459056
asS'accel_x'
p11
F0
sS'accel_y'
p12
F0
sS'visionAngle'
p13
I150
sS'maxAccel'
p14
I2
sS'maxVel'
p15
F0.5
sS'age'
p16
I0
sS'tailSize'
p17
I0
sS'sexualgeno'
p18
NsS'tailBrigh'
p19
I0
sS'maxSteering'
p20
I30
sS'energy'
p21
F0.5
sS'lastScale'
p22
F5.5
sb.