(i__main__
Data_mobile
p1
(dp2
S'vel_y'
p3
I0
sS'vel_x'
p4
I0
sS'pos_x'
p5
F-168.94079612838581
sS'pos_y'
p6
F-86.745482788774808
sS'isAlive'
p7
I01
sS'geno'
p8
(lp9
F-3.4795138552957381
aF0.71418216055968209
aF4.8610107366832409
aF-0.79180571312538284
aF3.3116433181980831
aF3.7811583089019223
asS'accel_x'
p10
F0
sS'accel_y'
p11
F0
sS'maxAccel'
p12
I2
sS'maxVel'
p13
F0.5
sS'age'
p14
I0
sS'radius'
p15
I2
sS'gener'
p16
S'm'
sS'lastScale'
p17
F15.5
sS'energy'
p18
F1.5
sb.(i__main__
Data_mobile
p1
(dp2
S'vel_y'
p3
I0
sS'vel_x'
p4
I0
sS'pos_x'
p5
F-199.94432461836769
sS'pos_y'
p6
F-79.826181332251821
sS'isAlive'
p7
I01
sS'geno'
p8
(lp9
F1.0271200329265024
aF1.5631971998452627
aF1.204434336336905
aF0.5014352671049993
aF3.8791740983076188
aF-3.2243011263895029
asS'accel_x'
p10
F0
sS'accel_y'
p11
F0
sS'maxAccel'
p12
I2
sS'maxVel'
p13
F0.5
sS'age'
p14
I0
sS'radius'
p15
I2
sS'gener'
p16
S'm'
sS'lastScale'
p17
F15.5
sS'energy'
p18
F1.5
sb.(i__main__
Data_mobile
p1
(dp2
S'vel_y'
p3
I0
sS'vel_x'
p4
I0
sS'pos_x'
p5
F-177.75019105707617
sS'pos_y'
p6
F-65.133849861708029
sS'isAlive'
p7
I01
sS'geno'
p8
(lp9
F-4.9087874955375206
aF-4.0685426363213404
aF0.90750495174124524
aF4.1756094568599487
aF-3.7443500894450796
aF-3.5920690983139192
asS'accel_x'
p10
F0
sS'accel_y'
p11
F0
sS'maxAccel'
p12
I2
sS'maxVel'
p13
F0.5
sS'age'
p14
I0
sS'radius'
p15
I2
sS'gener'
p16
S'm'
sS'lastScale'
p17
F15.5
sS'energy'
p18
F1.5
sb.(i__main__
Data_mobile
p1
(dp2
S'vel_y'
p3
I0
sS'vel_x'
p4
I0
sS'pos_x'
p5
F-176.15145377446933
sS'pos_y'
p6
F-42.627393595529021
sS'isAlive'
p7
I01
sS'geno'
p8
(lp9
F1.5419317020406869
aF-2.1940059985316518
aF0.26708158464990994
aF-4.7023706779773553
aF0.020878656224501135
aF3.6133323448714609
asS'accel_x'
p10
F0
sS'accel_y'
p11
F0
sS'maxAccel'
p12
I2
sS'maxVel'
p13
F0.5
sS'age'
p14
I0
sS'radius'
p15
I2
sS'gener'
p16
S'm'
sS'lastScale'
p17
F15.5
sS'energy'
p18
F1.5
sb.(i__main__
Data_mobile
p1
(dp2
S'vel_y'
p3
I0
sS'vel_x'
p4
I0
sS'pos_x'
p5
F-186.37886437786378
sS'pos_y'
p6
F-35.803828046779756
sS'isAlive'
p7
I01
sS'geno'
p8
(lp9
F-0.27768082260055227
aF1.9849976044457645
aF2.3289293665219182
aF3.0639906964953152
aF-1.4950046497556402
aF-1.9933765250000759
asS'accel_x'
p10
F0
sS'accel_y'
p11
F0
sS'maxAccel'
p12
I2
sS'maxVel'
p13
F0.5
sS'age'
p14
I0
sS'radius'
p15
I2
sS'gener'
p16
S'm'
sS'lastScale'
p17
F15.5
sS'energy'
p18
F1.5
sb.(i__main__
Data_mobile
p1
(dp2
S'vel_y'
p3
I0
sS'vel_x'
p4
I0
sS'pos_x'
p5
F-195.4003396195078
sS'pos_y'
p6
F-17.800806158961926
sS'isAlive'
p7
I01
sS'geno'
p8
(lp9
F-1.650533507973738
aF2.269577551298041
aF4.0579587172354934
aF1.7577751061281361
aF-3.7396554676592739
aF-1.0497031009127777
asS'accel_x'
p10
F0
sS'accel_y'
p11
F0
sS'maxAccel'
p12
I2
sS'maxVel'
p13
F0.5
sS'age'
p14
I0
sS'radius'
p15
I2
sS'gener'
p16
S'm'
sS'lastScale'
p17
F15.5
sS'energy'
p18
F1.5
sb.(i__main__
Data_mobile
p1
(dp2
S'vel_y'
p3
I0
sS'vel_x'
p4
I0
sS'pos_x'
p5
F-192.97790469993933
sS'pos_y'
p6
F2.1959919175950482
sS'isAlive'
p7
I01
sS'geno'
p8
(lp9
F2.1271724451056686
aF4.2258811872491471
aF-1.2970350423779795
aF-3.7652536645021306
aF2.0768665100121266
aF2.3891931006204494
asS'accel_x'
p10
F0
sS'accel_y'
p11
F0
sS'maxAccel'
p12
I2
sS'maxVel'
p13
F0.5
sS'age'
p14
I0
sS'radius'
p15
I2
sS'gener'
p16
S'm'
sS'lastScale'
p17
F15.5
sS'energy'
p18
F1.5
sb.(i__main__
Data_mobile
p1
(dp2
S'vel_y'
p3
I0
sS'vel_x'
p4
I0
sS'pos_x'
p5
F-181.93710264950585
sS'pos_y'
p6
F18.183743428263373
sS'isAlive'
p7
I01
sS'geno'
p8
(lp9
F-4.3503329817192622
aF-2.5074679402691933
aF4.6156299819986408
aF-2.2830527512135057
aF-4.0391165196205545
aF3.3925077701583781
asS'accel_x'
p10
F0
sS'accel_y'
p11
F0
sS'maxAccel'
p12
I2
sS'maxVel'
p13
F0.5
sS'age'
p14
I0
sS'radius'
p15
I2
sS'gener'
p16
S'm'
sS'lastScale'
p17
F15.5
sS'energy'
p18
F1.5
sb.(i__main__
Data_mobile
p1
(dp2
S'vel_y'
p3
I0
sS'vel_x'
p4
I0
sS'pos_x'
p5
F-171.01391285271268
sS'pos_y'
p6
F41.213393592513725
sS'isAlive'
p7
I01
sS'geno'
p8
(lp9
F3.1725391657534576
aF-3.214947125192257
aF1.1014764740165752
aF-3.0791701890279963
aF-2.618535452611396
aF4.7553077622158071
asS'accel_x'
p10
F0
sS'accel_y'
p11
F0
sS'maxAccel'
p12
I2
sS'maxVel'
p13
F0.5
sS'age'
p14
I0
sS'radius'
p15
I2
sS'gener'
p16
S'm'
sS'lastScale'
p17
F15.5
sS'energy'
p18
F1.5
sb.(i__main__
Data_mobile
p1
(dp2
S'vel_y'
p3
I0
sS'vel_x'
p4
I0
sS'pos_x'
p5
F-192.11849191367943
sS'pos_y'
p6
F50.630146137200313
sS'isAlive'
p7
I01
sS'geno'
p8
(lp9
F-3.3793426635334347
aF-3.1901301278541294
aF3.4768487732249476
aF4.1124813851956361
aF0.41613462516659983
aF-3.1485264659095291
asS'accel_x'
p10
F0
sS'accel_y'
p11
F0
sS'maxAccel'
p12
I2
sS'maxVel'
p13
F0.5
sS'age'
p14
I0
sS'radius'
p15
I2
sS'gener'
p16
S'm'
sS'lastScale'
p17
F15.5
sS'energy'
p18
F1.5
sb.(i__main__
Data_mobile
p1
(dp2
S'vel_y'
p3
I0
sS'vel_x'
p4
I0
sS'pos_x'
p5
F-167.19147009182007
sS'pos_y'
p6
F60.594778341011747
sS'isAlive'
p7
I01
sS'geno'
p8
(lp9
F1.2437175046946773
aF3.5897392239405725
aF1.7825637496735354
aF4.426982081432346
aF-3.4420728486352683
aF2.8155410502279556
asS'accel_x'
p10
F0
sS'accel_y'
p11
F0
sS'maxAccel'
p12
I2
sS'maxVel'
p13
F0.5
sS'age'
p14
I0
sS'radius'
p15
I2
sS'gener'
p16
S'm'
sS'lastScale'
p17
F15.5
sS'energy'
p18
F1.5
sb.(i__main__
Data_mobile
p1
(dp2
S'vel_y'
p3
I0
sS'vel_x'
p4
I0
sS'pos_x'
p5
F-168.21971667280877
sS'pos_y'
p6
F86.889107126548026
sS'isAlive'
p7
I01
sS'geno'
p8
(lp9
F-3.396386319697001
aF4.4400507395633255
aF-1.1394245044581233
aF3.2139621760261576
aF1.8618496788081895
aF-3.6350482525768779
asS'accel_x'
p10
F0
sS'accel_y'
p11
F0
sS'maxAccel'
p12
I2
sS'maxVel'
p13
F0.5
sS'age'
p14
I0
sS'radius'
p15
I2
sS'gener'
p16
S'm'
sS'lastScale'
p17
F15.5
sS'energy'
p18
F1.5
sb.(i__main__
Data_mobile
p1
(dp2
S'vel_y'
p3
I0
sS'vel_x'
p4
I0
sS'pos_x'
p5
F-153.1929762305609
sS'pos_y'
p6
F-88.332815503582793
sS'isAlive'
p7
I01
sS'geno'
p8
(lp9
F0.076733082241982942
aF-0.94913701399869677
aF2.9756930100927539
aF-2.165680425798151
aF-4.5259502203543756
aF0.30728999865343276
asS'accel_x'
p10
F0
sS'accel_y'
p11
F0
sS'maxAccel'
p12
I2
sS'maxVel'
p13
F0.5
sS'age'
p14
I0
sS'radius'
p15
I2
sS'gener'
p16
S'm'
sS'lastScale'
p17
F15.5
sS'energy'
p18
F1.5
sb.(i__main__
Data_mobile
p1
(dp2
S'vel_y'
p3
I0
sS'vel_x'
p4
I0
sS'pos_x'
p5
F-140.86555422410194
sS'pos_y'
p6
F-71.924069719590335
sS'isAlive'
p7
I01
sS'geno'
p8
(lp9
F-1.5177809813515344
aF-1.545892312007183
aF-4.3374415306172889
aF4.7039411481043718
aF3.4118807576167409
aF-0.47435561159087669
asS'accel_x'
p10
F0
sS'accel_y'
p11
F0
sS'maxAccel'
p12
I2
sS'maxVel'
p13
F0.5
sS'age'
p14
I0
sS'radius'
p15
I2
sS'gener'
p16
S'm'
sS'lastScale'
p17
F15.5
sS'energy'
p18
F1.5
sb.(i__main__
Data_mobile
p1
(dp2
S'vel_y'
p3
I0
sS'vel_x'
p4
I0
sS'pos_x'
p5
F-165.41085755155078
sS'pos_y'
p6
F-57.447507513660348
sS'isAlive'
p7
I01
sS'geno'
p8
(lp9
F-4.1375050187545712
aF1.9955947797031248
aF-4.700682197242231
aF4.131001475484851
aF-0.88233071410587538
aF-0.47222214121930506
asS'accel_x'
p10
F0
sS'accel_y'
p11
F0
sS'maxAccel'
p12
I2
sS'maxVel'
p13
F0.5
sS'age'
p14
I0
sS'radius'
p15
I2
sS'gener'
p16
S'm'
sS'lastScale'
p17
F15.5
sS'energy'
p18
F1.5
sb.(i__main__
Data_mobile
p1
(dp2
S'vel_y'
p3
I0
sS'vel_x'
p4
I0
sS'pos_x'
p5
F-164.29509514710787
sS'pos_y'
p6
F-45.545411544458645
sS'isAlive'
p7
I01
sS'geno'
p8
(lp9
F-1.7008940746655874
aF3.0446454999780777
aF-2.9221987351498346
aF-0.46918644342051596
aF-3.9928529770625634
aF0.89321088755363043
asS'accel_x'
p10
F0
sS'accel_y'
p11
F0
sS'maxAccel'
p12
I2
sS'maxVel'
p13
F0.5
sS'age'
p14
I0
sS'radius'
p15
I2
sS'gener'
p16
S'm'
sS'lastScale'
p17
F15.5
sS'energy'
p18
F1.5
sb.(i__main__
Data_mobile
p1
(dp2
S'vel_y'
p3
I0
sS'vel_x'
p4
I0
sS'pos_x'
p5
F-165.22707404393239
sS'pos_y'
p6
F-27.227513311295297
sS'isAlive'
p7
I01
sS'geno'
p8
(lp9
F-1.7600872768386155
aF-1.1137527479994991
aF-0.010871581958465271
aF-0.036657005285814392
aF-0.97227296582567657
aF3.2613459729804859
asS'accel_x'
p10
F0
sS'accel_y'
p11
F0
sS'maxAccel'
p12
I2
sS'maxVel'
p13
F0.5
sS'age'
p14
I0
sS'radius'
p15
I2
sS'gener'
p16
S'm'
sS'lastScale'
p17
F15.5
sS'energy'
p18
F1.5
sb.(i__main__
Data_mobile
p1
(dp2
S'vel_y'
p3
I0
sS'vel_x'
p4
I0
sS'pos_x'
p5
F-157.12530624613143
sS'pos_y'
p6
F-5.4552875674203154
sS'isAlive'
p7
I01
sS'geno'
p8
(lp9
F4.6410306789140403
aF-0.81661958004359914
aF4.3818121151812832
aF-0.93959961830743843
aF4.0618816416339758
aF1.2386889419145195
asS'accel_x'
p10
F0
sS'accel_y'
p11
F0
sS'maxAccel'
p12
I2
sS'maxVel'
p13
F0.5
sS'age'
p14
I0
sS'radius'
p15
I2
sS'gener'
p16
S'm'
sS'lastScale'
p17
F15.5
sS'energy'
p18
F1.5
sb.(i__main__
Data_mobile
p1
(dp2
S'vel_y'
p3
I0
sS'vel_x'
p4
I0
sS'pos_x'
p5
F-139.79987335816492
sS'pos_y'
p6
F-3.8804515017366281
sS'isAlive'
p7
I01
sS'geno'
p8
(lp9
F0.87686959254939101
aF-3.6967041030659309
aF-3.5975276804506673
aF-2.7296951271777967
aF-0.2351397698096811
aF-2.8100395551671955
asS'accel_x'
p10
F0
sS'accel_y'
p11
F0
sS'maxAccel'
p12
I2
sS'maxVel'
p13
F0.5
sS'age'
p14
I0
sS'radius'
p15
I2
sS'gener'
p16
S'm'
sS'lastScale'
p17
F15.5
sS'energy'
p18
F1.5
sb.(i__main__
Data_mobile
p1
(dp2
S'vel_y'
p3
I0
sS'vel_x'
p4
I0
sS'pos_x'
p5
F-166.99312435990777
sS'pos_y'
p6
F13.657291089172782
sS'isAlive'
p7
I01
sS'geno'
p8
(lp9
F2.1753622505010259
aF-0.99565946022971019
aF4.5873592483335432
aF-1.0269078680734225
aF3.5888847959528647
aF-2.1068637445335514
asS'accel_x'
p10
F0
sS'accel_y'
p11
F0
sS'maxAccel'
p12
I2
sS'maxVel'
p13
F0.5
sS'age'
p14
I0
sS'radius'
p15
I2
sS'gener'
p16
S'm'
sS'lastScale'
p17
F15.5
sS'energy'
p18
F1.5
sb.(i__main__
Data_mobile
p1
(dp2
S'vel_y'
p3
I0
sS'vel_x'
p4
I0
sS'pos_x'
p5
F-135.61799384279001
sS'pos_y'
p6
F36.091322522792339
sS'isAlive'
p7
I01
sS'geno'
p8
(lp9
F3.7689020021145794
aF-1.4505477116504006
aF2.6437299188147731
aF0.91623413672990317
aF3.5134176736642768
aF4.830542412937346
asS'accel_x'
p10
F0
sS'accel_y'
p11
F0
sS'maxAccel'
p12
I2
sS'maxVel'
p13
F0.5
sS'age'
p14
I0
sS'radius'
p15
I2
sS'gener'
p16
S'm'
sS'lastScale'
p17
F15.5
sS'energy'
p18
F1.5
sb.(i__main__
Data_mobile
p1
(dp2
S'vel_y'
p3
I0
sS'vel_x'
p4
I0
sS'pos_x'
p5
F-139.91772987941422
sS'pos_y'
p6
F44.123203476075965
sS'isAlive'
p7
I01
sS'geno'
p8
(lp9
F4.7158458162595984
aF-3.6464688526252251
aF4.1569256480878174
aF3.8728743742360781
aF0.78641918594563709
aF-2.0448683050307337
asS'accel_x'
p10
F0
sS'accel_y'
p11
F0
sS'maxAccel'
p12
I2
sS'maxVel'
p13
F0.5
sS'age'
p14
I0
sS'radius'
p15
I2
sS'gener'
p16
S'm'
sS'lastScale'
p17
F15.5
sS'energy'
p18
F1.5
sb.(i__main__
Data_mobile
p1
(dp2
S'vel_y'
p3
I0
sS'vel_x'
p4
I0
sS'pos_x'
p5
F-139.25059036850661
sS'pos_y'
p6
F63.890671375528179
sS'isAlive'
p7
I01
sS'geno'
p8
(lp9
F3.6437947435319664
aF-1.9186445401860253
aF-0.10623562257522234
aF-4.7545322830161734
aF3.1217277921211046
aF2.960270861914605
asS'accel_x'
p10
F0
sS'accel_y'
p11
F0
sS'maxAccel'
p12
I2
sS'maxVel'
p13
F0.5
sS'age'
p14
I0
sS'radius'
p15
I2
sS'gener'
p16
S'm'
sS'lastScale'
p17
F15.5
sS'energy'
p18
F1.5
sb.(i__main__
Data_mobile
p1
(dp2
S'vel_y'
p3
I0
sS'vel_x'
p4
I0
sS'pos_x'
p5
F-166.53045156137247
sS'pos_y'
p6
F80.265938944771619
sS'isAlive'
p7
I01
sS'geno'
p8
(lp9
F4.1193849999639465
aF1.0587225417725215
aF2.0336577724025551
aF-2.8119667873474787
aF-3.8579013372953161
aF4.8418116627483929
asS'accel_x'
p10
F0
sS'accel_y'
p11
F0
sS'maxAccel'
p12
I2
sS'maxVel'
p13
F0.5
sS'age'
p14
I0
sS'radius'
p15
I2
sS'gener'
p16
S'm'
sS'lastScale'
p17
F15.5
sS'energy'
p18
F1.5
sb.(i__main__
Data_mobile
p1
(dp2
S'vel_y'
p3
I0
sS'vel_x'
p4
I0
sS'pos_x'
p5
F-127.46441107469018
sS'pos_y'
p6
F-85.132282341631807
sS'isAlive'
p7
I01
sS'geno'
p8
(lp9
F3.8756747059406731
aF0.77620771806460276
aF-3.0031482793265241
aF-0.29828476736635601
aF-0.98025843777094135
aF-1.0983284577512196
asS'accel_x'
p10
F0
sS'accel_y'
p11
F0
sS'maxAccel'
p12
I2
sS'maxVel'
p13
F0.5
sS'age'
p14
I0
sS'radius'
p15
I2
sS'gener'
p16
S'm'
sS'lastScale'
p17
F15.5
sS'energy'
p18
F1.5
sb.(i__main__
Data_mobile
p1
(dp2
S'vel_y'
p3
I0
sS'vel_x'
p4
I0
sS'pos_x'
p5
F-106.35508303374981
sS'pos_y'
p6
F-70.534493420548671
sS'isAlive'
p7
I01
sS'geno'
p8
(lp9
F-0.20198307134485205
aF4.4417932587826954
aF-2.159909789430221
aF-4.4608879032429316
aF1.3194632859131907
aF-0.33141659710645754
asS'accel_x'
p10
F0
sS'accel_y'
p11
F0
sS'maxAccel'
p12
I2
sS'maxVel'
p13
F0.5
sS'age'
p14
I0
sS'radius'
p15
I2
sS'gener'
p16
S'm'
sS'lastScale'
p17
F15.5
sS'energy'
p18
F1.5
sb.(i__main__
Data_mobile
p1
(dp2
S'vel_y'
p3
I0
sS'vel_x'
p4
I0
sS'pos_x'
p5
F-132.70281774278246
sS'pos_y'
p6
F-54.659440572373114
sS'isAlive'
p7
I01
sS'geno'
p8
(lp9
F-3.8884535282899666
aF-2.0017483489124768
aF-0.27829535313164655
aF-1.156727933301597
aF-4.7212174826006521
aF-3.8321972479008837
asS'accel_x'
p10
F0
sS'accel_y'
p11
F0
sS'maxAccel'
p12
I2
sS'maxVel'
p13
F0.5
sS'age'
p14
I0
sS'radius'
p15
I2
sS'gener'
p16
S'm'
sS'lastScale'
p17
F15.5
sS'energy'
p18
F1.5
sb.(i__main__
Data_mobile
p1
(dp2
S'vel_y'
p3
I0
sS'vel_x'
p4
I0
sS'pos_x'
p5
F-107.94582916420033
sS'pos_y'
p6
F-42.259772612854206
sS'isAlive'
p7
I01
sS'geno'
p8
(lp9
F-2.0151968303325196
aF3.9433334051791942
aF-4.3805387376442928
aF1.6902960064347656
aF-1.9225007538165686
aF-3.5644040543145685
asS'accel_x'
p10
F0
sS'accel_y'
p11
F0
sS'maxAccel'
p12
I2
sS'maxVel'
p13
F0.5
sS'age'
p14
I0
sS'radius'
p15
I2
sS'gener'
p16
S'm'
sS'lastScale'
p17
F15.5
sS'energy'
p18
F1.5
sb.(i__main__
Data_mobile
p1
(dp2
S'vel_y'
p3
I0
sS'vel_x'
p4
I0
sS'pos_x'
p5
F-129.17066966415021
sS'pos_y'
p6
F-22.126129645082656
sS'isAlive'
p7
I01
sS'geno'
p8
(lp9
F-4.0182269401216253
aF-0.7468205012982807
aF-0.71704567984460077
aF1.8622415941957779
aF4.6401345327276378
aF-2.1184827708931362
asS'accel_x'
p10
F0
sS'accel_y'
p11
F0
sS'maxAccel'
p12
I2
sS'maxVel'
p13
F0.5
sS'age'
p14
I0
sS'radius'
p15
I2
sS'gener'
p16
S'm'
sS'lastScale'
p17
F15.5
sS'energy'
p18
F1.5
sb.(i__main__
Data_mobile
p1
(dp2
S'vel_y'
p3
I0
sS'vel_x'
p4
I0
sS'pos_x'
p5
F-109.51867694303537
sS'pos_y'
p6
F-19.567973795120842
sS'isAlive'
p7
I01
sS'geno'
p8
(lp9
F-2.7163937361687718
aF4.9323624072489096
aF-2.6793338936576481
aF2.3774480170883825
aF2.7417411523062531
aF-0.49880782878199348
asS'accel_x'
p10
F0
sS'accel_y'
p11
F0
sS'maxAccel'
p12
I2
sS'maxVel'
p13
F0.5
sS'age'
p14
I0
sS'radius'
p15
I2
sS'gener'
p16
S'm'
sS'lastScale'
p17
F15.5
sS'energy'
p18
F1.5
sb.(i__main__
Data_mobile
p1
(dp2
S'vel_y'
p3
I0
sS'vel_x'
p4
I0
sS'pos_x'
p5
F-126.27833436277436
sS'pos_y'
p6
F10.356540495226492
sS'isAlive'
p7
I01
sS'geno'
p8
(lp9
F-1.8619569978702897
aF-3.4879490506661504
aF-0.08501721616129565
aF-1.5779301597214115
aF-2.7225881538855479
aF-0.28378015550013025
asS'accel_x'
p10
F0
sS'accel_y'
p11
F0
sS'maxAccel'
p12
I2
sS'maxVel'
p13
F0.5
sS'age'
p14
I0
sS'radius'
p15
I2
sS'gener'
p16
S'm'
sS'lastScale'
p17
F15.5
sS'energy'
p18
F1.5
sb.(i__main__
Data_mobile
p1
(dp2
S'vel_y'
p3
I0
sS'vel_x'
p4
I0
sS'pos_x'
p5
F-103.55183780451782
sS'pos_y'
p6
F17.778755965639963
sS'isAlive'
p7
I01
sS'geno'
p8
(lp9
F0.19865219028218917
aF1.9777611578766754
aF0.15546090029684478
aF-0.0094752929114978457
aF2.5986349270622799
aF-2.9698473931869875
asS'accel_x'
p10
F0
sS'accel_y'
p11
F0
sS'maxAccel'
p12
I2
sS'maxVel'
p13
F0.5
sS'age'
p14
I0
sS'radius'
p15
I2
sS'gener'
p16
S'm'
sS'lastScale'
p17
F15.5
sS'energy'
p18
F1.5
sb.(i__main__
Data_mobile
p1
(dp2
S'vel_y'
p3
I0
sS'vel_x'
p4
I0
sS'pos_x'
p5
F-118.65711414970224
sS'pos_y'
p6
F28.669686007740296
sS'isAlive'
p7
I01
sS'geno'
p8
(lp9
F-0.76955395397735415
aF1.6398189033461685
aF-3.4655625004305102
aF-3.7520697783457968
aF-1.6032729797812184
aF-2.9615597442136696
asS'accel_x'
p10
F0
sS'accel_y'
p11
F0
sS'maxAccel'
p12
I2
sS'maxVel'
p13
F0.5
sS'age'
p14
I0
sS'radius'
p15
I2
sS'gener'
p16
S'm'
sS'lastScale'
p17
F15.5
sS'energy'
p18
F1.5
sb.(i__main__
Data_mobile
p1
(dp2
S'vel_y'
p3
I0
sS'vel_x'
p4
I0
sS'pos_x'
p5
F-119.36941253293216
sS'pos_y'
p6
F52.708336824027548
sS'isAlive'
p7
I01
sS'geno'
p8
(lp9
F-4.9329248065109326
aF1.2108234155545698
aF0.39328974125958016
aF-0.42671552342418906
aF-2.3895617638867739
aF-2.2098135682931952
asS'accel_x'
p10
F0
sS'accel_y'
p11
F0
sS'maxAccel'
p12
I2
sS'maxVel'
p13
F0.5
sS'age'
p14
I0
sS'radius'
p15
I2
sS'gener'
p16
S'm'
sS'lastScale'
p17
F15.5
sS'energy'
p18
F1.5
sb.(i__main__
Data_mobile
p1
(dp2
S'vel_y'
p3
I0
sS'vel_x'
p4
I0
sS'pos_x'
p5
F-121.03734679192993
sS'pos_y'
p6
F63.355848207966929
sS'isAlive'
p7
I01
sS'geno'
p8
(lp9
F-1.9457758650437516
aF-0.39239552393836696
aF2.2648707824788206
aF-3.4280669172882297
aF4.6519723819483687
aF-2.1831843985164245
asS'accel_x'
p10
F0
sS'accel_y'
p11
F0
sS'maxAccel'
p12
I2
sS'maxVel'
p13
F0.5
sS'age'
p14
I0
sS'radius'
p15
I2
sS'gener'
p16
S'm'
sS'lastScale'
p17
F15.5
sS'energy'
p18
F1.5
sb.(i__main__
Data_mobile
p1
(dp2
S'vel_y'
p3
I0
sS'vel_x'
p4
I0
sS'pos_x'
p5
F-124.48437844139372
sS'pos_y'
p6
F89.382291910613986
sS'isAlive'
p7
I01
sS'geno'
p8
(lp9
F-2.5833158625026433
aF-3.4791607568679863
aF3.2689060639482275
aF2.7338989029506831
aF1.1481276341819395
aF-4.0887284059086371
asS'accel_x'
p10
F0
sS'accel_y'
p11
F0
sS'maxAccel'
p12
I2
sS'maxVel'
p13
F0.5
sS'age'
p14
I0
sS'radius'
p15
I2
sS'gener'
p16
S'm'
sS'lastScale'
p17
F15.5
sS'energy'
p18
F1.5
sb.(i__main__
Data_mobile
p1
(dp2
S'vel_y'
p3
I0
sS'vel_x'
p4
I0
sS'pos_x'
p5
F-98.897225250840179
sS'pos_y'
p6
F-90.13633393652799
sS'isAlive'
p7
I01
sS'geno'
p8
(lp9
F-0.73280576651519436
aF0.76675558838708469
aF2.9558666311615394
aF3.505568889890684
aF-3.2503124095593536
aF2.8327782932934493
asS'accel_x'
p10
F0
sS'accel_y'
p11
F0
sS'maxAccel'
p12
I2
sS'maxVel'
p13
F0.5
sS'age'
p14
I0
sS'radius'
p15
I2
sS'gener'
p16
S'm'
sS'lastScale'
p17
F15.5
sS'energy'
p18
F1.5
sb.(i__main__
Data_mobile
p1
(dp2
S'vel_y'
p3
I0
sS'vel_x'
p4
I0
sS'pos_x'
p5
F-85.256184968256747
sS'pos_y'
p6
F-79.461944476135571
sS'isAlive'
p7
I01
sS'geno'
p8
(lp9
F0.33611938454301971
aF1.8596690022714304
aF4.0612249582755027
aF-2.5719862470756718
aF2.9474223785570359
aF-0.18491774087698332
asS'accel_x'
p10
F0
sS'accel_y'
p11
F0
sS'maxAccel'
p12
I2
sS'maxVel'
p13
F0.5
sS'age'
p14
I0
sS'radius'
p15
I2
sS'gener'
p16
S'm'
sS'lastScale'
p17
F15.5
sS'energy'
p18
F1.5
sb.(i__main__
Data_mobile
p1
(dp2
S'vel_y'
p3
I0
sS'vel_x'
p4
I0
sS'pos_x'
p5
F-87.11523894390568
sS'pos_y'
p6
F-54.291163318649552
sS'isAlive'
p7
I01
sS'geno'
p8
(lp9
F2.4279616147024274
aF0.32254711898072408
aF0.8605301989260159
aF2.623571269074513
aF-4.3969387446556683
aF4.9971701955610133
asS'accel_x'
p10
F0
sS'accel_y'
p11
F0
sS'maxAccel'
p12
I2
sS'maxVel'
p13
F0.5
sS'age'
p14
I0
sS'radius'
p15
I2
sS'gener'
p16
S'm'
sS'lastScale'
p17
F15.5
sS'energy'
p18
F1.5
sb.(i__main__
Data_mobile
p1
(dp2
S'vel_y'
p3
I0
sS'vel_x'
p4
I0
sS'pos_x'
p5
F-95.630775111504548
sS'pos_y'
p6
F-51.773918824805477
sS'isAlive'
p7
I01
sS'geno'
p8
(lp9
F0.083617926606693871
aF0.22026913716480045
aF4.5001165399832423
aF0.18191016314799668
aF-2.5550665547675253
aF2.4210018390385537
asS'accel_x'
p10
F0
sS'accel_y'
p11
F0
sS'maxAccel'
p12
I2
sS'maxVel'
p13
F0.5
sS'age'
p14
I0
sS'radius'
p15
I2
sS'gener'
p16
S'm'
sS'lastScale'
p17
F15.5
sS'energy'
p18
F1.5
sb.(i__main__
Data_mobile
p1
(dp2
S'vel_y'
p3
I0
sS'vel_x'
p4
I0
sS'pos_x'
p5
F-78.659721174814791
sS'pos_y'
p6
F-20.399111425575413
sS'isAlive'
p7
I01
sS'geno'
p8
(lp9
F2.2104339099027657
aF-1.9139596193837027
aF4.7006927897281283
aF-4.1815833600814356
aF-0.68573771297980812
aF-0.82649591199749661
asS'accel_x'
p10
F0
sS'accel_y'
p11
F0
sS'maxAccel'
p12
I2
sS'maxVel'
p13
F0.5
sS'age'
p14
I0
sS'radius'
p15
I2
sS'gener'
p16
S'm'
sS'lastScale'
p17
F15.5
sS'energy'
p18
F1.5
sb.(i__main__
Data_mobile
p1
(dp2
S'vel_y'
p3
I0
sS'vel_x'
p4
I0
sS'pos_x'
p5
F-78.329997117672875
sS'pos_y'
p6
F-8.1244363767558774
sS'isAlive'
p7
I01
sS'geno'
p8
(lp9
F-3.1575268423086733
aF-1.2773062265614032
aF3.088098357834081
aF4.5861847876869248
aF-0.92944744105078492
aF4.175057407671499
asS'accel_x'
p10
F0
sS'accel_y'
p11
F0
sS'maxAccel'
p12
I2
sS'maxVel'
p13
F0.5
sS'age'
p14
I0
sS'radius'
p15
I2
sS'gener'
p16
S'm'
sS'lastScale'
p17
F15.5
sS'energy'
p18
F1.5
sb.(i__main__
Data_mobile
p1
(dp2
S'vel_y'
p3
I0
sS'vel_x'
p4
I0
sS'pos_x'
p5
F-95.949756692362627
sS'pos_y'
p6
F1.7185529605123193
sS'isAlive'
p7
I01
sS'geno'
p8
(lp9
F1.3381565497643244
aF-2.0524111982111104
aF-4.2579381395741223
aF-2.9317903799591507
aF-1.5827633220562412
aF2.495044506101344
asS'accel_x'
p10
F0
sS'accel_y'
p11
F0
sS'maxAccel'
p12
I2
sS'maxVel'
p13
F0.5
sS'age'
p14
I0
sS'radius'
p15
I2
sS'gener'
p16
S'm'
sS'lastScale'
p17
F15.5
sS'energy'
p18
F1.5
sb.(i__main__
Data_mobile
p1
(dp2
S'vel_y'
p3
I0
sS'vel_x'
p4
I0
sS'pos_x'
p5
F-94.283633824816022
sS'pos_y'
p6
F14.668922213133092
sS'isAlive'
p7
I01
sS'geno'
p8
(lp9
F4.4388602008590929
aF4.5452897055305961
aF-0.99819283253084379
aF-3.1449234489499265
aF-2.1215496787156174
aF-2.56526013403376
asS'accel_x'
p10
F0
sS'accel_y'
p11
F0
sS'maxAccel'
p12
I2
sS'maxVel'
p13
F0.5
sS'age'
p14
I0
sS'radius'
p15
I2
sS'gener'
p16
S'm'
sS'lastScale'
p17
F15.5
sS'energy'
p18
F1.5
sb.(i__main__
Data_mobile
p1
(dp2
S'vel_y'
p3
I0
sS'vel_x'
p4
I0
sS'pos_x'
p5
F-74.156400470508629
sS'pos_y'
p6
F41.710824424264715
sS'isAlive'
p7
I01
sS'geno'
p8
(lp9
F1.2383103236061244
aF4.8948343721670255
aF1.958144024890256
aF0.64907246868270896
aF4.3820001779156836
aF2.9034295834983812
asS'accel_x'
p10
F0
sS'accel_y'
p11
F0
sS'maxAccel'
p12
I2
sS'maxVel'
p13
F0.5
sS'age'
p14
I0
sS'radius'
p15
I2
sS'gener'
p16
S'm'
sS'lastScale'
p17
F15.5
sS'energy'
p18
F1.5
sb.(i__main__
Data_mobile
p1
(dp2
S'vel_y'
p3
I0
sS'vel_x'
p4
I0
sS'pos_x'
p5
F-79.574225732956819
sS'pos_y'
p6
F48.528600965866019
sS'isAlive'
p7
I01
sS'geno'
p8
(lp9
F-0.88587638338567398
aF-2.6306347614586176
aF-3.4265132753441643
aF-3.5178685633100679
aF4.4848017252881114
aF-2.7021414976861511
asS'accel_x'
p10
F0
sS'accel_y'
p11
F0
sS'maxAccel'
p12
I2
sS'maxVel'
p13
F0.5
sS'age'
p14
I0
sS'radius'
p15
I2
sS'gener'
p16
S'm'
sS'lastScale'
p17
F15.5
sS'energy'
p18
F1.5
sb.(i__main__
Data_mobile
p1
(dp2
S'vel_y'
p3
I0
sS'vel_x'
p4
I0
sS'pos_x'
p5
F-71.813743374609274
sS'pos_y'
p6
F70.489049228786982
sS'isAlive'
p7
I01
sS'geno'
p8
(lp9
F2.5961466059400475
aF2.1346216229739028
aF4.9616995213961825
aF-3.4375273449409782
aF-2.846783111734752
aF2.5267309615611939
asS'accel_x'
p10
F0
sS'accel_y'
p11
F0
sS'maxAccel'
p12
I2
sS'maxVel'
p13
F0.5
sS'age'
p14
I0
sS'radius'
p15
I2
sS'gener'
p16
S'm'
sS'lastScale'
p17
F15.5
sS'energy'
p18
F1.5
sb.(i__main__
Data_mobile
p1
(dp2
S'vel_y'
p3
I0
sS'vel_x'
p4
I0
sS'pos_x'
p5
F-100.94760203827192
sS'pos_y'
p6
F84.858528144456017
sS'isAlive'
p7
I01
sS'geno'
p8
(lp9
F1.5091692810096093
aF2.5768558715713619
aF-0.68526281616741613
aF-2.2920039867817299
aF4.731399880375351
aF3.4950215128624009
asS'accel_x'
p10
F0
sS'accel_y'
p11
F0
sS'maxAccel'
p12
I2
sS'maxVel'
p13
F0.5
sS'age'
p14
I0
sS'radius'
p15
I2
sS'gener'
p16
S'm'
sS'lastScale'
p17
F15.5
sS'energy'
p18
F1.5
sb.(i__main__
Data_mobile
p1
(dp2
S'vel_y'
p3
I0
sS'vel_x'
p4
I0
sS'pos_x'
p5
F-41.867395379279259
sS'pos_y'
p6
F-88.088399780048277
sS'isAlive'
p7
I01
sS'geno'
p8
(lp9
F-2.2463567702585596
aF-4.7614130964054189
aF2.8657610686199231
aF4.7200046989969948
aF3.269774642861659
aF-3.2754270324320256
asS'accel_x'
p10
F0
sS'accel_y'
p11
F0
sS'maxAccel'
p12
I2
sS'maxVel'
p13
F0.5
sS'age'
p14
I0
sS'radius'
p15
I2
sS'gener'
p16
S'm'
sS'lastScale'
p17
F15.5
sS'energy'
p18
F1.5
sb.(i__main__
Data_mobile
p1
(dp2
S'vel_y'
p3
I0
sS'vel_x'
p4
I0
sS'pos_x'
p5
F-49.286108714380518
sS'pos_y'
p6
F-76.342316002530765
sS'isAlive'
p7
I01
sS'geno'
p8
(lp9
F-4.1861486300494191
aF1.047032758793919
aF-3.5381311244590021
aF-1.7514732919843414
aF-2.6698484678194934
aF2.7971816068571629
asS'accel_x'
p10
F0
sS'accel_y'
p11
F0
sS'maxAccel'
p12
I2
sS'maxVel'
p13
F0.5
sS'age'
p14
I0
sS'radius'
p15
I2
sS'gener'
p16
S'm'
sS'lastScale'
p17
F15.5
sS'energy'
p18
F1.5
sb.(i__main__
Data_mobile
p1
(dp2
S'vel_y'
p3
I0
sS'vel_x'
p4
I0
sS'pos_x'
p5
F-57.568591559460749
sS'pos_y'
p6
F-54.944273558303792
sS'isAlive'
p7
I01
sS'geno'
p8
(lp9
F3.8633069648539209
aF-1.6170936411308712
aF-2.430130612024417
aF-1.2609627961679659
aF-3.4471566803644094
aF-0.32579169981472944
asS'accel_x'
p10
F0
sS'accel_y'
p11
F0
sS'maxAccel'
p12
I2
sS'maxVel'
p13
F0.5
sS'age'
p14
I0
sS'radius'
p15
I2
sS'gener'
p16
S'm'
sS'lastScale'
p17
F15.5
sS'energy'
p18
F1.5
sb.(i__main__
Data_mobile
p1
(dp2
S'vel_y'
p3
I0
sS'vel_x'
p4
I0
sS'pos_x'
p5
F-37.463045156410573
sS'pos_y'
p6
F-40.854599432148575
sS'isAlive'
p7
I01
sS'geno'
p8
(lp9
F4.4450302978710852
aF-4.5050096362916019
aF-4.0009780932572454
aF3.6208101376474584
aF-2.9690350464467743
aF2.4763546918022614
asS'accel_x'
p10
F0
sS'accel_y'
p11
F0
sS'maxAccel'
p12
I2
sS'maxVel'
p13
F0.5
sS'age'
p14
I0
sS'radius'
p15
I2
sS'gener'
p16
S'm'
sS'lastScale'
p17
F15.5
sS'energy'
p18
F1.5
sb.(i__main__
Data_mobile
p1
(dp2
S'vel_y'
p3
I0
sS'vel_x'
p4
I0
sS'pos_x'
p5
F-53.141710001555907
sS'pos_y'
p6
F-20.655211115989108
sS'isAlive'
p7
I01
sS'geno'
p8
(lp9
F2.8421505412568422
aF-2.2797172320427861
aF3.5525029760599462
aF-4.7730245735762811
aF0.4527367054663225
aF-2.077552879252015
asS'accel_x'
p10
F0
sS'accel_y'
p11
F0
sS'maxAccel'
p12
I2
sS'maxVel'
p13
F0.5
sS'age'
p14
I0
sS'radius'
p15
I2
sS'gener'
p16
S'm'
sS'lastScale'
p17
F15.5
sS'energy'
p18
F1.5
sb.(i__main__
Data_mobile
p1
(dp2
S'vel_y'
p3
I0
sS'vel_x'
p4
I0
sS'pos_x'
p5
F-36.994657081689923
sS'pos_y'
p6
F-7.6519604015089957
sS'isAlive'
p7
I01
sS'geno'
p8
(lp9
F3.6976760878303878
aF-3.3679809627768376
aF4.4783410834227357
aF-3.3566742158709681
aF-4.5014346833241872
aF-4.7324655363914765
asS'accel_x'
p10
F0
sS'accel_y'
p11
F0
sS'maxAccel'
p12
I2
sS'maxVel'
p13
F0.5
sS'age'
p14
I0
sS'radius'
p15
I2
sS'gener'
p16
S'm'
sS'lastScale'
p17
F15.5
sS'energy'
p18
F1.5
sb.(i__main__
Data_mobile
p1
(dp2
S'vel_y'
p3
I0
sS'vel_x'
p4
I0
sS'pos_x'
p5
F-52.504446122161937
sS'pos_y'
p6
F11.316191627361638
sS'isAlive'
p7
I01
sS'geno'
p8
(lp9
F0.70428214974593484
aF-0.007109434199424669
aF4.3265518591856971
aF2.0599986408336148
aF2.9350430977086361
aF-3.4690739961876247
asS'accel_x'
p10
F0
sS'accel_y'
p11
F0
sS'maxAccel'
p12
I2
sS'maxVel'
p13
F0.5
sS'age'
p14
I0
sS'radius'
p15
I2
sS'gener'
p16
S'm'
sS'lastScale'
p17
F15.5
sS'energy'
p18
F1.5
sb.(i__main__
Data_mobile
p1
(dp2
S'vel_y'
p3
I0
sS'vel_x'
p4
I0
sS'pos_x'
p5
F-53.841883722455364
sS'pos_y'
p6
F27.49627130604059
sS'isAlive'
p7
I01
sS'geno'
p8
(lp9
F4.586349074616173
aF-1.574828555214991
aF-0.36068436067375309
aF-2.407138732805314
aF0.042628531284787385
aF1.0754895997601359
asS'accel_x'
p10
F0
sS'accel_y'
p11
F0
sS'maxAccel'
p12
I2
sS'maxVel'
p13
F0.5
sS'age'
p14
I0
sS'radius'
p15
I2
sS'gener'
p16
S'm'
sS'lastScale'
p17
F15.5
sS'energy'
p18
F1.5
sb.(i__main__
Data_mobile
p1
(dp2
S'vel_y'
p3
I0
sS'vel_x'
p4
I0
sS'pos_x'
p5
F-50.285840207451493
sS'pos_y'
p6
F35.438456538585839
sS'isAlive'
p7
I01
sS'geno'
p8
(lp9
F2.7137076258471904
aF4.7841343104003649
aF4.049898464786029
aF-4.2391782470857784
aF-1.0106177983469102
aF-0.41645111833137793
asS'accel_x'
p10
F0
sS'accel_y'
p11
F0
sS'maxAccel'
p12
I2
sS'maxVel'
p13
F0.5
sS'age'
p14
I0
sS'radius'
p15
I2
sS'gener'
p16
S'm'
sS'lastScale'
p17
F15.5
sS'energy'
p18
F1.5
sb.(i__main__
Data_mobile
p1
(dp2
S'vel_y'
p3
I0
sS'vel_x'
p4
I0
sS'pos_x'
p5
F-47.18078583167437
sS'pos_y'
p6
F44.858375726600997
sS'isAlive'
p7
I01
sS'geno'
p8
(lp9
F4.4023402981588617
aF-3.0359216489466654
aF-4.3769380985904291
aF-2.357445972071146
aF4.5166780399811817
aF-1.0323083991673387
asS'accel_x'
p10
F0
sS'accel_y'
p11
F0
sS'maxAccel'
p12
I2
sS'maxVel'
p13
F0.5
sS'age'
p14
I0
sS'radius'
p15
I2
sS'gener'
p16
S'm'
sS'lastScale'
p17
F15.5
sS'energy'
p18
F1.5
sb.(i__main__
Data_mobile
p1
(dp2
S'vel_y'
p3
I0
sS'vel_x'
p4
I0
sS'pos_x'
p5
F-61.42249446912929
sS'pos_y'
p6
F66.054181412689118
sS'isAlive'
p7
I01
sS'geno'
p8
(lp9
F-0.040687574970997176
aF3.2258427202082469
aF-1.731772622562918
aF4.4334371257960665
aF-4.4047082326395799
aF-4.1396717890879149
asS'accel_x'
p10
F0
sS'accel_y'
p11
F0
sS'maxAccel'
p12
I2
sS'maxVel'
p13
F0.5
sS'age'
p14
I0
sS'radius'
p15
I2
sS'gener'
p16
S'm'
sS'lastScale'
p17
F15.5
sS'energy'
p18
F1.5
sb.(i__main__
Data_mobile
p1
(dp2
S'vel_y'
p3
I0
sS'vel_x'
p4
I0
sS'pos_x'
p5
F-45.078746341572234
sS'pos_y'
p6
F88.461080775360315
sS'isAlive'
p7
I01
sS'geno'
p8
(lp9
F-3.5079629937047798
aF4.2351416218122147
aF-2.9437905269495754
aF1.0542900099154
aF-2.786069271592706
aF-2.5561600849029187
asS'accel_x'
p10
F0
sS'accel_y'
p11
F0
sS'maxAccel'
p12
I2
sS'maxVel'
p13
F0.5
sS'age'
p14
I0
sS'radius'
p15
I2
sS'gener'
p16
S'm'
sS'lastScale'
p17
F15.5
sS'energy'
p18
F1.5
sb.(i__main__
Data_mobile
p1
(dp2
S'vel_y'
p3
I0
sS'vel_x'
p4
I0
sS'pos_x'
p5
F-18.811114741816603
sS'pos_y'
p6
F-96.659980201582798
sS'isAlive'
p7
I01
sS'geno'
p8
(lp9
F0.76062518466117979
aF-4.003357974878325
aF-3.6416086450592342
aF-4.0619268111521354
aF2.23103985167592
aF4.5744339267969334
asS'accel_x'
p10
F0
sS'accel_y'
p11
F0
sS'maxAccel'
p12
I2
sS'maxVel'
p13
F0.5
sS'age'
p14
I0
sS'radius'
p15
I2
sS'gener'
p16
S'm'
sS'lastScale'
p17
F15.5
sS'energy'
p18
F1.5
sb.(i__main__
Data_mobile
p1
(dp2
S'vel_y'
p3
I0
sS'vel_x'
p4
I0
sS'pos_x'
p5
F-8.6164007746585121
sS'pos_y'
p6
F-71.051188784791364
sS'isAlive'
p7
I01
sS'geno'
p8
(lp9
F1.2907500206247411
aF-1.496969309167655
aF4.7738765467598103
aF-0.17240280975535338
aF-0.25890014649137871
aF4.6464231288079212
asS'accel_x'
p10
F0
sS'accel_y'
p11
F0
sS'maxAccel'
p12
I2
sS'maxVel'
p13
F0.5
sS'age'
p14
I0
sS'radius'
p15
I2
sS'gener'
p16
S'm'
sS'lastScale'
p17
F15.5
sS'energy'
p18
F1.5
sb.(i__main__
Data_mobile
p1
(dp2
S'vel_y'
p3
I0
sS'vel_x'
p4
I0
sS'pos_x'
p5
F-13.483028369186059
sS'pos_y'
p6
F-60.115223068658864
sS'isAlive'
p7
I01
sS'geno'
p8
(lp9
F-1.9074659648159642
aF-3.9083249555001087
aF4.5971360934730079
aF-4.3622294664923924
aF-3.7192016969486987
aF-2.9703839565766876
asS'accel_x'
p10
F0
sS'accel_y'
p11
F0
sS'maxAccel'
p12
I2
sS'maxVel'
p13
F0.5
sS'age'
p14
I0
sS'radius'
p15
I2
sS'gener'
p16
S'm'
sS'lastScale'
p17
F15.5
sS'energy'
p18
F1.5
sb.(i__main__
Data_mobile
p1
(dp2
S'vel_y'
p3
I0
sS'vel_x'
p4
I0
sS'pos_x'
p5
F-28.646571730310466
sS'pos_y'
p6
F-40.76605127205049
sS'isAlive'
p7
I01
sS'geno'
p8
(lp9
F4.7812627513171932
aF1.1078973877823337
aF-0.12145589258791833
aF1.4479186736008787
aF3.1180305132072128
aF-1.588456232884301
asS'accel_x'
p10
F0
sS'accel_y'
p11
F0
sS'maxAccel'
p12
I2
sS'maxVel'
p13
F0.5
sS'age'
p14
I0
sS'radius'
p15
I2
sS'gener'
p16
S'm'
sS'lastScale'
p17
F15.5
sS'energy'
p18
F1.5
sb.(i__main__
Data_mobile
p1
(dp2
S'vel_y'
p3
I0
sS'vel_x'
p4
I0
sS'pos_x'
p5
F-25.231159947879654
sS'pos_y'
p6
F-34.333038470231259
sS'isAlive'
p7
I01
sS'geno'
p8
(lp9
F1.3104676332618954
aF-0.33849753456930998
aF3.9634151495942032
aF4.1834704540787655
aF-3.5688966156873549
aF-3.8634941741832285
asS'accel_x'
p10
F0
sS'accel_y'
p11
F0
sS'maxAccel'
p12
I2
sS'maxVel'
p13
F0.5
sS'age'
p14
I0
sS'radius'
p15
I2
sS'gener'
p16
S'm'
sS'lastScale'
p17
F15.5
sS'energy'
p18
F1.5
sb.(i__main__
Data_mobile
p1
(dp2
S'vel_y'
p3
I0
sS'vel_x'
p4
I0
sS'pos_x'
p5
F-21.85479567331172
sS'pos_y'
p6
F-4.4895407766814053
sS'isAlive'
p7
I01
sS'geno'
p8
(lp9
F3.5275700511034476
aF-1.7516102875202821
aF1.8221377230685434
aF1.2994847973918429
aF0.92737419690586353
aF2.6060060176955266
asS'accel_x'
p10
F0
sS'accel_y'
p11
F0
sS'maxAccel'
p12
I2
sS'maxVel'
p13
F0.5
sS'age'
p14
I0
sS'radius'
p15
I2
sS'gener'
p16
S'm'
sS'lastScale'
p17
F15.5
sS'energy'
p18
F1.5
sb.(i__main__
Data_mobile
p1
(dp2
S'vel_y'
p3
I0
sS'vel_x'
p4
I0
sS'pos_x'
p5
F-23.282530409381909
sS'pos_y'
p6
F7.5887519414577902
sS'isAlive'
p7
I01
sS'geno'
p8
(lp9
F-4.6185686598985063
aF0.84611189453385194
aF3.5331394582356861
aF-3.9132417403205535
aF2.5185823233833506
aF-2.9970379775560096
asS'accel_x'
p10
F0
sS'accel_y'
p11
F0
sS'maxAccel'
p12
I2
sS'maxVel'
p13
F0.5
sS'age'
p14
I0
sS'radius'
p15
I2
sS'gener'
p16
S'm'
sS'lastScale'
p17
F15.5
sS'energy'
p18
F1.5
sb.(i__main__
Data_mobile
p1
(dp2
S'vel_y'
p3
I0
sS'vel_x'
p4
I0
sS'pos_x'
p5
F-27.263949361600815
sS'pos_y'
p6
F25.084883000812916
sS'isAlive'
p7
I01
sS'geno'
p8
(lp9
F1.7569479095338405
aF-3.6749321009151292
aF-3.7402947958994295
aF1.2051715977255295
aF-1.683214199500922
aF0.65137475135773304
asS'accel_x'
p10
F0
sS'accel_y'
p11
F0
sS'maxAccel'
p12
I2
sS'maxVel'
p13
F0.5
sS'age'
p14
I0
sS'radius'
p15
I2
sS'gener'
p16
S'm'
sS'lastScale'
p17
F15.5
sS'energy'
p18
F1.5
sb.(i__main__
Data_mobile
p1
(dp2
S'vel_y'
p3
I0
sS'vel_x'
p4
I0
sS'pos_x'
p5
F-31.839559014748531
sS'pos_y'
p6
F35.983194616031042
sS'isAlive'
p7
I01
sS'geno'
p8
(lp9
F-4.573047519061145
aF1.7266192680453756
aF3.3823692094710189
aF4.6133146686517925
aF-0.5188215903539124
aF-4.2046534364824284
asS'accel_x'
p10
F0
sS'accel_y'
p11
F0
sS'maxAccel'
p12
I2
sS'maxVel'
p13
F0.5
sS'age'
p14
I0
sS'radius'
p15
I2
sS'gener'
p16
S'm'
sS'lastScale'
p17
F15.5
sS'energy'
p18
F1.5
sb.(i__main__
Data_mobile
p1
(dp2
S'vel_y'
p3
I0
sS'vel_x'
p4
I0
sS'pos_x'
p5
F-29.28088570645081
sS'pos_y'
p6
F55.12473906823741
sS'isAlive'
p7
I01
sS'geno'
p8
(lp9
F-0.76318712070427619
aF-1.6873390970966184
aF0.072445621827627704
aF4.6392896766611482
aF-0.13114393032630467
aF1.0224559634126091
asS'accel_x'
p10
F0
sS'accel_y'
p11
F0
sS'maxAccel'
p12
I2
sS'maxVel'
p13
F0.5
sS'age'
p14
I0
sS'radius'
p15
I2
sS'gener'
p16
S'm'
sS'lastScale'
p17
F15.5
sS'energy'
p18
F1.5
sb.(i__main__
Data_mobile
p1
(dp2
S'vel_y'
p3
I0
sS'vel_x'
p4
I0
sS'pos_x'
p5
F-15.683364221715788
sS'pos_y'
p6
F65.451262346045297
sS'isAlive'
p7
I01
sS'geno'
p8
(lp9
F-3.193886894187342
aF0.33908082675317086
aF-3.552898124382049
aF0.370020196983182
aF0.88590822711076989
aF-4.5655899156843809
asS'accel_x'
p10
F0
sS'accel_y'
p11
F0
sS'maxAccel'
p12
I2
sS'maxVel'
p13
F0.5
sS'age'
p14
I0
sS'radius'
p15
I2
sS'gener'
p16
S'm'
sS'lastScale'
p17
F15.5
sS'energy'
p18
F1.5
sb.(i__main__
Data_mobile
p1
(dp2
S'vel_y'
p3
I0
sS'vel_x'
p4
I0
sS'pos_x'
p5
F-7.1468820045784653
sS'pos_y'
p6
F90.561370404035927
sS'isAlive'
p7
I01
sS'geno'
p8
(lp9
F0.37962652358800231
aF-4.6684443265035114
aF0.37415816231170407
aF-3.5768767536311632
aF2.5758251808255741
aF1.7153730216255543
asS'accel_x'
p10
F0
sS'accel_y'
p11
F0
sS'maxAccel'
p12
I2
sS'maxVel'
p13
F0.5
sS'age'
p14
I0
sS'radius'
p15
I2
sS'gener'
p16
S'm'
sS'lastScale'
p17
F15.5
sS'energy'
p18
F1.5
sb.(i__main__
Data_mobile
p1
(dp2
S'vel_y'
p3
I0
sS'vel_x'
p4
I0
sS'pos_x'
p5
F5.7295598783809556
sS'pos_y'
p6
F-94.987005416842379
sS'isAlive'
p7
I01
sS'geno'
p8
(lp9
F-2.1924296400746144
aF3.2094561749251973
aF-4.3640481603367469
aF2.8525334551332948
aF3.2391493720210658
aF0.15835499303069156
asS'accel_x'
p10
F0
sS'accel_y'
p11
F0
sS'maxAccel'
p12
I2
sS'maxVel'
p13
F0.5
sS'age'
p14
I0
sS'radius'
p15
I2
sS'gener'
p16
S'm'
sS'lastScale'
p17
F15.5
sS'energy'
p18
F1.5
sb.(i__main__
Data_mobile
p1
(dp2
S'vel_y'
p3
I0
sS'vel_x'
p4
I0
sS'pos_x'
p5
F25.011635614779653
sS'pos_y'
p6
F-80.9901265891517
sS'isAlive'
p7
I01
sS'geno'
p8
(lp9
F-0.2989885816560296
aF-0.95701541774074084
aF-1.6371577113493885
aF-2.5006489712763971
aF-2.1030828252829026
aF2.6681691366348694
asS'accel_x'
p10
F0
sS'accel_y'
p11
F0
sS'maxAccel'
p12
I2
sS'maxVel'
p13
F0.5
sS'age'
p14
I0
sS'radius'
p15
I2
sS'gener'
p16
S'm'
sS'lastScale'
p17
F15.5
sS'energy'
p18
F1.5
sb.(i__main__
Data_mobile
p1
(dp2
S'vel_y'
p3
I0
sS'vel_x'
p4
I0
sS'pos_x'
p5
F4.0191361119422675
sS'pos_y'
p6
F-60.668742969010189
sS'isAlive'
p7
I01
sS'geno'
p8
(lp9
F1.6102945640551605
aF-3.5561560016234104
aF2.8880445876975145
aF1.6141275959797072
aF-3.4321940322041589
aF-2.2427221619294766
asS'accel_x'
p10
F0
sS'accel_y'
p11
F0
sS'maxAccel'
p12
I2
sS'maxVel'
p13
F0.5
sS'age'
p14
I0
sS'radius'
p15
I2
sS'gener'
p16
S'm'
sS'lastScale'
p17
F15.5
sS'energy'
p18
F1.5
sb.(i__main__
Data_mobile
p1
(dp2
S'vel_y'
p3
I0
sS'vel_x'
p4
I0
sS'pos_x'
p5
F9.7567183563275002
sS'pos_y'
p6
F-43.71400946888086
sS'isAlive'
p7
I01
sS'geno'
p8
(lp9
F4.1039380151310372
aF4.52395066542352
aF1.0741575355636455
aF0.68241662136214654
aF2.1584629010386891
aF-4.4075782139602868
asS'accel_x'
p10
F0
sS'accel_y'
p11
F0
sS'maxAccel'
p12
I2
sS'maxVel'
p13
F0.5
sS'age'
p14
I0
sS'radius'
p15
I2
sS'gener'
p16
S'm'
sS'lastScale'
p17
F15.5
sS'energy'
p18
F1.5
sb.(i__main__
Data_mobile
p1
(dp2
S'vel_y'
p3
I0
sS'vel_x'
p4
I0
sS'pos_x'
p5
F6.7485265109906276
sS'pos_y'
p6
F-35.219791066634151
sS'isAlive'
p7
I01
sS'geno'
p8
(lp9
F-4.6610366373848491
aF3.0400031022104503
aF0.29656293678545964
aF-2.7359502123739943
aF3.8697366172472325
aF-3.8735098430612078
asS'accel_x'
p10
F0
sS'accel_y'
p11
F0
sS'maxAccel'
p12
I2
sS'maxVel'
p13
F0.5
sS'age'
p14
I0
sS'radius'
p15
I2
sS'gener'
p16
S'm'
sS'lastScale'
p17
F15.5
sS'energy'
p18
F1.5
sb.(i__main__
Data_mobile
p1
(dp2
S'vel_y'
p3
I0
sS'vel_x'
p4
I0
sS'pos_x'
p5
F22.979237312297016
sS'pos_y'
p6
F-9.5148613735973395
sS'isAlive'
p7
I01
sS'geno'
p8
(lp9
F-2.0018661169362284
aF-2.3098193133977585
aF-0.19464760812347937
aF4.5899704825029914
aF0.48489213495392391
aF-3.217666102633526
asS'accel_x'
p10
F0
sS'accel_y'
p11
F0
sS'maxAccel'
p12
I2
sS'maxVel'
p13
F0.5
sS'age'
p14
I0
sS'radius'
p15
I2
sS'gener'
p16
S'm'
sS'lastScale'
p17
F15.5
sS'energy'
p18
F1.5
sb.(i__main__
Data_mobile
p1
(dp2
S'vel_y'
p3
I0
sS'vel_x'
p4
I0
sS'pos_x'
p5
F24.485880499138478
sS'pos_y'
p6
F2.1563791660466851
sS'isAlive'
p7
I01
sS'geno'
p8
(lp9
F0.40238966802609877
aF-1.1384687003015781
aF2.3349373210579261
aF-4.7599522936845498
aF-4.9733422298731265
aF-3.2475653144542704
asS'accel_x'
p10
F0
sS'accel_y'
p11
F0
sS'maxAccel'
p12
I2
sS'maxVel'
p13
F0.5
sS'age'
p14
I0
sS'radius'
p15
I2
sS'gener'
p16
S'm'
sS'lastScale'
p17
F15.5
sS'energy'
p18
F1.5
sb.(i__main__
Data_mobile
p1
(dp2
S'vel_y'
p3
I0
sS'vel_x'
p4
I0
sS'pos_x'
p5
F29.682851059448904
sS'pos_y'
p6
F27.017789627082841
sS'isAlive'
p7
I01
sS'geno'
p8
(lp9
F0.56768584781121945
aF0.65250818802818156
aF1.5738455943693994
aF1.3768433041733843
aF1.3980595371353219
aF-1.148895994660637
asS'accel_x'
p10
F0
sS'accel_y'
p11
F0
sS'maxAccel'
p12
I2
sS'maxVel'
p13
F0.5
sS'age'
p14
I0
sS'radius'
p15
I2
sS'gener'
p16
S'm'
sS'lastScale'
p17
F15.5
sS'energy'
p18
F1.5
sb.(i__main__
Data_mobile
p1
(dp2
S'vel_y'
p3
I0
sS'vel_x'
p4
I0
sS'pos_x'
p5
F3.6728083961893727
sS'pos_y'
p6
F40.656280993126821
sS'isAlive'
p7
I01
sS'geno'
p8
(lp9
F-1.5215764025778702
aF-0.21515523826060257
aF1.4497173791651097
aF4.6304422440651329
aF-1.0960807706447904
aF2.7137812374293366
asS'accel_x'
p10
F0
sS'accel_y'
p11
F0
sS'maxAccel'
p12
I2
sS'maxVel'
p13
F0.5
sS'age'
p14
I0
sS'radius'
p15
I2
sS'gener'
p16
S'm'
sS'lastScale'
p17
F15.5
sS'energy'
p18
F1.5
sb.(i__main__
Data_mobile
p1
(dp2
S'vel_y'
p3
I0
sS'vel_x'
p4
I0
sS'pos_x'
p5
F25.06074309732141
sS'pos_y'
p6
F57.363614935521966
sS'isAlive'
p7
I01
sS'geno'
p8
(lp9
F-3.3058869824738633
aF-4.8120407160063241
aF0.66230017560645837
aF2.1170669485832159
aF2.6442298769549026
aF-4.3373010873264892
asS'accel_x'
p10
F0
sS'accel_y'
p11
F0
sS'maxAccel'
p12
I2
sS'maxVel'
p13
F0.5
sS'age'
p14
I0
sS'radius'
p15
I2
sS'gener'
p16
S'm'
sS'lastScale'
p17
F15.5
sS'energy'
p18
F1.5
sb.(i__main__
Data_mobile
p1
(dp2
S'vel_y'
p3
I0
sS'vel_x'
p4
I0
sS'pos_x'
p5
F23.094015284675624
sS'pos_y'
p6
F65.585622508661857
sS'isAlive'
p7
I01
sS'geno'
p8
(lp9
F-3.5980386611644266
aF2.8227540933294826
aF3.5476728126380177
aF-3.0066734910936868
aF-0.86613894710339068
aF-0.37557061052249008
asS'accel_x'
p10
F0
sS'accel_y'
p11
F0
sS'maxAccel'
p12
I2
sS'maxVel'
p13
F0.5
sS'age'
p14
I0
sS'radius'
p15
I2
sS'gener'
p16
S'm'
sS'lastScale'
p17
F15.5
sS'energy'
p18
F1.5
sb.(i__main__
Data_mobile
p1
(dp2
S'vel_y'
p3
I0
sS'vel_x'
p4
I0
sS'pos_x'
p5
F7.1850112577015004
sS'pos_y'
p6
F84.441922342229375
sS'isAlive'
p7
I01
sS'geno'
p8
(lp9
F-0.29367357594387489
aF-2.6256197399139269
aF-2.1311614751563468
aF-1.7045429241554877
aF4.5540453738326345
aF-4.8343079165931186
asS'accel_x'
p10
F0
sS'accel_y'
p11
F0
sS'maxAccel'
p12
I2
sS'maxVel'
p13
F0.5
sS'age'
p14
I0
sS'radius'
p15
I2
sS'gener'
p16
S'm'
sS'lastScale'
p17
F15.5
sS'energy'
p18
F1.5
sb.(i__main__
Data_mobile
p1
(dp2
S'vel_y'
p3
I0
sS'vel_x'
p4
I0
sS'pos_x'
p5
F44.253409327356479
sS'pos_y'
p6
F-94.001082191288305
sS'isAlive'
p7
I01
sS'geno'
p8
(lp9
F3.818960588503943
aF-1.8562410582712694
aF-0.71903698503279045
aF0.60854341974890147
aF1.1199046276335665
aF3.5831084682953662
asS'accel_x'
p10
F0
sS'accel_y'
p11
F0
sS'maxAccel'
p12
I2
sS'maxVel'
p13
F0.5
sS'age'
p14
I0
sS'radius'
p15
I2
sS'gener'
p16
S'm'
sS'lastScale'
p17
F15.5
sS'energy'
p18
F1.5
sb.(i__main__
Data_mobile
p1
(dp2
S'vel_y'
p3
I0
sS'vel_x'
p4
I0
sS'pos_x'
p5
F55.166697335390296
sS'pos_y'
p6
F-83.544135978081954
sS'isAlive'
p7
I01
sS'geno'
p8
(lp9
F-4.5235505094996009
aF-3.0874401079450555
aF-1.550166821005674
aF0.74164362892937952
aF-4.0333006417819774
aF-4.3625821335384476
asS'accel_x'
p10
F0
sS'accel_y'
p11
F0
sS'maxAccel'
p12
I2
sS'maxVel'
p13
F0.5
sS'age'
p14
I0
sS'radius'
p15
I2
sS'gener'
p16
S'm'
sS'lastScale'
p17
F15.5
sS'energy'
p18
F1.5
sb.(i__main__
Data_mobile
p1
(dp2
S'vel_y'
p3
I0
sS'vel_x'
p4
I0
sS'pos_x'
p5
F35.45477226691272
sS'pos_y'
p6
F-62.323230796046971
sS'isAlive'
p7
I01
sS'geno'
p8
(lp9
F3.9567474318779592
aF2.6667153882543913
aF-4.5824868874344604
aF3.4317747977476518
aF0.91987589629333222
aF1.24028063329889
asS'accel_x'
p10
F0
sS'accel_y'
p11
F0
sS'maxAccel'
p12
I2
sS'maxVel'
p13
F0.5
sS'age'
p14
I0
sS'radius'
p15
I2
sS'gener'
p16
S'm'
sS'lastScale'
p17
F15.5
sS'energy'
p18
F1.5
sb.(i__main__
Data_mobile
p1
(dp2
S'vel_y'
p3
I0
sS'vel_x'
p4
I0
sS'pos_x'
p5
F43.955137005000068
sS'pos_y'
p6
F-43.218160707881687
sS'isAlive'
p7
I01
sS'geno'
p8
(lp9
F0.70622222103473931
aF4.2350851606017663
aF-0.87298844074568294
aF-3.4877193691105757
aF1.7570529569302291
aF1.2168310652780683
asS'accel_x'
p10
F0
sS'accel_y'
p11
F0
sS'maxAccel'
p12
I2
sS'maxVel'
p13
F0.5
sS'age'
p14
I0
sS'radius'
p15
I2
sS'gener'
p16
S'm'
sS'lastScale'
p17
F15.5
sS'energy'
p18
F1.5
sb.(i__main__
Data_mobile
p1
(dp2
S'vel_y'
p3
I0
sS'vel_x'
p4
I0
sS'pos_x'
p5
F57.358254713629449
sS'pos_y'
p6
F-35.318412495211575
sS'isAlive'
p7
I01
sS'geno'
p8
(lp9
F-0.96434917681374088
aF-1.9217731711113419
aF3.9861939480750923
aF-4.9537045417436509
aF-2.25748045565315
aF-3.2257138017204134
asS'accel_x'
p10
F0
sS'accel_y'
p11
F0
sS'maxAccel'
p12
I2
sS'maxVel'
p13
F0.5
sS'age'
p14
I0
sS'radius'
p15
I2
sS'gener'
p16
S'm'
sS'lastScale'
p17
F15.5
sS'energy'
p18
F1.5
sb.(i__main__
Data_mobile
p1
(dp2
S'vel_y'
p3
I0
sS'vel_x'
p4
I0
sS'pos_x'
p5
F52.482704372209852
sS'pos_y'
p6
F-18.226089905278506
sS'isAlive'
p7
I01
sS'geno'
p8
(lp9
F4.2316231910781781
aF1.2141805795568326
aF1.3948464222326473
aF0.97704455649176758
aF-0.5463917509969356
aF-4.8692252730239307
asS'accel_x'
p10
F0
sS'accel_y'
p11
F0
sS'maxAccel'
p12
I2
sS'maxVel'
p13
F0.5
sS'age'
p14
I0
sS'radius'
p15
I2
sS'gener'
p16
S'm'
sS'lastScale'
p17
F15.5
sS'energy'
p18
F1.5
sb.(i__main__
Data_mobile
p1
(dp2
S'vel_y'
p3
I0
sS'vel_x'
p4
I0
sS'pos_x'
p5
F47.41101636751344
sS'pos_y'
p6
F1.6604993228156388
sS'isAlive'
p7
I01
sS'geno'
p8
(lp9
F-4.3390998592724728
aF2.033665452921948
aF-1.1692844739951971
aF4.6044739593117754
aF-3.6371974277073384
aF4.2121256614474376
asS'accel_x'
p10
F0
sS'accel_y'
p11
F0
sS'maxAccel'
p12
I2
sS'maxVel'
p13
F0.5
sS'age'
p14
I0
sS'radius'
p15
I2
sS'gener'
p16
S'm'
sS'lastScale'
p17
F15.5
sS'energy'
p18
F1.5
sb.(i__main__
Data_mobile
p1
(dp2
S'vel_y'
p3
I0
sS'vel_x'
p4
I0
sS'pos_x'
p5
F32.387448636999061
sS'pos_y'
p6
F16.512535634521733
sS'isAlive'
p7
I01
sS'geno'
p8
(lp9
F-3.2106797197049666
aF-4.7056034962333824
aF4.1300153316551214
aF1.1537420626645325
aF4.7367426021897199
aF3.8808925732941155
asS'accel_x'
p10
F0
sS'accel_y'
p11
F0
sS'maxAccel'
p12
I2
sS'maxVel'
p13
F0.5
sS'age'
p14
I0
sS'radius'
p15
I2
sS'gener'
p16
S'm'
sS'lastScale'
p17
F15.5
sS'energy'
p18
F1.5
sb.(i__main__
Data_mobile
p1
(dp2
S'vel_y'
p3
I0
sS'vel_x'
p4
I0
sS'pos_x'
p5
F58.332657245652527
sS'pos_y'
p6
F36.889902891831561
sS'isAlive'
p7
I01
sS'geno'
p8
(lp9
F2.0998014248311447
aF0.40616752196690875
aF-1.7915795156881629
aF-0.667102845028956
aF-0.38870530154870231
aF-2.9835286985386098
asS'accel_x'
p10
F0
sS'accel_y'
p11
F0
sS'maxAccel'
p12
I2
sS'maxVel'
p13
F0.5
sS'age'
p14
I0
sS'radius'
p15
I2
sS'gener'
p16
S'm'
sS'lastScale'
p17
F15.5
sS'energy'
p18
F1.5
sb.(i__main__
Data_mobile
p1
(dp2
S'vel_y'
p3
I0
sS'vel_x'
p4
I0
sS'pos_x'
p5
F47.424745495326817
sS'pos_y'
p6
F52.094566578862725
sS'isAlive'
p7
I01
sS'geno'
p8
(lp9
F1.3678513247624613
aF3.5629264099072095
aF3.1951932251761459
aF-3.9306331629248916
aF-3.0605162854202641
aF-0.67317271779980015
asS'accel_x'
p10
F0
sS'accel_y'
p11
F0
sS'maxAccel'
p12
I2
sS'maxVel'
p13
F0.5
sS'age'
p14
I0
sS'radius'
p15
I2
sS'gener'
p16
S'm'
sS'lastScale'
p17
F15.5
sS'energy'
p18
F1.5
sb.(i__main__
Data_mobile
p1
(dp2
S'vel_y'
p3
I0
sS'vel_x'
p4
I0
sS'pos_x'
p5
F53.212285823596275
sS'pos_y'
p6
F75.410747799117956
sS'isAlive'
p7
I01
sS'geno'
p8
(lp9
F-1.2517615172796335
aF4.5270845447847012
aF1.7409331677763067
aF0.1037008198814835
aF-2.4851225118653786
aF-2.0766392408351333
asS'accel_x'
p10
F0
sS'accel_y'
p11
F0
sS'maxAccel'
p12
I2
sS'maxVel'
p13
F0.5
sS'age'
p14
I0
sS'radius'
p15
I2
sS'gener'
p16
S'm'
sS'lastScale'
p17
F15.5
sS'energy'
p18
F1.5
sb.(i__main__
Data_mobile
p1
(dp2
S'vel_y'
p3
I0
sS'vel_x'
p4
I0
sS'pos_x'
p5
F58.645866141571616
sS'pos_y'
p6
F87.446500271150782
sS'isAlive'
p7
I01
sS'geno'
p8
(lp9
F4.9716550390505105
aF-0.9941541258814901
aF1.0584540018596815
aF0.84848729313023785
aF-0.75794058851406731
aF-1.7056840140445031
asS'accel_x'
p10
F0
sS'accel_y'
p11
F0
sS'maxAccel'
p12
I2
sS'maxVel'
p13
F0.5
sS'age'
p14
I0
sS'radius'
p15
I2
sS'gener'
p16
S'm'
sS'lastScale'
p17
F15.5
sS'energy'
p18
F1.5
sb.(i__main__
Data_mobile
p1
(dp2
S'vel_y'
p3
I0
sS'vel_x'
p4
I0
sS'pos_x'
p5
F91.473571454028672
sS'pos_y'
p6
F-95.582271476982115
sS'isAlive'
p7
I01
sS'geno'
p8
(lp9
F1.8418922090692869
aF1.2896444772013123
aF-2.1370917931783318
aF2.1793785866944981
aF-3.6437648274986802
aF4.992571171971214
asS'accel_x'
p10
F0
sS'accel_y'
p11
F0
sS'maxAccel'
p12
I2
sS'maxVel'
p13
F0.5
sS'age'
p14
I0
sS'radius'
p15
I2
sS'gener'
p16
S'm'
sS'lastScale'
p17
F15.5
sS'energy'
p18
F1.5
sb.(i__main__
Data_mobile
p1
(dp2
S'vel_y'
p3
I0
sS'vel_x'
p4
I0
sS'pos_x'
p5
F78.514481173997083
sS'pos_y'
p6
F-83.049128976787642
sS'isAlive'
p7
I01
sS'geno'
p8
(lp9
F-0.13293597191188589
aF2.4912801908969353
aF-3.3371611078150307
aF3.2720366395844209
aF-1.0976638836565398
aF-3.7282761764419394
asS'accel_x'
p10
F0
sS'accel_y'
p11
F0
sS'maxAccel'
p12
I2
sS'maxVel'
p13
F0.5
sS'age'
p14
I0
sS'radius'
p15
I2
sS'gener'
p16
S'm'
sS'lastScale'
p17
F15.5
sS'energy'
p18
F1.5
sb.(i__main__
Data_mobile
p1
(dp2
S'vel_y'
p3
I0
sS'vel_x'
p4
I0
sS'pos_x'
p5
F91.493183971622287
sS'pos_y'
p6
F-63.647156551085679
sS'isAlive'
p7
I01
sS'geno'
p8
(lp9
F1.5020965155880397
aF-4.840280971058089
aF3.2611904616819629
aF2.4352792893834865
aF2.4739356231485683
aF3.9330143001922657
asS'accel_x'
p10
F0
sS'accel_y'
p11
F0
sS'maxAccel'
p12
I2
sS'maxVel'
p13
F0.5
sS'age'
p14
I0
sS'radius'
p15
I2
sS'gener'
p16
S'm'
sS'lastScale'
p17
F15.5
sS'energy'
p18
F1.5
sb.(i__main__
Data_mobile
p1
(dp2
S'vel_y'
p3
I0
sS'vel_x'
p4
I0
sS'pos_x'
p5
F76.637295283846328
sS'pos_y'
p6
F-41.021772716515763
sS'isAlive'
p7
I01
sS'geno'
p8
(lp9
F-3.0765850464235567
aF2.9252840848782604
aF-3.1870290368038057
aF-3.238081193997886
aF-0.38382425045411672
aF-4.1287597036362502
asS'accel_x'
p10
F0
sS'accel_y'
p11
F0
sS'maxAccel'
p12
I2
sS'maxVel'
p13
F0.5
sS'age'
p14
I0
sS'radius'
p15
I2
sS'gener'
p16
S'm'
sS'lastScale'
p17
F15.5
sS'energy'
p18
F1.5
sb.(i__main__
Data_mobile
p1
(dp2
S'vel_y'
p3
I0
sS'vel_x'
p4
I0
sS'pos_x'
p5
F91.809254499337115
sS'pos_y'
p6
F-24.719284095203072
sS'isAlive'
p7
I01
sS'geno'
p8
(lp9
F-3.7263444927960121
aF-3.3678013095748538
aF0.39164836960550353
aF3.9200155595360968
aF0.56609238334466916
aF2.463415177081032
asS'accel_x'
p10
F0
sS'accel_y'
p11
F0
sS'maxAccel'
p12
I2
sS'maxVel'
p13
F0.5
sS'age'
p14
I0
sS'radius'
p15
I2
sS'gener'
p16
S'm'
sS'lastScale'
p17
F15.5
sS'energy'
p18
F1.5
sb.(i__main__
Data_mobile
p1
(dp2
S'vel_y'
p3
I0
sS'vel_x'
p4
I0
sS'pos_x'
p5
F90.667540196573754
sS'pos_y'
p6
F-12.38932062062595
sS'isAlive'
p7
I01
sS'geno'
p8
(lp9
F2.9325122354903286
aF-4.8209484694041018
aF-0.75531562296020649
aF-0.030179573059260889
aF2.0534358689489194
aF-2.992248567466993
asS'accel_x'
p10
F0
sS'accel_y'
p11
F0
sS'maxAccel'
p12
I2
sS'maxVel'
p13
F0.5
sS'age'
p14
I0
sS'radius'
p15
I2
sS'gener'
p16
S'm'
sS'lastScale'
p17
F15.5
sS'energy'
p18
F1.5
sb.(i__main__
Data_mobile
p1
(dp2
S'vel_y'
p3
I0
sS'vel_x'
p4
I0
sS'pos_x'
p5
F86.564652856230637
sS'pos_y'
p6
F-3.5917854790829793
sS'isAlive'
p7
I01
sS'geno'
p8
(lp9
F-0.083765303362185684
aF-2.9693144520448356
aF4.397008265982171
aF3.2852232027030617
aF0.39896369443896518
aF2.7091256062524813
asS'accel_x'
p10
F0
sS'accel_y'
p11
F0
sS'maxAccel'
p12
I2
sS'maxVel'
p13
F0.5
sS'age'
p14
I0
sS'radius'
p15
I2
sS'gener'
p16
S'm'
sS'lastScale'
p17
F15.5
sS'energy'
p18
F1.5
sb.(i__main__
Data_mobile
p1
(dp2
S'vel_y'
p3
I0
sS'vel_x'
p4
I0
sS'pos_x'
p5
F73.742623934937129
sS'pos_y'
p6
F25.401095732235444
sS'isAlive'
p7
I01
sS'geno'
p8
(lp9
F3.8631988225361145
aF1.141956914226685
aF3.1540497596687196
aF-1.5440536525248771
aF-2.8749666195536063
aF0.9350317500838905
asS'accel_x'
p10
F0
sS'accel_y'
p11
F0
sS'maxAccel'
p12
I2
sS'maxVel'
p13
F0.5
sS'age'
p14
I0
sS'radius'
p15
I2
sS'gener'
p16
S'm'
sS'lastScale'
p17
F15.5
sS'energy'
p18
F1.5
sb.(i__main__
Data_mobile
p1
(dp2
S'vel_y'
p3
I0
sS'vel_x'
p4
I0
sS'pos_x'
p5
F74.468472156066937
sS'pos_y'
p6
F28.433028072865003
sS'isAlive'
p7
I01
sS'geno'
p8
(lp9
F0.34756603284725429
aF0.080472101569297294
aF3.6187784123631062
aF-1.2024426163746114
aF3.8089713765627451
aF-4.5644176662007183
asS'accel_x'
p10
F0
sS'accel_y'
p11
F0
sS'maxAccel'
p12
I2
sS'maxVel'
p13
F0.5
sS'age'
p14
I0
sS'radius'
p15
I2
sS'gener'
p16
S'm'
sS'lastScale'
p17
F15.5
sS'energy'
p18
F1.5
sb.(i__main__
Data_mobile
p1
(dp2
S'vel_y'
p3
I0
sS'vel_x'
p4
I0
sS'pos_x'
p5
F77.803675918804544
sS'pos_y'
p6
F55.984799571872308
sS'isAlive'
p7
I01
sS'geno'
p8
(lp9
F-4.4702438728795428
aF3.2134228141283909
aF4.0509884946027857
aF-2.6025149592020149
aF-2.5747674442079527
aF-1.0294026384130914
asS'accel_x'
p10
F0
sS'accel_y'
p11
F0
sS'maxAccel'
p12
I2
sS'maxVel'
p13
F0.5
sS'age'
p14
I0
sS'radius'
p15
I2
sS'gener'
p16
S'm'
sS'lastScale'
p17
F15.5
sS'energy'
p18
F1.5
sb.(i__main__
Data_mobile
p1
(dp2
S'vel_y'
p3
I0
sS'vel_x'
p4
I0
sS'pos_x'
p5
F73.185682407635184
sS'pos_y'
p6
F61.186643274004467
sS'isAlive'
p7
I01
sS'geno'
p8
(lp9
F1.3136573504011482
aF4.3625105513123312
aF4.6134414588498931
aF1.0886333852144805
aF3.0584378975847279
aF-4.576402815949864
asS'accel_x'
p10
F0
sS'accel_y'
p11
F0
sS'maxAccel'
p12
I2
sS'maxVel'
p13
F0.5
sS'age'
p14
I0
sS'radius'
p15
I2
sS'gener'
p16
S'm'
sS'lastScale'
p17
F15.5
sS'energy'
p18
F1.5
sb.(i__main__
Data_mobile
p1
(dp2
S'vel_y'
p3
I0
sS'vel_x'
p4
I0
sS'pos_x'
p5
F91.638759216483919
sS'pos_y'
p6
F91.987719885157503
sS'isAlive'
p7
I01
sS'geno'
p8
(lp9
F-2.5530771122769402
aF-4.1281571055403177
aF-1.1393296887833424
aF-0.16459538939267748
aF-4.2723266013426979
aF-4.4062785012759464
asS'accel_x'
p10
F0
sS'accel_y'
p11
F0
sS'maxAccel'
p12
I2
sS'maxVel'
p13
F0.5
sS'age'
p14
I0
sS'radius'
p15
I2
sS'gener'
p16
S'm'
sS'lastScale'
p17
F15.5
sS'energy'
p18
F1.5
sb.(i__main__
Data_mobile
p1
(dp2
S'vel_y'
p3
I0
sS'vel_x'
p4
I0
sS'pos_x'
p5
F97.713508048283799
sS'pos_y'
p6
F-97.02535277268386
sS'isAlive'
p7
I01
sS'geno'
p8
(lp9
F-0.51119715982490987
aF1.4714544317025622
aF3.7358218304793276
aF4.7546170406786743
aF-0.4260710858511052
aF-1.5895182695303758
asS'accel_x'
p10
F0
sS'accel_y'
p11
F0
sS'maxAccel'
p12
I2
sS'maxVel'
p13
F0.5
sS'age'
p14
I0
sS'radius'
p15
I2
sS'gener'
p16
S'm'
sS'lastScale'
p17
F15.5
sS'energy'
p18
F1.5
sb.(i__main__
Data_mobile
p1
(dp2
S'vel_y'
p3
I0
sS'vel_x'
p4
I0
sS'pos_x'
p5
F106.26945345900569
sS'pos_y'
p6
F-80.640679039854149
sS'isAlive'
p7
I01
sS'geno'
p8
(lp9
F-1.5498144617625522
aF4.6291405112941106
aF0.61889077034611972
aF-0.040500846127692114
aF-2.2023070387737542
aF-1.5580328080881225
asS'accel_x'
p10
F0
sS'accel_y'
p11
F0
sS'maxAccel'
p12
I2
sS'maxVel'
p13
F0.5
sS'age'
p14
I0
sS'radius'
p15
I2
sS'gener'
p16
S'm'
sS'lastScale'
p17
F15.5
sS'energy'
p18
F1.5
sb.(i__main__
Data_mobile
p1
(dp2
S'vel_y'
p3
I0
sS'vel_x'
p4
I0
sS'pos_x'
p5
F114.28929621448273
sS'pos_y'
p6
F-52.17474010857336
sS'isAlive'
p7
I01
sS'geno'
p8
(lp9
F2.9956436194894129
aF2.1274094143613134
aF-4.5265756802198709
aF2.2889672895356661
aF-2.715360019808406
aF0.60682179974202999
asS'accel_x'
p10
F0
sS'accel_y'
p11
F0
sS'maxAccel'
p12
I2
sS'maxVel'
p13
F0.5
sS'age'
p14
I0
sS'radius'
p15
I2
sS'gener'
p16
S'm'
sS'lastScale'
p17
F15.5
sS'energy'
p18
F1.5
sb.(i__main__
Data_mobile
p1
(dp2
S'vel_y'
p3
I0
sS'vel_x'
p4
I0
sS'pos_x'
p5
F108.66422400465135
sS'pos_y'
p6
F-41.386486816368837
sS'isAlive'
p7
I01
sS'geno'
p8
(lp9
F-0.039419464407250082
aF-2.5935518145367298
aF4.0759844826029497
aF3.6417259717558981
aF-3.2413029565844753
aF-3.7425765186188089
asS'accel_x'
p10
F0
sS'accel_y'
p11
F0
sS'maxAccel'
p12
I2
sS'maxVel'
p13
F0.5
sS'age'
p14
I0
sS'radius'
p15
I2
sS'gener'
p16
S'm'
sS'lastScale'
p17
F15.5
sS'energy'
p18
F1.5
sb.(i__main__
Data_mobile
p1
(dp2
S'vel_y'
p3
I0
sS'vel_x'
p4
I0
sS'pos_x'
p5
F102.89087047169942
sS'pos_y'
p6
F-27.675186777099391
sS'isAlive'
p7
I01
sS'geno'
p8
(lp9
F-1.9495870447466546
aF-0.034564205000783055
aF-4.7231768352566501
aF2.9613476437793009
aF-2.6897177644135031
aF4.2479489082927699
asS'accel_x'
p10
F0
sS'accel_y'
p11
F0
sS'maxAccel'
p12
I2
sS'maxVel'
p13
F0.5
sS'age'
p14
I0
sS'radius'
p15
I2
sS'gener'
p16
S'm'
sS'lastScale'
p17
F15.5
sS'energy'
p18
F1.5
sb.(i__main__
Data_mobile
p1
(dp2
S'vel_y'
p3
I0
sS'vel_x'
p4
I0
sS'pos_x'
p5
F103.83414026445526
sS'pos_y'
p6
F-12.235856771723858
sS'isAlive'
p7
I01
sS'geno'
p8
(lp9
F-1.9080965709832567
aF3.2520018775391204
aF-2.421178256437102
aF1.2512722681258426
aF-0.98267092746312379
aF0.1440167898181155
asS'accel_x'
p10
F0
sS'accel_y'
p11
F0
sS'maxAccel'
p12
I2
sS'maxVel'
p13
F0.5
sS'age'
p14
I0
sS'radius'
p15
I2
sS'gener'
p16
S'm'
sS'lastScale'
p17
F15.5
sS'energy'
p18
F1.5
sb.(i__main__
Data_mobile
p1
(dp2
S'vel_y'
p3
I0
sS'vel_x'
p4
I0
sS'pos_x'
p5
F119.21078041493934
sS'pos_y'
p6
F9.3825993894186102
sS'isAlive'
p7
I01
sS'geno'
p8
(lp9
F-0.36687502286966822
aF-1.6338289539585595
aF-1.9540286830665798
aF-2.664952949850691
aF-0.14234925393959852
aF-4.2780816008617357
asS'accel_x'
p10
F0
sS'accel_y'
p11
F0
sS'maxAccel'
p12
I2
sS'maxVel'
p13
F0.5
sS'age'
p14
I0
sS'radius'
p15
I2
sS'gener'
p16
S'm'
sS'lastScale'
p17
F15.5
sS'energy'
p18
F1.5
sb.(i__main__
Data_mobile
p1
(dp2
S'vel_y'
p3
I0
sS'vel_x'
p4
I0
sS'pos_x'
p5
F105.76183856840375
sS'pos_y'
p6
F26.355420361136105
sS'isAlive'
p7
I01
sS'geno'
p8
(lp9
F4.8667828121418797
aF-3.9061862067148012
aF-4.2177459095922911
aF-3.5126290595159859
aF-4.1930019577500479
aF4.7066845484335058
asS'accel_x'
p10
F0
sS'accel_y'
p11
F0
sS'maxAccel'
p12
I2
sS'maxVel'
p13
F0.5
sS'age'
p14
I0
sS'radius'
p15
I2
sS'gener'
p16
S'm'
sS'lastScale'
p17
F15.5
sS'energy'
p18
F1.5
sb.(i__main__
Data_mobile
p1
(dp2
S'vel_y'
p3
I0
sS'vel_x'
p4
I0
sS'pos_x'
p5
F106.1516750713868
sS'pos_y'
p6
F38.790153593051194
sS'isAlive'
p7
I01
sS'geno'
p8
(lp9
F4.985688888478192
aF2.318283246949667
aF-0.10198373951613693
aF-3.5508952367439637
aF-4.3913306383943205
aF-3.7421956279031887
asS'accel_x'
p10
F0
sS'accel_y'
p11
F0
sS'maxAccel'
p12
I2
sS'maxVel'
p13
F0.5
sS'age'
p14
I0
sS'radius'
p15
I2
sS'gener'
p16
S'm'
sS'lastScale'
p17
F15.5
sS'energy'
p18
F1.5
sb.(i__main__
Data_mobile
p1
(dp2
S'vel_y'
p3
I0
sS'vel_x'
p4
I0
sS'pos_x'
p5
F116.29381002152678
sS'pos_y'
p6
F59.54894024341462
sS'isAlive'
p7
I01
sS'geno'
p8
(lp9
F-2.8117985062846218
aF0.88366669262550523
aF0.83386832639978792
aF-1.6904182427163397
aF2.9207368462909313
aF0.11471804913998884
asS'accel_x'
p10
F0
sS'accel_y'
p11
F0
sS'maxAccel'
p12
I2
sS'maxVel'
p13
F0.5
sS'age'
p14
I0
sS'radius'
p15
I2
sS'gener'
p16
S'm'
sS'lastScale'
p17
F15.5
sS'energy'
p18
F1.5
sb.(i__main__
Data_mobile
p1
(dp2
S'vel_y'
p3
I0
sS'vel_x'
p4
I0
sS'pos_x'
p5
F113.69925804939352
sS'pos_y'
p6
F64.169738243289416
sS'isAlive'
p7
I01
sS'geno'
p8
(lp9
F-1.6804972081022171
aF-4.0713354594048576
aF-4.330401283553627
aF3.4484936514014013
aF4.9675423127211982
aF4.3998444398596508
asS'accel_x'
p10
F0
sS'accel_y'
p11
F0
sS'maxAccel'
p12
I2
sS'maxVel'
p13
F0.5
sS'age'
p14
I0
sS'radius'
p15
I2
sS'gener'
p16
S'm'
sS'lastScale'
p17
F15.5
sS'energy'
p18
F1.5
sb.(i__main__
Data_mobile
p1
(dp2
S'vel_y'
p3
I0
sS'vel_x'
p4
I0
sS'pos_x'
p5
F124.69001423272641
sS'pos_y'
p6
F82.734659320133275
sS'isAlive'
p7
I01
sS'geno'
p8
(lp9
F1.81069247036704
aF0.85919984884741751
aF3.5944987982188898
aF2.7990939765646896
aF-4.9268118467221864
aF-2.7564447547781947
asS'accel_x'
p10
F0
sS'accel_y'
p11
F0
sS'maxAccel'
p12
I2
sS'maxVel'
p13
F0.5
sS'age'
p14
I0
sS'radius'
p15
I2
sS'gener'
p16
S'm'
sS'lastScale'
p17
F15.5
sS'energy'
p18
F1.5
sb.(i__main__
Data_mobile
p1
(dp2
S'vel_y'
p3
I0
sS'vel_x'
p4
I0
sS'pos_x'
p5
F130.8362725768491
sS'pos_y'
p6
F-99.660235626645488
sS'isAlive'
p7
I01
sS'geno'
p8
(lp9
F-3.5110545459967502
aF-2.8755259881808604
aF0.54852611899227632
aF-1.8754636854058413
aF-3.2689234016449618
aF-4.1674531667174142
asS'accel_x'
p10
F0
sS'accel_y'
p11
F0
sS'maxAccel'
p12
I2
sS'maxVel'
p13
F0.5
sS'age'
p14
I0
sS'radius'
p15
I2
sS'gener'
p16
S'm'
sS'lastScale'
p17
F15.5
sS'energy'
p18
F1.5
sb.(i__main__
Data_mobile
p1
(dp2
S'vel_y'
p3
I0
sS'vel_x'
p4
I0
sS'pos_x'
p5
F132.53012704273058
sS'pos_y'
p6
F-80.750746734133145
sS'isAlive'
p7
I01
sS'geno'
p8
(lp9
F-2.2251933604655383
aF2.9236581151649901
aF-3.6832174422713604
aF-1.3647254374133277
aF2.4321646385031128
aF-4.7297147465656755
asS'accel_x'
p10
F0
sS'accel_y'
p11
F0
sS'maxAccel'
p12
I2
sS'maxVel'
p13
F0.5
sS'age'
p14
I0
sS'radius'
p15
I2
sS'gener'
p16
S'm'
sS'lastScale'
p17
F15.5
sS'energy'
p18
F1.5
sb.(i__main__
Data_mobile
p1
(dp2
S'vel_y'
p3
I0
sS'vel_x'
p4
I0
sS'pos_x'
p5
F160.68635077659249
sS'pos_y'
p6
F-61.951228905406893
sS'isAlive'
p7
I01
sS'geno'
p8
(lp9
F4.0818484186578097
aF0.80348789424599421
aF4.0524089752248678
aF4.1319240891367333
aF-1.4319326651969764
aF1.2214546254647942
asS'accel_x'
p10
F0
sS'accel_y'
p11
F0
sS'maxAccel'
p12
I2
sS'maxVel'
p13
F0.5
sS'age'
p14
I0
sS'radius'
p15
I2
sS'gener'
p16
S'm'
sS'lastScale'
p17
F15.5
sS'energy'
p18
F1.5
sb.(i__main__
Data_mobile
p1
(dp2
S'vel_y'
p3
I0
sS'vel_x'
p4
I0
sS'pos_x'
p5
F143.0687036179234
sS'pos_y'
p6
F-42.640651502705907
sS'isAlive'
p7
I01
sS'geno'
p8
(lp9
F-3.7367791956997598
aF-3.6023028539959534
aF3.2365942923661706
aF0.80277955560499592
aF-4.6810649632702912
aF4.138126990972145
asS'accel_x'
p10
F0
sS'accel_y'
p11
F0
sS'maxAccel'
p12
I2
sS'maxVel'
p13
F0.5
sS'age'
p14
I0
sS'radius'
p15
I2
sS'gener'
p16
S'm'
sS'lastScale'
p17
F15.5
sS'energy'
p18
F1.5
sb.(i__main__
Data_mobile
p1
(dp2
S'vel_y'
p3
I0
sS'vel_x'
p4
I0
sS'pos_x'
p5
F156.85138765036135
sS'pos_y'
p6
F-30.663375503287792
sS'isAlive'
p7
I01
sS'geno'
p8
(lp9
F2.7805751266760401
aF-1.4918349992179314
aF2.6207399078240545
aF-0.28961329755674647
aF-0.78267069108138632
aF-3.318893773489211
asS'accel_x'
p10
F0
sS'accel_y'
p11
F0
sS'maxAccel'
p12
I2
sS'maxVel'
p13
F0.5
sS'age'
p14
I0
sS'radius'
p15
I2
sS'gener'
p16
S'm'
sS'lastScale'
p17
F15.5
sS'energy'
p18
F1.5
sb.(i__main__
Data_mobile
p1
(dp2
S'vel_y'
p3
I0
sS'vel_x'
p4
I0
sS'pos_x'
p5
F133.78036129584038
sS'pos_y'
p6
F-8.0010189310133164
sS'isAlive'
p7
I01
sS'geno'
p8
(lp9
F1.7335091876918396
aF-2.5552025629706145
aF-2.9587496437633378
aF0.48455117419022642
aF-4.8926519669433519
aF-3.5299465606286109
asS'accel_x'
p10
F0
sS'accel_y'
p11
F0
sS'maxAccel'
p12
I2
sS'maxVel'
p13
F0.5
sS'age'
p14
I0
sS'radius'
p15
I2
sS'gener'
p16
S'm'
sS'lastScale'
p17
F15.5
sS'energy'
p18
F1.5
sb.(i__main__
Data_mobile
p1
(dp2
S'vel_y'
p3
I0
sS'vel_x'
p4
I0
sS'pos_x'
p5
F130.92958394079179
sS'pos_y'
p6
F-0.78117452290474532
sS'isAlive'
p7
I01
sS'geno'
p8
(lp9
F-0.610139458661763
aF-0.28462262307747377
aF4.8637567274816753
aF1.2166626664957612
aF3.1989750234526841
aF1.5875966042798817
asS'accel_x'
p10
F0
sS'accel_y'
p11
F0
sS'maxAccel'
p12
I2
sS'maxVel'
p13
F0.5
sS'age'
p14
I0
sS'radius'
p15
I2
sS'gener'
p16
S'm'
sS'lastScale'
p17
F15.5
sS'energy'
p18
F1.5
sb.(i__main__
Data_mobile
p1
(dp2
S'vel_y'
p3
I0
sS'vel_x'
p4
I0
sS'pos_x'
p5
F156.96630044944729
sS'pos_y'
p6
F21.724124672574732
sS'isAlive'
p7
I01
sS'geno'
p8
(lp9
F0.5449003853864447
aF4.5977723359462388
aF-0.54209056326729321
aF0.82032481146776526
aF-4.8313912462570414
aF4.5302227652398273
asS'accel_x'
p10
F0
sS'accel_y'
p11
F0
sS'maxAccel'
p12
I2
sS'maxVel'
p13
F0.5
sS'age'
p14
I0
sS'radius'
p15
I2
sS'gener'
p16
S'm'
sS'lastScale'
p17
F15.5
sS'energy'
p18
F1.5
sb.(i__main__
Data_mobile
p1
(dp2
S'vel_y'
p3
I0
sS'vel_x'
p4
I0
sS'pos_x'
p5
F157.01229996185916
sS'pos_y'
p6
F31.177356239664249
sS'isAlive'
p7
I01
sS'geno'
p8
(lp9
F-1.5105431225527335
aF-2.6930277157187463
aF3.6432031692922671
aF-3.0603098451031805
aF-3.4153784445018518
aF-4.8413508706312243
asS'accel_x'
p10
F0
sS'accel_y'
p11
F0
sS'maxAccel'
p12
I2
sS'maxVel'
p13
F0.5
sS'age'
p14
I0
sS'radius'
p15
I2
sS'gener'
p16
S'm'
sS'lastScale'
p17
F15.5
sS'energy'
p18
F1.5
sb.(i__main__
Data_mobile
p1
(dp2
S'vel_y'
p3
I0
sS'vel_x'
p4
I0
sS'pos_x'
p5
F133.75009705281343
sS'pos_y'
p6
F47.035981744669328
sS'isAlive'
p7
I01
sS'geno'
p8
(lp9
F0.48154305907169714
aF-1.579562256066942
aF-1.0116403808607801
aF4.2238397913838668
aF2.4205948109679243
aF2.2445563421246248
asS'accel_x'
p10
F0
sS'accel_y'
p11
F0
sS'maxAccel'
p12
I2
sS'maxVel'
p13
F0.5
sS'age'
p14
I0
sS'radius'
p15
I2
sS'gener'
p16
S'm'
sS'lastScale'
p17
F15.5
sS'energy'
p18
F1.5
sb.(i__main__
Data_mobile
p1
(dp2
S'vel_y'
p3
I0
sS'vel_x'
p4
I0
sS'pos_x'
p5
F144.70483921781971
sS'pos_y'
p6
F63.03748331804784
sS'isAlive'
p7
I01
sS'geno'
p8
(lp9
F1.5492182158822354
aF-0.36661500697689142
aF-3.8687689513910719
aF-3.9473978644302674
aF-2.0878649925185866
aF1.3927466654618321
asS'accel_x'
p10
F0
sS'accel_y'
p11
F0
sS'maxAccel'
p12
I2
sS'maxVel'
p13
F0.5
sS'age'
p14
I0
sS'radius'
p15
I2
sS'gener'
p16
S'm'
sS'lastScale'
p17
F15.5
sS'energy'
p18
F1.5
sb.(i__main__
Data_mobile
p1
(dp2
S'vel_y'
p3
I0
sS'vel_x'
p4
I0
sS'pos_x'
p5
F144.18197986135021
sS'pos_y'
p6
F83.677396426720222
sS'isAlive'
p7
I01
sS'geno'
p8
(lp9
F-3.7745206344898117
aF4.6613568982356526
aF-4.0837487874514782
aF-0.41463774137558218
aF-0.18694224074649579
aF3.8688148713249877
asS'accel_x'
p10
F0
sS'accel_y'
p11
F0
sS'maxAccel'
p12
I2
sS'maxVel'
p13
F0.5
sS'age'
p14
I0
sS'radius'
p15
I2
sS'gener'
p16
S'm'
sS'lastScale'
p17
F15.5
sS'energy'
p18
F1.5
sb.(i__main__
Data_mobile
p1
(dp2
S'vel_y'
p3
I0
sS'vel_x'
p4
I0
sS'pos_x'
p5
F179.14612842605123
sS'pos_y'
p6
F-92.11957464864463
sS'isAlive'
p7
I01
sS'geno'
p8
(lp9
F0.60742026538403682
aF0.47613752987859925
aF-3.2404817916002369
aF0.97314160570988939
aF1.7399543578003502
aF-2.6224649798710331
asS'accel_x'
p10
F0
sS'accel_y'
p11
F0
sS'maxAccel'
p12
I2
sS'maxVel'
p13
F0.5
sS'age'
p14
I0
sS'radius'
p15
I2
sS'gener'
p16
S'm'
sS'lastScale'
p17
F15.5
sS'energy'
p18
F1.5
sb.(i__main__
Data_mobile
p1
(dp2
S'vel_y'
p3
I0
sS'vel_x'
p4
I0
sS'pos_x'
p5
F165.23087006374124
sS'pos_y'
p6
F-82.830991999038886
sS'isAlive'
p7
I01
sS'geno'
p8
(lp9
F-0.35832002269232976
aF0.88778273583689149
aF-0.67715971397401464
aF-0.25272342440648998
aF0.87978182622604173
aF-3.5990588737435356
asS'accel_x'
p10
F0
sS'accel_y'
p11
F0
sS'maxAccel'
p12
I2
sS'maxVel'
p13
F0.5
sS'age'
p14
I0
sS'radius'
p15
I2
sS'gener'
p16
S'm'
sS'lastScale'
p17
F15.5
sS'energy'
p18
F1.5
sb.(i__main__
Data_mobile
p1
(dp2
S'vel_y'
p3
I0
sS'vel_x'
p4
I0
sS'pos_x'
p5
F186.78316454387155
sS'pos_y'
p6
F-63.873741830864482
sS'isAlive'
p7
I01
sS'geno'
p8
(lp9
F4.6565776835453541
aF1.7340172334693555
aF3.9386796413832279
aF-3.8715107823984516
aF4.5816108040548684
aF4.6652003329294356
asS'accel_x'
p10
F0
sS'accel_y'
p11
F0
sS'maxAccel'
p12
I2
sS'maxVel'
p13
F0.5
sS'age'
p14
I0
sS'radius'
p15
I2
sS'gener'
p16
S'm'
sS'lastScale'
p17
F15.5
sS'energy'
p18
F1.5
sb.(i__main__
Data_mobile
p1
(dp2
S'vel_y'
p3
I0
sS'vel_x'
p4
I0
sS'pos_x'
p5
F165.60178333435923
sS'pos_y'
p6
F-39.312965960808803
sS'isAlive'
p7
I01
sS'geno'
p8
(lp9
F1.0792162086203501
aF-4.270038824874729
aF1.6751812238426611
aF-0.659199827269771
aF-2.3373704116941276
aF1.3301103602585833
asS'accel_x'
p10
F0
sS'accel_y'
p11
F0
sS'maxAccel'
p12
I2
sS'maxVel'
p13
F0.5
sS'age'
p14
I0
sS'radius'
p15
I2
sS'gener'
p16
S'm'
sS'lastScale'
p17
F15.5
sS'energy'
p18
F1.5
sb.(i__main__
Data_mobile
p1
(dp2
S'vel_y'
p3
I0
sS'vel_x'
p4
I0
sS'pos_x'
p5
F178.68977899153239
sS'pos_y'
p6
F-23.497243921177716
sS'isAlive'
p7
I01
sS'geno'
p8
(lp9
F-4.5608547783795093
aF-1.4321774441484636
aF-4.8689547319866264
aF-3.258970958764047
aF0.47287933606875399
aF1.7324913801858264
asS'accel_x'
p10
F0
sS'accel_y'
p11
F0
sS'maxAccel'
p12
I2
sS'maxVel'
p13
F0.5
sS'age'
p14
I0
sS'radius'
p15
I2
sS'gener'
p16
S'm'
sS'lastScale'
p17
F15.5
sS'energy'
p18
F1.5
sb.(i__main__
Data_mobile
p1
(dp2
S'vel_y'
p3
I0
sS'vel_x'
p4
I0
sS'pos_x'
p5
F177.04917585309826
sS'pos_y'
p6
F-13.367214519613642
sS'isAlive'
p7
I01
sS'geno'
p8
(lp9
F1.5324072147721788
aF-4.5699328578317697
aF2.9026782562202955
aF0.91634601145201966
aF1.9382708559297512
aF-0.14457185384474691
asS'accel_x'
p10
F0
sS'accel_y'
p11
F0
sS'maxAccel'
p12
I2
sS'maxVel'
p13
F0.5
sS'age'
p14
I0
sS'radius'
p15
I2
sS'gener'
p16
S'm'
sS'lastScale'
p17
F15.5
sS'energy'
p18
F1.5
sb.(i__main__
Data_mobile
p1
(dp2
S'vel_y'
p3
I0
sS'vel_x'
p4
I0
sS'pos_x'
p5
F189.55734047392787
sS'pos_y'
p6
F7.7347355733590302
sS'isAlive'
p7
I01
sS'geno'
p8
(lp9
F0.29461845935260378
aF1.5810327978691321
aF-0.37401993548707768
aF2.6055966103685622
aF2.9572614901807661
aF-2.869921949595351
asS'accel_x'
p10
F0
sS'accel_y'
p11
F0
sS'maxAccel'
p12
I2
sS'maxVel'
p13
F0.5
sS'age'
p14
I0
sS'radius'
p15
I2
sS'gener'
p16
S'm'
sS'lastScale'
p17
F15.5
sS'energy'
p18
F1.5
sb.(i__main__
Data_mobile
p1
(dp2
S'vel_y'
p3
I0
sS'vel_x'
p4
I0
sS'pos_x'
p5
F163.33880644630216
sS'pos_y'
p6
F14.380991745508174
sS'isAlive'
p7
I01
sS'geno'
p8
(lp9
F4.2626991124500542
aF-2.1753051577890572
aF3.386414673545378
aF-2.1283736504184447
aF-1.7925253173098121
aF-2.818647287530287
asS'accel_x'
p10
F0
sS'accel_y'
p11
F0
sS'maxAccel'
p12
I2
sS'maxVel'
p13
F0.5
sS'age'
p14
I0
sS'radius'
p15
I2
sS'gener'
p16
S'm'
sS'lastScale'
p17
F15.5
sS'energy'
p18
F1.5
sb.(i__main__
Data_mobile
p1
(dp2
S'vel_y'
p3
I0
sS'vel_x'
p4
I0
sS'pos_x'
p5
F190.8647636096419
sS'pos_y'
p6
F34.831383416054791
sS'isAlive'
p7
I01
sS'geno'
p8
(lp9
F-3.8620882036266924
aF4.2451841438652256
aF-1.8088326909984764
aF2.2073273845780497
aF0.72636032984727006
aF-4.6544457399279597
asS'accel_x'
p10
F0
sS'accel_y'
p11
F0
sS'maxAccel'
p12
I2
sS'maxVel'
p13
F0.5
sS'age'
p14
I0
sS'radius'
p15
I2
sS'gener'
p16
S'm'
sS'lastScale'
p17
F15.5
sS'energy'
p18
F1.5
sb.(i__main__
Data_mobile
p1
(dp2
S'vel_y'
p3
I0
sS'vel_x'
p4
I0
sS'pos_x'
p5
F193.12502207155697
sS'pos_y'
p6
F55.851038671808482
sS'isAlive'
p7
I01
sS'geno'
p8
(lp9
F2.0317384239156944
aF-0.45979755106521658
aF-3.4778279225374042
aF-4.2015294056861414
aF1.5951462782639227
aF-3.1054138379690821
asS'accel_x'
p10
F0
sS'accel_y'
p11
F0
sS'maxAccel'
p12
I2
sS'maxVel'
p13
F0.5
sS'age'
p14
I0
sS'radius'
p15
I2
sS'gener'
p16
S'm'
sS'lastScale'
p17
F15.5
sS'energy'
p18
F1.5
sb.(i__main__
Data_mobile
p1
(dp2
S'vel_y'
p3
I0
sS'vel_x'
p4
I0
sS'pos_x'
p5
F170.04315098140953
sS'pos_y'
p6
F63.52262761990854
sS'isAlive'
p7
I01
sS'geno'
p8
(lp9
F-2.8193575315441457
aF-3.0956522234725217
aF-4.7690343955898182
aF3.5623106786599585
aF0.23593132798250771
aF-1.714379949414504
asS'accel_x'
p10
F0
sS'accel_y'
p11
F0
sS'maxAccel'
p12
I2
sS'maxVel'
p13
F0.5
sS'age'
p14
I0
sS'radius'
p15
I2
sS'gener'
p16
S'm'
sS'lastScale'
p17
F15.5
sS'energy'
p18
F1.5
sb.(i__main__
Data_mobile
p1
(dp2
S'vel_y'
p3
I0
sS'vel_x'
p4
I0
sS'pos_x'
p5
F174.62800540861161
sS'pos_y'
p6
F83.033952154023012
sS'isAlive'
p7
I01
sS'geno'
p8
(lp9
F1.103544555381335
aF-0.70555002590752025
aF-3.6243194048030247
aF-1.2400613540666381
aF4.1417577300507329
aF-4.8476762094679238
asS'accel_x'
p10
F0
sS'accel_y'
p11
F0
sS'maxAccel'
p12
I2
sS'maxVel'
p13
F0.5
sS'age'
p14
I0
sS'radius'
p15
I2
sS'gener'
p16
S'm'
sS'lastScale'
p17
F15.5
sS'energy'
p18
F1.5
sb.