(i__main__
Data_mobile
p1
(dp2
S'vel_y'
p3
F-0.44435150575931009
sS'vel_x'
p4
F0.22924166141745225
sS'pos_x'
p5
F-156.22576060079234
sS'pos_y'
p6
F-85.909177181891309
sS'isAlive'
p7
I01
sS'geno'
p8
(lp9
F-0.037314502308040787
aF-1.5266697737832846
aF-0.21301629094513319
aF4.3940591016553059
aF0.79594630547905953
aF-2.9941242768656862
asS'accel_x'
p10
F1.5301416802869436
sS'accel_y'
p11
F-1.2878922463656066
sS'maxAccel'
p12
I2
sS'maxVel'
p13
F0.5
sS'age'
p14
I50
sS'radius'
p15
I2
sS'gener'
p16
S'm'
sS'lastScale'
p17
F13.500000000000004
sS'energy'
p18
F1.3000000000000003
sb.(i__main__
Data_mobile
p1
(dp2
S'vel_y'
p3
F-0.3504591053302511
sS'vel_x'
p4
F0.35662082873988171
sS'pos_x'
p5
F-157.12511801201663
sS'pos_y'
p6
F-79.804216969459333
sS'isAlive'
p7
I01
sS'geno'
p8
(lp9
F-0.037314502308040787
aF-1.5266697737832846
aF-0.21301629094513319
aF4.3940591016553059
aF1.2400415046659301
aF3.2675833638506617
asS'accel_x'
p10
F-1.3850880852091811
sS'accel_y'
p11
F-1.4427511899879215
sS'maxAccel'
p12
I2
sS'maxVel'
p13
F0.5
sS'age'
p14
I100
sS'radius'
p15
I2
sS'gener'
p16
S'm'
sS'lastScale'
p17
F8.9999999999999982
sS'energy'
p18
F0.84999999999999987
sb.(i__main__
Data_mobile
p1
(dp2
S'vel_y'
p3
F0.24769970543133935
sS'vel_x'
p4
F-0.14977388901715405
sS'pos_x'
p5
F-156.17710533028094
sS'pos_y'
p6
F-84.786484707202717
sS'isAlive'
p7
I01
sS'geno'
p8
(lp9
F-0.037314502308040787
aF-1.5266697737832846
aF-0.21301629094513319
aF4.7374171391059665
aF0.79594630547905953
aF3.2675833638506617
asS'accel_x'
p10
F0
sS'accel_y'
p11
F0
sS'maxAccel'
p12
I2
sS'maxVel'
p13
F0.5
sS'age'
p14
I0
sS'radius'
p15
I2
sS'gener'
p16
S'm'
sS'lastScale'
p17
F5.4999999999999956
sS'energy'
p18
F1
sb.(i__main__
Data_mobile
p1
(dp2
S'vel_y'
p3
F-0.49277598314432253
sS'vel_x'
p4
F-0.084686660319948731
sS'pos_x'
p5
F-161.16541071259738
sS'pos_y'
p6
F-78.849565349530764
sS'isAlive'
p7
I01
sS'geno'
p8
(lp9
F0.74652203674191109
aF-1.5266697737832846
aF-4.1653632727227956
aF4.7876776572727131
aF0.3199328896011
aF3.2675833638506617
asS'accel_x'
p10
F1.7969288623735087
sS'accel_y'
p11
F0.87809262812589828
sS'maxAccel'
p12
I2
sS'maxVel'
p13
F0.5
sS'age'
p14
I100
sS'radius'
p15
I2
sS'gener'
p16
S'm'
sS'lastScale'
p17
F8.4999999999999982
sS'energy'
p18
F0.79999999999999982
sb.(i__main__
Data_mobile
p1
(dp2
S'vel_y'
p3
F-0.22412225559215671
sS'vel_x'
p4
F0.44695549504205001
sS'pos_x'
p5
F13.16523129638167
sS'pos_y'
p6
F-41.13788747568173
sS'isAlive'
p7
I01
sS'geno'
p8
(lp9
F-0.055907183197582144
aF-1.5266697737832846
aF-4.1653632727227956
aF4.7320391676829523
aF0.3199328896011
aF3.2675833638506617
asS'accel_x'
p10
F1.1456281659212915
sS'accel_y'
p11
F1.6393706430968615
sS'maxAccel'
p12
I2
sS'maxVel'
p13
F0.5
sS'age'
p14
I50
sS'radius'
p15
I2
sS'gener'
p16
S'm'
sS'lastScale'
p17
F6.9999999999999964
sS'energy'
p18
F0.64999999999999969
sb.(i__main__
Data_mobile
p1
(dp2
S'vel_y'
p3
F-0.19916978812124866
sS'vel_x'
p4
F0.45861900909113756
sS'pos_x'
p5
F-174.07073448965494
sS'pos_y'
p6
F67.558717860429752
sS'isAlive'
p7
I01
sS'geno'
p8
(lp9
F1.5620193373150286
aF-0.12244834053052323
aF-3.9931461519608655
aF4.7374171391059665
aF-0.15291496651288961
aF3.2675833638506617
asS'accel_x'
p10
F0.35433654845430201
sS'accel_y'
p11
F-1.9683611483743253
sS'maxAccel'
p12
I2
sS'maxVel'
p13
F0.5
sS'age'
p14
I400
sS'radius'
p15
I2
sS'gener'
p16
S'm'
sS'lastScale'
p17
F11
sS'energy'
p18
F1.05
sb.(i__main__
Data_mobile
p1
(dp2
S'vel_y'
p3
F0.15628976576905204
sS'vel_x'
p4
F-0.47494579597660919
sS'pos_x'
p5
F175.86020492314572
sS'pos_y'
p6
F74.989296893220214
sS'isAlive'
p7
I01
sS'geno'
p8
(lp9
F1.5620193373150286
aF-0.12244834053052323
aF-3.9931461519608655
aF4.7374171391059665
aF0.79594630547905953
aF-2.9941242768656862
asS'accel_x'
p10
F-1.8842251335481714
sS'accel_y'
p11
F0.67059350288037789
sS'maxAccel'
p12
I2
sS'maxVel'
p13
F0.5
sS'age'
p14
I450
sS'radius'
p15
I2
sS'gener'
p16
S'm'
sS'lastScale'
p17
F9.5
sS'energy'
p18
F0.89999999999999991
sb.(i__main__
Data_mobile
p1
(dp2
S'vel_y'
p3
F-0.34822525533712656
sS'vel_x'
p4
F0.3588024129592679
sS'pos_x'
p5
F177.25920576552122
sS'pos_y'
p6
F73.504866060616436
sS'isAlive'
p7
I01
sS'geno'
p8
(lp9
F-0.037314502308040787
aF-1.5266697737832846
aF-4.1653632727227956
aF4.7320391676829523
aF0.3199328896011
aF3.2675833638506617
asS'accel_x'
p10
F-1.4711087466925246
sS'accel_y'
p11
F1.3549313840208845
sS'maxAccel'
p12
I2
sS'maxVel'
p13
F0.5
sS'age'
p14
I100
sS'radius'
p15
I2
sS'gener'
p16
S'm'
sS'lastScale'
p17
F8.9999999999999982
sS'energy'
p18
F0.84999999999999987
sb.(i__main__
Data_mobile
p1
(dp2
S'vel_y'
p3
F0.49287924084512902
sS'vel_x'
p4
F-0.08408361281444339
sS'pos_x'
p5
F175.54297312546544
sS'pos_y'
p6
F69.353969267495984
sS'isAlive'
p7
I01
sS'geno'
p8
(lp9
F-0.037314502308040787
aF-1.5266697737832846
aF-4.1653632727227956
aF4.7320391676829523
aF0.3199328896011
aF3.2675833638506617
asS'accel_x'
p10
F1.7762512070660812
sS'accel_y'
p11
F-0.91920163696345147
sS'maxAccel'
p12
I2
sS'maxVel'
p13
F0.5
sS'age'
p14
I50
sS'radius'
p15
I2
sS'gener'
p16
S'm'
sS'lastScale'
p17
F8.9999999999999982
sS'energy'
p18
F0.84999999999999987
sb.(i__main__
Data_mobile
p1
(dp2
S'vel_y'
p3
F0.21186360536586268
sS'vel_x'
p4
F-0.078855537745974785
sS'pos_x'
p5
F-140.68538773253854
sS'pos_y'
p6
F-3.0700659764506604
sS'isAlive'
p7
I01
sS'geno'
p8
(lp9
F-0.037314502308040787
aF-1.5266697737832846
aF-0.21301629094513319
aF4.3940591016553059
aF1.071066145520603
aF-3.0605886936226216
asS'accel_x'
p10
F0
sS'accel_y'
p11
F0
sS'maxAccel'
p12
I2
sS'maxVel'
p13
F0.5
sS'age'
p14
I0
sS'radius'
p15
I2
sS'gener'
p16
S'm'
sS'lastScale'
p17
F5.0999999999999961
sS'energy'
p18
F1
sb.(i__main__
Data_mobile
p1
(dp2
S'vel_y'
p3
F0.098627151850318145
sS'vel_x'
p4
F-0.2860976762360446
sS'pos_x'
p5
F-162.52249767221437
sS'pos_y'
p6
F42.242404235017915
sS'isAlive'
p7
I01
sS'geno'
p8
(lp9
F0.27887700152121908
aF-1.5266697737832846
aF-0.21301629094513319
aF4.3940591016553059
aF0.68492273325884323
aF-2.9941242768656862
asS'accel_x'
p10
F0
sS'accel_y'
p11
F0
sS'maxAccel'
p12
I2
sS'maxVel'
p13
F0.5
sS'age'
p14
I0
sS'radius'
p15
I2
sS'gener'
p16
S'm'
sS'lastScale'
p17
F5.0999999999999961
sS'energy'
p18
F1
sb.(i__main__
Data_mobile
p1
(dp2
S'vel_y'
p3
F-0.24866204593409003
sS'vel_x'
p4
F0.43378241885981556
sS'pos_x'
p5
F-154.37089036537432
sS'pos_y'
p6
F-85.965027502189699
sS'isAlive'
p7
I01
sS'geno'
p8
(lp9
F1.5620193373150286
aF-1.5266697737832846
aF-3.9931461519608655
aF4.9719148529140789
aF0.68492273325884323
aF3.2675833638506617
asS'accel_x'
p10
F1.4720248077732245
sS'accel_y'
p11
F-1.3539361008925797
sS'maxAccel'
p12
I2
sS'maxVel'
p13
F0.5
sS'age'
p14
I100
sS'radius'
p15
I2
sS'gener'
p16
S'm'
sS'lastScale'
p17
F12.500000000000002
sS'energy'
p18
F1.2000000000000002
sb.(i__main__
Data_mobile
p1
(dp2
S'vel_y'
p3
F-0.1860331284246135
sS'vel_x'
p4
F0.27639542349364188
sS'pos_x'
p5
F-156.39267764226835
sS'pos_y'
p6
F-84.436428037336668
sS'isAlive'
p7
I01
sS'geno'
p8
(lp9
F-0.037314502308040787
aF-1.5266697737832846
aF-0.10927686034831108
aF4.3940591016553059
aF0.79594630547905953
aF-2.9941242768656862
asS'accel_x'
p10
F0
sS'accel_y'
p11
F0
sS'maxAccel'
p12
I2
sS'maxVel'
p13
F0.5
sS'age'
p14
I0
sS'radius'
p15
I2
sS'gener'
p16
S'm'
sS'lastScale'
p17
F5.4999999999999956
sS'energy'
p18
F1
sb.(i__main__
Data_mobile
p1
(dp2
S'vel_y'
p3
F0.49436774046529425
sS'vel_x'
p4
F-0.074836736882626237
sS'pos_x'
p5
F179.24368418077276
sS'pos_y'
p6
F67.694170604456929
sS'isAlive'
p7
I01
sS'geno'
p8
(lp9
F-0.037314502308040787
aF-1.5266697737832846
aF-4.1653632727227956
aF4.7320391676829523
aF0.3199328896011
aF3.2675833638506617
asS'accel_x'
p10
F-0.67169562501264568
sS'accel_y'
p11
F1.8838325263512334
sS'maxAccel'
p12
I2
sS'maxVel'
p13
F0.5
sS'age'
p14
I100
sS'radius'
p15
I2
sS'gener'
p16
S'm'
sS'lastScale'
p17
F7.9999999999999982
sS'energy'
p18
F0.74999999999999978
sb.(i__main__
Data_mobile
p1
(dp2
S'vel_y'
p3
F0.46892223531899691
sS'vel_x'
p4
F-0.13756543999880938
sS'pos_x'
p5
F-154.81532353973859
sS'pos_y'
p6
F-12.52253521964003
sS'isAlive'
p7
I01
sS'geno'
p8
(lp9
F-0.037314502308040787
aF-1.5266697737832846
aF-0.21301629094513319
aF5.2020129791845795
aF0.79594630547905953
aF-2.8682341635274144
asS'accel_x'
p10
F0
sS'accel_y'
p11
F0
sS'maxAccel'
p12
I2
sS'maxVel'
p13
F0.5
sS'age'
p14
I0
sS'radius'
p15
I2
sS'gener'
p16
S'm'
sS'lastScale'
p17
F4.9999999999999956
sS'energy'
p18
F1
sb.(i__main__
Data_mobile
p1
(dp2
S'vel_y'
p3
F0.48324360830723906
sS'vel_x'
p4
F-0.075940343890900236
sS'pos_x'
p5
F-165.17595870174512
sS'pos_y'
p6
F-57.065198053314333
sS'isAlive'
p7
I01
sS'geno'
p8
(lp9
F-0.037314502308040787
aF-1.5266697737832846
aF-4.1653632727227956
aF4.7876776572727131
aF0.79594630547905953
aF-2.8682341635274144
asS'accel_x'
p10
F0
sS'accel_y'
p11
F0
sS'maxAccel'
p12
I2
sS'maxVel'
p13
F0.5
sS'age'
p14
I0
sS'radius'
p15
I2
sS'gener'
p16
S'm'
sS'lastScale'
p17
F5.4999999999999956
sS'energy'
p18
F1
sb.(i__main__
Data_mobile
p1
(dp2
S'vel_y'
p3
F0.4770606543351551
sS'vel_x'
p4
F-0.11899088775407028
sS'pos_x'
p5
F-160.19122024482436
sS'pos_y'
p6
F-39.327285310081407
sS'isAlive'
p7
I01
sS'geno'
p8
(lp9
F-0.037314502308040787
aF-1.5266697737832846
aF-0.10927686034831108
aF4.7374171391059665
aF0.79594630547905953
aF-2.9941242768656862
asS'accel_x'
p10
F0
sS'accel_y'
p11
F0
sS'maxAccel'
p12
I2
sS'maxVel'
p13
F0.5
sS'age'
p14
I0
sS'radius'
p15
I2
sS'gener'
p16
S'm'
sS'lastScale'
p17
F5.1999999999999957
sS'energy'
p18
F1
sb.(i__main__
Data_mobile
p1
(dp2
S'vel_y'
p3
F0.16216241274664647
sS'vel_x'
p4
F-0.47297288705821838
sS'pos_x'
p5
F-107.96942357122336
sS'pos_y'
p6
F63.472010100612586
sS'isAlive'
p7
I01
sS'geno'
p8
(lp9
F-0.039389090606090638
aF-1.5266697737832846
aF-4.1653632727227956
aF4.4623522994830376
aF0.79594630547905953
aF-2.8682341635274144
asS'accel_x'
p10
F-1.9309389542752133
sS'accel_y'
p11
F-0.52103239329483708
sS'maxAccel'
p12
I2
sS'maxVel'
p13
F0.5
sS'age'
p14
I150
sS'radius'
p15
I2
sS'gener'
p16
S'm'
sS'lastScale'
p17
F6.4999999999999964
sS'energy'
p18
F0.59999999999999964
sb.(i__main__
Data_mobile
p1
(dp2
S'vel_y'
p3
F0.47661441822806239
sS'vel_x'
p4
F-0.15112477075954697
sS'pos_x'
p5
F175.39726546095341
sS'pos_y'
p6
F68.857874694334271
sS'isAlive'
p7
I01
sS'geno'
p8
(lp9
F1.5620193373150286
aF-0.12244834053052323
aF-3.9931461519608655
aF4.7374171391059665
aF0.79594630547905953
aF-2.9941242768656862
asS'accel_x'
p10
F-0.36226231006922915
sS'accel_y'
p11
F1.9669178983128162
sS'maxAccel'
p12
I2
sS'maxVel'
p13
F0.5
sS'age'
p14
I578
sS'radius'
p15
I2
sS'gener'
p16
S'm'
sS'lastScale'
p17
F8.1999999999999975
sS'energy'
p18
F0.7699999999999998
sb.(i__main__
Data_mobile
p1
(dp2
S'vel_y'
p3
F0.2084282365711482
sS'vel_x'
p4
F-0.065333560834115428
sS'pos_x'
p5
F-136.29377079872972
sS'pos_y'
p6
F-81.271324016035734
sS'isAlive'
p7
I01
sS'geno'
p8
(lp9
F-0.037314502308040787
aF-1.5266697737832846
aF-0.10927686034831108
aF4.7876776572727131
aF0.79594630547905953
aF-2.8682341635274144
asS'accel_x'
p10
F0
sS'accel_y'
p11
F0
sS'maxAccel'
p12
I2
sS'maxVel'
p13
F0.5
sS'age'
p14
I0
sS'radius'
p15
I2
sS'gener'
p16
S'm'
sS'lastScale'
p17
F5.1999999999999957
sS'energy'
p18
F1
sb.(i__main__
Data_mobile
p1
(dp2
S'vel_y'
p3
F0.49396593325743088
sS'vel_x'
p4
F0.077444540034242212
sS'pos_x'
p5
F174.41970946337486
sS'pos_y'
p6
F67.530812041758992
sS'isAlive'
p7
I01
sS'geno'
p8
(lp9
F-0.037314502308040787
aF-1.5266697737832846
aF-4.1653632727227956
aF4.7320391676829523
aF0.3199328896011
aF3.2675833638506617
asS'accel_x'
p10
F-0.79523051427155567
sS'accel_y'
p11
F-1.8351044736394158
sS'maxAccel'
p12
I2
sS'maxVel'
p13
F0.5
sS'age'
p14
I50
sS'radius'
p15
I2
sS'gener'
p16
S'm'
sS'lastScale'
p17
F8.9999999999999982
sS'energy'
p18
F0.84999999999999987
sb.(i__main__
Data_mobile
p1
(dp2
S'vel_y'
p3
F0.34060791477336461
sS'vel_x'
p4
F0.34670197905216482
sS'pos_x'
p5
F-167.24866225951689
sS'pos_y'
p6
F2.369956003288074
sS'isAlive'
p7
I01
sS'geno'
p8
(lp9
F-0.037314502308040787
aF-1.5266697737832846
aF-0.10927686034831108
aF4.7374171391059665
aF0.79594630547905953
aF-2.9941242768656862
asS'accel_x'
p10
F0
sS'accel_y'
p11
F0
sS'maxAccel'
p12
I2
sS'maxVel'
p13
F0.5
sS'age'
p14
I0
sS'radius'
p15
I2
sS'gener'
p16
S'm'
sS'lastScale'
p17
F5.2999999999999963
sS'energy'
p18
F1
sb.(i__main__
Data_mobile
p1
(dp2
S'vel_y'
p3
F0.22963069459856789
sS'vel_x'
p4
F0.44415058718657491
sS'pos_x'
p5
F-157.33959454379425
sS'pos_y'
p6
F-85.550658786334736
sS'isAlive'
p7
I01
sS'geno'
p8
(lp9
F-0.037314502308040787
aF-1.5266697737832846
aF-0.10927686034831108
aF4.7374171391059665
aF0.79594630547905953
aF-2.9941242768656862
asS'accel_x'
p10
F1.9787344036440611
sS'accel_y'
p11
F0.29087825603743878
sS'maxAccel'
p12
I2
sS'maxVel'
p13
F0.5
sS'age'
p14
I200
sS'radius'
p15
I2
sS'gener'
p16
S'm'
sS'lastScale'
p17
F12.000000000000002
sS'energy'
p18
F1.1500000000000001
sb.(i__main__
Data_mobile
p1
(dp2
S'vel_y'
p3
F-0.0054702010768843097
sS'vel_x'
p4
F-0.49997007600473292
sS'pos_x'
p5
F-137.5000642056452
sS'pos_y'
p6
F-8.9414079425454016
sS'isAlive'
p7
I01
sS'geno'
p8
(lp9
F-0.037314502308040787
aF-1.5266697737832846
aF-0.10927686034831108
aF4.7374171391059665
aF0.79594630547905953
aF3.2675833638506617
asS'accel_x'
p10
F-1.998874079136959
sS'accel_y'
p11
F-0.067100042879081917
sS'maxAccel'
p12
I2
sS'maxVel'
p13
F0.5
sS'age'
p14
I50
sS'radius'
p15
I2
sS'gener'
p16
S'm'
sS'lastScale'
p17
F14.000000000000004
sS'energy'
p18
F1.3500000000000003
sb.(i__main__
Data_mobile
p1
(dp2
S'vel_y'
p3
F0.15693117248747177
sS'vel_x'
p4
F-0.47473424892428756
sS'pos_x'
p5
F-132.40004460735068
sS'pos_y'
p6
F-7.0245366671426011
sS'isAlive'
p7
I01
sS'geno'
p8
(lp9
F1.5620193373150286
aF-0.12244834053052323
aF-3.9931461519608655
aF4.7876776572727131
aF0.79594630547905953
aF3.5404854979195801
asS'accel_x'
p10
F-1.989961037359012
sS'accel_y'
p11
F0.20013762712954275
sS'maxAccel'
p12
I2
sS'maxVel'
p13
F0.5
sS'age'
p14
I150
sS'radius'
p15
I2
sS'gener'
p16
S'm'
sS'lastScale'
p17
F6.9999999999999964
sS'energy'
p18
F0.64999999999999969
sb.(i__main__
Data_mobile
p1
(dp2
S'vel_y'
p3
F-0.22252117566760879
sS'vel_x'
p4
F0.44775476142583359
sS'pos_x'
p5
F-158.75679032835799
sS'pos_y'
p6
F-81.101896531942515
sS'isAlive'
p7
I01
sS'geno'
p8
(lp9
F-0.037314502308040787
aF-1.5266697737832846
aF-0.21301629094513319
aF4.3940591016553059
aF0.79594630547905953
aF-2.8682341635274144
asS'accel_x'
p10
F1.9985932560052611
sS'accel_y'
p11
F0.074999980335257496
sS'maxAccel'
p12
I2
sS'maxVel'
p13
F0.5
sS'age'
p14
I50
sS'radius'
p15
I2
sS'gener'
p16
S'm'
sS'lastScale'
p17
F8.9999999999999982
sS'energy'
p18
F0.84999999999999987
sb.(i__main__
Data_mobile
p1
(dp2
S'vel_y'
p3
F0.4841043460164941
sS'vel_x'
p4
F-0.065661020398190911
sS'pos_x'
p5
F-177.09948207883596
sS'pos_y'
p6
F-20.59676997853305
sS'isAlive'
p7
I01
sS'geno'
p8
(lp9
F-0.037314502308040787
aF-1.5266697737832846
aF-0.10927686034831108
aF4.7876776572727131
aF0.79594630547905953
aF-2.858710184545437
asS'accel_x'
p10
F0
sS'accel_y'
p11
F0
sS'maxAccel'
p12
I2
sS'maxVel'
p13
F0.5
sS'age'
p14
I0
sS'radius'
p15
I2
sS'gener'
p16
S'm'
sS'lastScale'
p17
F5.0999999999999961
sS'energy'
p18
F1
sb.(i__main__
Data_mobile
p1
(dp2
S'vel_y'
p3
F0.3169869560332691
sS'vel_x'
p4
F-0.21580034864449679
sS'pos_x'
p5
F175.58137390890764
sS'pos_y'
p6
F-29.559342395868374
sS'isAlive'
p7
I01
sS'geno'
p8
(lp9
F-0.037314502308040787
aF-1.5266697737832846
aF-3.9931461519608655
aF4.7374171391059665
aF0.96545115408757542
aF-2.9941242768656862
asS'accel_x'
p10
F0
sS'accel_y'
p11
F0
sS'maxAccel'
p12
I2
sS'maxVel'
p13
F0.5
sS'age'
p14
I0
sS'radius'
p15
I2
sS'gener'
p16
S'm'
sS'lastScale'
p17
F5.4999999999999956
sS'energy'
p18
F1
sb.(i__main__
Data_mobile
p1
(dp2
S'vel_y'
p3
F-0.22125881378337481
sS'vel_x'
p4
F0.22366026211167639
sS'pos_x'
p5
F-114.6268213056685
sS'pos_y'
p6
F67.180616000798196
sS'isAlive'
p7
I01
sS'geno'
p8
(lp9
F-0.039389090606090638
aF-1.5266697737832846
aF-4.1653632727227956
aF4.7876776572727131
aF-0.15291496651288961
aF3.4765576312883919
asS'accel_x'
p10
F0
sS'accel_y'
p11
F0
sS'maxAccel'
p12
I2
sS'maxVel'
p13
F0.5
sS'age'
p14
I0
sS'radius'
p15
I2
sS'gener'
p16
S'm'
sS'lastScale'
p17
F5.4999999999999956
sS'energy'
p18
F1
sb.(i__main__
Data_mobile
p1
(dp2
S'vel_y'
p3
F0.39922594494903657
sS'vel_x'
p4
F-0.0099519798208322005
sS'pos_x'
p5
F-176.85448913815745
sS'pos_y'
p6
F-16.598853747669093
sS'isAlive'
p7
I01
sS'geno'
p8
(lp9
F-0.037314502308040787
aF-1.5266697737832846
aF-3.9931461519608655
aF4.8408236999752754
aF0.79594630547905953
aF-2.8682341635274144
asS'accel_x'
p10
F0
sS'accel_y'
p11
F0
sS'maxAccel'
p12
I2
sS'maxVel'
p13
F0.5
sS'age'
p14
I0
sS'radius'
p15
I2
sS'gener'
p16
S'm'
sS'lastScale'
p17
F5.4999999999999956
sS'energy'
p18
F1
sb.(i__main__
Data_mobile
p1
(dp2
S'vel_y'
p3
F0.049550332101895335
sS'vel_x'
p4
F0.49753870662350674
sS'pos_x'
p5
F-172.88207386147874
sS'pos_y'
p6
F-18.550267384961636
sS'isAlive'
p7
I01
sS'geno'
p8
(lp9
F-0.037314502308040787
aF-1.5266697737832846
aF-3.7619557823209
aF4.7876776572727131
aF0.79594630547905953
aF3.2675833638506617
asS'accel_x'
p10
F1.4262007626853574
sS'accel_y'
p11
F-1.4021238834410117
sS'maxAccel'
p12
I2
sS'maxVel'
p13
F0.5
sS'age'
p14
I200
sS'radius'
p15
I2
sS'gener'
p16
S'm'
sS'lastScale'
p17
F14.000000000000004
sS'energy'
p18
F1.3500000000000003
sb.(i__main__
Data_mobile
p1
(dp2
S'vel_y'
p3
F-0.34913067709414425
sS'vel_x'
p4
F0.046928317889715188
sS'pos_x'
p5
F-167.69005806486399
sS'pos_y'
p6
F12.256335566898247
sS'isAlive'
p7
I01
sS'geno'
p8
(lp9
F1.5620193373150286
aF-1.5266697737832846
aF-3.9931461519608655
aF4.5420667943798056
aF0.68492273325884323
aF-2.8570165011391553
asS'accel_x'
p10
F0
sS'accel_y'
p11
F0
sS'maxAccel'
p12
I2
sS'maxVel'
p13
F0.5
sS'age'
p14
I0
sS'radius'
p15
I2
sS'gener'
p16
S'm'
sS'lastScale'
p17
F5.3999999999999959
sS'energy'
p18
F1
sb.(i__main__
Data_mobile
p1
(dp2
S'vel_y'
p3
F-0.44279488738256645
sS'vel_x'
p4
F0.23223412261737142
sS'pos_x'
p5
F-159.90298556673395
sS'pos_y'
p6
F-75.06543564783405
sS'isAlive'
p7
I01
sS'geno'
p8
(lp9
F0.38488362201253334
aF-1.5266697737832846
aF-4.1653632727227956
aF4.7876776572727131
aF0.79594630547905953
aF-2.9941242768656862
asS'accel_x'
p10
F0.9251240916726936
sS'accel_y'
p11
F-1.7731738253783169
sS'maxAccel'
p12
I2
sS'maxVel'
p13
F0.5
sS'age'
p14
I100
sS'radius'
p15
I2
sS'gener'
p16
S'm'
sS'lastScale'
p17
F9.5
sS'energy'
p18
F0.89999999999999991
sb.(i__main__
Data_mobile
p1
(dp2
S'vel_y'
p3
F-0.10908888887351802
sS'vel_x'
p4
F-0.19130097655175599
sS'pos_x'
p5
F-168.22978037263584
sS'pos_y'
p6
F-40.471880172463365
sS'isAlive'
p7
I01
sS'geno'
p8
(lp9
F-0.037314502308040787
aF-1.954858511158156
aF-4.1653632727227956
aF4.7876776572727131
aF0.68492273325884323
aF-2.7638205520946366
asS'accel_x'
p10
F0
sS'accel_y'
p11
F0
sS'maxAccel'
p12
I2
sS'maxVel'
p13
F0.5
sS'age'
p14
I0
sS'radius'
p15
I2
sS'gener'
p16
S'm'
sS'lastScale'
p17
F5.4999999999999956
sS'energy'
p18
F1
sb.(i__main__
Data_mobile
p1
(dp2
S'vel_y'
p3
F0.29010119510892973
sS'vel_x'
p4
F-0.40723616808477447
sS'pos_x'
p5
F-143.25402157949452
sS'pos_y'
p6
F-88.833336231946518
sS'isAlive'
p7
I01
sS'geno'
p8
(lp9
F-0.055907183197582144
aF-1.5266697737832846
aF-4.6038603597409882
aF5.0110049172276785
aF0.79594630547905953
aF-2.9941242768656862
asS'accel_x'
p10
F-1.8055000292976939
sS'accel_y'
p11
F0.86033112474559814
sS'maxAccel'
p12
I2
sS'maxVel'
p13
F0.5
sS'age'
p14
I50
sS'radius'
p15
I2
sS'gener'
p16
S'm'
sS'lastScale'
p17
F7.9999999999999982
sS'energy'
p18
F0.74999999999999978
sb.(i__main__
Data_mobile
p1
(dp2
S'vel_y'
p3
F0.46350316675392628
sS'vel_x'
p4
F0.18752283703347172
sS'pos_x'
p5
F-143.35722723514777
sS'pos_y'
p6
F76.99761641997172
sS'isAlive'
p7
I01
sS'geno'
p8
(lp9
F-0.037314502308040787
aF-1.5266697737832846
aF-3.9931461519608655
aF4.7374171391059665
aF0.79594630547905953
aF-2.9941242768656862
asS'accel_x'
p10
F-1.9645554509665664
sS'accel_y'
p11
F-0.37486248155497159
sS'maxAccel'
p12
I2
sS'maxVel'
p13
F0.5
sS'age'
p14
I550
sS'radius'
p15
I2
sS'gener'
p16
S'm'
sS'lastScale'
p17
F11.5
sS'energy'
p18
F1.1000000000000001
sb.(i__main__
Data_mobile
p1
(dp2
S'vel_y'
p3
F-0.48726713472678135
sS'vel_x'
p4
F-0.11211930884175472
sS'pos_x'
p5
F-157.87509660675252
sS'pos_y'
p6
F-80.006557449062385
sS'isAlive'
p7
I01
sS'geno'
p8
(lp9
F-0.037314502308040787
aF-1.5266697737832846
aF-0.10927686034831108
aF4.7876776572727131
aF0.79594630547905953
aF-2.8682341635274144
asS'accel_x'
p10
F-0.70671517232867875
sS'accel_y'
p11
F-1.8709766607845342
sS'maxAccel'
p12
I2
sS'maxVel'
p13
F0.5
sS'age'
p14
I100
sS'radius'
p15
I2
sS'gener'
p16
S'm'
sS'lastScale'
p17
F12.500000000000002
sS'energy'
p18
F1.2000000000000002
sb.(i__main__
Data_mobile
p1
(dp2
S'vel_y'
p3
F-0.12095632342973799
sS'vel_x'
p4
F-0.48514901609954919
sS'pos_x'
p5
F11.072246999564896
sS'pos_y'
p6
F-37.708825339275215
sS'isAlive'
p7
I01
sS'geno'
p8
(lp9
F-0.037314502308040787
aF-1.5266697737832846
aF-3.9931461519608655
aF4.7374171391059665
aF-0.15291496651288961
aF3.4765576312883919
asS'accel_x'
p10
F0.11692376282635669
sS'accel_y'
p11
F-1.9965792830955966
sS'maxAccel'
p12
I2
sS'maxVel'
p13
F0.5
sS'age'
p14
I50
sS'radius'
p15
I2
sS'gener'
p16
S'm'
sS'lastScale'
p17
F7.9999999999999982
sS'energy'
p18
F0.59999999999999964
sb.(i__main__
Data_mobile
p1
(dp2
S'vel_y'
p3
F-0.20737603962396134
sS'vel_x'
p4
F0.26102776755809259
sS'pos_x'
p5
F-163.19329391713228
sS'pos_y'
p6
F-58.659254644613334
sS'isAlive'
p7
I01
sS'geno'
p8
(lp9
F-0.055907183197582144
aF-1.5266697737832846
aF-0.21301629094513319
aF4.7876776572727131
aF0.79594630547905953
aF3.2675833638506617
asS'accel_x'
p10
F0
sS'accel_y'
p11
F0
sS'maxAccel'
p12
I2
sS'maxVel'
p13
F0.5
sS'age'
p14
I0
sS'radius'
p15
I2
sS'gener'
p16
S'm'
sS'lastScale'
p17
F5.4999999999999956
sS'energy'
p18
F1
sb.(i__main__
Data_mobile
p1
(dp2
S'vel_y'
p3
F-0.4067215447983622
sS'vel_x'
p4
F0.29082225670817202
sS'pos_x'
p5
F-170.05459426286407
sS'pos_y'
p6
F65.526439390519585
sS'isAlive'
p7
I01
sS'geno'
p8
(lp9
F-0.037314502308040787
aF-1.5266697737832846
aF-3.9931461519608655
aF4.7374171391059665
aF-0.15291496651288961
aF3.4765576312883919
asS'accel_x'
p10
F-1.9982770094068716
sS'accel_y'
p11
F-0.082999961903182443
sS'maxAccel'
p12
I2
sS'maxVel'
p13
F0.5
sS'age'
p14
I400
sS'radius'
p15
I2
sS'gener'
p16
S'm'
sS'lastScale'
p17
F9.5
sS'energy'
p18
F0.89999999999999991
sb.(i__main__
Data_mobile
p1
(dp2
S'vel_y'
p3
F0.42189755485625807
sS'vel_x'
p4
F0.26833272854109819
sS'pos_x'
p5
F-108.49169733425414
sS'pos_y'
p6
F62.37608040044163
sS'isAlive'
p7
I01
sS'geno'
p8
(lp9
F-0.037314502308040787
aF-1.5266697737832846
aF-3.9931461519608655
aF4.7374171391059665
aF0.79594630547905953
aF-2.9941242768656862
asS'accel_x'
p10
F0.78199176914312707
sS'accel_y'
p11
F1.8407848524453918
sS'maxAccel'
p12
I2
sS'maxVel'
p13
F0.5
sS'age'
p14
I50
sS'radius'
p15
I2
sS'gener'
p16
S'm'
sS'lastScale'
p17
F12.000000000000002
sS'energy'
p18
F1.1500000000000001
sb.(i__main__
Data_mobile
p1
(dp2
S'vel_y'
p3
F0.43589095640776926
sS'vel_x'
p4
F-0.24494708433031043
sS'pos_x'
p5
F-110.6968933984944
sS'pos_y'
p6
F66.081087722784133
sS'isAlive'
p7
I01
sS'geno'
p8
(lp9
F-0.037314502308040787
aF-1.5266697737832846
aF-3.9931461519608655
aF4.7374171391059665
aF-0.15291496651288961
aF3.4765576312883919
asS'accel_x'
p10
F1.9211782510773714
sS'accel_y'
p11
F-0.55594435655674501
sS'maxAccel'
p12
I2
sS'maxVel'
p13
F0.5
sS'age'
p14
I50
sS'radius'
p15
I2
sS'gener'
p16
S'm'
sS'lastScale'
p17
F12.000000000000002
sS'energy'
p18
F1.1500000000000001
sb.(i__main__
Data_mobile
p1
(dp2
S'vel_y'
p3
F0.4074803511476881
sS'vel_x'
p4
F-0.28975811192882384
sS'pos_x'
p5
F-75.64635226418558
sS'pos_y'
p6
F-94.615106192068609
sS'isAlive'
p7
I01
sS'geno'
p8
(lp9
F1.5620193373150286
aF-0.12244834053052323
aF-3.9931461519608655
aF4.7374171391059665
aF0.79594630547905953
aF-2.9941242768656862
asS'accel_x'
p10
F-0.26441804811198422
sS'accel_y'
p11
F1.9824437182005064
sS'maxAccel'
p12
I2
sS'maxVel'
p13
F0.5
sS'age'
p14
I250
sS'radius'
p15
I2
sS'gener'
p16
S'm'
sS'lastScale'
p17
F6.4999999999999964
sS'energy'
p18
F0.59999999999999964
sb.(i__main__
Data_mobile
p1
(dp2
S'vel_y'
p3
F-0.086248807028481519
sS'vel_x'
p4
F-0.49250496777815722
sS'pos_x'
p5
F-151.22275266687055
sS'pos_y'
p6
F70.987028040262786
sS'isAlive'
p7
I01
sS'geno'
p8
(lp9
F-0.22061454801240787
aF-0.12244834053052323
aF-3.9931461519608655
aF4.7876776572727131
aF0.79594630547905953
aF3.2675833638506617
asS'accel_x'
p10
F-1.9724363710958781
sS'accel_y'
p11
F-0.33089992743747093
sS'maxAccel'
p12
I2
sS'maxVel'
p13
F0.5
sS'age'
p14
I50
sS'radius'
p15
I2
sS'gener'
p16
S'm'
sS'lastScale'
p17
F7.4999999999999973
sS'energy'
p18
F0.69999999999999973
sb.(i__main__
Data_mobile
p1
(dp2
S'vel_y'
p3
F-0.20605961202117465
sS'vel_x'
p4
F0.25901483993591523
sS'pos_x'
p5
F-122.0855041756446
sS'pos_y'
p6
F66.656528966382609
sS'isAlive'
p7
I01
sS'geno'
p8
(lp9
F-0.037314502308040787
aF-1.8857786413046647
aF-3.9931461519608655
aF4.7374171391059665
aF0.79594630547905953
aF-2.9941242768656862
asS'accel_x'
p10
F0
sS'accel_y'
p11
F0
sS'maxAccel'
p12
I2
sS'maxVel'
p13
F0.5
sS'age'
p14
I0
sS'radius'
p15
I2
sS'gener'
p16
S'm'
sS'lastScale'
p17
F5.4999999999999956
sS'energy'
p18
F1
sb.(i__main__
Data_mobile
p1
(dp2
S'vel_y'
p3
F-0.48120638359972612
sS'vel_x'
p4
F0.10567291079445587
sS'pos_x'
p5
F-177.81829020531188
sS'pos_y'
p6
F-13.808616229192548
sS'isAlive'
p7
I01
sS'geno'
p8
(lp9
F0.74652203674191109
aF-1.5266697737832846
aF-0.21301629094513319
aF4.7876776572727131
aF0.79594630547905953
aF3.2675833638506617
asS'accel_x'
p10
F0
sS'accel_y'
p11
F0
sS'maxAccel'
p12
I2
sS'maxVel'
p13
F0.5
sS'age'
p14
I0
sS'radius'
p15
I2
sS'gener'
p16
S'm'
sS'lastScale'
p17
F4.9999999999999956
sS'energy'
p18
F1
sb.(i__main__
Data_mobile
p1
(dp2
S'vel_y'
p3
F-0.49117875336684769
sS'vel_x'
p4
F-0.093506321930602335
sS'pos_x'
p5
F-159.53033681577915
sS'pos_y'
p6
F-79.56083313085
sS'isAlive'
p7
I01
sS'geno'
p8
(lp9
F-0.037314502308040787
aF-1.5266697737832846
aF-0.21301629094513319
aF4.3940591016553059
aF0.79594630547905953
aF-2.9941242768656862
asS'accel_x'
p10
F0.89929681089217905
sS'accel_y'
p11
F1.7864112756918986
sS'maxAccel'
p12
I2
sS'maxVel'
p13
F0.5
sS'age'
p14
I350
sS'radius'
p15
I2
sS'gener'
p16
S'm'
sS'lastScale'
p17
F8.9999999999999982
sS'energy'
p18
F0.84999999999999987
sb.(i__main__
Data_mobile
p1
(dp2
S'vel_y'
p3
F0.47119564093242172
sS'vel_x'
p4
F0.16725629425012467
sS'pos_x'
p5
F-157.17984989108436
sS'pos_y'
p6
F-78.123226188823992
sS'isAlive'
p7
I01
sS'geno'
p8
(lp9
F-0.037314502308040787
aF-1.5266697737832846
aF-0.10927686034831108
aF4.7374171391059665
aF0.79594630547905953
aF3.2675833638506617
asS'accel_x'
p10
F-0.63644947241394012
sS'accel_y'
p11
F-1.8960306086833136
sS'maxAccel'
p12
I2
sS'maxVel'
p13
F0.5
sS'age'
p14
I50
sS'radius'
p15
I2
sS'gener'
p16
S'm'
sS'lastScale'
p17
F7.4999999999999973
sS'energy'
p18
F0.69999999999999973
sb.(i__main__
Data_mobile
p1
(dp2
S'vel_y'
p3
F-0.41245541147707637
sS'vel_x'
p4
F-0.28263144471780854
sS'pos_x'
p5
F-107.44295537123865
sS'pos_y'
p6
F66.027933495835015
sS'isAlive'
p7
I01
sS'geno'
p8
(lp9
F0.38488362201253334
aF-1.954858511158156
aF-3.9931461519608655
aF4.7374171391059665
aF-0.15291496651288961
aF3.4765576312883919
asS'accel_x'
p10
F-1.7538409442462859
sS'accel_y'
p11
F-0.96127100356002415
sS'maxAccel'
p12
I2
sS'maxVel'
p13
F0.5
sS'age'
p14
I50
sS'radius'
p15
I2
sS'gener'
p16
S'm'
sS'lastScale'
p17
F12.000000000000002
sS'energy'
p18
F1.1000000000000001
sb.(i__main__
Data_mobile
p1
(dp2
S'vel_y'
p3
F0.098104189043201964
sS'vel_x'
p4
F0.49028111129450591
sS'pos_x'
p5
F-174.41077090605327
sS'pos_y'
p6
F65.302141347454537
sS'isAlive'
p7
I01
sS'geno'
p8
(lp9
F-0.037314502308040787
aF-1.5266697737832846
aF-4.1653632727227956
aF4.7876776572727131
aF0.68492273325884323
aF-2.7638205520946366
asS'accel_x'
p10
F0.99880369496635846
sS'accel_y'
p11
F1.7327409439733195
sS'maxAccel'
p12
I2
sS'maxVel'
p13
F0.5
sS'age'
p14
I150
sS'radius'
p15
I2
sS'gener'
p16
S'm'
sS'lastScale'
p17
F13.000000000000002
sS'energy'
p18
F1.2500000000000002
sb.(i__main__
Data_mobile
p1
(dp2
S'vel_y'
p3
F0.32540558245740175
sS'vel_x'
p4
F0.32513614808472885
sS'pos_x'
p5
F-169.73739944188165
sS'pos_y'
p6
F-30.14651053251864
sS'isAlive'
p7
I01
sS'geno'
p8
(lp9
F-0.037314502308040787
aF-1.5266697737832846
aF-0.21301629094513319
aF4.7374171391059665
aF0.79594630547905953
aF3.2675833638506617
asS'accel_x'
p10
F0
sS'accel_y'
p11
F0
sS'maxAccel'
p12
I2
sS'maxVel'
p13
F0.5
sS'age'
p14
I0
sS'radius'
p15
I2
sS'gener'
p16
S'm'
sS'lastScale'
p17
F5.2999999999999963
sS'energy'
p18
F1
sb.(i__main__
Data_mobile
p1
(dp2
S'vel_y'
p3
F0.34169404236027301
sS'vel_x'
p4
F0.36502764472776023
sS'pos_x'
p5
F-107.90693633393165
sS'pos_y'
p6
F66.257505434828147
sS'isAlive'
p7
I01
sS'geno'
p8
(lp9
F-0.037314502308040787
aF-1.5266697737832846
aF-3.7619557823209
aF4.7876776572727131
aF0.3199328896011
aF3.2675833638506617
asS'accel_x'
p10
F-0.7360127344086187
sS'accel_y'
p11
F1.8596465402834883
sS'maxAccel'
p12
I2
sS'maxVel'
p13
F0.5
sS'age'
p14
I100
sS'radius'
p15
I2
sS'gener'
p16
S'm'
sS'lastScale'
p17
F11
sS'energy'
p18
F1.05
sb.(i__main__
Data_mobile
p1
(dp2
S'vel_y'
p3
F0.13766439269353378
sS'vel_x'
p4
F-0.48067506174579155
sS'pos_x'
p5
F-108.18556188219053
sS'pos_y'
p6
F62.341509043391106
sS'isAlive'
p7
I01
sS'geno'
p8
(lp9
F-0.037314502308040787
aF-1.5266697737832846
aF-4.1653632727227956
aF4.7876776572727131
aF0.68492273325884323
aF-2.7638205520946366
asS'accel_x'
p10
F-1.5664903225670563
sS'accel_y'
p11
F1.2434259404177475
sS'maxAccel'
p12
I2
sS'maxVel'
p13
F0.5
sS'age'
p14
I50
sS'radius'
p15
I2
sS'gener'
p16
S'm'
sS'lastScale'
p17
F9.5
sS'energy'
p18
F0.89999999999999991
sb.(i__main__
Data_mobile
p1
(dp2
S'vel_y'
p3
F-0.33033496191152595
sS'vel_x'
p4
F0.37533826468788212
sS'pos_x'
p5
F-170.22207180905318
sS'pos_y'
p6
F64.616466120414216
sS'isAlive'
p7
I01
sS'geno'
p8
(lp9
F-0.037314502308040787
aF-1.5266697737832846
aF-4.1653632727227956
aF4.7876776572727131
aF0.79594630547905953
aF-2.9941242768656862
asS'accel_x'
p10
F1.8126635975332299
sS'accel_y'
p11
F0.84513352919990625
sS'maxAccel'
p12
I2
sS'maxVel'
p13
F0.5
sS'age'
p14
I550
sS'radius'
p15
I2
sS'gener'
p16
S'm'
sS'lastScale'
p17
F13.000000000000002
sS'energy'
p18
F1.2500000000000002
sb.(i__main__
Data_mobile
p1
(dp2
S'vel_y'
p3
F0.49825911722068178
sS'vel_x'
p4
F0.041687553375880204
sS'pos_x'
p5
F176.56169600148033
sS'pos_y'
p6
F66.332622080624631
sS'isAlive'
p7
I01
sS'geno'
p8
(lp9
F-0.037314502308040787
aF-1.5266697737832846
aF-4.2108964698652525
aF4.7320391676829523
aF0.79594630547905953
aF-2.9941242768656862
asS'accel_x'
p10
F0.92954527224367123
sS'accel_y'
p11
F-1.7708601262802885
sS'maxAccel'
p12
I2
sS'maxVel'
p13
F0.5
sS'age'
p14
I50
sS'radius'
p15
I2
sS'gener'
p16
S'm'
sS'lastScale'
p17
F7.4999999999999973
sS'energy'
p18
F0.69999999999999973
sb.(i__main__
Data_mobile
p1
(dp2
S'vel_y'
p3
F-0.42831409056641423
sS'vel_x'
p4
F-0.25796712934454563
sS'pos_x'
p5
F-174.5668639541046
sS'pos_y'
p6
F62.968907346336557
sS'isAlive'
p7
I01
sS'geno'
p8
(lp9
F-0.039389090606090638
aF-1.5266697737832846
aF-3.9931461519608655
aF4.7374171391059665
aF0.79594630547905953
aF-2.9941242768656862
asS'accel_x'
p10
F1.6563627403601209
sS'accel_y'
p11
F-1.1209203684235158
sS'maxAccel'
p12
I2
sS'maxVel'
p13
F0.5
sS'age'
p14
I100
sS'radius'
p15
I2
sS'gener'
p16
S'm'
sS'lastScale'
p17
F14.500000000000004
sS'energy'
p18
F1.4000000000000004
sb.(i__main__
Data_mobile
p1
(dp2
S'vel_y'
p3
F-0.39801709700561372
sS'vel_x'
p4
F-0.30262582588276221
sS'pos_x'
p5
F-133.45678919891762
sS'pos_y'
p6
F-8.6419470236015172
sS'isAlive'
p7
I01
sS'geno'
p8
(lp9
F-0.037314502308040787
aF-1.5266697737832846
aF-3.9931461519608655
aF4.7876776572727131
aF0.79594630547905953
aF3.2675833638506617
asS'accel_x'
p10
F-0.70836226880799369
sS'accel_y'
p11
F1.8703536820957667
sS'maxAccel'
p12
I2
sS'maxVel'
p13
F0.5
sS'age'
p14
I150
sS'radius'
p15
I2
sS'gener'
p16
S'm'
sS'lastScale'
p17
F6.4999999999999964
sS'energy'
p18
F0.59999999999999964
sb.(i__main__
Data_mobile
p1
(dp2
S'vel_y'
p3
F-0.49469945492478884
sS'vel_x'
p4
F-0.072611633345606649
sS'pos_x'
p5
F-149.02306814754667
sS'pos_y'
p6
F-88.547270038712
sS'isAlive'
p7
I01
sS'geno'
p8
(lp9
F-0.055907183197582144
aF-1.5266697737832846
aF-4.6038603597409882
aF5.0110049172276785
aF0.79594630547905953
aF-3.036185563555879
asS'accel_x'
p10
F-1.913848221744662
sS'accel_y'
p11
F0.58067631613903026
sS'maxAccel'
p12
I2
sS'maxVel'
p13
F0.5
sS'age'
p14
I50
sS'radius'
p15
I2
sS'gener'
p16
S'm'
sS'lastScale'
p17
F8.9999999999999982
sS'energy'
p18
F0.84999999999999987
sb.(i__main__
Data_mobile
p1
(dp2
S'vel_y'
p3
F0.47582240623815486
sS'vel_x'
p4
F-0.15360025300022226
sS'pos_x'
p5
F-172.9663689854402
sS'pos_y'
p6
F-17.49253732667491
sS'isAlive'
p7
I01
sS'geno'
p8
(lp9
F-0.039389090606090638
aF-1.5266697737832846
aF-4.1653632727227956
aF4.7374171391059665
aF0.79594630547905953
aF-2.9941242768656862
asS'accel_x'
p10
F-1.3928558628546035
sS'accel_y'
p11
F1.4352534777214643
sS'maxAccel'
p12
I2
sS'maxVel'
p13
F0.5
sS'age'
p14
I100
sS'radius'
p15
I2
sS'gener'
p16
S'm'
sS'lastScale'
p17
F13.500000000000004
sS'energy'
p18
F1.3000000000000003
sb.(i__main__
Data_mobile
p1
(dp2
S'vel_y'
p3
F0.017363053232432354
sS'vel_x'
p4
F-0.22207393709486561
sS'pos_x'
p5
F-111.99848330884222
sS'pos_y'
p6
F53.95420806879094
sS'isAlive'
p7
I01
sS'geno'
p8
(lp9
F-0.037314502308040787
aF-1.5266697737832846
aF-0.21301629094513319
aF4.7876776572727131
aF0.79594630547905953
aF3.2675833638506617
asS'accel_x'
p10
F0
sS'accel_y'
p11
F0
sS'maxAccel'
p12
I2
sS'maxVel'
p13
F0.5
sS'age'
p14
I0
sS'radius'
p15
I2
sS'gener'
p16
S'm'
sS'lastScale'
p17
F5.4999999999999956
sS'energy'
p18
F1
sb.(i__main__
Data_mobile
p1
(dp2
S'vel_y'
p3
F-0.15519537592652102
sS'vel_x'
p4
F0.4753045290032758
sS'pos_x'
p5
F-121.19991875268535
sS'pos_y'
p6
F-13.567918207018181
sS'isAlive'
p7
I01
sS'geno'
p8
(lp9
F-0.037314502308040787
aF-1.5266697737832846
aF-4.6259177605272894
aF4.7320391676829523
aF0.3199328896011
aF-2.9941242768656862
asS'accel_x'
p10
F1.867142062600178
sS'accel_y'
p11
F-0.71678484782335739
sS'maxAccel'
p12
I2
sS'maxVel'
p13
F0.5
sS'age'
p14
I50
sS'radius'
p15
I2
sS'gener'
p16
S'm'
sS'lastScale'
p17
F14.000000000000004
sS'energy'
p18
F1.3500000000000003
sb.(i__main__
Data_mobile
p1
(dp2
S'vel_y'
p3
F0.007571217569499189
sS'vel_x'
p4
F-0.1887770962960727
sS'pos_x'
p5
F91.425102255280308
sS'pos_y'
p6
F-7.001386886880649
sS'isAlive'
p7
I01
sS'geno'
p8
(lp9
F-0.037314502308040787
aF-0.12244834053052323
aF-3.9931461519608655
aF4.7374171391059665
aF0.79594630547905953
aF-2.9941242768656862
asS'accel_x'
p10
F0
sS'accel_y'
p11
F0
sS'maxAccel'
p12
I2
sS'maxVel'
p13
F0.5
sS'age'
p14
I0
sS'radius'
p15
I2
sS'gener'
p16
S'm'
sS'lastScale'
p17
F5.4999999999999956
sS'energy'
p18
F1
sb.(i__main__
Data_mobile
p1
(dp2
S'vel_y'
p3
F-0.21500700290015864
sS'vel_x'
p4
F0.45141110830803793
sS'pos_x'
p5
F-160.29967460989224
sS'pos_y'
p6
F-79.803759512905998
sS'isAlive'
p7
I01
sS'geno'
p8
(lp9
F-0.037314502308040787
aF-1.5266697737832846
aF-0.21301629094513319
aF4.7876776572727131
aF0.79594630547905953
aF3.2675833638506617
asS'accel_x'
p10
F1.9813987572524905
sS'accel_y'
p11
F-0.2721377679747643
sS'maxAccel'
p12
I2
sS'maxVel'
p13
F0.5
sS'age'
p14
I50
sS'radius'
p15
I2
sS'gener'
p16
S'm'
sS'lastScale'
p17
F8.9999999999999982
sS'energy'
p18
F0.84999999999999987
sb.(i__main__
Data_mobile
p1
(dp2
S'vel_y'
p3
F-0.21396024600232078
sS'vel_x'
p4
F-0.45190819104174956
sS'pos_x'
p5
F-154.64597381342202
sS'pos_y'
p6
F-86.068034481074719
sS'isAlive'
p7
I01
sS'geno'
p8
(lp9
F0.38488362201253334
aF-2.0012503732947344
aF-4.1653632727227956
aF4.7876776572727131
aF0.79594630547905953
aF-2.9941242768656862
asS'accel_x'
p10
F-1.9912590392767671
sS'accel_y'
p11
F0.18678179380915738
sS'maxAccel'
p12
I2
sS'maxVel'
p13
F0.5
sS'age'
p14
I150
sS'radius'
p15
I2
sS'gener'
p16
S'm'
sS'lastScale'
p17
F8.4999999999999982
sS'energy'
p18
F0.79999999999999982
sb.(i__main__
Data_mobile
p1
(dp2
S'vel_y'
p3
F0.299821639470576
sS'vel_x'
p4
F-0.40013370828408851
sS'pos_x'
p5
F-133.10465107169611
sS'pos_y'
p6
F-5.5455376363630116
sS'isAlive'
p7
I01
sS'geno'
p8
(lp9
F-0.037314502308040787
aF-1.5266697737832846
aF-3.9931461519608655
aF4.7374171391059665
aF0.68492273325884323
aF-2.9941242768656862
asS'accel_x'
p10
F-1.4909867292287498
sS'accel_y'
p11
F-1.3330260962425886
sS'maxAccel'
p12
I2
sS'maxVel'
p13
F0.5
sS'age'
p14
I150
sS'radius'
p15
I2
sS'gener'
p16
S'm'
sS'lastScale'
p17
F12.500000000000002
sS'energy'
p18
F1.2000000000000002
sb.(i__main__
Data_mobile
p1
(dp2
S'vel_y'
p3
F-0.23623980726235655
sS'vel_x'
p4
F0.44067079942361126
sS'pos_x'
p5
F-153.18349639244553
sS'pos_y'
p6
F-86.818300912989045
sS'isAlive'
p7
I01
sS'geno'
p8
(lp9
F-0.037314502308040787
aF-1.5266697737832846
aF-0.21301629094513319
aF4.7374171391059665
aF0.76083986244604362
aF-2.9941242768656862
asS'accel_x'
p10
F-0.19039815744142588
sS'accel_y'
p11
F1.9909165079537892
sS'maxAccel'
p12
I2
sS'maxVel'
p13
F0.5
sS'age'
p14
I200
sS'radius'
p15
I2
sS'gener'
p16
S'm'
sS'lastScale'
p17
F14.500000000000004
sS'energy'
p18
F1.4000000000000004
sb.(i__main__
Data_mobile
p1
(dp2
S'vel_y'
p3
F-0.19990497241447855
sS'vel_x'
p4
F-0.4582990312055728
sS'pos_x'
p5
F-161.48635012579433
sS'pos_y'
p6
F71.659133399312211
sS'isAlive'
p7
I01
sS'geno'
p8
(lp9
F-0.037314502308040787
aF-1.5266697737832846
aF-3.9931461519608655
aF4.7876776572727131
aF0.68492273325884323
aF-2.7638205520946366
asS'accel_x'
p10
F-1.8249722676500286
sS'accel_y'
p11
F-0.81821526648450671
sS'maxAccel'
p12
I2
sS'maxVel'
p13
F0.5
sS'age'
p14
I50
sS'radius'
p15
I2
sS'gener'
p16
S'm'
sS'lastScale'
p17
F6.9999999999999964
sS'energy'
p18
F0.64999999999999969
sb.(i__main__
Data_mobile
p1
(dp2
S'vel_y'
p3
F-0.049020078403206178
sS'vel_x'
p4
F-0.49759122973917408
sS'pos_x'
p5
F-111.19881778136561
sS'pos_y'
p6
F66.597933167616844
sS'isAlive'
p7
I01
sS'geno'
p8
(lp9
F-0.037314502308040787
aF-1.5266697737832846
aF-0.21301629094513319
aF4.3940591016553059
aF0.79594630547905953
aF-2.8682341635274144
asS'accel_x'
p10
F-0.053586093415973618
sS'accel_y'
p11
F-1.9992820037684564
sS'maxAccel'
p12
I2
sS'maxVel'
p13
F0.5
sS'age'
p14
I50
sS'radius'
p15
I2
sS'gener'
p16
S'm'
sS'lastScale'
p17
F6.4999999999999964
sS'energy'
p18
F0.59999999999999964
sb.(i__main__
Data_mobile
p1
(dp2
S'vel_y'
p3
F0.33267696527895541
sS'vel_x'
p4
F-0.37326403091214755
sS'pos_x'
p5
F-158.38783694649396
sS'pos_y'
p6
F-80.889886278315686
sS'isAlive'
p7
I01
sS'geno'
p8
(lp9
F-0.037314502308040787
aF-1.5266697737832846
aF-0.10927686034831108
aF4.7374171391059665
aF0.79594630547905953
aF3.2675833638506617
asS'accel_x'
p10
F-0.72979392377385544
sS'accel_y'
p11
F1.8620958162304
sS'maxAccel'
p12
I2
sS'maxVel'
p13
F0.5
sS'age'
p14
I100
sS'radius'
p15
I2
sS'gener'
p16
S'm'
sS'lastScale'
p17
F12.500000000000002
sS'energy'
p18
F1.2000000000000002
sb.(i__main__
Data_mobile
p1
(dp2
S'vel_y'
p3
F0.49946535723714658
sS'vel_x'
p4
F-0.023116161445395939
sS'pos_x'
p5
F-178.28099929344742
sS'pos_y'
p6
F-12.469057370155751
sS'isAlive'
p7
I01
sS'geno'
p8
(lp9
F0.74652203674191109
aF-1.5266697737832846
aF-0.21301629094513319
aF4.8408236999752754
aF0.79594630547905953
aF-2.8682341635274144
asS'accel_x'
p10
F-0.13960167537549092
sS'accel_y'
p11
F1.9951218940787443
sS'maxAccel'
p12
I2
sS'maxVel'
p13
F0.5
sS'age'
p14
I100
sS'radius'
p15
I2
sS'gener'
p16
S'm'
sS'lastScale'
p17
F14.500000000000004
sS'energy'
p18
F1.4000000000000004
sb.(i__main__
Data_mobile
p1
(dp2
S'vel_y'
p3
F0.35584875700023749
sS'vel_x'
p4
F-0.35120621419589548
sS'pos_x'
p5
F69.176830329424632
sS'pos_y'
p6
F-52.477082849117537
sS'isAlive'
p7
I01
sS'geno'
p8
(lp9
F-0.037314502308040787
aF-1.5266697737832846
aF-3.9931461519608655
aF4.7320391676829523
aF0.3199328896011
aF3.2675833638506617
asS'accel_x'
p10
F0
sS'accel_y'
p11
F0
sS'maxAccel'
p12
I2
sS'maxVel'
p13
F0.5
sS'age'
p14
I0
sS'radius'
p15
I2
sS'gener'
p16
S'm'
sS'lastScale'
p17
F5.4999999999999956
sS'energy'
p18
F1
sb.(i__main__
Data_mobile
p1
(dp2
S'vel_y'
p3
F0.24778123452121845
sS'vel_x'
p4
F0.4342861496975709
sS'pos_x'
p5
F-143.32314840951997
sS'pos_y'
p6
F-90.946364643326618
sS'isAlive'
p7
I01
sS'geno'
p8
(lp9
F0.38488362201253334
aF-1.5266697737832846
aF-4.1653632727227956
aF4.7876776572727131
aF0.79594630547905953
aF3.2675833638506617
asS'accel_x'
p10
F0.69106787673005976
sS'accel_y'
p11
F-1.876812507884527
sS'maxAccel'
p12
I2
sS'maxVel'
p13
F0.5
sS'age'
p14
I100
sS'radius'
p15
I2
sS'gener'
p16
S'm'
sS'lastScale'
p17
F7.4999999999999973
sS'energy'
p18
F0.69999999999999973
sb.(i__main__
Data_mobile
p1
(dp2
S'vel_y'
p3
F0.32004728188699072
sS'vel_x'
p4
F-0.38414806696994985
sS'pos_x'
p5
F-142.73709774130518
sS'pos_y'
p6
F78.965723622833295
sS'isAlive'
p7
I01
sS'geno'
p8
(lp9
F-0.039389090606090638
aF-1.5266697737832846
aF-4.1653632727227956
aF4.7876776572727131
aF0.79594630547905953
aF3.2675833638506617
asS'accel_x'
p10
F-1.7950042046922401
sS'accel_y'
p11
F0.88202035415129654
sS'maxAccel'
p12
I2
sS'maxVel'
p13
F0.5
sS'age'
p14
I100
sS'radius'
p15
I2
sS'gener'
p16
S'm'
sS'lastScale'
p17
F11.5
sS'energy'
p18
F1.1000000000000001
sb.(i__main__
Data_mobile
p1
(dp2
S'vel_y'
p3
F0.050788606507358308
sS'vel_x'
p4
F0.10681303526066058
sS'pos_x'
p5
F-154.68201769649133
sS'pos_y'
p6
F-86.67267116766881
sS'isAlive'
p7
I01
sS'geno'
p8
(lp9
F-0.037314502308040787
aF-1.5266697737832846
aF-0.21301629094513319
aF4.7374171391059665
aF1.1789357613033751
aF-2.9941242768656862
asS'accel_x'
p10
F0
sS'accel_y'
p11
F0
sS'maxAccel'
p12
I2
sS'maxVel'
p13
F0.5
sS'age'
p14
I0
sS'radius'
p15
I2
sS'gener'
p16
S'm'
sS'lastScale'
p17
F5.2999999999999963
sS'energy'
p18
F1
sb.(i__main__
Data_mobile
p1
(dp2
S'vel_y'
p3
F-0.094415237623597242
sS'vel_x'
p4
F0.18637518410054707
sS'pos_x'
p5
F-155.63158023622063
sS'pos_y'
p6
F-85.672334545684109
sS'isAlive'
p7
I01
sS'geno'
p8
(lp9
F-0.037314502308040787
aF-1.5266697737832846
aF-0.10927686034831108
aF4.7374171391059665
aF0.79594630547905953
aF-3.3837648737815544
asS'accel_x'
p10
F0
sS'accel_y'
p11
F0
sS'maxAccel'
p12
I2
sS'maxVel'
p13
F0.5
sS'age'
p14
I0
sS'radius'
p15
I2
sS'gener'
p16
S'm'
sS'lastScale'
p17
F5.4999999999999956
sS'energy'
p18
F1
sb.(i__main__
Data_mobile
p1
(dp2
S'vel_y'
p3
F0.35560067875423096
sS'vel_x'
p4
F-0.35149417814457501
sS'pos_x'
p5
F190.31683384659388
sS'pos_y'
p6
F-34.020232333959605
sS'isAlive'
p7
I01
sS'geno'
p8
(lp9
F-0.037314502308040787
aF-0.12244834053052323
aF-3.9931461519608655
aF4.7320391676829523
aF0.3199328896011
aF3.2675833638506617
asS'accel_x'
p10
F0.10815923364020671
sS'accel_y'
p11
F1.9970732535834443
sS'maxAccel'
p12
I2
sS'maxVel'
p13
F0.5
sS'age'
p14
I50
sS'radius'
p15
I2
sS'gener'
p16
S'm'
sS'lastScale'
p17
F14.500000000000004
sS'energy'
p18
F1.4000000000000004
sb.(i__main__
Data_mobile
p1
(dp2
S'vel_y'
p3
F0.45539930054955585
sS'vel_x'
p4
F-0.15306272319017739
sS'pos_x'
p5
F-134.10456854734321
sS'pos_y'
p6
F64.155980154571438
sS'isAlive'
p7
I01
sS'geno'
p8
(lp9
F-0.037314502308040787
aF-1.5266697737832846
aF-3.9931461519608655
aF4.7374171391059665
aF0.55487348688466298
aF-2.9941242768656862
asS'accel_x'
p10
F0
sS'accel_y'
p11
F0
sS'maxAccel'
p12
I2
sS'maxVel'
p13
F0.5
sS'age'
p14
I0
sS'radius'
p15
I2
sS'gener'
p16
S'm'
sS'lastScale'
p17
F5.4999999999999956
sS'energy'
p18
F1
sb.(i__main__
Data_mobile
p1
(dp2
S'vel_y'
p3
F0.097709202013243512
sS'vel_x'
p4
F-0.43535448682126376
sS'pos_x'
p5
F-153.43090552780242
sS'pos_y'
p6
F-42.652308318412153
sS'isAlive'
p7
I01
sS'geno'
p8
(lp9
F0.27887700152121908
aF-1.5266697737832846
aF-0.21301629094513319
aF4.7374171391059665
aF0.79594630547905953
aF3.2675833638506617
asS'accel_x'
p10
F0
sS'accel_y'
p11
F0
sS'maxAccel'
p12
I2
sS'maxVel'
p13
F0.5
sS'age'
p14
I0
sS'radius'
p15
I2
sS'gener'
p16
S'm'
sS'lastScale'
p17
F5.4999999999999956
sS'energy'
p18
F1
sb.(i__main__
Data_mobile
p1
(dp2
S'vel_y'
p3
F-0.26466843132123918
sS'vel_x'
p4
F0.42420587155525608
sS'pos_x'
p5
F-172.79738038635233
sS'pos_y'
p6
F65.400385985782904
sS'isAlive'
p7
I01
sS'geno'
p8
(lp9
F-0.037314502308040787
aF-1.5266697737832846
aF-4.1653632727227956
aF4.7374171391059665
aF0.79594630547905953
aF-2.9941242768656862
asS'accel_x'
p10
F-0.74834167693390419
sS'accel_y'
p11
F1.8547195838087636
sS'maxAccel'
p12
I2
sS'maxVel'
p13
F0.5
sS'age'
p14
I50
sS'radius'
p15
I2
sS'gener'
p16
S'm'
sS'lastScale'
p17
F12.000000000000002
sS'energy'
p18
F1.1500000000000001
sb.(i__main__
Data_mobile
p1
(dp2
S'vel_y'
p3
F-0.018069936754857584
sS'vel_x'
p4
F-0.49967337069897516
sS'pos_x'
p5
F-136.10871467105534
sS'pos_y'
p6
F-12.566760472149408
sS'isAlive'
p7
I01
sS'geno'
p8
(lp9
F0.27887700152121908
aF-1.5266697737832846
aF-0.21301629094513319
aF4.3940591016553059
aF1.071066145520603
aF-3.0605886936226216
asS'accel_x'
p10
F-1.9987861069652622
sS'accel_y'
p11
F0.06967136142384564
sS'maxAccel'
p12
I2
sS'maxVel'
p13
F0.5
sS'age'
p14
I50
sS'radius'
p15
I2
sS'gener'
p16
S'm'
sS'lastScale'
p17
F14.000000000000004
sS'energy'
p18
F1.3500000000000003
sb.(i__main__
Data_mobile
p1
(dp2
S'vel_y'
p3
F-0.34751066055983154
sS'vel_x'
p4
F-0.35949456295926024
sS'pos_x'
p5
F-172.41367176514936
sS'pos_y'
p6
F67.588734504852994
sS'isAlive'
p7
I01
sS'geno'
p8
(lp9
F-0.037314502308040787
aF-1.5266697737832846
aF-4.1653632727227956
aF4.7876776572727131
aF0.68492273325884323
aF-2.9941242768656862
asS'accel_x'
p10
F-1.4962366452858264
sS'accel_y'
p11
F-1.3271307024192516
sS'maxAccel'
p12
I2
sS'maxVel'
p13
F0.5
sS'age'
p14
I200
sS'radius'
p15
I2
sS'gener'
p16
S'm'
sS'lastScale'
p17
F11
sS'energy'
p18
F1.05
sb.(i__main__
Data_mobile
p1
(dp2
S'vel_y'
p3
F-0.48517178743787542
sS'vel_x'
p4
F-0.12086495221666642
sS'pos_x'
p5
F-155.0814406301109
sS'pos_y'
p6
F-86.098332516422545
sS'isAlive'
p7
I01
sS'geno'
p8
(lp9
F0.38488362201253334
aF-1.5266697737832846
aF-0.21301629094513319
aF4.3940591016553059
aF0.79594630547905953
aF-2.9941242768656862
asS'accel_x'
p10
F1.1386957733461349
sS'accel_y'
p11
F-1.6441933997445823
sS'maxAccel'
p12
I2
sS'maxVel'
p13
F0.5
sS'age'
p14
I150
sS'radius'
p15
I2
sS'gener'
p16
S'm'
sS'lastScale'
p17
F11
sS'energy'
p18
F1.05
sb.(i__main__
Data_mobile
p1
(dp2
S'vel_y'
p3
F0.37536674287354654
sS'vel_x'
p4
F-0.3285501515510445
sS'pos_x'
p5
F-98.374611814361828
sS'pos_y'
p6
F-78.005164667347785
sS'isAlive'
p7
I01
sS'geno'
p8
(lp9
F-0.037314502308040787
aF-0.12244834053052323
aF-0.10927686034831108
aF4.7374171391059665
aF0.79594630547905953
aF3.2675833638506617
asS'accel_x'
p10
F0
sS'accel_y'
p11
F0
sS'maxAccel'
p12
I2
sS'maxVel'
p13
F0.5
sS'age'
p14
I0
sS'radius'
p15
I2
sS'gener'
p16
S'm'
sS'lastScale'
p17
F4.9999999999999956
sS'energy'
p18
F1
sb.(i__main__
Data_mobile
p1
(dp2
S'vel_y'
p3
F-0.48845792501125013
sS'vel_x'
p4
F0.10681224411884624
sS'pos_x'
p5
F-171.86561252399235
sS'pos_y'
p6
F66.048807819819942
sS'isAlive'
p7
I01
sS'geno'
p8
(lp9
F0.38488362201253334
aF-1.954858511158156
aF-4.1653632727227956
aF4.7876776572727131
aF0.68492273325884323
aF-2.7638205520946366
asS'accel_x'
p10
F-1.97450645984271
sS'accel_y'
p11
F0.31831468712487671
sS'maxAccel'
p12
I2
sS'maxVel'
p13
F0.5
sS'age'
p14
I150
sS'radius'
p15
I2
sS'gener'
p16
S'm'
sS'lastScale'
p17
F14.500000000000004
sS'energy'
p18
F1.4000000000000004
sb.(i__main__
Data_mobile
p1
(dp2
S'vel_y'
p3
F0.30356205598693931
sS'vel_x'
p4
F-0.39730350887574895
sS'pos_x'
p5
F-128.82886482738641
sS'pos_y'
p6
F-10.606941176959909
sS'isAlive'
p7
I01
sS'geno'
p8
(lp9
F-0.039389090606090638
aF-1.5266697737832846
aF-4.1653632727227956
aF4.5344671314771334
aF0.79594630547905953
aF3.2675833638506617
asS'accel_x'
p10
F-1.5886709345173955
sS'accel_y'
p11
F-1.2149587078660844
sS'maxAccel'
p12
I2
sS'maxVel'
p13
F0.5
sS'age'
p14
I50
sS'radius'
p15
I2
sS'gener'
p16
S'm'
sS'lastScale'
p17
F13.000000000000002
sS'energy'
p18
F1.2500000000000002
sb.(i__main__
Data_mobile
p1
(dp2
S'vel_y'
p3
F-0.46336339206223542
sS'vel_x'
p4
F-0.1878679506903162
sS'pos_x'
p5
F174.7208224537822
sS'pos_y'
p6
F70.106323200602617
sS'isAlive'
p7
I01
sS'geno'
p8
(lp9
F-0.037314502308040787
aF-1.5266697737832846
aF-3.9931461519608655
aF4.7374171391059665
aF-0.15291496651288961
aF3.4765576312883919
asS'accel_x'
p10
F-1.337326382907414
sS'accel_y'
p11
F-1.4871308434632686
sS'maxAccel'
p12
I2
sS'maxVel'
p13
F0.5
sS'age'
p14
I629
sS'radius'
p15
I2
sS'gener'
p16
S'm'
sS'lastScale'
p17
F12.600000000000001
sS'energy'
p18
F1.2100000000000002
sb.(i__main__
Data_mobile
p1
(dp2
S'vel_y'
p3
F0.49800054217090389
sS'vel_x'
p4
F0.04467057194043729
sS'pos_x'
p5
F174.04479569473622
sS'pos_y'
p6
F66.490319565947999
sS'isAlive'
p7
I01
sS'geno'
p8
(lp9
F-0.037314502308040787
aF-1.5266697737832846
aF-4.1653632727227956
aF4.7320391676829523
aF0.3199328896011
aF3.2675833638506617
asS'accel_x'
p10
F0.26375444822187194
sS'accel_y'
p11
F1.9825321160180926
sS'maxAccel'
p12
I2
sS'maxVel'
p13
F0.5
sS'age'
p14
I350
sS'radius'
p15
I2
sS'gener'
p16
S'm'
sS'lastScale'
p17
F6.4999999999999964
sS'energy'
p18
F0.59999999999999964
sb.(i__main__
Data_mobile
p1
(dp2
S'vel_y'
p3
F0.38174457254083349
sS'vel_x'
p4
F-0.0021427441119408986
sS'pos_x'
p5
F-170.87387904993079
sS'pos_y'
p6
F-35.012093134804203
sS'isAlive'
p7
I01
sS'geno'
p8
(lp9
F-0.055907183197582144
aF-1.5266697737832846
aF-0.21301629094513319
aF4.7876776572727131
aF0.79594630547905953
aF3.2675833638506617
asS'accel_x'
p10
F0
sS'accel_y'
p11
F0
sS'maxAccel'
p12
I2
sS'maxVel'
p13
F0.5
sS'age'
p14
I0
sS'radius'
p15
I2
sS'gener'
p16
S'm'
sS'lastScale'
p17
F4.1999999999999957
sS'energy'
p18
F1
sb.(i__main__
Data_mobile
p1
(dp2
S'vel_y'
p3
F-0.0087758846888046776
sS'vel_x'
p4
F0.29981109029909103
sS'pos_x'
p5
F-163.81951110387419
sS'pos_y'
p6
F-12.01129515975015
sS'isAlive'
p7
I01
sS'geno'
p8
(lp9
F1.5620193373150286
aF-0.12244834053052323
aF-3.9931461519608655
aF4.7374171391059665
aF0.79594630547905953
aF-2.9941242768656862
asS'accel_x'
p10
F0
sS'accel_y'
p11
F0
sS'maxAccel'
p12
I2
sS'maxVel'
p13
F0.5
sS'age'
p14
I0
sS'radius'
p15
I2
sS'gener'
p16
S'm'
sS'lastScale'
p17
F5.1999999999999957
sS'energy'
p18
F1
sb.(i__main__
Data_mobile
p1
(dp2
S'vel_y'
p3
F0.43668352332711091
sS'vel_x'
p4
F0.082350185419294814
sS'pos_x'
p5
F-158.93886881398518
sS'pos_y'
p6
F65.88177514923774
sS'isAlive'
p7
I01
sS'geno'
p8
(lp9
F-0.037314502308040787
aF-1.5266697737832846
aF-3.9931461519608655
aF4.7374171391059665
aF-0.15291496651288961
aF2.8250325937684355
asS'accel_x'
p10
F0
sS'accel_y'
p11
F0
sS'maxAccel'
p12
I2
sS'maxVel'
p13
F0.5
sS'age'
p14
I0
sS'radius'
p15
I2
sS'gener'
p16
S'm'
sS'lastScale'
p17
F5.4999999999999956
sS'energy'
p18
F1
sb.(i__main__
Data_mobile
p1
(dp2
S'vel_y'
p3
F-0.18703720327819043
sS'vel_x'
p4
F0.46369934719586658
sS'pos_x'
p5
F-158.85262815922778
sS'pos_y'
p6
F-80.050993779215517
sS'isAlive'
p7
I01
sS'geno'
p8
(lp9
F0.74652203674191109
aF-1.5266697737832846
aF-0.10927686034831108
aF4.7374171391059665
aF0.79594630547905953
aF3.2675833638506617
asS'accel_x'
p10
F1.472263453573293
sS'accel_y'
p11
F-1.3536765947863769
sS'maxAccel'
p12
I2
sS'maxVel'
p13
F0.5
sS'age'
p14
I50
sS'radius'
p15
I2
sS'gener'
p16
S'm'
sS'lastScale'
p17
F11.5
sS'energy'
p18
F1.1000000000000001
sb.(i__main__
Data_mobile
p1
(dp2
S'vel_y'
p3
F-0.21000458247756415
sS'vel_x'
p4
F-0.45375993139370957
sS'pos_x'
p5
F-109.58843775981028
sS'pos_y'
p6
F63.048400916545795
sS'isAlive'
p7
I01
sS'geno'
p8
(lp9
F0.2328569710731645
aF-1.5266697737832846
aF-0.21301629094513319
aF4.7876776572727131
aF0.79594630547905953
aF-2.8682341635274144
asS'accel_x'
p10
F-0.307311237254214
sS'accel_y'
p11
F-1.9762489224430417
sS'maxAccel'
p12
I2
sS'maxVel'
p13
F0.5
sS'age'
p14
I100
sS'radius'
p15
I2
sS'gener'
p16
S'm'
sS'lastScale'
p17
F7.4999999999999973
sS'energy'
p18
F0.69999999999999973
sb.(i__main__
Data_mobile
p1
(dp2
S'vel_y'
p3
F0.40025103375101923
sS'vel_x'
p4
F-0.29966499625622023
sS'pos_x'
p5
F-155.03678338926332
sS'pos_y'
p6
F-86.638194222064328
sS'isAlive'
p7
I01
sS'geno'
p8
(lp9
F-0.037314502308040787
aF-1.5266697737832846
aF-0.10927686034831108
aF4.7374171391059665
aF0.79594630547905953
aF3.2675833638506617
asS'accel_x'
p10
F-0.15745176392288382
sS'accel_y'
p11
F1.9937926025636601
sS'maxAccel'
p12
I2
sS'maxVel'
p13
F0.5
sS'age'
p14
I250
sS'radius'
p15
I2
sS'gener'
p16
S'm'
sS'lastScale'
p17
F14.500000000000004
sS'energy'
p18
F1.4000000000000004
sb.(i__main__
Data_mobile
p1
(dp2
S'vel_y'
p3
F-0.12070638446141899
sS'vel_x'
p4
F-0.45797887731972364
sS'pos_x'
p5
F-171.24075670497214
sS'pos_y'
p6
F6.5701882662187483
sS'isAlive'
p7
I01
sS'geno'
p8
(lp9
F1.5620193373150286
aF-1.6662503651214271
aF-0.21301629094513319
aF4.7876776572727131
aF0.79594630547905953
aF-2.9941242768656862
asS'accel_x'
p10
F0
sS'accel_y'
p11
F0
sS'maxAccel'
p12
I2
sS'maxVel'
p13
F0.5
sS'age'
p14
I0
sS'radius'
p15
I2
sS'gener'
p16
S'm'
sS'lastScale'
p17
F5.4999999999999956
sS'energy'
p18
F1
sb.(i__main__
Data_mobile
p1
(dp2
S'vel_y'
p3
F0.11872947207847893
sS'vel_x'
p4
F-0.363943580595742
sS'pos_x'
p5
F-175.17891614512183
sS'pos_y'
p6
F-9.4195070820950484
sS'isAlive'
p7
I01
sS'geno'
p8
(lp9
F0.74652203674191109
aF-0.12244834053052323
aF-3.9931461519608655
aF4.7374171391059665
aF0.79594630547905953
aF-2.9941242768656862
asS'accel_x'
p10
F0
sS'accel_y'
p11
F0
sS'maxAccel'
p12
I2
sS'maxVel'
p13
F0.5
sS'age'
p14
I0
sS'radius'
p15
I2
sS'gener'
p16
S'm'
sS'lastScale'
p17
F5.4999999999999956
sS'energy'
p18
F1
sb.(i__main__
Data_mobile
p1
(dp2
S'vel_y'
p3
F-0.49324716412901048
sS'vel_x'
p4
F-0.081897711071121801
sS'pos_x'
p5
F-159.9292055857978
sS'pos_y'
p6
F-79.058076675770465
sS'isAlive'
p7
I01
sS'geno'
p8
(lp9
F0.38488362201253334
aF-1.5266697737832846
aF-0.21301629094513319
aF4.5513928607528147
aF0.79594630547905953
aF-2.8682341635274144
asS'accel_x'
p10
F0.85711593803363051
sS'accel_y'
p11
F-1.807028574419544
sS'maxAccel'
p12
I2
sS'maxVel'
p13
F0.5
sS'age'
p14
I100
sS'radius'
p15
I2
sS'gener'
p16
S'm'
sS'lastScale'
p17
F8.4999999999999982
sS'energy'
p18
F0.79999999999999982
sb.(i__main__
Data_mobile
p1
(dp2
S'vel_y'
p3
F-0.37651290395465409
sS'vel_x'
p4
F-0.32899549108708676
sS'pos_x'
p5
F-156.77512886075186
sS'pos_y'
p6
F-78.669361670737757
sS'isAlive'
p7
I01
sS'geno'
p8
(lp9
F-0.037314502308040787
aF-1.5266697737832846
aF-0.10927686034831108
aF4.7374171391059665
aF0.57033702462412328
aF3.4765576312883919
asS'accel_x'
p10
F-0.38779047614166939
sS'accel_y'
p11
F-1.9620444813035756
sS'maxAccel'
p12
I2
sS'maxVel'
p13
F0.5
sS'age'
p14
I50
sS'radius'
p15
I2
sS'gener'
p16
S'm'
sS'lastScale'
p17
F8.9999999999999982
sS'energy'
p18
F0.84999999999999987
sb.(i__main__
Data_mobile
p1
(dp2
S'vel_y'
p3
F-0.030283158922496115
sS'vel_x'
p4
F-0.49908208772272605
sS'pos_x'
p5
F-132.69821331131752
sS'pos_y'
p6
F-13.009374225056277
sS'isAlive'
p7
I01
sS'geno'
p8
(lp9
F0.2328569710731645
aF-1.5266697737832846
aF-0.21301629094513319
aF4.7876776572727131
aF0.79594630547905953
aF-2.8682341635274144
asS'accel_x'
p10
F-1.9154349402343929
sS'accel_y'
p11
F0.57542070672618961
sS'maxAccel'
p12
I2
sS'maxVel'
p13
F0.5
sS'age'
p14
I50
sS'radius'
p15
I2
sS'gener'
p16
S'm'
sS'lastScale'
p17
F13.500000000000004
sS'energy'
p18
F1.3000000000000003
sb.(i__main__
Data_mobile
p1
(dp2
S'vel_y'
p3
F0.16131411291140427
sS'vel_x'
p4
F-0.064894706023862186
sS'pos_x'
p5
F-156.22411811827399
sS'pos_y'
p6
F-84.710143084968209
sS'isAlive'
p7
I01
sS'geno'
p8
(lp9
F-0.037314502308040787
aF-1.5266697737832846
aF-0.21301629094513319
aF4.3940591016553059
aF0.79594630547905953
aF3.2675833638506617
asS'accel_x'
p10
F0
sS'accel_y'
p11
F0
sS'maxAccel'
p12
I2
sS'maxVel'
p13
F0.5
sS'age'
p14
I0
sS'radius'
p15
I2
sS'gener'
p16
S'm'
sS'lastScale'
p17
F5.2999999999999963
sS'energy'
p18
F1
sb.(i__main__
Data_mobile
p1
(dp2
S'vel_y'
p3
F0.47841894948169272
sS'vel_x'
p4
F-0.14531107589180378
sS'pos_x'
p5
F-144.0170987264774
sS'pos_y'
p6
F-90.499511035805128
sS'isAlive'
p7
I01
sS'geno'
p8
(lp9
F-0.055907183197582144
aF-1.5266697737832846
aF-4.6038603597409882
aF5.0110049172276785
aF0.79594630547905953
aF-2.9941242768656862
asS'accel_x'
p10
F0.47899039434599056
sS'accel_y'
p11
F1.9417950978731697
sS'maxAccel'
p12
I2
sS'maxVel'
p13
F0.5
sS'age'
p14
I100
sS'radius'
p15
I2
sS'gener'
p16
S'm'
sS'lastScale'
p17
F9.5
sS'energy'
p18
F0.89999999999999991
sb.(i__main__
Data_mobile
p1
(dp2
S'vel_y'
p3
F-0.45122845326677763
sS'vel_x'
p4
F-0.1096956953768992
sS'pos_x'
p5
F-157.09531740830556
sS'pos_y'
p6
F-80.052256154906033
sS'isAlive'
p7
I01
sS'geno'
p8
(lp9
F-0.037314502308040787
aF-1.5266697737832846
aF-4.2108964698652525
aF4.7320391676829523
aF0.79594630547905953
aF-2.9941242768656862
asS'accel_x'
p10
F0
sS'accel_y'
p11
F0
sS'maxAccel'
p12
I2
sS'maxVel'
p13
F0.5
sS'age'
p14
I0
sS'radius'
p15
I2
sS'gener'
p16
S'm'
sS'lastScale'
p17
F5.2999999999999963
sS'energy'
p18
F1
sb.(i__main__
Data_mobile
p1
(dp2
S'vel_y'
p3
F-0.042402634021744455
sS'vel_x'
p4
F-0.49819877220645375
sS'pos_x'
p5
F-175.9712639045207
sS'pos_y'
p6
F-12.516427257362691
sS'isAlive'
p7
I01
sS'geno'
p8
(lp9
F-0.037314502308040787
aF-1.954858511158156
aF-4.1653632727227956
aF4.7876776572727131
aF0.68492273325884323
aF-2.7638205520946366
asS'accel_x'
p10
F-1.0784471305283414
sS'accel_y'
p11
F-1.6843253209089943
sS'maxAccel'
p12
I2
sS'maxVel'
p13
F0.5
sS'age'
p14
I100
sS'radius'
p15
I2
sS'gener'
p16
S'm'
sS'lastScale'
p17
F14.500000000000004
sS'energy'
p18
F1.4000000000000004
sb.(i__main__
Data_mobile
p1
(dp2
S'vel_y'
p3
F0.10764523591483305
sS'vel_x'
p4
F-0.41614554163554718
sS'pos_x'
p5
F-110.02875247397398
sS'pos_y'
p6
F58.28703413636034
sS'isAlive'
p7
I01
sS'geno'
p8
(lp9
F-0.055907183197582144
aF-1.5266697737832846
aF-4.1653632727227956
aF4.7876776572727131
aF0.68492273325884323
aF-2.7638205520946366
asS'accel_x'
p10
F0
sS'accel_y'
p11
F0
sS'maxAccel'
p12
I2
sS'maxVel'
p13
F0.5
sS'age'
p14
I0
sS'radius'
p15
I2
sS'gener'
p16
S'm'
sS'lastScale'
p17
F5.4999999999999956
sS'energy'
p18
F1
sb.(i__main__
Data_mobile
p1
(dp2
S'vel_y'
p3
F-0.13864906995295739
sS'vel_x'
p4
F-0.11568663679681072
sS'pos_x'
p5
F-138.79413688960852
sS'pos_y'
p6
F37.648627034734844
sS'isAlive'
p7
I01
sS'geno'
p8
(lp9
F-0.037314502308040787
aF-1.5266697737832846
aF-0.21301629094513319
aF4.3940591016553059
aF0.79594630547905953
aF-2.9941242768656862
asS'accel_x'
p10
F0
sS'accel_y'
p11
F0
sS'maxAccel'
p12
I2
sS'maxVel'
p13
F0.5
sS'age'
p14
I0
sS'radius'
p15
I2
sS'gener'
p16
S'm'
sS'lastScale'
p17
F5.3999999999999959
sS'energy'
p18
F1
sb.(i__main__
Data_mobile
p1
(dp2
S'vel_y'
p3
F-0.24697061917972557
sS'vel_x'
p4
F-0.43474764319313214
sS'pos_x'
p5
F-108.72043353045193
sS'pos_y'
p6
F65.426277732530394
sS'isAlive'
p7
I01
sS'geno'
p8
(lp9
F-0.32855082390803947
aF-1.5266697737832846
aF-4.1653632727227956
aF4.7876776572727131
aF-0.15291496651288961
aF3.4765576312883919
asS'accel_x'
p10
F1.708499468336931
sS'accel_y'
p11
F1.0397257170486958
sS'maxAccel'
p12
I2
sS'maxVel'
p13
F0.5
sS'age'
p14
I50
sS'radius'
p15
I2
sS'gener'
p16
S'm'
sS'lastScale'
p17
F6.9999999999999964
sS'energy'
p18
F0.64999999999999969
sb.(i__main__
Data_mobile
p1
(dp2
S'vel_y'
p3
F0.49531837528626838
sS'vel_x'
p4
F0.06826204731599704
sS'pos_x'
p5
F-158.03102501314618
sS'pos_y'
p6
F-78.918176579979146
sS'isAlive'
p7
I01
sS'geno'
p8
(lp9
F-0.037314502308040787
aF-1.5266697737832846
aF-0.10927686034831108
aF4.7876776572727131
aF0.79594630547905953
aF-2.8682341635274144
asS'accel_x'
p10
F-1.5814601786595335
sS'accel_y'
p11
F-1.2243298997060212
sS'maxAccel'
p12
I2
sS'maxVel'
p13
F0.5
sS'age'
p14
I50
sS'radius'
p15
I2
sS'gener'
p16
S'm'
sS'lastScale'
p17
F11
sS'energy'
p18
F1.05
sb.(i__main__
Data_mobile
p1
(dp2
S'vel_y'
p3
F0.07713700361875149
sS'vel_x'
p4
F-0.49401405108834778
sS'pos_x'
p5
F-111.01422169845719
sS'pos_y'
p6
F64.497875172605717
sS'isAlive'
p7
I01
sS'geno'
p8
(lp9
F-0.037314502308040787
aF-1.5266697737832846
aF-4.6631155503836368
aF4.7320391676829523
aF0.79594630547905953
aF-2.9941242768656862
asS'accel_x'
p10
F1.9046926870024379
sS'accel_y'
p11
F-0.61003751366570369
sS'maxAccel'
p12
I2
sS'maxVel'
p13
F0.5
sS'age'
p14
I50
sS'radius'
p15
I2
sS'gener'
p16
S'm'
sS'lastScale'
p17
F5.9999999999999964
sS'energy'
p18
F0.5499999999999996
sb.(i__main__
Data_mobile
p1
(dp2
S'vel_y'
p3
F-0.19700010367436688
sS'vel_x'
p4
F0.45955517530791529
sS'pos_x'
p5
F-157.46747044567309
sS'pos_y'
p6
F-80.188835364753729
sS'isAlive'
p7
I01
sS'geno'
p8
(lp9
F-0.037314502308040787
aF-1.5266697737832846
aF-0.21301629094513319
aF4.3940591016553059
aF0.79594630547905953
aF-2.9941242768656862
asS'accel_x'
p10
F1.0454817044777678
sS'accel_y'
p11
F-1.7049832860184468
sS'maxAccel'
p12
I2
sS'maxVel'
p13
F0.5
sS'age'
p14
I50
sS'radius'
p15
I2
sS'gener'
p16
S'm'
sS'lastScale'
p17
F8.4999999999999982
sS'energy'
p18
F0.79999999999999982
sb.(i__main__
Data_mobile
p1
(dp2
S'vel_y'
p3
F0.41616184334797568
sS'vel_x'
p4
F-0.25844421890517211
sS'pos_x'
p5
F-143.84557276566704
sS'pos_y'
p6
F-26.004299424938495
sS'isAlive'
p7
I01
sS'geno'
p8
(lp9
F0.15123384388958239
aF-1.5266697737832846
aF-0.10927686034831108
aF4.3940591016553059
aF1.071066145520603
aF-3.0605886936226216
asS'accel_x'
p10
F0
sS'accel_y'
p11
F0
sS'maxAccel'
p12
I2
sS'maxVel'
p13
F0.5
sS'age'
p14
I0
sS'radius'
p15
I2
sS'gener'
p16
S'm'
sS'lastScale'
p17
F5.4999999999999956
sS'energy'
p18
F1
sb.(i__main__
Data_mobile
p1
(dp2
S'vel_y'
p3
F-0.20485704609486388
sS'vel_x'
p4
F-0.2060327546212633
sS'pos_x'
p5
F-172.68789082924926
sS'pos_y'
p6
F2.5948351110787069
sS'isAlive'
p7
I01
sS'geno'
p8
(lp9
F-0.037314502308040787
aF-1.5266697737832846
aF-4.1653632727227956
aF4.7876776572727131
aF0.79594630547905953
aF-2.9941242768656862
asS'accel_x'
p10
F0
sS'accel_y'
p11
F0
sS'maxAccel'
p12
I2
sS'maxVel'
p13
F0.5
sS'age'
p14
I0
sS'radius'
p15
I2
sS'gener'
p16
S'm'
sS'lastScale'
p17
F5.4999999999999956
sS'energy'
p18
F1
sb.(i__main__
Data_mobile
p1
(dp2
S'vel_y'
p3
F0.25308444492310467
sS'vel_x'
p4
F0.43121718859289926
sS'pos_x'
p5
F-107.92397873480621
sS'pos_y'
p6
F64.770430212327881
sS'isAlive'
p7
I01
sS'geno'
p8
(lp9
F0.27887700152121908
aF-1.5266697737832846
aF-3.9931461519608655
aF4.3940591016553059
aF0.79594630547905953
aF-2.9941242768656862
asS'accel_x'
p10
F-0.44401238751903788
sS'accel_y'
p11
F-1.9500905106506321
sS'maxAccel'
p12
I2
sS'maxVel'
p13
F0.5
sS'age'
p14
I100
sS'radius'
p15
I2
sS'gener'
p16
S'm'
sS'lastScale'
p17
F7.4999999999999973
sS'energy'
p18
F0.69999999999999973
sb.(i__main__
Data_mobile
p1
(dp2
S'vel_y'
p3
F-0.4984213820699756
sS'vel_x'
p4
F0.039700452081247027
sS'pos_x'
p5
F-158.05619044127604
sS'pos_y'
p6
F-80.342731349034494
sS'isAlive'
p7
I01
sS'geno'
p8
(lp9
F-0.037314502308040787
aF-1.5266697737832846
aF-0.10927686034831108
aF4.7374171391059665
aF0.79594630547905953
aF3.2675833638506617
asS'accel_x'
p10
F0.95244551246646258
sS'accel_y'
p11
F-1.758649352708634
sS'maxAccel'
p12
I2
sS'maxVel'
p13
F0.5
sS'age'
p14
I100
sS'radius'
p15
I2
sS'gener'
p16
S'm'
sS'lastScale'
p17
F8.9999999999999982
sS'energy'
p18
F0.84999999999999987
sb.(i__main__
Data_mobile
p1
(dp2
S'vel_y'
p3
F-0.15388064513210153
sS'vel_x'
p4
F-0.47573180160015388
sS'pos_x'
p5
F-139.3163472418301
sS'pos_y'
p6
F77.59621423920494
sS'isAlive'
p7
I01
sS'geno'
p8
(lp9
F-0.037314502308040787
aF-1.5266697737832846
aF-3.9931461519608655
aF4.7320391676829523
aF-0.0017243986584334348
aF3.2675833638506617
asS'accel_x'
p10
F-1.8983930879576731
sS'accel_y'
p11
F-0.62936768553408384
sS'maxAccel'
p12
I2
sS'maxVel'
p13
F0.5
sS'age'
p14
I100
sS'radius'
p15
I2
sS'gener'
p16
S'm'
sS'lastScale'
p17
F11.5
sS'energy'
p18
F1.1000000000000001
sb.(i__main__
Data_mobile
p1
(dp2
S'vel_y'
p3
F-0.49432070738081452
sS'vel_x'
p4
F0.075146778071525852
sS'pos_x'
p5
F-158.27499821157889
sS'pos_y'
p6
F-80.811814701157289
sS'isAlive'
p7
I01
sS'geno'
p8
(lp9
F-0.037314502308040787
aF-1.5266697737832846
aF-0.10927686034831108
aF4.7876776572727131
aF-0.15291496651288961
aF3.3178786921911376
asS'accel_x'
p10
F0.8820401317253197
sS'accel_y'
p11
F-1.7949944863497438
sS'maxAccel'
p12
I2
sS'maxVel'
p13
F0.5
sS'age'
p14
I50
sS'radius'
p15
I2
sS'gener'
p16
S'm'
sS'lastScale'
p17
F8.4999999999999982
sS'energy'
p18
F0.79999999999999982
sb.(i__main__
Data_mobile
p1
(dp2
S'vel_y'
p3
F-0.11785150169795176
sS'vel_x'
p4
F-0.48591256780159298
sS'pos_x'
p5
F-159.67217012404419
sS'pos_y'
p6
F69.994277710943763
sS'isAlive'
p7
I01
sS'geno'
p8
(lp9
F-0.037314502308040787
aF-1.5266697737832846
aF-3.9931461519608655
aF4.7374171391059665
aF0.79594630547905953
aF-2.9941242768656862
asS'accel_x'
p10
F-1.9439736231913827
sS'accel_y'
p11
F-0.47007079502577853
sS'maxAccel'
p12
I2
sS'maxVel'
p13
F0.5
sS'age'
p14
I50
sS'radius'
p15
I2
sS'gener'
p16
S'm'
sS'lastScale'
p17
F8.9999999999999982
sS'energy'
p18
F0.84999999999999987
sb.(i__main__
Data_mobile
p1
(dp2
S'vel_y'
p3
F-0.46424215489387077
sS'vel_x'
p4
F-0.16611828347648483
sS'pos_x'
p5
F42.074963795053563
sS'pos_y'
p6
F5.4955387848204218
sS'isAlive'
p7
I01
sS'geno'
p8
(lp9
F-0.037314502308040787
aF-1.5266697737832846
aF-3.9931461519608655
aF4.7374171391059665
aF0.79594630547905953
aF-2.9941242768656862
asS'accel_x'
p10
F0
sS'accel_y'
p11
F0
sS'maxAccel'
p12
I2
sS'maxVel'
p13
F0.5
sS'age'
p14
I0
sS'radius'
p15
I2
sS'gener'
p16
S'm'
sS'lastScale'
p17
F5.4999999999999956
sS'energy'
p18
F1
sb.(i__main__
Data_mobile
p1
(dp2
S'vel_y'
p3
F0.43980664682527093
sS'vel_x'
p4
F-0.23784472541620799
sS'pos_x'
p5
F-175.71029291916625
sS'pos_y'
p6
F-11.577000414009746
sS'isAlive'
p7
I01
sS'geno'
p8
(lp9
F1.5620193373150286
aF-0.12244834053052323
aF-3.9931461519608655
aF4.7374171391059665
aF0.79594630547905953
aF-2.9941242768656862
asS'accel_x'
p10
F-1.8926571213435808
sS'accel_y'
p11
F0.64641242332386439
sS'maxAccel'
p12
I2
sS'maxVel'
p13
F0.5
sS'age'
p14
I150
sS'radius'
p15
I2
sS'gener'
p16
S'm'
sS'lastScale'
p17
F14.500000000000004
sS'energy'
p18
F1.4000000000000004
sb.(i__main__
Data_mobile
p1
(dp2
S'vel_y'
p3
F0.026663531731751428
sS'vel_x'
p4
F-0.17296733435680128
sS'pos_x'
p5
F-140.97200853603744
sS'pos_y'
p6
F-20.49274072109273
sS'isAlive'
p7
I01
sS'geno'
p8
(lp9
F-0.037314502308040787
aF-0.12244834053052323
aF-3.9430079638951616
aF4.7320391676829523
aF0.3199328896011
aF3.2675833638506617
asS'accel_x'
p10
F0
sS'accel_y'
p11
F0
sS'maxAccel'
p12
I2
sS'maxVel'
p13
F0.5
sS'age'
p14
I0
sS'radius'
p15
I2
sS'gener'
p16
S'm'
sS'lastScale'
p17
F5.4999999999999956
sS'energy'
p18
F1
sb.(i__main__
Data_mobile
p1
(dp2
S'vel_y'
p3
F0.019201501980105035
sS'vel_x'
p4
F0.26627834304679865
sS'pos_x'
p5
F-140.75284771837144
sS'pos_y'
p6
F-12.853773885346072
sS'isAlive'
p7
I01
sS'geno'
p8
(lp9
F-0.037314502308040787
aF-1.5266697737832846
aF-4.6259177605272894
aF4.7320391676829523
aF0.21405321224641316
aF-2.9941242768656862
asS'accel_x'
p10
F0
sS'accel_y'
p11
F0
sS'maxAccel'
p12
I2
sS'maxVel'
p13
F0.5
sS'age'
p14
I0
sS'radius'
p15
I2
sS'gener'
p16
S'm'
sS'lastScale'
p17
F5.1999999999999957
sS'energy'
p18
F1
sb.(i__main__
Data_mobile
p1
(dp2
S'vel_y'
p3
F0.15175272094724318
sS'vel_x'
p4
F0.47641485250263571
sS'pos_x'
p5
F-74.691324856627332
sS'pos_y'
p6
F-90.953625412030618
sS'isAlive'
p7
I01
sS'geno'
p8
(lp9
F0.38488362201253334
aF-1.5266697737832846
aF-3.9931461519608655
aF4.988932533554296
aF0.79594630547905953
aF-2.9941242768656862
asS'accel_x'
p10
F1.6450658087342305
sS'accel_y'
p11
F-1.1374350464679692
sS'maxAccel'
p12
I2
sS'maxVel'
p13
F0.5
sS'age'
p14
I350
sS'radius'
p15
I2
sS'gener'
p16
S'm'
sS'lastScale'
p17
F6.9999999999999964
sS'energy'
p18
F0.59999999999999964
sb.(i__main__
Data_mobile
p1
(dp2
S'vel_y'
p3
F-0.21947346327360401
sS'vel_x'
p4
F-0.33837123933483687
sS'pos_x'
p5
F-168.83094709695723
sS'pos_y'
p6
F60.885084959367319
sS'isAlive'
p7
I01
sS'geno'
p8
(lp9
F-0.037314502308040787
aF-1.5266697737832846
aF-4.1653632727227956
aF4.7876776572727131
aF0.84774427484948711
aF3.2675833638506617
asS'accel_x'
p10
F0
sS'accel_y'
p11
F0
sS'maxAccel'
p12
I2
sS'maxVel'
p13
F0.5
sS'age'
p14
I0
sS'radius'
p15
I2
sS'gener'
p16
S'm'
sS'lastScale'
p17
F5.0999999999999961
sS'energy'
p18
F1
sb.(i__main__
Data_mobile
p1
(dp2
S'vel_y'
p3
F0.40645967921169218
sS'vel_x'
p4
F0.29118813364408974
sS'pos_x'
p5
F-153.69973028603366
sS'pos_y'
p6
F-83.494771260251781
sS'isAlive'
p7
I01
sS'geno'
p8
(lp9
F-0.037314502308040787
aF-1.5266697737832846
aF-0.21301629094513319
aF5.0110049172276785
aF0.79594630547905953
aF-3.1856437612467827
asS'accel_x'
p10
F-0.29440733323411361
sS'accel_y'
p11
F-1.9782124057183488
sS'maxAccel'
p12
I2
sS'maxVel'
p13
F0.5
sS'age'
p14
I50
sS'radius'
p15
I2
sS'gener'
p16
S'm'
sS'lastScale'
p17
F10.5
sS'energy'
p18
F1
sb.(i__main__
Data_mobile
p1
(dp2
S'vel_y'
p3
F-0.48289480492126519
sS'vel_x'
p4
F0.12966343887176998
sS'pos_x'
p5
F-151.84300126508455
sS'pos_y'
p6
F68.463409546831841
sS'isAlive'
p7
I01
sS'geno'
p8
(lp9
F-0.037314502308040787
aF-1.1483068257252507
aF-3.9931461519608655
aF4.7876776572727131
aF0.79594630547905953
aF3.2675833638506617
asS'accel_x'
p10
F0.88310788822811381
sS'accel_y'
p11
F1.7944694084183441
sS'maxAccel'
p12
I2
sS'maxVel'
p13
F0.5
sS'age'
p14
I50
sS'radius'
p15
I2
sS'gener'
p16
S'm'
sS'lastScale'
p17
F10.5
sS'energy'
p18
F1
sb.(i__main__
Data_mobile
p1
(dp2
S'vel_y'
p3
F-0.48966886683110761
sS'vel_x'
p4
F-0.10111577946264878
sS'pos_x'
p5
F193.51695757163293
sS'pos_y'
p6
F-34.680827960432907
sS'isAlive'
p7
I01
sS'geno'
p8
(lp9
F-0.037314502308040787
aF-1.5266697737832846
aF-3.9931461519608655
aF4.7374171391059665
aF-0.15291496651288961
aF3.4765576312883919
asS'accel_x'
p10
F-0.47706999722594579
sS'accel_y'
p11
F1.9422678027879769
sS'maxAccel'
p12
I2
sS'maxVel'
p13
F0.5
sS'age'
p14
I50
sS'radius'
p15
I2
sS'gener'
p16
S'm'
sS'lastScale'
p17
F14.500000000000004
sS'energy'
p18
F1.4000000000000004
sb.(i__main__
Data_mobile
p1
(dp2
S'vel_y'
p3
F0.47706863192011822
sS'vel_x'
p4
F-0.14968473682332034
sS'pos_x'
p5
F-178.95230250460628
sS'pos_y'
p6
F-14.929867143208797
sS'isAlive'
p7
I01
sS'geno'
p8
(lp9
F-0.037314502308040787
aF-1.5266697737832846
aF-4.1653632727227956
aF4.7876776572727131
aF0.79594630547905953
aF-2.858710184545437
asS'accel_x'
p10
F-1.0391466067675854
sS'accel_y'
p11
F1.708851757655828
sS'maxAccel'
p12
I2
sS'maxVel'
p13
F0.5
sS'age'
p14
I50
sS'radius'
p15
I2
sS'gener'
p16
S'm'
sS'lastScale'
p17
F12.000000000000002
sS'energy'
p18
F1.1500000000000001
sb.(i__main__
Data_mobile
p1
(dp2
S'vel_y'
p3
F0.21101492738655447
sS'vel_x'
p4
F-0.45329096662083079
sS'pos_x'
p5
F-154.85478621736294
sS'pos_y'
p6
F-84.830600417002742
sS'isAlive'
p7
I01
sS'geno'
p8
(lp9
F0.38488362201253334
aF-1.5266697737832846
aF-0.21301629094513319
aF4.3940591016553059
aF0.79594630547905953
aF-2.9941242768656862
asS'accel_x'
p10
F-1.5849157551413544
sS'accel_y'
p11
F-1.2198532899921652
sS'maxAccel'
p12
I2
sS'maxVel'
p13
F0.5
sS'age'
p14
I100
sS'radius'
p15
I2
sS'gener'
p16
S'm'
sS'lastScale'
p17
F13.500000000000004
sS'energy'
p18
F1.3000000000000003
sb.(i__main__
Data_mobile
p1
(dp2
S'vel_y'
p3
F-0.1070813749839471
sS'vel_x'
p4
F-0.48839899583388502
sS'pos_x'
p5
F-158.07001598618444
sS'pos_y'
p6
F-81.583050938500861
sS'isAlive'
p7
I01
sS'geno'
p8
(lp9
F-0.037314502308040787
aF-1.5266697737832846
aF-0.21301629094513319
aF4.9733067140780127
aF0.79594630547905953
aF-2.8682341635274144
asS'accel_x'
p10
F-1.764168801535922
sS'accel_y'
p11
F0.94218280587543568
sS'maxAccel'
p12
I2
sS'maxVel'
p13
F0.5
sS'age'
p14
I100
sS'radius'
p15
I2
sS'gener'
p16
S'm'
sS'lastScale'
p17
F6.9999999999999964
sS'energy'
p18
F0.64999999999999969
sb.(i__main__
Data_mobile
p1
(dp2
S'vel_y'
p3
F0.40507164190333561
sS'vel_x'
p4
F-0.29311595815604424
sS'pos_x'
p5
F-156.42425312733801
sS'pos_y'
p6
F-86.846802420806512
sS'isAlive'
p7
I01
sS'geno'
p8
(lp9
F0.38488362201253334
aF-1.5266697737832846
aF-0.21301629094513319
aF4.3940591016553059
aF0.79594630547905953
aF-2.9941242768656862
asS'accel_x'
p10
F1.0002478566634754
sS'accel_y'
p11
F1.7319076838100016
sS'maxAccel'
p12
I2
sS'maxVel'
p13
F0.5
sS'age'
p14
I350
sS'radius'
p15
I2
sS'gener'
p16
S'm'
sS'lastScale'
p17
F12.500000000000002
sS'energy'
p18
F1.2000000000000002
sb.(i__main__
Data_mobile
p1
(dp2
S'vel_y'
p3
F0.41073886174547986
sS'vel_x'
p4
F0.28512030347210898
sS'pos_x'
p5
F-174.55689596619484
sS'pos_y'
p6
F67.214038105769674
sS'isAlive'
p7
I01
sS'geno'
p8
(lp9
F-0.037314502308040787
aF-1.5266697737832846
aF-0.21301629094513319
aF4.3940591016553059
aF0.68492273325884323
aF-2.9941242768656862
asS'accel_x'
p10
F1.1149461804248304
sS'accel_y'
p11
F1.6603900188678808
sS'maxAccel'
p12
I2
sS'maxVel'
p13
F0.5
sS'age'
p14
I50
sS'radius'
p15
I2
sS'gener'
p16
S'm'
sS'lastScale'
p17
F14.500000000000004
sS'energy'
p18
F1.4000000000000004
sb.(i__main__
Data_mobile
p1
(dp2
S'vel_y'
p3
F0.23979804090957091
sS'vel_x'
p4
F-0.43874468609423839
sS'pos_x'
p5
F177.11794295346627
sS'pos_y'
p6
F80.161451346832521
sS'isAlive'
p7
I01
sS'geno'
p8
(lp9
F-0.037314502308040787
aF-1.5266697737832846
aF-0.21301629094513319
aF4.3940591016553059
aF0.79594630547905953
aF-2.9941242768656862
asS'accel_x'
p10
F-1.8563619761181915
sS'accel_y'
p11
F-0.74425816328916616
sS'maxAccel'
p12
I2
sS'maxVel'
p13
F0.5
sS'age'
p14
I50
sS'radius'
p15
I2
sS'gener'
p16
S'm'
sS'lastScale'
p17
F7.9999999999999982
sS'energy'
p18
F0.74999999999999978
sb.(i__main__
Data_mobile
p1
(dp2
S'vel_y'
p3
F0.40177566381915331
sS'vel_x'
p4
F-0.29761773462392771
sS'pos_x'
p5
F-173.4489369758119
sS'pos_y'
p6
F64.618852159513352
sS'isAlive'
p7
I01
sS'geno'
p8
(lp9
F-0.037314502308040787
aF-1.5266697737832846
aF-3.9931461519608655
aF4.7374171391059665
aF-0.15291496651288961
aF3.2675833638506617
asS'accel_x'
p10
F-1.6887459239150919
sS'accel_y'
p11
F1.0715116445751591
sS'maxAccel'
p12
I2
sS'maxVel'
p13
F0.5
sS'age'
p14
I150
sS'radius'
p15
I2
sS'gener'
p16
S'm'
sS'lastScale'
p17
F13.500000000000004
sS'energy'
p18
F1.3000000000000003
sb.(i__main__
Data_mobile
p1
(dp2
S'vel_y'
p3
F0.44548899311218393
sS'vel_x'
p4
F-0.22702325214808403
sS'pos_x'
p5
F-174.22997569176209
sS'pos_y'
p6
F64.207036577156629
sS'isAlive'
p7
I01
sS'geno'
p8
(lp9
F-0.037314502308040787
aF-1.5266697737832846
aF-3.9931461519608655
aF4.7374171391059665
aF0.79594630547905953
aF-2.9941242768656862
asS'accel_x'
p10
F-0.23338953813519614
sS'accel_y'
p11
F1.9863356522725559
sS'maxAccel'
p12
I2
sS'maxVel'
p13
F0.5
sS'age'
p14
I100
sS'radius'
p15
I2
sS'gener'
p16
S'm'
sS'lastScale'
p17
F14.500000000000004
sS'energy'
p18
F1.4000000000000004
sb.(i__main__
Data_mobile
p1
(dp2
S'vel_y'
p3
F-0.10177609599141334
sS'vel_x'
p4
F-0.095141845425554705
sS'pos_x'
p5
F-172.54663050592899
sS'pos_y'
p6
F36.075582601576514
sS'isAlive'
p7
I01
sS'geno'
p8
(lp9
F-0.037314502308040787
aF-1.5266697737832846
aF-3.9931461519608655
aF4.7374171391059665
aF0.68492273325884323
aF-2.9941242768656862
asS'accel_x'
p10
F0
sS'accel_y'
p11
F0
sS'maxAccel'
p12
I2
sS'maxVel'
p13
F0.5
sS'age'
p14
I0
sS'radius'
p15
I2
sS'gener'
p16
S'm'
sS'lastScale'
p17
F5.4999999999999956
sS'energy'
p18
F1
sb.(i__main__
Data_mobile
p1
(dp2
S'vel_y'
p3
F0.23110273898514253
sS'vel_x'
p4
F0.44338642743499168
sS'pos_x'
p5
F-108.53679276174401
sS'pos_y'
p6
F65.544448961291565
sS'isAlive'
p7
I01
sS'geno'
p8
(lp9
F-0.22061454801240787
aF-0.12244834053052323
aF-3.9931461519608655
aF4.7876776572727131
aF0.79594630547905953
aF3.2675833638506617
asS'accel_x'
p10
F1.6577125038773957
sS'accel_y'
p11
F-1.1189232567466527
sS'maxAccel'
p12
I2
sS'maxVel'
p13
F0.5
sS'age'
p14
I100
sS'radius'
p15
I2
sS'gener'
p16
S'm'
sS'lastScale'
p17
F6.4999999999999964
sS'energy'
p18
F0.59999999999999964
sb.(i__main__
Data_mobile
p1
(dp2
S'vel_y'
p3
F-0.10748360763356551
sS'vel_x'
p4
F0.48831063278416714
sS'pos_x'
p5
F-109.62258370169241
sS'pos_y'
p6
F67.53224055584343
sS'isAlive'
p7
I01
sS'geno'
p8
(lp9
F-0.037314502308040787
aF-1.5266697737832846
aF-4.1653632727227956
aF4.7876776572727131
aF-0.15291496651288961
aF3.4765576312883919
asS'accel_x'
p10
F-0.9241973572942449
sS'accel_y'
p11
F-1.7736570256874169
sS'maxAccel'
p12
I2
sS'maxVel'
p13
F0.5
sS'age'
p14
I100
sS'radius'
p15
I2
sS'gener'
p16
S'm'
sS'lastScale'
p17
F11
sS'energy'
p18
F1.05
sb.(i__main__
Data_mobile
p1
(dp2
S'vel_y'
p3
F0.042052750563885147
sS'vel_x'
p4
F-0.45291291129971045
sS'pos_x'
p5
F-125.7756743284238
sS'pos_y'
p6
F12.457654184105802
sS'isAlive'
p7
I01
sS'geno'
p8
(lp9
F-0.037314502308040787
aF-1.5266697737832846
aF-0.10927686034831108
aF4.7374171391059665
aF0.79594630547905953
aF-2.7638205520946366
asS'accel_x'
p10
F0
sS'accel_y'
p11
F0
sS'maxAccel'
p12
I2
sS'maxVel'
p13
F0.5
sS'age'
p14
I0
sS'radius'
p15
I2
sS'gener'
p16
S'm'
sS'lastScale'
p17
F5.4999999999999956
sS'energy'
p18
F1
sb.(i__main__
Data_mobile
p1
(dp2
S'vel_y'
p3
F0.051287949834422447
sS'vel_x'
p4
F-0.44773619046522312
sS'pos_x'
p5
F-111.89040297470726
sS'pos_y'
p6
F52.868941068710996
sS'isAlive'
p7
I01
sS'geno'
p8
(lp9
F-0.055907183197582144
aF-1.5266697737832846
aF-4.1653632727227956
aF4.7876776572727131
aF0.68492273325884323
aF-2.9941242768656862
asS'accel_x'
p10
F0
sS'accel_y'
p11
F0
sS'maxAccel'
p12
I2
sS'maxVel'
p13
F0.5
sS'age'
p14
I0
sS'radius'
p15
I2
sS'gener'
p16
S'm'
sS'lastScale'
p17
F5.4999999999999956
sS'energy'
p18
F1
sb.(i__main__
Data_mobile
p1
(dp2
S'vel_y'
p3
F0.49238937270989591
sS'vel_x'
p4
F-0.086906303812526953
sS'pos_x'
p5
F-157.91530787538053
sS'pos_y'
p6
F-79.134379799362392
sS'isAlive'
p7
I01
sS'geno'
p8
(lp9
F-0.037314502308040787
aF-1.5266697737832846
aF-0.21301629094513319
aF4.7374171391059665
aF0.79594630547905953
aF-2.8682341635274144
asS'accel_x'
p10
F0.87659782368502115
sS'accel_y'
p11
F-1.7976585480871179
sS'maxAccel'
p12
I2
sS'maxVel'
p13
F0.5
sS'age'
p14
I250
sS'radius'
p15
I2
sS'gener'
p16
S'm'
sS'lastScale'
p17
F7.4999999999999973
sS'energy'
p18
F0.69999999999999973
sb.(i__main__
Data_mobile
p1
(dp2
S'vel_y'
p3
F-0.48216808529580463
sS'vel_x'
p4
F-0.13234023395089528
sS'pos_x'
p5
F-155.89567789157405
sS'pos_y'
p6
F-86.747882893685642
sS'isAlive'
p7
I01
sS'geno'
p8
(lp9
F-0.055907183197582144
aF-1.5266697737832846
aF-4.6038603597409882
aF4.1356232486203002
aF0.79594630547905953
aF-2.9941242768656862
asS'accel_x'
p10
F0.69485632611530723
sS'accel_y'
p11
F-1.8754132040853124
sS'maxAccel'
p12
I2
sS'maxVel'
p13
F0.5
sS'age'
p14
I50
sS'radius'
p15
I2
sS'gener'
p16
S'm'
sS'lastScale'
p17
F10.5
sS'energy'
p18
F1
sb.(i__main__
Data_mobile
p1
(dp2
S'vel_y'
p3
F0.46898645300378083
sS'vel_x'
p4
F-0.17335428145544177
sS'pos_x'
p5
F176.6654266085923
sS'pos_y'
p6
F63.795509669987389
sS'isAlive'
p7
I01
sS'geno'
p8
(lp9
F-0.037314502308040787
aF-1.5266697737832846
aF-3.9931461519608655
aF4.7374171391059665
aF-0.15291496651288961
aF3.4765576312883919
asS'accel_x'
p10
F-1.0376209968473722
sS'accel_y'
p11
F1.7097785432334403
sS'maxAccel'
p12
I2
sS'maxVel'
p13
F0.5
sS'age'
p14
I50
sS'radius'
p15
I2
sS'gener'
p16
S'm'
sS'lastScale'
p17
F9.5
sS'energy'
p18
F0.89999999999999991
sb.(i__main__
Data_mobile
p1
(dp2
S'vel_y'
p3
F-0.46659438801243602
sS'vel_x'
p4
F-0.17969328611637184
sS'pos_x'
p5
F-175.89298871542812
sS'pos_y'
p6
F65.585828189374851
sS'isAlive'
p7
I01
sS'geno'
p8
(lp9
F-0.039389090606090638
aF-1.5266697737832846
aF-4.1653632727227956
aF4.7876776572727131
aF0.79594630547905953
aF-2.8682341635274144
asS'accel_x'
p10
F1.9265406820708111
sS'accel_y'
p11
F0.53706703522570953
sS'maxAccel'
p12
I2
sS'maxVel'
p13
F0.5
sS'age'
p14
I300
sS'radius'
p15
I2
sS'gener'
p16
S'm'
sS'lastScale'
p17
F12.500000000000002
sS'energy'
p18
F1.2000000000000002
sb.(i__main__
Data_mobile
p1
(dp2
S'vel_y'
p3
F0.19320507227613976
sS'vel_x'
p4
F0.46116352853057624
sS'pos_x'
p5
F-156.36381575792873
sS'pos_y'
p6
F-79.76109926824995
sS'isAlive'
p7
I01
sS'geno'
p8
(lp9
F-0.037314502308040787
aF-1.5266697737832846
aF-0.10927686034831108
aF4.7876776572727131
aF0.79594630547905953
aF-2.9941242768656862
asS'accel_x'
p10
F-1.9465979130244775
sS'accel_y'
p11
F-0.45908230744469819
sS'maxAccel'
p12
I2
sS'maxVel'
p13
F0.5
sS'age'
p14
I50
sS'radius'
p15
I2
sS'gener'
p16
S'm'
sS'lastScale'
p17
F7.9999999999999982
sS'energy'
p18
F0.74999999999999978
sb.(i__main__
Data_mobile
p1
(dp2
S'vel_y'
p3
F0.33960635963509689
sS'vel_x'
p4
F-0.36697073520295492
sS'pos_x'
p5
F-147.43265114962912
sS'pos_y'
p6
F-88.237139551857098
sS'isAlive'
p7
I01
sS'geno'
p8
(lp9
F0.38488362201253334
aF-1.5266697737832846
aF-3.9931461519608655
aF4.7374171391059665
aF0.68492273325884323
aF-2.9941242768656862
asS'accel_x'
p10
F-1.7230463320749441
sS'accel_y'
p11
F1.0154365256002373
sS'maxAccel'
p12
I2
sS'maxVel'
p13
F0.5
sS'age'
p14
I250
sS'radius'
p15
I2
sS'gener'
p16
S'm'
sS'lastScale'
p17
F6.4999999999999964
sS'energy'
p18
F0.59999999999999964
sb.(i__main__
Data_mobile
p1
(dp2
S'vel_y'
p3
F-0.1975194217887743
sS'vel_x'
p4
F0.25662464346862934
sS'pos_x'
p5
F-169.73910273866002
sS'pos_y'
p6
F-38.505868445689636
sS'isAlive'
p7
I01
sS'geno'
p8
(lp9
F-0.037314502308040787
aF-1.5266697737832846
aF-3.9931461519608655
aF4.8408236999752754
aF0.79594630547905953
aF-2.8682341635274144
asS'accel_x'
p10
F0
sS'accel_y'
p11
F0
sS'maxAccel'
p12
I2
sS'maxVel'
p13
F0.5
sS'age'
p14
I0
sS'radius'
p15
I2
sS'gener'
p16
S'm'
sS'lastScale'
p17
F5.1999999999999957
sS'energy'
p18
F1
sb.(i__main__
Data_mobile
p1
(dp2
S'vel_y'
p3
F0.44456942859789056
sS'vel_x'
p4
F-0.22881875612839328
sS'pos_x'
p5
F-129.56794060337074
sS'pos_y'
p6
F-12.580073547481691
sS'isAlive'
p7
I01
sS'geno'
p8
(lp9
F-0.037314502308040787
aF-1.5266697737832846
aF-3.6717647603543826
aF4.5546363552102926
aF0.84774427484948711
aF3.2675833638506617
asS'accel_x'
p10
F-1.9540230909590255
sS'accel_y'
p11
F-0.42637279462805383
sS'maxAccel'
p12
I2
sS'maxVel'
p13
F0.5
sS'age'
p14
I50
sS'radius'
p15
I2
sS'gener'
p16
S'm'
sS'lastScale'
p17
F14.000000000000004
sS'energy'
p18
F1.3500000000000003
sb.(i__main__
Data_mobile
p1
(dp2
S'vel_y'
p3
F0.49959796236499771
sS'vel_x'
p4
F-0.020046845156840146
sS'pos_x'
p5
F-154.53990149502366
sS'pos_y'
p6
F-87.039269275886753
sS'isAlive'
p7
I01
sS'geno'
p8
(lp9
F-0.039389090606090638
aF-1.5266697737832846
aF-0.10927686034831108
aF4.7374171391059665
aF0.79594630547905953
aF-2.9941242768656862
asS'accel_x'
p10
F-0.30654829417774665
sS'accel_y'
p11
F1.9763674110186886
sS'maxAccel'
p12
I2
sS'maxVel'
p13
F0.5
sS'age'
p14
I150
sS'radius'
p15
I2
sS'gener'
p16
S'm'
sS'lastScale'
p17
F13.000000000000002
sS'energy'
p18
F1.2500000000000002
sb.(i__main__
Data_mobile
p1
(dp2
S'vel_y'
p3
F-0.043969252460775196
sS'vel_x'
p4
F-0.49806295268574297
sS'pos_x'
p5
F175.13133388498542
sS'pos_y'
p6
F69.165008416938136
sS'isAlive'
p7
I01
sS'geno'
p8
(lp9
F-0.037314502308040787
aF-1.5266697737832846
aF-3.9931461519608655
aF4.7374171391059665
aF-0.15291496651288961
aF3.4765576312883919
asS'accel_x'
p10
F-1.9999998340729739
sS'accel_y'
p11
F-0.000814682807898482
sS'maxAccel'
p12
I2
sS'maxVel'
p13
F0.5
sS'age'
p14
I50
sS'radius'
p15
I2
sS'gener'
p16
S'm'
sS'lastScale'
p17
F10
sS'energy'
p18
F0.94999999999999996
sb.(i__main__
Data_mobile
p1
(dp2
S'vel_y'
p3
F0.47749877879682051
sS'vel_x'
p4
F-0.11706741910641695
sS'pos_x'
p5
F-167.43470819640254
sS'pos_y'
p6
F21.826791517453756
sS'isAlive'
p7
I01
sS'geno'
p8
(lp9
F-0.039389090606090638
aF-1.5266697737832846
aF-3.9931461519608655
aF4.7374171391059665
aF-0.15291496651288961
aF2.8250325937684355
asS'accel_x'
p10
F0
sS'accel_y'
p11
F0
sS'maxAccel'
p12
I2
sS'maxVel'
p13
F0.5
sS'age'
p14
I0
sS'radius'
p15
I2
sS'gener'
p16
S'm'
sS'lastScale'
p17
F5.3999999999999959
sS'energy'
p18
F1
sb.(i__main__
Data_mobile
p1
(dp2
S'vel_y'
p3
F0.37370355319325499
sS'vel_x'
p4
F0.31764084475579085
sS'pos_x'
p5
F-170.55075629293839
sS'pos_y'
p6
F31.668588916141371
sS'isAlive'
p7
I01
sS'geno'
p8
(lp9
F-0.037314502308040787
aF-1.452541529125809
aF-0.21301629094513319
aF4.3940591016553059
aF0.68492273325884323
aF-2.9941242768656862
asS'accel_x'
p10
F0
sS'accel_y'
p11
F0
sS'maxAccel'
p12
I2
sS'maxVel'
p13
F0.5
sS'age'
p14
I0
sS'radius'
p15
I2
sS'gener'
p16
S'm'
sS'lastScale'
p17
F4.3999999999999968
sS'energy'
p18
F1
sb.(i__main__
Data_mobile
p1
(dp2
S'vel_y'
p3
F0.49789176994041201
sS'vel_x'
p4
F-0.045867040733012697
sS'pos_x'
p5
F176.95117274922947
sS'pos_y'
p6
F-99.62894186570621
sS'isAlive'
p7
I01
sS'geno'
p8
(lp9
F-0.037314502308040787
aF-1.5266697737832846
aF-4.2108964698652525
aF4.7320391676829523
aF0.79594630547905953
aF-2.9941242768656862
asS'accel_x'
p10
F1.3955415266506923
sS'accel_y'
p11
F1.4326422607871983
sS'maxAccel'
p12
I2
sS'maxVel'
p13
F0.5
sS'age'
p14
I300
sS'radius'
p15
I2
sS'gener'
p16
S'm'
sS'lastScale'
p17
F14.500000000000004
sS'energy'
p18
F1.4000000000000004
sb.(i__main__
Data_mobile
p1
(dp2
S'vel_y'
p3
F-0.37837448512195765
sS'vel_x'
p4
F-0.32685279409650675
sS'pos_x'
p5
F-173.84269465759996
sS'pos_y'
p6
F66.564081630498947
sS'isAlive'
p7
I01
sS'geno'
p8
(lp9
F-0.037314502308040787
aF-1.5266697737832846
aF-3.9931461519608655
aF4.7374171391059665
aF-0.15291496651288961
aF3.4765576312883919
asS'accel_x'
p10
F-1.9916009052993189
sS'accel_y'
p11
F-0.18310061171643569
sS'maxAccel'
p12
I2
sS'maxVel'
p13
F0.5
sS'age'
p14
I200
sS'radius'
p15
I2
sS'gener'
p16
S'm'
sS'lastScale'
p17
F12.500000000000002
sS'energy'
p18
F1.2000000000000002
sb.(i__main__
Data_mobile
p1
(dp2
S'vel_y'
p3
F-0.30665913794066146
sS'vel_x'
p4
F0.39491793212956339
sS'pos_x'
p5
F-158.23564560639048
sS'pos_y'
p6
F-81.443728176011007
sS'isAlive'
p7
I01
sS'geno'
p8
(lp9
F-0.037314502308040787
aF-1.5266697737832846
aF-0.21301629094513319
aF4.3940591016553059
aF0.79594630547905953
aF-2.9941242768656862
asS'accel_x'
p10
F1.944463843453899
sS'accel_y'
p11
F0.4680388461447304
sS'maxAccel'
p12
I2
sS'maxVel'
p13
F0.5
sS'age'
p14
I150
sS'radius'
p15
I2
sS'gener'
p16
S'm'
sS'lastScale'
p17
F12.500000000000002
sS'energy'
p18
F1.2000000000000002
sb.(i__main__
Data_mobile
p1
(dp2
S'vel_y'
p3
F0.1490799843032693
sS'vel_x'
p4
F-0.36973280229918359
sS'pos_x'
p5
F-177.00323568670203
sS'pos_y'
p6
F-13.351908508800561
sS'isAlive'
p7
I01
sS'geno'
p8
(lp9
F-0.037314502308040787
aF-1.5266697737832846
aF-4.1653632727227956
aF4.7876776572727131
aF0.68492273325884323
aF-2.6041905021688021
asS'accel_x'
p10
F0
sS'accel_y'
p11
F0
sS'maxAccel'
p12
I2
sS'maxVel'
p13
F0.5
sS'age'
p14
I0
sS'radius'
p15
I2
sS'gener'
p16
S'm'
sS'lastScale'
p17
F5.4999999999999956
sS'energy'
p18
F1
sb.(i__main__
Data_mobile
p1
(dp2
S'vel_y'
p3
F-0.49536908385257394
sS'vel_x'
p4
F0.067893083322688993
sS'pos_x'
p5
F-133.14493879908511
sS'pos_y'
p6
F-7.743736546313178
sS'isAlive'
p7
I01
sS'geno'
p8
(lp9
F0.38488362201253334
aF-1.4820245825409264
aF-4.1653632727227956
aF4.7876776572727131
aF0.79594630547905953
aF-2.9941242768656862
asS'accel_x'
p10
F1.3257309642080872
sS'accel_y'
p11
F1.4974770150289103
sS'maxAccel'
p12
I2
sS'maxVel'
p13
F0.5
sS'age'
p14
I50
sS'radius'
p15
I2
sS'gener'
p16
S'm'
sS'lastScale'
p17
F12.500000000000002
sS'energy'
p18
F1.2000000000000002
sb.(i__main__
Data_mobile
p1
(dp2
S'vel_y'
p3
F-0.16040745650484228
sS'vel_x'
p4
F-0.47357095339309729
sS'pos_x'
p5
F-155.54655687456818
sS'pos_y'
p6
F70.291700266296445
sS'isAlive'
p7
I01
sS'geno'
p8
(lp9
F0.74652203674191109
aF-1.5266697737832846
aF-0.21301629094513319
aF4.7876776572727131
aF0.79594630547905953
aF-2.9941242768656862
asS'accel_x'
p10
F-1.9701139420496852
sS'accel_y'
p11
F-0.34445762488504938
sS'maxAccel'
p12
I2
sS'maxVel'
p13
F0.5
sS'age'
p14
I100
sS'radius'
p15
I2
sS'gener'
p16
S'm'
sS'lastScale'
p17
F11
sS'energy'
p18
F1.05
sb.(i__main__
Data_mobile
p1
(dp2
S'vel_y'
p3
F0.25416871611143232
sS'vel_x'
p4
F-0.11023765032229924
sS'pos_x'
p5
F-172.72996305992561
sS'pos_y'
p6
F-18.088247086290146
sS'isAlive'
p7
I01
sS'geno'
p8
(lp9
F-0.037314502308040787
aF-1.5266697737832846
aF-3.9931461519608655
aF4.7374171391059665
aF0.79594630547905953
aF-2.9941242768656862
asS'accel_x'
p10
F0
sS'accel_y'
p11
F0
sS'maxAccel'
p12
I2
sS'maxVel'
p13
F0.5
sS'age'
p14
I0
sS'radius'
p15
I2
sS'gener'
p16
S'm'
sS'lastScale'
p17
F4.7999999999999963
sS'energy'
p18
F1
sb.(i__main__
Data_mobile
p1
(dp2
S'vel_y'
p3
F-0.49524669532306631
sS'vel_x'
p4
F0.068780162631255373
sS'pos_x'
p5
F-144.50680827402303
sS'pos_y'
p6
F74.613160844811944
sS'isAlive'
p7
I01
sS'geno'
p8
(lp9
F-0.037314502308040787
aF-1.2693304591744092
aF-3.9931461519608655
aF4.7876776572727131
aF0.79594630547905953
aF3.2675833638506617
asS'accel_x'
p10
F1.1268312518875907
sS'accel_y'
p11
F1.6523472182835679
sS'maxAccel'
p12
I2
sS'maxVel'
p13
F0.5
sS'age'
p14
I100
sS'radius'
p15
I2
sS'gener'
p16
S'm'
sS'lastScale'
p17
F10.5
sS'energy'
p18
F1
sb.(i__main__
Data_mobile
p1
(dp2
S'vel_y'
p3
F0.11515300067036841
sS'vel_x'
p4
F-0.43919330887087826
sS'pos_x'
p5
F-149.93260278388635
sS'pos_y'
p6
F-60.122561666592901
sS'isAlive'
p7
I01
sS'geno'
p8
(lp9
F-0.037314502308040787
aF-1.5266697737832846
aF-0.10927686034831108
aF4.7374171391059665
aF0.79594630547905953
aF-2.9941242768656862
asS'accel_x'
p10
F0
sS'accel_y'
p11
F0
sS'maxAccel'
p12
I2
sS'maxVel'
p13
F0.5
sS'age'
p14
I0
sS'radius'
p15
I2
sS'gener'
p16
S'm'
sS'lastScale'
p17
F5.4999999999999956
sS'energy'
p18
F1
sb.(i__main__
Data_mobile
p1
(dp2
S'vel_y'
p3
F0.27674212965026568
sS'vel_x'
p4
F-0.35777559883569171
sS'pos_x'
p5
F-141.50301253477897
sS'pos_y'
p6
F-25.420384661055504
sS'isAlive'
p7
I01
sS'geno'
p8
(lp9
F0.38488362201253334
aF-1.5266697737832846
aF-0.21301629094513319
aF4.3940591016553059
aF0.79594630547905953
aF3.2675833638506617
asS'accel_x'
p10
F0
sS'accel_y'
p11
F0
sS'maxAccel'
p12
I2
sS'maxVel'
p13
F0.5
sS'age'
p14
I0
sS'radius'
p15
I2
sS'gener'
p16
S'm'
sS'lastScale'
p17
F5.4999999999999956
sS'energy'
p18
F1
sb.(i__main__
Data_mobile
p1
(dp2
S'vel_y'
p3
F0.033979932537014285
sS'vel_x'
p4
F-0.44695359610215496
sS'pos_x'
p5
F-177.82727412259445
sS'pos_y'
p6
F-14.019047548394315
sS'isAlive'
p7
I01
sS'geno'
p8
(lp9
F-0.037314502308040787
aF-1.954858511158156
aF-4.1653632727227956
aF4.7876776572727131
aF0.79594630547905953
aF-2.858710184545437
asS'accel_x'
p10
F0
sS'accel_y'
p11
F0
sS'maxAccel'
p12
I2
sS'maxVel'
p13
F0.5
sS'age'
p14
I0
sS'radius'
p15
I2
sS'gener'
p16
S'm'
sS'lastScale'
p17
F4.9999999999999956
sS'energy'
p18
F1
sb.(i__main__
Data_mobile
p1
(dp2
S'vel_y'
p3
F-0.35364664923022138
sS'vel_x'
p4
F-0.35346010735051386
sS'pos_x'
p5
F-159.87537182196843
sS'pos_y'
p6
F-81.177183255971244
sS'isAlive'
p7
I01
sS'geno'
p8
(lp9
F0.74652203674191109
aF-1.5266697737832846
aF-0.21301629094513319
aF4.7876776572727131
aF0.79594630547905953
aF3.2675833638506617
asS'accel_x'
p10
F1.0541106458951313
sS'accel_y'
p11
F1.6996619505685682
sS'maxAccel'
p12
I2
sS'maxVel'
p13
F0.5
sS'age'
p14
I150
sS'radius'
p15
I2
sS'gener'
p16
S'm'
sS'lastScale'
p17
F8.4999999999999982
sS'energy'
p18
F0.79999999999999982
sb.(i__main__
Data_mobile
p1
(dp2
S'vel_y'
p3
F0.12460620066043085
sS'vel_x'
p4
F-0.28160565677047023
sS'pos_x'
p5
F-131.41651469139853
sS'pos_y'
p6
F-9.1211996476747785
sS'isAlive'
p7
I01
sS'geno'
p8
(lp9
F-0.037314502308040787
aF-1.5266697737832846
aF-3.6717647603543826
aF4.5546363552102926
aF0.68492273325884323
aF-2.9941242768656862
asS'accel_x'
p10
F0
sS'accel_y'
p11
F0
sS'maxAccel'
p12
I2
sS'maxVel'
p13
F0.5
sS'age'
p14
I0
sS'radius'
p15
I2
sS'gener'
p16
S'm'
sS'lastScale'
p17
F5.1999999999999957
sS'energy'
p18
F1
sb.(i__main__
Data_mobile
p1
(dp2
S'vel_y'
p3
F-0.48454933398954614
sS'vel_x'
p4
F-0.11420368697125631
sS'pos_x'
p5
F24.596080012924176
sS'pos_y'
p6
F10.13254882157743
sS'isAlive'
p7
I01
sS'geno'
p8
(lp9
F-0.039389090606090638
aF-1.5266697737832846
aF-3.9931461519608655
aF4.7374171391059665
aF-0.15291496651288961
aF3.4765576312883919
asS'accel_x'
p10
F0
sS'accel_y'
p11
F0
sS'maxAccel'
p12
I2
sS'maxVel'
p13
F0.5
sS'age'
p14
I0
sS'radius'
p15
I2
sS'gener'
p16
S'm'
sS'lastScale'
p17
F5.4999999999999956
sS'energy'
p18
F1
sb.(i__main__
Data_mobile
p1
(dp2
S'vel_y'
p3
F-0.039203860710900422
sS'vel_x'
p4
F-0.49846068782338321
sS'pos_x'
p5
F-134.25254490182587
sS'pos_y'
p6
F-12.213181545275077
sS'isAlive'
p7
I01
sS'geno'
p8
(lp9
F-0.037314502308040787
aF-1.5266697737832846
aF-0.10927686034831108
aF4.7374171391059665
aF0.79594630547905953
aF-2.9941242768656862
asS'accel_x'
p10
F-1.9999992330432155
sS'accel_y'
p11
F-0.0017515212099371463
sS'maxAccel'
p12
I2
sS'maxVel'
p13
F0.5
sS'age'
p14
I50
sS'radius'
p15
I2
sS'gener'
p16
S'm'
sS'lastScale'
p17
F14.000000000000004
sS'energy'
p18
F1.3500000000000003
sb.(i__main__
Data_mobile
p1
(dp2
S'vel_y'
p3
F-0.35904922671148964
sS'vel_x'
p4
F-0.33884123256608939
sS'pos_x'
p5
F-68.422312928731372
sS'pos_y'
p6
F37.260556489117022
sS'isAlive'
p7
I01
sS'geno'
p8
(lp9
F-0.037314502308040787
aF-1.5266697737832846
aF-4.1653632727227956
aF4.7876776572727131
aF-0.15291496651288961
aF3.4765576312883919
asS'accel_x'
p10
F0
sS'accel_y'
p11
F0
sS'maxAccel'
p12
I2
sS'maxVel'
p13
F0.5
sS'age'
p14
I0
sS'radius'
p15
I2
sS'gener'
p16
S'm'
sS'lastScale'
p17
F5.4999999999999956
sS'energy'
p18
F1
sb.(i__main__
Data_mobile
p1
(dp2
S'vel_y'
p3
F0.45899575255070141
sS'vel_x'
p4
F-0.19830002304693573
sS'pos_x'
p5
F-172.7666865642741
sS'pos_y'
p6
F66.842703317311049
sS'isAlive'
p7
I01
sS'geno'
p8
(lp9
F-0.037314502308040787
aF-1.5266697737832846
aF-3.9931461519608655
aF4.7374171391059665
aF-0.15291496651288961
aF2.8250325937684355
asS'accel_x'
p10
F-0.82835455370776789
sS'accel_y'
p11
F-1.8203924668465328
sS'maxAccel'
p12
I2
sS'maxVel'
p13
F0.5
sS'age'
p14
I50
sS'radius'
p15
I2
sS'gener'
p16
S'm'
sS'lastScale'
p17
F14.500000000000004
sS'energy'
p18
F1.4000000000000004
sb.(i__main__
Data_mobile
p1
(dp2
S'vel_y'
p3
F0.35071040733471992
sS'vel_x'
p4
F-0.35637369457791751
sS'pos_x'
p5
F-131.67183013272629
sS'pos_y'
p6
F-10.496734025695726
sS'isAlive'
p7
I01
sS'geno'
p8
(lp9
F-0.037314502308040787
aF-1.5266697737832846
aF-3.9931461519608655
aF4.7876776572727131
aF0.79594630547905953
aF3.2675833638506617
asS'accel_x'
p10
F-1.6681712192165679
sS'accel_y'
p11
F-1.1032700410042455
sS'maxAccel'
p12
I2
sS'maxVel'
p13
F0.5
sS'age'
p14
I150
sS'radius'
p15
I2
sS'gener'
p16
S'm'
sS'lastScale'
p17
F7.4999999999999973
sS'energy'
p18
F0.69999999999999973
sb.(i__main__
Data_mobile
p1
(dp2
S'vel_y'
p3
F-0.096983519447219058
sS'vel_x'
p4
F-0.10585932302253151
sS'pos_x'
p5
F-36.413941242302528
sS'pos_y'
p6
F-24.762152175463292
sS'isAlive'
p7
I01
sS'geno'
p8
(lp9
F-0.037314502308040787
aF-1.5266697737832846
aF-3.9931461519608655
aF4.7876776572727131
aF0.79594630547905953
aF3.2675833638506617
asS'accel_x'
p10
F0
sS'accel_y'
p11
F0
sS'maxAccel'
p12
I2
sS'maxVel'
p13
F0.5
sS'age'
p14
I0
sS'radius'
p15
I2
sS'gener'
p16
S'm'
sS'lastScale'
p17
F5.4999999999999956
sS'energy'
p18
F1
sb.(i__main__
Data_mobile
p1
(dp2
S'vel_y'
p3
F-0.43640428119792507
sS'vel_x'
p4
F0.24403135731319922
sS'pos_x'
p5
F-157.82021504534296
sS'pos_y'
p6
F-81.755267421786428
sS'isAlive'
p7
I01
sS'geno'
p8
(lp9
F0.38488362201253334
aF-1.5266697737832846
aF-0.21301629094513319
aF4.3940591016553059
aF0.79594630547905953
aF-3.0605886936226216
asS'accel_x'
p10
F1.0311639520169655
sS'accel_y'
p11
F-1.7136805139992559
sS'maxAccel'
p12
I2
sS'maxVel'
p13
F0.5
sS'age'
p14
I100
sS'radius'
p15
I2
sS'gener'
p16
S'm'
sS'lastScale'
p17
F9.5
sS'energy'
p18
F0.89999999999999991
sb.(i__main__
Data_mobile
p1
(dp2
S'vel_y'
p3
F-0.24532599426551979
sS'vel_x'
p4
F0.43567781276722617
sS'pos_x'
p5
F-155.25623801881036
sS'pos_y'
p6
F-87.320943523261377
sS'isAlive'
p7
I01
sS'geno'
p8
(lp9
F-0.055907183197582144
aF-1.5266697737832846
aF-0.21301629094513319
aF4.7876776572727131
aF0.79594630547905953
aF3.2675833638506617
asS'accel_x'
p10
F-1.8940012701215621
sS'accel_y'
p11
F0.64246337543700471
sS'maxAccel'
p12
I2
sS'maxVel'
p13
F0.5
sS'age'
p14
I50
sS'radius'
p15
I2
sS'gener'
p16
S'm'
sS'lastScale'
p17
F14.500000000000004
sS'energy'
p18
F1.4000000000000004
sb.(i__main__
Data_mobile
p1
(dp2
S'vel_y'
p3
F0.062434410416893446
sS'vel_x'
p4
F-0.49608662993059477
sS'pos_x'
p5
F-135.10927666424541
sS'pos_y'
p6
F65.067656383158521
sS'isAlive'
p7
I01
sS'geno'
p8
(lp9
F0.2328569710731645
aF-1.5266697737832846
aF-0.21301629094513319
aF4.7876776572727131
aF0.79594630547905953
aF-2.8682341635274144
asS'accel_x'
p10
F-1.9720515628253401
sS'accel_y'
p11
F0.33318558425918365
sS'maxAccel'
p12
I2
sS'maxVel'
p13
F0.5
sS'age'
p14
I100
sS'radius'
p15
I2
sS'gener'
p16
S'm'
sS'lastScale'
p17
F8.4999999999999982
sS'energy'
p18
F0.79999999999999982
sb.(i__main__
Data_mobile
p1
(dp2
S'vel_y'
p3
F-0.37596463926163171
sS'vel_x'
p4
F-0.30856367471851659
sS'pos_x'
p5
F-163.53933851343763
sS'pos_y'
p6
F65.000612168147626
sS'isAlive'
p7
I01
sS'geno'
p8
(lp9
F-0.039389090606090638
aF-1.9562873387250264
aF-3.9931461519608655
aF4.7374171391059665
aF0.68492273325884323
aF-2.9941242768656862
asS'accel_x'
p10
F0
sS'accel_y'
p11
F0
sS'maxAccel'
p12
I2
sS'maxVel'
p13
F0.5
sS'age'
p14
I0
sS'radius'
p15
I2
sS'gener'
p16
S'm'
sS'lastScale'
p17
F5.4999999999999956
sS'energy'
p18
F1
sb.(i__main__
Data_mobile
p1
(dp2
S'vel_y'
p3
F-0.25949418185595541
sS'vel_x'
p4
F0.42739065219411193
sS'pos_x'
p5
F-157.40041359097324
sS'pos_y'
p6
F-81.607055098822073
sS'isAlive'
p7
I01
sS'geno'
p8
(lp9
F-0.037314502308040787
aF-1.5266697737832846
aF-0.10927686034831108
aF4.7876776572727131
aF0.79594630547905953
aF-2.9941242768656862
asS'accel_x'
p10
F1.8337928079268744
sS'accel_y'
p11
F-0.79825054813364782
sS'maxAccel'
p12
I2
sS'maxVel'
p13
F0.5
sS'age'
p14
I50
sS'radius'
p15
I2
sS'gener'
p16
S'm'
sS'lastScale'
p17
F11
sS'energy'
p18
F1.05
sb.(i__main__
Data_mobile
p1
(dp2
S'vel_y'
p3
F0.48630027773719176
sS'vel_x'
p4
F-0.072447524981381128
sS'pos_x'
p5
F-131.11208898850754
sS'pos_y'
p6
F-12.576554461315647
sS'isAlive'
p7
I01
sS'geno'
p8
(lp9
F0.74652203674191109
aF-1.5266697737832846
aF-3.6717647603543826
aF4.5546363552102926
aF0.84774427484948711
aF3.2886606666166491
asS'accel_x'
p10
F0
sS'accel_y'
p11
F0
sS'maxAccel'
p12
I2
sS'maxVel'
p13
F0.5
sS'age'
p14
I0
sS'radius'
p15
I2
sS'gener'
p16
S'm'
sS'lastScale'
p17
F5.1999999999999957
sS'energy'
p18
F1
sb.(i__main__
Data_mobile
p1
(dp2
S'vel_y'
p3
F-0.47809897334796309
sS'vel_x'
p4
F-0.14636041706562475
sS'pos_x'
p5
F188.35643589355345
sS'pos_y'
p6
F-32.983677554872294
sS'isAlive'
p7
I01
sS'geno'
p8
(lp9
F-0.037314502308040787
aF-0.12244834053052323
aF-3.9931461519608655
aF4.7374171391059665
aF0.96545115408757542
aF-2.9941242768656862
asS'accel_x'
p10
F1.0130117162774099
sS'accel_y'
p11
F-1.7244730391295471
sS'maxAccel'
p12
I2
sS'maxVel'
p13
F0.5
sS'age'
p14
I50
sS'radius'
p15
I2
sS'gener'
p16
S'm'
sS'lastScale'
p17
F14.000000000000004
sS'energy'
p18
F1.3500000000000003
sb.(i__main__
Data_mobile
p1
(dp2
S'vel_y'
p3
F0.40472082761906641
sS'vel_x'
p4
F-0.29102575533394265
sS'pos_x'
p5
F-156.06396934535857
sS'pos_y'
p6
F-82.676839548977554
sS'isAlive'
p7
I01
sS'geno'
p8
(lp9
F-0.037314502308040787
aF-1.5266697737832846
aF-4.1653632727227956
aF4.7374171391059665
aF0.79594630547905953
aF-2.9941242768656862
asS'accel_x'
p10
F0
sS'accel_y'
p11
F0
sS'maxAccel'
p12
I2
sS'maxVel'
p13
F0.5
sS'age'
p14
I0
sS'radius'
p15
I2
sS'gener'
p16
S'm'
sS'lastScale'
p17
F5.4999999999999956
sS'energy'
p18
F1
sb.(i__main__
Data_mobile
p1
(dp2
S'vel_y'
p3
F0.14846100428816897
sS'vel_x'
p4
F-0.47745086679756715
sS'pos_x'
p5
F-154.88114919638014
sS'pos_y'
p6
F-87.41449178420352
sS'isAlive'
p7
I01
sS'geno'
p8
(lp9
F0.38488362201253334
aF-2.0012503732947344
aF-0.21301629094513319
aF4.7876776572727131
aF0.79594630547905953
aF3.2675833638506617
asS'accel_x'
p10
F-1.2578582908950136
sS'accel_y'
p11
F1.5549252458001557
sS'maxAccel'
p12
I2
sS'maxVel'
p13
F0.5
sS'age'
p14
I100
sS'radius'
p15
I2
sS'gener'
p16
S'm'
sS'lastScale'
p17
F13.500000000000004
sS'energy'
p18
F1.3000000000000003
sb.(i__main__
Data_mobile
p1
(dp2
S'vel_y'
p3
F0.42376256674733026
sS'vel_x'
p4
F-0.25422178254132188
sS'pos_x'
p5
F-162.40211709213247
sS'pos_y'
p6
F-58.233698512624699
sS'isAlive'
p7
I01
sS'geno'
p8
(lp9
F0.15123384388958239
aF-1.5266697737832846
aF-0.10927686034831108
aF4.7374171391059665
aF0.79594630547905953
aF3.2675833638506617
asS'accel_x'
p10
F0
sS'accel_y'
p11
F0
sS'maxAccel'
p12
I2
sS'maxVel'
p13
F0.5
sS'age'
p14
I0
sS'radius'
p15
I2
sS'gener'
p16
S'm'
sS'lastScale'
p17
F5.4999999999999956
sS'energy'
p18
F1
sb.(i__main__
Data_mobile
p1
(dp2
S'vel_y'
p3
F0.24254666674314232
sS'vel_x'
p4
F-0.11623079656675896
sS'pos_x'
p5
F-154.80902042279317
sS'pos_y'
p6
F-86.660328750756634
sS'isAlive'
p7
I01
sS'geno'
p8
(lp9
F-0.037314502308040787
aF-1.5266697737832846
aF-0.10927686034831108
aF4.7374171391059665
aF0.79594630547905953
aF3.2675833638506617
asS'accel_x'
p10
F0
sS'accel_y'
p11
F0
sS'maxAccel'
p12
I2
sS'maxVel'
p13
F0.5
sS'age'
p14
I0
sS'radius'
p15
I2
sS'gener'
p16
S'm'
sS'lastScale'
p17
F5.4999999999999956
sS'energy'
p18
F1
sb.(i__main__
Data_mobile
p1
(dp2
S'vel_y'
p3
F-0.32236055663967383
sS'vel_x'
p4
F-0.38220893700037895
sS'pos_x'
p5
F-143.33865430040888
sS'pos_y'
p6
F77.546538357156464
sS'isAlive'
p7
I01
sS'geno'
p8
(lp9
F-0.037314502308040787
aF-1.5266697737832846
aF-3.9931461519608655
aF4.7876776572727131
aF0.79594630547905953
aF3.2675833638506617
asS'accel_x'
p10
F-1.9738252094565885
sS'accel_y'
p11
F0.32251208119023206
sS'maxAccel'
p12
I2
sS'maxVel'
p13
F0.5
sS'age'
p14
I100
sS'radius'
p15
I2
sS'gener'
p16
S'm'
sS'lastScale'
p17
F8.4999999999999982
sS'energy'
p18
F0.79999999999999982
sb.(i__main__
Data_mobile
p1
(dp2
S'vel_y'
p3
F0.33320348575230424
sS'vel_x'
p4
F0.37279409475273884
sS'pos_x'
p5
F-172.7744004071655
sS'pos_y'
p6
F-17.909190829427587
sS'isAlive'
p7
I01
sS'geno'
p8
(lp9
F-0.037314502308040787
aF-1.5266697737832846
aF-3.9931461519608655
aF4.7374171391059665
aF0.79594630547905953
aF-2.9941242768656862
asS'accel_x'
p10
F1.697404342732441
sS'accel_y'
p11
F1.0577421695635709
sS'maxAccel'
p12
I2
sS'maxVel'
p13
F0.5
sS'age'
p14
I250
sS'radius'
p15
I2
sS'gener'
p16
S'm'
sS'lastScale'
p17
F14.000000000000004
sS'energy'
p18
F1.3500000000000003
sb.(i__main__
Data_mobile
p1
(dp2
S'vel_y'
p3
F-0.48849764229045006
sS'vel_x'
p4
F0.10663045285785595
sS'pos_x'
p5
F-176.00356806539639
sS'pos_y'
p6
F-19.062299767178203
sS'isAlive'
p7
I01
sS'geno'
p8
(lp9
F-0.037314502308040787
aF-1.5266697737832846
aF-3.9931461519608655
aF4.7876776572727131
aF0.79594630547905953
aF3.2675833638506617
asS'accel_x'
p10
F1.993883772387409
sS'accel_y'
p11
F0.15629300115537972
sS'maxAccel'
p12
I2
sS'maxVel'
p13
F0.5
sS'age'
p14
I250
sS'radius'
p15
I2
sS'gener'
p16
S'm'
sS'lastScale'
p17
F14.500000000000004
sS'energy'
p18
F1.4000000000000004
sb.(i__main__
Data_mobile
p1
(dp2
S'vel_y'
p3
F-0.0031852169202858942
sS'vel_x'
p4
F-0.49998985429023529
sS'pos_x'
p5
F-131.20118888646979
sS'pos_y'
p6
F-13.811997780776769
sS'isAlive'
p7
I01
sS'geno'
p8
(lp9
F-0.037314502308040787
aF-1.5266697737832846
aF-4.1653632727227956
aF4.3302209279461037
aF0.3199328896011
aF3.2675833638506617
asS'accel_x'
p10
F0.45586348218067763
sS'accel_y'
p11
F1.9473542270511821
sS'maxAccel'
p12
I2
sS'maxVel'
p13
F0.5
sS'age'
p14
I150
sS'radius'
p15
I2
sS'gener'
p16
S'm'
sS'lastScale'
p17
F10.5
sS'energy'
p18
F1
sb.(i__main__
Data_mobile
p1
(dp2
S'vel_y'
p3
F0.1399862432163762
sS'vel_x'
p4
F-0.13321769664712257
sS'pos_x'
p5
F-154.37914264771985
sS'pos_y'
p6
F-50.444182548968897
sS'isAlive'
p7
I01
sS'geno'
p8
(lp9
F-0.037314502308040787
aF-1.5266697737832846
aF-3.9931461519608655
aF4.7374171391059665
aF0.55487348688466298
aF-2.9941242768656862
asS'accel_x'
p10
F0
sS'accel_y'
p11
F0
sS'maxAccel'
p12
I2
sS'maxVel'
p13
F0.5
sS'age'
p14
I0
sS'radius'
p15
I2
sS'gener'
p16
S'm'
sS'lastScale'
p17
F5.4999999999999956
sS'energy'
p18
F1
sb.(i__main__
Data_mobile
p1
(dp2
S'vel_y'
p3
F-0.40345294119471753
sS'vel_x'
p4
F-0.16223936359097943
sS'pos_x'
p5
F-173.92955691046066
sS'pos_y'
p6
F58.269126704439628
sS'isAlive'
p7
I01
sS'geno'
p8
(lp9
F-0.039389090606090638
aF-1.5266697737832846
aF-3.9931461519608655
aF4.7374171391059665
aF0.79594630547905953
aF3.2675833638506617
asS'accel_x'
p10
F0
sS'accel_y'
p11
F0
sS'maxAccel'
p12
I2
sS'maxVel'
p13
F0.5
sS'age'
p14
I0
sS'radius'
p15
I2
sS'gener'
p16
S'm'
sS'lastScale'
p17
F5.4999999999999956
sS'energy'
p18
F1
sb.(i__main__
Data_mobile
p1
(dp2
S'vel_y'
p3
I0
sS'vel_x'
p4
I0
sS'pos_x'
p5
I-9999
sS'pos_y'
p6
I9999
sS'isAlive'
p7
I00
sS'geno'
p8
(lp9
F-0.037314502308040787
aF-1.5266697737832846
aF-0.21301629094513319
aF4.7374171391059665
aF0.79594630547905953
aF3.2675833638506617
asS'accel_x'
p10
F0
sS'accel_y'
p11
F0
sS'maxAccel'
p12
I2
sS'maxVel'
p13
F0.5
sS'age'
p14
I0
sS'radius'
p15
I2
sS'gener'
p16
S'm'
sS'lastScale'
p17
F5.4999999999999956
sS'energy'
p18
I1
sb.(i__main__
Data_mobile
p1
(dp2
S'vel_y'
p3
I0
sS'vel_x'
p4
I0
sS'pos_x'
p5
I-9999
sS'pos_y'
p6
I9999
sS'isAlive'
p7
I00
sS'geno'
p8
(lp9
F0.38488362201253334
aF-1.5266697737832846
aF-0.21301629094513319
aF4.7374171391059665
aF0.79594630547905953
aF-2.9941242768656862
asS'accel_x'
p10
F0
sS'accel_y'
p11
F0
sS'maxAccel'
p12
I2
sS'maxVel'
p13
F0.5
sS'age'
p14
I0
sS'radius'
p15
I2
sS'gener'
p16
S'm'
sS'lastScale'
p17
F5.2999999999999963
sS'energy'
p18
I1
sb.(i__main__
Data_mobile
p1
(dp2
S'vel_y'
p3
I0
sS'vel_x'
p4
I0
sS'pos_x'
p5
I-9999
sS'pos_y'
p6
I9999
sS'isAlive'
p7
I00
sS'geno'
p8
(lp9
F-0.037314502308040787
aF-1.5266697737832846
aF-0.21301629094513319
aF4.7374171391059665
aF0.79594630547905953
aF-2.7168384907043395
asS'accel_x'
p10
F0
sS'accel_y'
p11
F0
sS'maxAccel'
p12
I2
sS'maxVel'
p13
F0.5
sS'age'
p14
I0
sS'radius'
p15
I2
sS'gener'
p16
S'm'
sS'lastScale'
p17
F5.2999999999999963
sS'energy'
p18
I1
sb.(i__main__
Data_mobile
p1
(dp2
S'vel_y'
p3
I0
sS'vel_x'
p4
I0
sS'pos_x'
p5
I-9999
sS'pos_y'
p6
I9999
sS'isAlive'
p7
I00
sS'geno'
p8
(lp9
F-0.037314502308040787
aF-1.5266697737832846
aF-0.21301629094513319
aF4.7374171391059665
aF0.79594630547905953
aF-2.9941242768656862
asS'accel_x'
p10
F0
sS'accel_y'
p11
F0
sS'maxAccel'
p12
I2
sS'maxVel'
p13
F0.5
sS'age'
p14
I0
sS'radius'
p15
I2
sS'gener'
p16
S'm'
sS'lastScale'
p17
F4.9999999999999956
sS'energy'
p18
I1
sb.(i__main__
Data_mobile
p1
(dp2
S'vel_y'
p3
I0
sS'vel_x'
p4
I0
sS'pos_x'
p5
I-9999
sS'pos_y'
p6
I9999
sS'isAlive'
p7
I00
sS'geno'
p8
(lp9
F-0.037314502308040787
aF-1.664166365368013
aF-0.21301629094513319
aF4.7374171391059665
aF0.79594630547905953
aF3.2675833638506617
asS'accel_x'
p10
F0
sS'accel_y'
p11
F0
sS'maxAccel'
p12
I2
sS'maxVel'
p13
F0.5
sS'age'
p14
I0
sS'radius'
p15
I2
sS'gener'
p16
S'm'
sS'lastScale'
p17
F5.2999999999999963
sS'energy'
p18
I1
sb.(i__main__
Data_mobile
p1
(dp2
S'vel_y'
p3
I0
sS'vel_x'
p4
I0
sS'pos_x'
p5
I-9999
sS'pos_y'
p6
I9999
sS'isAlive'
p7
I00
sS'geno'
p8
(lp9
F-0.037314502308040787
aF-1.5266697737832846
aF-0.21301629094513319
aF4.7374171391059665
aF1.1118696923889648
aF-2.7168384907043395
asS'accel_x'
p10
F0
sS'accel_y'
p11
F0
sS'maxAccel'
p12
I2
sS'maxVel'
p13
F0.5
sS'age'
p14
I0
sS'radius'
p15
I2
sS'gener'
p16
S'm'
sS'lastScale'
p17
F5.1999999999999957
sS'energy'
p18
I1
sb.(i__main__
Data_mobile
p1
(dp2
S'vel_y'
p3
I0
sS'vel_x'
p4
I0
sS'pos_x'
p5
I-9999
sS'pos_y'
p6
I9999
sS'isAlive'
p7
I00
sS'geno'
p8
(lp9
F-0.037314502308040787
aF-1.5266697737832846
aF-3.9931461519608655
aF4.7876776572727131
aF0.79594630547905953
aF-2.9941242768656862
asS'accel_x'
p10
F0
sS'accel_y'
p11
F0
sS'maxAccel'
p12
I2
sS'maxVel'
p13
F0.5
sS'age'
p14
I0
sS'radius'
p15
I2
sS'gener'
p16
S'm'
sS'lastScale'
p17
F5.1999999999999957
sS'energy'
p18
I1
sb.(i__main__
Data_mobile
p1
(dp2
S'vel_y'
p3
I0
sS'vel_x'
p4
I0
sS'pos_x'
p5
I-9999
sS'pos_y'
p6
I9999
sS'isAlive'
p7
I00
sS'geno'
p8
(lp9
F-0.037314502308040787
aF-1.5266697737832846
aF-0.21301629094513319
aF4.7374171391059665
aF0.79594630547905953
aF3.2675833638506617
asS'accel_x'
p10
F0
sS'accel_y'
p11
F0
sS'maxAccel'
p12
I2
sS'maxVel'
p13
F0.5
sS'age'
p14
I0
sS'radius'
p15
I2
sS'gener'
p16
S'm'
sS'lastScale'
p17
F4.5999999999999961
sS'energy'
p18
I1
sb.(i__main__
Data_mobile
p1
(dp2
S'vel_y'
p3
I0
sS'vel_x'
p4
I0
sS'pos_x'
p5
I-9999
sS'pos_y'
p6
I9999
sS'isAlive'
p7
I00
sS'geno'
p8
(lp9
F-0.037314502308040787
aF-1.8836643855306505
aF-4.1653632727227956
aF5.1457687717382044
aF0.79594630547905953
aF-2.9941242768656862
asS'accel_x'
p10
F0
sS'accel_y'
p11
F0
sS'maxAccel'
p12
I2
sS'maxVel'
p13
F0.5
sS'age'
p14
I0
sS'radius'
p15
I2
sS'gener'
p16
S'm'
sS'lastScale'
p17
F4.9999999999999956
sS'energy'
p18
I1
sb.(i__main__
Data_mobile
p1
(dp2
S'vel_y'
p3
I0
sS'vel_x'
p4
I0
sS'pos_x'
p5
I-9999
sS'pos_y'
p6
I9999
sS'isAlive'
p7
I00
sS'geno'
p8
(lp9
F0.38488362201253334
aF-1.5266697737832846
aF-0.21301629094513319
aF4.3940591016553059
aF0.79594630547905953
aF-2.9941242768656862
asS'accel_x'
p10
F0
sS'accel_y'
p11
F0
sS'maxAccel'
p12
I2
sS'maxVel'
p13
F0.5
sS'age'
p14
I0
sS'radius'
p15
I2
sS'gener'
p16
S'm'
sS'lastScale'
p17
F5.4999999999999956
sS'energy'
p18
I1
sb.(i__main__
Data_mobile
p1
(dp2
S'vel_y'
p3
I0
sS'vel_x'
p4
I0
sS'pos_x'
p5
I-9999
sS'pos_y'
p6
I9999
sS'isAlive'
p7
I00
sS'geno'
p8
(lp9
F0.38488362201253334
aF-1.5266697737832846
aF-0.21301629094513319
aF4.5513928607528147
aF0.79594630547905953
aF-2.8682341635274144
asS'accel_x'
p10
F0
sS'accel_y'
p11
F0
sS'maxAccel'
p12
I2
sS'maxVel'
p13
F0.5
sS'age'
p14
I0
sS'radius'
p15
I2
sS'gener'
p16
S'm'
sS'lastScale'
p17
F5.4999999999999956
sS'energy'
p18
I1
sb.(i__main__
Data_mobile
p1
(dp2
S'vel_y'
p3
I0
sS'vel_x'
p4
I0
sS'pos_x'
p5
I-9999
sS'pos_y'
p6
I9999
sS'isAlive'
p7
I00
sS'geno'
p8
(lp9
F-0.037314502308040787
aF-1.5266697737832846
aF-0.21301629094513319
aF4.5513928607528147
aF0.61192998963769774
aF-2.8682341635274144
asS'accel_x'
p10
F0
sS'accel_y'
p11
F0
sS'maxAccel'
p12
I2
sS'maxVel'
p13
F0.5
sS'age'
p14
I0
sS'radius'
p15
I2
sS'gener'
p16
S'm'
sS'lastScale'
p17
F4.9999999999999956
sS'energy'
p18
I1
sb.(i__main__
Data_mobile
p1
(dp2
S'vel_y'
p3
I0
sS'vel_x'
p4
I0
sS'pos_x'
p5
I-9999
sS'pos_y'
p6
I9999
sS'isAlive'
p7
I00
sS'geno'
p8
(lp9
F-0.037314502308040787
aF-1.5266697737832846
aF-3.9931461519608655
aF4.3302209279461037
aF0.3199328896011
aF3.2675833638506617
asS'accel_x'
p10
F0
sS'accel_y'
p11
F0
sS'maxAccel'
p12
I2
sS'maxVel'
p13
F0.5
sS'age'
p14
I0
sS'radius'
p15
I2
sS'gener'
p16
S'm'
sS'lastScale'
p17
F4.8999999999999959
sS'energy'
p18
I1
sb.(i__main__
Data_mobile
p1
(dp2
S'vel_y'
p3
I0
sS'vel_x'
p4
I0
sS'pos_x'
p5
I-9999
sS'pos_y'
p6
I9999
sS'isAlive'
p7
I00
sS'geno'
p8
(lp9
F-0.037314502308040787
aF-1.5266697737832846
aF-0.21301629094513319
aF4.7374171391059665
aF0.9839198739837578
aF3.2675833638506617
asS'accel_x'
p10
F0
sS'accel_y'
p11
F0
sS'maxAccel'
p12
I2
sS'maxVel'
p13
F0.5
sS'age'
p14
I0
sS'radius'
p15
I2
sS'gener'
p16
S'm'
sS'lastScale'
p17
F4.3999999999999968
sS'energy'
p18
I1
sb.(i__main__
Data_mobile
p1
(dp2
S'vel_y'
p3
I0
sS'vel_x'
p4
I0
sS'pos_x'
p5
I-9999
sS'pos_y'
p6
I9999
sS'isAlive'
p7
I00
sS'geno'
p8
(lp9
F1.5620193373150286
aF-0.12244834053052323
aF-0.21301629094513319
aF4.7374171391059665
aF0.79594630547905953
aF-2.8682341635274144
asS'accel_x'
p10
F0
sS'accel_y'
p11
F0
sS'maxAccel'
p12
I2
sS'maxVel'
p13
F0.5
sS'age'
p14
I0
sS'radius'
p15
I2
sS'gener'
p16
S'm'
sS'lastScale'
p17
F5.4999999999999956
sS'energy'
p18
I1
sb.(i__main__
Data_mobile
p1
(dp2
S'vel_y'
p3
I0
sS'vel_x'
p4
I0
sS'pos_x'
p5
I-9999
sS'pos_y'
p6
I9999
sS'isAlive'
p7
I00
sS'geno'
p8
(lp9
F0.38488362201253334
aF-1.5266697737832846
aF-4.1653632727227956
aF4.7876776572727131
aF0.79594630547905953
aF-2.9941242768656862
asS'accel_x'
p10
F0
sS'accel_y'
p11
F0
sS'maxAccel'
p12
I2
sS'maxVel'
p13
F0.5
sS'age'
p14
I0
sS'radius'
p15
I2
sS'gener'
p16
S'm'
sS'lastScale'
p17
F5.1999999999999957
sS'energy'
p18
I1
sb.(i__main__
Data_mobile
p1
(dp2
S'vel_y'
p3
I0
sS'vel_x'
p4
I0
sS'pos_x'
p5
I-9999
sS'pos_y'
p6
I9999
sS'isAlive'
p7
I00
sS'geno'
p8
(lp9
F0.38488362201253334
aF-1.5266697737832846
aF-3.9931461519608655
aF4.7876776572727131
aF0.79594630547905953
aF3.2675833638506617
asS'accel_x'
p10
F0
sS'accel_y'
p11
F0
sS'maxAccel'
p12
I2
sS'maxVel'
p13
F0.5
sS'age'
p14
I0
sS'radius'
p15
I2
sS'gener'
p16
S'm'
sS'lastScale'
p17
F5.4999999999999956
sS'energy'
p18
I1
sb.(i__main__
Data_mobile
p1
(dp2
S'vel_y'
p3
I0
sS'vel_x'
p4
I0
sS'pos_x'
p5
I-9999
sS'pos_y'
p6
I9999
sS'isAlive'
p7
I00
sS'geno'
p8
(lp9
F0.38488362201253334
aF-1.5266697737832846
aF-0.21301629094513319
aF4.5513928607528147
aF0.79594630547905953
aF-2.8682341635274144
asS'accel_x'
p10
F0
sS'accel_y'
p11
F0
sS'maxAccel'
p12
I2
sS'maxVel'
p13
F0.5
sS'age'
p14
I0
sS'radius'
p15
I2
sS'gener'
p16
S'm'
sS'lastScale'
p17
F5.4999999999999956
sS'energy'
p18
I1
sb.(i__main__
Data_mobile
p1
(dp2
S'vel_y'
p3
I0
sS'vel_x'
p4
I0
sS'pos_x'
p5
I-9999
sS'pos_y'
p6
I9999
sS'isAlive'
p7
I00
sS'geno'
p8
(lp9
F-0.037314502308040787
aF-1.5266697737832846
aF-0.21301629094513319
aF4.7374171391059665
aF0.79594630547905953
aF-2.8682341635274144
asS'accel_x'
p10
F0
sS'accel_y'
p11
F0
sS'maxAccel'
p12
I2
sS'maxVel'
p13
F0.5
sS'age'
p14
I0
sS'radius'
p15
I2
sS'gener'
p16
S'm'
sS'lastScale'
p17
F5.4999999999999956
sS'energy'
p18
I1
sb.(i__main__
Data_mobile
p1
(dp2
S'vel_y'
p3
I0
sS'vel_x'
p4
I0
sS'pos_x'
p5
I-9999
sS'pos_y'
p6
I9999
sS'isAlive'
p7
I00
sS'geno'
p8
(lp9
F1.5620193373150286
aF-0.12244834053052323
aF-3.9931461519608655
aF4.7374171391059665
aF0.79594630547905953
aF-2.9941242768656862
asS'accel_x'
p10
F0
sS'accel_y'
p11
F0
sS'maxAccel'
p12
I2
sS'maxVel'
p13
F0.5
sS'age'
p14
I0
sS'radius'
p15
I2
sS'gener'
p16
S'm'
sS'lastScale'
p17
F5.4999999999999956
sS'energy'
p18
I1
sb.(i__main__
Data_mobile
p1
(dp2
S'vel_y'
p3
I0
sS'vel_x'
p4
I0
sS'pos_x'
p5
I-9999
sS'pos_y'
p6
I9999
sS'isAlive'
p7
I00
sS'geno'
p8
(lp9
F-0.037314502308040787
aF-1.5266697737832846
aF-0.21301629094513319
aF4.7374171391059665
aF0.79594630547905953
aF3.2675833638506617
asS'accel_x'
p10
F0
sS'accel_y'
p11
F0
sS'maxAccel'
p12
I2
sS'maxVel'
p13
F0.5
sS'age'
p14
I0
sS'radius'
p15
I2
sS'gener'
p16
S'm'
sS'lastScale'
p17
F5.4999999999999956
sS'energy'
p18
I1
sb.(i__main__
Data_mobile
p1
(dp2
S'vel_y'
p3
I0
sS'vel_x'
p4
I0
sS'pos_x'
p5
I-9999
sS'pos_y'
p6
I9999
sS'isAlive'
p7
I00
sS'geno'
p8
(lp9
F1.5620193373150286
aF-0.12244834053052323
aF-0.21301629094513319
aF4.5513928607528147
aF0.79594630547905953
aF-2.8682341635274144
asS'accel_x'
p10
F0
sS'accel_y'
p11
F0
sS'maxAccel'
p12
I2
sS'maxVel'
p13
F0.5
sS'age'
p14
I0
sS'radius'
p15
I2
sS'gener'
p16
S'm'
sS'lastScale'
p17
F5.4999999999999956
sS'energy'
p18
I1
sb.(i__main__
Data_mobile
p1
(dp2
S'vel_y'
p3
I0
sS'vel_x'
p4
I0
sS'pos_x'
p5
I-9999
sS'pos_y'
p6
I9999
sS'isAlive'
p7
I00
sS'geno'
p8
(lp9
F0.38488362201253334
aF-1.5266697737832846
aF-0.21301629094513319
aF4.7374171391059665
aF0.79594630547905953
aF-2.8682341635274144
asS'accel_x'
p10
F0
sS'accel_y'
p11
F0
sS'maxAccel'
p12
I2
sS'maxVel'
p13
F0.5
sS'age'
p14
I0
sS'radius'
p15
I2
sS'gener'
p16
S'm'
sS'lastScale'
p17
F5.4999999999999956
sS'energy'
p18
I1
sb.(i__main__
Data_mobile
p1
(dp2
S'vel_y'
p3
I0
sS'vel_x'
p4
I0
sS'pos_x'
p5
I-9999
sS'pos_y'
p6
I9999
sS'isAlive'
p7
I00
sS'geno'
p8
(lp9
F-0.037314502308040787
aF-1.5266697737832846
aF-0.21301629094513319
aF4.7374171391059665
aF0.79594630547905953
aF3.2675833638506617
asS'accel_x'
p10
F0
sS'accel_y'
p11
F0
sS'maxAccel'
p12
I2
sS'maxVel'
p13
F0.5
sS'age'
p14
I0
sS'radius'
p15
I2
sS'gener'
p16
S'm'
sS'lastScale'
p17
F5.4999999999999956
sS'energy'
p18
I1
sb.(i__main__
Data_mobile
p1
(dp2
S'vel_y'
p3
I0
sS'vel_x'
p4
I0
sS'pos_x'
p5
I-9999
sS'pos_y'
p6
I9999
sS'isAlive'
p7
I00
sS'geno'
p8
(lp9
F0.38488362201253334
aF-1.5266697737832846
aF-3.9931461519608655
aF4.7374171391059665
aF0.79594630547905953
aF-2.9941242768656862
asS'accel_x'
p10
F0
sS'accel_y'
p11
F0
sS'maxAccel'
p12
I2
sS'maxVel'
p13
F0.5
sS'age'
p14
I0
sS'radius'
p15
I2
sS'gener'
p16
S'm'
sS'lastScale'
p17
F5.1999999999999957
sS'energy'
p18
I1
sb.(i__main__
Data_mobile
p1
(dp2
S'vel_y'
p3
I0
sS'vel_x'
p4
I0
sS'pos_x'
p5
I-9999
sS'pos_y'
p6
I9999
sS'isAlive'
p7
I00
sS'geno'
p8
(lp9
F-0.037314502308040787
aF-1.5266697737832846
aF-4.1653632727227956
aF4.7374171391059665
aF-0.15291496651288961
aF3.2675833638506617
asS'accel_x'
p10
F0
sS'accel_y'
p11
F0
sS'maxAccel'
p12
I2
sS'maxVel'
p13
F0.5
sS'age'
p14
I0
sS'radius'
p15
I2
sS'gener'
p16
S'm'
sS'lastScale'
p17
F4.6999999999999957
sS'energy'
p18
I1
sb.(i__main__
Data_mobile
p1
(dp2
S'vel_y'
p3
I0
sS'vel_x'
p4
I0
sS'pos_x'
p5
I-9999
sS'pos_y'
p6
I9999
sS'isAlive'
p7
I00
sS'geno'
p8
(lp9
F-0.037314502308040787
aF-1.5266697737832846
aF-4.0041886832446707
aF4.7876776572727131
aF0.79594630547905953
aF3.2675833638506617
asS'accel_x'
p10
F0
sS'accel_y'
p11
F0
sS'maxAccel'
p12
I2
sS'maxVel'
p13
F0.5
sS'age'
p14
I0
sS'radius'
p15
I2
sS'gener'
p16
S'm'
sS'lastScale'
p17
F5.4999999999999956
sS'energy'
p18
I1
sb.(i__main__
Data_mobile
p1
(dp2
S'vel_y'
p3
I0
sS'vel_x'
p4
I0
sS'pos_x'
p5
I-9999
sS'pos_y'
p6
I9999
sS'isAlive'
p7
I00
sS'geno'
p8
(lp9
F0.38488362201253334
aF-1.5266697737832846
aF-3.9931461519608655
aF4.988932533554296
aF0.79594630547905953
aF-2.9941242768656862
asS'accel_x'
p10
F0
sS'accel_y'
p11
F0
sS'maxAccel'
p12
I2
sS'maxVel'
p13
F0.5
sS'age'
p14
I0
sS'radius'
p15
I2
sS'gener'
p16
S'm'
sS'lastScale'
p17
F5.4999999999999956
sS'energy'
p18
I1
sb.(i__main__
Data_mobile
p1
(dp2
S'vel_y'
p3
I0
sS'vel_x'
p4
I0
sS'pos_x'
p5
I-9999
sS'pos_y'
p6
I9999
sS'isAlive'
p7
I00
sS'geno'
p8
(lp9
F0.2328569710731645
aF-1.5266697737832846
aF-0.21301629094513319
aF4.3940591016553059
aF0.79594630547905953
aF-2.9941242768656862
asS'accel_x'
p10
F0
sS'accel_y'
p11
F0
sS'maxAccel'
p12
I2
sS'maxVel'
p13
F0.5
sS'age'
p14
I0
sS'radius'
p15
I2
sS'gener'
p16
S'm'
sS'lastScale'
p17
F5.4999999999999956
sS'energy'
p18
I1
sb.(i__main__
Data_mobile
p1
(dp2
S'vel_y'
p3
I0
sS'vel_x'
p4
I0
sS'pos_x'
p5
I-9999
sS'pos_y'
p6
I9999
sS'isAlive'
p7
I00
sS'geno'
p8
(lp9
F0.38488362201253334
aF-1.5266697737832846
aF-0.21301629094513319
aF4.7374171391059665
aF0.79594630547905953
aF-2.9941242768656862
asS'accel_x'
p10
F0
sS'accel_y'
p11
F0
sS'maxAccel'
p12
I2
sS'maxVel'
p13
F0.5
sS'age'
p14
I0
sS'radius'
p15
I2
sS'gener'
p16
S'm'
sS'lastScale'
p17
F5.4999999999999956
sS'energy'
p18
I1
sb.(i__main__
Data_mobile
p1
(dp2
S'vel_y'
p3
I0
sS'vel_x'
p4
I0
sS'pos_x'
p5
I-9999
sS'pos_y'
p6
I9999
sS'isAlive'
p7
I00
sS'geno'
p8
(lp9
F-0.037314502308040787
aF-1.5266697737832846
aF-0.10927686034831108
aF4.7374171391059665
aF0.79594630547905953
aF3.2675833638506617
asS'accel_x'
p10
F0
sS'accel_y'
p11
F0
sS'maxAccel'
p12
I2
sS'maxVel'
p13
F0.5
sS'age'
p14
I0
sS'radius'
p15
I2
sS'gener'
p16
S'm'
sS'lastScale'
p17
F5.4999999999999956
sS'energy'
p18
I1
sb.(i__main__
Data_mobile
p1
(dp2
S'vel_y'
p3
I0
sS'vel_x'
p4
I0
sS'pos_x'
p5
I-9999
sS'pos_y'
p6
I9999
sS'isAlive'
p7
I00
sS'geno'
p8
(lp9
F-0.037314502308040787
aF-1.5266697737832846
aF-0.10927686034831108
aF4.7876776572727131
aF0.3199328896011
aF-2.9941242768656862
asS'accel_x'
p10
F0
sS'accel_y'
p11
F0
sS'maxAccel'
p12
I2
sS'maxVel'
p13
F0.5
sS'age'
p14
I0
sS'radius'
p15
I2
sS'gener'
p16
S'm'
sS'lastScale'
p17
F5.4999999999999956
sS'energy'
p18
I1
sb.(i__main__
Data_mobile
p1
(dp2
S'vel_y'
p3
I0
sS'vel_x'
p4
I0
sS'pos_x'
p5
I-9999
sS'pos_y'
p6
I9999
sS'isAlive'
p7
I00
sS'geno'
p8
(lp9
F1.5620193373150286
aF-0.12244834053052323
aF-3.9931461519608655
aF4.7374171391059665
aF0.79594630547905953
aF-2.8836629442074981
asS'accel_x'
p10
F0
sS'accel_y'
p11
F0
sS'maxAccel'
p12
I2
sS'maxVel'
p13
F0.5
sS'age'
p14
I0
sS'radius'
p15
I2
sS'gener'
p16
S'm'
sS'lastScale'
p17
F5.4999999999999956
sS'energy'
p18
I1
sb.(i__main__
Data_mobile
p1
(dp2
S'vel_y'
p3
I0
sS'vel_x'
p4
I0
sS'pos_x'
p5
I-9999
sS'pos_y'
p6
I9999
sS'isAlive'
p7
I00
sS'geno'
p8
(lp9
F0.27887700152121908
aF-1.5266697737832846
aF-3.9931461519608655
aF4.7876776572727131
aF0.79594630547905953
aF-2.8682341635274144
asS'accel_x'
p10
F0
sS'accel_y'
p11
F0
sS'maxAccel'
p12
I2
sS'maxVel'
p13
F0.5
sS'age'
p14
I0
sS'radius'
p15
I2
sS'gener'
p16
S'm'
sS'lastScale'
p17
F5.4999999999999956
sS'energy'
p18
I1
sb.(i__main__
Data_mobile
p1
(dp2
S'vel_y'
p3
I0
sS'vel_x'
p4
I0
sS'pos_x'
p5
I-9999
sS'pos_y'
p6
I9999
sS'isAlive'
p7
I00
sS'geno'
p8
(lp9
F0.38488362201253334
aF-1.5111900326421965
aF-0.21301629094513319
aF4.7876776572727131
aF0.79594630547905953
aF-2.8682341635274144
asS'accel_x'
p10
F0
sS'accel_y'
p11
F0
sS'maxAccel'
p12
I2
sS'maxVel'
p13
F0.5
sS'age'
p14
I0
sS'radius'
p15
I2
sS'gener'
p16
S'm'
sS'lastScale'
p17
F5.4999999999999956
sS'energy'
p18
I1
sb.(i__main__
Data_mobile
p1
(dp2
S'vel_y'
p3
I0
sS'vel_x'
p4
I0
sS'pos_x'
p5
I-9999
sS'pos_y'
p6
I9999
sS'isAlive'
p7
I00
sS'geno'
p8
(lp9
F0.38488362201253334
aF-1.5266697737832846
aF-3.9931461519608655
aF4.7374171391059665
aF0.79594630547905953
aF-3.3455065757584403
asS'accel_x'
p10
F0
sS'accel_y'
p11
F0
sS'maxAccel'
p12
I2
sS'maxVel'
p13
F0.5
sS'age'
p14
I0
sS'radius'
p15
I2
sS'gener'
p16
S'm'
sS'lastScale'
p17
F5.1999999999999957
sS'energy'
p18
I1
sb.(i__main__
Data_mobile
p1
(dp2
S'vel_y'
p3
I0
sS'vel_x'
p4
I0
sS'pos_x'
p5
I-9999
sS'pos_y'
p6
I9999
sS'isAlive'
p7
I00
sS'geno'
p8
(lp9
F0.38488362201253334
aF-2.0012503732947344
aF-0.21301629094513319
aF4.7876776572727131
aF0.79594630547905953
aF-2.8682341635274144
asS'accel_x'
p10
F0
sS'accel_y'
p11
F0
sS'maxAccel'
p12
I2
sS'maxVel'
p13
F0.5
sS'age'
p14
I0
sS'radius'
p15
I2
sS'gener'
p16
S'm'
sS'lastScale'
p17
F5.1999999999999957
sS'energy'
p18
I1
sb.(i__main__
Data_mobile
p1
(dp2
S'vel_y'
p3
I0
sS'vel_x'
p4
I0
sS'pos_x'
p5
I-9999
sS'pos_y'
p6
I9999
sS'isAlive'
p7
I00
sS'geno'
p8
(lp9
F-0.037314502308040787
aF-1.3882971266228905
aF-4.1653632727227956
aF4.7320391676829523
aF0.3199328896011
aF3.2675833638506617
asS'accel_x'
p10
F0
sS'accel_y'
p11
F0
sS'maxAccel'
p12
I2
sS'maxVel'
p13
F0.5
sS'age'
p14
I0
sS'radius'
p15
I2
sS'gener'
p16
S'm'
sS'lastScale'
p17
F5.4999999999999956
sS'energy'
p18
I1
sb.(i__main__
Data_mobile
p1
(dp2
S'vel_y'
p3
I0
sS'vel_x'
p4
I0
sS'pos_x'
p5
I-9999
sS'pos_y'
p6
I9999
sS'isAlive'
p7
I00
sS'geno'
p8
(lp9
F-0.037314502308040787
aF-1.5266697737832846
aF-4.1653632727227956
aF4.7876776572727131
aF0.3199328896011
aF3.2675833638506617
asS'accel_x'
p10
F0
sS'accel_y'
p11
F0
sS'maxAccel'
p12
I2
sS'maxVel'
p13
F0.5
sS'age'
p14
I0
sS'radius'
p15
I2
sS'gener'
p16
S'm'
sS'lastScale'
p17
F5.4999999999999956
sS'energy'
p18
I1
sb.(i__main__
Data_mobile
p1
(dp2
S'vel_y'
p3
I0
sS'vel_x'
p4
I0
sS'pos_x'
p5
I-9999
sS'pos_y'
p6
I9999
sS'isAlive'
p7
I00
sS'geno'
p8
(lp9
F-0.037314502308040787
aF-1.5266697737832846
aF-3.9931461519608655
aF4.7374171391059665
aF-0.15291496651288961
aF3.4765576312883919
asS'accel_x'
p10
F0
sS'accel_y'
p11
F0
sS'maxAccel'
p12
I2
sS'maxVel'
p13
F0.5
sS'age'
p14
I0
sS'radius'
p15
I2
sS'gener'
p16
S'm'
sS'lastScale'
p17
F5.4999999999999956
sS'energy'
p18
I1
sb.(i__main__
Data_mobile
p1
(dp2
S'vel_y'
p3
I0
sS'vel_x'
p4
I0
sS'pos_x'
p5
I-9999
sS'pos_y'
p6
I9999
sS'isAlive'
p7
I00
sS'geno'
p8
(lp9
F0.38488362201253334
aF-1.5266697737832846
aF-0.21301629094513319
aF4.7374171391059665
aF0.79594630547905953
aF-2.8682341635274144
asS'accel_x'
p10
F0
sS'accel_y'
p11
F0
sS'maxAccel'
p12
I2
sS'maxVel'
p13
F0.5
sS'age'
p14
I0
sS'radius'
p15
I2
sS'gener'
p16
S'm'
sS'lastScale'
p17
F5.4999999999999956
sS'energy'
p18
I1
sb.(i__main__
Data_mobile
p1
(dp2
S'vel_y'
p3
I0
sS'vel_x'
p4
I0
sS'pos_x'
p5
I-9999
sS'pos_y'
p6
I9999
sS'isAlive'
p7
I00
sS'geno'
p8
(lp9
F0.38488362201253334
aF-1.5266697737832846
aF-3.9931461519608655
aF4.7374171391059665
aF-0.15291496651288961
aF3.2675833638506617
asS'accel_x'
p10
F0
sS'accel_y'
p11
F0
sS'maxAccel'
p12
I2
sS'maxVel'
p13
F0.5
sS'age'
p14
I0
sS'radius'
p15
I2
sS'gener'
p16
S'm'
sS'lastScale'
p17
F5.4999999999999956
sS'energy'
p18
I1
sb.(i__main__
Data_mobile
p1
(dp2
S'vel_y'
p3
I0
sS'vel_x'
p4
I0
sS'pos_x'
p5
I-9999
sS'pos_y'
p6
I9999
sS'isAlive'
p7
I00
sS'geno'
p8
(lp9
F-0.037314502308040787
aF-1.5266697737832846
aF-0.21301629094513319
aF4.7374171391059665
aF0.79594630547905953
aF3.2675833638506617
asS'accel_x'
p10
F0
sS'accel_y'
p11
F0
sS'maxAccel'
p12
I2
sS'maxVel'
p13
F0.5
sS'age'
p14
I0
sS'radius'
p15
I2
sS'gener'
p16
S'm'
sS'lastScale'
p17
F5.4999999999999956
sS'energy'
p18
I1
sb.(i__main__
Data_mobile
p1
(dp2
S'vel_y'
p3
I0
sS'vel_x'
p4
I0
sS'pos_x'
p5
I-9999
sS'pos_y'
p6
I9999
sS'isAlive'
p7
I00
sS'geno'
p8
(lp9
F-0.037314502308040787
aF-1.5266697737832846
aF-3.9931461519608655
aF4.7374171391059665
aF0.68492273325884323
aF-2.9941242768656862
asS'accel_x'
p10
F0
sS'accel_y'
p11
F0
sS'maxAccel'
p12
I2
sS'maxVel'
p13
F0.5
sS'age'
p14
I0
sS'radius'
p15
I2
sS'gener'
p16
S'm'
sS'lastScale'
p17
F5.4999999999999956
sS'energy'
p18
I1
sb.(i__main__
Data_mobile
p1
(dp2
S'vel_y'
p3
I0
sS'vel_x'
p4
I0
sS'pos_x'
p5
I-9999
sS'pos_y'
p6
I9999
sS'isAlive'
p7
I00
sS'geno'
p8
(lp9
F0.38488362201253334
aF-1.5266697737832846
aF-3.9931461519608655
aF4.7374171391059665
aF0.3199328896011
aF2.8136523057006344
asS'accel_x'
p10
F0
sS'accel_y'
p11
F0
sS'maxAccel'
p12
I2
sS'maxVel'
p13
F0.5
sS'age'
p14
I0
sS'radius'
p15
I2
sS'gener'
p16
S'm'
sS'lastScale'
p17
F5.1999999999999957
sS'energy'
p18
I1
sb.(i__main__
Data_mobile
p1
(dp2
S'vel_y'
p3
I0
sS'vel_x'
p4
I0
sS'pos_x'
p5
I-9999
sS'pos_y'
p6
I9999
sS'isAlive'
p7
I00
sS'geno'
p8
(lp9
F0.18211450057161005
aF-1.5266697737832846
aF-3.9931461519608655
aF4.7374171391059665
aF0.79594630547905953
aF-2.8682341635274144
asS'accel_x'
p10
F0
sS'accel_y'
p11
F0
sS'maxAccel'
p12
I2
sS'maxVel'
p13
F0.5
sS'age'
p14
I0
sS'radius'
p15
I2
sS'gener'
p16
S'm'
sS'lastScale'
p17
F5.4999999999999956
sS'energy'
p18
I1
sb.(i__main__
Data_mobile
p1
(dp2
S'vel_y'
p3
I0
sS'vel_x'
p4
I0
sS'pos_x'
p5
I-9999
sS'pos_y'
p6
I9999
sS'isAlive'
p7
I00
sS'geno'
p8
(lp9
F-0.037314502308040787
aF-1.5266697737832846
aF-3.9931461519608655
aF4.7876776572727131
aF0.79594630547905953
aF3.2675833638506617
asS'accel_x'
p10
F0
sS'accel_y'
p11
F0
sS'maxAccel'
p12
I2
sS'maxVel'
p13
F0.5
sS'age'
p14
I0
sS'radius'
p15
I2
sS'gener'
p16
S'm'
sS'lastScale'
p17
F5.4999999999999956
sS'energy'
p18
I1
sb.(i__main__
Data_mobile
p1
(dp2
S'vel_y'
p3
I0
sS'vel_x'
p4
I0
sS'pos_x'
p5
I-9999
sS'pos_y'
p6
I9999
sS'isAlive'
p7
I00
sS'geno'
p8
(lp9
F-0.037314502308040787
aF-1.2693304591744092
aF-3.9931461519608655
aF4.7876776572727131
aF0.79594630547905953
aF3.2675833638506617
asS'accel_x'
p10
F0
sS'accel_y'
p11
F0
sS'maxAccel'
p12
I2
sS'maxVel'
p13
F0.5
sS'age'
p14
I0
sS'radius'
p15
I2
sS'gener'
p16
S'm'
sS'lastScale'
p17
F5.4999999999999956
sS'energy'
p18
I1
sb.(i__main__
Data_mobile
p1
(dp2
S'vel_y'
p3
I0
sS'vel_x'
p4
I0
sS'pos_x'
p5
I-9999
sS'pos_y'
p6
I9999
sS'isAlive'
p7
I00
sS'geno'
p8
(lp9
F-0.037314502308040787
aF-1.5266697737832846
aF-4.1653632727227956
aF4.3302209279461037
aF0.3199328896011
aF3.2675833638506617
asS'accel_x'
p10
F0
sS'accel_y'
p11
F0
sS'maxAccel'
p12
I2
sS'maxVel'
p13
F0.5
sS'age'
p14
I0
sS'radius'
p15
I2
sS'gener'
p16
S'm'
sS'lastScale'
p17
F5.4999999999999956
sS'energy'
p18
I1
sb.(i__main__
Data_mobile
p1
(dp2
S'vel_y'
p3
I0
sS'vel_x'
p4
I0
sS'pos_x'
p5
I-9999
sS'pos_y'
p6
I9999
sS'isAlive'
p7
I00
sS'geno'
p8
(lp9
F-0.037314502308040787
aF-1.5266697737832846
aF-3.9931461519608655
aF4.7876776572727131
aF0.79594630547905953
aF3.2675833638506617
asS'accel_x'
p10
F0
sS'accel_y'
p11
F0
sS'maxAccel'
p12
I2
sS'maxVel'
p13
F0.5
sS'age'
p14
I0
sS'radius'
p15
I2
sS'gener'
p16
S'm'
sS'lastScale'
p17
F5.4999999999999956
sS'energy'
p18
I1
sb.(i__main__
Data_mobile
p1
(dp2
S'vel_y'
p3
I0
sS'vel_x'
p4
I0
sS'pos_x'
p5
I-9999
sS'pos_y'
p6
I9999
sS'isAlive'
p7
I00
sS'geno'
p8
(lp9
F0.38488362201253334
aF-1.5266697737832846
aF-4.1653632727227956
aF4.7074867021701401
aF0.79594630547905953
aF3.2675833638506617
asS'accel_x'
p10
F0
sS'accel_y'
p11
F0
sS'maxAccel'
p12
I2
sS'maxVel'
p13
F0.5
sS'age'
p14
I0
sS'radius'
p15
I2
sS'gener'
p16
S'm'
sS'lastScale'
p17
F5.4999999999999956
sS'energy'
p18
I1
sb.(i__main__
Data_mobile
p1
(dp2
S'vel_y'
p3
I0
sS'vel_x'
p4
I0
sS'pos_x'
p5
I-9999
sS'pos_y'
p6
I9999
sS'isAlive'
p7
I00
sS'geno'
p8
(lp9
F-0.037314502308040787
aF-1.5266697737832846
aF-3.9931461519608655
aF4.7374171391059665
aF0.68492273325884323
aF-2.9941242768656862
asS'accel_x'
p10
F0
sS'accel_y'
p11
F0
sS'maxAccel'
p12
I2
sS'maxVel'
p13
F0.5
sS'age'
p14
I0
sS'radius'
p15
I2
sS'gener'
p16
S'm'
sS'lastScale'
p17
F5.4999999999999956
sS'energy'
p18
I1
sb.(i__main__
Data_mobile
p1
(dp2
S'vel_y'
p3
I0
sS'vel_x'
p4
I0
sS'pos_x'
p5
I-9999
sS'pos_y'
p6
I9999
sS'isAlive'
p7
I00
sS'geno'
p8
(lp9
F-0.037314502308040787
aF-1.5266697737832846
aF-3.9931461519608655
aF4.7876776572727131
aF0.79594630547905953
aF3.2675833638506617
asS'accel_x'
p10
F0
sS'accel_y'
p11
F0
sS'maxAccel'
p12
I2
sS'maxVel'
p13
F0.5
sS'age'
p14
I0
sS'radius'
p15
I2
sS'gener'
p16
S'm'
sS'lastScale'
p17
F5.4999999999999956
sS'energy'
p18
I1
sb.(i__main__
Data_mobile
p1
(dp2
S'vel_y'
p3
I0
sS'vel_x'
p4
I0
sS'pos_x'
p5
I-9999
sS'pos_y'
p6
I9999
sS'isAlive'
p7
I00
sS'geno'
p8
(lp9
F-0.037314502308040787
aF-1.5266697737832846
aF-3.9931461519608655
aF4.7374171391059665
aF0.68492273325884323
aF-2.9941242768656862
asS'accel_x'
p10
F0
sS'accel_y'
p11
F0
sS'maxAccel'
p12
I2
sS'maxVel'
p13
F0.5
sS'age'
p14
I0
sS'radius'
p15
I2
sS'gener'
p16
S'm'
sS'lastScale'
p17
F5.4999999999999956
sS'energy'
p18
I1
sb.(i__main__
Data_mobile
p1
(dp2
S'vel_y'
p3
I0
sS'vel_x'
p4
I0
sS'pos_x'
p5
I-9999
sS'pos_y'
p6
I9999
sS'isAlive'
p7
I00
sS'geno'
p8
(lp9
F-0.037314502308040787
aF-1.1483068257252507
aF-3.9931461519608655
aF4.7876776572727131
aF0.79594630547905953
aF3.2675833638506617
asS'accel_x'
p10
F0
sS'accel_y'
p11
F0
sS'maxAccel'
p12
I2
sS'maxVel'
p13
F0.5
sS'age'
p14
I0
sS'radius'
p15
I2
sS'gener'
p16
S'm'
sS'lastScale'
p17
F5.4999999999999956
sS'energy'
p18
I1
sb.(i__main__
Data_mobile
p1
(dp2
S'vel_y'
p3
I0
sS'vel_x'
p4
I0
sS'pos_x'
p5
I-9999
sS'pos_y'
p6
I9999
sS'isAlive'
p7
I00
sS'geno'
p8
(lp9
F-0.037314502308040787
aF-1.5266697737832846
aF-4.0041886832446707
aF4.7876776572727131
aF0.3199328896011
aF-3.1663314063108232
asS'accel_x'
p10
F0
sS'accel_y'
p11
F0
sS'maxAccel'
p12
I2
sS'maxVel'
p13
F0.5
sS'age'
p14
I0
sS'radius'
p15
I2
sS'gener'
p16
S'm'
sS'lastScale'
p17
F5.4999999999999956
sS'energy'
p18
I1
sb.(i__main__
Data_mobile
p1
(dp2
S'vel_y'
p3
I0
sS'vel_x'
p4
I0
sS'pos_x'
p5
I-9999
sS'pos_y'
p6
I9999
sS'isAlive'
p7
I00
sS'geno'
p8
(lp9
F-0.037314502308040787
aF-1.5266697737832846
aF-3.9931461519608655
aF4.988932533554296
aF0.79594630547905953
aF-2.9941242768656862
asS'accel_x'
p10
F0
sS'accel_y'
p11
F0
sS'maxAccel'
p12
I2
sS'maxVel'
p13
F0.5
sS'age'
p14
I0
sS'radius'
p15
I2
sS'gener'
p16
S'm'
sS'lastScale'
p17
F5.4999999999999956
sS'energy'
p18
I1
sb.(i__main__
Data_mobile
p1
(dp2
S'vel_y'
p3
I0
sS'vel_x'
p4
I0
sS'pos_x'
p5
I-9999
sS'pos_y'
p6
I9999
sS'isAlive'
p7
I00
sS'geno'
p8
(lp9
F-0.037314502308040787
aF-1.5266697737832846
aF-3.9931461519608655
aF4.7320391676829523
aF-0.0017243986584334348
aF3.2675833638506617
asS'accel_x'
p10
F0
sS'accel_y'
p11
F0
sS'maxAccel'
p12
I2
sS'maxVel'
p13
F0.5
sS'age'
p14
I0
sS'radius'
p15
I2
sS'gener'
p16
S'm'
sS'lastScale'
p17
F5.4999999999999956
sS'energy'
p18
I1
sb.(i__main__
Data_mobile
p1
(dp2
S'vel_y'
p3
I0
sS'vel_x'
p4
I0
sS'pos_x'
p5
I-9999
sS'pos_y'
p6
I9999
sS'isAlive'
p7
I00
sS'geno'
p8
(lp9
F0.27887700152121908
aF-0.12244834053052323
aF-4.1653632727227956
aF4.7876776572727131
aF0.79594630547905953
aF-2.9941242768656862
asS'accel_x'
p10
F0
sS'accel_y'
p11
F0
sS'maxAccel'
p12
I2
sS'maxVel'
p13
F0.5
sS'age'
p14
I0
sS'radius'
p15
I2
sS'gener'
p16
S'm'
sS'lastScale'
p17
F5.4999999999999956
sS'energy'
p18
I1
sb.(i__main__
Data_mobile
p1
(dp2
S'vel_y'
p3
I0
sS'vel_x'
p4
I0
sS'pos_x'
p5
I-9999
sS'pos_y'
p6
I9999
sS'isAlive'
p7
I00
sS'geno'
p8
(lp9
F0.38488362201253334
aF-1.673973958103399
aF-3.9931461519608655
aF4.7876776572727131
aF0.79594630547905953
aF3.2675833638506617
asS'accel_x'
p10
F0
sS'accel_y'
p11
F0
sS'maxAccel'
p12
I2
sS'maxVel'
p13
F0.5
sS'age'
p14
I0
sS'radius'
p15
I2
sS'gener'
p16
S'm'
sS'lastScale'
p17
F5.4999999999999956
sS'energy'
p18
I1
sb.(i__main__
Data_mobile
p1
(dp2
S'vel_y'
p3
I0
sS'vel_x'
p4
I0
sS'pos_x'
p5
I-9999
sS'pos_y'
p6
I9999
sS'isAlive'
p7
I00
sS'geno'
p8
(lp9
F0.38488362201253334
aF-1.5266697737832846
aF-4.1653632727227956
aF4.7876776572727131
aF0.61133724853509297
aF-2.8682341635274144
asS'accel_x'
p10
F0
sS'accel_y'
p11
F0
sS'maxAccel'
p12
I2
sS'maxVel'
p13
F0.5
sS'age'
p14
I0
sS'radius'
p15
I2
sS'gener'
p16
S'm'
sS'lastScale'
p17
F5.4999999999999956
sS'energy'
p18
I1
sb.(i__main__
Data_mobile
p1
(dp2
S'vel_y'
p3
I0
sS'vel_x'
p4
I0
sS'pos_x'
p5
I-9999
sS'pos_y'
p6
I9999
sS'isAlive'
p7
I00
sS'geno'
p8
(lp9
F0.38488362201253334
aF-1.5266697737832846
aF-3.9931461519608655
aF4.7876776572727131
aF0.79594630547905953
aF-3.3455065757584403
asS'accel_x'
p10
F0
sS'accel_y'
p11
F0
sS'maxAccel'
p12
I2
sS'maxVel'
p13
F0.5
sS'age'
p14
I0
sS'radius'
p15
I2
sS'gener'
p16
S'm'
sS'lastScale'
p17
F5.4999999999999956
sS'energy'
p18
I1
sb.(i__main__
Data_mobile
p1
(dp2
S'vel_y'
p3
I0
sS'vel_x'
p4
I0
sS'pos_x'
p5
I-9999
sS'pos_y'
p6
I9999
sS'isAlive'
p7
I00
sS'geno'
p8
(lp9
F-0.039389090606090638
aF-1.5266697737832846
aF-4.1653632727227956
aF4.7876776572727131
aF0.79594630547905953
aF-2.8682341635274144
asS'accel_x'
p10
F0
sS'accel_y'
p11
F0
sS'maxAccel'
p12
I2
sS'maxVel'
p13
F0.5
sS'age'
p14
I0
sS'radius'
p15
I2
sS'gener'
p16
S'm'
sS'lastScale'
p17
F5.4999999999999956
sS'energy'
p18
I1
sb.(i__main__
Data_mobile
p1
(dp2
S'vel_y'
p3
I0
sS'vel_x'
p4
I0
sS'pos_x'
p5
I-9999
sS'pos_y'
p6
I9999
sS'isAlive'
p7
I00
sS'geno'
p8
(lp9
F-0.039389090606090638
aF-1.5266697737832846
aF-3.9931461519608655
aF4.7876776572727131
aF0.79594630547905953
aF3.2675833638506617
asS'accel_x'
p10
F0
sS'accel_y'
p11
F0
sS'maxAccel'
p12
I2
sS'maxVel'
p13
F0.5
sS'age'
p14
I0
sS'radius'
p15
I2
sS'gener'
p16
S'm'
sS'lastScale'
p17
F5.4999999999999956
sS'energy'
p18
I1
sb.(i__main__
Data_mobile
p1
(dp2
S'vel_y'
p3
I0
sS'vel_x'
p4
I0
sS'pos_x'
p5
I-9999
sS'pos_y'
p6
I9999
sS'isAlive'
p7
I00
sS'geno'
p8
(lp9
F0.38488362201253334
aF-1.5266697737832846
aF-4.1653632727227956
aF4.7876776572727131
aF0.79594630547905953
aF-2.9941242768656862
asS'accel_x'
p10
F0
sS'accel_y'
p11
F0
sS'maxAccel'
p12
I2
sS'maxVel'
p13
F0.5
sS'age'
p14
I0
sS'radius'
p15
I2
sS'gener'
p16
S'm'
sS'lastScale'
p17
F5.4999999999999956
sS'energy'
p18
I1
sb.(i__main__
Data_mobile
p1
(dp2
S'vel_y'
p3
I0
sS'vel_x'
p4
I0
sS'pos_x'
p5
I-9999
sS'pos_y'
p6
I9999
sS'isAlive'
p7
I00
sS'geno'
p8
(lp9
F-0.037314502308040787
aF-1.5266697737832846
aF-4.1653632727227956
aF4.7876776572727131
aF0.79594630547905953
aF-2.9941242768656862
asS'accel_x'
p10
F0
sS'accel_y'
p11
F0
sS'maxAccel'
p12
I2
sS'maxVel'
p13
F0.5
sS'age'
p14
I0
sS'radius'
p15
I2
sS'gener'
p16
S'm'
sS'lastScale'
p17
F5.1999999999999957
sS'energy'
p18
I1
sb.(i__main__
Data_mobile
p1
(dp2
S'vel_y'
p3
I0
sS'vel_x'
p4
I0
sS'pos_x'
p5
I-9999
sS'pos_y'
p6
I9999
sS'isAlive'
p7
I00
sS'geno'
p8
(lp9
F0.38488362201253334
aF-1.5266697737832846
aF-3.9931461519608655
aF4.7876776572727131
aF0.79594630547905953
aF-2.9941242768656862
asS'accel_x'
p10
F0
sS'accel_y'
p11
F0
sS'maxAccel'
p12
I2
sS'maxVel'
p13
F0.5
sS'age'
p14
I0
sS'radius'
p15
I2
sS'gener'
p16
S'm'
sS'lastScale'
p17
F5.4999999999999956
sS'energy'
p18
I1
sb.(i__main__
Data_mobile
p1
(dp2
S'vel_y'
p3
I0
sS'vel_x'
p4
I0
sS'pos_x'
p5
I-9999
sS'pos_y'
p6
I9999
sS'isAlive'
p7
I00
sS'geno'
p8
(lp9
F-0.037314502308040787
aF-1.5266697737832846
aF-4.3343754587170364
aF4.7374171391059665
aF0.79594630547905953
aF-2.8682341635274144
asS'accel_x'
p10
F0
sS'accel_y'
p11
F0
sS'maxAccel'
p12
I2
sS'maxVel'
p13
F0.5
sS'age'
p14
I0
sS'radius'
p15
I2
sS'gener'
p16
S'm'
sS'lastScale'
p17
F5.4999999999999956
sS'energy'
p18
I1
sb.(i__main__
Data_mobile
p1
(dp2
S'vel_y'
p3
I0
sS'vel_x'
p4
I0
sS'pos_x'
p5
I-9999
sS'pos_y'
p6
I9999
sS'isAlive'
p7
I00
sS'geno'
p8
(lp9
F-0.037314502308040787
aF-1.5266697737832846
aF-4.2108964698652525
aF4.7320391676829523
aF0.79594630547905953
aF-2.9941242768656862
asS'accel_x'
p10
F0
sS'accel_y'
p11
F0
sS'maxAccel'
p12
I2
sS'maxVel'
p13
F0.5
sS'age'
p14
I0
sS'radius'
p15
I2
sS'gener'
p16
S'm'
sS'lastScale'
p17
F5.4999999999999956
sS'energy'
p18
I1
sb.(i__main__
Data_mobile
p1
(dp2
S'vel_y'
p3
I0
sS'vel_x'
p4
I0
sS'pos_x'
p5
I-9999
sS'pos_y'
p6
I9999
sS'isAlive'
p7
I00
sS'geno'
p8
(lp9
F-0.037314502308040787
aF-1.5266697737832846
aF-4.4439884048756397
aF4.7876776572727131
aF0.79594630547905953
aF-2.9941242768656862
asS'accel_x'
p10
F0
sS'accel_y'
p11
F0
sS'maxAccel'
p12
I2
sS'maxVel'
p13
F0.5
sS'age'
p14
I0
sS'radius'
p15
I2
sS'gener'
p16
S'm'
sS'lastScale'
p17
F5.4999999999999956
sS'energy'
p18
I1
sb.(i__main__
Data_mobile
p1
(dp2
S'vel_y'
p3
I0
sS'vel_x'
p4
I0
sS'pos_x'
p5
I-9999
sS'pos_y'
p6
I9999
sS'isAlive'
p7
I00
sS'geno'
p8
(lp9
F-0.037314502308040787
aF-1.5266697737832846
aF-0.21301629094513319
aF4.7876776572727131
aF0.79594630547905953
aF-2.8682341635274144
asS'accel_x'
p10
F0
sS'accel_y'
p11
F0
sS'maxAccel'
p12
I2
sS'maxVel'
p13
F0.5
sS'age'
p14
I0
sS'radius'
p15
I2
sS'gener'
p16
S'm'
sS'lastScale'
p17
F5.4999999999999956
sS'energy'
p18
I1
sb.(i__main__
Data_mobile
p1
(dp2
S'vel_y'
p3
I0
sS'vel_x'
p4
I0
sS'pos_x'
p5
I-9999
sS'pos_y'
p6
I9999
sS'isAlive'
p7
I00
sS'geno'
p8
(lp9
F0.38488362201253334
aF-2.0012503732947344
aF-4.1653632727227956
aF4.7876776572727131
aF0.3199328896011
aF3.2675833638506617
asS'accel_x'
p10
F0
sS'accel_y'
p11
F0
sS'maxAccel'
p12
I2
sS'maxVel'
p13
F0.5
sS'age'
p14
I0
sS'radius'
p15
I2
sS'gener'
p16
S'm'
sS'lastScale'
p17
F5.4999999999999956
sS'energy'
p18
I1
sb.(i__main__
Data_mobile
p1
(dp2
S'vel_y'
p3
I0
sS'vel_x'
p4
I0
sS'pos_x'
p5
I-9999
sS'pos_y'
p6
I9999
sS'isAlive'
p7
I00
sS'geno'
p8
(lp9
F1.5620193373150286
aF-0.12244834053052323
aF-3.9931461519608655
aF4.7374171391059665
aF0.3199328896011
aF3.2675833638506617
asS'accel_x'
p10
F0
sS'accel_y'
p11
F0
sS'maxAccel'
p12
I2
sS'maxVel'
p13
F0.5
sS'age'
p14
I0
sS'radius'
p15
I2
sS'gener'
p16
S'm'
sS'lastScale'
p17
F5.4999999999999956
sS'energy'
p18
I1
sb.(i__main__
Data_mobile
p1
(dp2
S'vel_y'
p3
I0
sS'vel_x'
p4
I0
sS'pos_x'
p5
I-9999
sS'pos_y'
p6
I9999
sS'isAlive'
p7
I00
sS'geno'
p8
(lp9
F-0.037314502308040787
aF-1.5266697737832846
aF-3.9931461519608655
aF4.7876776572727131
aF0.79594630547905953
aF-2.9941242768656862
asS'accel_x'
p10
F0
sS'accel_y'
p11
F0
sS'maxAccel'
p12
I2
sS'maxVel'
p13
F0.5
sS'age'
p14
I0
sS'radius'
p15
I2
sS'gener'
p16
S'm'
sS'lastScale'
p17
F5.4999999999999956
sS'energy'
p18
I1
sb.(i__main__
Data_mobile
p1
(dp2
S'vel_y'
p3
I0
sS'vel_x'
p4
I0
sS'pos_x'
p5
I-9999
sS'pos_y'
p6
I9999
sS'isAlive'
p7
I00
sS'geno'
p8
(lp9
F-0.037314502308040787
aF-1.5266697737832846
aF-3.7653069670462389
aF4.988932533554296
aF0.79594630547905953
aF-2.9941242768656862
asS'accel_x'
p10
F0
sS'accel_y'
p11
F0
sS'maxAccel'
p12
I2
sS'maxVel'
p13
F0.5
sS'age'
p14
I0
sS'radius'
p15
I2
sS'gener'
p16
S'm'
sS'lastScale'
p17
F5.4999999999999956
sS'energy'
p18
I1
sb.(i__main__
Data_mobile
p1
(dp2
S'vel_y'
p3
I0
sS'vel_x'
p4
I0
sS'pos_x'
p5
I-9999
sS'pos_y'
p6
I9999
sS'isAlive'
p7
I00
sS'geno'
p8
(lp9
F-0.037314502308040787
aF-1.5266697737832846
aF-4.1653632727227956
aF4.7876776572727131
aF0.79594630547905953
aF-2.9941242768656862
asS'accel_x'
p10
F0
sS'accel_y'
p11
F0
sS'maxAccel'
p12
I2
sS'maxVel'
p13
F0.5
sS'age'
p14
I0
sS'radius'
p15
I2
sS'gener'
p16
S'm'
sS'lastScale'
p17
F5.4999999999999956
sS'energy'
p18
I1
sb.(i__main__
Data_mobile
p1
(dp2
S'vel_y'
p3
I0
sS'vel_x'
p4
I0
sS'pos_x'
p5
I-9999
sS'pos_y'
p6
I9999
sS'isAlive'
p7
I00
sS'geno'
p8
(lp9
F-0.037314502308040787
aF-2.0145554359766922
aF-0.21301629094513319
aF4.7374171391059665
aF0.79594630547905953
aF-2.565196587601505
asS'accel_x'
p10
F0
sS'accel_y'
p11
F0
sS'maxAccel'
p12
I2
sS'maxVel'
p13
F0.5
sS'age'
p14
I0
sS'radius'
p15
I2
sS'gener'
p16
S'm'
sS'lastScale'
p17
F5.4999999999999956
sS'energy'
p18
I1
sb.(i__main__
Data_mobile
p1
(dp2
S'vel_y'
p3
I0
sS'vel_x'
p4
I0
sS'pos_x'
p5
I-9999
sS'pos_y'
p6
I9999
sS'isAlive'
p7
I00
sS'geno'
p8
(lp9
F1.5620193373150286
aF-0.12244834053052323
aF-3.9931461519608655
aF4.7374171391059665
aF0.79594630547905953
aF-2.9941242768656862
asS'accel_x'
p10
F0
sS'accel_y'
p11
F0
sS'maxAccel'
p12
I2
sS'maxVel'
p13
F0.5
sS'age'
p14
I0
sS'radius'
p15
I2
sS'gener'
p16
S'm'
sS'lastScale'
p17
F5.4999999999999956
sS'energy'
p18
I1
sb.(i__main__
Data_mobile
p1
(dp2
S'vel_y'
p3
I0
sS'vel_x'
p4
I0
sS'pos_x'
p5
I-9999
sS'pos_y'
p6
I9999
sS'isAlive'
p7
I00
sS'geno'
p8
(lp9
F0.38488362201253334
aF-1.5266697737832846
aF-4.1653632727227956
aF4.7876776572727131
aF0.79594630547905953
aF3.2675833638506617
asS'accel_x'
p10
F0
sS'accel_y'
p11
F0
sS'maxAccel'
p12
I2
sS'maxVel'
p13
F0.5
sS'age'
p14
I0
sS'radius'
p15
I2
sS'gener'
p16
S'm'
sS'lastScale'
p17
F5.4999999999999956
sS'energy'
p18
I1
sb.(i__main__
Data_mobile
p1
(dp2
S'vel_y'
p3
I0
sS'vel_x'
p4
I0
sS'pos_x'
p5
I-9999
sS'pos_y'
p6
I9999
sS'isAlive'
p7
I00
sS'geno'
p8
(lp9
F0.38488362201253334
aF-2.0012503732947344
aF-4.1653632727227956
aF4.7876776572727131
aF0.79594630547905953
aF-2.9941242768656862
asS'accel_x'
p10
F0
sS'accel_y'
p11
F0
sS'maxAccel'
p12
I2
sS'maxVel'
p13
F0.5
sS'age'
p14
I0
sS'radius'
p15
I2
sS'gener'
p16
S'm'
sS'lastScale'
p17
F5.1999999999999957
sS'energy'
p18
I1
sb.(i__main__
Data_mobile
p1
(dp2
S'vel_y'
p3
I0
sS'vel_x'
p4
I0
sS'pos_x'
p5
I-9999
sS'pos_y'
p6
I9999
sS'isAlive'
p7
I00
sS'geno'
p8
(lp9
F0.38488362201253334
aF-1.5266697737832846
aF-0.21301629094513319
aF4.5513928607528147
aF0.79594630547905953
aF-2.8682341635274144
asS'accel_x'
p10
F0
sS'accel_y'
p11
F0
sS'maxAccel'
p12
I2
sS'maxVel'
p13
F0.5
sS'age'
p14
I0
sS'radius'
p15
I2
sS'gener'
p16
S'm'
sS'lastScale'
p17
F5.1999999999999957
sS'energy'
p18
I1
sb.(i__main__
Data_mobile
p1
(dp2
S'vel_y'
p3
I0
sS'vel_x'
p4
I0
sS'pos_x'
p5
I-9999
sS'pos_y'
p6
I9999
sS'isAlive'
p7
I00
sS'geno'
p8
(lp9
F-0.037314502308040787
aF-1.5266697737832846
aF-0.21301629094513319
aF4.7374171391059665
aF0.76510408728171997
aF-2.9941242768656862
asS'accel_x'
p10
F0
sS'accel_y'
p11
F0
sS'maxAccel'
p12
I2
sS'maxVel'
p13
F0.5
sS'age'
p14
I0
sS'radius'
p15
I2
sS'gener'
p16
S'm'
sS'lastScale'
p17
F5.1999999999999957
sS'energy'
p18
I1
sb.(i__main__
Data_mobile
p1
(dp2
S'vel_y'
p3
I0
sS'vel_x'
p4
I0
sS'pos_x'
p5
I-9999
sS'pos_y'
p6
I9999
sS'isAlive'
p7
I00
sS'geno'
p8
(lp9
F0.38488362201253334
aF-1.5266697737832846
aF-0.21301629094513319
aF4.9733067140780127
aF0.79594630547905953
aF-2.8682341635274144
asS'accel_x'
p10
F0
sS'accel_y'
p11
F0
sS'maxAccel'
p12
I2
sS'maxVel'
p13
F0.5
sS'age'
p14
I0
sS'radius'
p15
I2
sS'gener'
p16
S'm'
sS'lastScale'
p17
F5.0999999999999961
sS'energy'
p18
I1
sb.(i__main__
Data_mobile
p1
(dp2
S'vel_y'
p3
I0
sS'vel_x'
p4
I0
sS'pos_x'
p5
I-9999
sS'pos_y'
p6
I9999
sS'isAlive'
p7
I00
sS'geno'
p8
(lp9
F1.5620193373150286
aF-0.12244834053052323
aF-3.9931461519608655
aF4.7374171391059665
aF0.3199328896011
aF3.2675833638506617
asS'accel_x'
p10
F0
sS'accel_y'
p11
F0
sS'maxAccel'
p12
I2
sS'maxVel'
p13
F0.5
sS'age'
p14
I0
sS'radius'
p15
I2
sS'gener'
p16
S'm'
sS'lastScale'
p17
F4.0999999999999961
sS'energy'
p18
I1
sb.(i__main__
Data_mobile
p1
(dp2
S'vel_y'
p3
I0
sS'vel_x'
p4
I0
sS'pos_x'
p5
I-9999
sS'pos_y'
p6
I9999
sS'isAlive'
p7
I00
sS'geno'
p8
(lp9
F-0.037314502308040787
aF-1.5266697737832846
aF-4.0041886832446707
aF4.7876776572727131
aF0.79594630547905953
aF3.2675833638506617
asS'accel_x'
p10
F0
sS'accel_y'
p11
F0
sS'maxAccel'
p12
I2
sS'maxVel'
p13
F0.5
sS'age'
p14
I0
sS'radius'
p15
I2
sS'gener'
p16
S'm'
sS'lastScale'
p17
F5.4999999999999956
sS'energy'
p18
I1
sb.(i__main__
Data_mobile
p1
(dp2
S'vel_y'
p3
I0
sS'vel_x'
p4
I0
sS'pos_x'
p5
I-9999
sS'pos_y'
p6
I9999
sS'isAlive'
p7
I00
sS'geno'
p8
(lp9
F0.38488362201253334
aF-1.5266697737832846
aF-3.9931461519608655
aF4.988932533554296
aF0.79594630547905953
aF-2.9941242768656862
asS'accel_x'
p10
F0
sS'accel_y'
p11
F0
sS'maxAccel'
p12
I2
sS'maxVel'
p13
F0.5
sS'age'
p14
I0
sS'radius'
p15
I2
sS'gener'
p16
S'm'
sS'lastScale'
p17
F4.4999999999999956
sS'energy'
p18
I1
sb.(i__main__
Data_mobile
p1
(dp2
S'vel_y'
p3
I0
sS'vel_x'
p4
I0
sS'pos_x'
p5
I-9999
sS'pos_y'
p6
I9999
sS'isAlive'
p7
I00
sS'geno'
p8
(lp9
F0.32558508754154358
aF-1.5266697737832846
aF-0.21301629094513319
aF4.7374171391059665
aF0.79594630547905953
aF-2.9941242768656862
asS'accel_x'
p10
F0
sS'accel_y'
p11
F0
sS'maxAccel'
p12
I2
sS'maxVel'
p13
F0.5
sS'age'
p14
I0
sS'radius'
p15
I2
sS'gener'
p16
S'm'
sS'lastScale'
p17
F5.4999999999999956
sS'energy'
p18
I1
sb.(i__main__
Data_mobile
p1
(dp2
S'vel_y'
p3
I0
sS'vel_x'
p4
I0
sS'pos_x'
p5
I-9999
sS'pos_y'
p6
I9999
sS'isAlive'
p7
I00
sS'geno'
p8
(lp9
F1.5620193373150286
aF-0.12244834053052323
aF-3.9931461519608655
aF4.5513928607528147
aF0.79594630547905953
aF-2.8682341635274144
asS'accel_x'
p10
F0
sS'accel_y'
p11
F0
sS'maxAccel'
p12
I2
sS'maxVel'
p13
F0.5
sS'age'
p14
I0
sS'radius'
p15
I2
sS'gener'
p16
S'm'
sS'lastScale'
p17
F5.4999999999999956
sS'energy'
p18
I1
sb.(i__main__
Data_mobile
p1
(dp2
S'vel_y'
p3
I0
sS'vel_x'
p4
I0
sS'pos_x'
p5
I-9999
sS'pos_y'
p6
I9999
sS'isAlive'
p7
I00
sS'geno'
p8
(lp9
F-0.055907183197582144
aF-1.5266697737832846
aF-4.1653632727227956
aF4.7374171391059665
aF0.96545115408757542
aF-2.9941242768656862
asS'accel_x'
p10
F0
sS'accel_y'
p11
F0
sS'maxAccel'
p12
I2
sS'maxVel'
p13
F0.5
sS'age'
p14
I0
sS'radius'
p15
I2
sS'gener'
p16
S'm'
sS'lastScale'
p17
F4.9999999999999956
sS'energy'
p18
I1
sb.(i__main__
Data_mobile
p1
(dp2
S'vel_y'
p3
I0
sS'vel_x'
p4
I0
sS'pos_x'
p5
I-9999
sS'pos_y'
p6
I9999
sS'isAlive'
p7
I00
sS'geno'
p8
(lp9
F0.38488362201253334
aF-1.5266697737832846
aF-4.1653632727227956
aF4.7876776572727131
aF0.79594630547905953
aF-2.9941242768656862
asS'accel_x'
p10
F0
sS'accel_y'
p11
F0
sS'maxAccel'
p12
I2
sS'maxVel'
p13
F0.5
sS'age'
p14
I0
sS'radius'
p15
I2
sS'gener'
p16
S'm'
sS'lastScale'
p17
F5.4999999999999956
sS'energy'
p18
I1
sb.(i__main__
Data_mobile
p1
(dp2
S'vel_y'
p3
I0
sS'vel_x'
p4
I0
sS'pos_x'
p5
I-9999
sS'pos_y'
p6
I9999
sS'isAlive'
p7
I00
sS'geno'
p8
(lp9
F0.32558508754154358
aF-1.5266697737832846
aF-0.21301629094513319
aF4.7374171391059665
aF0.79594630547905953
aF-2.9941242768656862
asS'accel_x'
p10
F0
sS'accel_y'
p11
F0
sS'maxAccel'
p12
I2
sS'maxVel'
p13
F0.5
sS'age'
p14
I0
sS'radius'
p15
I2
sS'gener'
p16
S'm'
sS'lastScale'
p17
F5.4999999999999956
sS'energy'
p18
I1
sb.(i__main__
Data_mobile
p1
(dp2
S'vel_y'
p3
I0
sS'vel_x'
p4
I0
sS'pos_x'
p5
I-9999
sS'pos_y'
p6
I9999
sS'isAlive'
p7
I00
sS'geno'
p8
(lp9
F-0.037314502308040787
aF-1.5266697737832846
aF-3.9931461519608655
aF4.7876776572727131
aF0.79594630547905953
aF3.2675833638506617
asS'accel_x'
p10
F0
sS'accel_y'
p11
F0
sS'maxAccel'
p12
I2
sS'maxVel'
p13
F0.5
sS'age'
p14
I0
sS'radius'
p15
I2
sS'gener'
p16
S'm'
sS'lastScale'
p17
F5.4999999999999956
sS'energy'
p18
I1
sb.(i__main__
Data_mobile
p1
(dp2
S'vel_y'
p3
I0
sS'vel_x'
p4
I0
sS'pos_x'
p5
I-9999
sS'pos_y'
p6
I9999
sS'isAlive'
p7
I00
sS'geno'
p8
(lp9
F1.5620193373150286
aF-0.12244834053052323
aF-3.9931461519608655
aF4.7374171391059665
aF0.79594630547905953
aF-2.9941242768656862
asS'accel_x'
p10
F0
sS'accel_y'
p11
F0
sS'maxAccel'
p12
I2
sS'maxVel'
p13
F0.5
sS'age'
p14
I0
sS'radius'
p15
I2
sS'gener'
p16
S'm'
sS'lastScale'
p17
F5.4999999999999956
sS'energy'
p18
I1
sb.(i__main__
Data_mobile
p1
(dp2
S'vel_y'
p3
I0
sS'vel_x'
p4
I0
sS'pos_x'
p5
I-9999
sS'pos_y'
p6
I9999
sS'isAlive'
p7
I00
sS'geno'
p8
(lp9
F0.38488362201253334
aF-1.5266697737832846
aF-4.1653632727227956
aF4.7876776572727131
aF0.79594630547905953
aF-2.9941242768656862
asS'accel_x'
p10
F0
sS'accel_y'
p11
F0
sS'maxAccel'
p12
I2
sS'maxVel'
p13
F0.5
sS'age'
p14
I0
sS'radius'
p15
I2
sS'gener'
p16
S'm'
sS'lastScale'
p17
F5.4999999999999956
sS'energy'
p18
I1
sb.(i__main__
Data_mobile
p1
(dp2
S'vel_y'
p3
I0
sS'vel_x'
p4
I0
sS'pos_x'
p5
I-9999
sS'pos_y'
p6
I9999
sS'isAlive'
p7
I00
sS'geno'
p8
(lp9
F-0.037314502308040787
aF-1.5266697737832846
aF-3.9931461519608655
aF4.7876776572727131
aF0.79594630547905953
aF-2.9941242768656862
asS'accel_x'
p10
F0
sS'accel_y'
p11
F0
sS'maxAccel'
p12
I2
sS'maxVel'
p13
F0.5
sS'age'
p14
I0
sS'radius'
p15
I2
sS'gener'
p16
S'm'
sS'lastScale'
p17
F5.4999999999999956
sS'energy'
p18
I1
sb.(i__main__
Data_mobile
p1
(dp2
S'vel_y'
p3
I0
sS'vel_x'
p4
I0
sS'pos_x'
p5
I-9999
sS'pos_y'
p6
I9999
sS'isAlive'
p7
I00
sS'geno'
p8
(lp9
F0.38488362201253334
aF-0.12244834053052323
aF-0.21301629094513319
aF4.5513928607528147
aF0.57196513981882191
aF-2.8682341635274144
asS'accel_x'
p10
F0
sS'accel_y'
p11
F0
sS'maxAccel'
p12
I2
sS'maxVel'
p13
F0.5
sS'age'
p14
I0
sS'radius'
p15
I2
sS'gener'
p16
S'm'
sS'lastScale'
p17
F5.4999999999999956
sS'energy'
p18
I1
sb.(i__main__
Data_mobile
p1
(dp2
S'vel_y'
p3
I0
sS'vel_x'
p4
I0
sS'pos_x'
p5
I-9999
sS'pos_y'
p6
I9999
sS'isAlive'
p7
I00
sS'geno'
p8
(lp9
F-0.037314502308040787
aF-1.1664048654183445
aF-3.9931461519608655
aF4.7876776572727131
aF0.79594630547905953
aF-2.9941242768656862
asS'accel_x'
p10
F0
sS'accel_y'
p11
F0
sS'maxAccel'
p12
I2
sS'maxVel'
p13
F0.5
sS'age'
p14
I0
sS'radius'
p15
I2
sS'gener'
p16
S'm'
sS'lastScale'
p17
F5.4999999999999956
sS'energy'
p18
I1
sb.(i__main__
Data_mobile
p1
(dp2
S'vel_y'
p3
I0
sS'vel_x'
p4
I0
sS'pos_x'
p5
I-9999
sS'pos_y'
p6
I9999
sS'isAlive'
p7
I00
sS'geno'
p8
(lp9
F1.5620193373150286
aF-0.12244834053052323
aF-3.9931461519608655
aF4.7876776572727131
aF0.68492273325884323
aF-2.7638205520946366
asS'accel_x'
p10
F0
sS'accel_y'
p11
F0
sS'maxAccel'
p12
I2
sS'maxVel'
p13
F0.5
sS'age'
p14
I0
sS'radius'
p15
I2
sS'gener'
p16
S'm'
sS'lastScale'
p17
F5.4999999999999956
sS'energy'
p18
I1
sb.(i__main__
Data_mobile
p1
(dp2
S'vel_y'
p3
I0
sS'vel_x'
p4
I0
sS'pos_x'
p5
I-9999
sS'pos_y'
p6
I9999
sS'isAlive'
p7
I00
sS'geno'
p8
(lp9
F1.5620193373150286
aF-0.12244834053052323
aF-3.9931461519608655
aF4.7876776572727131
aF0.79594630547905953
aF-2.9941242768656862
asS'accel_x'
p10
F0
sS'accel_y'
p11
F0
sS'maxAccel'
p12
I2
sS'maxVel'
p13
F0.5
sS'age'
p14
I0
sS'radius'
p15
I2
sS'gener'
p16
S'm'
sS'lastScale'
p17
F5.3999999999999959
sS'energy'
p18
I1
sb.(i__main__
Data_mobile
p1
(dp2
S'vel_y'
p3
I0
sS'vel_x'
p4
I0
sS'pos_x'
p5
I-9999
sS'pos_y'
p6
I9999
sS'isAlive'
p7
I00
sS'geno'
p8
(lp9
F0.27887700152121908
aF-1.8673420401695608
aF-3.9931461519608655
aF4.3940591016553059
aF0.79594630547905953
aF-2.9941242768656862
asS'accel_x'
p10
F0
sS'accel_y'
p11
F0
sS'maxAccel'
p12
I2
sS'maxVel'
p13
F0.5
sS'age'
p14
I0
sS'radius'
p15
I2
sS'gener'
p16
S'm'
sS'lastScale'
p17
F5.3999999999999959
sS'energy'
p18
I1
sb.(i__main__
Data_mobile
p1
(dp2
S'vel_y'
p3
I0
sS'vel_x'
p4
I0
sS'pos_x'
p5
I-9999
sS'pos_y'
p6
I9999
sS'isAlive'
p7
I00
sS'geno'
p8
(lp9
F-0.037314502308040787
aF-1.5266697737832846
aF-4.6815331139164611
aF5.0110049172276785
aF0.79594630547905953
aF-3.036185563555879
asS'accel_x'
p10
F0
sS'accel_y'
p11
F0
sS'maxAccel'
p12
I2
sS'maxVel'
p13
F0.5
sS'age'
p14
I0
sS'radius'
p15
I2
sS'gener'
p16
S'm'
sS'lastScale'
p17
F5.3999999999999959
sS'energy'
p18
I1
sb.(i__main__
Data_mobile
p1
(dp2
S'vel_y'
p3
I0
sS'vel_x'
p4
I0
sS'pos_x'
p5
I-9999
sS'pos_y'
p6
I9999
sS'isAlive'
p7
I00
sS'geno'
p8
(lp9
F-0.037314502308040787
aF-1.5266697737832846
aF-4.2108964698652525
aF4.7320391676829523
aF0.79594630547905953
aF-2.9941242768656862
asS'accel_x'
p10
F0
sS'accel_y'
p11
F0
sS'maxAccel'
p12
I2
sS'maxVel'
p13
F0.5
sS'age'
p14
I0
sS'radius'
p15
I2
sS'gener'
p16
S'm'
sS'lastScale'
p17
F5.2999999999999963
sS'energy'
p18
I1
sb.(i__main__
Data_mobile
p1
(dp2
S'vel_y'
p3
I0
sS'vel_x'
p4
I0
sS'pos_x'
p5
I-9999
sS'pos_y'
p6
I9999
sS'isAlive'
p7
I00
sS'geno'
p8
(lp9
F0.38488362201253334
aF-1.5266697737832846
aF-4.433831632817296
aF4.7876776572727131
aF0.79594630547905953
aF-2.9941242768656862
asS'accel_x'
p10
F0
sS'accel_y'
p11
F0
sS'maxAccel'
p12
I2
sS'maxVel'
p13
F0.5
sS'age'
p14
I0
sS'radius'
p15
I2
sS'gener'
p16
S'm'
sS'lastScale'
p17
F5.2999999999999963
sS'energy'
p18
I1
sb.(i__main__
Data_mobile
p1
(dp2
S'vel_y'
p3
I0
sS'vel_x'
p4
I0
sS'pos_x'
p5
I-9999
sS'pos_y'
p6
I9999
sS'isAlive'
p7
I00
sS'geno'
p8
(lp9
F0.32558508754154358
aF-1.5266697737832846
aF-0.21301629094513319
aF4.7374171391059665
aF0.79594630547905953
aF-2.9941242768656862
asS'accel_x'
p10
F0
sS'accel_y'
p11
F0
sS'maxAccel'
p12
I2
sS'maxVel'
p13
F0.5
sS'age'
p14
I0
sS'radius'
p15
I2
sS'gener'
p16
S'm'
sS'lastScale'
p17
F4.6999999999999957
sS'energy'
p18
I1
sb.(i__main__
Data_mobile
p1
(dp2
S'vel_y'
p3
I0
sS'vel_x'
p4
I0
sS'pos_x'
p5
I-9999
sS'pos_y'
p6
I9999
sS'isAlive'
p7
I00
sS'geno'
p8
(lp9
F-0.037314502308040787
aF-1.5266697737832846
aF-4.1653632727227956
aF4.7876776572727131
aF0.79594630547905953
aF3.2675833638506617
asS'accel_x'
p10
F0
sS'accel_y'
p11
F0
sS'maxAccel'
p12
I2
sS'maxVel'
p13
F0.5
sS'age'
p14
I0
sS'radius'
p15
I2
sS'gener'
p16
S'm'
sS'lastScale'
p17
F5.1999999999999957
sS'energy'
p18
I1
sb.(i__main__
Data_mobile
p1
(dp2
S'vel_y'
p3
I0
sS'vel_x'
p4
I0
sS'pos_x'
p5
I-9999
sS'pos_y'
p6
I9999
sS'isAlive'
p7
I00
sS'geno'
p8
(lp9
F-0.037314502308040787
aF-1.5266697737832846
aF-4.1653632727227956
aF4.7876776572727131
aF0.79594630547905953
aF3.2675833638506617
asS'accel_x'
p10
F0
sS'accel_y'
p11
F0
sS'maxAccel'
p12
I2
sS'maxVel'
p13
F0.5
sS'age'
p14
I0
sS'radius'
p15
I2
sS'gener'
p16
S'm'
sS'lastScale'
p17
F5.4999999999999956
sS'energy'
p18
I1
sb.(i__main__
Data_mobile
p1
(dp2
S'vel_y'
p3
I0
sS'vel_x'
p4
I0
sS'pos_x'
p5
I-9999
sS'pos_y'
p6
I9999
sS'isAlive'
p7
I00
sS'geno'
p8
(lp9
F-0.037314502308040787
aF-1.5266697737832846
aF-0.10927686034831108
aF5.2258307460959799
aF0.79594630547905953
aF-2.9941242768656862
asS'accel_x'
p10
F0
sS'accel_y'
p11
F0
sS'maxAccel'
p12
I2
sS'maxVel'
p13
F0.5
sS'age'
p14
I0
sS'radius'
p15
I2
sS'gener'
p16
S'm'
sS'lastScale'
p17
F5.4999999999999956
sS'energy'
p18
I1
sb.(i__main__
Data_mobile
p1
(dp2
S'vel_y'
p3
I0
sS'vel_x'
p4
I0
sS'pos_x'
p5
I-9999
sS'pos_y'
p6
I9999
sS'isAlive'
p7
I00
sS'geno'
p8
(lp9
F-0.039389090606090638
aF-1.5266697737832846
aF-4.1653632727227956
aF4.7876776572727131
aF0.79594630547905953
aF-2.8682341635274144
asS'accel_x'
p10
F0
sS'accel_y'
p11
F0
sS'maxAccel'
p12
I2
sS'maxVel'
p13
F0.5
sS'age'
p14
I0
sS'radius'
p15
I2
sS'gener'
p16
S'm'
sS'lastScale'
p17
F5.4999999999999956
sS'energy'
p18
I1
sb.(i__main__
Data_mobile
p1
(dp2
S'vel_y'
p3
I0
sS'vel_x'
p4
I0
sS'pos_x'
p5
I-9999
sS'pos_y'
p6
I9999
sS'isAlive'
p7
I00
sS'geno'
p8
(lp9
F-0.037314502308040787
aF-1.5266697737832846
aF-3.9931461519608655
aF4.7374171391059665
aF0.79594630547905953
aF-2.8682341635274144
asS'accel_x'
p10
F0
sS'accel_y'
p11
F0
sS'maxAccel'
p12
I2
sS'maxVel'
p13
F0.5
sS'age'
p14
I0
sS'radius'
p15
I2
sS'gener'
p16
S'm'
sS'lastScale'
p17
F5.4999999999999956
sS'energy'
p18
I1
sb.(i__main__
Data_mobile
p1
(dp2
S'vel_y'
p3
I0
sS'vel_x'
p4
I0
sS'pos_x'
p5
I-9999
sS'pos_y'
p6
I9999
sS'isAlive'
p7
I00
sS'geno'
p8
(lp9
F-0.039389090606090638
aF-1.5266697737832846
aF-4.1653632727227956
aF4.7876776572727131
aF0.79594630547905953
aF-2.8682341635274144
asS'accel_x'
p10
F0
sS'accel_y'
p11
F0
sS'maxAccel'
p12
I2
sS'maxVel'
p13
F0.5
sS'age'
p14
I0
sS'radius'
p15
I2
sS'gener'
p16
S'm'
sS'lastScale'
p17
F5.4999999999999956
sS'energy'
p18
I1
sb.(i__main__
Data_mobile
p1
(dp2
S'vel_y'
p3
I0
sS'vel_x'
p4
I0
sS'pos_x'
p5
I-9999
sS'pos_y'
p6
I9999
sS'isAlive'
p7
I00
sS'geno'
p8
(lp9
F-0.037314502308040787
aF-1.5266697737832846
aF-4.1653632727227956
aF4.7320391676829523
aF0.3199328896011
aF3.2675833638506617
asS'accel_x'
p10
F0
sS'accel_y'
p11
F0
sS'maxAccel'
p12
I2
sS'maxVel'
p13
F0.5
sS'age'
p14
I0
sS'radius'
p15
I2
sS'gener'
p16
S'm'
sS'lastScale'
p17
F5.4999999999999956
sS'energy'
p18
I1
sb.(i__main__
Data_mobile
p1
(dp2
S'vel_y'
p3
I0
sS'vel_x'
p4
I0
sS'pos_x'
p5
I-9999
sS'pos_y'
p6
I9999
sS'isAlive'
p7
I00
sS'geno'
p8
(lp9
F0.38488362201253334
aF-1.5266697737832846
aF-3.9931461519608655
aF4.7374171391059665
aF0.79594630547905953
aF-2.9941242768656862
asS'accel_x'
p10
F0
sS'accel_y'
p11
F0
sS'maxAccel'
p12
I2
sS'maxVel'
p13
F0.5
sS'age'
p14
I0
sS'radius'
p15
I2
sS'gener'
p16
S'm'
sS'lastScale'
p17
F5.4999999999999956
sS'energy'
p18
I1
sb.(i__main__
Data_mobile
p1
(dp2
S'vel_y'
p3
I0
sS'vel_x'
p4
I0
sS'pos_x'
p5
I-9999
sS'pos_y'
p6
I9999
sS'isAlive'
p7
I00
sS'geno'
p8
(lp9
F-0.037314502308040787
aF-1.5266697737832846
aF-0.21301629094513319
aF4.3940591016553059
aF0.79594630547905953
aF-3.036185563555879
asS'accel_x'
p10
F0
sS'accel_y'
p11
F0
sS'maxAccel'
p12
I2
sS'maxVel'
p13
F0.5
sS'age'
p14
I0
sS'radius'
p15
I2
sS'gener'
p16
S'm'
sS'lastScale'
p17
F5.1999999999999957
sS'energy'
p18
I1
sb.(i__main__
Data_mobile
p1
(dp2
S'vel_y'
p3
I0
sS'vel_x'
p4
I0
sS'pos_x'
p5
I-9999
sS'pos_y'
p6
I9999
sS'isAlive'
p7
I00
sS'geno'
p8
(lp9
F0.38488362201253334
aF-1.5266697737832846
aF-0.21301629094513319
aF4.5513928607528147
aF0.79594630547905953
aF-2.8682341635274144
asS'accel_x'
p10
F0
sS'accel_y'
p11
F0
sS'maxAccel'
p12
I2
sS'maxVel'
p13
F0.5
sS'age'
p14
I0
sS'radius'
p15
I2
sS'gener'
p16
S'm'
sS'lastScale'
p17
F5.4999999999999956
sS'energy'
p18
I1
sb.(i__main__
Data_mobile
p1
(dp2
S'vel_y'
p3
I0
sS'vel_x'
p4
I0
sS'pos_x'
p5
I-9999
sS'pos_y'
p6
I9999
sS'isAlive'
p7
I00
sS'geno'
p8
(lp9
F-0.037314502308040787
aF-1.309763918497449
aF-4.1653632727227956
aF4.7876776572727131
aF0.79594630547905953
aF3.2675833638506617
asS'accel_x'
p10
F0
sS'accel_y'
p11
F0
sS'maxAccel'
p12
I2
sS'maxVel'
p13
F0.5
sS'age'
p14
I0
sS'radius'
p15
I2
sS'gener'
p16
S'm'
sS'lastScale'
p17
F5.4999999999999956
sS'energy'
p18
I1
sb.(i__main__
Data_mobile
p1
(dp2
S'vel_y'
p3
I0
sS'vel_x'
p4
I0
sS'pos_x'
p5
I-9999
sS'pos_y'
p6
I9999
sS'isAlive'
p7
I00
sS'geno'
p8
(lp9
F-0.037314502308040787
aF-1.5266697737832846
aF-0.21301629094513319
aF4.7374171391059665
aF0.79594630547905953
aF3.2675833638506617
asS'accel_x'
p10
F0
sS'accel_y'
p11
F0
sS'maxAccel'
p12
I2
sS'maxVel'
p13
F0.5
sS'age'
p14
I0
sS'radius'
p15
I2
sS'gener'
p16
S'm'
sS'lastScale'
p17
F5.4999999999999956
sS'energy'
p18
I1
sb.(i__main__
Data_mobile
p1
(dp2
S'vel_y'
p3
I0
sS'vel_x'
p4
I0
sS'pos_x'
p5
I-9999
sS'pos_y'
p6
I9999
sS'isAlive'
p7
I00
sS'geno'
p8
(lp9
F-0.037314502308040787
aF-1.5266697737832846
aF-3.9931461519608655
aF4.7374171391059665
aF0.79594630547905953
aF-2.9941242768656862
asS'accel_x'
p10
F0
sS'accel_y'
p11
F0
sS'maxAccel'
p12
I2
sS'maxVel'
p13
F0.5
sS'age'
p14
I0
sS'radius'
p15
I2
sS'gener'
p16
S'm'
sS'lastScale'
p17
F5.4999999999999956
sS'energy'
p18
I1
sb.(i__main__
Data_mobile
p1
(dp2
S'vel_y'
p3
I0
sS'vel_x'
p4
I0
sS'pos_x'
p5
I-9999
sS'pos_y'
p6
I9999
sS'isAlive'
p7
I00
sS'geno'
p8
(lp9
F-0.037314502308040787
aF-1.5266697737832846
aF-3.9931461519608655
aF4.7876776572727131
aF0.79594630547905953
aF-2.9941242768656862
asS'accel_x'
p10
F0
sS'accel_y'
p11
F0
sS'maxAccel'
p12
I2
sS'maxVel'
p13
F0.5
sS'age'
p14
I0
sS'radius'
p15
I2
sS'gener'
p16
S'm'
sS'lastScale'
p17
F5.4999999999999956
sS'energy'
p18
I1
sb.(i__main__
Data_mobile
p1
(dp2
S'vel_y'
p3
I0
sS'vel_x'
p4
I0
sS'pos_x'
p5
I-9999
sS'pos_y'
p6
I9999
sS'isAlive'
p7
I00
sS'geno'
p8
(lp9
F0.38488362201253334
aF-1.5266697737832846
aF-0.21301629094513319
aF4.5513928607528147
aF0.79594630547905953
aF-2.8682341635274144
asS'accel_x'
p10
F0
sS'accel_y'
p11
F0
sS'maxAccel'
p12
I2
sS'maxVel'
p13
F0.5
sS'age'
p14
I0
sS'radius'
p15
I2
sS'gener'
p16
S'm'
sS'lastScale'
p17
F5.4999999999999956
sS'energy'
p18
I1
sb.(i__main__
Data_mobile
p1
(dp2
S'vel_y'
p3
I0
sS'vel_x'
p4
I0
sS'pos_x'
p5
I-9999
sS'pos_y'
p6
I9999
sS'isAlive'
p7
I00
sS'geno'
p8
(lp9
F-0.037314502308040787
aF-1.954858511158156
aF-4.1653632727227956
aF4.7876776572727131
aF0.68492273325884323
aF-2.7638205520946366
asS'accel_x'
p10
F0
sS'accel_y'
p11
F0
sS'maxAccel'
p12
I2
sS'maxVel'
p13
F0.5
sS'age'
p14
I0
sS'radius'
p15
I2
sS'gener'
p16
S'm'
sS'lastScale'
p17
F5.4999999999999956
sS'energy'
p18
I1
sb.(i__main__
Data_mobile
p1
(dp2
S'vel_y'
p3
I0
sS'vel_x'
p4
I0
sS'pos_x'
p5
I-9999
sS'pos_y'
p6
I9999
sS'isAlive'
p7
I00
sS'geno'
p8
(lp9
F-0.037314502308040787
aF-1.8504226492693405
aF-3.9931461519608655
aF4.7374171391059665
aF0.79594630547905953
aF-2.9941242768656862
asS'accel_x'
p10
F0
sS'accel_y'
p11
F0
sS'maxAccel'
p12
I2
sS'maxVel'
p13
F0.5
sS'age'
p14
I0
sS'radius'
p15
I2
sS'gener'
p16
S'm'
sS'lastScale'
p17
F5.4999999999999956
sS'energy'
p18
I1
sb.(i__main__
Data_mobile
p1
(dp2
S'vel_y'
p3
I0
sS'vel_x'
p4
I0
sS'pos_x'
p5
I-9999
sS'pos_y'
p6
I9999
sS'isAlive'
p7
I00
sS'geno'
p8
(lp9
F-0.037314502308040787
aF-1.5266697737832846
aF-4.1653632727227956
aF4.7320391676829523
aF0.79594630547905953
aF3.2675833638506617
asS'accel_x'
p10
F0
sS'accel_y'
p11
F0
sS'maxAccel'
p12
I2
sS'maxVel'
p13
F0.5
sS'age'
p14
I0
sS'radius'
p15
I2
sS'gener'
p16
S'm'
sS'lastScale'
p17
F5.4999999999999956
sS'energy'
p18
I1
sb.(i__main__
Data_mobile
p1
(dp2
S'vel_y'
p3
I0
sS'vel_x'
p4
I0
sS'pos_x'
p5
I-9999
sS'pos_y'
p6
I9999
sS'isAlive'
p7
I00
sS'geno'
p8
(lp9
F-0.037314502308040787
aF-1.5266697737832846
aF-3.9931461519608655
aF4.9719148529140789
aF0.68492273325884323
aF3.2675833638506617
asS'accel_x'
p10
F0
sS'accel_y'
p11
F0
sS'maxAccel'
p12
I2
sS'maxVel'
p13
F0.5
sS'age'
p14
I0
sS'radius'
p15
I2
sS'gener'
p16
S'm'
sS'lastScale'
p17
F5.4999999999999956
sS'energy'
p18
I1
sb.(i__main__
Data_mobile
p1
(dp2
S'vel_y'
p3
I0
sS'vel_x'
p4
I0
sS'pos_x'
p5
I-9999
sS'pos_y'
p6
I9999
sS'isAlive'
p7
I00
sS'geno'
p8
(lp9
F0.38488362201253334
aF-1.5266697737832846
aF-3.9931461519608655
aF4.7374171391059665
aF0.68492273325884323
aF3.2675833638506617
asS'accel_x'
p10
F0
sS'accel_y'
p11
F0
sS'maxAccel'
p12
I2
sS'maxVel'
p13
F0.5
sS'age'
p14
I0
sS'radius'
p15
I2
sS'gener'
p16
S'm'
sS'lastScale'
p17
F5.4999999999999956
sS'energy'
p18
I1
sb.(i__main__
Data_mobile
p1
(dp2
S'vel_y'
p3
I0
sS'vel_x'
p4
I0
sS'pos_x'
p5
I-9999
sS'pos_y'
p6
I9999
sS'isAlive'
p7
I00
sS'geno'
p8
(lp9
F0.38488362201253334
aF-1.5266697737832846
aF-4.1653632727227956
aF4.7876776572727131
aF0.79594630547905953
aF-3.0605886936226216
asS'accel_x'
p10
F0
sS'accel_y'
p11
F0
sS'maxAccel'
p12
I2
sS'maxVel'
p13
F0.5
sS'age'
p14
I0
sS'radius'
p15
I2
sS'gener'
p16
S'm'
sS'lastScale'
p17
F5.4999999999999956
sS'energy'
p18
I1
sb.(i__main__
Data_mobile
p1
(dp2
S'vel_y'
p3
I0
sS'vel_x'
p4
I0
sS'pos_x'
p5
I-9999
sS'pos_y'
p6
I9999
sS'isAlive'
p7
I00
sS'geno'
p8
(lp9
F-0.037314502308040787
aF-1.5266697737832846
aF-4.1653632727227956
aF4.7320391676829523
aF0.3199328896011
aF3.2675833638506617
asS'accel_x'
p10
F0
sS'accel_y'
p11
F0
sS'maxAccel'
p12
I2
sS'maxVel'
p13
F0.5
sS'age'
p14
I0
sS'radius'
p15
I2
sS'gener'
p16
S'm'
sS'lastScale'
p17
F4.9999999999999956
sS'energy'
p18
I1
sb.(i__main__
Data_mobile
p1
(dp2
S'vel_y'
p3
I0
sS'vel_x'
p4
I0
sS'pos_x'
p5
I-9999
sS'pos_y'
p6
I9999
sS'isAlive'
p7
I00
sS'geno'
p8
(lp9
F-0.037314502308040787
aF-1.5266697737832846
aF-3.9931461519608655
aF4.7876776572727131
aF0.79594630547905953
aF3.2675833638506617
asS'accel_x'
p10
F0
sS'accel_y'
p11
F0
sS'maxAccel'
p12
I2
sS'maxVel'
p13
F0.5
sS'age'
p14
I0
sS'radius'
p15
I2
sS'gener'
p16
S'm'
sS'lastScale'
p17
F5.4999999999999956
sS'energy'
p18
I1
sb.(i__main__
Data_mobile
p1
(dp2
S'vel_y'
p3
I0
sS'vel_x'
p4
I0
sS'pos_x'
p5
I-9999
sS'pos_y'
p6
I9999
sS'isAlive'
p7
I00
sS'geno'
p8
(lp9
F1.5620193373150286
aF-0.25530213678050095
aF-3.9931461519608655
aF4.7374171391059665
aF0.79594630547905953
aF-2.9941242768656862
asS'accel_x'
p10
F0
sS'accel_y'
p11
F0
sS'maxAccel'
p12
I2
sS'maxVel'
p13
F0.5
sS'age'
p14
I0
sS'radius'
p15
I2
sS'gener'
p16
S'm'
sS'lastScale'
p17
F5.4999999999999956
sS'energy'
p18
I1
sb.(i__main__
Data_mobile
p1
(dp2
S'vel_y'
p3
I0
sS'vel_x'
p4
I0
sS'pos_x'
p5
I-9999
sS'pos_y'
p6
I9999
sS'isAlive'
p7
I00
sS'geno'
p8
(lp9
F-0.037314502308040787
aF-1.5266697737832846
aF-3.9931461519608655
aF4.7876776572727131
aF0.79594630547905953
aF-2.9941242768656862
asS'accel_x'
p10
F0
sS'accel_y'
p11
F0
sS'maxAccel'
p12
I2
sS'maxVel'
p13
F0.5
sS'age'
p14
I0
sS'radius'
p15
I2
sS'gener'
p16
S'm'
sS'lastScale'
p17
F5.4999999999999956
sS'energy'
p18
I1
sb.(i__main__
Data_mobile
p1
(dp2
S'vel_y'
p3
I0
sS'vel_x'
p4
I0
sS'pos_x'
p5
I-9999
sS'pos_y'
p6
I9999
sS'isAlive'
p7
I00
sS'geno'
p8
(lp9
F0.2328569710731645
aF-1.5266697737832846
aF-0.21301629094513319
aF4.7876776572727131
aF0.79594630547905953
aF-2.9941242768656862
asS'accel_x'
p10
F0
sS'accel_y'
p11
F0
sS'maxAccel'
p12
I2
sS'maxVel'
p13
F0.5
sS'age'
p14
I0
sS'radius'
p15
I2
sS'gener'
p16
S'm'
sS'lastScale'
p17
F5.2999999999999963
sS'energy'
p18
I1
sb.(i__main__
Data_mobile
p1
(dp2
S'vel_y'
p3
I0
sS'vel_x'
p4
I0
sS'pos_x'
p5
I-9999
sS'pos_y'
p6
I9999
sS'isAlive'
p7
I00
sS'geno'
p8
(lp9
F1.5620193373150286
aF-1.5266697737832846
aF-4.2108964698652525
aF4.7320391676829523
aF0.79594630547905953
aF-2.9941242768656862
asS'accel_x'
p10
F0
sS'accel_y'
p11
F0
sS'maxAccel'
p12
I2
sS'maxVel'
p13
F0.5
sS'age'
p14
I0
sS'radius'
p15
I2
sS'gener'
p16
S'm'
sS'lastScale'
p17
F4.6999999999999957
sS'energy'
p18
I1
sb.(i__main__
Data_mobile
p1
(dp2
S'vel_y'
p3
I0
sS'vel_x'
p4
I0
sS'pos_x'
p5
I-9999
sS'pos_y'
p6
I9999
sS'isAlive'
p7
I00
sS'geno'
p8
(lp9
F1.5620193373150286
aF-0.12244834053052323
aF-3.9931461519608655
aF4.7876776572727131
aF0.79594630547905953
aF3.5404854979195801
asS'accel_x'
p10
F0
sS'accel_y'
p11
F0
sS'maxAccel'
p12
I2
sS'maxVel'
p13
F0.5
sS'age'
p14
I0
sS'radius'
p15
I2
sS'gener'
p16
S'm'
sS'lastScale'
p17
F5.4999999999999956
sS'energy'
p18
I1
sb.(i__main__
Data_mobile
p1
(dp2
S'vel_y'
p3
I0
sS'vel_x'
p4
I0
sS'pos_x'
p5
I-9999
sS'pos_y'
p6
I9999
sS'isAlive'
p7
I00
sS'geno'
p8
(lp9
F0.38488362201253334
aF-1.5266697737832846
aF-3.9931461519608655
aF4.7876776572727131
aF0.79594630547905953
aF3.2675833638506617
asS'accel_x'
p10
F0
sS'accel_y'
p11
F0
sS'maxAccel'
p12
I2
sS'maxVel'
p13
F0.5
sS'age'
p14
I0
sS'radius'
p15
I2
sS'gener'
p16
S'm'
sS'lastScale'
p17
F5.4999999999999956
sS'energy'
p18
I1
sb.(i__main__
Data_mobile
p1
(dp2
S'vel_y'
p3
I0
sS'vel_x'
p4
I0
sS'pos_x'
p5
I-9999
sS'pos_y'
p6
I9999
sS'isAlive'
p7
I00
sS'geno'
p8
(lp9
F-0.037314502308040787
aF-1.5266697737832846
aF-3.9931461519608655
aF4.7876776572727131
aF0.79594630547905953
aF3.2675833638506617
asS'accel_x'
p10
F0
sS'accel_y'
p11
F0
sS'maxAccel'
p12
I2
sS'maxVel'
p13
F0.5
sS'age'
p14
I0
sS'radius'
p15
I2
sS'gener'
p16
S'm'
sS'lastScale'
p17
F5.4999999999999956
sS'energy'
p18
I1
sb.(i__main__
Data_mobile
p1
(dp2
S'vel_y'
p3
I0
sS'vel_x'
p4
I0
sS'pos_x'
p5
I-9999
sS'pos_y'
p6
I9999
sS'isAlive'
p7
I00
sS'geno'
p8
(lp9
F-0.037314502308040787
aF-1.5266697737832846
aF-0.21301629094513319
aF4.3940591016553059
aF0.79594630547905953
aF-2.9941242768656862
asS'accel_x'
p10
F0
sS'accel_y'
p11
F0
sS'maxAccel'
p12
I2
sS'maxVel'
p13
F0.5
sS'age'
p14
I0
sS'radius'
p15
I2
sS'gener'
p16
S'm'
sS'lastScale'
p17
F5.1999999999999957
sS'energy'
p18
I1
sb.(i__main__
Data_mobile
p1
(dp2
S'vel_y'
p3
I0
sS'vel_x'
p4
I0
sS'pos_x'
p5
I-9999
sS'pos_y'
p6
I9999
sS'isAlive'
p7
I00
sS'geno'
p8
(lp9
F-0.037314502308040787
aF-1.5266697737832846
aF-0.21301629094513319
aF4.1356232486203002
aF0.79594630547905953
aF-2.9941242768656862
asS'accel_x'
p10
F0
sS'accel_y'
p11
F0
sS'maxAccel'
p12
I2
sS'maxVel'
p13
F0.5
sS'age'
p14
I0
sS'radius'
p15
I2
sS'gener'
p16
S'm'
sS'lastScale'
p17
F5.4999999999999956
sS'energy'
p18
I1
sb.(i__main__
Data_mobile
p1
(dp2
S'vel_y'
p3
I0
sS'vel_x'
p4
I0
sS'pos_x'
p5
I-9999
sS'pos_y'
p6
I9999
sS'isAlive'
p7
I00
sS'geno'
p8
(lp9
F-0.037314502308040787
aF-1.1483068257252507
aF-3.9931461519608655
aF4.7876776572727131
aF0.3199328896011
aF3.2675833638506617
asS'accel_x'
p10
F0
sS'accel_y'
p11
F0
sS'maxAccel'
p12
I2
sS'maxVel'
p13
F0.5
sS'age'
p14
I0
sS'radius'
p15
I2
sS'gener'
p16
S'm'
sS'lastScale'
p17
F5.4999999999999956
sS'energy'
p18
I1
sb.(i__main__
Data_mobile
p1
(dp2
S'vel_y'
p3
I0
sS'vel_x'
p4
I0
sS'pos_x'
p5
I-9999
sS'pos_y'
p6
I9999
sS'isAlive'
p7
I00
sS'geno'
p8
(lp9
F-0.037314502308040787
aF-1.5266697737832846
aF-4.1653632727227956
aF4.7876776572727131
aF0.79594630547905953
aF-2.8682341635274144
asS'accel_x'
p10
F0
sS'accel_y'
p11
F0
sS'maxAccel'
p12
I2
sS'maxVel'
p13
F0.5
sS'age'
p14
I0
sS'radius'
p15
I2
sS'gener'
p16
S'm'
sS'lastScale'
p17
F5.4999999999999956
sS'energy'
p18
I1
sb.(i__main__
Data_mobile
p1
(dp2
S'vel_y'
p3
I0
sS'vel_x'
p4
I0
sS'pos_x'
p5
I-9999
sS'pos_y'
p6
I9999
sS'isAlive'
p7
I00
sS'geno'
p8
(lp9
F-0.037314502308040787
aF-1.5266697737832846
aF-4.6038603597409882
aF5.0110049172276785
aF0.87805343651280954
aF-2.9941242768656862
asS'accel_x'
p10
F0
sS'accel_y'
p11
F0
sS'maxAccel'
p12
I2
sS'maxVel'
p13
F0.5
sS'age'
p14
I0
sS'radius'
p15
I2
sS'gener'
p16
S'm'
sS'lastScale'
p17
F5.4999999999999956
sS'energy'
p18
I1
sb.(i__main__
Data_mobile
p1
(dp2
S'vel_y'
p3
I0
sS'vel_x'
p4
I0
sS'pos_x'
p5
I-9999
sS'pos_y'
p6
I9999
sS'isAlive'
p7
I00
sS'geno'
p8
(lp9
F0.2328569710731645
aF-1.5266697737832846
aF-0.21301629094513319
aF4.3940591016553059
aF0.79594630547905953
aF-2.9941242768656862
asS'accel_x'
p10
F0
sS'accel_y'
p11
F0
sS'maxAccel'
p12
I2
sS'maxVel'
p13
F0.5
sS'age'
p14
I0
sS'radius'
p15
I2
sS'gener'
p16
S'm'
sS'lastScale'
p17
F5.4999999999999956
sS'energy'
p18
I1
sb.(i__main__
Data_mobile
p1
(dp2
S'vel_y'
p3
I0
sS'vel_x'
p4
I0
sS'pos_x'
p5
I-9999
sS'pos_y'
p6
I9999
sS'isAlive'
p7
I00
sS'geno'
p8
(lp9
F-0.055907183197582144
aF-1.5266697737832846
aF-4.6038603597409882
aF5.0110049172276785
aF0.79594630547905953
aF-2.9688181781972407
asS'accel_x'
p10
F0
sS'accel_y'
p11
F0
sS'maxAccel'
p12
I2
sS'maxVel'
p13
F0.5
sS'age'
p14
I0
sS'radius'
p15
I2
sS'gener'
p16
S'm'
sS'lastScale'
p17
F5.3999999999999959
sS'energy'
p18
I1
sb.(i__main__
Data_mobile
p1
(dp2
S'vel_y'
p3
I0
sS'vel_x'
p4
I0
sS'pos_x'
p5
I-9999
sS'pos_y'
p6
I9999
sS'isAlive'
p7
I00
sS'geno'
p8
(lp9
F-0.037314502308040787
aF-1.5266697737832846
aF-3.9931461519608655
aF4.7876776572727131
aF0.79594630547905953
aF-2.9941242768656862
asS'accel_x'
p10
F0
sS'accel_y'
p11
F0
sS'maxAccel'
p12
I2
sS'maxVel'
p13
F0.5
sS'age'
p14
I0
sS'radius'
p15
I2
sS'gener'
p16
S'm'
sS'lastScale'
p17
F5.4999999999999956
sS'energy'
p18
I1
sb.(i__main__
Data_mobile
p1
(dp2
S'vel_y'
p3
I0
sS'vel_x'
p4
I0
sS'pos_x'
p5
I-9999
sS'pos_y'
p6
I9999
sS'isAlive'
p7
I00
sS'geno'
p8
(lp9
F0.38488362201253334
aF-1.5266697737832846
aF-4.1653632727227956
aF4.7876776572727131
aF0.79594630547905953
aF-2.9941242768656862
asS'accel_x'
p10
F0
sS'accel_y'
p11
F0
sS'maxAccel'
p12
I2
sS'maxVel'
p13
F0.5
sS'age'
p14
I0
sS'radius'
p15
I2
sS'gener'
p16
S'm'
sS'lastScale'
p17
F5.4999999999999956
sS'energy'
p18
I1
sb.(i__main__
Data_mobile
p1
(dp2
S'vel_y'
p3
I0
sS'vel_x'
p4
I0
sS'pos_x'
p5
I-9999
sS'pos_y'
p6
I9999
sS'isAlive'
p7
I00
sS'geno'
p8
(lp9
F-0.037314502308040787
aF-1.1483068257252507
aF-3.9931461519608655
aF4.7876776572727131
aF0.79594630547905953
aF3.2675833638506617
asS'accel_x'
p10
F0
sS'accel_y'
p11
F0
sS'maxAccel'
p12
I2
sS'maxVel'
p13
F0.5
sS'age'
p14
I0
sS'radius'
p15
I2
sS'gener'
p16
S'm'
sS'lastScale'
p17
F5.4999999999999956
sS'energy'
p18
I1
sb.(i__main__
Data_mobile
p1
(dp2
S'vel_y'
p3
I0
sS'vel_x'
p4
I0
sS'pos_x'
p5
I-9999
sS'pos_y'
p6
I9999
sS'isAlive'
p7
I00
sS'geno'
p8
(lp9
F-0.22061454801240787
aF-0.12244834053052323
aF-3.9931461519608655
aF4.7320391676829523
aF-0.0017243986584334348
aF3.2675833638506617
asS'accel_x'
p10
F0
sS'accel_y'
p11
F0
sS'maxAccel'
p12
I2
sS'maxVel'
p13
F0.5
sS'age'
p14
I0
sS'radius'
p15
I2
sS'gener'
p16
S'm'
sS'lastScale'
p17
F5.4999999999999956
sS'energy'
p18
I1
sb.(i__main__
Data_mobile
p1
(dp2
S'vel_y'
p3
I0
sS'vel_x'
p4
I0
sS'pos_x'
p5
I-9999
sS'pos_y'
p6
I9999
sS'isAlive'
p7
I00
sS'geno'
p8
(lp9
F0.38488362201253334
aF-1.5266697737832846
aF-3.9931461519608655
aF4.3940591016553059
aF0.79594630547905953
aF-2.9941242768656862
asS'accel_x'
p10
F0
sS'accel_y'
p11
F0
sS'maxAccel'
p12
I2
sS'maxVel'
p13
F0.5
sS'age'
p14
I0
sS'radius'
p15
I2
sS'gener'
p16
S'm'
sS'lastScale'
p17
F5.4999999999999956
sS'energy'
p18
I1
sb.(i__main__
Data_mobile
p1
(dp2
S'vel_y'
p3
I0
sS'vel_x'
p4
I0
sS'pos_x'
p5
I-9999
sS'pos_y'
p6
I9999
sS'isAlive'
p7
I00
sS'geno'
p8
(lp9
F-0.037314502308040787
aF-1.5266697737832846
aF-4.2108964698652525
aF4.7320391676829523
aF0.79594630547905953
aF-2.9941242768656862
asS'accel_x'
p10
F0
sS'accel_y'
p11
F0
sS'maxAccel'
p12
I2
sS'maxVel'
p13
F0.5
sS'age'
p14
I0
sS'radius'
p15
I2
sS'gener'
p16
S'm'
sS'lastScale'
p17
F5.4999999999999956
sS'energy'
p18
I1
sb.(i__main__
Data_mobile
p1
(dp2
S'vel_y'
p3
I0
sS'vel_x'
p4
I0
sS'pos_x'
p5
I-9999
sS'pos_y'
p6
I9999
sS'isAlive'
p7
I00
sS'geno'
p8
(lp9
F-0.037314502308040787
aF-1.5266697737832846
aF-3.9931461519608655
aF4.7320391676829523
aF-0.0017243986584334348
aF3.2675833638506617
asS'accel_x'
p10
F0
sS'accel_y'
p11
F0
sS'maxAccel'
p12
I2
sS'maxVel'
p13
F0.5
sS'age'
p14
I0
sS'radius'
p15
I2
sS'gener'
p16
S'm'
sS'lastScale'
p17
F5.4999999999999956
sS'energy'
p18
I1
sb.(i__main__
Data_mobile
p1
(dp2
S'vel_y'
p3
I0
sS'vel_x'
p4
I0
sS'pos_x'
p5
I-9999
sS'pos_y'
p6
I9999
sS'isAlive'
p7
I00
sS'geno'
p8
(lp9
F-0.039389090606090638
aF-1.5266697737832846
aF-4.1653632727227956
aF4.5344671314771334
aF0.79594630547905953
aF3.2675833638506617
asS'accel_x'
p10
F0
sS'accel_y'
p11
F0
sS'maxAccel'
p12
I2
sS'maxVel'
p13
F0.5
sS'age'
p14
I0
sS'radius'
p15
I2
sS'gener'
p16
S'm'
sS'lastScale'
p17
F5.4999999999999956
sS'energy'
p18
I1
sb.(i__main__
Data_mobile
p1
(dp2
S'vel_y'
p3
I0
sS'vel_x'
p4
I0
sS'pos_x'
p5
I-9999
sS'pos_y'
p6
I9999
sS'isAlive'
p7
I00
sS'geno'
p8
(lp9
F-0.037314502308040787
aF-1.5266697737832846
aF-3.9931461519608655
aF4.7876776572727131
aF0.79594630547905953
aF3.2675833638506617
asS'accel_x'
p10
F0
sS'accel_y'
p11
F0
sS'maxAccel'
p12
I2
sS'maxVel'
p13
F0.5
sS'age'
p14
I0
sS'radius'
p15
I2
sS'gener'
p16
S'm'
sS'lastScale'
p17
F5.4999999999999956
sS'energy'
p18
I1
sb.(i__main__
Data_mobile
p1
(dp2
S'vel_y'
p3
I0
sS'vel_x'
p4
I0
sS'pos_x'
p5
I-9999
sS'pos_y'
p6
I9999
sS'isAlive'
p7
I00
sS'geno'
p8
(lp9
F0.74652203674191109
aF-1.5266697737832846
aF-0.21301629094513319
aF4.7876776572727131
aF0.79594630547905953
aF-2.9941242768656862
asS'accel_x'
p10
F0
sS'accel_y'
p11
F0
sS'maxAccel'
p12
I2
sS'maxVel'
p13
F0.5
sS'age'
p14
I0
sS'radius'
p15
I2
sS'gener'
p16
S'm'
sS'lastScale'
p17
F5.4999999999999956
sS'energy'
p18
I1
sb.(i__main__
Data_mobile
p1
(dp2
S'vel_y'
p3
I0
sS'vel_x'
p4
I0
sS'pos_x'
p5
I-9999
sS'pos_y'
p6
I9999
sS'isAlive'
p7
I00
sS'geno'
p8
(lp9
F0.38488362201253334
aF-1.5266697737832846
aF-4.1653632727227956
aF4.7876776572727131
aF0.79594630547905953
aF-2.9941242768656862
asS'accel_x'
p10
F0
sS'accel_y'
p11
F0
sS'maxAccel'
p12
I2
sS'maxVel'
p13
F0.5
sS'age'
p14
I0
sS'radius'
p15
I2
sS'gener'
p16
S'm'
sS'lastScale'
p17
F5.4999999999999956
sS'energy'
p18
I1
sb.(i__main__
Data_mobile
p1
(dp2
S'vel_y'
p3
I0
sS'vel_x'
p4
I0
sS'pos_x'
p5
I-9999
sS'pos_y'
p6
I9999
sS'isAlive'
p7
I00
sS'geno'
p8
(lp9
F0.38488362201253334
aF-1.5266697737832846
aF-4.1653632727227956
aF4.7374171391059665
aF0.79594630547905953
aF3.2675833638506617
asS'accel_x'
p10
F0
sS'accel_y'
p11
F0
sS'maxAccel'
p12
I2
sS'maxVel'
p13
F0.5
sS'age'
p14
I0
sS'radius'
p15
I2
sS'gener'
p16
S'm'
sS'lastScale'
p17
F5.4999999999999956
sS'energy'
p18
I1
sb.(i__main__
Data_mobile
p1
(dp2
S'vel_y'
p3
I0
sS'vel_x'
p4
I0
sS'pos_x'
p5
I-9999
sS'pos_y'
p6
I9999
sS'isAlive'
p7
I00
sS'geno'
p8
(lp9
F-0.037314502308040787
aF-1.1483068257252507
aF-3.9931461519608655
aF4.7876776572727131
aF0.79594630547905953
aF3.2675833638506617
asS'accel_x'
p10
F0
sS'accel_y'
p11
F0
sS'maxAccel'
p12
I2
sS'maxVel'
p13
F0.5
sS'age'
p14
I0
sS'radius'
p15
I2
sS'gener'
p16
S'm'
sS'lastScale'
p17
F5.4999999999999956
sS'energy'
p18
I1
sb.