(i__main__
Data_mobile
p1
(dp2
S'vel_y'
p3
F0.14718934088489813
sS'vel_x'
p4
F0.4778444285851508
sS'pos_x'
p5
F11.030175415285653
sS'pos_y'
p6
F90.874655514324957
sS'isAlive'
p7
I01
sS'geno'
p8
(lp9
S'INTEGER.SHOVE'
p10
aS'target'
p11
a(lp12
S'INTEGER.SHOVE'
p13
aS'randV'
p14
a(lp15
(lp16
(lp17
S'INTEGER.MIN'
p18
a(lp19
(lp20
(lp21
S'POINT.LENGTH'
p22
a(lp23
S'POINT.*'
p24
aaaaS'INTEGER.FLUSH'
p25
aS'CODE.FROMFLOAT'
p26
aaa(lp27
S'CODE.FROMINTEGER'
p28
a(lp29
S'INTEGER.MAX'
p30
a(lp31
S'POINT.*'
p32
aS'CODE.LIST'
p33
aaS'CODE.FROMNAME'
p34
aaS'INTEGER.MIN'
p35
aaS'CODE.EXTRACT'
p36
aS'INTEGER.MIN'
p37
aaS'target'
p38
a(lp39
S'POINT.LENGTH'
p40
a(lp41
S'target'
p42
aaS'INTEGER.SHOVE'
p43
aaaasS'accel_x'
p44
F-1.9113777143406039
sS'accel_y'
p45
F-0.58875736353959041
sS'maxAccel'
p46
I2
sS'maxVel'
p47
F0.5
sS'age'
p48
I100
sS'radius'
p49
I5
sS'gener'
p50
S'm'
sS'lastScale'
p51
F14.500000000000004
sS'energy'
p52
F1.4000000000000004
sb.(i__main__
Data_mobile
p1
(dp2
S'vel_y'
p3
F0.49785490704153373
sS'vel_x'
p4
F-0.036203349758836191
sS'pos_x'
p5
F-6.3308046093597738
sS'pos_y'
p6
F33.892684057741093
sS'isAlive'
p7
I01
sS'geno'
p8
(lp9
(lp10
(lp11
S'FLOAT.DEFINE'
p12
a(lp13
S'CODE.CAR'
p14
a(lp15
(lp16
S'INTEGER.<'
p17
aaaS'CODE.ATOM'
p18
a(lp19
S'INTEGER.YANKDUP'
p20
a(lp21
S'FLOAT.FLUSH'
p22
aS'CODE.FROMNAME'
p23
aS'FLOAT.DEFINE'
p24
aS'CODE.NULL'
p25
aaaS'INTEGER.YANKDUP'
p26
aaa(lp27
S'INTEGER.<'
p28
a(lp29
S'FLOAT.ROT'
p30
aS'CODE.DO*'
p31
a(lp32
S'FLOAT.>'
p33
aS'CODE.ATOM'
p34
aaaS'INTEGER.-'
p35
aa(lp36
(lp37
(lp38
S'INTEGER.<'
p39
aa(lp40
S'INTEGER./'
p41
aS'FLOAT.FLUSH'
p42
aaaa(lp43
S'target'
p44
aaaS'flee'
p45
a(lp46
S'FLOAT.DUP'
p47
a(lp48
S'INTEGER.<'
p49
aa(lp50
S'INTEGER.DEFINE'
p51
aS'CODE.FROMNAME'
p52
aS'CODE.LENGTH'
p53
a(lp54
S'POINT.LENGTH'
p55
aS'CODE.INSTRUCTIONS'
p56
a(lp57
S'INTEGER.SHOVE'
p58
aS'CODE.FROMNAME'
p59
aS'CODE.SHOVE'
p60
aS'FLOAT.MAX'
p61
aaaaasS'accel_x'
p62
F0
sS'accel_y'
p63
F0
sS'maxAccel'
p64
I2
sS'maxVel'
p65
F0.5
sS'age'
p66
I0
sS'radius'
p67
I5
sS'gener'
p68
S'm'
sS'lastScale'
p69
F5.4999999999999956
sS'energy'
p70
F1
sb.(i__main__
Data_mobile
p1
(dp2
S'vel_y'
p3
F-0.49147803092877523
sS'vel_x'
p4
F0.091920319377022913
sS'pos_x'
p5
F158.19641035122135
sS'pos_y'
p6
F54.820530160827524
sS'isAlive'
p7
I01
sS'geno'
p8
(lp9
(lp10
(lp11
S'CODE.DO*COUNT'
p12
a(lp13
(lp14
S'CODE.QUOTE'
p15
a(lp16
(lp17
(lp18
(lp19
S'CODE.ATOM'
p20
aS'FLOAT.STACKDEPTH'
p21
aS'FLOAT.*'
p22
aS'INTEGER.FROMBOOL'
p23
aaS'CODE.DO'
p24
aaS'CODE.CAR'
p25
a(lp26
S'currentVelocity'
p27
a(lp28
S'FLOAT.='
p29
aS'CODE.FROMBOOLEAN'
p30
aS'INTEGER.*'
p31
aS'INTEGER.MAX'
p32
aa(lp33
S'INTEGER.POP'
p34
aS'FLOAT.='
p35
aS'INTEGER.POP'
p36
aa(lp37
S'flee'
p38
aaaS'CODE.FROMNAME'
p39
a(lp40
S'CODE.RAND'
p41
aS'INTEGER.-'
p42
aaaS'CODE.CAR'
p43
a(lp44
S'currentVelocity'
p45
a(lp46
S'FLOAT.DUP'
p47
a(lp48
S'CODE.FLUSH'
p49
aS'POINT.POP'
p50
aaS'INTEGER.-'
p51
aa(lp52
S'INTEGER.POP'
p53
aS'FLOAT.='
p54
aS'INTEGER.POP'
p55
aa(lp56
S'flee'
p57
aaaS'CODE.FROMNAME'
p58
a(lp59
S'CODE.RAND'
p60
aS'INTEGER.-'
p61
aaaaS'CODE.DO*COUNT'
p62
a(lp63
S'FLOAT.SIN'
p64
aS'INTEGER.>'
p65
aaaaS'currentVelocity'
p66
aS'CODE.EXTRACT'
p67
aS'INTEGER.STACKDEPTH'
p68
aaS'target'
p69
a(lp70
S'CODE.LENGTH'
p71
aS'-0.0074371045938313720'
p72
a(lp73
S'CODE.POSITION'
p74
aS'CODE.FROMNAME'
p75
aS'INTEGER.FROMBOOL'
p76
aS'-2'
p77
aaasS'accel_x'
p78
F0.367681234726699
sS'accel_y'
p79
F-1.9659121317164332
sS'maxAccel'
p80
I2
sS'maxVel'
p81
F0.5
sS'age'
p82
I100
sS'radius'
p83
I5
sS'gener'
p84
S'm'
sS'lastScale'
p85
F8.4999999999999982
sS'energy'
p86
F0.79999999999999982
sb.(i__main__
Data_mobile
p1
(dp2
S'vel_y'
p3
F0.2112901345267266
sS'vel_x'
p4
F0.45316275117409832
sS'pos_x'
p5
F166.07219746013527
sS'pos_y'
p6
F-25.736383620845977
sS'isAlive'
p7
I01
sS'geno'
p8
(lp9
(lp10
(lp11
S'CODE.DO*COUNT'
p12
a(lp13
S'POINT./'
p14
aS'INTEGER.YANK'
p15
a(lp16
S'-0.0074371045938313720'
p17
aS'CODE.FROMNAME'
p18
aS'target'
p19
aS'INTEGER.YANK'
p20
aaaaS'CODE.STACKDEPTH'
p21
aS'CODE.EXTRACT'
p22
aS'INTEGER.STACKDEPTH'
p23
aaS'target'
p24
a(lp25
S'CODE.DO'
p26
aS'-0.0074371045938313720'
p27
a(lp28
S'CODE.FROMINTEGER'
p29
aS'FLOAT.YANKDUP'
p30
aS'INTEGER.%'
p31
aaasS'accel_x'
p32
F0
sS'accel_y'
p33
F0
sS'maxAccel'
p34
I2
sS'maxVel'
p35
F0.5
sS'age'
p36
I150
sS'radius'
p37
I5
sS'gener'
p38
S'm'
sS'lastScale'
p39
F6.9999999999999964
sS'energy'
p40
F0.64999999999999969
sb.(i__main__
Data_mobile
p1
(dp2
S'vel_y'
p3
F0.1939157742443213
sS'vel_x'
p4
F0.46086513482712643
sS'pos_x'
p5
F167.63591268287067
sS'pos_y'
p6
F-26.254974907691128
sS'isAlive'
p7
I01
sS'geno'
p8
(lp9
(lp10
(lp11
S'CODE.DO*COUNT'
p12
a(lp13
(lp14
S'CODE.QUOTE'
p15
a(lp16
(lp17
(lp18
S'CODE.ATOM'
p19
aS'FLOAT.STACKDEPTH'
p20
aS'FLOAT.*'
p21
aS'INTEGER.FROMBOOL'
p22
aaS'CODE.DO'
p23
aaS'CODE.CAR'
p24
a(lp25
S'currentVelocity'
p26
a(lp27
S'FLOAT.DUP'
p28
a(lp29
S'CODE.FLUSH'
p30
aS'POINT.POP'
p31
aaS'INTEGER.-'
p32
aaS'INTEGER.DEFINE'
p33
a(lp34
S'flee'
p35
aaaS'CODE.FROMNAME'
p36
a(lp37
S'CODE.RAND'
p38
aS'INTEGER.-'
p39
aaaaS'CODE.DO*COUNT'
p40
a(lp41
S'FLOAT.SIN'
p42
aS'INTEGER.>'
p43
aaaaS'currentVelocity'
p44
aS'CODE.EXTRACT'
p45
aS'INTEGER.STACKDEPTH'
p46
aaS'target'
p47
a(lp48
(lp49
S'FLOAT.TAN'
p50
aa(lp51
S'CODE.MEMBER'
p52
aaS'CODE.ROT'
p53
aasS'accel_x'
p54
F0
sS'accel_y'
p55
F0
sS'maxAccel'
p56
I2
sS'maxVel'
p57
F0.5
sS'age'
p58
I450
sS'radius'
p59
I5
sS'gener'
p60
S'm'
sS'lastScale'
p61
F7.4999999999999973
sS'energy'
p62
F0.69999999999999973
sb.(i__main__
Data_mobile
p1
(dp2
S'vel_y'
p3
F-0.37769458346302637
sS'vel_x'
p4
F0.26065399792728761
sS'pos_x'
p5
F17.142724918569467
sS'pos_y'
p6
F8.6241200381727552
sS'isAlive'
p7
I01
sS'geno'
p8
(lp9
(lp10
(lp11
S'FLOAT.DEFINE'
p12
a(lp13
S'CODE.CAR'
p14
a(lp15
(lp16
S'INTEGER.<'
p17
aaaS'CODE.ATOM'
p18
a(lp19
S'INTEGER.YANKDUP'
p20
a(lp21
S'INTEGER.DEFINE'
p22
aS'CODE.FROMNAME'
p23
aS'FLOAT.DEFINE'
p24
aS'CODE.NULL'
p25
aaaS'INTEGER.YANKDUP'
p26
aaa(lp27
S'INTEGER.<'
p28
a(lp29
S'FLOAT.ROT'
p30
aS'CODE.DO*'
p31
a(lp32
S'FLOAT.>'
p33
aS'CODE.ATOM'
p34
aaaS'INTEGER.-'
p35
aa(lp36
(lp37
(lp38
(lp39
S'currentVelocity'
p40
aaS'FLOAT.MAX'
p41
aa(lp42
S'POINT.-'
p43
aaaa(lp44
(lp45
(lp46
(lp47
S'INTEGER.<'
p48
aa(lp49
S'INTEGER.YANKDUP'
p50
aS'FLOAT.FLUSH'
p51
aaaaaaS'target'
p52
a(lp53
S'FLOAT.DUP'
p54
a(lp55
S'INTEGER.<'
p56
aa(lp57
S'INTEGER.DEFINE'
p58
aS'CODE.FROMNAME'
p59
aS'CODE.LENGTH'
p60
a(lp61
S'POINT.LENGTH'
p62
aS'CODE.INSTRUCTIONS'
p63
a(lp64
S'INTEGER.SHOVE'
p65
aS'CODE.FROMNAME'
p66
aS'CODE.SHOVE'
p67
aS'-0.0074371045938313720'
p68
aaaaasS'accel_x'
p69
F0
sS'accel_y'
p70
F0
sS'maxAccel'
p71
I2
sS'maxVel'
p72
F0.5
sS'age'
p73
I0
sS'radius'
p74
I5
sS'gener'
p75
S'm'
sS'lastScale'
p76
F2.999999999999996
sS'energy'
p77
F1
sb.(i__main__
Data_mobile
p1
(dp2
S'vel_y'
p3
F-0.49766478906744033
sS'vel_x'
p4
F0.048267563875340855
sS'pos_x'
p5
F-24.837551467220674
sS'pos_y'
p6
F42.795280879799805
sS'isAlive'
p7
I01
sS'geno'
p8
(lp9
(lp10
(lp11
S'CODE.DO*COUNT'
p12
a(lp13
S'randV'
p14
a(lp15
S'INTEGER.<'
p16
aa(lp17
S'INTEGER.SHOVE'
p18
aS'CODE.FROMNAME'
p19
aS'CODE.LENGTH'
p20
aS'CODE.EXTRACT'
p21
aaaaS'CODE.STACKDEPTH'
p22
aS'CODE.EXTRACT'
p23
aS'INTEGER.STACKDEPTH'
p24
aaS'target'
p25
a(lp26
S'FLOAT.FLUSH'
p27
aS'CODE.FROMNAME'
p28
aS'CODE.LENGTH'
p29
aS'INTEGER.YANK'
p30
aasS'accel_x'
p31
F-0.19307025550137588
sS'accel_y'
p32
F1.9906591562697602
sS'maxAccel'
p33
I2
sS'maxVel'
p34
F0.5
sS'age'
p35
I350
sS'radius'
p36
I5
sS'gener'
p37
S'm'
sS'lastScale'
p38
F14.500000000000004
sS'energy'
p39
F1.4000000000000004
sb.(i__main__
Data_mobile
p1
(dp2
S'vel_y'
p3
F-0.11307143023736438
sS'vel_x'
p4
F-0.47325358395672562
sS'pos_x'
p5
F-1.6113825699302762
sS'pos_y'
p6
F74.031412317284207
sS'isAlive'
p7
I01
sS'geno'
p8
(lp9
(lp10
(lp11
S'CODE.DO*COUNT'
p12
a(lp13
S'POINT.LENGTH'
p14
aS'POINT.+'
p15
a(lp16
S'FLOAT.FLUSH'
p17
aS'CODE.FROMNAME'
p18
aS'CODE.LENGTH'
p19
aS'INTEGER.YANK'
p20
aaaaS'CODE.STACKDEPTH'
p21
aS'cohension'
p22
aS'CODE.EXTRACT'
p23
aaS'target'
p24
aS'INTEGER.YANK'
p25
asS'accel_x'
p26
F0
sS'accel_y'
p27
F0
sS'maxAccel'
p28
I2
sS'maxVel'
p29
F0.5
sS'age'
p30
I0
sS'radius'
p31
I5
sS'gener'
p32
S'm'
sS'lastScale'
p33
F5.0999999999999961
sS'energy'
p34
F1
sb.(i__main__
Data_mobile
p1
(dp2
S'vel_y'
p3
F0.4994843484291055
sS'vel_x'
p4
F-0.022702107266769654
sS'pos_x'
p5
F-24.980406350899244
sS'pos_y'
p6
F44.729569455914344
sS'isAlive'
p7
I01
sS'geno'
p8
(lp9
(lp10
(lp11
(lp12
(lp13
S'CODE.INSTRUCTIONS'
p14
aa(lp15
S'INTEGER.<'
p16
aS'CODE.SIZE'
p17
aaaaaS'target'
p18
a(lp19
S'POINT.LENGTH'
p20
a(lp21
S'FLOAT.YANKDUP'
p22
aaS'CODE.DO*RANGE'
p23
aasS'accel_x'
p24
F0.090808429067073287
sS'accel_y'
p25
F-1.9979373937164224
sS'maxAccel'
p26
I2
sS'maxVel'
p27
F0.5
sS'age'
p28
I100
sS'radius'
p29
I5
sS'gener'
p30
S'm'
sS'lastScale'
p31
F14.500000000000004
sS'energy'
p32
F1.4000000000000004
sb.(i__main__
Data_mobile
p1
(dp2
S'vel_y'
p3
F0.47906907805675142
sS'vel_x'
p4
F-0.14315312937499555
sS'pos_x'
p5
F30.932562957215893
sS'pos_y'
p6
F56.554908974155481
sS'isAlive'
p7
I01
sS'geno'
p8
(lp9
(lp10
(lp11
S'CODE.DO*COUNT'
p12
a(lp13
S'POINT.LENGTH'
p14
a(lp15
S'INTEGER.<'
p16
aa(lp17
S'FLOAT.FLUSH'
p18
aS'CODE.FROMNAME'
p19
aS'CODE.LENGTH'
p20
aS'INTEGER.YANK'
p21
aaaaS'CODE.STACKDEPTH'
p22
aS'CODE.EXTRACT'
p23
aS'INTEGER.STACKDEPTH'
p24
aaS'target'
p25
a(lp26
S'POINT.LENGTH'
p27
aS'-0.0074371045938313720'
p28
a(lp29
(lp30
(lp31
S'INTEGER.<'
p32
aS'FLOAT.STACKDEPTH'
p33
aS'FLOAT.*'
p34
aS'INTEGER.FROMBOOL'
p35
aaS'CODE.DO'
p36
aaS'FLOAT.YANKDUP'
p37
aS'INTEGER.%'
p38
aaasS'accel_x'
p39
F-0.57261251749998066
sS'accel_y'
p40
F1.9162763122270061
sS'maxAccel'
p41
I2
sS'maxVel'
p42
F0.5
sS'age'
p43
I100
sS'radius'
p44
I5
sS'gener'
p45
S'm'
sS'lastScale'
p46
F14.500000000000004
sS'energy'
p47
F1.4000000000000004
sb.(i__main__
Data_mobile
p1
(dp2
S'vel_y'
p3
F0.21545344592628921
sS'vel_x'
p4
F0.45119819662592575
sS'pos_x'
p5
F165.94846521518778
sS'pos_y'
p6
F-25.504321148915068
sS'isAlive'
p7
I01
sS'geno'
p8
(lp9
(lp10
(lp11
S'INTEGER.MIN'
p12
a(lp13
(lp14
(lp15
S'INTEGER.RAND'
p16
a(lp17
S'POINT.*'
p18
aaaa(lp19
S'FLOAT.ROT'
p20
aS'CODE.DO*'
p21
a(lp22
S'FLOAT.>'
p23
aS'CODE.ATOM'
p24
aaaS'CODE.FROMFLOAT'
p25
aaa(lp26
S'target'
p27
a(lp28
S'INTEGER.SWAP'
p29
a(lp30
S'FLOAT.ROT'
p31
aS'CODE.FROMFLOAT'
p32
aaS'FLOAT.FLUSH'
p33
aaS'INTEGER.MIN'
p34
aaS'CODE.EXTRACT'
p35
aS'CODE.FROMBOOLEAN'
p36
aaS'target'
p37
a(lp38
S'POINT.LENGTH'
p39
a(lp40
S'INTEGER.<'
p41
aaS'CODE.IF'
p42
aasS'accel_x'
p43
F0
sS'accel_y'
p44
F0
sS'maxAccel'
p45
I2
sS'maxVel'
p46
F0.5
sS'age'
p47
I150
sS'radius'
p48
I5
sS'gener'
p49
S'm'
sS'lastScale'
p50
F6.9999999999999964
sS'energy'
p51
F0.64999999999999969
sb.(i__main__
Data_mobile
p1
(dp2
S'vel_y'
p3
F-0.24782771098194381
sS'vel_x'
p4
F0.43425962933416934
sS'pos_x'
p5
F-37.401296674326098
sS'pos_y'
p6
F-6.8950760788719876
sS'isAlive'
p7
I01
sS'geno'
p8
(lp9
(lp10
(lp11
S'FLOAT.DEFINE'
p12
a(lp13
S'CODE.CAR'
p14
a(lp15
S'FLOAT.='
p16
aaS'CODE.ATOM'
p17
a(lp18
S'-2'
p19
aS'randV'
p20
aaS'INTEGER.YANKDUP'
p21
aaa(lp22
S'CODE.FROMINTEGER'
p23
a(lp24
S'INTEGER.+'
p25
aS'CODE.LIST'
p26
aS'-7'
p27
aaS'INTEGER.FROMBOOL'
p28
aaS'INTEGER.<'
p29
a(lp30
S'target'
p31
aS'INTEGER.='
p32
a(lp33
S'CODE.SIZE'
p34
aS'POINT.+'
p35
aS'CODE.FROMFLOAT'
p36
aS'CODE.SWAP'
p37
aaaaS'target'
p38
aS'CODE.FROMINTEGER'
p39
asS'accel_x'
p40
F0
sS'accel_y'
p41
F0
sS'maxAccel'
p42
I2
sS'maxVel'
p43
F0.5
sS'age'
p44
I200
sS'radius'
p45
I5
sS'gener'
p46
S'm'
sS'lastScale'
p47
F12.500000000000002
sS'energy'
p48
F1.2000000000000002
sb.(i__main__
Data_mobile
p1
(dp2
S'vel_y'
p3
F-0.2529438666597425
sS'vel_x'
p4
F0.43129966417702947
sS'pos_x'
p5
F-37.040568343163493
sS'pos_y'
p6
F-7.2404501172268336
sS'isAlive'
p7
I01
sS'geno'
p8
(lp9
(lp10
(lp11
S'FLOAT.DEFINE'
p12
a(lp13
S'CODE.CAR'
p14
a(lp15
S'FLOAT.='
p16
aaS'CODE.ATOM'
p17
a(lp18
S'-2'
p19
aS'randV'
p20
aaS'INTEGER.YANKDUP'
p21
aaa(lp22
S'CODE.FROMINTEGER'
p23
a(lp24
S'INTEGER.POP'
p25
aS'CODE.LIST'
p26
aS'-7'
p27
aaS'INTEGER.FROMBOOL'
p28
aaS'INTEGER.<'
p29
a(lp30
(lp31
(lp32
S'FLOAT.DEFINE'
p33
a(lp34
S'CODE.CAR'
p35
aS'FLOAT.STACKDEPTH'
p36
aS'CODE.ATOM'
p37
a(lp38
S'-2'
p39
aS'randV'
p40
aaS'INTEGER.YANKDUP'
p41
aaaS'CODE.FROMFLOAT'
p42
a(lp43
(lp44
(lp45
S'currentVelocity'
p46
aaS'FLOAT.MAX'
p47
aaS'INTEGER.<'
p48
aaaaaS'target'
p49
a(lp50
S'POINT.LENGTH'
p51
a(lp52
S'INTEGER.<'
p53
aa(lp54
S'INTEGER.DEFINE'
p55
aS'CODE.FROMNAME'
p56
aS'FLOAT.>'
p57
aS'FLOAT.YANK'
p58
aaasS'accel_x'
p59
F0
sS'accel_y'
p60
F0
sS'maxAccel'
p61
I2
sS'maxVel'
p62
F0.5
sS'age'
p63
I544
sS'radius'
p64
I5
sS'gener'
p65
S'm'
sS'lastScale'
p66
F12.600000000000001
sS'energy'
p67
F1.2100000000000002
sb.(i__main__
Data_mobile
p1
(dp2
S'vel_y'
p3
F0.31507656161812103
sS'vel_x'
p4
F-0.38823544443919905
sS'pos_x'
p5
F186.59228943962742
sS'pos_y'
p6
F-78.202471492240107
sS'isAlive'
p7
I01
sS'geno'
p8
(lp9
(lp10
(lp11
S'CODE.DO*COUNT'
p12
a(lp13
(lp14
S'FLOAT.YANK'
p15
aaS'INTEGER.FLUSH'
p16
a(lp17
S'POINT.-'
p18
aS'CODE.DO*RANGE'
p19
aaaaS'currentVelocity'
p20
aS'CODE.EXTRACT'
p21
aS'INTEGER.STACKDEPTH'
p22
aaS'target'
p23
a(lp24
S'POINT.LENGTH'
p25
aS'-0.0074371045938313720'
p26
a(lp27
S'FLOAT.FLUSH'
p28
aS'CODE.FROMNAME'
p29
aS'INTEGER.FROMBOOL'
p30
aS'-2'
p31
aaasS'accel_x'
p32
F-1.5529417777568222
sS'accel_y'
p33
F1.2603062464724517
sS'maxAccel'
p34
I2
sS'maxVel'
p35
F0.5
sS'age'
p36
I250
sS'radius'
p37
I5
sS'gener'
p38
S'm'
sS'lastScale'
p39
F10.5
sS'energy'
p40
F1
sb.(i__main__
Data_mobile
p1
(dp2
S'vel_y'
p3
F0.13937500433111105
sS'vel_x'
p4
F0.48018184906106431
sS'pos_x'
p5
F10.64611578060417
sS'pos_y'
p6
F90.742896787125858
sS'isAlive'
p7
I01
sS'geno'
p8
(lp9
(lp10
(lp11
S'CODE.DO*COUNT'
p12
a(lp13
(lp14
S'CODE.SHOVE'
p15
aaS'INTEGER.FLUSH'
p16
a(lp17
S'POINT.-'
p18
aS'CODE.DO*RANGE'
p19
aaaaS'currentVelocity'
p20
aS'CODE.EXTRACT'
p21
aS'INTEGER.STACKDEPTH'
p22
aaS'target'
p23
a(lp24
S'POINT.LENGTH'
p25
aS'-0.0074371045938313720'
p26
a(lp27
S'CODE.POSITION'
p28
aS'CODE.FROMNAME'
p29
aS'INTEGER.FROMBOOL'
p30
aS'-2'
p31
aaasS'accel_x'
p32
F-1.9207273962442588
sS'accel_y'
p33
F-0.55750001732443855
sS'maxAccel'
p34
I2
sS'maxVel'
p35
F0.5
sS'age'
p36
I544
sS'radius'
p37
I5
sS'gener'
p38
S'm'
sS'lastScale'
p39
F14.600000000000003
sS'energy'
p40
F1.4100000000000004
sb.(i__main__
Data_mobile
p1
(dp2
S'vel_y'
p3
F0.49941418060065229
sS'vel_x'
p4
F-0.024196615775331796
sS'pos_x'
p5
F-24.981635307469716
sS'pos_y'
p6
F44.701191554484808
sS'isAlive'
p7
I01
sS'geno'
p8
(lp9
(lp10
S'CODE.FROMFLOAT'
p11
aS'currentVelocity'
p12
aS'CODE.EXTRACT'
p13
aS'INTEGER.STACKDEPTH'
p14
aaS'target'
p15
a(lp16
S'POINT.LENGTH'
p17
aS'-0.0074371045938313720'
p18
a(lp19
S'CODE.DO'
p20
aS'CODE.FROMNAME'
p21
aS'INTEGER.FROMBOOL'
p22
aS'-2'
p23
aaasS'accel_x'
p24
F0.096786463101313003
sS'accel_y'
p25
F-1.9976567224026101
sS'maxAccel'
p26
I2
sS'maxVel'
p27
F0.5
sS'age'
p28
I250
sS'radius'
p29
I5
sS'gener'
p30
S'm'
sS'lastScale'
p31
F14.500000000000004
sS'energy'
p32
F1.4000000000000004
sb.(i__main__
Data_mobile
p1
(dp2
S'vel_y'
p3
F-0.49989808589731344
sS'vel_x'
p4
F0.010094737054637978
sS'pos_x'
p5
F-24.950191428015071
sS'pos_y'
p6
F44.319312085187697
sS'isAlive'
p7
I01
sS'geno'
p8
(lp9
S'INTEGER.SHOVE'
p10
aS'target'
p11
a(lp12
S'INTEGER.SHOVE'
p13
aS'INTEGER.DEFINE'
p14
a(lp15
(lp16
S'POINT.LENGTH'
p17
aS'-0.0074371045938313720'
p18
a(lp19
S'CODE.FROMINTEGER'
p20
aS'FLOAT.YANKDUP'
p21
aS'INTEGER.%'
p22
aaaS'INTEGER.='
p23
a(lp24
S'CODE.SIZE'
p25
aS'CODE.FROMNAME'
p26
aS'CODE.FROMFLOAT'
p27
aS'CODE.SWAP'
p28
aaaasS'accel_x'
p29
F0.040378948218528318
sS'accel_y'
p30
F-1.9995923435892542
sS'maxAccel'
p31
I2
sS'maxVel'
p32
F0.5
sS'age'
p33
I500
sS'radius'
p34
I5
sS'gener'
p35
S'm'
sS'lastScale'
p36
F14.500000000000004
sS'energy'
p37
F1.4000000000000004
sb.(i__main__
Data_mobile
p1
(dp2
S'vel_y'
p3
F0.49995168148315072
sS'vel_x'
p4
F-0.0069509842591000534
sS'pos_x'
p5
F-24.956505691285489
sS'pos_y'
p6
F44.980686611571429
sS'isAlive'
p7
I01
sS'geno'
p8
(lp9
(lp10
(lp11
S'CODE.DO*COUNT'
p12
a(lp13
S'POINT.LENGTH'
p14
a(lp15
S'INTEGER.<'
p16
aa(lp17
S'FLOAT.FLUSH'
p18
aS'CODE.FROMNAME'
p19
aS'CODE.LENGTH'
p20
aS'INTEGER.YANK'
p21
aaaaS'CODE.STACKDEPTH'
p22
aS'CODE.EXTRACT'
p23
aS'INTEGER.STACKDEPTH'
p24
aaS'target'
p25
a(lp26
S'POINT.LENGTH'
p27
aS'-0.0074371045938313720'
p28
a(lp29
S'CODE.FROMINTEGER'
p30
aS'FLOAT.YANKDUP'
p31
aS'INTEGER.%'
p32
aaasS'accel_x'
p33
F0.02780393703638228
sS'accel_y'
p34
F-1.9998067259326029
sS'maxAccel'
p35
I2
sS'maxVel'
p36
F0.5
sS'age'
p37
I544
sS'radius'
p38
I5
sS'gener'
p39
S'm'
sS'lastScale'
p40
F14.600000000000003
sS'energy'
p41
F1.4100000000000004
sb.(i__main__
Data_mobile
p1
(dp2
S'vel_y'
p3
F0.13095229733421598
sS'vel_x'
p4
F0.48254688458520906
sS'pos_x'
p5
F169.88742344497078
sS'pos_y'
p6
F-29.741135088805116
sS'isAlive'
p7
I01
sS'geno'
p8
(lp9
(lp10
(lp11
S'CODE.SHOVE'
p12
aS'cohension'
p13
a(lp14
S'CODE.ATOM'
p15
aaS'INTEGER.='
p16
aS'FLOAT.DEFINE'
p17
aS'INTEGER.SWAP'
p18
aS'CODE.CDR'
p19
aa(lp20
S'CODE.FROMINTEGER'
p21
a(lp22
S'INTEGER.MAX'
p23
a(lp24
S'FLOAT.ROT'
p25
aS'CODE.FROMFLOAT'
p26
aaS'FLOAT.FLUSH'
p27
aaS'INTEGER.MIN'
p28
aaS'CODE.EXTRACT'
p29
aS'CODE.FROMBOOLEAN'
p30
aaS'target'
p31
a(lp32
S'POINT.LENGTH'
p33
a(lp34
S'INTEGER.<'
p35
aaS'POINT.LENGTH'
p36
aasS'accel_x'
p37
F0
sS'accel_y'
p38
F0
sS'maxAccel'
p39
I2
sS'maxVel'
p40
F0.5
sS'age'
p41
I150
sS'radius'
p42
I5
sS'gener'
p43
S'm'
sS'lastScale'
p44
F8.4999999999999982
sS'energy'
p45
F0.79999999999999982
sb.(i__main__
Data_mobile
p1
(dp2
S'vel_y'
p3
F0.21289880848567072
sS'vel_x'
p4
F0.45240921447886284
sS'pos_x'
p5
F166.19885918972665
sS'pos_y'
p6
F-25.564730272030907
sS'isAlive'
p7
I01
sS'geno'
p8
(lp9
(lp10
(lp11
S'CODE.DO*COUNT'
p12
a(lp13
S'POINT.LENGTH'
p14
a(lp15
S'INTEGER.<'
p16
aa(lp17
S'FLOAT.FLUSH'
p18
aS'CODE.FROMNAME'
p19
aS'CODE.LENGTH'
p20
aS'INTEGER.YANK'
p21
aaaaS'CODE.STACKDEPTH'
p22
aS'CODE.EXTRACT'
p23
aS'INTEGER.STACKDEPTH'
p24
aaS'target'
p25
a(lp26
S'FLOAT.FLUSH'
p27
aS'CODE.FROMNAME'
p28
aS'CODE.LENGTH'
p29
aS'CODE.LENGTH'
p30
aasS'accel_x'
p31
F0
sS'accel_y'
p32
F0
sS'maxAccel'
p33
I2
sS'maxVel'
p34
F0.5
sS'age'
p35
I400
sS'radius'
p36
I5
sS'gener'
p37
S'm'
sS'lastScale'
p38
F6.4999999999999964
sS'energy'
p39
F0.59999999999999964
sb.(i__main__
Data_mobile
p1
(dp2
S'vel_y'
p3
F-0.25301637791735265
sS'vel_x'
p4
F0.43125713038230851
sS'pos_x'
p5
F-37.029116360731798
sS'pos_y'
p6
F-7.249166977658807
sS'isAlive'
p7
I01
sS'geno'
p8
(lp9
S'INTEGER.SHOVE'
p10
aS'target'
p11
a(lp12
S'POINT.LENGTH'
p13
aS'CODE.CONS'
p14
a(lp15
S'INTEGER.DEFINE'
p16
aS'CODE.FROMNAME'
p17
aS'FLOAT.>'
p18
aS'FLOAT.YANK'
p19
aaasS'accel_x'
p20
F0
sS'accel_y'
p21
F0
sS'maxAccel'
p22
I2
sS'maxVel'
p23
F0.5
sS'age'
p24
I544
sS'radius'
p25
I5
sS'gener'
p26
S'm'
sS'lastScale'
p27
F12.600000000000001
sS'energy'
p28
F1.2100000000000002
sb.(i__main__
Data_mobile
p1
(dp2
S'vel_y'
p3
F-0.05185224633406723
sS'vel_x'
p4
F-0.49730407654684594
sS'pos_x'
p5
F8.9991642585530034
sS'pos_y'
p6
F90.430345562542868
sS'isAlive'
p7
I01
sS'geno'
p8
(lp9
(lp10
(lp11
(lp12
(lp13
S'INTEGER.<'
p14
aa(lp15
S'POINT.LENGTH'
p16
aS'CODE.SIZE'
p17
aaaaaS'target'
p18
a(lp19
S'POINT.LENGTH'
p20
a(lp21
S'CODE.ROT'
p22
aaS'CODE.FROMINTEGER'
p23
aasS'accel_x'
p24
F1.9892163061873815
sS'accel_y'
p25
F0.20740898533629173
sS'maxAccel'
p26
I2
sS'maxVel'
p27
F0.5
sS'age'
p28
I200
sS'radius'
p29
I5
sS'gener'
p30
S'm'
sS'lastScale'
p31
F14.500000000000004
sS'energy'
p32
F1.4000000000000004
sb.(i__main__
Data_mobile
p1
(dp2
S'vel_y'
p3
F-0.44873291794407294
sS'vel_x'
p4
F-0.21302426608324118
sS'pos_x'
p5
F-123.68952989252301
sS'pos_y'
p6
F-4.2925053849542323
sS'isAlive'
p7
I01
sS'geno'
p8
(lp9
S'target'
p10
aS'target'
p11
a(lp12
S'POINT.LENGTH'
p13
aS'target'
p14
a(lp15
S'CODE.FROMINTEGER'
p16
aS'CODE.SWAP'
p17
aS'INTEGER.%'
p18
aaasS'accel_x'
p19
F0
sS'accel_y'
p20
F0
sS'maxAccel'
p21
I2
sS'maxVel'
p22
F0.5
sS'age'
p23
I0
sS'radius'
p24
I5
sS'gener'
p25
S'm'
sS'lastScale'
p26
F5.4999999999999956
sS'energy'
p27
F1
sb.(i__main__
Data_mobile
p1
(dp2
S'vel_y'
p3
F-0.027837586117452032
sS'vel_x'
p4
F-0.25061486227998714
sS'pos_x'
p5
F-52.869964429488192
sS'pos_y'
p6
F48.794006620417839
sS'isAlive'
p7
I01
sS'geno'
p8
(lp9
(lp10
(lp11
S'CODE.DO*COUNT'
p12
a(lp13
(lp14
S'CODE.SHOVE'
p15
aaS'INTEGER.FLUSH'
p16
a(lp17
S'POINT.-'
p18
a(lp19
S'INTEGER.ROT'
p20
aaaaaS'FLOAT./'
p21
aS'CODE.EXTRACT'
p22
aS'INTEGER.STACKDEPTH'
p23
aaS'target'
p24
a(lp25
S'POINT.LENGTH'
p26
aS'-0.0074371045938313720'
p27
aS'CODE.QUOTE'
p28
aasS'accel_x'
p29
F0
sS'accel_y'
p30
F0
sS'maxAccel'
p31
I2
sS'maxVel'
p32
F0.5
sS'age'
p33
I0
sS'radius'
p34
I5
sS'gener'
p35
S'm'
sS'lastScale'
p36
F5.4999999999999956
sS'energy'
p37
F1
sb.(i__main__
Data_mobile
p1
(dp2
S'vel_y'
p3
F0.16956315087214008
sS'vel_x'
p4
F0.4703704262241748
sS'pos_x'
p5
F-67.281287755808776
sS'pos_y'
p6
F-81.867560651910438
sS'isAlive'
p7
I01
sS'geno'
p8
(lp9
(lp10
(lp11
(lp12
S'FLOAT.FLUSH'
p13
aS'POINT.RAND'
p14
aaS'FLOAT.POP'
p15
aS'CODE.EXTRACT'
p16
aaS'INTEGER.+'
p17
aaS'CODE.STACKDEPTH'
p18
aS'CODE.NTHCDR'
p19
a(lp20
(lp21
(lp22
(lp23
(lp24
S'INTEGER.MIN'
p25
a(lp26
(lp27
(lp28
S'INTEGER.RAND'
p29
a(lp30
S'POINT.*'
p31
aaaaS'INTEGER.FLUSH'
p32
aS'CODE.FROMFLOAT'
p33
aaa(lp34
S'CODE.FROMINTEGER'
p35
a(lp36
S'INTEGER.MAX'
p37
aS'CODE.FROMFLOAT'
p38
aS'FLOAT.FLUSH'
p39
aaS'INTEGER.MIN'
p40
aaS'CODE.EXTRACT'
p41
aS'CODE.FROMBOOLEAN'
p42
aaS'target'
p43
a(lp44
S'POINT.LENGTH'
p45
a(lp46
S'INTEGER.<'
p47
aaS'POINT.LENGTH'
p48
aaaaS'FLOAT.COS'
p49
aaS'FLOAT.+'
p50
asS'accel_x'
p51
F1.8814817048967245
sS'accel_y'
p52
F0.67825260348849037
sS'maxAccel'
p53
I2
sS'maxVel'
p54
F0.5
sS'age'
p55
I150
sS'radius'
p56
I5
sS'gener'
p57
S'm'
sS'lastScale'
p58
F14.500000000000004
sS'energy'
p59
F1.4000000000000004
sb.(i__main__
Data_mobile
p1
(dp2
S'vel_y'
p3
F-0.48883430768024944
sS'vel_x'
p4
F0.10507625628452538
sS'pos_x'
p5
F158.81943763683083
sS'pos_y'
p6
F50.16897347035934
sS'isAlive'
p7
I01
sS'geno'
p8
(lp9
S'INTEGER.SHOVE'
p10
aS'target'
p11
a(lp12
S'INTEGER.SHOVE'
p13
aS'randV'
p14
a(lp15
(lp16
(lp17
(lp18
S'CODE.DO*COUNT'
p19
a(lp20
S'POINT.LENGTH'
p21
aS'FLOAT.<'
p22
a(lp23
S'FLOAT.FLUSH'
p24
aS'CODE.FROMNAME'
p25
aS'CODE.LENGTH'
p26
aS'INTEGER.YANK'
p27
aaaaS'CODE.STACKDEPTH'
p28
aS'CODE.EXTRACT'
p29
aS'INTEGER.STACKDEPTH'
p30
aaS'target'
p31
aS'FLOAT.FLUSH'
p32
aaS'INTEGER.='
p33
a(lp34
S'CODE.SIZE'
p35
aS'CODE.FROMNAME'
p36
aS'CODE.FROMFLOAT'
p37
aS'CODE.SWAP'
p38
aaaasS'accel_x'
p39
F0.42030502514334672
sS'accel_y'
p40
F-1.9553372307198702
sS'maxAccel'
p41
I2
sS'maxVel'
p42
F0.5
sS'age'
p43
I300
sS'radius'
p44
I5
sS'gener'
p45
S'm'
sS'lastScale'
p46
F9.5
sS'energy'
p47
F0.89999999999999991
sb.(i__main__
Data_mobile
p1
(dp2
S'vel_y'
p3
F-0.4877610617747915
sS'vel_x'
p4
F0.10995065537016158
sS'pos_x'
p5
F158.74714282222362
sS'pos_y'
p6
F50.079081985674563
sS'isAlive'
p7
I01
sS'geno'
p8
(lp9
(lp10
(lp11
S'CODE.DO*COUNT'
p12
aS'POINT.LENGTH'
p13
aaS'CODE.STACKDEPTH'
p14
aS'CODE.EXTRACT'
p15
aS'INTEGER.STACKDEPTH'
p16
aaS'CODE.DO*COUNT'
p17
a(lp18
S'INTEGER.-'
p19
aS'-0.0074371045938313720'
p20
a(lp21
S'CODE.FROMINTEGER'
p22
aS'target'
p23
aS'CODE.ATOM'
p24
aaasS'accel_x'
p25
F0.43980262148593285
sS'accel_y'
p26
F-1.9510442470979745
sS'maxAccel'
p27
I2
sS'maxVel'
p28
F0.5
sS'age'
p29
I100
sS'radius'
p30
I5
sS'gener'
p31
S'm'
sS'lastScale'
p32
F12.500000000000002
sS'energy'
p33
F1.2000000000000002
sb.(i__main__
Data_mobile
p1
(dp2
S'vel_y'
p3
F-0.24834170825624477
sS'vel_x'
p4
F0.43396589260029433
sS'pos_x'
p5
F-37.610671987059419
sS'pos_y'
p6
F-6.7885797087812616
sS'isAlive'
p7
I01
sS'geno'
p8
(lp9
(lp10
(lp11
S'CODE.DO*COUNT'
p12
a(lp13
S'POINT.LENGTH'
p14
a(lp15
S'INTEGER.<'
p16
aa(lp17
S'FLOAT.FLUSH'
p18
aS'CODE.FROMNAME'
p19
aS'CODE.LENGTH'
p20
a(lp21
S'INTEGER.SHOVE'
p22
aS'target'
p23
a(lp24
S'POINT.LENGTH'
p25
aS'CODE.CONS'
p26
a(lp27
S'INTEGER.DEFINE'
p28
aS'CODE.FROMNAME'
p29
aS'FLOAT.>'
p30
aS'FLOAT.YANK'
p31
aaaaaaaS'FLOAT.MIN'
p32
aS'CODE.EXTRACT'
p33
aS'INTEGER.STACKDEPTH'
p34
aaS'target'
p35
a(lp36
S'POINT.LENGTH'
p37
a(lp38
S'CODE.SHOVE'
p39
aa(lp40
S'CODE.FROMINTEGER'
p41
aS'FLOAT.YANKDUP'
p42
aS'INTEGER.%'
p43
aaasS'accel_x'
p44
F0
sS'accel_y'
p45
F0
sS'maxAccel'
p46
I2
sS'maxVel'
p47
F0.5
sS'age'
p48
I200
sS'radius'
p49
I5
sS'gener'
p50
S'm'
sS'lastScale'
p51
F12.500000000000002
sS'energy'
p52
F1.2000000000000002
sb.(i__main__
Data_mobile
p1
(dp2
S'vel_y'
p3
F-0.25395449921091839
sS'vel_x'
p4
F0.43070536603405774
sS'pos_x'
p5
F-37.167155767524157
sS'pos_y'
p6
F-7.1937124129352972
sS'isAlive'
p7
I01
sS'geno'
p8
(lp9
(lp10
(lp11
S'FLOAT.DEFINE'
p12
a(lp13
S'CODE.CAR'
p14
a(lp15
S'FLOAT.='
p16
aaS'CODE.ATOM'
p17
a(lp18
S'-2'
p19
aS'randV'
p20
aaS'INTEGER.YANKDUP'
p21
aaa(lp22
S'CODE.FROMINTEGER'
p23
a(lp24
S'POINT.-'
p25
aS'-0.44273096682567403'
p26
aaS'INTEGER.FROMBOOL'
p27
aaS'INTEGER.<'
p28
a(lp29
(lp30
(lp31
S'FLOAT.DEFINE'
p32
a(lp33
S'CODE.CAR'
p34
aS'FLOAT.STACKDEPTH'
p35
aS'CODE.ATOM'
p36
a(lp37
S'-2'
p38
aS'randV'
p39
aaS'INTEGER.YANKDUP'
p40
aaa(lp41
S'CODE.ROT'
p42
aa(lp43
(lp44
(lp45
S'currentVelocity'
p46
aaS'FLOAT.MAX'
p47
aaS'INTEGER.<'
p48
aaaaaS'target'
p49
a(lp50
S'POINT.LENGTH'
p51
a(lp52
S'INTEGER.<'
p53
aa(lp54
S'INTEGER.DEFINE'
p55
aS'CODE.FROMNAME'
p56
aS'FLOAT.>'
p57
aS'FLOAT.YANK'
p58
aaasS'accel_x'
p59
F0
sS'accel_y'
p60
F0
sS'maxAccel'
p61
I2
sS'maxVel'
p62
F0.5
sS'age'
p63
I200
sS'radius'
p64
I5
sS'gener'
p65
S'm'
sS'lastScale'
p66
F12.500000000000002
sS'energy'
p67
F1.2000000000000002
sb.(i__main__
Data_mobile
p1
(dp2
S'vel_y'
p3
F0.49956741687278161
sS'vel_x'
p4
F-0.02079413376547554
sS'pos_x'
p5
F-24.974224109981407
sS'pos_y'
p6
F44.660870761942135
sS'isAlive'
p7
I01
sS'geno'
p8
(lp9
(lp10
(lp11
S'FLOAT.YANKDUP'
p12
a(lp13
S'POINT.LENGTH'
p14
a(lp15
S'INTEGER.<'
p16
aa(lp17
S'FLOAT.FLUSH'
p18
aS'CODE.FROMNAME'
p19
aS'CODE.LENGTH'
p20
aS'INTEGER.YANK'
p21
aaaaS'CODE.STACKDEPTH'
p22
aS'CODE.EXTRACT'
p23
aS'INTEGER.STACKDEPTH'
p24
aaS'target'
p25
a(lp26
S'POINT.LENGTH'
p27
aS'target'
p28
a(lp29
S'CODE.FROMINTEGER'
p30
aS'FLOAT.YANKDUP'
p31
aS'INTEGER.%'
p32
aaasS'accel_x'
p33
F0.083176535061892654
sS'accel_y'
p34
F-1.9982696674911267
sS'maxAccel'
p35
I2
sS'maxVel'
p36
F0.5
sS'age'
p37
I300
sS'radius'
p38
I5
sS'gener'
p39
S'm'
sS'lastScale'
p40
F14.500000000000004
sS'energy'
p41
F1.4000000000000004
sb.(i__main__
Data_mobile
p1
(dp2
S'vel_y'
p3
F-0.14124825879384628
sS'vel_x'
p4
F-0.47963416203154946
sS'pos_x'
p5
F-158.66367290645974
sS'pos_y'
p6
F-20.997656117820952
sS'isAlive'
p7
I01
sS'geno'
p8
(lp9
S'INTEGER.SHOVE'
p10
aS'target'
p11
a(lp12
S'POINT.LENGTH'
p13
aS'CODE.CONS'
p14
a(lp15
(lp16
S'CODE.DO*'
p17
aS'CODE.SIZE'
p18
aS'INTEGER.SHOVE'
p19
aaS'CODE.FROMNAME'
p20
aS'FLOAT.>'
p21
aS'FLOAT.YANK'
p22
aaasS'accel_x'
p23
F-1.9185366481261978
sS'accel_y'
p24
F-0.5649930351753838
sS'maxAccel'
p25
I2
sS'maxVel'
p26
F0.5
sS'age'
p27
I400
sS'radius'
p28
I5
sS'gener'
p29
S'm'
sS'lastScale'
p30
F14.500000000000004
sS'energy'
p31
F1.4000000000000004
sb.(i__main__
Data_mobile
p1
(dp2
S'vel_y'
p3
F0.024319726259696882
sS'vel_x'
p4
F0.14858071772862436
sS'pos_x'
p5
F9.6435547150927139
sS'pos_y'
p6
F90.48295592035349
sS'isAlive'
p7
I01
sS'geno'
p8
(lp9
(lp10
(lp11
(lp12
(lp13
S'INTEGER.<'
p14
aa(lp15
S'POINT.LENGTH'
p16
aS'CODE.SIZE'
p17
aaaaaS'target'
p18
a(lp19
(lp20
S'CODE.QUOTE'
p21
a(lp22
(lp23
S'FLOAT.POP'
p24
aa(lp25
S'FLOAT.COS'
p26
aaS'INTEGER.%'
p27
a(lp28
(lp29
S'INTEGER.FROMBOOL'
p30
a(lp31
S'CODE.NOOP'
p32
aS'FLOAT.SIN'
p33
a(lp34
S'FLOAT.<'
p35
a(lp36
S'CODE.DEFINITION'
p37
aaS'-0.23450178821443157:-0.61483579399409605:-0.42855466702686501'
p38
aS'CODE.DO*COUNT'
p39
aaa(lp40
S'randV'
p41
a(lp42
S'FLOAT.*'
p43
aS'CODE.FROMFLOAT'
p44
aaaS'FLOAT.+'
p45
aS'INTEGER.>'
p46
aa(lp47
S'CODE.NTH'
p48
aaS'FLOAT.COS'
p49
aa(lp50
S'POINT.-'
p51
a(lp52
(lp53
(lp54
S'cohension'
p55
aaS'CODE.POSITION'
p56
a(lp57
(lp58
S'INTEGER.DEFINE'
p59
aS'FLOAT.%'
p60
aaS'FLOAT.FLUSH'
p61
aaaS'FLOAT.STACKDEPTH'
p62
aaS'FLOAT.FROMINTEGER'
p63
aS'CODE.DO*RANGE'
p64
aaaaS'FLOAT.-'
p65
aasS'accel_x'
p66
F1.9737353652956169
sS'accel_y'
p67
F0.3230614613063254
sS'maxAccel'
p68
I2
sS'maxVel'
p69
F0.5
sS'age'
p70
I150
sS'radius'
p71
I5
sS'gener'
p72
S'm'
sS'lastScale'
p73
F14.500000000000004
sS'energy'
p74
F1.4000000000000004
sb.(i__main__
Data_mobile
p1
(dp2
S'vel_y'
p3
F0.48517104877838735
sS'vel_x'
p4
F0.12086791727865434
sS'pos_x'
p5
F12.132722698347564
sS'pos_y'
p6
F11.638604032156319
sS'isAlive'
p7
I01
sS'geno'
p8
(lp9
(lp10
(lp11
S'CODE.YANKDUP'
p12
a(lp13
(lp14
S'CODE.SHOVE'
p15
aaS'INTEGER.FLUSH'
p16
a(lp17
S'POINT.-'
p18
aS'CODE.DO*RANGE'
p19
aaaaS'CODE.STACKDEPTH'
p20
aS'CODE.EXTRACT'
p21
aS'INTEGER.STACKDEPTH'
p22
aaS'target'
p23
a(lp24
S'POINT.LENGTH'
p25
aS'INTEGER.%'
p26
a(lp27
S'FLOAT.FLUSH'
p28
aS'CODE.FROMNAME'
p29
aS'CODE.LIST'
p30
aS'INTEGER.YANK'
p31
aaasS'accel_x'
p32
F0.4834716691146374
sS'accel_y'
p33
F1.9406841951135445
sS'maxAccel'
p34
I2
sS'maxVel'
p35
F0.5
sS'age'
p36
I150
sS'radius'
p37
I5
sS'gener'
p38
S'm'
sS'lastScale'
p39
F14.500000000000004
sS'energy'
p40
F1.4000000000000004
sb.(i__main__
Data_mobile
p1
(dp2
S'vel_y'
p3
F0.45953519806956022
sS'vel_x'
p4
F0.19704669937649316
sS'pos_x'
p5
F-34.624841612751048
sS'pos_y'
p6
F21.277349982023349
sS'isAlive'
p7
I01
sS'geno'
p8
(lp9
(lp10
S'POINT.LENGTH'
p11
aS'CODE.STACKDEPTH'
p12
aS'CODE.EXTRACT'
p13
aS'INTEGER.STACKDEPTH'
p14
aaS'target'
p15
a(lp16
S'POINT.LENGTH'
p17
aS'-0.0074371045938313720'
p18
a(lp19
S'CODE.POSITION'
p20
aS'INTEGER.YANK'
p21
aS'FLOAT./'
p22
aS'-2'
p23
aaasS'accel_x'
p24
F0.78818679750007237
sS'accel_y'
p25
F1.8381407922807707
sS'maxAccel'
p26
I2
sS'maxVel'
p27
F0.5
sS'age'
p28
I50
sS'radius'
p29
I5
sS'gener'
p30
S'm'
sS'lastScale'
p31
F11
sS'energy'
p32
F1.05
sb.(i__main__
Data_mobile
p1
(dp2
S'vel_y'
p3
F-0.40669335005259932
sS'vel_x'
p4
F-0.29086168366251663
sS'pos_x'
p5
F-66.605112472976757
sS'pos_y'
p6
F-81.394793402601309
sS'isAlive'
p7
I01
sS'geno'
p8
(lp9
(lp10
(lp11
S'INTEGER.MIN'
p12
a(lp13
(lp14
(lp15
S'INTEGER.RAND'
p16
a(lp17
S'POINT.*'
p18
aaaaS'INTEGER.FLUSH'
p19
aS'CODE.FROMFLOAT'
p20
aaa(lp21
S'CODE.FROMINTEGER'
p22
a(lp23
S'INTEGER.MAX'
p24
a(lp25
S'FLOAT.ROT'
p26
aS'CODE.FROMFLOAT'
p27
aaS'FLOAT.FLUSH'
p28
aaS'INTEGER.MIN'
p29
aaS'CODE.EXTRACT'
p30
aS'CODE.FROMBOOLEAN'
p31
aaS'target'
p32
a(lp33
S'POINT.LENGTH'
p34
a(lp35
S'INTEGER.<'
p36
aaS'POINT.LENGTH'
p37
aasS'accel_x'
p38
F-1.1634467346500912
sS'accel_y'
p39
F-1.6267734002103795
sS'maxAccel'
p40
I2
sS'maxVel'
p41
F0.5
sS'age'
p42
I544
sS'radius'
p43
I5
sS'gener'
p44
S'm'
sS'lastScale'
p45
F14.600000000000003
sS'energy'
p46
F1.4100000000000004
sb.(i__main__
Data_mobile
p1
(dp2
S'vel_y'
p3
F0.48983240264829375
sS'vel_x'
p4
F0.060815829358867736
sS'pos_x'
p5
F10.454815592997251
sS'pos_y'
p6
F13.139091174033812
sS'isAlive'
p7
I01
sS'geno'
p8
(lp9
(lp10
(lp11
S'CODE.YANKDUP'
p12
a(lp13
(lp14
S'CODE.SHOVE'
p15
aaS'INTEGER.FLUSH'
p16
a(lp17
(lp18
(lp19
(lp20
S'CODE.DO*COUNT'
p21
a(lp22
S'POINT.LENGTH'
p23
a(lp24
S'INTEGER.<'
p25
aa(lp26
S'FLOAT.FLUSH'
p27
aS'CODE.FROMNAME'
p28
aS'CODE.LENGTH'
p29
aS'CODE.FLUSH'
p30
aaaaS'CODE.STACKDEPTH'
p31
aS'CODE.EXTRACT'
p32
aS'INTEGER.STACKDEPTH'
p33
aaS'target'
p34
a(lp35
S'POINT.LENGTH'
p36
a(lp37
S'CODE.SHOVE'
p38
aa(lp39
S'CODE.FROMINTEGER'
p40
aS'FLOAT.YANKDUP'
p41
aS'INTEGER.%'
p42
aaaaS'CODE.DO*RANGE'
p43
aaaaS'CODE.STACKDEPTH'
p44
aS'CODE.EXTRACT'
p45
aS'INTEGER.STACKDEPTH'
p46
aaS'target'
p47
a(lp48
S'POINT.LENGTH'
p49
aS'INTEGER.%'
p50
a(lp51
S'FLOAT.FLUSH'
p52
aS'CODE.FROMNAME'
p53
aS'CODE.LIST'
p54
aS'INTEGER.YANK'
p55
aaasS'accel_x'
p56
F0
sS'accel_y'
p57
F0
sS'maxAccel'
p58
I2
sS'maxVel'
p59
F0.5
sS'age'
p60
I0
sS'radius'
p61
I5
sS'gener'
p62
S'm'
sS'lastScale'
p63
F5.4999999999999956
sS'energy'
p64
F1
sb.(i__main__
Data_mobile
p1
(dp2
S'vel_y'
p3
F-0.39329013627488191
sS'vel_x'
p4
F0.11779791813563871
sS'pos_x'
p5
F-13.467801290803781
sS'pos_y'
p6
F58.036014702257972
sS'isAlive'
p7
I01
sS'geno'
p8
(lp9
S'INTEGER.SHOVE'
p10
aS'target'
p11
a(lp12
S'INTEGER.SHOVE'
p13
aS'randV'
p14
a(lp15
(lp16
(lp17
S'INTEGER.MIN'
p18
a(lp19
(lp20
(lp21
S'POINT.LENGTH'
p22
aS'INTEGER.<'
p23
aaaS'INTEGER.FLUSH'
p24
aS'CODE.FROMFLOAT'
p25
aaa(lp26
S'CODE.FROMINTEGER'
p27
a(lp28
S'INTEGER.MAX'
p29
a(lp30
S'POINT.*'
p31
aS'CODE.LIST'
p32
aaS'CODE.FROMNAME'
p33
aaS'INTEGER.MIN'
p34
aaS'CODE.EXTRACT'
p35
aS'INTEGER.MIN'
p36
aaS'target'
p37
a(lp38
S'POINT.LENGTH'
p39
a(lp40
S'FLOAT.MAX'
p41
aaS'INTEGER.SHOVE'
p42
aaaasS'accel_x'
p43
F0
sS'accel_y'
p44
F0
sS'maxAccel'
p45
I2
sS'maxVel'
p46
F0.5
sS'age'
p47
I0
sS'radius'
p48
I5
sS'gener'
p49
S'm'
sS'lastScale'
p50
F5.4999999999999956
sS'energy'
p51
F1
sb.(i__main__
Data_mobile
p1
(dp2
S'vel_y'
p3
F0.34225074986923792
sS'vel_x'
p4
F-0.36450572590008018
sS'pos_x'
p5
F-5.5985658755320795
sS'pos_y'
p6
F-69.55078534912181
sS'isAlive'
p7
I01
sS'geno'
p8
(lp9
(lp10
(lp11
S'INTEGER.MIN'
p12
a(lp13
(lp14
(lp15
S'CODE.FROMNAME'
p16
aS'INTEGER.YANKDUP'
p17
aaaS'INTEGER.FLUSH'
p18
aS'CODE.FROMFLOAT'
p19
aaa(lp20
S'CODE.FROMINTEGER'
p21
a(lp22
S'INTEGER.MAX'
p23
a(lp24
S'FLOAT.ROT'
p25
aS'CODE.YANKDUP'
p26
aaS'FLOAT.FLUSH'
p27
aaS'INTEGER.MIN'
p28
aaS'CODE.EXTRACT'
p29
aS'CODE.FROMBOOLEAN'
p30
aaS'target'
p31
a(lp32
S'POINT.LENGTH'
p33
a(lp34
S'INTEGER.<'
p35
aaS'POINT.LENGTH'
p36
aasS'accel_x'
p37
F-1.4580229036002952
sS'accel_y'
p38
F1.3690029994769783
sS'maxAccel'
p39
I2
sS'maxVel'
p40
F0.5
sS'age'
p41
I150
sS'radius'
p42
I5
sS'gener'
p43
S'm'
sS'lastScale'
p44
F14.500000000000004
sS'energy'
p45
F1.4000000000000004
sb.(i__main__
Data_mobile
p1
(dp2
S'vel_y'
p3
F-0.4906500054906302
sS'vel_x'
p4
F0.096242257413490226
sS'pos_x'
p5
F186.13988612336576
sS'pos_y'
p6
F-77.6347824501633
sS'isAlive'
p7
I01
sS'geno'
p8
(lp9
(lp10
(lp11
S'FLOAT.DEFINE'
p12
a(lp13
S'CODE.CAR'
p14
a(lp15
(lp16
S'INTEGER.<'
p17
aaaS'CODE.ATOM'
p18
a(lp19
S'INTEGER.YANKDUP'
p20
a(lp21
S'FLOAT.FLUSH'
p22
a(lp23
S'INTEGER./'
p24
aS'FLOAT.FLUSH'
p25
aaS'FLOAT.DEFINE'
p26
aS'CODE.NULL'
p27
aaaS'INTEGER.YANKDUP'
p28
aaa(lp29
S'INTEGER.<'
p30
a(lp31
S'FLOAT.ROT'
p32
aS'CODE.DO*'
p33
a(lp34
S'FLOAT.>'
p35
aS'CODE.ATOM'
p36
aaaS'INTEGER.-'
p37
aa(lp38
(lp39
(lp40
S'INTEGER.<'
p41
aa(lp42
S'INTEGER./'
p43
aS'FLOAT.FLUSH'
p44
aaaa(lp45
(lp46
(lp47
(lp48
S'CODE.CONTAINER'
p49
aa(lp50
S'FLOAT.COS'
p51
aaS'CODE.DO*TIMES'
p52
aaaaaS'target'
p53
a(lp54
S'FLOAT.DUP'
p55
a(lp56
S'INTEGER.<'
p57
aa(lp58
S'INTEGER.DEFINE'
p59
aS'CODE.FROMNAME'
p60
aS'CODE.LENGTH'
p61
a(lp62
S'POINT.LENGTH'
p63
aS'CODE.INSTRUCTIONS'
p64
a(lp65
S'INTEGER.SHOVE'
p66
aS'CODE.FROMNAME'
p67
aS'CODE.SHOVE'
p68
aS'FLOAT.MAX'
p69
aaaaasS'accel_x'
p70
F0.38496902898205965
sS'accel_y'
p71
F-1.9626000220943161
sS'maxAccel'
p72
I2
sS'maxVel'
p73
F0.5
sS'age'
p74
I50
sS'radius'
p75
I5
sS'gener'
p76
S'm'
sS'lastScale'
p77
F14.500000000000004
sS'energy'
p78
F1.4000000000000004
sb.(i__main__
Data_mobile
p1
(dp2
S'vel_y'
p3
F-0.091287992179760899
sS'vel_x'
p4
F0.43689605834038953
sS'pos_x'
p5
F-26.024288138529204
sS'pos_y'
p6
F10.26783680724963
sS'isAlive'
p7
I01
sS'geno'
p8
(lp9
(lp10
(lp11
S'CODE.DO*COUNT'
p12
a(lp13
(lp14
S'CODE.SHOVE'
p15
aaS'INTEGER.FLUSH'
p16
a(lp17
S'POINT.-'
p18
aS'CODE.DO*RANGE'
p19
aaaa(lp20
S'INTEGER.<'
p21
aaS'CODE.EXTRACT'
p22
aS'INTEGER.STACKDEPTH'
p23
aaS'target'
p24
a(lp25
S'CODE.INSTRUCTIONS'
p26
aS'CODE.EXTRACT'
p27
aasS'accel_x'
p28
F0
sS'accel_y'
p29
F0
sS'maxAccel'
p30
I2
sS'maxVel'
p31
F0.5
sS'age'
p32
I0
sS'radius'
p33
I5
sS'gener'
p34
S'm'
sS'lastScale'
p35
F5.4999999999999956
sS'energy'
p36
F1
sb.(i__main__
Data_mobile
p1
(dp2
S'vel_y'
p3
F-0.48994419686086421
sS'vel_x'
p4
F0.09977316253563738
sS'pos_x'
p5
F158.89031307037229
sS'pos_y'
p6
F50.312117916577755
sS'isAlive'
p7
I01
sS'geno'
p8
(lp9
S'INTEGER.SHOVE'
p10
aS'target'
p11
a(lp12
S'INTEGER.SHOVE'
p13
aS'randV'
p14
a(lp15
S'target'
p16
aS'INTEGER.='
p17
a(lp18
S'CODE.SIZE'
p19
a(lp20
(lp21
(lp22
S'INTEGER.RAND'
p23
a(lp24
S'POINT.*'
p25
aaaaS'target'
p26
aS'CODE.FROMFLOAT'
p27
aaS'CODE.FROMFLOAT'
p28
aS'CODE.SWAP'
p29
aaaasS'accel_x'
p30
F0.39909265014774503
sS'accel_y'
p31
F-1.959776787442399
sS'maxAccel'
p32
I2
sS'maxVel'
p33
F0.5
sS'age'
p34
I450
sS'radius'
p35
I5
sS'gener'
p36
S'm'
sS'lastScale'
p37
F11
sS'energy'
p38
F1.05
sb.(i__main__
Data_mobile
p1
(dp2
S'vel_y'
p3
F0.19780030985679922
sS'vel_x'
p4
F0.45921132109362706
sS'pos_x'
p5
F-25.430203786091823
sS'pos_y'
p6
F43.650554426670915
sS'isAlive'
p7
I01
sS'geno'
p8
(lp9
(lp10
(lp11
(lp12
(lp13
S'INTEGER.<'
p14
aa(lp15
S'POINT.LENGTH'
p16
aS'CODE.SIZE'
p17
aaaaaS'target'
p18
a(lp19
(lp20
S'CODE.QUOTE'
p21
a(lp22
(lp23
S'CODE.FLUSH'
p24
aa(lp25
S'FLOAT.COS'
p26
aaS'INTEGER.%'
p27
a(lp28
(lp29
S'INTEGER.FROMBOOL'
p30
a(lp31
S'CODE.NOOP'
p32
aS'FLOAT.SIN'
p33
a(lp34
S'FLOAT.<'
p35
a(lp36
S'CODE.DEFINITION'
p37
aaS'-0.23450178821443157:-0.61483579399409605:-0.42855466702686501'
p38
aS'CODE.DO*COUNT'
p39
aaa(lp40
S'randV'
p41
a(lp42
S'FLOAT.*'
p43
aS'CODE.FROMFLOAT'
p44
aaaS'FLOAT.+'
p45
aS'INTEGER.>'
p46
aa(lp47
S'CODE.NTH'
p48
aaS'FLOAT.COS'
p49
aa(lp50
S'POINT.-'
p51
a(lp52
(lp53
(lp54
S'cohension'
p55
aaS'CODE.POSITION'
p56
a(lp57
(lp58
S'INTEGER.DEFINE'
p59
aS'CODE.FROMINTEGER'
p60
aaS'FLOAT.FLUSH'
p61
aaaS'FLOAT.STACKDEPTH'
p62
aaS'FLOAT.FROMINTEGER'
p63
aS'CODE.DO*RANGE'
p64
aaaaS'FLOAT.-'
p65
aasS'accel_x'
p66
F1.8368452843959842
sS'accel_y'
p67
F0.79120123937733777
sS'maxAccel'
p68
I2
sS'maxVel'
p69
F0.5
sS'age'
p70
I50
sS'radius'
p71
I5
sS'gener'
p72
S'm'
sS'lastScale'
p73
F14.500000000000004
sS'energy'
p74
F1.4000000000000004
sb.(i__main__
Data_mobile
p1
(dp2
S'vel_y'
p3
F0.16417865821564137
sS'vel_x'
p4
F-0.29981960211912856
sS'pos_x'
p5
F7.8307066673705901
sS'pos_y'
p6
F87.044475005441413
sS'isAlive'
p7
I01
sS'geno'
p8
(lp9
sS'accel_x'
p10
F0
sS'accel_y'
p11
F0
sS'maxAccel'
p12
I2
sS'maxVel'
p13
F0.5
sS'age'
p14
I0
sS'radius'
p15
I5
sS'gener'
p16
S'm'
sS'lastScale'
p17
F4.2999999999999963
sS'energy'
p18
F1
sb.(i__main__
Data_mobile
p1
(dp2
S'vel_y'
p3
F0.31526129407723924
sS'vel_x'
p4
F-0.25213320989530252
sS'pos_x'
p5
F-5.268802316529241
sS'pos_y'
p6
F-66.296857926853619
sS'isAlive'
p7
I01
sS'geno'
p8
(lp9
(lp10
(lp11
S'CODE.DO*COUNT'
p12
a(lp13
S'POINT.LENGTH'
p14
aS'INTEGER.FLUSH'
p15
a(lp16
S'POINT.-'
p17
aS'CODE.DO*RANGE'
p18
aaaaS'currentVelocity'
p19
aS'CODE.EXTRACT'
p20
aS'INTEGER.STACKDEPTH'
p21
aaS'target'
p22
a(lp23
S'POINT.LENGTH'
p24
aS'-0.0074371045938313720'
p25
a(lp26
S'CODE.FROMBOOLEAN'
p27
aS'CODE.FROMNAME'
p28
aS'INTEGER.FROMBOOL'
p29
aS'-2'
p30
aaasS'accel_x'
p31
F0
sS'accel_y'
p32
F0
sS'maxAccel'
p33
I2
sS'maxVel'
p34
F0.5
sS'age'
p35
I0
sS'radius'
p36
I5
sS'gener'
p37
S'm'
sS'lastScale'
p38
F5.4999999999999956
sS'energy'
p39
F1
sb.(i__main__
Data_mobile
p1
(dp2
S'vel_y'
p3
F0.079519412853454
sS'vel_x'
p4
F0.47604618350680505
sS'pos_x'
p5
F7.5792733360713651
sS'pos_y'
p6
F76.646969903265159
sS'isAlive'
p7
I01
sS'geno'
p8
(lp9
S'CODE.FROMNAME'
p10
aS'target'
p11
a(lp12
S'FLOAT.<'
p13
aS'CODE.DUP'
p14
a(lp15
S'INTEGER.DEFINE'
p16
aS'FLOAT.MIN'
p17
aS'FLOAT.>'
p18
aS'INTEGER.POP'
p19
aaasS'accel_x'
p20
F0
sS'accel_y'
p21
F0
sS'maxAccel'
p22
I2
sS'maxVel'
p23
F0.5
sS'age'
p24
I0
sS'radius'
p25
I5
sS'gener'
p26
S'm'
sS'lastScale'
p27
F5.4999999999999956
sS'energy'
p28
F1
sb.(i__main__
Data_mobile
p1
(dp2
S'vel_y'
p3
F-0.4901790981655873
sS'vel_x'
p4
F0.098612634695415799
sS'pos_x'
p5
F186.33147334470397
sS'pos_y'
p6
F-78.593071679127092
sS'isAlive'
p7
I01
sS'geno'
p8
(lp9
(lp10
(lp11
S'FLOAT.DEFINE'
p12
a(lp13
S'CODE.CAR'
p14
a(lp15
(lp16
S'INTEGER.<'
p17
aaaS'CODE.ATOM'
p18
a(lp19
S'INTEGER.YANKDUP'
p20
a(lp21
S'FLOAT.FLUSH'
p22
aS'CODE.FROMNAME'
p23
aS'FLOAT.DEFINE'
p24
aS'CODE.NULL'
p25
aaaS'INTEGER.YANKDUP'
p26
aaa(lp27
S'INTEGER.<'
p28
a(lp29
S'FLOAT.ROT'
p30
aS'CODE.DO*'
p31
a(lp32
S'FLOAT.>'
p33
aS'CODE.ATOM'
p34
aaaS'INTEGER.-'
p35
aa(lp36
(lp37
(lp38
S'INTEGER.<'
p39
aa(lp40
S'INTEGER./'
p41
aS'FLOAT.FLUSH'
p42
aaaa(lp43
(lp44
(lp45
(lp46
S'INTEGER.<'
p47
aa(lp48
S'INTEGER.YANKDUP'
p49
aS'FLOAT.FLUSH'
p50
aaaaaaS'target'
p51
a(lp52
S'FLOAT.DUP'
p53
a(lp54
S'INTEGER.<'
p55
aa(lp56
S'INTEGER.DEFINE'
p57
aS'CODE.FROMNAME'
p58
aS'CODE.LENGTH'
p59
a(lp60
S'POINT.LENGTH'
p61
aS'CODE.INSTRUCTIONS'
p62
a(lp63
S'INTEGER.SHOVE'
p64
aS'CODE.FROMNAME'
p65
aS'CODE.SHOVE'
p66
aS'-0.0074371045938313720'
p67
aaaaasS'accel_x'
p68
F-0.39445053878161412
sS'accel_y'
p69
F1.9607163926623592
sS'maxAccel'
p70
I2
sS'maxVel'
p71
F0.5
sS'age'
p72
I400
sS'radius'
p73
I5
sS'gener'
p74
S'm'
sS'lastScale'
p75
F14.500000000000004
sS'energy'
p76
F1.4000000000000004
sb.(i__main__
Data_mobile
p1
(dp2
S'vel_y'
p3
F0.13886256530050911
sS'vel_x'
p4
F-0.4803302904857884
sS'pos_x'
p5
F38.235332722421617
sS'pos_y'
p6
F4.3199723073375695
sS'isAlive'
p7
I01
sS'geno'
p8
(lp9
(lp10
(lp11
S'CODE.DO*COUNT'
p12
a(lp13
(lp14
S'CODE.QUOTE'
p15
a(lp16
(lp17
(lp18
S'CODE.ATOM'
p19
aS'FLOAT.STACKDEPTH'
p20
aS'FLOAT.*'
p21
aS'INTEGER.FROMBOOL'
p22
aaS'CODE.DO'
p23
aaS'CODE.CAR'
p24
a(lp25
(lp26
S'FLOAT.FLUSH'
p27
aS'CODE.FROMNAME'
p28
aS'CODE.LENGTH'
p29
aS'INTEGER.YANK'
p30
aa(lp31
S'FLOAT.DUP'
p32
a(lp33
S'CODE.FLUSH'
p34
aS'POINT.POP'
p35
aaS'INTEGER.-'
p36
aa(lp37
S'INTEGER.POP'
p38
aS'FLOAT.='
p39
aS'INTEGER.+'
p40
aa(lp41
S'flee'
p42
aaaS'CODE.FROMNAME'
p43
a(lp44
S'CODE.RAND'
p45
aS'INTEGER.-'
p46
aaaaS'CODE.DO*COUNT'
p47
a(lp48
S'FLOAT.SIN'
p49
aS'INTEGER.>'
p50
aaaaS'currentVelocity'
p51
aS'CODE.EXTRACT'
p52
aS'INTEGER.STACKDEPTH'
p53
aaS'target'
p54
a(lp55
S'CODE.LENGTH'
p56
aS'-0.0074371045938313720'
p57
a(lp58
S'CODE.POSITION'
p59
aS'CODE.FROMNAME'
p60
aS'INTEGER.FROMBOOL'
p61
aS'-2'
p62
aaasS'accel_x'
p63
F-1.921054781816258
sS'accel_y'
p64
F0.55637085227471161
sS'maxAccel'
p65
I2
sS'maxVel'
p66
F0.5
sS'age'
p67
I450
sS'radius'
p68
I5
sS'gener'
p69
S'm'
sS'lastScale'
p70
F14.000000000000004
sS'energy'
p71
F1.3500000000000003
sb.(i__main__
Data_mobile
p1
(dp2
S'vel_y'
p3
F-0.25328010049318539
sS'vel_x'
p4
F0.4311022972499241
sS'pos_x'
p5
F-36.223748233344018
sS'pos_y'
p6
F-7.7296160226909363
sS'isAlive'
p7
I01
sS'geno'
p8
(lp9
(lp10
(lp11
S'INTEGER.MIN'
p12
a(lp13
(lp14
(lp15
S'CODE.FROMINTEGER'
p16
a(lp17
S'POINT.*'
p18
aaaaS'INTEGER.FLUSH'
p19
aS'CODE.FROMFLOAT'
p20
aaa(lp21
S'CODE.FROMINTEGER'
p22
a(lp23
S'INTEGER.MAX'
p24
a(lp25
S'POINT.*'
p26
aS'CODE.LIST'
p27
aaS'CODE.FROMNAME'
p28
aaS'INTEGER.MIN'
p29
aaS'CODE.EXTRACT'
p30
aS'POINT.RAND'
p31
aaS'target'
p32
a(lp33
S'POINT.LENGTH'
p34
a(lp35
S'INTEGER.<'
p36
aaS'POINT.LENGTH'
p37
aasS'accel_x'
p38
F0
sS'accel_y'
p39
F0
sS'maxAccel'
p40
I2
sS'maxVel'
p41
F0.5
sS'age'
p42
I500
sS'radius'
p43
I5
sS'gener'
p44
S'm'
sS'lastScale'
p45
F12.500000000000002
sS'energy'
p46
F1.2000000000000002
sb.(i__main__
Data_mobile
p1
(dp2
S'vel_y'
p3
F0.3590624287112113
sS'vel_x'
p4
F0.1499467611223616
sS'pos_x'
p5
F-14.983737793246844
sS'pos_y'
p6
F57.79713250904566
sS'isAlive'
p7
I01
sS'geno'
p8
(lp9
(lp10
(lp11
(lp12
S'INTEGER.*'
p13
aaS'alignment'
p14
a(lp15
(lp16
S'INTEGER.<'
p17
aaS'INTEGER.<'
p18
aaaS'CODE.STACKDEPTH'
p19
aS'CODE.EXTRACT'
p20
aS'INTEGER.STACKDEPTH'
p21
aaS'target'
p22
aS'POINT.*'
p23
asS'accel_x'
p24
F0
sS'accel_y'
p25
F0
sS'maxAccel'
p26
I2
sS'maxVel'
p27
F0.5
sS'age'
p28
I0
sS'radius'
p29
I5
sS'gener'
p30
S'm'
sS'lastScale'
p31
F5.4999999999999956
sS'energy'
p32
F1
sb.(i__main__
Data_mobile
p1
(dp2
S'vel_y'
p3
F-0.04206757662636524
sS'vel_x'
p4
F-0.28565486932342071
sS'pos_x'
p5
F9.4750156258124605
sS'pos_y'
p6
F90.462162872853241
sS'isAlive'
p7
I01
sS'geno'
p8
(lp9
(lp10
(lp11
S'FLOAT.DEFINE'
p12
a(lp13
S'CODE.CAR'
p14
a(lp15
(lp16
S'INTEGER.<'
p17
aaaS'CODE.FROMFLOAT'
p18
a(lp19
S'INTEGER.YANKDUP'
p20
aS'randV'
p21
aa(lp22
(lp23
S'INTEGER./'
p24
a(lp25
S'POINT.LENGTH'
p26
a(lp27
S'INTEGER.<'
p28
aa(lp29
S'FLOAT.FLUSH'
p30
aS'CODE.FROMNAME'
p31
aS'CODE.LENGTH'
p32
aS'INTEGER.YANK'
p33
aaaaS'-0.0074371045938313720'
p34
a(lp35
S'CODE.POSITION'
p36
aS'CODE.FROMNAME'
p37
aS'FLOAT./'
p38
aS'CODE.INSERT'
p39
aaaaa(lp40
S'CODE.FROMINTEGER'
p41
a(lp42
S'FLOAT.ROT'
p43
aS'CODE.DO*'
p44
a(lp45
S'FLOAT.>'
p46
aS'CODE.DO'
p47
aaaS'INTEGER.-'
p48
aa(lp49
(lp50
S'CODE.FLUSH'
p51
a(lp52
S'INTEGER./'
p53
aS'FLOAT.FLUSH'
p54
aaaa(lp55
S'FLOAT.TAN'
p56
a(lp57
(lp58
S'FLOAT.ROT'
p59
aaS'POINT./'
p60
aaaaS'target'
p61
a(lp62
S'FLOAT.DUP'
p63
a(lp64
S'INTEGER.<'
p65
aa(lp66
S'INTEGER.DEFINE'
p67
aS'CODE.FROMNAME'
p68
aS'CODE.LENGTH'
p69
a(lp70
S'POINT.LENGTH'
p71
aS'CODE.INSTRUCTIONS'
p72
a(lp73
S'INTEGER.SHOVE'
p74
aS'CODE.FROMNAME'
p75
aS'CODE.SHOVE'
p76
aS'-0.0074371045938313720'
p77
aaaaasS'accel_x'
p78
F1.9786588959782114
sS'accel_y'
p79
F0.29139144353649976
sS'maxAccel'
p80
I2
sS'maxVel'
p81
F0.5
sS'age'
p82
I150
sS'radius'
p83
I5
sS'gener'
p84
S'm'
sS'lastScale'
p85
F14.500000000000004
sS'energy'
p86
F1.4000000000000004
sb.(i__main__
Data_mobile
p1
(dp2
S'vel_y'
p3
F0.13540906421365689
sS'vel_x'
p4
F-0.48131526604584424
sS'pos_x'
p5
F38.750719211391555
sS'pos_y'
p6
F4.3753696835421971
sS'isAlive'
p7
I01
sS'geno'
p8
(lp9
(lp10
(lp11
S'CODE.DO*COUNT'
p12
a(lp13
S'randV'
p14
a(lp15
S'POINT./'
p16
aa(lp17
S'INTEGER.SHOVE'
p18
aS'CODE.FROMNAME'
p19
aS'CODE.LENGTH'
p20
aS'CODE.EXTRACT'
p21
aaaaS'CODE.STACKDEPTH'
p22
aS'CODE.EXTRACT'
p23
aS'INTEGER.STACKDEPTH'
p24
aaS'target'
p25
a(lp26
S'FLOAT.FLUSH'
p27
a(lp28
S'CODE.POSITION'
p29
aS'CODE.FROMNAME'
p30
aS'INTEGER.FROMBOOL'
p31
aS'-2'
p32
aaS'CODE.LENGTH'
p33
aS'INTEGER.YANK'
p34
aasS'accel_x'
p35
F-1.9249692380206043
sS'accel_y'
p36
F0.54267249117158556
sS'maxAccel'
p37
I2
sS'maxVel'
p38
F0.5
sS'age'
p39
I50
sS'radius'
p40
I5
sS'gener'
p41
S'm'
sS'lastScale'
p42
F14.000000000000004
sS'energy'
p43
F1.3500000000000003
sb.(i__main__
Data_mobile
p1
(dp2
S'vel_y'
p3
F0.23974975917969574
sS'vel_x'
p4
F-0.43877107125843867
sS'pos_x'
p5
F93.111575780391064
sS'pos_y'
p6
F-18.400297807098124
sS'isAlive'
p7
I01
sS'geno'
p8
(lp9
(lp10
(lp11
S'CODE.DO*COUNT'
p12
a(lp13
S'POINT.LENGTH'
p14
a(lp15
S'INTEGER.<'
p16
aa(lp17
S'INTEGER.SHOVE'
p18
aS'CODE.FROMNAME'
p19
aS'CODE.LENGTH'
p20
aS'CODE.EXTRACT'
p21
aaaaS'CODE.STACKDEPTH'
p22
aS'CODE.EXTRACT'
p23
aS'INTEGER.STACKDEPTH'
p24
aaS'FLOAT.ROT'
p25
a(lp26
S'INTEGER.-'
p27
aS'-0.0074371045938313720'
p28
a(lp29
S'INTEGER.STACKDEPTH'
p30
aS'target'
p31
aS'target'
p32
aaasS'accel_x'
p33
F-1.7550842850337611
sS'accel_y'
p34
F0.95899903671877129
sS'maxAccel'
p35
I2
sS'maxVel'
p36
F0.5
sS'age'
p37
I100
sS'radius'
p38
I5
sS'gener'
p39
S'm'
sS'lastScale'
p40
F13.000000000000002
sS'energy'
p41
F1.2500000000000002
sb.(i__main__
Data_mobile
p1
(dp2
S'vel_y'
p3
F0.19238817806273231
sS'vel_x'
p4
F0.46150491757044415
sS'pos_x'
p5
F167.76820633632707
sS'pos_y'
p6
F-26.306606017129845
sS'isAlive'
p7
I01
sS'geno'
p8
(lp9
(lp10
(lp11
S'CODE.YANKDUP'
p12
a(lp13
(lp14
S'CODE.SHOVE'
p15
aaS'INTEGER.FLUSH'
p16
a(lp17
S'POINT.-'
p18
aS'CODE.SHOVE'
p19
aaaaS'CODE.STACKDEPTH'
p20
aS'CODE.EXTRACT'
p21
aS'INTEGER.STACKDEPTH'
p22
aaS'target'
p23
a(lp24
S'POINT.LENGTH'
p25
a(lp26
(lp27
S'INTEGER.MIN'
p28
a(lp29
(lp30
(lp31
S'INTEGER.RAND'
p32
a(lp33
S'POINT.*'
p34
aaaaS'INTEGER.FLUSH'
p35
aS'FLOAT.SHOVE'
p36
aaaa(lp37
S'FLOAT.FLUSH'
p38
aS'CODE.FROMNAME'
p39
aS'CODE.LENGTH'
p40
aS'INTEGER.YANK'
p41
aaasS'accel_x'
p42
F0
sS'accel_y'
p43
F0
sS'maxAccel'
p44
I2
sS'maxVel'
p45
F0.5
sS'age'
p46
I300
sS'radius'
p47
I5
sS'gener'
p48
S'm'
sS'lastScale'
p49
F6.4999999999999964
sS'energy'
p50
F0.59999999999999964
sb.(i__main__
Data_mobile
p1
(dp2
S'vel_y'
p3
F0.44201161994149674
sS'vel_x'
p4
F-0.2337214749155366
sS'pos_x'
p5
F42.19924945620177
sS'pos_y'
p6
F-40.539159474618188
sS'isAlive'
p7
I01
sS'geno'
p8
(lp9
(lp10
(lp11
S'CODE.DO*COUNT'
p12
a(lp13
S'POINT.LENGTH'
p14
a(lp15
S'INTEGER.<'
p16
aa(lp17
S'FLOAT.FLUSH'
p18
aS'CODE.FROMNAME'
p19
aS'CODE.LENGTH'
p20
aS'INTEGER.YANK'
p21
aaaaS'CODE.FROMFLOAT'
p22
aS'CODE.EXTRACT'
p23
aS'CODE.FROMINTEGER'
p24
aaS'target'
p25
a(lp26
S'CODE.POSITION'
p27
aS'-0.0074371045938313720'
p28
aS'CODE.FROMFLOAT'
p29
aasS'accel_x'
p30
F0.93488589692136936
sS'accel_y'
p31
F-1.7680464812152217
sS'maxAccel'
p32
I2
sS'maxVel'
p33
F0.5
sS'age'
p34
I50
sS'radius'
p35
I5
sS'gener'
p36
S'm'
sS'lastScale'
p37
F14.500000000000004
sS'energy'
p38
F1.4000000000000004
sb.(i__main__
Data_mobile
p1
(dp2
S'vel_y'
p3
F0.26079728516890216
sS'vel_x'
p4
F-0.42659673703455619
sS'pos_x'
p5
F-54.963493455603562
sS'pos_y'
p6
F3.4966854572815205
sS'isAlive'
p7
I01
sS'geno'
p8
(lp9
(lp10
(lp11
S'FLOAT.DEFINE'
p12
a(lp13
S'CODE.CAR'
p14
a(lp15
S'FLOAT.='
p16
aaS'CODE.ATOM'
p17
a(lp18
S'-2'
p19
aS'randV'
p20
aaS'INTEGER.YANKDUP'
p21
aaa(lp22
S'CODE.FROMINTEGER'
p23
a(lp24
S'INTEGER.POP'
p25
aS'CODE.LIST'
p26
aS'-7'
p27
aaS'INTEGER.FROMBOOL'
p28
aaS'INTEGER.<'
p29
a(lp30
S'target'
p31
aS'INTEGER.='
p32
a(lp33
S'CODE.SIZE'
p34
aS'POINT.+'
p35
aS'CODE.FROMFLOAT'
p36
aS'CODE.SWAP'
p37
aaaaS'target'
p38
a(lp39
S'POINT.LENGTH'
p40
a(lp41
S'INTEGER.<'
p42
aa(lp43
S'INTEGER.DEFINE'
p44
aS'CODE.FROMNAME'
p45
aS'FLOAT.>'
p46
aS'FLOAT.YANK'
p47
aaasS'accel_x'
p48
F0
sS'accel_y'
p49
F0
sS'maxAccel'
p50
I2
sS'maxVel'
p51
F0.5
sS'age'
p52
I300
sS'radius'
p53
I5
sS'gener'
p54
S'm'
sS'lastScale'
p55
F12.500000000000002
sS'energy'
p56
F1.2000000000000002
sb.(i__main__
Data_mobile
p1
(dp2
S'vel_y'
p3
F-0.48965116323589014
sS'vel_x'
p4
F0.10120147400971806
sS'pos_x'
p5
F158.87349359907807
sS'pos_y'
p6
F50.261366487512028
sS'isAlive'
p7
I01
sS'geno'
p8
(lp9
(lp10
(lp11
S'CODE.DO*COUNT'
p12
a(lp13
S'POINT.LENGTH'
p14
a(lp15
S'INTEGER.<'
p16
aa(lp17
S'FLOAT.FLUSH'
p18
aS'CODE.FROMNAME'
p19
aS'CODE.LENGTH'
p20
aS'INTEGER.YANK'
p21
aaaaS'CODE.STACKDEPTH'
p22
aS'CODE.EXTRACT'
p23
aS'INTEGER.STACKDEPTH'
p24
aaS'target'
p25
a(lp26
S'INTEGER.-'
p27
aS'-0.0074371045938313720'
p28
a(lp29
S'CODE.FROMINTEGER'
p30
aS'target'
p31
aS'target'
p32
aaasS'accel_x'
p33
F0.40480589604403894
sS'accel_y'
p34
F-1.9586046529424928
sS'maxAccel'
p35
I2
sS'maxVel'
p36
F0.5
sS'age'
p37
I544
sS'radius'
p38
I5
sS'gener'
p39
S'm'
sS'lastScale'
p40
F9.0999999999999979
sS'energy'
p41
F0.85999999999999988
sb.(i__main__
Data_mobile
p1
(dp2
S'vel_y'
p3
F-0.2529596425798652
sS'vel_x'
p4
F0.4312904117017522
sS'pos_x'
p5
F-37.038087087990178
sS'pos_y'
p6
F-7.2423400719020368
sS'isAlive'
p7
I01
sS'geno'
p8
(lp9
(lp10
(lp11
S'CODE.DO*COUNT'
p12
a(lp13
(lp14
S'CODE.SHOVE'
p15
aaS'INTEGER.FLUSH'
p16
a(lp17
S'POINT.-'
p18
aS'CODE.DO*RANGE'
p19
aaaaS'CODE.STACKDEPTH'
p20
aS'CODE.EXTRACT'
p21
aS'INTEGER.STACKDEPTH'
p22
aaS'target'
p23
a(lp24
S'POINT.LENGTH'
p25
aS'-0.0074371045938313720'
p26
a(lp27
S'CODE.POSITION'
p28
aS'CODE.FROMNAME'
p29
aS'FLOAT./'
p30
aS'-2'
p31
aaasS'accel_x'
p32
F0
sS'accel_y'
p33
F0
sS'maxAccel'
p34
I2
sS'maxVel'
p35
F0.5
sS'age'
p36
I1200
sS'radius'
p37
I5
sS'gener'
p38
S'm'
sS'lastScale'
p39
F12.500000000000002
sS'energy'
p40
F1.2000000000000002
sb.(i__main__
Data_mobile
p1
(dp2
S'vel_y'
p3
F-0.48750911008736553
sS'vel_x'
p4
F0.11106244901777058
sS'pos_x'
p5
F158.72486755230491
sS'pos_y'
p6
F50.084756189908241
sS'isAlive'
p7
I01
sS'geno'
p8
(lp9
S'INTEGER.SHOVE'
p10
aS'target'
p11
a(lp12
S'INTEGER.SHOVE'
p13
aS'randV'
p14
a(lp15
(lp16
S'FLOAT.ROT'
p17
aS'target'
p18
aS'FLOAT.FLUSH'
p19
aaS'INTEGER.='
p20
a(lp21
S'CODE.SIZE'
p22
aS'CODE.FROMNAME'
p23
aS'CODE.FROMFLOAT'
p24
aS'INTEGER.FROMBOOL'
p25
aaaasS'accel_x'
p26
F0.44424979607647486
sS'accel_y'
p27
F-1.9500364403482338
sS'maxAccel'
p28
I2
sS'maxVel'
p29
F0.5
sS'age'
p30
I100
sS'radius'
p31
I5
sS'gener'
p32
S'm'
sS'lastScale'
p33
F10.5
sS'energy'
p34
F1
sb.(i__main__
Data_mobile
p1
(dp2
S'vel_y'
p3
F0.49961496403113276
sS'vel_x'
p4
F-0.019618555404767649
sS'pos_x'
p5
F12.217282117371104
sS'pos_y'
p6
F11.136987696616153
sS'isAlive'
p7
I01
sS'geno'
p8
(lp9
(lp10
(lp11
S'INTEGER.MIN'
p12
a(lp13
(lp14
(lp15
S'CODE.FROMINTEGER'
p16
a(lp17
S'POINT.*'
p18
aaaaS'INTEGER.FLUSH'
p19
aS'CODE.FROMFLOAT'
p20
aaa(lp21
S'CODE.FROMINTEGER'
p22
a(lp23
S'INTEGER.MAX'
p24
a(lp25
S'INTEGER.<'
p26
aaS'INTEGER.MAX'
p27
aaS'INTEGER.MIN'
p28
aaS'CODE.EXTRACT'
p29
aS'POINT./'
p30
aaS'target'
p31
a(lp32
S'POINT.LENGTH'
p33
a(lp34
S'INTEGER.<'
p35
aaS'POINT.LENGTH'
p36
aasS'accel_x'
p37
F-0.078474221619069598
sS'accel_y'
p38
F1.9984598561245308
sS'maxAccel'
p39
I2
sS'maxVel'
p40
F0.5
sS'age'
p41
I150
sS'radius'
p42
I5
sS'gener'
p43
S'm'
sS'lastScale'
p44
F14.500000000000004
sS'energy'
p45
F1.4000000000000004
sb.(i__main__
Data_mobile
p1
(dp2
S'vel_y'
p3
F0.49910387993525401
sS'vel_x'
p4
F-0.029921848766002918
sS'pos_x'
p5
F-24.989699753036099
sS'pos_y'
p6
F44.674581744485153
sS'isAlive'
p7
I01
sS'geno'
p8
(lp9
(lp10
(lp11
S'FLOAT.DEFINE'
p12
a(lp13
S'CODE.CAR'
p14
a(lp15
(lp16
S'INTEGER.<'
p17
aaaS'CODE.ATOM'
p18
a(lp19
S'INTEGER.YANKDUP'
p20
a(lp21
S'INTEGER.DEFINE'
p22
aS'CODE.FROMNAME'
p23
aS'FLOAT.DEFINE'
p24
aS'CODE.NULL'
p25
aaaS'INTEGER.YANKDUP'
p26
aaa(lp27
S'INTEGER.<'
p28
a(lp29
S'FLOAT.ROT'
p30
aS'CODE.DO*'
p31
a(lp32
S'FLOAT.='
p33
aS'CODE.ATOM'
p34
aaaS'INTEGER.-'
p35
aa(lp36
(lp37
(lp38
S'INTEGER.<'
p39
aa(lp40
S'INTEGER./'
p41
aS'FLOAT.FLUSH'
p42
aaaa(lp43
(lp44
(lp45
(lp46
S'INTEGER.<'
p47
aa(lp48
S'INTEGER.YANKDUP'
p49
a(lp50
S'INTEGER.<'
p51
aaaaaaaS'target'
p52
a(lp53
S'FLOAT.DUP'
p54
a(lp55
S'INTEGER.<'
p56
aa(lp57
S'INTEGER.DEFINE'
p58
aS'target'
p59
aS'-0.028396811110059920'
p60
a(lp61
S'INTEGER.DUP'
p62
aS'CODE.INSTRUCTIONS'
p63
a(lp64
S'INTEGER.SHOVE'
p65
aS'CODE.FROMNAME'
p66
aS'CODE.SHOVE'
p67
aS'-0.0074371045938313720'
p68
aaaaasS'accel_x'
p69
F0.11968739506399784
sS'accel_y'
p70
F-1.9964155197410169
sS'maxAccel'
p71
I2
sS'maxVel'
p72
F0.5
sS'age'
p73
I400
sS'radius'
p74
I5
sS'gener'
p75
S'm'
sS'lastScale'
p76
F14.500000000000004
sS'energy'
p77
F1.4000000000000004
sb.(i__main__
Data_mobile
p1
(dp2
S'vel_y'
p3
F-0.49234371812917743
sS'vel_x'
p4
F0.087164575480736611
sS'pos_x'
p5
F159.07611391717211
sS'pos_y'
p6
F50.612933783537159
sS'isAlive'
p7
I01
sS'geno'
p8
(lp9
(lp10
(lp11
S'POINT.LENGTH'
p12
a(lp13
S'CODE.CAR'
p14
a(lp15
(lp16
S'INTEGER.<'
p17
aaaS'CODE.ATOM'
p18
a(lp19
S'INTEGER.YANKDUP'
p20
a(lp21
S'INTEGER.DEFINE'
p22
aS'CODE.FROMNAME'
p23
aS'FLOAT.DEFINE'
p24
aS'CODE.NULL'
p25
aaaS'INTEGER.YANKDUP'
p26
aaa(lp27
S'INTEGER.<'
p28
a(lp29
S'FLOAT.ROT'
p30
aS'CODE.DO*'
p31
a(lp32
S'FLOAT.>'
p33
aS'CODE.ATOM'
p34
aaaS'INTEGER.-'
p35
aa(lp36
(lp37
(lp38
S'INTEGER.<'
p39
aa(lp40
S'INTEGER./'
p41
aS'FLOAT.FLUSH'
p42
aaaa(lp43
(lp44
(lp45
(lp46
S'INTEGER.<'
p47
aa(lp48
S'INTEGER.YANKDUP'
p49
aS'FLOAT.FLUSH'
p50
aaaaaaS'target'
p51
a(lp52
S'FLOAT.DUP'
p53
a(lp54
S'INTEGER.<'
p55
aa(lp56
S'INTEGER.DEFINE'
p57
aS'CODE.FROMNAME'
p58
aS'CODE.LENGTH'
p59
a(lp60
S'POINT.LENGTH'
p61
aS'CODE.INSTRUCTIONS'
p62
a(lp63
S'INTEGER.SHOVE'
p64
aS'CODE.FROMNAME'
p65
aS'CODE.SHOVE'
p66
aS'INTEGER.MAX'
p67
aaaaasS'accel_x'
p68
F0.34865830192791308
sS'accel_y'
p69
F-1.9693748725158304
sS'maxAccel'
p70
I2
sS'maxVel'
p71
F0.5
sS'age'
p72
I150
sS'radius'
p73
I5
sS'gener'
p74
S'm'
sS'lastScale'
p75
F10
sS'energy'
p76
F0.94999999999999996
sb.(i__main__
Data_mobile
p1
(dp2
S'vel_y'
p3
F-0.49232253846407303
sS'vel_x'
p4
F0.087284122956534094
sS'pos_x'
p5
F159.12071977559745
sS'pos_y'
p6
F50.348217028268529
sS'isAlive'
p7
I01
sS'geno'
p8
(lp9
(lp10
(lp11
S'FLOAT.DEFINE'
p12
a(lp13
S'CODE.CAR'
p14
a(lp15
(lp16
S'INTEGER.<'
p17
aaaS'CODE.ATOM'
p18
a(lp19
S'INTEGER.YANKDUP'
p20
aS'randV'
p21
aa(lp22
(lp23
S'INTEGER./'
p24
a(lp25
S'POINT.LENGTH'
p26
a(lp27
S'INTEGER.<'
p28
aa(lp29
S'CODE.STACKDEPTH'
p30
aS'CODE.FROMNAME'
p31
aS'CODE.LENGTH'
p32
aS'INTEGER.YANK'
p33
aaaaS'-0.0074371045938313720'
p34
a(lp35
S'CODE.POSITION'
p36
aS'CODE.FROMNAME'
p37
aS'FLOAT./'
p38
aS'CODE.INSERT'
p39
aaaaa(lp40
S'CODE.FROMINTEGER'
p41
a(lp42
S'FLOAT.ROT'
p43
aS'CODE.DO*'
p44
a(lp45
S'FLOAT.>'
p46
aS'CODE.DO'
p47
aaaS'INTEGER.-'
p48
aa(lp49
(lp50
S'CODE.FLUSH'
p51
a(lp52
S'INTEGER./'
p53
aS'FLOAT.FLUSH'
p54
aaaa(lp55
(lp56
S'INTEGER.-'
p57
aaaaS'target'
p58
a(lp59
S'FLOAT.DUP'
p60
a(lp61
S'INTEGER.<'
p62
aa(lp63
S'INTEGER.DEFINE'
p64
aS'CODE.FROMNAME'
p65
aS'CODE.LENGTH'
p66
a(lp67
S'POINT.LENGTH'
p68
aS'CODE.INSTRUCTIONS'
p69
a(lp70
S'INTEGER.SHOVE'
p71
aS'CODE.FROMNAME'
p72
aS'CODE.SHOVE'
p73
aS'-0.0074371045938313720'
p74
aaaaasS'accel_x'
p75
F0.34913649182713996
sS'accel_y'
p76
F-1.9692901538561138
sS'maxAccel'
p77
I2
sS'maxVel'
p78
F0.5
sS'age'
p79
I100
sS'radius'
p80
I5
sS'gener'
p81
S'm'
sS'lastScale'
p82
F12.500000000000002
sS'energy'
p83
F1.2000000000000002
sb.(i__main__
Data_mobile
p1
(dp2
S'vel_y'
p3
F-0.40669335005259932
sS'vel_x'
p4
F-0.29086168366251663
sS'pos_x'
p5
F-66.605112472976757
sS'pos_y'
p6
F-81.394793402601309
sS'isAlive'
p7
I01
sS'geno'
p8
(lp9
(lp10
(lp11
S'INTEGER.MIN'
p12
a(lp13
(lp14
(lp15
S'INTEGER.RAND'
p16
a(lp17
S'POINT.*'
p18
aaaaS'INTEGER.FLUSH'
p19
aS'CODE.FROMFLOAT'
p20
aaa(lp21
S'CODE.FROMINTEGER'
p22
a(lp23
S'INTEGER.MAX'
p24
a(lp25
S'FLOAT.ROT'
p26
aS'CODE.FROMFLOAT'
p27
aaS'FLOAT.FLUSH'
p28
aaS'INTEGER.MIN'
p29
aaS'POINT.*'
p30
aS'CODE.FLUSH'
p31
aaS'target'
p32
a(lp33
S'POINT.LENGTH'
p34
a(lp35
S'INTEGER.<'
p36
aaS'POINT.LENGTH'
p37
aasS'accel_x'
p38
F0
sS'accel_y'
p39
F0
sS'maxAccel'
p40
I2
sS'maxVel'
p41
F0.5
sS'age'
p42
I0
sS'radius'
p43
I5
sS'gener'
p44
S'm'
sS'lastScale'
p45
F5.4999999999999956
sS'energy'
p46
F1
sb.(i__main__
Data_mobile
p1
(dp2
S'vel_y'
p3
F-0.48771401433246869
sS'vel_x'
p4
F0.11015915860112839
sS'pos_x'
p5
F158.74217617324473
sS'pos_y'
p6
F50.083660298019126
sS'isAlive'
p7
I01
sS'geno'
p8
(lp9
(lp10
(lp11
S'FLOAT.DEFINE'
p12
a(lp13
S'CODE.CAR'
p14
a(lp15
(lp16
S'INTEGER.<'
p17
aaaS'CODE.ATOM'
p18
a(lp19
S'INTEGER.YANKDUP'
p20
a(lp21
S'INTEGER.DEFINE'
p22
aS'CODE.FROMNAME'
p23
aS'FLOAT.DEFINE'
p24
aS'CODE.NULL'
p25
aaaS'INTEGER.YANKDUP'
p26
aaa(lp27
S'INTEGER.<'
p28
a(lp29
S'FLOAT.ROT'
p30
aS'CODE.DO*'
p31
a(lp32
S'FLOAT.>'
p33
aS'CODE.ATOM'
p34
aaaS'INTEGER.-'
p35
aa(lp36
(lp37
(lp38
S'INTEGER.<'
p39
aa(lp40
S'INTEGER./'
p41
aS'FLOAT.FLUSH'
p42
aaaa(lp43
(lp44
(lp45
(lp46
S'INTEGER.<'
p47
aa(lp48
S'INTEGER.YANKDUP'
p49
aS'FLOAT.FLUSH'
p50
aaaaaaS'target'
p51
a(lp52
S'FLOAT.DUP'
p53
a(lp54
S'INTEGER.<'
p55
aa(lp56
S'INTEGER.DEFINE'
p57
aS'CODE.FROMNAME'
p58
aS'CODE.LENGTH'
p59
a(lp60
S'POINT.LENGTH'
p61
aS'CODE.INSTRUCTIONS'
p62
a(lp63
S'INTEGER.SHOVE'
p64
aS'CODE.FROMNAME'
p65
aS'CODE.SHOVE'
p66
aS'-0.0074371045938313720'
p67
aaaaasS'accel_x'
p68
F0.44063663440987239
sS'accel_y'
p69
F-1.950856057328664
sS'maxAccel'
p70
I2
sS'maxVel'
p71
F0.5
sS'age'
p72
I544
sS'radius'
p73
I5
sS'gener'
p74
S'm'
sS'lastScale'
p75
F12.600000000000001
sS'energy'
p76
F1.2100000000000002
sb.(i__main__
Data_mobile
p1
(dp2
S'vel_y'
p3
F0.076326265197005957
sS'vel_x'
p4
F0.39114333659892253
sS'pos_x'
p5
F11.920895265746823
sS'pos_y'
p6
F19.328456127145621
sS'isAlive'
p7
I01
sS'geno'
p8
(lp9
(lp10
(lp11
S'CODE.DO*COUNT'
p12
a(lp13
(lp14
S'CODE.SHOVE'
p15
aaS'INTEGER.FLUSH'
p16
a(lp17
S'POINT.RAND'
p18
aS'CODE.DO*RANGE'
p19
aaaaS'currentVelocity'
p20
aS'CODE.EXTRACT'
p21
aS'INTEGER.STACKDEPTH'
p22
aaS'target'
p23
a(lp24
S'POINT.LENGTH'
p25
aS'-0.0074371045938313720'
p26
a(lp27
S'CODE.POSITION'
p28
aS'FLOAT.DEFINE'
p29
aS'INTEGER.FROMBOOL'
p30
aS'-2'
p31
aaasS'accel_x'
p32
F0
sS'accel_y'
p33
F0
sS'maxAccel'
p34
I2
sS'maxVel'
p35
F0.5
sS'age'
p36
I0
sS'radius'
p37
I5
sS'gener'
p38
S'm'
sS'lastScale'
p39
F5.4999999999999956
sS'energy'
p40
F1
sb.(i__main__
Data_mobile
p1
(dp2
S'vel_y'
p3
F-0.492347470189194
sS'vel_x'
p4
F0.087143379543719035
sS'pos_x'
p5
F159.07642573458151
sS'pos_y'
p6
F50.613501816020424
sS'isAlive'
p7
I01
sS'geno'
p8
(lp9
(lp10
(lp11
S'CODE.DO*COUNT'
p12
a(lp13
S'POINT.LENGTH'
p14
a(lp15
S'INTEGER.<'
p16
aa(lp17
S'INTEGER.SHOVE'
p18
aS'CODE.FROMNAME'
p19
aS'CODE.LENGTH'
p20
aS'FLOAT.POP'
p21
aaaaS'CODE.STACKDEPTH'
p22
aS'CODE.EXTRACT'
p23
aS'INTEGER.STACKDEPTH'
p24
aaS'INTEGER.<'
p25
a(lp26
S'INTEGER.-'
p27
aS'-0.0074371045938313720'
p28
a(lp29
S'CODE.FROMINTEGER'
p30
aS'target'
p31
aS'target'
p32
aaasS'accel_x'
p33
F0.34857351817983767
sS'accel_y'
p34
F-1.969389880755898
sS'maxAccel'
p35
I2
sS'maxVel'
p36
F0.5
sS'age'
p37
I150
sS'radius'
p38
I5
sS'gener'
p39
S'm'
sS'lastScale'
p40
F10
sS'energy'
p41
F0.94999999999999996
sb.(i__main__
Data_mobile
p1
(dp2
S'vel_y'
p3
F-0.17253725564563038
sS'vel_x'
p4
F0.46928764677356932
sS'pos_x'
p5
F30.175382426953725
sS'pos_y'
p6
F57.20283621273034
sS'isAlive'
p7
I01
sS'geno'
p8
(lp9
(lp10
(lp11
S'CODE.DO*COUNT'
p12
a(lp13
S'POINT.LENGTH'
p14
a(lp15
S'INTEGER.<'
p16
aa(lp17
S'FLOAT.FLUSH'
p18
aS'CODE.FROMNAME'
p19
aS'CODE.LENGTH'
p20
aS'INTEGER.YANK'
p21
aaaaS'CODE.STACKDEPTH'
p22
aS'CODE.EXTRACT'
p23
aS'INTEGER.STACKDEPTH'
p24
aaS'target'
p25
a(lp26
(lp27
S'POINT.*'
p28
aaS'-0.0074371045938313720'
p29
a(lp30
S'CODE.FLUSH'
p31
aS'target'
p32
aS'target'
p33
aaasS'accel_x'
p34
F1.8771505870942728
sS'accel_y'
p35
F-0.69014902258253408
sS'maxAccel'
p36
I2
sS'maxVel'
p37
F0.5
sS'age'
p38
I250
sS'radius'
p39
I5
sS'gener'
p40
S'm'
sS'lastScale'
p41
F14.500000000000004
sS'energy'
p42
F1.4000000000000004
sb.(i__main__
Data_mobile
p1
(dp2
S'vel_y'
p3
F0.47345540843299844
sS'vel_x'
p4
F-0.11058345485107207
sS'pos_x'
p5
F83.690849929440432
sS'pos_y'
p6
F-25.272483206573249
sS'isAlive'
p7
I01
sS'geno'
p8
(lp9
(lp10
(lp11
S'FLOAT.DEFINE'
p12
a(lp13
S'CODE.CAR'
p14
a(lp15
(lp16
S'INTEGER.<'
p17
aaaS'CODE.ATOM'
p18
a(lp19
S'INTEGER.YANKDUP'
p20
a(lp21
S'FLOAT.FLUSH'
p22
aS'CODE.FROMNAME'
p23
aS'FLOAT.*'
p24
aS'CODE.NULL'
p25
aaaS'INTEGER.YANKDUP'
p26
aaa(lp27
S'INTEGER.<'
p28
a(lp29
S'FLOAT.ROT'
p30
aS'CODE.DO*'
p31
a(lp32
S'FLOAT.>'
p33
aS'CODE.ATOM'
p34
aaaS'INTEGER.-'
p35
aa(lp36
(lp37
(lp38
S'FLOAT.YANK'
p39
aa(lp40
S'INTEGER./'
p41
aS'FLOAT.FLUSH'
p42
aaaa(lp43
(lp44
(lp45
(lp46
S'INTEGER.<'
p47
aa(lp48
S'POINT.*'
p49
aS'FLOAT.FLUSH'
p50
aaaaaaS'target'
p51
a(lp52
S'FLOAT.DUP'
p53
a(lp54
S'INTEGER.<'
p55
aa(lp56
S'INTEGER.DEFINE'
p57
aS'CODE.FROMNAME'
p58
aS'CODE.LENGTH'
p59
a(lp60
S'POINT.LENGTH'
p61
aS'CODE.INSTRUCTIONS'
p62
a(lp63
S'INTEGER.SHOVE'
p64
aS'CODE.FROMNAME'
p65
aS'CODE.SHOVE'
p66
aS'FLOAT.MAX'
p67
aaaaasS'accel_x'
p68
F0
sS'accel_y'
p69
F0
sS'maxAccel'
p70
I2
sS'maxVel'
p71
F0.5
sS'age'
p72
I0
sS'radius'
p73
I5
sS'gener'
p74
S'm'
sS'lastScale'
p75
F5.4999999999999956
sS'energy'
p76
F1
sb.(i__main__
Data_mobile
p1
(dp2
S'vel_y'
p3
F0.45603908652133873
sS'vel_x'
p4
F0.20500817438527402
sS'pos_x'
p5
F152.62031432799378
sS'pos_y'
p6
F-10.187153039054785
sS'isAlive'
p7
I01
sS'geno'
p8
(lp9
(lp10
(lp11
S'CODE.YANKDUP'
p12
a(lp13
(lp14
S'CODE.SHOVE'
p15
aaS'INTEGER.FLUSH'
p16
a(lp17
S'POINT.-'
p18
aS'CODE.SHOVE'
p19
aaaaS'CODE.STACKDEPTH'
p20
aS'CODE.EXTRACT'
p21
aS'INTEGER.STACKDEPTH'
p22
aaS'target'
p23
a(lp24
S'POINT.LENGTH'
p25
a(lp26
S'INTEGER.<'
p27
aa(lp28
S'FLOAT.FLUSH'
p29
aS'CODE.FROMNAME'
p30
aS'CODE.LENGTH'
p31
aS'INTEGER.YANK'
p32
aaasS'accel_x'
p33
F0
sS'accel_y'
p34
F0
sS'maxAccel'
p35
I2
sS'maxVel'
p36
F0.5
sS'age'
p37
I400
sS'radius'
p38
I5
sS'gener'
p39
S'm'
sS'lastScale'
p40
F8.4999999999999982
sS'energy'
p41
F0.79999999999999982
sb.(i__main__
Data_mobile
p1
(dp2
S'vel_y'
p3
F0.49221114810587741
sS'vel_x'
p4
F-0.024501067087083696
sS'pos_x'
p5
F-10.99163723880012
sS'pos_y'
p6
F-37.642617046961433
sS'isAlive'
p7
I01
sS'geno'
p8
(lp9
(lp10
(lp11
S'INTEGER.MIN'
p12
a(lp13
S'POINT.+'
p14
aS'INTEGER.='
p15
aS'INTEGER.SWAP'
p16
a(lp17
S'CODE.ROT'
p18
aS'CODE.DO'
p19
aaaa(lp20
S'CODE.FROMINTEGER'
p21
a(lp22
S'INTEGER.MAX'
p23
a(lp24
S'FLOAT.ROT'
p25
aS'CODE.YANKDUP'
p26
aaS'FLOAT.FLUSH'
p27
aaS'INTEGER.MIN'
p28
aaS'CODE.DO*COUNT'
p29
aS'CODE.FROMBOOLEAN'
p30
aaS'target'
p31
a(lp32
S'POINT.LENGTH'
p33
a(lp34
S'INTEGER.<'
p35
aaS'POINT.LENGTH'
p36
aasS'accel_x'
p37
F0
sS'accel_y'
p38
F0
sS'maxAccel'
p39
I2
sS'maxVel'
p40
F0.5
sS'age'
p41
I0
sS'radius'
p42
I5
sS'gener'
p43
S'm'
sS'lastScale'
p44
F5.4999999999999956
sS'energy'
p45
F1
sb.(i__main__
Data_mobile
p1
(dp2
S'vel_y'
p3
F-0.49233612405471355
sS'vel_x'
p4
F0.087207459261129966
sS'pos_x'
p5
F159.12898269494528
sS'pos_y'
p6
F50.309749040954067
sS'isAlive'
p7
I01
sS'geno'
p8
(lp9
(lp10
S'cohension'
p11
a(lp12
S'INTEGER.POP'
p13
aS'INTEGER.-'
p14
a(lp15
S'CODE.APPEND'
p16
aS'CODE.LENGTH'
p17
aS'CODE.FROMBOOLEAN'
p18
aS'FLOAT.>'
p19
aaa(lp20
(lp21
S'CODE.DEFINE'
p22
aaS'CODE.CAR'
p23
aS'FLOAT./'
p24
a(lp25
(lp26
S'FLOAT.YANK'
p27
aS'CODE.CONS'
p28
a(lp29
S'FLOAT.DEFINE'
p30
aS'FLOAT.TAN'
p31
aaaS'CODE.CAR'
p32
aS'INTEGER.DUP'
p33
aa(lp34
S'CODE.DEFINE'
p35
a(lp36
S'randV'
p37
a(lp38
S'FLOAT./'
p39
aaS'FLOAT.='
p40
aaS'CODE.FROMFLOAT'
p41
aaS'INTEGER.SWAP'
p42
aS'CODE.RAND'
p43
a(lp44
(lp45
S'0.40381145323715439:-0.76769724669114159:0.74732520192566454'
p46
aaS'INTEGER.DUP'
p47
aS'mostEnergizedNeighbor'
p48
aS'separation'
p49
aS'0.72304039814580245:-0.62917321492665756:-0.098394911060667348'
p50
a(lp51
S'CODE.INSERT'
p52
aaaa(lp53
S'INTEGER.FROMBOOL'
p54
aS'FLOAT.FROMBOOLEAN'
p55
a(lp56
S'FLOAT.%'
p57
a(lp58
S'CODE.ROT'
p59
a(lp60
S'CODE.CAR'
p61
aaaaa(lp62
S'INTEGER.>'
p63
aS'INTEGER.STACKDEPTH'
p64
aaS'CODE.FROMFLOAT'
p65
a(lp66
S'POINT./'
p67
aa(lp68
S'CODE.NOOP'
p69
aS'INTEGER.MAX'
p70
aaaS'target'
p71
aS'INTEGER.-'
p72
asS'accel_x'
p73
F0.34882983704520537
sS'accel_y'
p74
F-1.9693444962187332
sS'maxAccel'
p75
I2
sS'maxVel'
p76
F0.5
sS'age'
p77
I100
sS'radius'
p78
I5
sS'gener'
p79
S'm'
sS'lastScale'
p80
F12.500000000000002
sS'energy'
p81
F1.2000000000000002
sb.(i__main__
Data_mobile
p1
(dp2
S'vel_y'
p3
F-0.4893447130606865
sS'vel_x'
p4
F0.10267303345842289
sS'pos_x'
p5
F158.85287280953165
sS'pos_y'
p6
F50.226062277638178
sS'isAlive'
p7
I01
sS'geno'
p8
(lp9
(lp10
(lp11
S'FLOAT.DEFINE'
p12
a(lp13
S'CODE.CAR'
p14
a(lp15
(lp16
S'INTEGER.<'
p17
aaaS'CODE.ATOM'
p18
a(lp19
S'INTEGER.YANKDUP'
p20
a(lp21
S'FLOAT.FLUSH'
p22
aS'CODE.FROMNAME'
p23
aS'FLOAT.DEFINE'
p24
aS'CODE.NULL'
p25
aaaS'INTEGER.YANKDUP'
p26
aaa(lp27
S'INTEGER.<'
p28
a(lp29
S'FLOAT.ROT'
p30
aS'CODE.DO*'
p31
a(lp32
S'CODE.DO*COUNT'
p33
aaaS'INTEGER.-'
p34
aa(lp35
(lp36
(lp37
S'INTEGER.<'
p38
aa(lp39
S'INTEGER./'
p40
aS'FLOAT.FLUSH'
p41
aaaa(lp42
(lp43
(lp44
(lp45
S'INTEGER.<'
p46
aa(lp47
S'INTEGER.YANKDUP'
p48
aS'FLOAT.FLUSH'
p49
aaaaaaS'target'
p50
a(lp51
S'FLOAT.DUP'
p52
a(lp53
S'INTEGER.<'
p54
aa(lp55
S'INTEGER.DEFINE'
p56
aS'CODE.FROMNAME'
p57
aS'CODE.LENGTH'
p58
a(lp59
S'POINT.LENGTH'
p60
aS'CODE.INSTRUCTIONS'
p61
a(lp62
S'CODE.STACKDEPTH'
p63
aS'CODE.FROMNAME'
p64
aS'CODE.SHOVE'
p65
aS'-0.0074371045938313720'
p66
aaaaasS'accel_x'
p67
F0.41069213383889486
sS'accel_y'
p68
F-1.9573788522416542
sS'maxAccel'
p69
I2
sS'maxVel'
p70
F0.5
sS'age'
p71
I250
sS'radius'
p72
I5
sS'gener'
p73
S'm'
sS'lastScale'
p74
F8.4999999999999982
sS'energy'
p75
F0.79999999999999982
sb.(i__main__
Data_mobile
p1
(dp2
S'vel_y'
p3
F-0.48702036961070222
sS'vel_x'
p4
F0.11318639310559805
sS'pos_x'
p5
F158.69499882912143
sS'pos_y'
p6
F50.040293862962663
sS'isAlive'
p7
I01
sS'geno'
p8
(lp9
(lp10
(lp11
S'FLOAT.DEFINE'
p12
a(lp13
S'CODE.CAR'
p14
a(lp15
(lp16
S'INTEGER.<'
p17
aaaS'CODE.ATOM'
p18
a(lp19
S'INTEGER.YANKDUP'
p20
aS'INTEGER.MIN'
p21
aa(lp22
(lp23
S'INTEGER./'
p24
a(lp25
S'POINT.LENGTH'
p26
a(lp27
S'INTEGER.<'
p28
aa(lp29
S'FLOAT.FLUSH'
p30
aS'CODE.FROMNAME'
p31
aS'CODE.LENGTH'
p32
aS'INTEGER.YANK'
p33
aaaaS'-0.0074371045938313720'
p34
a(lp35
S'CODE.POSITION'
p36
aS'CODE.FROMNAME'
p37
aS'FLOAT./'
p38
aS'CODE.FLUSH'
p39
aaaaa(lp40
S'CODE.FROMINTEGER'
p41
a(lp42
S'FLOAT.ROT'
p43
aS'CODE.DO*'
p44
a(lp45
S'FLOAT.>'
p46
aS'CODE.ATOM'
p47
aaaS'INTEGER.-'
p48
aa(lp49
(lp50
(lp51
S'INTEGER.<'
p52
aa(lp53
S'INTEGER./'
p54
aS'FLOAT.FLUSH'
p55
aaaa(lp56
(lp57
(lp58
(lp59
S'INTEGER.<'
p60
aa(lp61
S'POINT.LENGTH'
p62
aS'CODE.SIZE'
p63
aaaaaaS'target'
p64
a(lp65
S'FLOAT.DUP'
p66
a(lp67
S'INTEGER.<'
p68
aa(lp69
S'INTEGER.DEFINE'
p70
aS'CODE.FROMNAME'
p71
aS'CODE.LENGTH'
p72
a(lp73
S'POINT.LENGTH'
p74
aS'CODE.INSTRUCTIONS'
p75
a(lp76
S'INTEGER.SHOVE'
p77
aS'CODE.FROMNAME'
p78
aS'CODE.SHOVE'
p79
aS'-0.0074371045938313720'
p80
aaaaasS'accel_x'
p81
F0.4527455724278292
sS'accel_y'
p82
F-1.9480814784415452
sS'maxAccel'
p83
I2
sS'maxVel'
p84
F0.5
sS'age'
p85
I150
sS'radius'
p86
I5
sS'gener'
p87
S'm'
sS'lastScale'
p88
F10
sS'energy'
p89
F0.94999999999999996
sb.(i__main__
Data_mobile
p1
(dp2
S'vel_y'
p3
F-0.24810117649578281
sS'vel_x'
p4
F0.43410345105908621
sS'pos_x'
p5
F-37.857979660183567
sS'pos_y'
p6
F-6.6411539846723047
sS'isAlive'
p7
I01
sS'geno'
p8
(lp9
S'CODE.FROMNAME'
p10
aS'target'
p11
a(lp12
S'POINT.LENGTH'
p13
aS'CODE.DUP'
p14
a(lp15
S'INTEGER.DEFINE'
p16
aS'CODE.FROMNAME'
p17
aS'FLOAT.>'
p18
aS'FLOAT.YANK'
p19
aaasS'accel_x'
p20
F0
sS'accel_y'
p21
F0
sS'maxAccel'
p22
I2
sS'maxVel'
p23
F0.5
sS'age'
p24
I200
sS'radius'
p25
I5
sS'gener'
p26
S'm'
sS'lastScale'
p27
F12.500000000000002
sS'energy'
p28
F1.2000000000000002
sb.(i__main__
Data_mobile
p1
(dp2
S'vel_y'
p3
F-0.20825358229804675
sS'vel_x'
p4
F0.25812212289050063
sS'pos_x'
p5
F3.767936648194719
sS'pos_y'
p6
F83.133658575410763
sS'isAlive'
p7
I01
sS'geno'
p8
(lp9
(lp10
(lp11
S'FLOAT.SIN'
p12
aa(lp13
(lp14
(lp15
S'CODE.NOOP'
p16
aaS'FLOAT.COS'
p17
aa(lp18
S'INTEGER.MIN'
p19
aaS'randV'
p20
aaS'INTEGER./'
p21
aS'FLOAT.<'
p22
a(lp23
(lp24
(lp25
(lp26
S'FLOAT.='
p27
aS'INTEGER.MIN'
p28
aaS'FLOAT.SIN'
p29
aS'CODE.EXTRACT'
p30
aaS'CODE.STACKDEPTH'
p31
aaS'CODE.SIZE'
p32
aa(lp33
S'POINT.POP'
p34
aS'FLOAT.FROMBOOLEAN'
p35
a(lp36
S'FLOAT.*'
p37
aaa(lp38
S'INTEGER.YANK'
p39
aaaS'target'
p40
aS'INTEGER.YANK'
p41
asS'accel_x'
p42
F0
sS'accel_y'
p43
F0
sS'maxAccel'
p44
I2
sS'maxVel'
p45
F0.5
sS'age'
p46
I0
sS'radius'
p47
I5
sS'gener'
p48
S'm'
sS'lastScale'
p49
F5.4999999999999956
sS'energy'
p50
F1
sb.(i__main__
Data_mobile
p1
(dp2
S'vel_y'
p3
F0.48851565679660025
sS'vel_x'
p4
F-0.10654789094386739
sS'pos_x'
p5
F186.25061831074524
sS'pos_y'
p6
F-78.166488802484039
sS'isAlive'
p7
I01
sS'geno'
p8
(lp9
(lp10
(lp11
S'CODE.DO*COUNT'
p12
a(lp13
S'POINT.LENGTH'
p14
a(lp15
S'INTEGER.<'
p16
aa(lp17
S'FLOAT.FLUSH'
p18
aS'CODE.FROMNAME'
p19
aS'CODE.LENGTH'
p20
aS'INTEGER.YANK'
p21
aaaaS'CODE.STACKDEPTH'
p22
aS'CODE.EXTRACT'
p23
aS'INTEGER.STACKDEPTH'
p24
aaS'target'
p25
a(lp26
S'CODE.POSITION'
p27
aS'-0.0074371045938313720'
p28
aS'CODE.FROMFLOAT'
p29
aasS'accel_x'
p30
F-0.4261915637753152
sS'accel_y'
p31
F1.9540626271864348
sS'maxAccel'
p32
I2
sS'maxVel'
p33
F0.5
sS'age'
p34
I544
sS'radius'
p35
I5
sS'gener'
p36
S'm'
sS'lastScale'
p37
F14.600000000000003
sS'energy'
p38
F1.4100000000000004
sb.(i__main__
Data_mobile
p1
(dp2
S'vel_y'
p3
F-0.49434185454598228
sS'vel_x'
p4
F0.075007538581391128
sS'pos_x'
p5
F159.27924996381893
sS'pos_y'
p6
F50.823220458491384
sS'isAlive'
p7
I01
sS'geno'
p8
(lp9
(lp10
(lp11
S'FLOAT.DEFINE'
p12
a(lp13
S'CODE.CAR'
p14
a(lp15
(lp16
S'INTEGER.<'
p17
aaaS'CODE.ATOM'
p18
a(lp19
S'INTEGER.YANKDUP'
p20
aS'randV'
p21
aa(lp22
(lp23
S'INTEGER./'
p24
a(lp25
S'POINT.LENGTH'
p26
a(lp27
S'INTEGER.<'
p28
aa(lp29
S'FLOAT.FLUSH'
p30
aS'CODE.FROMNAME'
p31
aS'CODE.LENGTH'
p32
aS'INTEGER.YANK'
p33
aaaaS'-0.0074371045938313720'
p34
a(lp35
S'CODE.POSITION'
p36
aS'CODE.FROMNAME'
p37
aS'FLOAT./'
p38
aS'CODE.INSERT'
p39
aaaaa(lp40
S'CODE.FROMINTEGER'
p41
a(lp42
S'FLOAT.ROT'
p43
aS'CODE.DO*'
p44
a(lp45
S'FLOAT.>'
p46
aS'CODE.ATOM'
p47
aaaS'INTEGER.-'
p48
aa(lp49
(lp50
(lp51
S'INTEGER.<'
p52
aa(lp53
S'INTEGER./'
p54
aS'FLOAT.FLUSH'
p55
aaaa(lp56
(lp57
(lp58
(lp59
S'INTEGER.<'
p60
aa(lp61
S'POINT.LENGTH'
p62
aS'CODE.SIZE'
p63
aaaaaaS'target'
p64
a(lp65
S'FLOAT.DUP'
p66
a(lp67
S'INTEGER.<'
p68
aa(lp69
S'INTEGER.DEFINE'
p70
aS'CODE.FROMNAME'
p71
aS'CODE.LENGTH'
p72
a(lp73
S'POINT.LENGTH'
p74
aS'CODE.INSTRUCTIONS'
p75
a(lp76
S'INTEGER.SHOVE'
p77
aS'CODE.FROMNAME'
p78
aS'CODE.SHOVE'
p79
aS'-0.0074371045938313720'
p80
aaaaasS'accel_x'
p81
F0.30003015431997349
sS'accel_y'
p82
F-1.9773674181847773
sS'maxAccel'
p83
I2
sS'maxVel'
p84
F0.5
sS'age'
p85
I544
sS'radius'
p86
I5
sS'gener'
p87
S'm'
sS'lastScale'
p88
F8.5999999999999979
sS'energy'
p89
F0.80999999999999983
sb.(i__main__
Data_mobile
p1
(dp2
S'vel_y'
p3
F0.25318530381921994
sS'vel_x'
p4
F-0.43115797792684907
sS'pos_x'
p5
F-54.615753905513834
sS'pos_y'
p6
F3.0734244651231291
sS'isAlive'
p7
I01
sS'geno'
p8
(lp9
(lp10
(lp11
S'INTEGER.MIN'
p12
aS'CODE.DO*RANGE'
p13
aa(lp14
S'CODE.YANKDUP'
p15
a(lp16
S'INTEGER.MAX'
p17
a(lp18
S'POINT.*'
p19
aaS'FLOAT.FLUSH'
p20
aaS'INTEGER.MIN'
p21
aaS'CODE.EXTRACT'
p22
aS'CODE.FROMBOOLEAN'
p23
aaS'target'
p24
a(lp25
S'POINT.LENGTH'
p26
a(lp27
S'INTEGER.<'
p28
aaS'POINT.LENGTH'
p29
aasS'accel_x'
p30
F0
sS'accel_y'
p31
F0
sS'maxAccel'
p32
I2
sS'maxVel'
p33
F0.5
sS'age'
p34
I250
sS'radius'
p35
I5
sS'gener'
p36
S'm'
sS'lastScale'
p37
F12.500000000000002
sS'energy'
p38
F1.2000000000000002
sb.(i__main__
Data_mobile
p1
(dp2
S'vel_y'
p3
F-0.49237118534161634
sS'vel_x'
p4
F0.08700928597162326
sS'pos_x'
p5
F159.12573650877971
sS'pos_y'
p6
F50.349222300493111
sS'isAlive'
p7
I01
sS'geno'
p8
(lp9
S'INTEGER.SHOVE'
p10
aS'target'
p11
a(lp12
S'INTEGER.-'
p13
aS'CODE.DEFINE'
p14
a(lp15
S'target'
p16
aS'INTEGER.='
p17
a(lp18
S'CODE.SIZE'
p19
aS'CODE.FROMNAME'
p20
aS'CODE.FROMFLOAT'
p21
aS'CODE.SWAP'
p22
aaaasS'accel_x'
p23
F0.34803714388433021
sS'accel_y'
p24
F-1.9694847413668475
sS'maxAccel'
p25
I2
sS'maxVel'
p26
F0.5
sS'age'
p27
I300
sS'radius'
p28
I5
sS'gener'
p29
S'm'
sS'lastScale'
p30
F12.500000000000002
sS'energy'
p31
F1.2000000000000002
sb.(i__main__
Data_mobile
p1
(dp2
S'vel_y'
p3
F0.45194067397638149
sS'vel_x'
p4
F0.21389162490797534
sS'pos_x'
p5
F12.715793163133874
sS'pos_y'
p6
F12.977119145058827
sS'isAlive'
p7
I01
sS'geno'
p8
(lp9
(lp10
(lp11
S'INTEGER.MIN'
p12
a(lp13
(lp14
(lp15
S'INTEGER.RAND'
p16
a(lp17
S'POINT.*'
p18
aaaaS'INTEGER.FLUSH'
p19
aS'CODE.FROMFLOAT'
p20
aaa(lp21
S'target'
p22
a(lp23
S'INTEGER.SWAP'
p24
a(lp25
S'FLOAT.ROT'
p26
aS'POINT.POP'
p27
aaS'FLOAT.FLUSH'
p28
aaS'INTEGER.MIN'
p29
aa(lp30
S'POINT.LENGTH'
p31
aS'CODE.DUP'
p32
a(lp33
S'INTEGER.DEFINE'
p34
aS'CODE.FROMNAME'
p35
aS'FLOAT.>'
p36
aS'FLOAT.YANK'
p37
aaaS'CODE.FROMBOOLEAN'
p38
aaS'target'
p39
a(lp40
S'POINT.LENGTH'
p41
a(lp42
S'INTEGER.<'
p43
aaS'POINT.LENGTH'
p44
aasS'accel_x'
p45
F-0.85556649963189779
sS'accel_y'
p46
F-1.807762695905528
sS'maxAccel'
p47
I2
sS'maxVel'
p48
F0.5
sS'age'
p49
I150
sS'radius'
p50
I5
sS'gener'
p51
S'm'
sS'lastScale'
p52
F14.500000000000004
sS'energy'
p53
F1.4000000000000004
sb.(i__main__
Data_mobile
p1
(dp2
S'vel_y'
p3
F0.49787197316543602
sS'vel_x'
p4
F-0.046081431578840801
sS'pos_x'
p5
F-25.038981922230761
sS'pos_y'
p6
F44.92053390137017
sS'isAlive'
p7
I01
sS'geno'
p8
(lp9
(lp10
(lp11
S'INTEGER.MIN'
p12
a(lp13
(lp14
(lp15
S'CODE.FROMINTEGER'
p16
a(lp17
S'POINT.*'
p18
aaaaS'INTEGER.FLUSH'
p19
aS'CODE.FROMFLOAT'
p20
aaa(lp21
S'CODE.FROMINTEGER'
p22
a(lp23
S'INTEGER.MAX'
p24
a(lp25
S'POINT.*'
p26
aS'CODE.LIST'
p27
aaS'CODE.FROMNAME'
p28
aaS'INTEGER.MIN'
p29
aaS'CODE.EXTRACT'
p30
aS'POINT.RAND'
p31
aaS'target'
p32
a(lp33
S'POINT.LENGTH'
p34
a(lp35
S'CODE.ROT'
p36
aaS'INTEGER.SHOVE'
p37
aasS'accel_x'
p38
F0.18432572631536306
sS'accel_y'
p39
F-1.9914878926617439
sS'maxAccel'
p40
I2
sS'maxVel'
p41
F0.5
sS'age'
p42
I400
sS'radius'
p43
I5
sS'gener'
p44
S'm'
sS'lastScale'
p45
F14.500000000000004
sS'energy'
p46
F1.4000000000000004
sb.(i__main__
Data_mobile
p1
(dp2
S'vel_y'
p3
F-0.083300198625633787
sS'vel_x'
p4
F-0.49301224823418938
sS'pos_x'
p5
F-158.57642004300141
sS'pos_y'
p6
F-21.019314380752515
sS'isAlive'
p7
I01
sS'geno'
p8
(lp9
(lp10
(lp11
S'CODE.DO*COUNT'
p12
a(lp13
(lp14
S'CODE.SHOVE'
p15
aaS'INTEGER.FLUSH'
p16
a(lp17
S'POINT.-'
p18
a(lp19
S'INTEGER.ROT'
p20
aaaaaS'FLOAT./'
p21
aS'CODE.EXTRACT'
p22
aS'INTEGER.STACKDEPTH'
p23
aaS'target'
p24
a(lp25
S'POINT.LENGTH'
p26
aS'-0.0074371045938313720'
p27
a(lp28
S'CODE.POSITION'
p29
aS'CODE.FROMNAME'
p30
aS'FLOAT./'
p31
aS'INTEGER.='
p32
aaasS'accel_x'
p33
F-1.9720489929367639
sS'accel_y'
p34
F-0.33320079450249668
sS'maxAccel'
p35
I2
sS'maxVel'
p36
F0.5
sS'age'
p37
I650
sS'radius'
p38
I5
sS'gener'
p39
S'm'
sS'lastScale'
p40
F14.500000000000004
sS'energy'
p41
F1.4000000000000004
sb.(i__main__
Data_mobile
p1
(dp2
S'vel_y'
p3
F0.43926379526989956
sS'vel_x'
p4
F0.22409900974353833
sS'pos_x'
p5
F0.64393868387417008
sS'pos_y'
p6
F-39.162922673666962
sS'isAlive'
p7
I01
sS'geno'
p8
(lp9
(lp10
(lp11
S'INTEGER.MIN'
p12
a(lp13
(lp14
(lp15
S'INTEGER.RAND'
p16
a(lp17
S'POINT.*'
p18
aaaaS'INTEGER.FLUSH'
p19
aS'CODE.SWAP'
p20
aaa(lp21
S'target'
p22
a(lp23
S'INTEGER.SWAP'
p24
a(lp25
S'FLOAT.ROT'
p26
aS'POINT.POP'
p27
aaS'FLOAT.FLUSH'
p28
aaS'INTEGER.MIN'
p29
aa(lp30
S'POINT.LENGTH'
p31
aS'CODE.DUP'
p32
a(lp33
S'INTEGER.DEFINE'
p34
aS'CODE.FROMNAME'
p35
aS'FLOAT.>'
p36
aS'FLOAT.YANK'
p37
aaaS'CODE.FROMBOOLEAN'
p38
aaS'target'
p39
a(lp40
S'CODE.EXTRACT'
p41
a(lp42
S'INTEGER.<'
p43
aaS'POINT.LENGTH'
p44
aasS'accel_x'
p45
F0
sS'accel_y'
p46
F0
sS'maxAccel'
p47
I2
sS'maxVel'
p48
F0.5
sS'age'
p49
I0
sS'radius'
p50
I5
sS'gener'
p51
S'm'
sS'lastScale'
p52
F5.4999999999999956
sS'energy'
p53
F1
sb.(i__main__
Data_mobile
p1
(dp2
S'vel_y'
p3
F0.077126485236357456
sS'vel_x'
p4
F0.4940156933489927
sS'pos_x'
p5
F9.982670699772207
sS'pos_y'
p6
F90.537753879082118
sS'isAlive'
p7
I01
sS'geno'
p8
(lp9
S'CODE.FROMNAME'
p10
aS'target'
p11
a(lp12
S'POINT.LENGTH'
p13
aS'CODE.DUP'
p14
a(lp15
S'INTEGER.DEFINE'
p16
aS'FLOAT.MIN'
p17
aS'FLOAT.>'
p18
aS'FLOAT.YANK'
p19
aaasS'accel_x'
p20
F-0.84374491930592654
sS'accel_y'
p21
F-0.13172674660674488
sS'maxAccel'
p22
I2
sS'maxVel'
p23
F0.5
sS'age'
p24
I50
sS'radius'
p25
I5
sS'gener'
p26
S'm'
sS'lastScale'
p27
F14.500000000000004
sS'energy'
p28
F1.4000000000000004
sb.(i__main__
Data_mobile
p1
(dp2
S'vel_y'
p3
F-0.4882113058729432
sS'vel_x'
p4
F0.10793387243046293
sS'pos_x'
p5
F158.76937561637041
sS'pos_y'
p6
F50.150310541358088
sS'isAlive'
p7
I01
sS'geno'
p8
(lp9
(lp10
(lp11
S'FLOAT.DEFINE'
p12
a(lp13
S'CODE.CAR'
p14
a(lp15
(lp16
S'INTEGER.<'
p17
aaaS'CODE.ATOM'
p18
a(lp19
S'INTEGER.YANKDUP'
p20
a(lp21
S'INTEGER.DEFINE'
p22
aS'CODE.FROMNAME'
p23
aS'FLOAT.DEFINE'
p24
aS'CODE.NULL'
p25
aaaS'INTEGER.YANKDUP'
p26
aaa(lp27
S'INTEGER.<'
p28
a(lp29
S'FLOAT.ROT'
p30
aS'CODE.DO*'
p31
a(lp32
S'FLOAT.>'
p33
aS'CODE.ATOM'
p34
aaaS'CODE.LENGTH'
p35
aa(lp36
(lp37
(lp38
S'INTEGER.<'
p39
aa(lp40
S'INTEGER./'
p41
aS'FLOAT.FLUSH'
p42
aaaa(lp43
(lp44
(lp45
(lp46
S'INTEGER.<'
p47
aa(lp48
S'INTEGER.YANKDUP'
p49
aS'FLOAT.FLUSH'
p50
aaaaaaS'target'
p51
a(lp52
S'FLOAT.DUP'
p53
a(lp54
S'INTEGER.<'
p55
aa(lp56
S'INTEGER.DEFINE'
p57
aS'CODE.FROMNAME'
p58
aS'CODE.LENGTH'
p59
a(lp60
S'POINT.LENGTH'
p61
aS'CODE.INSTRUCTIONS'
p62
a(lp63
S'INTEGER.SHOVE'
p64
aS'CODE.FROMNAME'
p65
aS'CODE.SHOVE'
p66
aS'-0.0074371045938313720'
p67
aaaaasS'accel_x'
p68
F0.43173548972719555
sS'accel_y'
p69
F-1.9528452234905913
sS'maxAccel'
p70
I2
sS'maxVel'
p71
F0.5
sS'age'
p72
I100
sS'radius'
p73
I5
sS'gener'
p74
S'm'
sS'lastScale'
p75
F12.500000000000002
sS'energy'
p76
F1.2000000000000002
sb.(i__main__
Data_mobile
p1
(dp2
S'vel_y'
p3
F-0.25301088084665085
sS'vel_x'
p4
F0.43126035543880198
sS'pos_x'
p5
F-37.029944442667144
sS'pos_y'
p6
F-7.2485294722280624
sS'isAlive'
p7
I01
sS'geno'
p8
(lp9
(lp10
(lp11
S'INTEGER.MIN'
p12
aS'INTEGER.FLUSH'
p13
aa(lp14
S'CODE.YANKDUP'
p15
a(lp16
S'INTEGER.MAX'
p17
a(lp18
S'FLOAT.ROT'
p19
aS'CODE.FROMFLOAT'
p20
aaS'FLOAT.FLUSH'
p21
aaS'INTEGER.MIN'
p22
aaS'CODE.EXTRACT'
p23
aS'CODE.FROMBOOLEAN'
p24
aaS'target'
p25
a(lp26
S'POINT.LENGTH'
p27
a(lp28
S'INTEGER.<'
p29
aaS'POINT.LENGTH'
p30
aasS'accel_x'
p31
F0
sS'accel_y'
p32
F0
sS'maxAccel'
p33
I2
sS'maxVel'
p34
F0.5
sS'age'
p35
I600
sS'radius'
p36
I5
sS'gener'
p37
S'm'
sS'lastScale'
p38
F12.500000000000002
sS'energy'
p39
F1.2000000000000002
sb.(i__main__
Data_mobile
p1
(dp2
S'vel_y'
p3
F0.21264925654723146
sS'vel_x'
p4
F-0.45252656683327414
sS'pos_x'
p5
F93.317101892799911
sS'pos_y'
p6
F-18.468472385290408
sS'isAlive'
p7
I01
sS'geno'
p8
(lp9
(lp10
S'FLOAT./'
p11
aS'CODE.DO*TIMES'
p12
aS'CODE.EXTRACT'
p13
aS'INTEGER.STACKDEPTH'
p14
aaS'target'
p15
a(lp16
S'FLOAT.FLUSH'
p17
aS'CODE.FROMNAME'
p18
aS'CODE.LENGTH'
p19
aS'CODE.LENGTH'
p20
aasS'accel_x'
p21
F-1.8101062673330419
sS'accel_y'
p22
F0.85059702618904232
sS'maxAccel'
p23
I2
sS'maxVel'
p24
F0.5
sS'age'
p25
I150
sS'radius'
p26
I5
sS'gener'
p27
S'm'
sS'lastScale'
p28
F13.500000000000004
sS'energy'
p29
F1.3000000000000003
sb.(i__main__
Data_mobile
p1
(dp2
S'vel_y'
p3
F0.13433002833905591
sS'vel_x'
p4
F-0.48161752821759757
sS'pos_x'
p5
F38.569742875620314
sS'pos_y'
p6
F4.491262338070209
sS'isAlive'
p7
I01
sS'geno'
p8
(lp9
S'CODE.FROMNAME'
p10
aS'target'
p11
a(lp12
S'POINT.LENGTH'
p13
a(lp14
S'CODE.NOOP'
p15
aaS'POINT.LENGTH'
p16
aasS'accel_x'
p17
F-1.9262012590905366
sS'accel_y'
p18
F0.53828311275576135
sS'maxAccel'
p19
I2
sS'maxVel'
p20
F0.5
sS'age'
p21
I100
sS'radius'
p22
I5
sS'gener'
p23
S'm'
sS'lastScale'
p24
F14.000000000000004
sS'energy'
p25
F1.3500000000000003
sb.(i__main__
Data_mobile
p1
(dp2
S'vel_y'
p3
F0.076895358942354067
sS'vel_x'
p4
F0.49405172175909529
sS'pos_x'
p5
F9.1498065907635002
sS'pos_y'
p6
F90.408080047228651
sS'isAlive'
p7
I01
sS'geno'
p8
(lp9
(lp10
(lp11
S'CODE.DO*COUNT'
p12
a(lp13
S'POINT.LENGTH'
p14
aS'FLOAT.<'
p15
a(lp16
S'FLOAT.FLUSH'
p17
aS'CODE.FROMNAME'
p18
aS'CODE.LENGTH'
p19
aS'INTEGER.YANK'
p20
aaaa(lp21
(lp22
S'CODE.DO*COUNT'
p23
a(lp24
S'POINT.LENGTH'
p25
a(lp26
S'INTEGER.<'
p27
aa(lp28
S'FLOAT.FLUSH'
p29
aS'CODE.FROMNAME'
p30
aS'CODE.LENGTH'
p31
aS'INTEGER.YANK'
p32
aaaaS'INTEGER.DUP'
p33
aS'CODE.EXTRACT'
p34
aS'INTEGER.STACKDEPTH'
p35
aaS'cohension'
p36
aS'CODE.EXTRACT'
p37
aaS'target'
p38
aS'INTEGER.YANK'
p39
asS'accel_x'
p40
F1.9762068870363891
sS'accel_y'
p41
F0.30758143576936664
sS'maxAccel'
p42
I2
sS'maxVel'
p43
F0.5
sS'age'
p44
I100
sS'radius'
p45
I5
sS'gener'
p46
S'm'
sS'lastScale'
p47
F14.500000000000004
sS'energy'
p48
F1.4000000000000004
sb.(i__main__
Data_mobile
p1
(dp2
S'vel_y'
p3
F-0.49071565639940251
sS'vel_x'
p4
F0.095906957852408006
sS'pos_x'
p5
F158.94875990513648
sS'pos_y'
p6
F50.390054882997383
sS'isAlive'
p7
I01
sS'geno'
p8
(lp9
(lp10
(lp11
S'CODE.DO*COUNT'
p12
a(lp13
(lp14
S'CODE.QUOTE'
p15
a(lp16
(lp17
(lp18
S'CODE.ATOM'
p19
aS'FLOAT.STACKDEPTH'
p20
aS'FLOAT.*'
p21
aS'INTEGER.FROMBOOL'
p22
aaS'CODE.DO'
p23
aaS'CODE.CAR'
p24
a(lp25
S'currentVelocity'
p26
a(lp27
S'FLOAT.DUP'
p28
a(lp29
S'CODE.FLUSH'
p30
aS'POINT.POP'
p31
aaS'INTEGER.-'
p32
aa(lp33
S'INTEGER.POP'
p34
aS'FLOAT.='
p35
aS'INTEGER.POP'
p36
aa(lp37
S'flee'
p38
aaaS'CODE.FROMNAME'
p39
a(lp40
S'CODE.RAND'
p41
aS'INTEGER.-'
p42
aaaaS'CODE.DO*COUNT'
p43
a(lp44
S'FLOAT.SIN'
p45
aS'INTEGER.>'
p46
aaaaS'currentVelocity'
p47
aS'CODE.EXTRACT'
p48
aS'INTEGER.STACKDEPTH'
p49
aaS'target'
p50
a(lp51
S'CODE.LENGTH'
p52
aS'-0.0074371045938313720'
p53
a(lp54
S'CODE.POSITION'
p55
aS'CODE.FROMNAME'
p56
aS'INTEGER.FROMBOOL'
p57
aS'-2'
p58
aaasS'accel_x'
p59
F0.38362783141472684
sS'accel_y'
p60
F-1.9628626255966142
sS'maxAccel'
p61
I2
sS'maxVel'
p62
F0.5
sS'age'
p63
I544
sS'radius'
p64
I5
sS'gener'
p65
S'm'
sS'lastScale'
p66
F8.5999999999999979
sS'energy'
p67
F0.80999999999999983
sb.(i__main__
Data_mobile
p1
(dp2
S'vel_y'
p3
F-0.48840796025081834
sS'vel_x'
p4
F0.10704048002337767
sS'pos_x'
p5
F158.79230908041126
sS'pos_y'
p6
F50.122906895682313
sS'isAlive'
p7
I01
sS'geno'
p8
(lp9
(lp10
(lp11
S'FLOAT.DEFINE'
p12
a(lp13
S'CODE.CAR'
p14
a(lp15
(lp16
S'INTEGER.<'
p17
aaaS'CODE.ATOM'
p18
a(lp19
S'INTEGER.YANKDUP'
p20
aS'randV'
p21
aa(lp22
(lp23
S'INTEGER./'
p24
a(lp25
S'POINT.LENGTH'
p26
a(lp27
S'INTEGER.<'
p28
aa(lp29
S'FLOAT.FLUSH'
p30
aS'CODE.FROMNAME'
p31
aS'CODE.LENGTH'
p32
aS'INTEGER.YANK'
p33
aaaaS'-0.0074371045938313720'
p34
a(lp35
S'CODE.POSITION'
p36
aS'CODE.FROMNAME'
p37
aS'FLOAT./'
p38
aS'CODE.INSERT'
p39
aaaaa(lp40
S'CODE.FROMINTEGER'
p41
a(lp42
S'FLOAT.ROT'
p43
aS'CODE.DO*'
p44
a(lp45
S'FLOAT.>'
p46
aS'CODE.DO'
p47
aaaS'INTEGER.-'
p48
aa(lp49
(lp50
S'CODE.FLUSH'
p51
a(lp52
S'INTEGER./'
p53
aS'FLOAT.FLUSH'
p54
aaaa(lp55
(lp56
(lp57
(lp58
S'INTEGER.<'
p59
aa(lp60
S'POINT.LENGTH'
p61
aS'CODE.SIZE'
p62
aaaaaaS'target'
p63
a(lp64
S'FLOAT.DUP'
p65
a(lp66
S'INTEGER.<'
p67
aa(lp68
S'INTEGER.DEFINE'
p69
aS'CODE.FROMNAME'
p70
aS'CODE.LENGTH'
p71
a(lp72
S'POINT.LENGTH'
p73
aS'CODE.INSTRUCTIONS'
p74
a(lp75
S'INTEGER.SHOVE'
p76
aS'CODE.FROMNAME'
p77
aS'CODE.SHOVE'
p78
aS'-0.0074371045938313720'
p79
aaaaasS'accel_x'
p80
F0.42816192009879139
sS'accel_y'
p81
F-1.9536318410021156
sS'maxAccel'
p82
I2
sS'maxVel'
p83
F0.5
sS'age'
p84
I450
sS'radius'
p85
I5
sS'gener'
p86
S'm'
sS'lastScale'
p87
F8.4999999999999982
sS'energy'
p88
F0.79999999999999982
sb.(i__main__
Data_mobile
p1
(dp2
S'vel_y'
p3
F-0.49239859675013997
sS'vel_x'
p4
F0.086854026495569225
sS'pos_x'
p5
F159.08074181793492
sS'pos_y'
p6
F50.620942971899645
sS'isAlive'
p7
I01
sS'geno'
p8
(lp9
S'INTEGER.SHOVE'
p10
aS'target'
p11
a(lp12
S'INTEGER.SHOVE'
p13
aS'randV'
p14
a(lp15
S'target'
p16
aS'INTEGER.='
p17
a(lp18
S'CODE.SIZE'
p19
aS'CODE.FROMNAME'
p20
aS'CODE.FROMFLOAT'
p21
aS'CODE.SWAP'
p22
aaaasS'accel_x'
p23
F0.34741610598723938
sS'accel_y'
p24
F-1.9695943869996848
sS'maxAccel'
p25
I2
sS'maxVel'
p26
F0.5
sS'age'
p27
I544
sS'radius'
p28
I5
sS'gener'
p29
S'm'
sS'lastScale'
p30
F9.5999999999999996
sS'energy'
p31
F0.90999999999999992
sb.(i__main__
Data_mobile
p1
(dp2
S'vel_y'
p3
F0.49801120888623096
sS'vel_x'
p4
F-0.044551496312411523
sS'pos_x'
p5
F-25.031455728296248
sS'pos_y'
p6
F44.873085064988871
sS'isAlive'
p7
I01
sS'geno'
p8
(lp9
(lp10
(lp11
S'CODE.DO*COUNT'
p12
a(lp13
S'POINT.LENGTH'
p14
a(lp15
S'INTEGER.<'
p16
aa(lp17
S'FLOAT.FLUSH'
p18
aS'CODE.FROMNAME'
p19
aS'CODE.LENGTH'
p20
aS'INTEGER.YANK'
p21
aaaaS'CODE.STACKDEPTH'
p22
aS'CODE.EXTRACT'
p23
aS'INTEGER.STACKDEPTH'
p24
aaS'target'
p25
a(lp26
S'POINT.LENGTH'
p27
a(lp28
S'CODE.SHOVE'
p29
aa(lp30
S'CODE.FROMINTEGER'
p31
aS'FLOAT.YANKDUP'
p32
aS'INTEGER.%'
p33
aaasS'accel_x'
p34
F0.17820598524965553
sS'accel_y'
p35
F-1.9920448355449232
sS'maxAccel'
p36
I2
sS'maxVel'
p37
F0.5
sS'age'
p38
I500
sS'radius'
p39
I5
sS'gener'
p40
S'm'
sS'lastScale'
p41
F14.500000000000004
sS'energy'
p42
F1.4000000000000004
sb.(i__main__
Data_mobile
p1
(dp2
S'vel_y'
p3
F0.23976250090149465
sS'vel_x'
p4
F-0.43876410878906302
sS'pos_x'
p5
F8.9003960343142232
sS'pos_y'
p6
F91.063296856110739
sS'isAlive'
p7
I01
sS'geno'
p8
(lp9
(lp10
(lp11
S'FLOAT.DEFINE'
p12
a(lp13
S'CODE.CAR'
p14
a(lp15
(lp16
S'INTEGER.<'
p17
aaaS'CODE.FROMFLOAT'
p18
a(lp19
S'INTEGER.YANKDUP'
p20
aS'randV'
p21
aa(lp22
(lp23
S'INTEGER./'
p24
a(lp25
S'POINT.LENGTH'
p26
a(lp27
S'INTEGER.<'
p28
aa(lp29
S'FLOAT.FLUSH'
p30
aS'CODE.FROMNAME'
p31
aS'CODE.LENGTH'
p32
aS'INTEGER.YANK'
p33
aaaaS'-0.0074371045938313720'
p34
a(lp35
S'CODE.POSITION'
p36
aS'CODE.FROMNAME'
p37
aS'FLOAT./'
p38
aS'CODE.INSERT'
p39
aaaaa(lp40
S'CODE.FROMINTEGER'
p41
a(lp42
S'FLOAT.ROT'
p43
aS'CODE.DO*'
p44
aS'CODE.DO*COUNT'
p45
aaS'INTEGER.-'
p46
aa(lp47
(lp48
S'CODE.FLUSH'
p49
a(lp50
S'INTEGER./'
p51
aS'CODE.DO*RANGE'
p52
aaaa(lp53
S'FLOAT.TAN'
p54
a(lp55
(lp56
S'FLOAT.ROT'
p57
aaS'POINT./'
p58
aaaaS'target'
p59
a(lp60
S'FLOAT.DUP'
p61
a(lp62
S'INTEGER.<'
p63
aa(lp64
S'INTEGER.DEFINE'
p65
aS'CODE.FROMNAME'
p66
aS'CODE.LENGTH'
p67
a(lp68
S'POINT.LENGTH'
p69
aS'CODE.INSTRUCTIONS'
p70
a(lp71
S'INTEGER.SHOVE'
p72
aS'CODE.FROMNAME'
p73
aS'CODE.SHOVE'
p74
aS'-0.0074371045938313720'
p75
aaaaasS'accel_x'
p76
F1.7550564351565692
sS'accel_y'
p77
F-0.95905000360539849
sS'maxAccel'
p78
I2
sS'maxVel'
p79
F0.5
sS'age'
p80
I50
sS'radius'
p81
I5
sS'gener'
p82
S'm'
sS'lastScale'
p83
F14.500000000000004
sS'energy'
p84
F1.4000000000000004
sb.(i__main__
Data_mobile
p1
(dp2
S'vel_y'
p3
F0.20371839247552737
sS'vel_x'
p4
F-0.45661670640394553
sS'pos_x'
p5
F4.1151288778163542
sS'pos_y'
p6
F56.625444100912041
sS'isAlive'
p7
I01
sS'geno'
p8
(lp9
(lp10
(lp11
(lp12
(lp13
S'INTEGER.<'
p14
aa(lp15
S'POINT.LENGTH'
p16
aS'CODE.SIZE'
p17
aaaaaS'target'
p18
a(lp19
(lp20
S'CODE.QUOTE'
p21
a(lp22
(lp23
S'FLOAT.POP'
p24
aa(lp25
S'FLOAT.COS'
p26
aaS'INTEGER.%'
p27
a(lp28
(lp29
S'INTEGER.FROMBOOL'
p30
a(lp31
S'CODE.NOOP'
p32
aS'FLOAT.SIN'
p33
a(lp34
S'FLOAT.<'
p35
aS'CODE.EXTRACT'
p36
aS'-0.23450178821443157:-0.61483579399409605:-0.42855466702686501'
p37
aS'CODE.DO*COUNT'
p38
aaa(lp39
S'randV'
p40
a(lp41
S'FLOAT.*'
p42
aS'CODE.FROMFLOAT'
p43
aaaS'FLOAT.+'
p44
aS'INTEGER.>'
p45
aa(lp46
S'CODE.NTH'
p47
aaS'FLOAT.COS'
p48
aa(lp49
S'POINT.-'
p50
a(lp51
(lp52
(lp53
S'cohension'
p54
aaS'CODE.POSITION'
p55
a(lp56
(lp57
S'INTEGER.DEFINE'
p58
aS'FLOAT.%'
p59
aaS'FLOAT.FLUSH'
p60
aaaS'CODE.FROMNAME'
p61
aaS'FLOAT.FROMINTEGER'
p62
aS'CODE.DO*RANGE'
p63
aaaaS'FLOAT.-'
p64
aasS'accel_x'
p65
F-1.8264364400235389
sS'accel_y'
p66
F0.81494167309945731
sS'maxAccel'
p67
I2
sS'maxVel'
p68
F0.5
sS'age'
p69
I50
sS'radius'
p70
I5
sS'gener'
p71
S'm'
sS'lastScale'
p72
F14.500000000000004
sS'energy'
p73
F1.4000000000000004
sb.(i__main__
Data_mobile
p1
(dp2
S'vel_y'
p3
F-0.40087894093257803
sS'vel_x'
p4
F0.23955104962121421
sS'pos_x'
p5
F-39.180889921949763
sS'pos_y'
p6
F-6.8662367773275683
sS'isAlive'
p7
I01
sS'geno'
p8
(lp9
(lp10
(lp11
S'INTEGER.MIN'
p12
a(lp13
(lp14
(lp15
S'CODE.FROMINTEGER'
p16
a(lp17
S'POINT.*'
p18
aaaaS'INTEGER.FLUSH'
p19
aS'CODE.FROMFLOAT'
p20
aaa(lp21
S'CODE.FROMINTEGER'
p22
a(lp23
S'FLOAT.YANK'
p24
aS'FLOAT.ROT'
p25
a(lp26
S'CODE.RAND'
p27
aaaS'INTEGER.MIN'
p28
aaS'CODE.EXTRACT'
p29
a(lp30
(lp31
(lp32
S'POINT.*'
p33
aS'POINT.RAND'
p34
aaS'FLOAT.POP'
p35
aS'CODE.EXTRACT'
p36
aaS'INTEGER.+'
p37
aaaS'target'
p38
a(lp39
S'POINT.LENGTH'
p40
a(lp41
S'CODE.ROT'
p42
aaS'INTEGER.SHOVE'
p43
aasS'accel_x'
p44
F0
sS'accel_y'
p45
F0
sS'maxAccel'
p46
I2
sS'maxVel'
p47
F0.5
sS'age'
p48
I0
sS'radius'
p49
I5
sS'gener'
p50
S'm'
sS'lastScale'
p51
F5.0999999999999961
sS'energy'
p52
F1
sb.(i__main__
Data_mobile
p1
(dp2
S'vel_y'
p3
F0.45690774652550437
sS'vel_x'
p4
F0.20306479548406581
sS'pos_x'
p5
F-34.765657970669295
sS'pos_y'
p6
F21.755110112881571
sS'isAlive'
p7
I01
sS'geno'
p8
(lp9
S'target'
p10
a(lp11
S'INTEGER.MAX'
p12
a(lp13
S'CODE.SWAP'
p14
aS'CODE.STACKDEPTH'
p15
aa(lp16
S'POINT.LENGTH'
p17
aS'-0.0074371045938313720'
p18
a(lp19
S'CODE.POSITION'
p20
aS'INTEGER.+'
p21
aS'FLOAT./'
p22
aS'INTEGER.='
p23
aaaaS'INTEGER.MIN'
p24
asS'accel_x'
p25
F0.81225918193385382
sS'accel_y'
p26
F1.8276309861030882
sS'maxAccel'
p27
I2
sS'maxVel'
p28
F0.5
sS'age'
p29
I50
sS'radius'
p30
I5
sS'gener'
p31
S'm'
sS'lastScale'
p32
F12.000000000000002
sS'energy'
p33
F1.1500000000000001
sb.(i__main__
Data_mobile
p1
(dp2
S'vel_y'
p3
F0.11255025769292368
sS'vel_x'
p4
F0.48716777345515827
sS'pos_x'
p5
F-6.3460203382412583
sS'pos_y'
p6
F-69.353541385186432
sS'isAlive'
p7
I01
sS'geno'
p8
(lp9
(lp10
(lp11
S'INTEGER.MIN'
p12
a(lp13
(lp14
(lp15
S'CODE.FROMNAME'
p16
aS'INTEGER.YANKDUP'
p17
aaaS'INTEGER.FLUSH'
p18
aS'centerOfWorld'
p19
aaa(lp20
S'CODE.FROMINTEGER'
p21
a(lp22
S'INTEGER.MAX'
p23
a(lp24
S'INTEGER.<'
p25
aaS'FLOAT.FLUSH'
p26
aaS'INTEGER.MIN'
p27
aaS'CODE.EXTRACT'
p28
aS'CODE.FROMBOOLEAN'
p29
aaS'target'
p30
a(lp31
S'POINT.LENGTH'
p32
a(lp33
S'INTEGER.<'
p34
aaS'POINT.LENGTH'
p35
aasS'accel_x'
p36
F1.9486710938202954
sS'accel_y'
p37
F0.45020103077315726
sS'maxAccel'
p38
I2
sS'maxVel'
p39
F0.5
sS'age'
p40
I50
sS'radius'
p41
I5
sS'gener'
p42
S'm'
sS'lastScale'
p43
F14.500000000000004
sS'energy'
p44
F1.4000000000000004
sb.(i__main__
Data_mobile
p1
(dp2
S'vel_y'
p3
F-0.076857783198763019
sS'vel_x'
p4
F-0.49405756867168016
sS'pos_x'
p5
F10.612514582494667
sS'pos_y'
p6
F90.63568295474353
sS'isAlive'
p7
I01
sS'geno'
p8
(lp9
(lp10
(lp11
S'CODE.DO*COUNT'
p12
a(lp13
S'POINT.LENGTH'
p14
aS'FLOAT.<'
p15
a(lp16
S'FLOAT.FLUSH'
p17
aS'CODE.FROMNAME'
p18
aS'CODE.LENGTH'
p19
aS'INTEGER.YANK'
p20
aaaaS'CODE.STACKDEPTH'
p21
aS'cohension'
p22
aS'CODE.EXTRACT'
p23
aaS'target'
p24
aS'INTEGER.YANK'
p25
asS'accel_x'
p26
F-1.9762302746867004
sS'accel_y'
p27
F-0.30743113279518197
sS'maxAccel'
p28
I2
sS'maxVel'
p29
F0.5
sS'age'
p30
I200
sS'radius'
p31
I5
sS'gener'
p32
S'm'
sS'lastScale'
p33
F14.500000000000004
sS'energy'
p34
F1.4000000000000004
sb.(i__main__
Data_mobile
p1
(dp2
S'vel_y'
p3
F0.10880075752075219
sS'vel_x'
p4
F-0.48801884713903265
sS'pos_x'
p5
F39.479734817657473
sS'pos_y'
p6
F5.7957584961731188
sS'isAlive'
p7
I01
sS'geno'
p8
(lp9
(lp10
(lp11
S'CODE.DO*COUNT'
p12
a(lp13
S'POINT./'
p14
a(lp15
S'INTEGER.<'
p16
aa(lp17
S'FLOAT.FLUSH'
p18
aS'CODE.FROMNAME'
p19
aS'target'
p20
aS'INTEGER.YANK'
p21
aaaaS'CODE.STACKDEPTH'
p22
aS'CODE.EXTRACT'
p23
aS'INTEGER.STACKDEPTH'
p24
aaS'target'
p25
a(lp26
S'POINT.LENGTH'
p27
aS'-0.0074371045938313720'
p28
a(lp29
S'INTEGER.>'
p30
aS'FLOAT.YANKDUP'
p31
aS'INTEGER.%'
p32
aaasS'accel_x'
p33
F-1.9523272477482028
sS'accel_y'
p34
F0.43407178864783141
sS'maxAccel'
p35
I2
sS'maxVel'
p36
F0.5
sS'age'
p37
I50
sS'radius'
p38
I5
sS'gener'
p39
S'm'
sS'lastScale'
p40
F14.000000000000004
sS'energy'
p41
F1.3500000000000003
sb.(i__main__
Data_mobile
p1
(dp2
S'vel_y'
p3
F-0.051518295006433068
sS'vel_x'
p4
F-0.49733878320479913
sS'pos_x'
p5
F9.1532434962838618
sS'pos_y'
p6
F90.446910236848993
sS'isAlive'
p7
I01
sS'geno'
p8
(lp9
(lp10
(lp11
S'CODE.DO*COUNT'
p12
a(lp13
S'FLOAT.FLUSH'
p14
aS'CODE.FROMNAME'
p15
aS'CODE.LENGTH'
p16
aS'INTEGER.YANK'
p17
aaaS'CODE.STACKDEPTH'
p18
aS'CODE.EXTRACT'
p19
aS'FLOAT.SWAP'
p20
aaS'target'
p21
a(lp22
S'POINT.LENGTH'
p23
a(lp24
S'CODE.SHOVE'
p25
aa(lp26
S'CODE.FROMINTEGER'
p27
aS'FLOAT.YANKDUP'
p28
aS'INTEGER.%'
p29
aaasS'accel_x'
p30
F1.9893551328191947
sS'accel_y'
p31
F0.20607318002574787
sS'maxAccel'
p32
I2
sS'maxVel'
p33
F0.5
sS'age'
p34
I100
sS'radius'
p35
I5
sS'gener'
p36
S'm'
sS'lastScale'
p37
F14.500000000000004
sS'energy'
p38
F1.4000000000000004
sb.(i__main__
Data_mobile
p1
(dp2
S'vel_y'
p3
F0.13569130345740119
sS'vel_x'
p4
F-0.48123577398820994
sS'pos_x'
p5
F38.49691580978628
sS'pos_y'
p6
F4.4314219762208511
sS'isAlive'
p7
I01
sS'geno'
p8
(lp9
(lp10
(lp11
S'CODE.YANKDUP'
p12
a(lp13
(lp14
S'CODE.SHOVE'
p15
aaS'INTEGER.FLUSH'
p16
a(lp17
S'POINT.-'
p18
aS'CODE.SHOVE'
p19
aaaaS'FLOAT.YANKDUP'
p20
aS'CODE.EXTRACT'
p21
aS'INTEGER.STACKDEPTH'
p22
aaS'target'
p23
a(lp24
S'POINT.LENGTH'
p25
a(lp26
S'INTEGER.<'
p27
aa(lp28
S'FLOAT.FLUSH'
p29
aS'CODE.FROMNAME'
p30
aS'CODE.LENGTH'
p31
aS'INTEGER./'
p32
aaasS'accel_x'
p33
F-1.924672847761189
sS'accel_y'
p34
F0.54372275020531791
sS'maxAccel'
p35
I2
sS'maxVel'
p36
F0.5
sS'age'
p37
I100
sS'radius'
p38
I5
sS'gener'
p39
S'm'
sS'lastScale'
p40
F14.000000000000004
sS'energy'
p41
F1.3500000000000003
sb.(i__main__
Data_mobile
p1
(dp2
S'vel_y'
p3
F-0.23232533317710835
sS'vel_x'
p4
F0.44274703789426478
sS'pos_x'
p5
F13.214702845966572
sS'pos_y'
p6
F11.325161685271633
sS'isAlive'
p7
I01
sS'geno'
p8
(lp9
(lp10
(lp11
S'FLOAT.DEFINE'
p12
a(lp13
S'CODE.CAR'
p14
a(lp15
(lp16
S'INTEGER.<'
p17
aaaS'CODE.ATOM'
p18
a(lp19
S'INTEGER.YANKDUP'
p20
aS'randV'
p21
aa(lp22
(lp23
S'INTEGER./'
p24
a(lp25
S'POINT.LENGTH'
p26
a(lp27
S'INTEGER.<'
p28
aa(lp29
S'FLOAT.FLUSH'
p30
aS'CODE.FROMNAME'
p31
aS'CODE.LENGTH'
p32
aS'INTEGER.YANK'
p33
aaaaS'-0.0074371045938313720'
p34
a(lp35
S'CODE.POSITION'
p36
aS'CODE.FROMNAME'
p37
aS'FLOAT./'
p38
aS'CODE.INSERT'
p39
aaaaa(lp40
S'CODE.FROMINTEGER'
p41
a(lp42
S'FLOAT.ROT'
p43
aS'CODE.DO*'
p44
a(lp45
S'FLOAT.>'
p46
aS'CODE.ATOM'
p47
aaaS'INTEGER.-'
p48
aa(lp49
S'CODE.STACKDEPTH'
p50
aa(lp51
(lp52
(lp53
(lp54
S'INTEGER.FLUSH'
p55
aa(lp56
S'POINT.LENGTH'
p57
aS'CODE.SIZE'
p58
aaaaaaS'target'
p59
a(lp60
S'FLOAT.DUP'
p61
a(lp62
S'INTEGER.<'
p63
aa(lp64
S'INTEGER.DEFINE'
p65
aS'CODE.FROMNAME'
p66
aS'CODE.LENGTH'
p67
a(lp68
S'POINT.LENGTH'
p69
aS'CODE.INSTRUCTIONS'
p70
a(lp71
S'INTEGER.SHOVE'
p72
aS'CODE.FROMNAME'
p73
aS'CODE.SHOVE'
p74
aS'-0.0074371045938313720'
p75
aaaaasS'accel_x'
p76
F-1.770988151577058
sS'accel_y'
p77
F0.92930133270843618
sS'maxAccel'
p78
I2
sS'maxVel'
p79
F0.5
sS'age'
p80
I150
sS'radius'
p81
I5
sS'gener'
p82
S'm'
sS'lastScale'
p83
F14.500000000000004
sS'energy'
p84
F1.4000000000000004
sb.(i__main__
Data_mobile
p1
(dp2
S'vel_y'
p3
F-0.48900924129021117
sS'vel_x'
p4
F0.1042591095913064
sS'pos_x'
p5
F158.83074509535959
sS'pos_y'
p6
F50.188438493561982
sS'isAlive'
p7
I01
sS'geno'
p8
(lp9
(lp10
(lp11
S'CODE.DO*COUNT'
p12
a(lp13
S'POINT.LENGTH'
p14
a(lp15
S'INTEGER.<'
p16
aa(lp17
S'FLOAT.FLUSH'
p18
aS'CODE.FROMNAME'
p19
aS'POINT.-'
p20
aS'INTEGER.YANK'
p21
aaaaS'CODE.STACKDEPTH'
p22
aS'CODE.EXTRACT'
p23
aS'INTEGER.STACKDEPTH'
p24
aaS'target'
p25
a(lp26
S'INTEGER.-'
p27
aS'-0.0074371045938313720'
p28
a(lp29
S'CODE.FROMINTEGER'
p30
aS'FLOAT.MAX'
p31
aS'target'
p32
aaasS'accel_x'
p33
F0.41703643837047294
sS'accel_y'
p34
F-1.9560369651597258
sS'maxAccel'
p35
I2
sS'maxVel'
p36
F0.5
sS'age'
p37
I500
sS'radius'
p38
I5
sS'gener'
p39
S'm'
sS'lastScale'
p40
F8.4999999999999982
sS'energy'
p41
F0.79999999999999982
sb.(i__main__
Data_mobile
p1
(dp2
S'vel_y'
p3
F-0.26184098160416663
sS'vel_x'
p4
F0.42595692311848443
sS'pos_x'
p5
F185.57490609119483
sS'pos_y'
p6
F-77.49722778516319
sS'isAlive'
p7
I01
sS'geno'
p8
(lp9
S'INTEGER.SHOVE'
p10
aS'target'
p11
a(lp12
S'INTEGER.SHOVE'
p13
aS'randV'
p14
a(lp15
S'target'
p16
aS'INTEGER.='
p17
a(lp18
S'CODE.SIZE'
p19
aS'CODE.DO*RANGE'
p20
aS'CODE.FROMFLOAT'
p21
a(lp22
S'target'
p23
aS'INTEGER.='
p24
a(lp25
S'CODE.SIZE'
p26
aS'CODE.SIZE'
p27
aS'CODE.FROMFLOAT'
p28
aS'INTEGER.<'
p29
aaaaaasS'accel_x'
p30
F1.7038276924738844
sS'accel_y'
p31
F-1.0473639264167534
sS'maxAccel'
p32
I2
sS'maxVel'
p33
F0.5
sS'age'
p34
I250
sS'radius'
p35
I5
sS'gener'
p36
S'm'
sS'lastScale'
p37
F7.9999999999999982
sS'energy'
p38
F0.74999999999999978
sb.(i__main__
Data_mobile
p1
(dp2
S'vel_y'
p3
F-0.49019030804532748
sS'vel_x'
p4
F0.098556896757288959
sS'pos_x'
p5
F158.90765400184793
sS'pos_y'
p6
F50.341339785456071
sS'isAlive'
p7
I01
sS'geno'
p8
(lp9
(lp10
(lp11
S'CODE.DO*COUNT'
p12
a(lp13
S'POINT.LENGTH'
p14
a(lp15
S'INTEGER.<'
p16
aa(lp17
S'INTEGER.SHOVE'
p18
aS'CODE.FROMNAME'
p19
aS'CODE.LENGTH'
p20
aS'CODE.EXTRACT'
p21
aaaaS'CODE.STACKDEPTH'
p22
aS'CODE.EXTRACT'
p23
aS'INTEGER.STACKDEPTH'
p24
aaS'target'
p25
a(lp26
S'INTEGER.-'
p27
aS'-0.0074371045938313720'
p28
a(lp29
S'CODE.FROMINTEGER'
p30
aS'target'
p31
aS'target'
p32
aaasS'accel_x'
p33
F0.39422758703433691
sS'accel_y'
p34
F-1.9607612321802683
sS'maxAccel'
p35
I2
sS'maxVel'
p36
F0.5
sS'age'
p37
I500
sS'radius'
p38
I5
sS'gener'
p39
S'm'
sS'lastScale'
p40
F9.5
sS'energy'
p41
F0.89999999999999991
sb.(i__main__
Data_mobile
p1
(dp2
S'vel_y'
p3
F0.49973247728488013
sS'vel_x'
p4
F-0.015245365317047122
sS'pos_x'
p5
F-23.588741664146021
sS'pos_y'
p6
F43.728222472318535
sS'isAlive'
p7
I01
sS'geno'
p8
(lp9
S'INTEGER.SHOVE'
p10
aS'target'
p11
a(lp12
S'POINT.LENGTH'
p13
a(lp14
(lp15
S'CODE.QUOTE'
p16
a(lp17
S'POINT.RAND'
p18
a(lp19
(lp20
S'CODE.SIZE'
p21
a(lp22
S'CODE.SHOVE'
p23
aaa(lp24
S'CODE.NOOP'
p25
a(lp26
S'FLOAT.YANKDUP'
p27
aaaS'FLOAT.SHOVE'
p28
aS'INTEGER.STACKDEPTH'
p29
aS'CODE.INSTRUCTIONS'
p30
aaS'CODE.SIZE'
p31
aaaaS'POINT.LENGTH'
p32
aasS'accel_x'
p33
F0
sS'accel_y'
p34
F0
sS'maxAccel'
p35
I2
sS'maxVel'
p36
F0.5
sS'age'
p37
I0
sS'radius'
p38
I5
sS'gener'
p39
S'm'
sS'lastScale'
p40
F5.4999999999999956
sS'energy'
p41
F1
sb.(i__main__
Data_mobile
p1
(dp2
S'vel_y'
p3
F0.10659850758104876
sS'vel_x'
p4
F0.4885046142888449
sS'pos_x'
p5
F-65.998045453967237
sS'pos_y'
p6
F-81.522734396011785
sS'isAlive'
p7
I01
sS'geno'
p8
(lp9
(lp10
(lp11
(lp12
S'FLOAT.FLUSH'
p13
aS'POINT.RAND'
p14
aaS'FLOAT.POP'
p15
aS'CODE.EXTRACT'
p16
aaS'INTEGER.+'
p17
aaS'CODE.STACKDEPTH'
p18
aS'target'
p19
a(lp20
(lp21
(lp22
(lp23
(lp24
S'INTEGER.MIN'
p25
a(lp26
(lp27
(lp28
S'INTEGER.RAND'
p29
a(lp30
S'POINT.*'
p31
aaaaS'INTEGER.FLUSH'
p32
aS'CODE.FROMFLOAT'
p33
aaa(lp34
S'CODE.FROMINTEGER'
p35
a(lp36
S'INTEGER.MAX'
p37
a(lp38
S'FLOAT.ROT'
p39
aS'CODE.FROMFLOAT'
p40
aaS'FLOAT.FLUSH'
p41
aaS'INTEGER.MIN'
p42
aaS'CODE.EXTRACT'
p43
aS'CODE.FROMBOOLEAN'
p44
aaS'target'
p45
a(lp46
S'POINT.LENGTH'
p47
a(lp48
S'INTEGER.<'
p49
aaS'POINT.LENGTH'
p50
aaaaS'FLOAT.COS'
p51
aaS'FLOAT.+'
p52
asS'accel_x'
p53
F-1.9540184571554777
sS'accel_y'
p54
F-0.42639403032374495
sS'maxAccel'
p55
I2
sS'maxVel'
p56
F0.5
sS'age'
p57
I500
sS'radius'
p58
I5
sS'gener'
p59
S'm'
sS'lastScale'
p60
F14.500000000000004
sS'energy'
p61
F1.4000000000000004
sb.(i__main__
Data_mobile
p1
(dp2
S'vel_y'
p3
F0.27714024309547913
sS'vel_x'
p4
F-0.41616497408717462
sS'pos_x'
p5
F-6.6429680721770774
sS'pos_y'
p6
F-68.76895733593048
sS'isAlive'
p7
I01
sS'geno'
p8
(lp9
(lp10
S'POINT.-'
p11
aS'-0.44273096682567403'
p12
aaS'CODE.STACKDEPTH'
p13
aS'CODE.NTHCDR'
p14
a(lp15
(lp16
(lp17
(lp18
(lp19
S'CODE.POP'
p20
a(lp21
(lp22
(lp23
S'INTEGER.RAND'
p24
a(lp25
S'POINT.*'
p26
aaaaS'INTEGER.FLUSH'
p27
aS'CODE.FROMFLOAT'
p28
aaa(lp29
S'CODE.FROMINTEGER'
p30
a(lp31
S'INTEGER.MAX'
p32
aS'CODE.FROMFLOAT'
p33
aS'FLOAT.FLUSH'
p34
aaS'INTEGER.MIN'
p35
aaS'CODE.EXTRACT'
p36
aS'CODE.FROMBOOLEAN'
p37
aaS'target'
p38
a(lp39
S'POINT.LENGTH'
p40
a(lp41
S'INTEGER.<'
p42
aaS'POINT.LENGTH'
p43
aaaaS'FLOAT.COS'
p44
aaS'FLOAT.+'
p45
asS'accel_x'
p46
F1.6646598963486994
sS'accel_y'
p47
F-1.108560972381915
sS'maxAccel'
p48
I2
sS'maxVel'
p49
F0.5
sS'age'
p50
I50
sS'radius'
p51
I5
sS'gener'
p52
S'm'
sS'lastScale'
p53
F14.500000000000004
sS'energy'
p54
F1.4000000000000004
sb.(i__main__
Data_mobile
p1
(dp2
S'vel_y'
p3
F0.083578297753357539
sS'vel_x'
p4
F0.49296517944440166
sS'pos_x'
p5
F10.130243421254539
sS'pos_y'
p6
F90.564031812737824
sS'isAlive'
p7
I01
sS'geno'
p8
(lp9
(lp10
(lp11
(lp12
(lp13
S'CODE.INSTRUCTIONS'
p14
aa(lp15
S'INTEGER.<'
p16
aS'CODE.SIZE'
p17
aaaaaS'target'
p18
a(lp19
S'POINT.LENGTH'
p20
a(lp21
S'CODE.ROT'
p22
aaS'CODE.FROMINTEGER'
p23
aasS'accel_x'
p24
F-1.9718607177781549
sS'accel_y'
p25
F-0.33431319101019635
sS'maxAccel'
p26
I2
sS'maxVel'
p27
F0.5
sS'age'
p28
I150
sS'radius'
p29
I5
sS'gener'
p30
S'm'
sS'lastScale'
p31
F14.500000000000004
sS'energy'
p32
F1.4000000000000004
sb.(i__main__
Data_mobile
p1
(dp2
S'vel_y'
p3
F-0.072329671794303316
sS'vel_x'
p4
F0.38945544934726112
sS'pos_x'
p5
F75.556694326536714
sS'pos_y'
p6
F27.358198753702752
sS'isAlive'
p7
I01
sS'geno'
p8
(lp9
(lp10
(lp11
S'FLOAT.DEFINE'
p12
a(lp13
S'CODE.CAR'
p14
a(lp15
(lp16
S'INTEGER.<'
p17
aaaS'CODE.ATOM'
p18
a(lp19
S'INTEGER.YANKDUP'
p20
a(lp21
S'FLOAT.FLUSH'
p22
a(lp23
S'INTEGER./'
p24
aS'FLOAT.FLUSH'
p25
aaS'FLOAT.DEFINE'
p26
aS'CODE.NULL'
p27
aaaS'INTEGER.YANKDUP'
p28
aaa(lp29
S'INTEGER.<'
p30
a(lp31
S'FLOAT.ROT'
p32
aS'CODE.DO*'
p33
a(lp34
S'FLOAT.>'
p35
aS'CODE.ATOM'
p36
aaaS'INTEGER.-'
p37
aa(lp38
(lp39
(lp40
S'INTEGER.<'
p41
aa(lp42
S'INTEGER./'
p43
aS'FLOAT.FLUSH'
p44
aaaa(lp45
(lp46
(lp47
(lp48
S'CODE.CONTAINER'
p49
aa(lp50
S'FLOAT.COS'
p51
aaS'CODE.DO*TIMES'
p52
aaaaaS'target'
p53
a(lp54
S'FLOAT.DUP'
p55
aS'CODE.='
p56
a(lp57
S'INTEGER.DEFINE'
p58
aS'CODE.FROMNAME'
p59
aS'CODE.LENGTH'
p60
a(lp61
S'POINT.LENGTH'
p62
aS'CODE.INSTRUCTIONS'
p63
a(lp64
S'INTEGER.SHOVE'
p65
aS'CODE.FROMNAME'
p66
aS'CODE.SHOVE'
p67
aS'FLOAT.MAX'
p68
aaaaasS'accel_x'
p69
F0
sS'accel_y'
p70
F0
sS'maxAccel'
p71
I2
sS'maxVel'
p72
F0.5
sS'age'
p73
I0
sS'radius'
p74
I5
sS'gener'
p75
S'm'
sS'lastScale'
p76
F5.4999999999999956
sS'energy'
p77
F1
sb.(i__main__
Data_mobile
p1
(dp2
S'vel_y'
p3
F0.11452113428341934
sS'vel_x'
p4
F-0.48670823888900738
sS'pos_x'
p5
F39.331722290122279
sS'pos_y'
p6
F5.4614971315377563
sS'isAlive'
p7
I01
sS'geno'
p8
(lp9
(lp10
(lp11
(lp12
S'CODE.MEMBER'
p13
aS'FLOAT.FLUSH'
p14
aaaaS'target'
p15
a(lp16
S'POINT.LENGTH'
p17
a(lp18
S'FLOAT.YANKDUP'
p19
aaS'CODE.DO*RANGE'
p20
aasS'accel_x'
p21
F-1.9465872403377662
sS'accel_y'
p22
F0.45912755934946858
sS'maxAccel'
p23
I2
sS'maxVel'
p24
F0.5
sS'age'
p25
I50
sS'radius'
p26
I5
sS'gener'
p27
S'm'
sS'lastScale'
p28
F14.000000000000004
sS'energy'
p29
F1.3500000000000003
sb.(i__main__
Data_mobile
p1
(dp2
S'vel_y'
p3
F0.47659429771958017
sS'vel_x'
p4
F0.15118821177982153
sS'pos_x'
p5
F11.96227783911557
sS'pos_y'
p6
F11.149590118453204
sS'isAlive'
p7
I01
sS'geno'
p8
(lp9
(lp10
(lp11
S'CODE.DO*COUNT'
p12
a(lp13
(lp14
S'CODE.DO*COUNT'
p15
aS'POINT.+'
p16
aS'CODE.CONS'
p17
aaS'FLOAT.<'
p18
aaaS'CODE.STACKDEPTH'
p19
aS'CODE.EXTRACT'
p20
aS'INTEGER.STACKDEPTH'
p21
aaS'target'
p22
a(lp23
S'CODE.FROMINTEGER'
p24
a(lp25
S'CODE.SHOVE'
p26
aa(lp27
S'CODE.FROMINTEGER'
p28
aS'FLOAT.YANKDUP'
p29
aS'INTEGER.%'
p30
aaasS'accel_x'
p31
F0.60475284711957433
sS'accel_y'
p32
F1.9063771908782292
sS'maxAccel'
p33
I2
sS'maxVel'
p34
F0.5
sS'age'
p35
I50
sS'radius'
p36
I5
sS'gener'
p37
S'm'
sS'lastScale'
p38
F14.500000000000004
sS'energy'
p39
F1.4000000000000004
sb.(i__main__
Data_mobile
p1
(dp2
S'vel_y'
p3
F-0.38808168293068124
sS'vel_x'
p4
F-0.31526593119728341
sS'pos_x'
p5
F-24.57570689992048
sS'pos_y'
p6
F42.837935193999812
sS'isAlive'
p7
I01
sS'geno'
p8
(lp9
(lp10
(lp11
S'CODE.DO*COUNT'
p12
a(lp13
S'POINT.LENGTH'
p14
a(lp15
S'INTEGER.<'
p16
aa(lp17
(lp18
S'mostEnergizedNeighbor'
p19
aaS'CODE.IF'
p20
aaaaS'CODE.STACKDEPTH'
p21
aS'CODE.EXTRACT'
p22
aS'INTEGER.STACKDEPTH'
p23
aaS'CODE.DO*'
p24
a(lp25
S'POINT.LENGTH'
p26
aS'-0.0074371045938313720'
p27
a(lp28
S'CODE.FROMINTEGER'
p29
aS'FLOAT.YANKDUP'
p30
aS'INTEGER.%'
p31
aaasS'accel_x'
p32
F-0.39620397055978118
sS'accel_y'
p33
F1.9603628270584665
sS'maxAccel'
p34
I2
sS'maxVel'
p35
F0.5
sS'age'
p36
I200
sS'radius'
p37
I5
sS'gener'
p38
S'm'
sS'lastScale'
p39
F14.500000000000004
sS'energy'
p40
F1.4000000000000004
sb.(i__main__
Data_mobile
p1
(dp2
S'vel_y'
p3
F-0.49029778552409353
sS'vel_x'
p4
F0.098020821819498963
sS'pos_x'
p5
F156.82869197758353
sS'pos_y'
p6
F60.791543735709233
sS'isAlive'
p7
I01
sS'geno'
p8
(lp9
(lp10
(lp11
S'FLOAT.DEFINE'
p12
a(lp13
S'CODE.CAR'
p14
a(lp15
(lp16
S'INTEGER.<'
p17
aaaS'CODE.ATOM'
p18
a(lp19
S'INTEGER.YANKDUP'
p20
a(lp21
S'INTEGER.DEFINE'
p22
aS'CODE.FROMNAME'
p23
aS'FLOAT.DEFINE'
p24
aS'CODE.FROMBOOLEAN'
p25
aaaS'INTEGER.YANKDUP'
p26
aaa(lp27
S'INTEGER.<'
p28
a(lp29
(lp30
S'CODE.SWAP'
p31
aS'CODE.STACKDEPTH'
p32
aaS'CODE.DO*'
p33
a(lp34
S'FLOAT.>'
p35
aS'CODE.ATOM'
p36
aaaS'INTEGER.-'
p37
aa(lp38
(lp39
(lp40
S'INTEGER.<'
p41
aa(lp42
S'INTEGER./'
p43
aS'FLOAT.FLUSH'
p44
aaaa(lp45
(lp46
(lp47
(lp48
S'INTEGER.<'
p49
aa(lp50
S'INTEGER.YANKDUP'
p51
aS'FLOAT.FLUSH'
p52
aaaaaaS'target'
p53
a(lp54
S'FLOAT.DUP'
p55
a(lp56
S'INTEGER.<'
p57
aa(lp58
S'INTEGER.DEFINE'
p59
aS'CODE.FROMNAME'
p60
aS'CODE.LENGTH'
p61
a(lp62
S'POINT.LENGTH'
p63
aS'CODE.INSTRUCTIONS'
p64
a(lp65
S'INTEGER.SHOVE'
p66
aS'CODE.FROMNAME'
p67
aS'CODE.SHOVE'
p68
aS'-0.0074371045938313720'
p69
aaaaasS'accel_x'
p70
F0
sS'accel_y'
p71
F0
sS'maxAccel'
p72
I2
sS'maxVel'
p73
F0.5
sS'age'
p74
I50
sS'radius'
p75
I5
sS'gener'
p76
S'm'
sS'lastScale'
p77
F9.5
sS'energy'
p78
F0.89999999999999991
sb.(i__main__
Data_mobile
p1
(dp2
S'vel_y'
p3
F-0.48702683506815792
sS'vel_x'
p4
F0.11315856981905245
sS'pos_x'
p5
F158.69540911110343
sS'pos_y'
p6
F50.040786513197475
sS'isAlive'
p7
I01
sS'geno'
p8
(lp9
(lp10
(lp11
S'FLOAT.DEFINE'
p12
a(lp13
S'CODE.CAR'
p14
a(lp15
(lp16
S'INTEGER.<'
p17
aaaS'CODE.ATOM'
p18
a(lp19
S'INTEGER.YANKDUP'
p20
aS'randV'
p21
aa(lp22
(lp23
S'INTEGER./'
p24
a(lp25
S'POINT.LENGTH'
p26
a(lp27
S'INTEGER.<'
p28
aa(lp29
S'FLOAT.FLUSH'
p30
aS'CODE.FROMNAME'
p31
aS'CODE.LENGTH'
p32
aS'INTEGER.YANK'
p33
aaaaS'-0.0074371045938313720'
p34
a(lp35
S'CODE.POSITION'
p36
aS'CODE.FROMNAME'
p37
aS'FLOAT./'
p38
aS'CODE.INSERT'
p39
aaaaa(lp40
S'CODE.FROMINTEGER'
p41
a(lp42
S'FLOAT.ROT'
p43
aS'CODE.DO*'
p44
a(lp45
S'FLOAT.>'
p46
aS'CODE.DO'
p47
aaaS'INTEGER.-'
p48
aa(lp49
(lp50
S'CODE.FLUSH'
p51
a(lp52
S'INTEGER./'
p53
aS'FLOAT.FLUSH'
p54
aaaa(lp55
S'CODE.APPEND'
p56
a(lp57
S'target'
p58
a(lp59
S'FLOAT.FROMBOOLEAN'
p60
aaS'CODE.SIZE'
p61
aS'INTEGER.FROMBOOL'
p62
aaS'CODE.YANK'
p63
aaaS'target'
p64
a(lp65
S'FLOAT.DUP'
p66
a(lp67
S'INTEGER.<'
p68
aa(lp69
S'INTEGER.DEFINE'
p70
aS'CODE.FROMNAME'
p71
aS'CODE.LENGTH'
p72
a(lp73
S'POINT.LENGTH'
p74
aS'CODE.INSTRUCTIONS'
p75
a(lp76
S'INTEGER.SHOVE'
p77
aS'CODE.FROMNAME'
p78
aS'CODE.SHOVE'
p79
aS'-0.0074371045938313720'
p80
aaaaasS'accel_x'
p81
F0.45263427928163014
sS'accel_y'
p82
F-1.948107340271372
sS'maxAccel'
p83
I2
sS'maxVel'
p84
F0.5
sS'age'
p85
I350
sS'radius'
p86
I5
sS'gener'
p87
S'm'
sS'lastScale'
p88
F10
sS'energy'
p89
F0.94999999999999996
sb.(i__main__
Data_mobile
p1
(dp2
S'vel_y'
p3
F-0.12833498857447787
sS'vel_x'
p4
F-0.36352061509792466
sS'pos_x'
p5
F0.26008840425376434
sS'pos_y'
p6
F-55.084620597815487
sS'isAlive'
p7
I01
sS'geno'
p8
(lp9
(lp10
(lp11
S'INTEGER.MIN'
p12
a(lp13
(lp14
(lp15
S'INTEGER.RAND'
p16
a(lp17
S'POINT.*'
p18
aaaaS'INTEGER.FLUSH'
p19
aS'CODE.ATOM'
p20
aaa(lp21
S'FLOAT.FLUSH'
p22
aS'CODE.FROMNAME'
p23
aS'CODE.LENGTH'
p24
aS'CODE.LENGTH'
p25
aaS'CODE.EXTRACT'
p26
aS'CODE.FROMBOOLEAN'
p27
aaS'target'
p28
a(lp29
S'POINT.LENGTH'
p30
a(lp31
S'INTEGER.<'
p32
aaS'POINT.LENGTH'
p33
aasS'accel_x'
p34
F0
sS'accel_y'
p35
F0
sS'maxAccel'
p36
I2
sS'maxVel'
p37
F0.5
sS'age'
p38
I0
sS'radius'
p39
I5
sS'gener'
p40
S'm'
sS'lastScale'
p41
F5.2999999999999963
sS'energy'
p42
F1
sb.(i__main__
Data_mobile
p1
(dp2
S'vel_y'
p3
F-0.48547912926946502
sS'vel_x'
p4
F-0.036463815339341628
sS'pos_x'
p5
F-56.626299092924071
sS'pos_y'
p6
F-51.278841519056996
sS'isAlive'
p7
I01
sS'geno'
p8
(lp9
S'INTEGER.SHOVE'
p10
aS'target'
p11
a(lp12
S'INTEGER.SHOVE'
p13
aS'INTEGER.DEFINE'
p14
a(lp15
S'0.16710256579497423'
p16
a(lp17
S'CODE.QUOTE'
p18
a(lp19
(lp20
S'INTEGER.POP'
p21
a(lp22
S'POINT.RAND'
p23
aaS'INTEGER.FROMFLOAT'
p24
aS'FLOAT.ROT'
p25
a(lp26
S'CODE.DEFINE'
p27
aaa(lp28
S'INTEGER.MIN'
p29
aa(lp30
S'CODE.FLUSH'
p31
aS'FLOAT.YANKDUP'
p32
a(lp33
S'INTEGER.MIN'
p34
aS'INTEGER.YANKDUP'
p35
a(lp36
S'CODE.DEFINITION'
p37
aaaaS'INTEGER.FROMFLOAT'
p38
aS'INTEGER.YANK'
p39
a(lp40
(lp41
S'CODE.DO*RANGE'
p42
aS'INTEGER.%'
p43
aa(lp44
(lp45
S'POINT.POP'
p46
aaS'FLOAT.FLUSH'
p47
aS'CODE.CONS'
p48
aS'INTEGER.YANK'
p49
aa(lp50
S'CODE.YANK'
p51
a(lp52
(lp53
(lp54
S'CODE.CDR'
p55
aS'CODE.LIST'
p56
aS'FLOAT.COS'
p57
aaS'CODE.LENGTH'
p58
a(lp59
S'cohension'
p60
aS'INTEGER.+'
p61
aa(lp62
(lp63
S'FLOAT.-'
p64
aS'FLOAT.SIN'
p65
aaS'CODE.DO*'
p66
aS'INTEGER.*'
p67
aS'FLOAT./'
p68
aaa(lp69
(lp70
(lp71
S'0'
aS'CODE.RAND'
p72
aaS'CODE.FLUSH'
p73
aa(lp74
S'POINT.+'
p75
aa(lp76
S'separation'
p77
aS'INTEGER.-'
p78
aS'POINT.*'
p79
aS'CODE.NULL'
p80
aaS'randV'
p81
a(lp82
S'CODE.EXTRACT'
p83
a(lp84
S'INTEGER.POP'
p85
aS'FLOAT.POP'
p86
aS'POINT.+'
p87
aa(lp88
S'CODE.FROMFLOAT'
p89
a(lp90
S'CODE.POSITION'
p91
aS'currentVelocity'
p92
a(lp93
S'CODE.NOOP'
p94
aaaaaa(lp95
S'FLOAT.SIN'
p96
aS'FLOAT.FROMINTEGER'
p97
aa(lp98
S'POINT.*'
p99
aS'CODE.NULL'
p100
aS'FLOAT.MAX'
p101
aaS'CODE.STACKDEPTH'
p102
a(lp103
S'CODE.LIST'
p104
aS'FLOAT.YANK'
p105
aaaS'CODE.NTH'
p106
aS'FLOAT.STACKDEPTH'
p107
a(lp108
S'FLOAT.FLUSH'
p109
aS'CODE.FROMNAME'
p110
aS'CODE.NOOP'
p111
a(lp112
S'CODE.QUOTE'
p113
a(lp114
(lp115
S'CODE.INSERT'
p116
aS'FLOAT.YANK'
p117
aS'CODE.STACKDEPTH'
p118
a(lp119
(lp120
S'FLOAT.TAN'
p121
aS'FLOAT.YANK'
p122
aS'CODE.APPEND'
p123
aa(lp124
S'CODE.INSERT'
p125
a(lp126
S'CODE.CONTAINER'
p127
aaaS'FLOAT.COS'
p128
aaS'FLOAT.-'
p129
aa(lp130
(lp131
S'currentVelocity'
p132
aaS'FLOAT.MIN'
p133
a(lp134
S'CODE.DO'
p135
a(lp136
S'INTEGER.FROMBOOL'
p137
aS'INTEGER.*'
p138
aa(lp139
S'mostEnergizedNeighbor'
p140
aS'FLOAT.POP'
p141
a(lp142
S'FLOAT.SHOVE'
p143
a(lp144
S'FLOAT.FLUSH'
p145
aS'CODE.CDR'
p146
aaaaaa(lp147
S'INTEGER./'
p148
aS'INTEGER./'
p149
aS'INTEGER.SHOVE'
p150
aaS'FLOAT.MIN'
p151
aaaaaS'INTEGER.*'
p152
aaaa(lp153
S'POINT.+'
p154
a(lp155
S'CODE.QUOTE'
p156
aaa(lp157
(lp158
S'FLOAT.-'
p159
aS'CODE.POSITION'
p160
aaS'CODE.DO*'
p161
aS'INTEGER.FROMFLOAT'
p162
aS'CODE.INSTRUCTIONS'
p163
aaaasS'accel_x'
p164
F0
sS'accel_y'
p165
F0
sS'maxAccel'
p166
I2
sS'maxVel'
p167
F0.5
sS'age'
p168
I0
sS'radius'
p169
I5
sS'gener'
p170
S'm'
sS'lastScale'
p171
F5.4999999999999956
sS'energy'
p172
F1
sb.(i__main__
Data_mobile
p1
(dp2
S'vel_y'
p3
F-0.48998366738581567
sS'vel_x'
p4
F0.099579142872121412
sS'pos_x'
p5
F158.8929021162557
sS'pos_y'
p6
F50.317613056737869
sS'isAlive'
p7
I01
sS'geno'
p8
(lp9
(lp10
(lp11
S'CODE.DO*COUNT'
p12
a(lp13
S'POINT.LENGTH'
p14
a(lp15
S'INTEGER.<'
p16
aa(lp17
S'FLOAT.FLUSH'
p18
aS'CODE.FROMNAME'
p19
aS'CODE.LENGTH'
p20
aS'INTEGER.POP'
p21
aaaaS'CODE.STACKDEPTH'
p22
aS'CODE.EXTRACT'
p23
aS'INTEGER.STACKDEPTH'
p24
aaS'CODE.DO*COUNT'
p25
a(lp26
S'INTEGER.-'
p27
aS'-0.0074371045938313720'
p28
a(lp29
S'CODE.FROMINTEGER'
p30
aS'target'
p31
aS'target'
p32
aaasS'accel_x'
p33
F0.39831657149370153
sS'accel_y'
p34
F-1.9599346695422026
sS'maxAccel'
p35
I2
sS'maxVel'
p36
F0.5
sS'age'
p37
I200
sS'radius'
p38
I5
sS'gener'
p39
S'm'
sS'lastScale'
p40
F9.5
sS'energy'
p41
F0.89999999999999991
sb.(i__main__
Data_mobile
p1
(dp2
S'vel_y'
p3
F0.4999475654884864
sS'vel_x'
p4
F-0.0072409779819858
sS'pos_x'
p5
F-24.957053677430448
sS'pos_y'
p6
F44.97368268715497
sS'isAlive'
p7
I01
sS'geno'
p8
(lp9
S'INTEGER.SHOVE'
p10
aS'target'
p11
a(lp12
S'POINT.LENGTH'
p13
aS'CODE.CONS'
p14
a(lp15
S'POINT.RAND'
p16
aS'CODE.FROMNAME'
p17
a(lp18
(lp19
S'INTEGER.YANK'
p20
aaS'target'
p21
aaS'FLOAT.YANK'
p22
aaasS'accel_x'
p23
F0.028963911927949417
sS'accel_y'
p24
F-1.9997902619539456
sS'maxAccel'
p25
I2
sS'maxVel'
p26
F0.5
sS'age'
p27
I450
sS'radius'
p28
I5
sS'gener'
p29
S'm'
sS'lastScale'
p30
F14.500000000000004
sS'energy'
p31
F1.4000000000000004
sb.(i__main__
Data_mobile
p1
(dp2
S'vel_y'
p3
F0.053882381091550725
sS'vel_x'
p4
F0.49708821048975294
sS'pos_x'
p5
F9.554541876378476
sS'pos_y'
p6
F90.486872180775691
sS'isAlive'
p7
I01
sS'geno'
p8
(lp9
(lp10
(lp11
S'CODE.DO*COUNT'
p12
a(lp13
(lp14
S'CODE.SHOVE'
p15
aaS'INTEGER.FLUSH'
p16
a(lp17
S'POINT.-'
p18
aS'CODE.DO*RANGE'
p19
aaaaS'POINT.LENGTH'
p20
aS'CODE.EXTRACT'
p21
aS'INTEGER.ROT'
p22
aaS'target'
p23
a(lp24
S'POINT.LENGTH'
p25
aS'-0.0074371045938313720'
p26
a(lp27
S'CODE.POSITION'
p28
aS'CODE.FROMNAME'
p29
aS'INTEGER.FROMBOOL'
p30
aS'-2'
p31
aaasS'accel_x'
p32
F1.9883528419594814
sS'accel_y'
p33
F0.21552952436187101
sS'maxAccel'
p34
I2
sS'maxVel'
p35
F0.5
sS'age'
p36
I200
sS'radius'
p37
I5
sS'gener'
p38
S'm'
sS'lastScale'
p39
F14.500000000000004
sS'energy'
p40
F1.4000000000000004
sb.(i__main__
Data_mobile
p1
(dp2
S'vel_y'
p3
F0.11316983390887327
sS'vel_x'
p4
F0.48702421776851923
sS'pos_x'
p5
F-157.93120699621062
sS'pos_y'
p6
F-20.845466763692464
sS'isAlive'
p7
I01
sS'geno'
p8
(lp9
(lp10
(lp11
S'FLOAT.DEFINE'
p12
a(lp13
S'CODE.CAR'
p14
a(lp15
(lp16
S'INTEGER.<'
p17
aaaS'CODE.ATOM'
p18
a(lp19
S'INTEGER.YANKDUP'
p20
a(lp21
S'INTEGER.DEFINE'
p22
aS'CODE.FROMNAME'
p23
aS'FLOAT.DEFINE'
p24
aS'CODE.NULL'
p25
aaaS'INTEGER.YANKDUP'
p26
aaa(lp27
S'INTEGER.<'
p28
a(lp29
S'FLOAT.ROT'
p30
aS'CODE.DO*'
p31
a(lp32
S'FLOAT.='
p33
aS'CODE.ATOM'
p34
aaaS'INTEGER.-'
p35
aa(lp36
(lp37
(lp38
S'INTEGER.<'
p39
aa(lp40
S'INTEGER./'
p41
aS'FLOAT.FLUSH'
p42
aaaa(lp43
(lp44
(lp45
(lp46
S'INTEGER.<'
p47
aa(lp48
S'INTEGER.YANKDUP'
p49
a(lp50
S'INTEGER.<'
p51
aaaaaaaS'target'
p52
a(lp53
S'FLOAT.DUP'
p54
a(lp55
S'INTEGER.<'
p56
aa(lp57
S'INTEGER.DEFINE'
p58
aS'CODE.FROMNAME'
p59
aS'CODE.LENGTH'
p60
a(lp61
S'INTEGER.DUP'
p62
aS'CODE.INSTRUCTIONS'
p63
a(lp64
S'INTEGER.SHOVE'
p65
aS'CODE.FROMNAME'
p66
aS'CODE.SHOVE'
p67
aS'-0.0074371045938313720'
p68
aaaaasS'accel_x'
p69
F-1.9480968710740745
sS'accel_y'
p70
F-0.45267933563550355
sS'maxAccel'
p71
I2
sS'maxVel'
p72
F0.5
sS'age'
p73
I550
sS'radius'
p74
I5
sS'gener'
p75
S'm'
sS'lastScale'
p76
F14.500000000000004
sS'energy'
p77
F1.4000000000000004
sb.(i__main__
Data_mobile
p1
(dp2
S'vel_y'
p3
F-0.4875095887974587
sS'vel_x'
p4
F0.11106034769679367
sS'pos_x'
p5
F158.77311479219364
sS'pos_y'
p6
F49.873144831462469
sS'isAlive'
p7
I01
sS'geno'
p8
(lp9
(lp10
(lp11
S'FLOAT.DEFINE'
p12
a(lp13
S'CODE.CAR'
p14
a(lp15
(lp16
S'INTEGER.<'
p17
aaaS'CODE.ATOM'
p18
a(lp19
S'INTEGER.YANKDUP'
p20
a(lp21
S'INTEGER.DEFINE'
p22
aS'CODE.SHOVE'
p23
aS'FLOAT.DEFINE'
p24
aS'CODE.NULL'
p25
aaaS'INTEGER.YANKDUP'
p26
aaa(lp27
S'INTEGER.<'
p28
a(lp29
S'FLOAT.ROT'
p30
aS'CODE.DO*'
p31
a(lp32
S'FLOAT.='
p33
aS'CODE.ATOM'
p34
aaaS'INTEGER.-'
p35
aa(lp36
(lp37
(lp38
S'INTEGER.<'
p39
aa(lp40
S'CODE.DO*TIMES'
p41
aaaa(lp42
(lp43
(lp44
(lp45
S'INTEGER.<'
p46
aa(lp47
S'INTEGER.YANKDUP'
p48
a(lp49
S'INTEGER.<'
p50
aaaaaaaS'target'
p51
a(lp52
S'FLOAT.DUP'
p53
a(lp54
S'INTEGER.<'
p55
aa(lp56
S'INTEGER.DEFINE'
p57
aS'target'
p58
aS'-0.028396811110059920'
p59
a(lp60
S'INTEGER.DUP'
p61
aS'CODE.INSTRUCTIONS'
p62
a(lp63
S'INTEGER.SHOVE'
p64
aS'CODE.FROMNAME'
p65
aS'CODE.SHOVE'
p66
aS'-0.0074371045938313720'
p67
aaaaasS'accel_x'
p68
F0.44424139079239372
sS'accel_y'
p69
F-1.950038355188646
sS'maxAccel'
p70
I2
sS'maxVel'
p71
F0.5
sS'age'
p72
I50
sS'radius'
p73
I5
sS'gener'
p74
S'm'
sS'lastScale'
p75
F12.500000000000002
sS'energy'
p76
F1.2000000000000002
sb.(i__main__
Data_mobile
p1
(dp2
S'vel_y'
p3
F0.20881410972329636
sS'vel_x'
p4
F0.37208827359536767
sS'pos_x'
p5
F164.97266071417926
sS'pos_y'
p6
F-57.647939775621538
sS'isAlive'
p7
I01
sS'geno'
p8
(lp9
S'INTEGER.SHOVE'
p10
aS'target'
p11
a(lp12
S'INTEGER.SHOVE'
p13
aS'randV'
p14
a(lp15
(lp16
(lp17
S'INTEGER.MIN'
p18
a(lp19
(lp20
(lp21
S'POINT.LENGTH'
p22
a(lp23
S'POINT.*'
p24
aaaaS'INTEGER.FLUSH'
p25
aS'CODE.FROMFLOAT'
p26
aaa(lp27
S'CODE.FROMINTEGER'
p28
a(lp29
(lp30
S'FLOAT.DUP'
p31
a(lp32
S'INTEGER.<'
p33
aa(lp34
S'flee'
p35
aS'CODE.FROMNAME'
p36
aS'CODE.LENGTH'
p37
a(lp38
S'POINT.LENGTH'
p39
aS'CODE.INSTRUCTIONS'
p40
a(lp41
S'INTEGER.SHOVE'
p42
aS'CODE.FROMNAME'
p43
aS'CODE.SHOVE'
p44
aS'FLOAT.MAX'
p45
aaaaa(lp46
S'POINT.*'
p47
aS'CODE.LIST'
p48
aaS'CODE.FROMNAME'
p49
aaS'INTEGER.MIN'
p50
aaS'CODE.EXTRACT'
p51
aS'INTEGER.MIN'
p52
aaS'target'
p53
a(lp54
S'POINT.LENGTH'
p55
a(lp56
S'target'
p57
aaS'INTEGER.SHOVE'
p58
aaaasS'accel_x'
p59
F0
sS'accel_y'
p60
F0
sS'maxAccel'
p61
I2
sS'maxVel'
p62
F0.5
sS'age'
p63
I0
sS'radius'
p64
I5
sS'gener'
p65
S'm'
sS'lastScale'
p66
F5.4999999999999956
sS'energy'
p67
F1
sb.(i__main__
Data_mobile
p1
(dp2
S'vel_y'
p3
F-0.1792553933482309
sS'vel_x'
p4
F0.0095827805171525005
sS'pos_x'
p5
F-66.861866858298129
sS'pos_y'
p6
F-81.574310559732581
sS'isAlive'
p7
I01
sS'geno'
p8
(lp9
S'POINT.LENGTH'
p10
aS'target'
p11
a(lp12
S'INTEGER.STACKDEPTH'
p13
a(lp14
S'INTEGER.<'
p15
aaS'POINT.LENGTH'
p16
aasS'accel_x'
p17
F0
sS'accel_y'
p18
F0
sS'maxAccel'
p19
I2
sS'maxVel'
p20
F0.5
sS'age'
p21
I0
sS'radius'
p22
I5
sS'gener'
p23
S'm'
sS'lastScale'
p24
F5.4999999999999956
sS'energy'
p25
F1
sb.(i__main__
Data_mobile
p1
(dp2
S'vel_y'
p3
F-0.48767015465698005
sS'vel_x'
p4
F0.11035316151718134
sS'pos_x'
p5
F158.73677125738237
sS'pos_y'
p6
F50.091362542636361
sS'isAlive'
p7
I01
sS'geno'
p8
(lp9
(lp10
(lp11
S'CODE.DO*COUNT'
p12
aS'POINT.LENGTH'
p13
aaS'CODE.STACKDEPTH'
p14
aS'CODE.FROMBOOLEAN'
p15
aS'INTEGER.STACKDEPTH'
p16
aaS'CODE.DO*COUNT'
p17
a(lp18
S'INTEGER.-'
p19
aS'CODE.SHOVE'
p20
a(lp21
S'CODE.FROMINTEGER'
p22
aS'target'
p23
aS'CODE.ATOM'
p24
aaasS'accel_x'
p25
F0.44141264607412234
sS'accel_y'
p26
F-1.9506806186266992
sS'maxAccel'
p27
I2
sS'maxVel'
p28
F0.5
sS'age'
p29
I50
sS'radius'
p30
I5
sS'gener'
p31
S'm'
sS'lastScale'
p32
F12.500000000000002
sS'energy'
p33
F1.2000000000000002
sb.(i__main__
Data_mobile
p1
(dp2
S'vel_y'
p3
F0.27199059629952976
sS'vel_x'
p4
F0.29414215279938943
sS'pos_x'
p5
F5.7352557926478323
sS'pos_y'
p6
F50.142576917507135
sS'isAlive'
p7
I01
sS'geno'
p8
(lp9
(lp10
(lp11
S'CODE.DO*COUNT'
p12
a(lp13
(lp14
S'CODE.SHOVE'
p15
aaS'INTEGER.FLUSH'
p16
a(lp17
S'CODE.POSITION'
p18
aS'CODE.DO*RANGE'
p19
aaaaS'CODE.FROMFLOAT'
p20
aS'CODE.EXTRACT'
p21
aS'CODE.FROMINTEGER'
p22
aaS'target'
p23
a(lp24
S'CODE.POSITION'
p25
aS'-0.0074371045938313720'
p26
aS'CODE.FROMFLOAT'
p27
aasS'accel_x'
p28
F0
sS'accel_y'
p29
F0
sS'maxAccel'
p30
I2
sS'maxVel'
p31
F0.5
sS'age'
p32
I0
sS'radius'
p33
I5
sS'gener'
p34
S'm'
sS'lastScale'
p35
F5.4999999999999956
sS'energy'
p36
F1
sb.(i__main__
Data_mobile
p1
(dp2
S'vel_y'
p3
F-0.29258681887058297
sS'vel_x'
p4
F-0.18999023155388767
sS'pos_x'
p5
F-11.819443645478609
sS'pos_y'
p6
F62.289134891644437
sS'isAlive'
p7
I01
sS'geno'
p8
(lp9
(lp10
(lp11
(lp12
S'CODE.STACKDEPTH'
p13
a(lp14
S'POINT.LENGTH'
p15
aS'CODE.SIZE'
p16
aaaaaS'target'
p17
a(lp18
S'POINT.LENGTH'
p19
aS'CODE.SWAP'
p20
aS'CODE.FROMINTEGER'
p21
aasS'accel_x'
p22
F0
sS'accel_y'
p23
F0
sS'maxAccel'
p24
I2
sS'maxVel'
p25
F0.5
sS'age'
p26
I0
sS'radius'
p27
I5
sS'gener'
p28
S'm'
sS'lastScale'
p29
F5.4999999999999956
sS'energy'
p30
F1
sb.(i__main__
Data_mobile
p1
(dp2
S'vel_y'
p3
F-0.24826716435360638
sS'vel_x'
p4
F0.43400854266226074
sS'pos_x'
p5
F-37.614600498617513
sS'pos_y'
p6
F-6.7844466236895373
sS'isAlive'
p7
I01
sS'geno'
p8
(lp9
(lp10
(lp11
S'CODE.DO*COUNT'
p12
a(lp13
(lp14
S'CODE.DO*COUNT'
p15
a(lp16
S'FLOAT.DUP'
p17
aaS'CODE.CONS'
p18
aaS'FLOAT.<'
p19
aaaS'CODE.STACKDEPTH'
p20
aS'CODE.EXTRACT'
p21
aS'INTEGER.STACKDEPTH'
p22
aaS'target'
p23
a(lp24
S'POINT.LENGTH'
p25
a(lp26
S'CODE.SHOVE'
p27
aa(lp28
S'CODE.FROMINTEGER'
p29
aS'FLOAT.YANKDUP'
p30
aS'INTEGER.%'
p31
aaasS'accel_x'
p32
F0
sS'accel_y'
p33
F0
sS'maxAccel'
p34
I2
sS'maxVel'
p35
F0.5
sS'age'
p36
I250
sS'radius'
p37
I5
sS'gener'
p38
S'm'
sS'lastScale'
p39
F12.500000000000002
sS'energy'
p40
F1.2000000000000002
sb.(i__main__
Data_mobile
p1
(dp2
S'vel_y'
p3
F0.25502848396348904
sS'vel_x'
p4
F-0.43007031095773679
sS'pos_x'
p5
F-55.507163689646944
sS'pos_y'
p6
F3.6524241161143434
sS'isAlive'
p7
I01
sS'geno'
p8
(lp9
(lp10
(lp11
S'CODE.DO*COUNT'
p12
a(lp13
S'POINT.LENGTH'
p14
a(lp15
S'INTEGER.<'
p16
aa(lp17
S'FLOAT.FLUSH'
p18
aS'CODE.FROMNAME'
p19
aS'CODE.LENGTH'
p20
aS'INTEGER.YANK'
p21
aaaaS'CODE.STACKDEPTH'
p22
aS'CODE.EXTRACT'
p23
aS'INTEGER.STACKDEPTH'
p24
aaS'target'
p25
a(lp26
S'CODE.FROMINTEGER'
p27
a(lp28
S'CODE.MEMBER'
p29
aa(lp30
S'CODE.FROMINTEGER'
p31
aS'FLOAT.YANKDUP'
p32
aS'INTEGER.%'
p33
aaasS'accel_x'
p34
F0
sS'accel_y'
p35
F0
sS'maxAccel'
p36
I2
sS'maxVel'
p37
F0.5
sS'age'
p38
I200
sS'radius'
p39
I5
sS'gener'
p40
S'm'
sS'lastScale'
p41
F12.000000000000002
sS'energy'
p42
F1.1500000000000001
sb.(i__main__
Data_mobile
p1
(dp2
S'vel_y'
p3
F-0.25385498587553912
sS'vel_x'
p4
F0.43076402605850206
sS'pos_x'
p5
F-37.707033281761746
sS'pos_y'
p6
F-6.8728423244614048
sS'isAlive'
p7
I01
sS'geno'
p8
(lp9
S'target'
p10
a(lp11
S'INTEGER.MAX'
p12
a(lp13
S'CODE.SWAP'
p14
aS'CODE.STACKDEPTH'
p15
aaS'INTEGER.DEFINE'
p16
aaS'INTEGER.MIN'
p17
asS'accel_x'
p18
F0
sS'accel_y'
p19
F0
sS'maxAccel'
p20
I2
sS'maxVel'
p21
F0.5
sS'age'
p22
I250
sS'radius'
p23
I5
sS'gener'
p24
S'm'
sS'lastScale'
p25
F12.500000000000002
sS'energy'
p26
F1.2000000000000002
sb.(i__main__
Data_mobile
p1
(dp2
S'vel_y'
p3
F-0.48780060269998915
sS'vel_x'
p4
F0.10977509738336512
sS'pos_x'
p5
F186.05497716066506
sS'pos_y'
p6
F-77.288094469236924
sS'isAlive'
p7
I01
sS'geno'
p8
(lp9
(lp10
(lp11
S'FLOAT.DEFINE'
p12
a(lp13
S'CODE.CAR'
p14
a(lp15
(lp16
S'INTEGER.<'
p17
aaaS'CODE.ATOM'
p18
a(lp19
S'INTEGER.YANKDUP'
p20
a(lp21
S'FLOAT.FLUSH'
p22
aS'CODE.FROMNAME'
p23
aS'FLOAT.DEFINE'
p24
aS'CODE.NULL'
p25
aaaS'INTEGER.YANKDUP'
p26
aaa(lp27
S'INTEGER.<'
p28
a(lp29
S'FLOAT.ROT'
p30
aS'CODE.DO*'
p31
a(lp32
S'FLOAT.>'
p33
aS'CODE.ATOM'
p34
aaaS'INTEGER.-'
p35
aa(lp36
(lp37
(lp38
S'INTEGER.<'
p39
aa(lp40
S'INTEGER./'
p41
aS'FLOAT.FLUSH'
p42
aaaa(lp43
(lp44
(lp45
(lp46
S'INTEGER.<'
p47
aaS'target'
p48
aaaaaS'target'
p49
a(lp50
S'FLOAT.DUP'
p51
a(lp52
S'INTEGER.<'
p53
aa(lp54
S'INTEGER.DEFINE'
p55
aS'CODE.FROMNAME'
p56
aS'CODE.LENGTH'
p57
a(lp58
S'INTEGER.YANK'
p59
a(lp60
S'FLOAT.DEFINE'
p61
aS'CODE.STACKDEPTH'
p62
aS'FLOAT./'
p63
aaaaasS'accel_x'
p64
F0.43910038953344721
sS'accel_y'
p65
F-1.9512024107999597
sS'maxAccel'
p66
I2
sS'maxVel'
p67
F0.5
sS'age'
p68
I300
sS'radius'
p69
I5
sS'gener'
p70
S'm'
sS'lastScale'
p71
F14.500000000000004
sS'energy'
p72
F1.4000000000000004
sb.(i__main__
Data_mobile
p1
(dp2
S'vel_y'
p3
F-0.4331280253643145
sS'vel_x'
p4
F0.24980014740590076
sS'pos_x'
p5
F-40.442649861705412
sS'pos_y'
p6
F-11.486721697254326
sS'isAlive'
p7
I01
sS'geno'
p8
(lp9
(lp10
(lp11
(lp12
S'POINT.*'
p13
aS'POINT.RAND'
p14
aaS'FLOAT.POP'
p15
aS'CODE.EXTRACT'
p16
aaS'INTEGER.+'
p17
aaS'CODE.STACKDEPTH'
p18
aS'CODE.NTHCDR'
p19
a(lp20
(lp21
(lp22
(lp23
(lp24
S'INTEGER.MIN'
p25
a(lp26
(lp27
(lp28
S'INTEGER.RAND'
p29
a(lp30
S'POINT.*'
p31
aaaaS'INTEGER.FLUSH'
p32
aS'CODE.FROMFLOAT'
p33
aaa(lp34
S'CODE.FROMINTEGER'
p35
a(lp36
S'INTEGER.MAX'
p37
aS'CODE.FROMFLOAT'
p38
aS'FLOAT.FLUSH'
p39
aaS'INTEGER.MIN'
p40
aaS'CODE.EXTRACT'
p41
aS'CODE.FROMBOOLEAN'
p42
aaS'target'
p43
a(lp44
S'POINT.LENGTH'
p45
a(lp46
S'INTEGER.<'
p47
aaS'POINT.LENGTH'
p48
aaaa(lp49
(lp50
(lp51
S'CODE.DO*COUNT'
p52
a(lp53
S'POINT.LENGTH'
p54
aS'FLOAT.<'
p55
a(lp56
S'FLOAT.FLUSH'
p57
aS'CODE.FROMNAME'
p58
aS'CODE.LENGTH'
p59
aS'INTEGER.YANK'
p60
aaaaS'CODE.STACKDEPTH'
p61
aS'cohension'
p62
aS'CODE.EXTRACT'
p63
aaS'target'
p64
aS'INTEGER.YANK'
p65
aaaS'FLOAT.+'
p66
asS'accel_x'
p67
F0
sS'accel_y'
p68
F0
sS'maxAccel'
p69
I2
sS'maxVel'
p70
F0.5
sS'age'
p71
I50
sS'radius'
p72
I5
sS'gener'
p73
S'm'
sS'lastScale'
p74
F11.5
sS'energy'
p75
F1.1000000000000001
sb.(i__main__
Data_mobile
p1
(dp2
S'vel_y'
p3
F-0.4884442419330336
sS'vel_x'
p4
F0.10687479835051922
sS'pos_x'
p5
F158.79459062581381
sS'pos_y'
p6
F50.126772124176682
sS'isAlive'
p7
I01
sS'geno'
p8
(lp9
(lp10
(lp11
S'CODE.DO*COUNT'
p12
a(lp13
S'POINT.LENGTH'
p14
aS'FLOAT.<'
p15
a(lp16
S'FLOAT.FLUSH'
p17
aS'CODE.FROMNAME'
p18
aS'CODE.LENGTH'
p19
aS'INTEGER.YANK'
p20
aaaaS'CODE.STACKDEPTH'
p21
aS'CODE.EXTRACT'
p22
aS'INTEGER.STACKDEPTH'
p23
aaS'target'
p24
aS'INTEGER.YANK'
p25
asS'accel_x'
p26
F0.42749919340735765
sS'accel_y'
p27
F-1.9537769677309791
sS'maxAccel'
p28
I2
sS'maxVel'
p29
F0.5
sS'age'
p30
I450
sS'radius'
p31
I5
sS'gener'
p32
S'm'
sS'lastScale'
p33
F8.4999999999999982
sS'energy'
p34
F0.79999999999999982
sb.(i__main__
Data_mobile
p1
(dp2
S'vel_y'
p3
F0.28637735941104075
sS'vel_x'
p4
F-0.09127360855432623
sS'pos_x'
p5
F28.559989711760259
sS'pos_y'
p6
F14.352762763541033
sS'isAlive'
p7
I01
sS'geno'
p8
(lp9
(lp10
(lp11
(lp12
(lp13
S'INTEGER.<'
p14
aa(lp15
S'POINT.LENGTH'
p16
aS'CODE.SIZE'
p17
aaaaaS'target'
p18
a(lp19
(lp20
S'CODE.QUOTE'
p21
a(lp22
(lp23
S'FLOAT.POP'
p24
aa(lp25
S'FLOAT.COS'
p26
aaS'INTEGER.%'
p27
a(lp28
(lp29
(lp30
(lp31
S'CODE.QUOTE'
p32
a(lp33
(lp34
S'INTEGER.FLUSH'
p35
aaS'FLOAT.YANKDUP'
p36
a(lp37
S'INTEGER.%'
p38
a(lp39
(lp40
(lp41
(lp42
S'CODE.SHOVE'
p43
aaS'INTEGER.YANK'
p44
aa(lp45
S'6'
aS'CODE.DO*COUNT'
p46
aS'CODE.DO*RANGE'
p47
aa(lp48
S'INTEGER.-'
p49
aaS'CODE.FROMBOOLEAN'
p50
aaS'INTEGER.MIN'
p51
a(lp52
S'FLOAT.FROMINTEGER'
p53
aa(lp54
(lp55
(lp56
S'INTEGER.DUP'
p57
aaS'FLOAT./'
p58
aa(lp59
(lp60
S'FLOAT.SWAP'
p61
aaS'CODE.YANKDUP'
p62
a(lp63
(lp64
S'INTEGER.DEFINE'
p65
aaS'CODE.YANK'
p66
aS'currentVelocity'
p67
aa(lp68
S'INTEGER.FROMFLOAT'
p69
aS'mostEnergizedNeighbor'
p70
aS'CODE.STACKDEPTH'
p71
aaS'FLOAT.<'
p72
aS'separation'
p73
aa(lp74
S'CODE.MEMBER'
p75
aS'INTEGER.STACKDEPTH'
p76
aS'INTEGER.RAND'
p77
aS'currentVelocity'
p78
aaS'CODE.NOOP'
p79
a(lp80
S'INTEGER.DEFINE'
p81
aS'CODE.FROMBOOLEAN'
p82
aS'CODE.FROMNAME'
p83
aaa(lp84
(lp85
S'CODE.FROMINTEGER'
p86
aS'FLOAT.YANKDUP'
p87
aS'FLOAT.FROMBOOLEAN'
p88
aaS'CODE.FROMINTEGER'
p89
aa(lp90
S'flee'
p91
aS'CODE.INSTRUCTIONS'
p92
aS'INTEGER.RAND'
p93
aS'target'
p94
aaaS'CODE.POP'
p95
a(lp96
(lp97
S'FLOAT./'
p98
aaS'0.71793203561518626'
p99
aS'cohension'
p100
aaa(lp101
(lp102
S'INTEGER.YANKDUP'
p103
a(lp104
S'FLOAT./'
p105
a(lp106
(lp107
S'INTEGER.DEFINE'
p108
aaS'INTEGER.RAND'
p109
aaaS'POINT.RAND'
p110
aS'FLOAT.<'
p111
aaS'CODE.EXTRACT'
p112
aaaaS'POINT./'
p113
aS'FLOAT.TAN'
p114
aS'INTEGER.YANKDUP'
p115
aaS'POINT.POP'
p116
a(lp117
(lp118
(lp119
S'CODE.QUOTE'
p120
a(lp121
S'-7'
p122
aS'separation'
p123
a(lp124
S'INTEGER.MIN'
p125
aa(lp126
(lp127
S'CODE.QUOTE'
p128
a(lp129
S'CODE.DO'
p130
aS'CODE.POP'
p131
aaaS'INTEGER.+'
p132
aS'CODE.LENGTH'
p133
aS'CODE.CONTAINER'
p134
aa(lp135
S'FLOAT.ROT'
p136
a(lp137
S'CODE.IF'
p138
aaS'POINT./'
p139
aaS'INTEGER.<'
p140
a(lp141
S'CODE.DEFINE'
p142
a(lp143
S'INTEGER.-'
p144
a(lp145
S'CODE.IF'
p146
aaa(lp147
S'CODE.DEFINE'
p148
aS'POINT.LENGTH'
p149
aaS'INTEGER.YANKDUP'
p150
aaS'INTEGER.RAND'
p151
aaaS'INTEGER.MIN'
p152
aS'FLOAT.*'
p153
aaS'FLOAT.YANKDUP'
p154
aS'POINT.RAND'
p155
a(lp156
S'INTEGER.MIN'
p157
aaaS'CODE.DO*'
p158
aa(lp159
S'CODE.NTH'
p160
aaS'FLOAT.COS'
p161
aa(lp162
S'CODE.POSITION'
p163
aS'-0.0074371045938313720'
p164
aS'CODE.FROMFLOAT'
p165
aaaaS'FLOAT.-'
p166
aasS'accel_x'
p167
F0
sS'accel_y'
p168
F0
sS'maxAccel'
p169
I2
sS'maxVel'
p170
F0.5
sS'age'
p171
I0
sS'radius'
p172
I5
sS'gener'
p173
S'm'
sS'lastScale'
p174
F4.9999999999999956
sS'energy'
p175
F1
sb.(i__main__
Data_mobile
p1
(dp2
S'vel_y'
p3
F0.39219198611354622
sS'vel_x'
p4
F0.3101377855539566
sS'pos_x'
p5
F39.431343011419891
sS'pos_y'
p6
F69.574669205073818
sS'isAlive'
p7
I01
sS'geno'
p8
(lp9
S'INTEGER.YANK'
p10
aS'target'
p11
a(lp12
(lp13
S'POINT.LENGTH'
p14
aS'CODE.EXTRACT'
p15
aS'cohension'
p16
aaS'CODE.DO*'
p17
aS'randV'
p18
aasS'accel_x'
p19
F0.847593821644539
sS'accel_y'
p20
F0.53542266109948677
sS'maxAccel'
p21
I2
sS'maxVel'
p22
F0.5
sS'age'
p23
I50
sS'radius'
p24
I5
sS'gener'
p25
S'm'
sS'lastScale'
p26
F8.9999999999999982
sS'energy'
p27
F0.84999999999999987
sb.(i__main__
Data_mobile
p1
(dp2
S'vel_y'
p3
F-0.056360159728202221
sS'vel_x'
p4
F0.49681337783458646
sS'pos_x'
p5
F-65.92481786661412
sS'pos_y'
p6
F-81.805571034758756
sS'isAlive'
p7
I01
sS'geno'
p8
(lp9
(lp10
(lp11
S'INTEGER.MIN'
p12
a(lp13
(lp14
(lp15
S'CODE.FROMINTEGER'
p16
a(lp17
S'POINT.*'
p18
aaaaS'INTEGER.FLUSH'
p19
aS'CODE.FROMFLOAT'
p20
aaa(lp21
S'CODE.FROMINTEGER'
p22
a(lp23
S'INTEGER.MAX'
p24
a(lp25
S'centerOfWorld'
p26
aS'CODE.LIST'
p27
aaS'INTEGER.MAX'
p28
aaS'INTEGER.MIN'
p29
aaS'CODE.EXTRACT'
p30
aS'POINT.RAND'
p31
aaS'target'
p32
a(lp33
S'POINT.LENGTH'
p34
a(lp35
S'INTEGER.<'
p36
aaS'POINT.LENGTH'
p37
aasS'accel_x'
p38
F-1.9872535113383418
sS'accel_y'
p39
F0.2254406389128423
sS'maxAccel'
p40
I2
sS'maxVel'
p41
F0.5
sS'age'
p42
I350
sS'radius'
p43
I5
sS'gener'
p44
S'm'
sS'lastScale'
p45
F14.500000000000004
sS'energy'
p46
F1.4000000000000004
sb.(i__main__
Data_mobile
p1
(dp2
S'vel_y'
p3
F-0.45397013881420006
sS'vel_x'
p4
F-0.20954978660217208
sS'pos_x'
p5
F3.860942876352401
sS'pos_y'
p6
F57.381118654331161
sS'isAlive'
p7
I01
sS'geno'
p8
(lp9
(lp10
(lp11
S'FLOAT.YANKDUP'
p12
a(lp13
S'POINT.LENGTH'
p14
a(lp15
S'INTEGER.<'
p16
aaS'FLOAT.YANKDUP'
p17
aaaS'CODE.STACKDEPTH'
p18
aS'CODE.EXTRACT'
p19
aS'INTEGER.STACKDEPTH'
p20
aaS'target'
p21
a(lp22
S'POINT.LENGTH'
p23
aS'target'
p24
a(lp25
S'CODE.FROMINTEGER'
p26
aS'INTEGER.STACKDEPTH'
p27
aS'INTEGER.%'
p28
aaasS'accel_x'
p29
F-0.84010019972070094
sS'accel_y'
p30
F-1.8150018331751729
sS'maxAccel'
p31
I2
sS'maxVel'
p32
F0.5
sS'age'
p33
I50
sS'radius'
p34
I5
sS'gener'
p35
S'm'
sS'lastScale'
p36
F14.500000000000004
sS'energy'
p37
F1.4000000000000004
sb.(i__main__
Data_mobile
p1
(dp2
S'vel_y'
p3
F0.49938574821698267
sS'vel_x'
p4
F-0.024776490424682707
sS'pos_x'
p5
F-24.984949041676057
sS'pos_y'
p6
F44.748278203818778
sS'isAlive'
p7
I01
sS'geno'
p8
(lp9
(lp10
(lp11
S'FLOAT.POP'
p12
aS'INTEGER.%'
p13
a(lp14
S'target'
p15
aa(lp16
(lp17
S'0.10872976461163018:0.94166559584943244:-0.70621724280207820'
p18
aaS'CODE.FLUSH'
p19
aaaS'CODE.STACKDEPTH'
p20
aS'CODE.EXTRACT'
p21
aS'INTEGER.STACKDEPTH'
p22
aaS'target'
p23
aS'POINT.*'
p24
asS'accel_x'
p25
F0.099105961698708236
sS'accel_y'
p26
F-1.9975429928679318
sS'maxAccel'
p27
I2
sS'maxVel'
p28
F0.5
sS'age'
p29
I150
sS'radius'
p30
I5
sS'gener'
p31
S'm'
sS'lastScale'
p32
F14.500000000000004
sS'energy'
p33
F1.4000000000000004
sb.(i__main__
Data_mobile
p1
(dp2
S'vel_y'
p3
F-0.39277474975291982
sS'vel_x'
p4
F0.14866805942804859
sS'pos_x'
p5
F-22.957992006431063
sS'pos_y'
p6
F47.191351917287697
sS'isAlive'
p7
I01
sS'geno'
p8
(lp9
(lp10
(lp11
S'CODE.DO*COUNT'
p12
a(lp13
(lp14
S'CODE.SHOVE'
p15
aaS'CODE.DO*COUNT'
p16
a(lp17
S'CODE.APPEND'
p18
aaaaS'POINT.LENGTH'
p19
aS'CODE.EXTRACT'
p20
aS'INTEGER.ROT'
p21
aaS'target'
p22
a(lp23
S'POINT.LENGTH'
p24
aS'-0.0074371045938313720'
p25
a(lp26
S'CODE.POSITION'
p27
aS'CODE.FROMNAME'
p28
aS'INTEGER.FROMBOOL'
p29
aS'-2'
p30
aaasS'accel_x'
p31
F0
sS'accel_y'
p32
F0
sS'maxAccel'
p33
I2
sS'maxVel'
p34
F0.5
sS'age'
p35
I0
sS'radius'
p36
I5
sS'gener'
p37
S'm'
sS'lastScale'
p38
F5.1999999999999957
sS'energy'
p39
F1
sb.(i__main__
Data_mobile
p1
(dp2
S'vel_y'
p3
F-0.49159422107610512
sS'vel_x'
p4
F0.091296888252434247
sS'pos_x'
p5
F159.01484889143998
sS'pos_y'
p6
F50.508954990518149
sS'isAlive'
p7
I01
sS'geno'
p8
(lp9
S'INTEGER.SHOVE'
p10
aS'target'
p11
a(lp12
S'INTEGER.SHOVE'
p13
a(lp14
S'POINT.LENGTH'
p15
a(lp16
S'INTEGER.<'
p17
aa(lp18
S'FLOAT.FLUSH'
p19
aS'CODE.FROMNAME'
p20
aS'CODE.LENGTH'
p21
aS'CODE.SWAP'
p22
aaa(lp23
S'target'
p24
aS'INTEGER.='
p25
a(lp26
S'CODE.SIZE'
p27
aS'CODE.FROMNAME'
p28
aS'CODE.FROMFLOAT'
p29
aS'CODE.SWAP'
p30
aaaasS'accel_x'
p31
F0.36518755301477934
sS'accel_y'
p32
F-1.9663768843034841
sS'maxAccel'
p33
I2
sS'maxVel'
p34
F0.5
sS'age'
p35
I300
sS'radius'
p36
I5
sS'gener'
p37
S'm'
sS'lastScale'
p38
F9.5
sS'energy'
p39
F0.89999999999999991
sb.(i__main__
Data_mobile
p1
(dp2
S'vel_y'
p3
F-0.24878693684864914
sS'vel_x'
p4
F0.43371080232508191
sS'pos_x'
p5
F-37.811980327814567
sS'pos_y'
p6
F-6.6843796105095121
sS'isAlive'
p7
I01
sS'geno'
p8
(lp9
(lp10
(lp11
(lp12
S'INTEGER.<'
p13
a(lp14
(lp15
S'FLOAT.DEFINE'
p16
a(lp17
S'CODE.CAR'
p18
aS'FLOAT.STACKDEPTH'
p19
aS'CODE.ATOM'
p20
a(lp21
S'-2'
p22
aS'randV'
p23
aaS'INTEGER.YANKDUP'
p24
aaaS'CODE.FROMFLOAT'
p25
a(lp26
(lp27
(lp28
S'currentVelocity'
p29
aaS'FLOAT.MAX'
p30
aaS'INTEGER.<'
p31
aaa(lp32
S'FLOAT.YANK'
p33
aS'FLOAT.STACKDEPTH'
p34
aa(lp35
S'target'
p36
aaa(lp37
(lp38
(lp39
S'CODE.FROMINTEGER'
p40
a(lp41
S'CODE.STACKDEPTH'
p42
aaaaS'INTEGER.FLUSH'
p43
aS'CODE.FROMFLOAT'
p44
aaa(lp45
S'CODE.FROMINTEGER'
p46
a(lp47
S'INTEGER.MAX'
p48
a(lp49
S'POINT.*'
p50
aS'CODE.LIST'
p51
aaS'CODE.FROMNAME'
p52
aaS'INTEGER.MIN'
p53
aaS'CODE.EXTRACT'
p54
aS'POINT.RAND'
p55
aaS'target'
p56
a(lp57
S'POINT.LENGTH'
p58
a(lp59
S'CODE.ROT'
p60
aaS'INTEGER.SHOVE'
p61
aasS'accel_x'
p62
F0
sS'accel_y'
p63
F0
sS'maxAccel'
p64
I2
sS'maxVel'
p65
F0.5
sS'age'
p66
I200
sS'radius'
p67
I5
sS'gener'
p68
S'm'
sS'lastScale'
p69
F12.500000000000002
sS'energy'
p70
F1.2000000000000002
sb.(i__main__
Data_mobile
p1
(dp2
S'vel_y'
p3
F-0.48740834746106254
sS'vel_x'
p4
F0.11150382426300956
sS'pos_x'
p5
F158.71774831129059
sS'pos_y'
p6
F50.07940065808959
sS'isAlive'
p7
I01
sS'geno'
p8
(lp9
S'INTEGER.SHOVE'
p10
aS'target'
p11
aS'CODE.DO*'
p12
asS'accel_x'
p13
F0.44601529705744158
sS'accel_y'
p14
F-1.9496333898430143
sS'maxAccel'
p15
I2
sS'maxVel'
p16
F0.5
sS'age'
p17
I250
sS'radius'
p18
I5
sS'gener'
p19
S'm'
sS'lastScale'
p20
F9.5
sS'energy'
p21
F0.89999999999999991
sb.(i__main__
Data_mobile
p1
(dp2
S'vel_y'
p3
F0.4502701497109402
sS'vel_x'
p4
F-0.048353796582508594
sS'pos_x'
p5
F-32.636732353197175
sS'pos_y'
p6
F41.187128070789932
sS'isAlive'
p7
I01
sS'geno'
p8
(lp9
(lp10
(lp11
S'CODE.DO*COUNT'
p12
a(lp13
S'CODE.FROMNAME'
p14
a(lp15
S'INTEGER.<'
p16
aa(lp17
S'FLOAT.FLUSH'
p18
aS'CODE.FROMNAME'
p19
aS'CODE.LENGTH'
p20
aS'FLOAT.DEFINE'
p21
aaaaS'CODE.STACKDEPTH'
p22
aS'CODE.EXTRACT'
p23
aS'INTEGER.STACKDEPTH'
p24
aaS'target'
p25
a(lp26
S'POINT.LENGTH'
p27
aS'-0.0074371045938313720'
p28
a(lp29
S'CODE.FROMINTEGER'
p30
aS'FLOAT.YANKDUP'
p31
aS'INTEGER.%'
p32
aaasS'accel_x'
p33
F0
sS'accel_y'
p34
F0
sS'maxAccel'
p35
I2
sS'maxVel'
p36
F0.5
sS'age'
p37
I0
sS'radius'
p38
I5
sS'gener'
p39
S'm'
sS'lastScale'
p40
F5.4999999999999956
sS'energy'
p41
F1
sb.(i__main__
Data_mobile
p1
(dp2
S'vel_y'
p3
F-0.49525394257425898
sS'vel_x'
p4
F0.068727959118924528
sS'pos_x'
p5
F-25.021695877143802
sS'pos_y'
p6
F44.443207676228596
sS'isAlive'
p7
I01
sS'geno'
p8
(lp9
(lp10
(lp11
S'CODE.DO*COUNT'
p12
a(lp13
S'0.43005170240766644:0.53775008663948398:-0.86505735150190477'
p14
aS'-0.0074371045938313720'
p15
a(lp16
S'CODE.POSITION'
p17
aS'CODE.FROMNAME'
p18
aS'FLOAT./'
p19
aS'-2'
p20
aaaaS'CODE.STACKDEPTH'
p21
aS'CODE.EXTRACT'
p22
aS'INTEGER.STACKDEPTH'
p23
aaS'target'
p24
a(lp25
S'POINT.LENGTH'
p26
aS'-0.0074371045938313720'
p27
a(lp28
S'CODE.FROMINTEGER'
p29
aS'FLOAT.YANKDUP'
p30
aS'INTEGER.%'
p31
aaasS'accel_x'
p32
F0.27491183647568018
sS'accel_y'
p33
F-1.9810157702970386
sS'maxAccel'
p34
I2
sS'maxVel'
p35
F0.5
sS'age'
p36
I50
sS'radius'
p37
I5
sS'gener'
p38
S'm'
sS'lastScale'
p39
F14.500000000000004
sS'energy'
p40
F1.4000000000000004
sb.(i__main__
Data_mobile
p1
(dp2
S'vel_y'
p3
F-0.24865904776365955
sS'vel_x'
p4
F0.43378413752149825
sS'pos_x'
p5
F-37.765570525131338
sS'pos_y'
p6
F-6.7078213103593702
sS'isAlive'
p7
I01
sS'geno'
p8
(lp9
(lp10
(lp11
S'INTEGER.MIN'
p12
a(lp13
(lp14
(lp15
S'INTEGER.RAND'
p16
a(lp17
S'POINT.*'
p18
aaaaS'INTEGER.FLUSH'
p19
aS'CODE.FROMFLOAT'
p20
aaa(lp21
S'target'
p22
a(lp23
S'INTEGER.MAX'
p24
a(lp25
S'CODE.SWAP'
p26
aS'CODE.STACKDEPTH'
p27
aaS'FLOAT.FLUSH'
p28
aaS'INTEGER.MIN'
p29
aaS'CODE.EXTRACT'
p30
aS'CODE.FROMBOOLEAN'
p31
aaS'target'
p32
a(lp33
S'POINT.LENGTH'
p34
a(lp35
S'INTEGER.<'
p36
aaS'POINT.LENGTH'
p37
aasS'accel_x'
p38
F0
sS'accel_y'
p39
F0
sS'maxAccel'
p40
I2
sS'maxVel'
p41
F0.5
sS'age'
p42
I350
sS'radius'
p43
I5
sS'gener'
p44
S'm'
sS'lastScale'
p45
F12.500000000000002
sS'energy'
p46
F1.2000000000000002
sb.(i__main__
Data_mobile
p1
(dp2
S'vel_y'
p3
F-0.49463718578136839
sS'vel_x'
p4
F0.073034611262661253
sS'pos_x'
p5
F-25.05004519689777
sS'pos_y'
p6
F44.600211892155585
sS'isAlive'
p7
I01
sS'geno'
p8
(lp9
(lp10
(lp11
S'POINT.LENGTH'
p12
a(lp13
S'INTEGER.<'
p14
aa(lp15
S'FLOAT.FLUSH'
p16
aS'CODE.FROMNAME'
p17
aS'CODE.LENGTH'
p18
aS'INTEGER.YANK'
p19
aaa(lp20
S'CODE.FROMINTEGER'
p21
a(lp22
S'POINT.-'
p23
aS'-0.44273096682567403'
p24
aaS'INTEGER.FROMBOOL'
p25
aaS'INTEGER.<'
p26
a(lp27
(lp28
(lp29
S'FLOAT.DEFINE'
p30
a(lp31
S'CODE.CAR'
p32
aS'FLOAT.STACKDEPTH'
p33
aS'CODE.ATOM'
p34
a(lp35
S'-2'
p36
aS'randV'
p37
aaS'INTEGER.YANKDUP'
p38
aaa(lp39
S'CODE.ROT'
p40
aa(lp41
(lp42
(lp43
S'currentVelocity'
p44
aaS'FLOAT.MAX'
p45
aaS'INTEGER.<'
p46
aaaaaS'target'
p47
a(lp48
S'POINT.LENGTH'
p49
a(lp50
S'INTEGER.<'
p51
aa(lp52
S'INTEGER.DEFINE'
p53
aS'CODE.FROMNAME'
p54
a(lp55
S'CODE.QUOTE'
p56
a(lp57
S'FLOAT.+'
p58
a(lp59
S'FLOAT.DUP'
p60
aS'CODE.INSERT'
p61
aaS'CODE.ROT'
p62
a(lp63
S'FLOAT.DUP'
p64
aS'POINT.LENGTH'
p65
aa(lp66
(lp67
S'CODE.FROMINTEGER'
p68
a(lp69
(lp70
S'CODE.QUOTE'
p71
a(lp72
S'CODE.DEFINITION'
p73
a(lp74
S'CODE.DUP'
p75
a(lp76
(lp77
S'CODE.NOOP'
p78
a(lp79
S'FLOAT.POP'
p80
aa(lp81
S'CODE.SWAP'
p82
aS'CODE.CONS'
p83
a(lp84
S'CODE.DO*'
p85
aaS'INTEGER.-'
p86
aaS'CODE.YANK'
p87
aa(lp88
S'INTEGER.%'
p89
aS'flee'
p90
aa(lp91
S'CODE.QUOTE'
p92
a(lp93
(lp94
S'CODE.DO*COUNT'
p95
aa(lp96
(lp97
S'CODE.DO*RANGE'
p98
aaS'FLOAT.ROT'
p99
aaS'CODE.ROT'
p100
a(lp101
S'CODE.APPEND'
p102
a(lp103
S'CODE.='
p104
aa(lp105
(lp106
S'INTEGER.RAND'
p107
aaS'FLOAT.YANK'
p108
aS'FLOAT.FLUSH'
p109
aS'INTEGER.SWAP'
p110
aaS'CODE.DO*RANGE'
p111
a(lp112
(lp113
(lp114
S'INTEGER.SHOVE'
p115
aaS'INTEGER.SHOVE'
p116
aaS'INTEGER.='
p117
a(lp118
(lp119
S'CODE.STACKDEPTH'
p120
aaS'FLOAT.%'
p121
aaaS'CODE.DO*'
p122
a(lp123
(lp124
S'CODE.ROT'
p125
aS'randV'
p126
aaS'CODE.FROMNAME'
p127
aaaaa(lp128
S'CODE.NTH'
p129
aS'FLOAT.MAX'
p130
aa(lp131
S'FLOAT.TAN'
p132
aaa(lp133
S'INTEGER.FLUSH'
p134
aS'INTEGER.FROMFLOAT'
p135
aS'CODE.FROMINTEGER'
p136
a(lp137
S'INTEGER.<'
p138
a(lp139
S'CODE.QUOTE'
p140
aaS'INTEGER.DEFINE'
p141
aaa(lp142
(lp143
(lp144
(lp145
S'centerOfWorld'
p146
aS'INTEGER.<'
p147
aa(lp148
S'CODE.LENGTH'
p149
aS'FLOAT.MAX'
p150
a(lp151
S'currentVelocity'
p152
aS'FLOAT.FROMINTEGER'
p153
aa(lp154
S'CODE.POSITION'
p155
aS'FLOAT.*'
p156
aa(lp157
S'centerOfWorld'
p158
a(lp159
(lp160
S'CODE.DO*RANGE'
p161
aaS'FLOAT.FROMBOOLEAN'
p162
aS'CODE.CDR'
p163
aa(lp164
S'INTEGER.SWAP'
p165
aaaaS'INTEGER.SWAP'
p166
aS'CODE.EXTRACT'
p167
aa(lp168
S'CODE.INSERT'
p169
aS'FLOAT.+'
p170
a(lp171
(lp172
S'INTEGER.FROMBOOL'
p173
aaS'FLOAT.+'
p174
aaa(lp175
S'CODE.CAR'
p176
aaS'CODE.POP'
p177
aS'INTEGER.ROT'
p178
a(lp179
S'CODE.STACKDEPTH'
p180
aa(lp181
S'INTEGER.%'
p182
aS'FLOAT.%'
p183
aS'CODE.CDR'
p184
aaa(lp185
S'CODE.FROMFLOAT'
p186
aS'POINT.LENGTH'
p187
aS'POINT.LENGTH'
p188
aaS'CODE.LENGTH'
p189
aS'FLOAT.DUP'
p190
aaS'INTEGER.MAX'
p191
a(lp192
S'FLOAT.TAN'
p193
aS'FLOAT.SIN'
p194
aaS'INTEGER.>'
p195
a(lp196
S'CODE.CONTAINER'
p197
aS'CODE.DO*RANGE'
p198
aS'target'
p199
aaS'CODE.NOOP'
p200
aaS'INTEGER.-'
p201
aaaaS'CODE.CONS'
p202
aaS'CODE.FROMINTEGER'
p203
aS'FLOAT.MIN'
p204
aS'CODE.ATOM'
p205
aS'FLOAT.FLUSH'
p206
aS'FLOAT.POP'
p207
aaaaS'FLOAT.YANK'
p208
aaasS'accel_x'
p209
F0.29213844505064668
sS'accel_y'
p210
F-1.9785487431254736
sS'maxAccel'
p211
I2
sS'maxVel'
p212
F0.5
sS'age'
p213
I50
sS'radius'
p214
I5
sS'gener'
p215
S'm'
sS'lastScale'
p216
F14.500000000000004
sS'energy'
p217
F1.4000000000000004
sb.(i__main__
Data_mobile
p1
(dp2
S'vel_y'
p3
F0.13651337196208091
sS'vel_x'
p4
F-0.48100322168935883
sS'pos_x'
p5
F38.552760275767866
sS'pos_y'
p6
F4.3665396232158518
sS'isAlive'
p7
I01
sS'geno'
p8
(lp9
(lp10
(lp11
S'CODE.DO*COUNT'
p12
a(lp13
S'POINT.LENGTH'
p14
a(lp15
S'CODE.ROT'
p16
aa(lp17
S'FLOAT.FLUSH'
p18
aS'CODE.FROMNAME'
p19
aS'CODE.LENGTH'
p20
aS'INTEGER.YANK'
p21
aaaaS'CODE.STACKDEPTH'
p22
aS'CODE.EXTRACT'
p23
aS'INTEGER.STACKDEPTH'
p24
aaS'target'
p25
a(lp26
S'INTEGER.-'
p27
aS'FLOAT.MAX'
p28
a(lp29
S'CODE.FROMINTEGER'
p30
aS'target'
p31
aS'target'
p32
aaasS'accel_x'
p33
F-1.9237325456736012
sS'accel_y'
p34
F0.54704030264338444
sS'maxAccel'
p35
I2
sS'maxVel'
p36
F0.5
sS'age'
p37
I250
sS'radius'
p38
I5
sS'gener'
p39
S'm'
sS'lastScale'
p40
F9.5
sS'energy'
p41
F0.89999999999999991
sb.(i__main__
Data_mobile
p1
(dp2
S'vel_y'
p3
F-0.49971186013902164
sS'vel_x'
p4
F0.016972237224328765
sS'pos_x'
p5
F-24.956137161664824
sS'pos_y'
p6
F44.30867367048176
sS'isAlive'
p7
I01
sS'geno'
p8
(lp9
(lp10
(lp11
S'INTEGER.MIN'
p12
a(lp13
(lp14
(lp15
S'POINT.LENGTH'
p16
a(lp17
S'POINT.*'
p18
aaaaS'INTEGER.FLUSH'
p19
aS'CODE.FROMFLOAT'
p20
aaa(lp21
S'CODE.FROMINTEGER'
p22
a(lp23
S'INTEGER.MAX'
p24
a(lp25
S'POINT.*'
p26
aS'CODE.LIST'
p27
aaS'CODE.FROMNAME'
p28
aaS'INTEGER.MIN'
p29
aaS'CODE.EXTRACT'
p30
aS'INTEGER.MIN'
p31
aaS'target'
p32
a(lp33
S'POINT.LENGTH'
p34
a(lp35
S'CODE.ROT'
p36
aaS'INTEGER.SHOVE'
p37
aasS'accel_x'
p38
F0.067888948897335932
sS'accel_y'
p39
F-1.9988474405560859
sS'maxAccel'
p40
I2
sS'maxVel'
p41
F0.5
sS'age'
p42
I350
sS'radius'
p43
I5
sS'gener'
p44
S'm'
sS'lastScale'
p45
F14.500000000000004
sS'energy'
p46
F1.4000000000000004
sb.(i__main__
Data_mobile
p1
(dp2
S'vel_y'
p3
F-0.016577343722033368
sS'vel_x'
p4
F-0.4997251161139708
sS'pos_x'
p5
F-158.37526241143141
sS'pos_y'
p6
F-21.063864835535373
sS'isAlive'
p7
I01
sS'geno'
p8
(lp9
(lp10
(lp11
S'CODE.DO*COUNT'
p12
a(lp13
(lp14
(lp15
S'POINT.+'
p16
aS'CODE.MEMBER'
p17
aaS'FLOAT.SHOVE'
p18
a(lp19
S'CODE.SWAP'
p20
aS'separation'
p21
aaS'FLOAT.FLUSH'
p22
aaS'FLOAT.COS'
p23
a(lp24
S'0.44003389064223364'
p25
aS'CODE.ROT'
p26
aS'INTEGER.*'
p27
aaS'CODE.DO*TIMES'
p28
aS'centerOfWorld'
p29
aaaS'FLOAT.MIN'
p30
aS'CODE.EXTRACT'
p31
aS'INTEGER.STACKDEPTH'
p32
aaS'target'
p33
a(lp34
S'POINT.LENGTH'
p35
a(lp36
S'CODE.SHOVE'
p37
aa(lp38
S'CODE.FROMINTEGER'
p39
aS'FLOAT.YANKDUP'
p40
aS'INTEGER.%'
p41
aaasS'accel_x'
p42
F-1.9989004644558819
sS'accel_y'
p43
F-0.066309374888173137
sS'maxAccel'
p44
I2
sS'maxVel'
p45
F0.5
sS'age'
p46
I50
sS'radius'
p47
I5
sS'gener'
p48
S'm'
sS'lastScale'
p49
F14.500000000000004
sS'energy'
p50
F1.4000000000000004
sb.(i__main__
Data_mobile
p1
(dp2
S'vel_y'
p3
F0.21449331079266903
sS'vel_x'
p4
F-0.012071725387936796
sS'pos_x'
p5
F-25.039881270848209
sS'pos_y'
p6
F44.894494490364202
sS'isAlive'
p7
I01
sS'geno'
p8
(lp9
(lp10
(lp11
S'POINT.LENGTH'
p12
a(lp13
S'INTEGER.<'
p14
aa(lp15
S'FLOAT.FLUSH'
p16
aS'CODE.FROMNAME'
p17
aS'CODE.LENGTH'
p18
aS'INTEGER.YANK'
p19
aaa(lp20
S'CODE.FROMINTEGER'
p21
a(lp22
S'POINT.-'
p23
aS'-0.44273096682567403'
p24
aaS'INTEGER.FROMBOOL'
p25
aaS'INTEGER.<'
p26
a(lp27
(lp28
(lp29
S'FLOAT.DEFINE'
p30
a(lp31
S'CODE.CAR'
p32
aS'FLOAT.STACKDEPTH'
p33
aS'CODE.ATOM'
p34
a(lp35
S'-2'
p36
aS'randV'
p37
aaS'INTEGER.YANKDUP'
p38
aaa(lp39
S'CODE.ROT'
p40
aa(lp41
(lp42
(lp43
S'currentVelocity'
p44
aaS'FLOAT.MAX'
p45
aaS'INTEGER.<'
p46
aaaaaS'target'
p47
a(lp48
S'POINT.LENGTH'
p49
a(lp50
S'INTEGER.<'
p51
aa(lp52
S'INTEGER.DEFINE'
p53
aS'CODE.FROMNAME'
p54
a(lp55
S'CODE.QUOTE'
p56
a(lp57
S'FLOAT.+'
p58
a(lp59
S'FLOAT.DUP'
p60
aS'CODE.INSERT'
p61
aaS'CODE.ROT'
p62
a(lp63
S'FLOAT.DUP'
p64
aS'POINT.LENGTH'
p65
aa(lp66
(lp67
S'CODE.FROMINTEGER'
p68
a(lp69
(lp70
S'CODE.QUOTE'
p71
a(lp72
S'CODE.DEFINITION'
p73
a(lp74
S'CODE.DUP'
p75
a(lp76
(lp77
S'CODE.NOOP'
p78
a(lp79
S'FLOAT.POP'
p80
aa(lp81
S'CODE.SWAP'
p82
aS'CODE.CONS'
p83
a(lp84
S'CODE.DO*'
p85
aaS'INTEGER.-'
p86
aaS'CODE.YANK'
p87
aa(lp88
S'INTEGER.%'
p89
aS'flee'
p90
aa(lp91
S'CODE.QUOTE'
p92
a(lp93
(lp94
S'CODE.DO*COUNT'
p95
aa(lp96
(lp97
S'CODE.DO*RANGE'
p98
aaS'FLOAT.ROT'
p99
aaS'CODE.ROT'
p100
a(lp101
S'CODE.APPEND'
p102
a(lp103
S'CODE.='
p104
aa(lp105
(lp106
S'INTEGER.RAND'
p107
aaS'FLOAT.YANK'
p108
aS'FLOAT.FLUSH'
p109
aS'INTEGER.SWAP'
p110
aaS'CODE.DO*RANGE'
p111
a(lp112
(lp113
(lp114
S'INTEGER.SHOVE'
p115
aaS'INTEGER.SHOVE'
p116
aaS'INTEGER.='
p117
a(lp118
(lp119
S'CODE.STACKDEPTH'
p120
aaS'FLOAT.%'
p121
aaaS'CODE.DO*'
p122
a(lp123
(lp124
S'CODE.ROT'
p125
aS'randV'
p126
aaS'CODE.FROMNAME'
p127
aaaaa(lp128
S'CODE.NTH'
p129
aS'FLOAT.MAX'
p130
aa(lp131
S'FLOAT.TAN'
p132
aaa(lp133
S'INTEGER.FLUSH'
p134
aS'INTEGER.FROMFLOAT'
p135
aS'CODE.FROMINTEGER'
p136
a(lp137
S'INTEGER.<'
p138
a(lp139
S'CODE.QUOTE'
p140
aaS'INTEGER.DEFINE'
p141
aaa(lp142
(lp143
(lp144
(lp145
S'centerOfWorld'
p146
aS'INTEGER.<'
p147
aa(lp148
S'CODE.LENGTH'
p149
aS'FLOAT.MAX'
p150
a(lp151
S'currentVelocity'
p152
aS'FLOAT.FROMINTEGER'
p153
aa(lp154
S'CODE.POSITION'
p155
aS'FLOAT.*'
p156
aa(lp157
S'centerOfWorld'
p158
a(lp159
(lp160
S'CODE.DO*RANGE'
p161
aaS'FLOAT.FROMBOOLEAN'
p162
aS'CODE.CDR'
p163
aa(lp164
S'INTEGER.SWAP'
p165
aaaaS'INTEGER.SWAP'
p166
aS'CODE.EXTRACT'
p167
aa(lp168
S'CODE.INSERT'
p169
aS'FLOAT.+'
p170
a(lp171
(lp172
S'INTEGER.FROMBOOL'
p173
aaS'FLOAT.+'
p174
aaa(lp175
S'CODE.CAR'
p176
aaS'CODE.POP'
p177
aS'INTEGER.ROT'
p178
a(lp179
S'CODE.STACKDEPTH'
p180
aa(lp181
S'INTEGER.%'
p182
aS'FLOAT.%'
p183
aS'CODE.CDR'
p184
aaa(lp185
S'CODE.FROMFLOAT'
p186
aS'POINT.LENGTH'
p187
aS'POINT.LENGTH'
p188
aaS'CODE.LENGTH'
p189
aS'FLOAT.DUP'
p190
aaS'INTEGER.MAX'
p191
a(lp192
S'FLOAT.TAN'
p193
aS'FLOAT.SIN'
p194
aaS'INTEGER.>'
p195
a(lp196
S'CODE.CONTAINER'
p197
aS'CODE.DO*RANGE'
p198
aS'target'
p199
aaS'CODE.NOOP'
p200
aaS'INTEGER.-'
p201
aaaaS'CODE.CONS'
p202
aaS'CODE.FROMINTEGER'
p203
aS'FLOAT.MIN'
p204
aS'CODE.ATOM'
p205
aS'FLOAT.FLUSH'
p206
aS'FLOAT.POP'
p207
aaaaS'FLOAT.YANK'
p208
aaasS'accel_x'
p209
F0
sS'accel_y'
p210
F0
sS'maxAccel'
p211
I2
sS'maxVel'
p212
F0.5
sS'age'
p213
I0
sS'radius'
p214
I5
sS'gener'
p215
S'm'
sS'lastScale'
p216
F5.3999999999999959
sS'energy'
p217
F1
sb.(i__main__
Data_mobile
p1
(dp2
S'vel_y'
p3
F-0.24870100265575393
sS'vel_x'
p4
F0.43376008492947193
sS'pos_x'
p5
F-37.749209565987783
sS'pos_y'
p6
F-6.7182451106385468
sS'isAlive'
p7
I01
sS'geno'
p8
(lp9
(lp10
(lp11
S'CODE.DO*COUNT'
p12
a(lp13
(lp14
S'FLOAT.>'
p15
aaS'INTEGER.FLUSH'
p16
a(lp17
S'POINT.-'
p18
aS'CODE.DO*RANGE'
p19
aaaaS'FLOAT.COS'
p20
aS'CODE.EXTRACT'
p21
aS'INTEGER.STACKDEPTH'
p22
aaS'target'
p23
a(lp24
S'POINT.LENGTH'
p25
aS'-0.0074371045938313720'
p26
a(lp27
S'CODE.POSITION'
p28
aS'CODE.FROMNAME'
p29
aS'INTEGER.FROMBOOL'
p30
aS'-2'
p31
aaasS'accel_x'
p32
F0
sS'accel_y'
p33
F0
sS'maxAccel'
p34
I2
sS'maxVel'
p35
F0.5
sS'age'
p36
I350
sS'radius'
p37
I5
sS'gener'
p38
S'm'
sS'lastScale'
p39
F12.000000000000002
sS'energy'
p40
F1.1500000000000001
sb.(i__main__
Data_mobile
p1
(dp2
S'vel_y'
p3
F-0.40664937580683019
sS'vel_x'
p4
F-0.29092316022605591
sS'pos_x'
p5
F12.057424596764839
sS'pos_y'
p6
F11.679944426126282
sS'isAlive'
p7
I01
sS'geno'
p8
(lp9
(lp10
(lp11
S'FLOAT.DEFINE'
p12
a(lp13
S'CODE.CAR'
p14
a(lp15
S'FLOAT.='
p16
aaS'CODE.ATOM'
p17
a(lp18
S'-2'
p19
aS'randV'
p20
aaS'INTEGER.YANKDUP'
p21
aaaS'POINT.LENGTH'
p22
aS'INTEGER.<'
p23
a(lp24
S'target'
p25
aS'INTEGER.='
p26
a(lp27
S'FLOAT.TAN'
p28
aS'CODE.NULL'
p29
aS'CODE.LIST'
p30
aaaaS'target'
p31
a(lp32
S'POINT.LENGTH'
p33
a(lp34
S'INTEGER.<'
p35
aa(lp36
S'INTEGER.DEFINE'
p37
aS'CODE.FROMNAME'
p38
aS'FLOAT.>'
p39
aS'FLOAT.YANK'
p40
aaasS'accel_x'
p41
F1.163692648936026
sS'accel_y'
p42
F1.6265974974812469
sS'maxAccel'
p43
I2
sS'maxVel'
p44
F0.5
sS'age'
p45
I50
sS'radius'
p46
I5
sS'gener'
p47
S'm'
sS'lastScale'
p48
F14.500000000000004
sS'energy'
p49
F1.4000000000000004
sb.(i__main__
Data_mobile
p1
(dp2
S'vel_y'
p3
F0.19998564666527685
sS'vel_x'
p4
F0.16894471084040394
sS'pos_x'
p5
F-20.939236141889324
sS'pos_y'
p6
F41.138666925543596
sS'isAlive'
p7
I01
sS'geno'
p8
(lp9
(lp10
(lp11
S'FLOAT.DEFINE'
p12
a(lp13
S'CODE.CAR'
p14
a(lp15
(lp16
S'INTEGER.<'
p17
aaaS'CODE.ATOM'
p18
a(lp19
S'INTEGER.YANKDUP'
p20
aS'randV'
p21
aa(lp22
(lp23
S'INTEGER./'
p24
a(lp25
S'POINT.LENGTH'
p26
a(lp27
S'INTEGER.<'
p28
aa(lp29
S'FLOAT.FLUSH'
p30
aS'CODE.FROMNAME'
p31
aS'CODE.LENGTH'
p32
aS'INTEGER.YANK'
p33
aaaaS'-0.0074371045938313720'
p34
a(lp35
S'CODE.POSITION'
p36
aS'CODE.FROMNAME'
p37
aS'FLOAT./'
p38
aS'CODE.INSERT'
p39
aaaaa(lp40
S'CODE.FROMINTEGER'
p41
a(lp42
S'FLOAT.ROT'
p43
aS'CODE.DO*'
p44
a(lp45
S'FLOAT.>'
p46
aS'CODE.ATOM'
p47
aaaS'target'
p48
aa(lp49
S'CODE.STACKDEPTH'
p50
aa(lp51
(lp52
(lp53
(lp54
S'INTEGER.FLUSH'
p55
aa(lp56
S'POINT.LENGTH'
p57
aS'CODE.SIZE'
p58
aaaaaaS'target'
p59
a(lp60
S'FLOAT.DUP'
p61
a(lp62
S'INTEGER.<'
p63
aa(lp64
S'INTEGER.DEFINE'
p65
aS'CODE.FROMNAME'
p66
aS'CODE.LENGTH'
p67
a(lp68
S'POINT.LENGTH'
p69
aS'CODE.FLUSH'
p70
a(lp71
S'INTEGER.SHOVE'
p72
aS'CODE.FROMNAME'
p73
aS'CODE.SHOVE'
p74
aS'-0.0074371045938313720'
p75
aaaaasS'accel_x'
p76
F0
sS'accel_y'
p77
F0
sS'maxAccel'
p78
I2
sS'maxVel'
p79
F0.5
sS'age'
p80
I0
sS'radius'
p81
I5
sS'gener'
p82
S'm'
sS'lastScale'
p83
F5.4999999999999956
sS'energy'
p84
F1
sb.(i__main__
Data_mobile
p1
(dp2
S'vel_y'
p3
F-0.49230849053145337
sS'vel_x'
p4
F0.08736332268544901
sS'pos_x'
p5
F159.10883018145378
sS'pos_y'
p6
F50.4067803765208
sS'isAlive'
p7
I01
sS'geno'
p8
(lp9
(lp10
(lp11
S'CODE.DO*COUNT'
p12
a(lp13
S'POINT.LENGTH'
p14
a(lp15
S'INTEGER.<'
p16
aa(lp17
S'FLOAT.FLUSH'
p18
aS'CODE.FROMNAME'
p19
aS'CODE.LENGTH'
p20
aS'INTEGER.YANK'
p21
aaaaS'CODE.STACKDEPTH'
p22
aS'CODE.EXTRACT'
p23
aS'INTEGER.STACKDEPTH'
p24
aaS'target'
p25
a(lp26
S'POINT.LENGTH'
p27
aS'-0.0074371045938313720'
p28
a(lp29
S'CODE.FROMINTEGER'
p30
aS'CODE.NOOP'
p31
aS'INTEGER.DEFINE'
p32
aaasS'accel_x'
p33
F0.34945329074266096
sS'accel_y'
p34
F-1.9692339621256598
sS'maxAccel'
p35
I2
sS'maxVel'
p36
F0.5
sS'age'
p37
I200
sS'radius'
p38
I5
sS'gener'
p39
S'm'
sS'lastScale'
p40
F12.500000000000002
sS'energy'
p41
F1.2000000000000002
sb.(i__main__
Data_mobile
p1
(dp2
S'vel_y'
p3
F0.22251155588346158
sS'vel_x'
p4
F0.44775954205166985
sS'pos_x'
p5
F3.1345388920007076
sS'pos_y'
p6
F56.610259162931321
sS'isAlive'
p7
I01
sS'geno'
p8
(lp9
(lp10
(lp11
S'CODE.DO*COUNT'
p12
a(lp13
(lp14
S'CODE.SHOVE'
p15
aaS'INTEGER.FLUSH'
p16
a(lp17
S'POINT.-'
p18
aS'CODE.DO*RANGE'
p19
aaaaS'currentVelocity'
p20
aS'CODE.EXTRACT'
p21
aS'INTEGER.STACKDEPTH'
p22
aaS'target'
p23
a(lp24
S'CODE.INSTRUCTIONS'
p25
aS'POINT.LENGTH'
p26
aasS'accel_x'
p27
F1.791038168206684
sS'accel_y'
p28
F0.89004622353383744
sS'maxAccel'
p29
I2
sS'maxVel'
p30
F0.5
sS'age'
p31
I100
sS'radius'
p32
I5
sS'gener'
p33
S'm'
sS'lastScale'
p34
F14.500000000000004
sS'energy'
p35
F1.4000000000000004
sb.(i__main__
Data_mobile
p1
(dp2
S'vel_y'
p3
F0.1180239231368122
sS'vel_x'
p4
F-0.48587071692724587
sS'pos_x'
p5
F-206.5411731341909
sS'pos_y'
p6
F-61.884953503251126
sS'isAlive'
p7
I01
sS'geno'
p8
(lp9
(lp10
(lp11
S'CODE.DO*COUNT'
p12
a(lp13
S'POINT.LENGTH'
p14
a(lp15
S'INTEGER.<'
p16
aa(lp17
S'FLOAT.FLUSH'
p18
aS'CODE.FROMNAME'
p19
aS'CODE.LENGTH'
p20
aS'INTEGER.YANK'
p21
aaaaS'CODE.STACKDEPTH'
p22
aS'CODE.EXTRACT'
p23
aS'INTEGER.STACKDEPTH'
p24
aaS'target'
p25
a(lp26
S'POINT.LENGTH'
p27
a(lp28
S'CODE.SHOVE'
p29
aa(lp30
S'CODE.FROMINTEGER'
p31
aS'FLOAT.YANKDUP'
p32
a(lp33
(lp34
S'CODE.SHOVE'
p35
aaS'INTEGER.FLUSH'
p36
a(lp37
S'POINT.-'
p38
a(lp39
S'CODE.DEFINE'
p40
aaaaaasS'accel_x'
p41
F-1.9332317255791156
sS'accel_y'
p42
F0.51245984741674699
sS'maxAccel'
p43
I2
sS'maxVel'
p44
F0.5
sS'age'
p45
I50
sS'radius'
p46
I5
sS'gener'
p47
S'm'
sS'lastScale'
p48
F7.4999999999999973
sS'energy'
p49
F0.69999999999999973
sb.(i__main__
Data_mobile
p1
(dp2
S'vel_y'
p3
F0.48829774193213965
sS'vel_x'
p4
F-0.10754215556689163
sS'pos_x'
p5
F186.25428490454013
sS'pos_y'
p6
F-78.180296717895885
sS'isAlive'
p7
I01
sS'geno'
p8
(lp9
(lp10
(lp11
S'FLOAT.DEFINE'
p12
a(lp13
S'CODE.CAR'
p14
a(lp15
(lp16
S'INTEGER.<'
p17
aaaS'CODE.ATOM'
p18
a(lp19
S'INTEGER.YANKDUP'
p20
a(lp21
S'FLOAT.FLUSH'
p22
aS'CODE.FROMNAME'
p23
aS'FLOAT.DEFINE'
p24
aS'CODE.NULL'
p25
aaaS'INTEGER.YANKDUP'
p26
aaa(lp27
S'INTEGER.<'
p28
a(lp29
S'FLOAT.ROT'
p30
aS'CODE.DO*'
p31
a(lp32
S'FLOAT.>'
p33
aS'CODE.ATOM'
p34
aaaS'INTEGER.-'
p35
aa(lp36
(lp37
(lp38
S'INTEGER.<'
p39
aa(lp40
S'INTEGER./'
p41
aS'FLOAT.FLUSH'
p42
aaaa(lp43
(lp44
(lp45
(lp46
S'INTEGER.<'
p47
aa(lp48
S'POINT.*'
p49
aS'FLOAT.FLUSH'
p50
aaaaaaS'target'
p51
a(lp52
S'FLOAT.DUP'
p53
a(lp54
S'INTEGER.<'
p55
aa(lp56
S'INTEGER.DEFINE'
p57
aS'CODE.FROMNAME'
p58
aS'CODE.LENGTH'
p59
a(lp60
S'POINT.LENGTH'
p61
aS'CODE.INSTRUCTIONS'
p62
a(lp63
S'INTEGER.SHOVE'
p64
aS'CODE.FROMNAME'
p65
aS'CODE.SHOVE'
p66
aS'FLOAT.MAX'
p67
aaaaasS'accel_x'
p68
F-0.4301686222674429
sS'accel_y'
p69
F1.9531909677285859
sS'maxAccel'
p70
I2
sS'maxVel'
p71
F0.5
sS'age'
p72
I200
sS'radius'
p73
I5
sS'gener'
p74
S'm'
sS'lastScale'
p75
F14.500000000000004
sS'energy'
p76
F1.4000000000000004
sb.(i__main__
Data_mobile
p1
(dp2
S'vel_y'
p3
F0.38347251270780103
sS'vel_x'
p4
F0.0071252150539513615
sS'pos_x'
p5
I-9999
sS'pos_y'
p6
I9999
sS'isAlive'
p7
I00
sS'geno'
p8
(lp9
S'INTEGER.SHOVE'
p10
aS'target'
p11
a(lp12
S'POINT.LENGTH'
p13
aS'CODE.CONS'
p14
a(lp15
S'INTEGER.DEFINE'
p16
aS'CODE.FROMNAME'
p17
a(lp18
S'flee'
p19
a(lp20
S'INTEGER.DEFINE'
p21
aS'CODE.FROMNAME'
p22
aS'FLOAT.DEFINE'
p23
aS'CODE.NULL'
p24
aaaS'FLOAT.YANK'
p25
aaasS'accel_x'
p26
F0
sS'accel_y'
p27
F0
sS'maxAccel'
p28
I2
sS'maxVel'
p29
F0.5
sS'age'
p30
I0
sS'radius'
p31
I5
sS'gener'
p32
S'm'
sS'lastScale'
p33
F5.4999999999999956
sS'energy'
p34
I1
sb.(i__main__
Data_mobile
p1
(dp2
S'vel_y'
p3
F0.16545686413875324
sS'vel_x'
p4
F0.47183050570026752
sS'pos_x'
p5
I-9999
sS'pos_y'
p6
I9999
sS'isAlive'
p7
I00
sS'geno'
p8
(lp9
S'INTEGER.SHOVE'
p10
aS'CODE.STACKDEPTH'
p11
a(lp12
S'INTEGER.SHOVE'
p13
aS'randV'
p14
a(lp15
S'FLOAT.ROT'
p16
aS'INTEGER.='
p17
a(lp18
S'CODE.SIZE'
p19
aS'CODE.FROMNAME'
p20
aS'CODE.FROMFLOAT'
p21
aS'CODE.SWAP'
p22
aaaasS'accel_x'
p23
F0.81457543387503484
sS'accel_y'
p24
F0.63130299881846341
sS'maxAccel'
p25
I2
sS'maxVel'
p26
F0.5
sS'age'
p27
I0
sS'radius'
p28
I5
sS'gener'
p29
S'm'
sS'lastScale'
p30
F5.4999999999999956
sS'energy'
p31
I1
sb.(i__main__
Data_mobile
p1
(dp2
S'vel_y'
p3
F-0.2342673593782727
sS'vel_x'
p4
F0.42425939034591953
sS'pos_x'
p5
I-9999
sS'pos_y'
p6
I9999
sS'isAlive'
p7
I00
sS'geno'
p8
(lp9
(lp10
(lp11
S'INTEGER.MIN'
p12
a(lp13
(lp14
(lp15
S'INTEGER.RAND'
p16
a(lp17
S'POINT.*'
p18
aaaaS'INTEGER.FLUSH'
p19
aS'CODE.FROMFLOAT'
p20
aaa(lp21
S'CODE.FROMINTEGER'
p22
a(lp23
S'INTEGER.MAX'
p24
a(lp25
S'FLOAT.ROT'
p26
aS'INTEGER.+'
p27
aaS'FLOAT.FLUSH'
p28
aaS'INTEGER.MIN'
p29
aaS'CODE.EXTRACT'
p30
aS'CODE.FROMBOOLEAN'
p31
aaS'INTEGER.YANKDUP'
p32
a(lp33
S'POINT.LENGTH'
p34
a(lp35
S'INTEGER.<'
p36
aaS'POINT.LENGTH'
p37
aasS'accel_x'
p38
F0
sS'accel_y'
p39
F0
sS'maxAccel'
p40
I2
sS'maxVel'
p41
F0.5
sS'age'
p42
I0
sS'radius'
p43
I5
sS'gener'
p44
S'm'
sS'lastScale'
p45
F5.4999999999999956
sS'energy'
p46
I1
sb.(i__main__
Data_mobile
p1
(dp2
S'vel_y'
p3
F-0.34037869602936999
sS'vel_x'
p4
F-0.30179462471600083
sS'pos_x'
p5
I-9999
sS'pos_y'
p6
I9999
sS'isAlive'
p7
I00
sS'geno'
p8
(lp9
S'CODE.LENGTH'
p10
aS'-0.0074371045938313720'
p11
a(lp12
S'5'
aS'CODE.FROMNAME'
p13
aS'INTEGER.FROMBOOL'
p14
aS'-2'
p15
aasS'accel_x'
p16
F0
sS'accel_y'
p17
F0
sS'maxAccel'
p18
I2
sS'maxVel'
p19
F0.5
sS'age'
p20
I0
sS'radius'
p21
I5
sS'gener'
p22
S'm'
sS'lastScale'
p23
F5.4999999999999956
sS'energy'
p24
I1
sb.(i__main__
Data_mobile
p1
(dp2
S'vel_y'
p3
F0.46439083282069415
sS'vel_x'
p4
F0.18531366488228035
sS'pos_x'
p5
I-9999
sS'pos_y'
p6
I9999
sS'isAlive'
p7
I00
sS'geno'
p8
(lp9
(lp10
(lp11
S'CODE.YANKDUP'
p12
a(lp13
(lp14
S'INTEGER.<'
p15
aaS'INTEGER.FLUSH'
p16
a(lp17
S'POINT.-'
p18
aS'CODE.SHOVE'
p19
aaaaS'CODE.STACKDEPTH'
p20
aS'CODE.EXTRACT'
p21
aS'INTEGER.STACKDEPTH'
p22
aaS'target'
p23
a(lp24
S'POINT.LENGTH'
p25
a(lp26
S'INTEGER.<'
p27
aa(lp28
S'FLOAT.FLUSH'
p29
aS'CODE.FROMNAME'
p30
aS'CODE.DO*'
p31
aS'INTEGER.YANK'
p32
aaasS'accel_x'
p33
F0.80152853047812178
sS'accel_y'
p34
F1.8323624136151619
sS'maxAccel'
p35
I2
sS'maxVel'
p36
F0.5
sS'age'
p37
I0
sS'radius'
p38
I5
sS'gener'
p39
S'm'
sS'lastScale'
p40
F5.4999999999999956
sS'energy'
p41
I1
sb.(i__main__
Data_mobile
p1
(dp2
S'vel_y'
p3
F0.20497977004020604
sS'vel_x'
p4
F0.45605185436994367
sS'pos_x'
p5
I-9999
sS'pos_y'
p6
I9999
sS'isAlive'
p7
I00
sS'geno'
p8
(lp9
(lp10
S'INTEGER.<'
p11
a(lp12
(lp13
S'FLOAT.DEFINE'
p14
a(lp15
S'CODE.CAR'
p16
aS'FLOAT.STACKDEPTH'
p17
aS'CODE.ATOM'
p18
a(lp19
S'-2'
p20
aS'randV'
p21
aaS'INTEGER.YANKDUP'
p22
aaaS'CODE.FROMFLOAT'
p23
a(lp24
(lp25
(lp26
S'currentVelocity'
p27
aaS'FLOAT.MAX'
p28
aaS'INTEGER.<'
p29
aaa(lp30
S'FLOAT.YANK'
p31
aS'FLOAT.STACKDEPTH'
p32
aa(lp33
S'target'
p34
aaaS'CODE.DO'
p35
a(lp36
S'POINT.LENGTH'
p37
a(lp38
S'CODE.CDR'
p39
aa(lp40
S'FLOAT.FLUSH'
p41
aS'CODE.FROMNAME'
p42
aS'CODE.DO*COUNT'
p43
aS'INTEGER.YANK'
p44
aaasS'accel_x'
p45
F1.8242074151806884
sS'accel_y'
p46
F0.81991908527597501
sS'maxAccel'
p47
I2
sS'maxVel'
p48
F0.5
sS'age'
p49
I0
sS'radius'
p50
I5
sS'gener'
p51
S'm'
sS'lastScale'
p52
F3.6999999999999962
sS'energy'
p53
I1
sb.(i__main__
Data_mobile
p1
(dp2
S'vel_y'
p3
F0.31392577647294445
sS'vel_x'
p4
F-0.20693577768772184
sS'pos_x'
p5
I-9999
sS'pos_y'
p6
I9999
sS'isAlive'
p7
I00
sS'geno'
p8
(lp9
sS'accel_x'
p10
F0
sS'accel_y'
p11
F0
sS'maxAccel'
p12
I2
sS'maxVel'
p13
F0.5
sS'age'
p14
I0
sS'radius'
p15
I5
sS'gener'
p16
S'm'
sS'lastScale'
p17
F5.4999999999999956
sS'energy'
p18
I1
sb.(i__main__
Data_mobile
p1
(dp2
S'vel_y'
p3
F-0.4118056688277103
sS'vel_x'
p4
F0.28357731066035968
sS'pos_x'
p5
I-9999
sS'pos_y'
p6
I9999
sS'isAlive'
p7
I00
sS'geno'
p8
(lp9
(lp10
(lp11
S'CODE.DO*COUNT'
p12
a(lp13
(lp14
S'CODE.QUOTE'
p15
a(lp16
(lp17
(lp18
S'CODE.ATOM'
p19
aS'FLOAT.STACKDEPTH'
p20
aS'CODE.STACKDEPTH'
p21
aS'INTEGER.FROMBOOL'
p22
aaS'CODE.DO'
p23
aaS'CODE.CAR'
p24
a(lp25
(lp26
S'FLOAT.FLUSH'
p27
aS'CODE.FROMNAME'
p28
aS'CODE.LENGTH'
p29
aS'INTEGER.YANK'
p30
aa(lp31
S'FLOAT.DUP'
p32
a(lp33
S'CODE.FLUSH'
p34
aS'POINT.POP'
p35
aaS'INTEGER.-'
p36
aa(lp37
S'INTEGER.POP'
p38
aS'FLOAT.='
p39
aS'INTEGER.+'
p40
aa(lp41
S'flee'
p42
aaaS'CODE.FROMNAME'
p43
a(lp44
S'CODE.RAND'
p45
aS'INTEGER.-'
p46
aaaaS'CODE.DO*COUNT'
p47
a(lp48
S'FLOAT.SIN'
p49
aS'INTEGER.>'
p50
aaaaS'currentVelocity'
p51
aS'CODE.EXTRACT'
p52
aS'INTEGER.STACKDEPTH'
p53
aaS'target'
p54
aS'CODE.FROMNAME'
p55
asS'accel_x'
p56
F1.134309242635277
sS'accel_y'
p57
F-1.6472226753150845
sS'maxAccel'
p58
I2
sS'maxVel'
p59
F0.5
sS'age'
p60
I0
sS'radius'
p61
I5
sS'gener'
p62
S'm'
sS'lastScale'
p63
F5.4999999999999956
sS'energy'
p64
I1
sb.(i__main__
Data_mobile
p1
(dp2
S'vel_y'
p3
F0.49866617380974793
sS'vel_x'
p4
F0.036497220413975198
sS'pos_x'
p5
I-9999
sS'pos_y'
p6
I9999
sS'isAlive'
p7
I00
sS'geno'
p8
(lp9
S'INTEGER.SHOVE'
p10
aS'target'
p11
a(lp12
S'INTEGER.SHOVE'
p13
aS'randV'
p14
a(lp15
S'target'
p16
aS'INTEGER.='
p17
a(lp18
S'CODE.SIZE'
p19
aS'CODE.SIZE'
p20
aS'CODE.FROMFLOAT'
p21
aS'INTEGER.<'
p22
aaaasS'accel_x'
p23
F0.14598888165591301
sS'accel_y'
p24
F1.9946646952389908
sS'maxAccel'
p25
I2
sS'maxVel'
p26
F0.5
sS'age'
p27
I0
sS'radius'
p28
I5
sS'gener'
p29
S'm'
sS'lastScale'
p30
F5.1999999999999957
sS'energy'
p31
I1
sb.(i__main__
Data_mobile
p1
(dp2
S'vel_y'
p3
F-0.49758900264850064
sS'vel_x'
p4
F-0.049042679813305547
sS'pos_x'
p5
I-9999
sS'pos_y'
p6
I9999
sS'isAlive'
p7
I00
sS'geno'
p8
(lp9
S'INTEGER.SHOVE'
p10
aS'target'
p11
a(lp12
S'INTEGER.<'
p13
aS'alignment'
p14
a(lp15
S'target'
p16
aS'INTEGER.='
p17
a(lp18
S'CODE.SIZE'
p19
aS'CODE.SIZE'
p20
aS'CODE.FROMFLOAT'
p21
aS'INTEGER.<'
p22
aaaasS'accel_x'
p23
F-0.19594139011531828
sS'accel_y'
p24
F-1.9903786000757937
sS'maxAccel'
p25
I2
sS'maxVel'
p26
F0.5
sS'age'
p27
I0
sS'radius'
p28
I5
sS'gener'
p29
S'm'
sS'lastScale'
p30
F5.4999999999999956
sS'energy'
p31
I1
sb.(i__main__
Data_mobile
p1
(dp2
S'vel_y'
p3
F-0.46238131822865874
sS'vel_x'
p4
F-0.19027221697643576
sS'pos_x'
p5
I-9999
sS'pos_y'
p6
I9999
sS'isAlive'
p7
I00
sS'geno'
p8
(lp9
(lp10
S'INTEGER.<'
p11
a(lp12
(lp13
S'INTEGER.>'
p14
aa(lp15
(lp16
(lp17
S'FLOAT.YANK'
p18
aaS'POINT.RAND'
p19
aS'CODE.CDR'
p20
aaS'FLOAT.YANKDUP'
p21
aS'cohension'
p22
a(lp23
S'INTEGER.YANKDUP'
p24
aS'CODE.ROT'
p25
a(lp26
S'INTEGER.%'
p27
aaaaS'FLOAT.%'
p28
a(lp29
S'INTEGER./'
p30
aS'INTEGER.%'
p31
aaa(lp32
S'FLOAT.YANK'
p33
aS'FLOAT.STACKDEPTH'
p34
aa(lp35
S'target'
p36
aaaS'CODE.DO'
p37
a(lp38
S'POINT.LENGTH'
p39
a(lp40
S'POINT.LENGTH'
p41
aa(lp42
S'FLOAT.FLUSH'
p43
aS'CODE.FROMNAME'
p44
aS'CODE.LENGTH'
p45
aS'INTEGER.YANK'
p46
aaasS'accel_x'
p47
F-0.19368648483681739
sS'accel_y'
p48
F-0.47067834497485705
sS'maxAccel'
p49
I2
sS'maxVel'
p50
F0.5
sS'age'
p51
I0
sS'radius'
p52
I5
sS'gener'
p53
S'm'
sS'lastScale'
p54
F5.1999999999999957
sS'energy'
p55
I1
sb.(i__main__
Data_mobile
p1
(dp2
S'vel_y'
p3
F0.23492872410968904
sS'vel_x'
p4
F0.44137115287271961
sS'pos_x'
p5
I-9999
sS'pos_y'
p6
I9999
sS'isAlive'
p7
I00
sS'geno'
p8
(lp9
(lp10
(lp11
S'FLOAT.DEFINE'
p12
a(lp13
S'CODE.CAR'
p14
a(lp15
(lp16
S'INTEGER.<'
p17
aaaS'CODE.ATOM'
p18
a(lp19
S'INTEGER.YANKDUP'
p20
aS'randV'
p21
aa(lp22
(lp23
S'INTEGER./'
p24
a(lp25
S'POINT.LENGTH'
p26
a(lp27
S'INTEGER.<'
p28
aa(lp29
S'FLOAT.FLUSH'
p30
aS'CODE.FROMNAME'
p31
aS'CODE.LENGTH'
p32
aS'INTEGER.YANK'
p33
aaaaS'-0.0074371045938313720'
p34
a(lp35
S'CODE.POSITION'
p36
aS'CODE.FROMNAME'
p37
aS'FLOAT./'
p38
aS'CODE.INSERT'
p39
aaaaa(lp40
S'CODE.FROMINTEGER'
p41
a(lp42
S'FLOAT.ROT'
p43
aS'CODE.DO*'
p44
a(lp45
S'FLOAT.>'
p46
aS'CODE.ATOM'
p47
aaaS'INTEGER.-'
p48
aa(lp49
(lp50
(lp51
S'INTEGER.<'
p52
aa(lp53
S'INTEGER./'
p54
aS'FLOAT.FLUSH'
p55
aaaa(lp56
(lp57
(lp58
S'POINT.*'
p59
a(lp60
S'POINT.LENGTH'
p61
aS'CODE.SIZE'
p62
aaaaaaS'INTEGER./'
p63
a(lp64
S'FLOAT.DUP'
p65
a(lp66
S'INTEGER.<'
p67
aa(lp68
S'INTEGER.DEFINE'
p69
aS'CODE.FROMNAME'
p70
aS'CODE.LENGTH'
p71
a(lp72
S'POINT.LENGTH'
p73
aS'CODE.INSTRUCTIONS'
p74
a(lp75
S'INTEGER.SHOVE'
p76
aS'CODE.FROMNAME'
p77
aS'CODE.SHOVE'
p78
aS'-0.0074371045938313720'
p79
aaaaasS'accel_x'
p80
F0.15213698821285093
sS'accel_y'
p81
F0.24560940137361054
sS'maxAccel'
p82
I2
sS'maxVel'
p83
F0.5
sS'age'
p84
I0
sS'radius'
p85
I5
sS'gener'
p86
S'm'
sS'lastScale'
p87
F5.4999999999999956
sS'energy'
p88
I1
sb.(i__main__
Data_mobile
p1
(dp2
S'vel_y'
p3
F-0.18747479588764307
sS'vel_x'
p4
F-0.463522600211561
sS'pos_x'
p5
I-9999
sS'pos_y'
p6
I9999
sS'isAlive'
p7
I00
sS'geno'
p8
(lp9
(lp10
S'INTEGER.<'
p11
a(lp12
(lp13
S'FLOAT.DEFINE'
p14
a(lp15
S'CODE.CAR'
p16
aS'FLOAT.STACKDEPTH'
p17
aS'CODE.ATOM'
p18
a(lp19
S'-2'
p20
aS'randV'
p21
aaS'INTEGER.YANKDUP'
p22
aaaS'CODE.FROMFLOAT'
p23
a(lp24
(lp25
(lp26
S'currentVelocity'
p27
aaS'FLOAT.MAX'
p28
aaS'INTEGER.<'
p29
aaa(lp30
S'FLOAT.YANK'
p31
aS'FLOAT.STACKDEPTH'
p32
aa(lp33
S'target'
p34
aaaS'CODE.DO'
p35
a(lp36
S'POINT.LENGTH'
p37
a(lp38
S'INTEGER.<'
p39
aa(lp40
S'FLOAT.FLUSH'
p41
aS'CODE.FROMNAME'
p42
aS'CODE.LENGTH'
p43
aS'INTEGER.YANK'
p44
aaasS'accel_x'
p45
F1.8540904008462598
sS'accel_y'
p46
F0.74989918355053331
sS'maxAccel'
p47
I2
sS'maxVel'
p48
F0.5
sS'age'
p49
I0
sS'radius'
p50
I5
sS'gener'
p51
S'm'
sS'lastScale'
p52
F3.2999999999999963
sS'energy'
p53
I1
sb.(i__main__
Data_mobile
p1
(dp2
S'vel_y'
p3
F-0.20904756197110616
sS'vel_x'
p4
F-0.45420162574999279
sS'pos_x'
p5
I-9999
sS'pos_y'
p6
I9999
sS'isAlive'
p7
I00
sS'geno'
p8
(lp9
(lp10
(lp11
S'INTEGER.MIN'
p12
a(lp13
(lp14
(lp15
S'CODE.FROMINTEGER'
p16
a(lp17
S'-2'
p18
aaaaS'INTEGER.FLUSH'
p19
aS'CODE.FROMFLOAT'
p20
aaa(lp21
S'CODE.FROMINTEGER'
p22
a(lp23
S'INTEGER.MAX'
p24
a(lp25
S'centerOfWorld'
p26
aS'CODE.LIST'
p27
aaS'INTEGER.MAX'
p28
aaS'INTEGER.MIN'
p29
aaS'CODE.EXTRACT'
p30
aS'POINT.RAND'
p31
aaS'target'
p32
a(lp33
S'POINT.LENGTH'
p34
a(lp35
S'POINT./'
p36
aaS'POINT.LENGTH'
p37
aasS'accel_x'
p38
F-1.8168065029999156
sS'accel_y'
p39
F-0.83619024788454588
sS'maxAccel'
p40
I2
sS'maxVel'
p41
F0.5
sS'age'
p42
I0
sS'radius'
p43
I5
sS'gener'
p44
S'm'
sS'lastScale'
p45
F4.6999999999999957
sS'energy'
p46
I1
sb.(i__main__
Data_mobile
p1
(dp2
S'vel_y'
p3
F-0.45438504383815603
sS'vel_x'
p4
F-0.2086485847931803
sS'pos_x'
p5
I-9999
sS'pos_y'
p6
I9999
sS'isAlive'
p7
I00
sS'geno'
p8
(lp9
S'INTEGER.SHOVE'
p10
aS'target'
p11
a(lp12
S'INTEGER.SHOVE'
p13
aS'INTEGER.DEFINE'
p14
a(lp15
(lp16
S'POINT.LENGTH'
p17
aS'-0.0074371045938313720'
p18
a(lp19
S'CODE.FROMINTEGER'
p20
aS'FLOAT.YANKDUP'
p21
aS'INTEGER.%'
p22
aaa(lp23
S'CODE.DO*COUNT'
p24
a(lp25
S'POINT.LENGTH'
p26
a(lp27
S'INTEGER.<'
p28
aa(lp29
S'FLOAT.FLUSH'
p30
aS'CODE.FROMNAME'
p31
aS'CODE.LENGTH'
p32
aS'INTEGER.YANK'
p33
aaaa(lp34
S'CODE.SIZE'
p35
aS'centerOfWorld'
p36
aS'CODE.FROMFLOAT'
p37
aS'CODE.SWAP'
p38
aaaasS'accel_x'
p39
F-0.8345943391727173
sS'accel_y'
p40
F-1.8175401753526264
sS'maxAccel'
p41
I2
sS'maxVel'
p42
F0.5
sS'age'
p43
I0
sS'radius'
p44
I5
sS'gener'
p45
S'm'
sS'lastScale'
p46
F5.4999999999999956
sS'energy'
p47
I1
sb.(i__main__
Data_mobile
p1
(dp2
S'vel_y'
p3
F0.45883649549152472
sS'vel_x'
p4
F0.19866824206464415
sS'pos_x'
p5
I-9999
sS'pos_y'
p6
I9999
sS'isAlive'
p7
I00
sS'geno'
p8
(lp9
S'INTEGER.SHOVE'
p10
aS'target'
p11
a(lp12
S'POINT.LENGTH'
p13
aS'CODE.CONS'
p14
a(lp15
S'INTEGER.DEFINE'
p16
aS'CODE.FROMNAME'
p17
a(lp18
(lp19
S'CODE.LIST'
p20
aaS'target'
p21
aaS'FLOAT.YANK'
p22
aaasS'accel_x'
p23
F0.79467296825857692
sS'accel_y'
p24
F1.8353459819660984
sS'maxAccel'
p25
I2
sS'maxVel'
p26
F0.5
sS'age'
p27
I0
sS'radius'
p28
I5
sS'gener'
p29
S'm'
sS'lastScale'
p30
F5.4999999999999956
sS'energy'
p31
I1
sb.(i__main__
Data_mobile
p1
(dp2
S'vel_y'
p3
F0.20719750253265853
sS'vel_x'
p4
F0.45504856328113918
sS'pos_x'
p5
I-9999
sS'pos_y'
p6
I9999
sS'isAlive'
p7
I00
sS'geno'
p8
(lp9
(lp10
(lp11
S'CODE.DO*COUNT'
p12
a(lp13
(lp14
S'CODE.QUOTE'
p15
a(lp16
(lp17
(lp18
S'CODE.ATOM'
p19
aS'FLOAT.STACKDEPTH'
p20
aS'FLOAT.*'
p21
aS'INTEGER.FROMBOOL'
p22
aaS'CODE.DO'
p23
aaS'CODE.CAR'
p24
a(lp25
S'currentVelocity'
p26
a(lp27
S'FLOAT.DUP'
p28
a(lp29
S'CODE.FLUSH'
p30
aS'POINT.POP'
p31
aaS'INTEGER.-'
p32
aa(lp33
S'INTEGER.POP'
p34
aS'FLOAT.='
p35
aS'INTEGER.POP'
p36
aa(lp37
S'flee'
p38
aaaS'CODE.FROMNAME'
p39
a(lp40
S'CODE.RAND'
p41
aS'INTEGER.-'
p42
aaaaS'CODE.DO*COUNT'
p43
a(lp44
S'FLOAT.SIN'
p45
aS'INTEGER.>'
p46
aaaaS'currentVelocity'
p47
aS'CODE.EXTRACT'
p48
aS'INTEGER.STACKDEPTH'
p49
aaS'target'
p50
a(lp51
S'CODE.LENGTH'
p52
aS'FLOAT./'
p53
a(lp54
S'FLOAT.ROT'
p55
aS'CODE.FROMNAME'
p56
aS'INTEGER.FROMBOOL'
p57
aS'-2'
p58
aaasS'accel_x'
p59
F1.8201942531245601
sS'accel_y'
p60
F0.82879001013062703
sS'maxAccel'
p61
I2
sS'maxVel'
p62
F0.5
sS'age'
p63
I0
sS'radius'
p64
I5
sS'gener'
p65
S'm'
sS'lastScale'
p66
F5.4999999999999956
sS'energy'
p67
I1
sb.(i__main__
Data_mobile
p1
(dp2
S'vel_y'
p3
F-0.42751557192422607
sS'vel_x'
p4
F0.25928832554186071
sS'pos_x'
p5
I-9999
sS'pos_y'
p6
I9999
sS'isAlive'
p7
I00
sS'geno'
p8
(lp9
(lp10
(lp11
S'CODE.SHOVE'
p12
aS'cohension'
p13
a(lp14
S'CODE.ATOM'
p15
aaS'INTEGER.='
p16
aS'FLOAT.DEFINE'
p17
aS'INTEGER.SWAP'
p18
aS'CODE.CDR'
p19
aaS'INTEGER.+'
p20
aaS'CODE.STACKDEPTH'
p21
aS'CODE.NTHCDR'
p22
a(lp23
(lp24
(lp25
(lp26
(lp27
S'INTEGER.MIN'
p28
a(lp29
(lp30
(lp31
S'INTEGER.RAND'
p32
a(lp33
S'POINT.*'
p34
aaaaS'INTEGER.FLUSH'
p35
aS'CODE.FROMFLOAT'
p36
aaa(lp37
S'CODE.FROMINTEGER'
p38
a(lp39
S'INTEGER.MAX'
p40
aS'CODE.FROMFLOAT'
p41
aS'FLOAT.FLUSH'
p42
aaS'INTEGER.MIN'
p43
aaS'CODE.EXTRACT'
p44
aS'CODE.FROMBOOLEAN'
p45
aaS'target'
p46
a(lp47
S'POINT.LENGTH'
p48
a(lp49
S'INTEGER.<'
p50
aaS'FLOAT./'
p51
aaaaS'FLOAT.COS'
p52
aaS'FLOAT.+'
p53
asS'accel_x'
p54
F1.0371534258534034
sS'accel_y'
p55
F-1.710062212681325
sS'maxAccel'
p56
I2
sS'maxVel'
p57
F0.5
sS'age'
p58
I0
sS'radius'
p59
I5
sS'gener'
p60
S'm'
sS'lastScale'
p61
F3.0999999999999961
sS'energy'
p62
I1
sb.(i__main__
Data_mobile
p1
(dp2
S'vel_y'
p3
F-0.025438604989150498
sS'vel_x'
p4
F-0.49935245806564926
sS'pos_x'
p5
I-9999
sS'pos_y'
p6
I9999
sS'isAlive'
p7
I00
sS'geno'
p8
(lp9
sS'accel_x'
p10
F-1.9974098322625968
sS'accel_y'
p11
F-0.10175441995660248
sS'maxAccel'
p12
I2
sS'maxVel'
p13
F0.5
sS'age'
p14
I0
sS'radius'
p15
I5
sS'gener'
p16
S'm'
sS'lastScale'
p17
F5.4999999999999956
sS'energy'
p18
I1
sb.(i__main__
Data_mobile
p1
(dp2
S'vel_y'
p3
F0.19222934785424461
sS'vel_x'
p4
F0.46157109725754264
sS'pos_x'
p5
I-9999
sS'pos_y'
p6
I9999
sS'isAlive'
p7
I00
sS'geno'
p8
(lp9
(lp10
(lp11
(lp12
S'FLOAT.FLUSH'
p13
aS'POINT.RAND'
p14
aaS'FLOAT.POP'
p15
aS'CODE.EXTRACT'
p16
aaS'INTEGER.+'
p17
aaS'CODE.STACKDEPTH'
p18
aS'target'
p19
a(lp20
(lp21
(lp22
(lp23
(lp24
S'INTEGER.MIN'
p25
a(lp26
(lp27
(lp28
S'INTEGER.RAND'
p29
a(lp30
S'POINT.*'
p31
aaaaS'INTEGER.FLUSH'
p32
aS'CODE.FROMFLOAT'
p33
aaa(lp34
S'CODE.FROMINTEGER'
p35
a(lp36
S'CODE.RAND'
p37
a(lp38
S'FLOAT.ROT'
p39
aS'CODE.DEFINITION'
p40
aaS'FLOAT.FLUSH'
p41
aaS'INTEGER.MIN'
p42
aaS'CODE.EXTRACT'
p43
aS'CODE.FROMBOOLEAN'
p44
aaS'target'
p45
a(lp46
S'POINT.LENGTH'
p47
a(lp48
S'INTEGER.<'
p49
aaS'POINT.LENGTH'
p50
aaaaS'FLOAT.COS'
p51
aaS'FLOAT.+'
p52
asS'accel_x'
p53
F1.8462987532801018
sS'accel_y'
p54
F0.76888289982047364
sS'maxAccel'
p55
I2
sS'maxVel'
p56
F0.5
sS'age'
p57
I0
sS'radius'
p58
I5
sS'gener'
p59
S'm'
sS'lastScale'
p60
F4.6999999999999957
sS'energy'
p61
I1
sb.(i__main__
Data_mobile
p1
(dp2
S'vel_y'
p3
F-0.49635973151832924
sS'vel_x'
p4
F0.055857190815945409
sS'pos_x'
p5
I-9999
sS'pos_y'
p6
I9999
sS'isAlive'
p7
I00
sS'geno'
p8
(lp9
(lp10
(lp11
S'INTEGER.MIN'
p12
a(lp13
(lp14
(lp15
S'INTEGER.RAND'
p16
a(lp17
S'POINT.*'
p18
aaaaS'INTEGER.FLUSH'
p19
aS'CODE.FROMFLOAT'
p20
aaa(lp21
(lp22
S'POINT.*'
p23
aa(lp24
S'CODE.DO'
p25
aS'FLOAT.STACKDEPTH'
p26
aS'CODE.ROT'
p27
aS'CODE.YANKDUP'
p28
aaS'INTEGER.MIN'
p29
aaS'CODE.EXTRACT'
p30
aS'CODE.FROMBOOLEAN'
p31
aaS'target'
p32
a(lp33
S'POINT.LENGTH'
p34
a(lp35
S'INTEGER.<'
p36
aaS'POINT.LENGTH'
p37
aasS'accel_x'
p38
F0
sS'accel_y'
p39
F0
sS'maxAccel'
p40
I2
sS'maxVel'
p41
F0.5
sS'age'
p42
I0
sS'radius'
p43
I5
sS'gener'
p44
S'm'
sS'lastScale'
p45
F5.4999999999999956
sS'energy'
p46
I1
sb.(i__main__
Data_mobile
p1
(dp2
S'vel_y'
p3
F0.037426167159728255
sS'vel_x'
p4
F0.49501980362764009
sS'pos_x'
p5
I-9999
sS'pos_y'
p6
I9999
sS'isAlive'
p7
I00
sS'geno'
p8
(lp9
sS'accel_x'
p10
F0
sS'accel_y'
p11
F0
sS'maxAccel'
p12
I2
sS'maxVel'
p13
F0.5
sS'age'
p14
I0
sS'radius'
p15
I5
sS'gener'
p16
S'm'
sS'lastScale'
p17
F5.4999999999999956
sS'energy'
p18
I1
sb.(i__main__
Data_mobile
p1
(dp2
S'vel_y'
p3
F-0.17567733985400955
sS'vel_x'
p4
F0.46812121535112977
sS'pos_x'
p5
I-9999
sS'pos_y'
p6
I9999
sS'isAlive'
p7
I00
sS'geno'
p8
(lp9
S'FLOAT.+'
p10
aS'target'
p11
a(lp12
S'CODE.LENGTH'
p13
aS'CODE.DEFINITION'
p14
a(lp15
S'CODE.POSITION'
p16
aS'CODE.FROMNAME'
p17
aS'INTEGER.FROMBOOL'
p18
aS'-2'
p19
aaasS'accel_x'
p20
F1.87248486140446
sS'accel_y'
p21
F-0.70270935941619517
sS'maxAccel'
p22
I2
sS'maxVel'
p23
F0.5
sS'age'
p24
I0
sS'radius'
p25
I5
sS'gener'
p26
S'm'
sS'lastScale'
p27
F5.4999999999999956
sS'energy'
p28
I1
sb.(i__main__
Data_mobile
p1
(dp2
S'vel_y'
p3
F0.21651574113054867
sS'vel_x'
p4
F0.45068939841390676
sS'pos_x'
p5
I-9999
sS'pos_y'
p6
I9999
sS'isAlive'
p7
I00
sS'geno'
p8
(lp9
(lp10
(lp11
S'INTEGER.MIN'
p12
a(lp13
(lp14
(lp15
S'INTEGER.RAND'
p16
a(lp17
S'POINT.*'
p18
aaaaS'INTEGER.FLUSH'
p19
aS'CODE.FROMFLOAT'
p20
aaa(lp21
S'target'
p22
a(lp23
S'INTEGER.SWAP'
p24
a(lp25
S'FLOAT.ROT'
p26
aS'CODE.FROMFLOAT'
p27
aaS'FLOAT.FLUSH'
p28
aaS'INTEGER.MIN'
p29
aaS'CODE.EXTRACT'
p30
aS'CODE.FROMBOOLEAN'
p31
aaS'target'
p32
a(lp33
S'POINT.LENGTH'
p34
a(lp35
S'INTEGER.<'
p36
aaS'POINT.LENGTH'
p37
aasS'accel_x'
p38
F0
sS'accel_y'
p39
F0
sS'maxAccel'
p40
I2
sS'maxVel'
p41
F0.5
sS'age'
p42
I0
sS'radius'
p43
I5
sS'gener'
p44
S'm'
sS'lastScale'
p45
F5.4999999999999956
sS'energy'
p46
I1
sb.(i__main__
Data_mobile
p1
(dp2
S'vel_y'
p3
F-0.34523975826534181
sS'vel_x'
p4
F0.36167597281667513
sS'pos_x'
p5
I-9999
sS'pos_y'
p6
I9999
sS'isAlive'
p7
I00
sS'geno'
p8
(lp9
(lp10
(lp11
S'FLOAT.DEFINE'
p12
a(lp13
S'CODE.CAR'
p14
a(lp15
(lp16
S'FLOAT.-'
p17
aaaS'CODE.ATOM'
p18
a(lp19
S'INTEGER.YANKDUP'
p20
a(lp21
S'INTEGER.DEFINE'
p22
aS'CODE.FROMNAME'
p23
aS'FLOAT.DEFINE'
p24
aS'CODE.NULL'
p25
aaaS'INTEGER.YANKDUP'
p26
aaa(lp27
S'INTEGER.<'
p28
a(lp29
S'FLOAT.ROT'
p30
aS'CODE.DO*'
p31
a(lp32
S'FLOAT.>'
p33
aS'CODE.ATOM'
p34
aaaS'INTEGER.-'
p35
aa(lp36
(lp37
(lp38
S'INTEGER.<'
p39
aa(lp40
S'INTEGER./'
p41
aS'FLOAT.FLUSH'
p42
aaaa(lp43
(lp44
(lp45
(lp46
S'INTEGER.<'
p47
aa(lp48
S'INTEGER.YANKDUP'
p49
aS'FLOAT.FLUSH'
p50
aaaaaaS'target'
p51
a(lp52
S'FLOAT.DUP'
p53
aS'INTEGER.MIN'
p54
a(lp55
S'INTEGER.DEFINE'
p56
aS'CODE.FROMNAME'
p57
aS'CODE.LENGTH'
p58
a(lp59
S'POINT.LENGTH'
p60
aS'CODE.INSTRUCTIONS'
p61
a(lp62
S'INTEGER.SHOVE'
p63
aS'CODE.FROMNAME'
p64
aS'CODE.SHOVE'
p65
aS'-0.0074371045938313720'
p66
aaaaasS'accel_x'
p67
F-1.4467038912667174
sS'accel_y'
p68
F1.3809590330613499
sS'maxAccel'
p69
I2
sS'maxVel'
p70
F0.5
sS'age'
p71
I0
sS'radius'
p72
I5
sS'gener'
p73
S'm'
sS'lastScale'
p74
F2.7999999999999963
sS'energy'
p75
I1
sb.(i__main__
Data_mobile
p1
(dp2
S'vel_y'
p3
F-0.1022208698013891
sS'vel_x'
p4
F0.48943936680353717
sS'pos_x'
p5
I-9999
sS'pos_y'
p6
I9999
sS'isAlive'
p7
I00
sS'geno'
p8
(lp9
(lp10
(lp11
S'FLOAT.DEFINE'
p12
a(lp13
S'CODE.CAR'
p14
a(lp15
(lp16
S'INTEGER.<'
p17
aaaS'CODE.FROMFLOAT'
p18
a(lp19
S'INTEGER.YANKDUP'
p20
aS'CODE.NOOP'
p21
aa(lp22
(lp23
S'INTEGER./'
p24
a(lp25
S'POINT.LENGTH'
p26
a(lp27
S'INTEGER.<'
p28
aa(lp29
S'FLOAT.FLUSH'
p30
aS'CODE.FROMNAME'
p31
aS'CODE.LENGTH'
p32
aS'INTEGER.YANK'
p33
aaaaS'-0.0074371045938313720'
p34
a(lp35
S'CODE.POSITION'
p36
aS'CODE.FROMNAME'
p37
aS'FLOAT./'
p38
aS'CODE.INSERT'
p39
aaaaa(lp40
S'CODE.FROMINTEGER'
p41
a(lp42
S'FLOAT.ROT'
p43
aS'CODE.DO*'
p44
a(lp45
S'FLOAT.>'
p46
aS'CODE.DO'
p47
aaaS'INTEGER.-'
p48
aa(lp49
(lp50
S'CODE.FLUSH'
p51
a(lp52
S'INTEGER./'
p53
aS'FLOAT.FLUSH'
p54
aaaa(lp55
S'FLOAT.TAN'
p56
a(lp57
(lp58
S'FLOAT.ROT'
p59
aaS'POINT./'
p60
aaaaS'target'
p61
a(lp62
S'FLOAT.DUP'
p63
a(lp64
S'INTEGER.<'
p65
aa(lp66
S'INTEGER.DEFINE'
p67
aS'CODE.FROMNAME'
p68
aS'CODE.LENGTH'
p69
a(lp70
S'POINT.LENGTH'
p71
aS'CODE.INSTRUCTIONS'
p72
aS'CODE.FROMINTEGER'
p73
aaaasS'accel_x'
p74
F0
sS'accel_y'
p75
F0
sS'maxAccel'
p76
I2
sS'maxVel'
p77
F0.5
sS'age'
p78
I0
sS'radius'
p79
I5
sS'gener'
p80
S'm'
sS'lastScale'
p81
F5.4999999999999956
sS'energy'
p82
I1
sb.(i__main__
Data_mobile
p1
(dp2
S'vel_y'
p3
F-0.27331412008120881
sS'vel_x'
p4
F-0.3181457853613146
sS'pos_x'
p5
I-9999
sS'pos_y'
p6
I9999
sS'isAlive'
p7
I00
sS'geno'
p8
(lp9
S'INTEGER.SHOVE'
p10
aS'target'
p11
a(lp12
S'INTEGER.-'
p13
aS'CODE.DEFINE'
p14
a(lp15
S'target'
p16
aS'INTEGER.='
p17
a(lp18
S'flee'
p19
aS'CODE.FROMNAME'
p20
aS'CODE.FROMFLOAT'
p21
aS'CODE.SWAP'
p22
aaaasS'accel_x'
p23
F0
sS'accel_y'
p24
F0
sS'maxAccel'
p25
I2
sS'maxVel'
p26
F0.5
sS'age'
p27
I0
sS'radius'
p28
I5
sS'gener'
p29
S'm'
sS'lastScale'
p30
F5.4999999999999956
sS'energy'
p31
I1
sb.(i__main__
Data_mobile
p1
(dp2
S'vel_y'
p3
F0.36104209088373024
sS'vel_x'
p4
F-0.34590259988948369
sS'pos_x'
p5
I-9999
sS'pos_y'
p6
I9999
sS'isAlive'
p7
I00
sS'geno'
p8
(lp9
(lp10
(lp11
S'INTEGER.MIN'
p12
a(lp13
(lp14
S'CODE.FLUSH'
p15
a(lp16
S'INTEGER./'
p17
aS'FLOAT.FLUSH'
p18
aaaS'INTEGER.FLUSH'
p19
aS'CODE.ATOM'
p20
aaa(lp21
S'CODE.FROMINTEGER'
p22
a(lp23
S'INTEGER.MAX'
p24
a(lp25
S'FLOAT.ROT'
p26
aS'CODE.FROMFLOAT'
p27
aaS'FLOAT.FLUSH'
p28
aaS'INTEGER.MIN'
p29
aaS'CODE.EXTRACT'
p30
aS'CODE.FROMBOOLEAN'
p31
aaS'target'
p32
a(lp33
S'POINT.LENGTH'
p34
a(lp35
S'INTEGER.<'
p36
aaS'POINT.LENGTH'
p37
aasS'accel_x'
p38
F-1.3836151853814991
sS'accel_y'
p39
F1.4441637783789345
sS'maxAccel'
p40
I2
sS'maxVel'
p41
F0.5
sS'age'
p42
I0
sS'radius'
p43
I5
sS'gener'
p44
S'm'
sS'lastScale'
p45
F5.4999999999999956
sS'energy'
p46
I1
sb.(i__main__
Data_mobile
p1
(dp2
S'vel_y'
p3
F0.46297613145321587
sS'vel_x'
p4
F0.18882028944108345
sS'pos_x'
p5
I-9999
sS'pos_y'
p6
I9999
sS'isAlive'
p7
I00
sS'geno'
p8
(lp9
(lp10
(lp11
S'FLOAT.DEFINE'
p12
a(lp13
S'CODE.CAR'
p14
a(lp15
(lp16
S'INTEGER.<'
p17
aaaS'CODE.ATOM'
p18
a(lp19
S'INTEGER.YANKDUP'
p20
a(lp21
S'INTEGER.DEFINE'
p22
aS'CODE.FROMNAME'
p23
aS'FLOAT.DEFINE'
p24
aS'CODE.NULL'
p25
aaaS'INTEGER.YANKDUP'
p26
aaa(lp27
S'INTEGER.<'
p28
a(lp29
S'FLOAT.ROT'
p30
aS'CODE.DO*'
p31
a(lp32
S'FLOAT.>'
p33
aS'CODE.ATOM'
p34
aaaS'INTEGER.-'
p35
aa(lp36
(lp37
(lp38
S'INTEGER.<'
p39
aa(lp40
S'INTEGER./'
p41
aS'FLOAT.FLUSH'
p42
aaaa(lp43
(lp44
S'INTEGER.FLUSH'
p45
aS'-0.41291868673006971'
p46
aa(lp47
S'CODE.QUOTE'
p48
aaS'INTEGER./'
p49
aS'cohension'
p50
aaaS'target'
p51
a(lp52
S'FLOAT.DUP'
p53
a(lp54
S'INTEGER.<'
p55
aa(lp56
S'INTEGER.DEFINE'
p57
aS'FLOAT.FLUSH'
p58
aS'CODE.LENGTH'
p59
a(lp60
S'POINT.LENGTH'
p61
aS'CODE.INSTRUCTIONS'
p62
aS'FLOAT.STACKDEPTH'
p63
aaaasS'accel_x'
p64
F0.75527909024600726
sS'accel_y'
p65
F1.8519053690286564
sS'maxAccel'
p66
I2
sS'maxVel'
p67
F0.5
sS'age'
p68
I0
sS'radius'
p69
I5
sS'gener'
p70
S'm'
sS'lastScale'
p71
F5.4999999999999956
sS'energy'
p72
I1
sb.(i__main__
Data_mobile
p1
(dp2
S'vel_y'
p3
F0.073447785428472051
sS'vel_x'
p4
F0.1072285547115579
sS'pos_x'
p5
I-9999
sS'pos_y'
p6
I9999
sS'isAlive'
p7
I00
sS'geno'
p8
(lp9
(lp10
(lp11
S'CODE.DO*COUNT'
p12
a(lp13
S'POINT.LENGTH'
p14
a(lp15
S'INTEGER.<'
p16
aa(lp17
S'FLOAT.FLUSH'
p18
aS'CODE.DO'
p19
aS'CODE.LENGTH'
p20
aS'INTEGER.YANK'
p21
aaaaS'CODE.STACKDEPTH'
p22
a(lp23
(lp24
S'CODE.DO*COUNT'
p25
a(lp26
S'POINT.LENGTH'
p27
aS'FLOAT.<'
p28
a(lp29
S'FLOAT.FLUSH'
p30
aS'CODE.FROMNAME'
p31
aS'CODE.LENGTH'
p32
aS'INTEGER.YANK'
p33
aaaaS'CODE.STACKDEPTH'
p34
aS'CODE.EXTRACT'
p35
aS'INTEGER.STACKDEPTH'
p36
aaS'INTEGER.STACKDEPTH'
p37
aaS'target'
p38
a(lp39
S'CODE.POSITION'
p40
aS'-0.0074371045938313720'
p41
aS'CODE.FROMFLOAT'
p42
aasS'accel_x'
p43
F0
sS'accel_y'
p44
F0
sS'maxAccel'
p45
I2
sS'maxVel'
p46
F0.5
sS'age'
p47
I0
sS'radius'
p48
I5
sS'gener'
p49
S'm'
sS'lastScale'
p50
F5.4999999999999956
sS'energy'
p51
I1
sb.(i__main__
Data_mobile
p1
(dp2
S'vel_y'
p3
F-0.16548475437375523
sS'vel_x'
p4
F-0.43048998946096656
sS'pos_x'
p5
I-9999
sS'pos_y'
p6
I9999
sS'isAlive'
p7
I00
sS'geno'
p8
(lp9
S'FLOAT.FLUSH'
p10
aS'CODE.FROMNAME'
p11
aS'FLOAT.POP'
p12
aS'INTEGER.YANK'
p13
asS'accel_x'
p14
F0
sS'accel_y'
p15
F0
sS'maxAccel'
p16
I2
sS'maxVel'
p17
F0.5
sS'age'
p18
I0
sS'radius'
p19
I5
sS'gener'
p20
S'm'
sS'lastScale'
p21
F5.4999999999999956
sS'energy'
p22
I1
sb.(i__main__
Data_mobile
p1
(dp2
S'vel_y'
p3
F0.21649204492114324
sS'vel_x'
p4
F0.45070078154565218
sS'pos_x'
p5
I-9999
sS'pos_y'
p6
I9999
sS'isAlive'
p7
I00
sS'geno'
p8
(lp9
S'INTEGER.SHOVE'
p10
aS'target'
p11
a(lp12
S'INTEGER.SHOVE'
p13
aS'randV'
p14
a(lp15
S'target'
p16
aS'INTEGER.MIN'
p17
a(lp18
S'CODE.SIZE'
p19
aS'CODE.FROMNAME'
p20
aS'target'
p21
aS'CODE.SWAP'
p22
aaaasS'accel_x'
p23
F0
sS'accel_y'
p24
F0
sS'maxAccel'
p25
I2
sS'maxVel'
p26
F0.5
sS'age'
p27
I0
sS'radius'
p28
I5
sS'gener'
p29
S'm'
sS'lastScale'
p30
F5.1999999999999957
sS'energy'
p31
I1
sb.(i__main__
Data_mobile
p1
(dp2
S'vel_y'
p3
F-0.41847006418685878
sS'vel_x'
p4
F-0.27364722797690877
sS'pos_x'
p5
I-9999
sS'pos_y'
p6
I9999
sS'isAlive'
p7
I00
sS'geno'
p8
(lp9
(lp10
(lp11
S'CODE.DO*COUNT'
p12
a(lp13
S'POINT.LENGTH'
p14
a(lp15
(lp16
S'CODE.FROMINTEGER'
p17
aS'target'
p18
aS'target'
p19
aaa(lp20
S'FLOAT.FLUSH'
p21
aS'INTEGER.STACKDEPTH'
p22
aS'CODE.LENGTH'
p23
aS'INTEGER.YANK'
p24
aaaaS'CODE.STACKDEPTH'
p25
aS'CODE.EXTRACT'
p26
aS'INTEGER.STACKDEPTH'
p27
aaS'target'
p28
a(lp29
S'CODE.POSITION'
p30
aS'-0.0074371045938313720'
p31
aS'CODE.FROMFLOAT'
p32
aasS'accel_x'
p33
F-1.094588335815218
sS'accel_y'
p34
F-1.6738806334674141
sS'maxAccel'
p35
I2
sS'maxVel'
p36
F0.5
sS'age'
p37
I0
sS'radius'
p38
I5
sS'gener'
p39
S'm'
sS'lastScale'
p40
F4.6999999999999957
sS'energy'
p41
I1
sb.(i__main__
Data_mobile
p1
(dp2
S'vel_y'
p3
F0.21192887593031498
sS'vel_x'
p4
F0.45286438538144419
sS'pos_x'
p5
I-9999
sS'pos_y'
p6
I9999
sS'isAlive'
p7
I00
sS'geno'
p8
(lp9
(lp10
(lp11
S'FLOAT.DEFINE'
p12
a(lp13
S'CODE.CAR'
p14
a(lp15
S'FLOAT.='
p16
aaS'CODE.ATOM'
p17
a(lp18
S'-2'
p19
aS'randV'
p20
aaS'INTEGER.YANKDUP'
p21
aaa(lp22
S'CODE.FROMINTEGER'
p23
a(lp24
S'INTEGER.POP'
p25
aS'CODE.LIST'
p26
aS'-7'
p27
aaS'INTEGER.FROMBOOL'
p28
aaS'INTEGER.<'
p29
a(lp30
(lp31
S'FLOAT.FROMINTEGER'
p32
aS'INTEGER.YANK'
p33
aS'INTEGER.YANKDUP'
p34
a(lp35
S'target'
p36
aS'POINT.RAND'
p37
a(lp38
(lp39
S'FLOAT.='
p40
aS'CODE.LIST'
p41
aaS'CODE.INSERT'
p42
aS'FLOAT.*'
p43
a(lp44
S'CODE.CONTAINER'
p45
aaaaaaaS'target'
p46
a(lp47
S'POINT.LENGTH'
p48
a(lp49
S'INTEGER.<'
p50
aa(lp51
S'INTEGER.DEFINE'
p52
aS'CODE.FROMNAME'
p53
aS'FLOAT.>'
p54
aS'FLOAT.YANK'
p55
aaasS'accel_x'
p56
F0
sS'accel_y'
p57
F0
sS'maxAccel'
p58
I2
sS'maxVel'
p59
F0.5
sS'age'
p60
I0
sS'radius'
p61
I5
sS'gener'
p62
S'm'
sS'lastScale'
p63
F5.0999999999999961
sS'energy'
p64
I1
sb.(i__main__
Data_mobile
p1
(dp2
S'vel_y'
p3
F-0.42178350904021877
sS'vel_x'
p4
F-0.26851195783748572
sS'pos_x'
p5
I-9999
sS'pos_y'
p6
I9999
sS'isAlive'
p7
I00
sS'geno'
p8
(lp9
(lp10
(lp11
S'POINT.LENGTH'
p12
a(lp13
S'CODE.CAR'
p14
a(lp15
(lp16
S'INTEGER.<'
p17
aaaS'CODE.ATOM'
p18
a(lp19
S'INTEGER.YANKDUP'
p20
a(lp21
S'INTEGER.DEFINE'
p22
a(lp23
S'CODE.LENGTH'
p24
aS'-0.0074371045938313720'
p25
a(lp26
S'CODE.POSITION'
p27
aS'CODE.FROMNAME'
p28
aS'INTEGER.FROMBOOL'
p29
aS'-2'
p30
aaaS'FLOAT.DEFINE'
p31
aS'CODE.NULL'
p32
aaaS'INTEGER.YANKDUP'
p33
aaa(lp34
S'INTEGER.<'
p35
a(lp36
S'FLOAT.ROT'
p37
aS'CODE.DO*'
p38
a(lp39
S'FLOAT.>'
p40
aS'CODE.ATOM'
p41
aaaS'INTEGER.-'
p42
aa(lp43
(lp44
(lp45
S'INTEGER.<'
p46
aa(lp47
S'INTEGER./'
p48
aS'FLOAT.FLUSH'
p49
aaaa(lp50
(lp51
(lp52
(lp53
S'INTEGER.<'
p54
aa(lp55
S'INTEGER.YANKDUP'
p56
aS'FLOAT.FLUSH'
p57
aaaaaaS'target'
p58
a(lp59
S'FLOAT.DUP'
p60
a(lp61
S'INTEGER.<'
p62
aa(lp63
S'INTEGER.DEFINE'
p64
aS'CODE.FROMNAME'
p65
aS'CODE.LENGTH'
p66
a(lp67
S'POINT.LENGTH'
p68
aS'CODE.INSTRUCTIONS'
p69
a(lp70
S'INTEGER.SHOVE'
p71
aS'CODE.FROMNAME'
p72
aS'CODE.SHOVE'
p73
aS'CODE.IF'
p74
aaaaasS'accel_x'
p75
F-1.0740478303317733
sS'accel_y'
p76
F-1.6871340368090528
sS'maxAccel'
p77
I2
sS'maxVel'
p78
F0.5
sS'age'
p79
I0
sS'radius'
p80
I5
sS'gener'
p81
S'm'
sS'lastScale'
p82
F4.6999999999999957
sS'energy'
p83
I1
sb.(i__main__
Data_mobile
p1
(dp2
S'vel_y'
p3
F0.19488095883419992
sS'vel_x'
p4
F0.46045782856181616
sS'pos_x'
p5
I-9999
sS'pos_y'
p6
I9999
sS'isAlive'
p7
I00
sS'geno'
p8
(lp9
(lp10
(lp11
S'CODE.DO*COUNT'
p12
a(lp13
S'POINT./'
p14
aS'INTEGER.YANK'
p15
a(lp16
S'FLOAT.FLUSH'
p17
aS'CODE.FROMNAME'
p18
aS'target'
p19
aS'INTEGER.YANK'
p20
aaaaS'CODE.STACKDEPTH'
p21
aS'CODE.EXTRACT'
p22
aS'INTEGER.STACKDEPTH'
p23
aaS'target'
p24
a(lp25
S'CODE.YANKDUP'
p26
aS'-0.0074371045938313720'
p27
a(lp28
S'CODE.FROMINTEGER'
p29
aS'FLOAT.YANKDUP'
p30
aS'INTEGER.%'
p31
aaasS'accel_x'
p32
F0
sS'accel_y'
p33
F0
sS'maxAccel'
p34
I2
sS'maxVel'
p35
F0.5
sS'age'
p36
I0
sS'radius'
p37
I5
sS'gener'
p38
S'm'
sS'lastScale'
p39
F5.4999999999999956
sS'energy'
p40
I1
sb.(i__main__
Data_mobile
p1
(dp2
S'vel_y'
p3
F-0.43161423309030628
sS'vel_x'
p4
F-0.25240672295695055
sS'pos_x'
p5
I-9999
sS'pos_y'
p6
I9999
sS'isAlive'
p7
I00
sS'geno'
p8
(lp9
(lp10
(lp11
S'FLOAT.DEFINE'
p12
a(lp13
S'CODE.CAR'
p14
a(lp15
(lp16
S'INTEGER.<'
p17
aaaS'CODE.ATOM'
p18
a(lp19
S'INTEGER.YANKDUP'
p20
aS'randV'
p21
aa(lp22
(lp23
S'INTEGER./'
p24
a(lp25
S'POINT.LENGTH'
p26
a(lp27
S'INTEGER.<'
p28
aa(lp29
S'FLOAT.FLUSH'
p30
aS'CODE.FROMNAME'
p31
aS'currentVelocity'
p32
aS'INTEGER.YANK'
p33
aaaaS'-0.0074371045938313720'
p34
a(lp35
S'CODE.POSITION'
p36
aS'CODE.FROMNAME'
p37
aS'FLOAT./'
p38
aS'CODE.INSERT'
p39
aaaaa(lp40
S'CODE.FROMINTEGER'
p41
a(lp42
S'FLOAT.ROT'
p43
aS'CODE.DO*'
p44
a(lp45
S'FLOAT.>'
p46
aS'CODE.ATOM'
p47
aaaS'INTEGER.-'
p48
aa(lp49
(lp50
(lp51
S'INTEGER.<'
p52
aa(lp53
S'INTEGER./'
p54
aS'FLOAT.FLUSH'
p55
aaaa(lp56
(lp57
(lp58
(lp59
S'INTEGER.<'
p60
aa(lp61
S'POINT.LENGTH'
p62
aS'CODE.SIZE'
p63
aaaaaaS'target'
p64
a(lp65
S'FLOAT.DUP'
p66
a(lp67
S'INTEGER.<'
p68
aa(lp69
S'INTEGER.DEFINE'
p70
aS'CODE.FROMNAME'
p71
aS'CODE.LENGTH'
p72
a(lp73
S'POINT.LENGTH'
p74
aS'CODE.INSTRUCTIONS'
p75
a(lp76
S'INTEGER.SHOVE'
p77
aS'CODE.DO*RANGE'
p78
aS'CODE.SHOVE'
p79
aS'-0.0074371045938313720'
p80
aaaaasS'accel_x'
p81
F0
sS'accel_y'
p82
F0
sS'maxAccel'
p83
I2
sS'maxVel'
p84
F0.5
sS'age'
p85
I0
sS'radius'
p86
I5
sS'gener'
p87
S'm'
sS'lastScale'
p88
F5.4999999999999956
sS'energy'
p89
I1
sb.(i__main__
Data_mobile
p1
(dp2
S'vel_y'
p3
F0.19230952672948956
sS'vel_x'
p4
F0.46153769719176752
sS'pos_x'
p5
I-9999
sS'pos_y'
p6
I9999
sS'isAlive'
p7
I00
sS'geno'
p8
(lp9
(lp10
(lp11
S'FLOAT.DEFINE'
p12
a(lp13
S'CODE.SWAP'
p14
aS'CODE.INSERT'
p15
aS'INTEGER.MIN'
p16
a(lp17
(lp18
S'FLOAT.SIN'
p19
aS'FLOAT.-'
p20
aaS'FLOAT.POP'
p21
aS'0.98280774708436980:0.050410362670759289:-0.56633868524020969'
p22
aaaa(lp23
S'CODE.FROMINTEGER'
p24
a(lp25
S'INTEGER.POP'
p26
aS'CODE.LIST'
p27
aS'-7'
p28
aaS'INTEGER.FROMBOOL'
p29
aaS'randV'
p30
a(lp31
(lp32
(lp33
S'FLOAT.DEFINE'
p34
a(lp35
S'CODE.CAR'
p36
aS'FLOAT.STACKDEPTH'
p37
aS'CODE.ATOM'
p38
a(lp39
S'-2'
p40
aS'randV'
p41
aaS'INTEGER.YANKDUP'
p42
aaaS'CODE.FROMFLOAT'
p43
a(lp44
(lp45
(lp46
S'currentVelocity'
p47
aaS'FLOAT.MAX'
p48
aaS'INTEGER.<'
p49
aaaaaS'target'
p50
a(lp51
S'POINT.LENGTH'
p52
a(lp53
S'INTEGER.<'
p54
aa(lp55
S'INTEGER.DEFINE'
p56
aS'CODE.FROMNAME'
p57
aS'FLOAT.>'
p58
aS'FLOAT.YANK'
p59
aaasS'accel_x'
p60
F0
sS'accel_y'
p61
F0
sS'maxAccel'
p62
I2
sS'maxVel'
p63
F0.5
sS'age'
p64
I0
sS'radius'
p65
I5
sS'gener'
p66
S'm'
sS'lastScale'
p67
F3.1999999999999962
sS'energy'
p68
I1
sb.(i__main__
Data_mobile
p1
(dp2
S'vel_y'
p3
F0.20781543119643783
sS'vel_x'
p4
F0.4547666946431308
sS'pos_x'
p5
I-9999
sS'pos_y'
p6
I9999
sS'isAlive'
p7
I00
sS'geno'
p8
(lp9
(lp10
(lp11
S'FLOAT.DEFINE'
p12
a(lp13
S'CODE.CAR'
p14
a(lp15
(lp16
S'INTEGER.<'
p17
aaaS'CODE.ATOM'
p18
a(lp19
S'INTEGER.YANKDUP'
p20
aS'randV'
p21
aa(lp22
(lp23
S'INTEGER./'
p24
a(lp25
S'POINT.LENGTH'
p26
a(lp27
S'INTEGER.<'
p28
aa(lp29
S'FLOAT.FLUSH'
p30
aS'CODE.FROMNAME'
p31
aS'CODE.LENGTH'
p32
aS'INTEGER.YANK'
p33
aaaaS'INTEGER.STACKDEPTH'
p34
a(lp35
S'CODE.POSITION'
p36
aS'CODE.FROMNAME'
p37
aS'FLOAT./'
p38
aS'CODE.INSERT'
p39
aaaaa(lp40
S'CODE.FROMINTEGER'
p41
a(lp42
S'FLOAT.ROT'
p43
aS'CODE.DO*'
p44
a(lp45
S'FLOAT.>'
p46
aS'INTEGER.YANK'
p47
aaaS'INTEGER.-'
p48
aa(lp49
(lp50
(lp51
S'INTEGER.<'
p52
aa(lp53
S'INTEGER./'
p54
aS'FLOAT.FLUSH'
p55
aaaa(lp56
(lp57
(lp58
(lp59
S'INTEGER.<'
p60
aa(lp61
S'POINT.LENGTH'
p62
aS'CODE.SIZE'
p63
aaaaaaS'target'
p64
a(lp65
S'FLOAT.DUP'
p66
a(lp67
S'INTEGER.<'
p68
aa(lp69
S'INTEGER.DEFINE'
p70
aS'CODE.FROMNAME'
p71
aS'CODE.LENGTH'
p72
a(lp73
S'POINT.LENGTH'
p74
aS'CODE.INSTRUCTIONS'
p75
a(lp76
S'INTEGER.SHOVE'
p77
aS'CODE.FROMNAME'
p78
aS'CODE.SHOVE'
p79
aS'-0.0074371045938313720'
p80
aaaaasS'accel_x'
p81
F0
sS'accel_y'
p82
F0
sS'maxAccel'
p83
I2
sS'maxVel'
p84
F0.5
sS'age'
p85
I0
sS'radius'
p86
I5
sS'gener'
p87
S'm'
sS'lastScale'
p88
F3.6999999999999962
sS'energy'
p89
I1
sb.(i__main__
Data_mobile
p1
(dp2
S'vel_y'
p3
F-0.40376450155444432
sS'vel_x'
p4
F-0.29491393199455851
sS'pos_x'
p5
I-9999
sS'pos_y'
p6
I9999
sS'isAlive'
p7
I00
sS'geno'
p8
(lp9
(lp10
(lp11
S'CODE.DO*COUNT'
p12
a(lp13
S'POINT./'
p14
a(lp15
S'INTEGER.<'
p16
aa(lp17
S'FLOAT.FLUSH'
p18
aS'CODE.FROMNAME'
p19
aS'target'
p20
aS'INTEGER.YANK'
p21
aaaaS'CODE.STACKDEPTH'
p22
aS'CODE.EXTRACT'
p23
aS'INTEGER.STACKDEPTH'
p24
aaS'target'
p25
a(lp26
S'POINT.LENGTH'
p27
aS'-0.0074371045938313720'
p28
a(lp29
S'CODE.FROMINTEGER'
p30
aS'FLOAT.YANKDUP'
p31
aS'INTEGER.%'
p32
aaasS'accel_x'
p33
F1.179655727977917
sS'accel_y'
p34
F1.6150580062180089
sS'maxAccel'
p35
I2
sS'maxVel'
p36
F0.5
sS'age'
p37
I0
sS'radius'
p38
I5
sS'gener'
p39
S'm'
sS'lastScale'
p40
F4.6999999999999957
sS'energy'
p41
I1
sb.(i__main__
Data_mobile
p1
(dp2
S'vel_y'
p3
F0.38920086898922673
sS'vel_x'
p4
F0.31388323239388044
sS'pos_x'
p5
I-9999
sS'pos_y'
p6
I9999
sS'isAlive'
p7
I00
sS'geno'
p8
(lp9
(lp10
S'CODE.POSITION'
p11
aS'CODE.STACKDEPTH'
p12
aS'CODE.EXTRACT'
p13
aS'INTEGER.STACKDEPTH'
p14
aaS'target'
p15
a(lp16
S'FLOAT.COS'
p17
aS'INTEGER.FROMFLOAT'
p18
aasS'accel_x'
p19
F0
sS'accel_y'
p20
F0
sS'maxAccel'
p21
I2
sS'maxVel'
p22
F0.5
sS'age'
p23
I0
sS'radius'
p24
I5
sS'gener'
p25
S'm'
sS'lastScale'
p26
F5.4999999999999956
sS'energy'
p27
I1
sb.(i__main__
Data_mobile
p1
(dp2
S'vel_y'
p3
F0.2644744245867946
sS'vel_x'
p4
F-0.42432685366293266
sS'pos_x'
p5
I-9999
sS'pos_y'
p6
I9999
sS'isAlive'
p7
I00
sS'geno'
p8
(lp9
S'target'
p10
a(lp11
S'INTEGER.MAX'
p12
a(lp13
S'FLOAT.DEFINE'
p14
aS'CODE.YANKDUP'
p15
aaS'INTEGER.DEFINE'
p16
aaS'INTEGER.MIN'
p17
asS'accel_x'
p18
F0
sS'accel_y'
p19
F0
sS'maxAccel'
p20
I2
sS'maxVel'
p21
F0.5
sS'age'
p22
I0
sS'radius'
p23
I5
sS'gener'
p24
S'm'
sS'lastScale'
p25
F5.2999999999999963
sS'energy'
p26
I1
sb.(i__main__
Data_mobile
p1
(dp2
S'vel_y'
p3
F0.21491288219666177
sS'vel_x'
p4
F0.45145592593953598
sS'pos_x'
p5
I-9999
sS'pos_y'
p6
I9999
sS'isAlive'
p7
I00
sS'geno'
p8
(lp9
(lp10
(lp11
S'FLOAT.DEFINE'
p12
a(lp13
S'CODE.CAR'
p14
a(lp15
(lp16
S'INTEGER.<'
p17
aaaS'CODE.ATOM'
p18
a(lp19
S'INTEGER.YANKDUP'
p20
aS'randV'
p21
aa(lp22
(lp23
S'INTEGER./'
p24
a(lp25
S'POINT.LENGTH'
p26
a(lp27
S'INTEGER.<'
p28
aa(lp29
S'FLOAT.FLUSH'
p30
aS'CODE.FROMNAME'
p31
aS'CODE.LENGTH'
p32
aS'INTEGER.YANK'
p33
aaaaS'-0.0074371045938313720'
p34
a(lp35
S'CODE.POSITION'
p36
aS'CODE.FROMNAME'
p37
aS'FLOAT./'
p38
aS'CODE.INSERT'
p39
aaaaa(lp40
S'CODE.FROMINTEGER'
p41
a(lp42
S'FLOAT.ROT'
p43
aS'CODE.DO*'
p44
a(lp45
S'FLOAT.>'
p46
aS'CODE.ATOM'
p47
aaaS'INTEGER.-'
p48
aa(lp49
(lp50
(lp51
S'INTEGER.<'
p52
aa(lp53
S'INTEGER./'
p54
aS'FLOAT.FLUSH'
p55
aaaa(lp56
(lp57
(lp58
(lp59
S'INTEGER.<'
p60
aa(lp61
S'POINT.LENGTH'
p62
aS'CODE.SIZE'
p63
aaaaaaS'target'
p64
a(lp65
S'FLOAT.DUP'
p66
a(lp67
S'FLOAT.DEFINE'
p68
aa(lp69
S'INTEGER.DEFINE'
p70
aS'CODE.SWAP'
p71
aS'CODE.LENGTH'
p72
a(lp73
S'POINT.LENGTH'
p74
aS'CODE.INSTRUCTIONS'
p75
a(lp76
S'INTEGER.SHOVE'
p77
aS'CODE.FROMNAME'
p78
aS'CODE.SHOVE'
p79
aS'-0.0074371045938313720'
p80
aaaaasS'accel_x'
p81
F0
sS'accel_y'
p82
F0
sS'maxAccel'
p83
I2
sS'maxVel'
p84
F0.5
sS'age'
p85
I0
sS'radius'
p86
I5
sS'gener'
p87
S'm'
sS'lastScale'
p88
F3.6999999999999962
sS'energy'
p89
I1
sb.(i__main__
Data_mobile
p1
(dp2
S'vel_y'
p3
F0.19453970051129052
sS'vel_x'
p4
F0.46060211129018652
sS'pos_x'
p5
I-9999
sS'pos_y'
p6
I9999
sS'isAlive'
p7
I00
sS'geno'
p8
(lp9
(lp10
(lp11
S'CODE.YANKDUP'
p12
a(lp13
(lp14
S'CODE.SHOVE'
p15
aaS'INTEGER.FLUSH'
p16
a(lp17
S'POINT.-'
p18
aS'CODE.DO*RANGE'
p19
aaaaS'CODE.STACKDEPTH'
p20
aS'CODE.EXTRACT'
p21
aS'INTEGER.STACKDEPTH'
p22
aaS'target'
p23
a(lp24
S'POINT.LENGTH'
p25
a(lp26
S'INTEGER.<'
p27
aa(lp28
S'FLOAT.FLUSH'
p29
aS'CODE.FROMNAME'
p30
aS'CODE.LENGTH'
p31
aS'INTEGER.YANK'
p32
aaasS'accel_x'
p33
F0
sS'accel_y'
p34
F0
sS'maxAccel'
p35
I2
sS'maxVel'
p36
F0.5
sS'age'
p37
I0
sS'radius'
p38
I5
sS'gener'
p39
S'm'
sS'lastScale'
p40
F4.7999999999999963
sS'energy'
p41
I1
sb.(i__main__
Data_mobile
p1
(dp2
S'vel_y'
p3
F0.40279739334660319
sS'vel_x'
p4
F0.2962334550876754
sS'pos_x'
p5
I-9999
sS'pos_y'
p6
I9999
sS'isAlive'
p7
I00
sS'geno'
p8
(lp9
(lp10
(lp11
S'FLOAT.DEFINE'
p12
a(lp13
S'CODE.CAR'
p14
a(lp15
(lp16
S'INTEGER.<'
p17
aaaS'CODE.ATOM'
p18
a(lp19
S'INTEGER.YANKDUP'
p20
a(lp21
S'INTEGER.DEFINE'
p22
aS'CODE.FROMNAME'
p23
aS'FLOAT.DEFINE'
p24
aS'CODE.NULL'
p25
aaaS'INTEGER.YANKDUP'
p26
aaa(lp27
S'INTEGER.<'
p28
a(lp29
S'FLOAT.ROT'
p30
aS'CODE.DO*'
p31
a(lp32
S'FLOAT.>'
p33
aS'CODE.ATOM'
p34
aaaS'INTEGER.-'
p35
aa(lp36
(lp37
(lp38
S'INTEGER.<'
p39
aa(lp40
S'INTEGER./'
p41
aS'FLOAT.FLUSH'
p42
aaaa(lp43
(lp44
S'CODE.FROMBOOLEAN'
p45
a(lp46
(lp47
S'CODE.FROMNAME'
p48
aaS'FLOAT.TAN'
p49
aaaS'CODE.NULL'
p50
aaaS'target'
p51
a(lp52
S'FLOAT.DUP'
p53
a(lp54
S'INTEGER.<'
p55
aa(lp56
S'INTEGER.DEFINE'
p57
aS'CODE.FROMNAME'
p58
aS'CODE.LENGTH'
p59
a(lp60
S'POINT.LENGTH'
p61
aS'CODE.INSTRUCTIONS'
p62
aS'FLOAT.STACKDEPTH'
p63
aaaasS'accel_x'
p64
F-1.184933820350683
sS'accel_y'
p65
F-1.6111895733864263
sS'maxAccel'
p66
I2
sS'maxVel'
p67
F0.5
sS'age'
p68
I0
sS'radius'
p69
I5
sS'gener'
p70
S'm'
sS'lastScale'
p71
F3.6999999999999962
sS'energy'
p72
I1
sb.(i__main__
Data_mobile
p1
(dp2
S'vel_y'
p3
F0.21290211059370742
sS'vel_x'
p4
F0.45240766052836107
sS'pos_x'
p5
I-9999
sS'pos_y'
p6
I9999
sS'isAlive'
p7
I00
sS'geno'
p8
(lp9
(lp10
(lp11
S'INTEGER.MIN'
p12
a(lp13
S'CODE.DEFINITION'
p14
a(lp15
(lp16
S'FLOAT.DEFINE'
p17
aa(lp18
S'FLOAT.='
p19
aaS'POINT./'
p20
aaaa(lp21
S'CODE.FROMINTEGER'
p22
a(lp23
S'INTEGER.MAX'
p24
a(lp25
S'FLOAT.ROT'
p26
aS'CODE.FROMFLOAT'
p27
aaS'FLOAT.FLUSH'
p28
aaS'INTEGER.MIN'
p29
aaS'CODE.EXTRACT'
p30
aS'CODE.FROMBOOLEAN'
p31
aaS'target'
p32
a(lp33
S'CODE.FROMFLOAT'
p34
a(lp35
S'INTEGER.<'
p36
aaS'POINT.LENGTH'
p37
aasS'accel_x'
p38
F0
sS'accel_y'
p39
F0
sS'maxAccel'
p40
I2
sS'maxVel'
p41
F0.5
sS'age'
p42
I0
sS'radius'
p43
I5
sS'gener'
p44
S'm'
sS'lastScale'
p45
F3.6999999999999962
sS'energy'
p46
I1
sb.(i__main__
Data_mobile
p1
(dp2
S'vel_y'
p3
F-0.33528548919948914
sS'vel_x'
p4
F-0.28418586626709619
sS'pos_x'
p5
I-9999
sS'pos_y'
p6
I9999
sS'isAlive'
p7
I00
sS'geno'
p8
(lp9
(lp10
(lp11
S'FLOAT.DEFINE'
p12
a(lp13
S'CODE.CAR'
p14
a(lp15
(lp16
S'INTEGER.<'
p17
aaaS'CODE.ATOM'
p18
a(lp19
S'INTEGER.YANKDUP'
p20
a(lp21
(lp22
(lp23
S'FLOAT.ROT'
p24
aaS'FLOAT.FROMINTEGER'
p25
a(lp26
S'INTEGER.FLUSH'
p27
aaaS'INTEGER.%'
p28
aS'INTEGER./'
p29
a(lp30
S'-0.22105210582284537'
p31
aS'INTEGER.MIN'
p32
a(lp33
S'FLOAT.*'
p34
aaa(lp35
S'target'
p36
aS'POINT.RAND'
p37
aS'CODE.INSTRUCTIONS'
p38
aaaaS'INTEGER.YANKDUP'
p39
aaa(lp40
S'INTEGER.<'
p41
a(lp42
S'FLOAT.ROT'
p43
aS'CODE.DO*'
p44
a(lp45
S'FLOAT.>'
p46
aS'CODE.ATOM'
p47
aaaS'CODE.LENGTH'
p48
aa(lp49
(lp50
(lp51
S'INTEGER.<'
p52
aa(lp53
S'INTEGER./'
p54
aS'FLOAT.FLUSH'
p55
aaaa(lp56
(lp57
(lp58
(lp59
S'INTEGER.<'
p60
aa(lp61
S'INTEGER.YANKDUP'
p62
aS'FLOAT.FLUSH'
p63
aaaaaaS'target'
p64
a(lp65
S'FLOAT.DUP'
p66
a(lp67
S'INTEGER.<'
p68
aa(lp69
S'INTEGER.DEFINE'
p70
aS'CODE.FROMNAME'
p71
aS'CODE.LENGTH'
p72
a(lp73
S'POINT.LENGTH'
p74
aS'CODE.INSTRUCTIONS'
p75
a(lp76
S'INTEGER.SHOVE'
p77
aS'CODE.FROMNAME'
p78
aS'CODE.SHOVE'
p79
aS'-0.0074371045938313720'
p80
aaaaasS'accel_x'
p81
F0
sS'accel_y'
p82
F0
sS'maxAccel'
p83
I2
sS'maxVel'
p84
F0.5
sS'age'
p85
I0
sS'radius'
p86
I5
sS'gener'
p87
S'm'
sS'lastScale'
p88
F5.4999999999999956
sS'energy'
p89
I1
sb.(i__main__
Data_mobile
p1
(dp2
S'vel_y'
p3
F0.26512341899649805
sS'vel_x'
p4
F-0.40451804444181605
sS'pos_x'
p5
I-9999
sS'pos_y'
p6
I9999
sS'isAlive'
p7
I00
sS'geno'
p8
(lp9
S'INTEGER.SHOVE'
p10
aS'FLOAT.DUP'
p11
a(lp12
S'CODE.ATOM'
p13
aS'CODE.CONS'
p14
a(lp15
S'INTEGER.DEFINE'
p16
aS'CODE.FROMNAME'
p17
aS'FLOAT.>'
p18
aS'FLOAT.YANK'
p19
aaasS'accel_x'
p20
F0
sS'accel_y'
p21
F0
sS'maxAccel'
p22
I2
sS'maxVel'
p23
F0.5
sS'age'
p24
I0
sS'radius'
p25
I5
sS'gener'
p26
S'm'
sS'lastScale'
p27
F5.4999999999999956
sS'energy'
p28
I1
sb.(i__main__
Data_mobile
p1
(dp2
S'vel_y'
p3
F0.45105446473627725
sS'vel_x'
p4
F0.21575418846796565
sS'pos_x'
p5
I-9999
sS'pos_y'
p6
I9999
sS'isAlive'
p7
I00
sS'geno'
p8
(lp9
(lp10
(lp11
S'FLOAT.DEFINE'
p12
a(lp13
S'CODE.CAR'
p14
a(lp15
S'FLOAT.='
p16
aaS'CODE.ATOM'
p17
a(lp18
S'-2'
p19
aS'randV'
p20
aaS'INTEGER.YANKDUP'
p21
aaa(lp22
S'CODE.FROMINTEGER'
p23
a(lp24
S'INTEGER.POP'
p25
aS'CODE.LIST'
p26
aS'-7'
p27
aaS'INTEGER.FROMBOOL'
p28
aaS'INTEGER.<'
p29
a(lp30
(lp31
(lp32
S'FLOAT.DEFINE'
p33
a(lp34
S'CODE.CAR'
p35
aS'FLOAT.STACKDEPTH'
p36
aS'CODE.ATOM'
p37
a(lp38
S'-2'
p39
aS'randV'
p40
aaS'INTEGER.YANKDUP'
p41
aaaS'CODE.FROMFLOAT'
p42
a(lp43
(lp44
(lp45
S'currentVelocity'
p46
aaS'FLOAT.MAX'
p47
aaS'INTEGER.<'
p48
aaaaaS'target'
p49
a(lp50
S'POINT.LENGTH'
p51
a(lp52
S'INTEGER.<'
p53
aa(lp54
S'INTEGER.DEFINE'
p55
aS'CODE.FROMNAME'
p56
aS'randV'
p57
aS'FLOAT.YANK'
p58
aaasS'accel_x'
p59
F0.56459130376660249
sS'accel_y'
p60
F0.93863045425281555
sS'maxAccel'
p61
I2
sS'maxVel'
p62
F0.5
sS'age'
p63
I0
sS'radius'
p64
I5
sS'gener'
p65
S'm'
sS'lastScale'
p66
F5.4999999999999956
sS'energy'
p67
I1
sb.(i__main__
Data_mobile
p1
(dp2
S'vel_y'
p3
F-0.013048875490224224
sS'vel_x'
p4
F-0.26915986247444601
sS'pos_x'
p5
I-9999
sS'pos_y'
p6
I9999
sS'isAlive'
p7
I00
sS'geno'
p8
(lp9
S'INTEGER.SHOVE'
p10
aS'target'
p11
a(lp12
S'POINT.LENGTH'
p13
aS'CODE.CONS'
p14
a(lp15
(lp16
S'CODE.DO*'
p17
aS'CODE.SIZE'
p18
a(lp19
(lp20
S'CODE.DO*COUNT'
p21
a(lp22
S'POINT.LENGTH'
p23
aS'FLOAT.<'
p24
a(lp25
S'INTEGER.+'
p26
aS'CODE.DEFINE'
p27
aS'CODE.FROMNAME'
p28
aS'FLOAT.ROT'
p29
aaaaS'CODE.STACKDEPTH'
p30
aS'cohension'
p31
aS'CODE.EXTRACT'
p32
aaaS'CODE.FROMNAME'
p33
aS'FLOAT.>'
p34
aS'FLOAT.YANK'
p35
aaasS'accel_x'
p36
F0
sS'accel_y'
p37
F0
sS'maxAccel'
p38
I2
sS'maxVel'
p39
F0.5
sS'age'
p40
I0
sS'radius'
p41
I5
sS'gener'
p42
S'm'
sS'lastScale'
p43
F5.4999999999999956
sS'energy'
p44
I1
sb.