(i__main__
Data_Stationary
p1
(dp2
S'pos_x'
p3
F-176.56608639544231
sS'rapid'
p4
I00
sS'energy'
p5
F11.887755210789685
sS'lastScale'
p6
F3.4478724118125257
sS'VirtualEnergy'
p7
I0
sS'pos_y'
p8
F84.959268540927866
sb.(i__main__
Data_Stationary
p1
(dp2
S'pos_x'
p3
F-174.57263183392945
sS'rapid'
p4
I00
sS'energy'
p5
F14.983048175004551
sS'lastScale'
p6
F3.8708042563516019
sS'VirtualEnergy'
p7
I0
sS'pos_y'
p8
F-20.06957347331479
sb.(i__main__
Data_Stationary
p1
(dp2
S'pos_x'
p3
F-61.429973380629775
sS'rapid'
p4
I00
sS'energy'
p5
F4.7483554431321995
sS'lastScale'
p6
F2.1790821518876329
sS'VirtualEnergy'
p7
I0
sS'pos_y'
p8
F-84.084678702507802
sb.(i__main__
Data_Stationary
p1
(dp2
S'pos_x'
p3
F-105.92983787913495
sS'rapid'
p4
I00
sS'energy'
p5
F13.579096877507968
sS'lastScale'
p6
F3.684992615631717
sS'VirtualEnergy'
p7
I0
sS'pos_y'
p8
F-64.054427283172629
sb.(i__main__
Data_Stationary
p1
(dp2
S'pos_x'
p3
F-154.04734678917316
sS'rapid'
p4
I00
sS'energy'
p5
F7.9704090844508899
sS'lastScale'
p6
F2.8232012943424309
sS'VirtualEnergy'
p7
I0
sS'pos_y'
p8
F-82.032044015484473
sb.(i__main__
Data_Stationary
p1
(dp2
S'pos_x'
p3
F-89.909265387380131
sS'rapid'
p4
I00
sS'energy'
p5
F11.030798595940407
sS'lastScale'
p6
F3.321274607937827
sS'VirtualEnergy'
p7
I0
sS'pos_y'
p8
F59.99133992805929
sb.(i__main__
Data_Stationary
p1
(dp2
S'pos_x'
p3
F145.69342663156596
sS'rapid'
p4
I00
sS'energy'
p5
F0.41660066298659271
sS'lastScale'
p6
F0.64545609611228782
sS'VirtualEnergy'
p7
I0
sS'pos_y'
p8
F-91.094974670689396
sb.(i__main__
Data_Stationary
p1
(dp2
S'pos_x'
p3
F33.926987940011884
sS'rapid'
p4
I00
sS'energy'
p5
F3.0280821126445439
sS'lastScale'
p6
F1.7401485326015123
sS'VirtualEnergy'
p7
I0
sS'pos_y'
p8
F59.119209688887622
sb.(i__main__
Data_Stationary
p1
(dp2
S'pos_x'
p3
F185.8871409213267
sS'rapid'
p4
I00
sS'energy'
p5
F2.0565432992191335
sS'lastScale'
p6
F1.4340753050747492
sS'VirtualEnergy'
p7
I0
sS'pos_y'
p8
F15.400213692321344
sb.(i__main__
Data_Stationary
p1
(dp2
S'pos_x'
p3
F-31.619041353452957
sS'rapid'
p4
I00
sS'energy'
p5
F14.592623697246918
sS'lastScale'
p6
F3.8200392796321494
sS'VirtualEnergy'
p7
I0
sS'pos_y'
p8
F45.11871347767277
sb.(i__main__
Data_Stationary
p1
(dp2
S'pos_x'
p3
F63.82676666533149
sS'rapid'
p4
I00
sS'energy'
p5
F9.5433086264318199
sS'lastScale'
p6
F3.0892345995446528
sS'VirtualEnergy'
p7
I0
sS'pos_y'
p8
F98.119445485916344
sb.(i__main__
Data_Stationary
p1
(dp2
S'pos_x'
p3
F-139.28728187690024
sS'rapid'
p4
I00
sS'energy'
p5
F13.479605629147981
sS'lastScale'
p6
F3.6714682428713501
sS'VirtualEnergy'
p7
I0
sS'pos_y'
p8
F-53.896026133674702
sb.(i__main__
Data_Stationary
p1
(dp2
S'pos_x'
p3
F129.90730236557818
sS'rapid'
p4
I00
sS'energy'
p5
F10.373992667076765
sS'lastScale'
p6
F3.2208783094899682
sS'VirtualEnergy'
p7
I0
sS'pos_y'
p8
F73.779881357688424
sb.(i__main__
Data_Stationary
p1
(dp2
S'pos_x'
p3
F-108.00210579153972
sS'rapid'
p4
I00
sS'energy'
p5
F10.340868483181168
sS'lastScale'
p6
F3.215732078038021
sS'VirtualEnergy'
p7
I0
sS'pos_y'
p8
F36.584947554794894
sb.(i__main__
Data_Stationary
p1
(dp2
S'pos_x'
p3
F-73.659370937350303
sS'rapid'
p4
I00
sS'energy'
p5
F12.62842339859422
sS'lastScale'
p6
F3.5536593072043874
sS'VirtualEnergy'
p7
I0
sS'pos_y'
p8
F-42.692725307793467
sb.(i__main__
Data_Stationary
p1
(dp2
S'pos_x'
p3
F35.1590532162339
sS'rapid'
p4
I00
sS'energy'
p5
F9.3343745335402524
sS'lastScale'
p6
F3.0552308649359956
sS'VirtualEnergy'
p7
I0
sS'pos_y'
p8
F-4.7938814542239498
sb.(i__main__
Data_Stationary
p1
(dp2
S'pos_x'
p3
F-5.6323993776395298
sS'rapid'
p4
I00
sS'energy'
p5
F7.3431018102188164
sS'lastScale'
p6
F2.7098258258853711
sS'VirtualEnergy'
p7
I0
sS'pos_y'
p8
F23.957353759196479
sb.(i__main__
Data_Stationary
p1
(dp2
S'pos_x'
p3
F-48.433013911122146
sS'rapid'
p4
I00
sS'energy'
p5
F8.9591621556592944
sS'lastScale'
p6
F2.9931959540728998
sS'VirtualEnergy'
p7
I0
sS'pos_y'
p8
F-52.527770234298373
sb.(i__main__
Data_Stationary
p1
(dp2
S'pos_x'
p3
F107.16646454215089
sS'rapid'
p4
I01
sS'energy'
p5
F6.5
sS'lastScale'
p6
F2.5495197567963923
sS'VirtualEnergy'
p7
F8.3594827163685856
sS'pos_y'
p8
F-22.562171635804916
sb.(i__main__
Data_Stationary
p1
(dp2
S'pos_x'
p3
F-64.921597433266953
sS'rapid'
p4
I01
sS'energy'
p5
F6.5
sS'lastScale'
p6
F2.5495197567963923
sS'VirtualEnergy'
p7
F1.5473613595128022
sS'pos_y'
p8
F30.869344165693263
sb.(i__main__
Data_Stationary
p1
(dp2
S'pos_x'
p3
F194.24151470173621
sS'rapid'
p4
I01
sS'energy'
p5
F1
sS'lastScale'
p6
F1.0000100000000001
sS'VirtualEnergy'
p7
F6.9446935387787603
sS'pos_y'
p8
F-85.593946424743322
sb.(i__main__
Data_Stationary
p1
(dp2
S'pos_x'
p3
F114.26688912662252
sS'rapid'
p4
I01
sS'energy'
p5
F1
sS'lastScale'
p6
F1.0000100000000001
sS'VirtualEnergy'
p7
F7.0122541066043205
sS'pos_y'
p8
F34.955759146418245
sb.(i__main__
Data_Stationary
p1
(dp2
S'pos_x'
p3
F129.00934139747517
sS'rapid'
p4
I01
sS'energy'
p5
F1
sS'lastScale'
p6
F1.0000100000000001
sS'VirtualEnergy'
p7
F9.8953969058415865
sS'pos_y'
p8
F-0.53766011516931655
sb.(i__main__
Data_Stationary
p1
(dp2
S'pos_x'
p3
F194.84761990683211
sS'rapid'
p4
I01
sS'energy'
p5
F1
sS'lastScale'
p6
F1.0000100000000001
sS'VirtualEnergy'
p7
F7.5780300680877382
sS'pos_y'
p8
F50.551947804804684
sb.