(i__main__
Data_Stationary
p1
(dp2
S'pos_x'
p3
F-12.372380887134511
sS'rapid'
p4
I00
sS'energy'
p5
F1.5700868738874665
sS'lastScale'
p6
F1.2530410745897194
sS'VirtualEnergy'
p7
I0
sS'pos_y'
p8
F-50.685433476033936
sb.(i__main__
Data_Stationary
p1
(dp2
S'pos_x'
p3
F29.576475171240304
sS'rapid'
p4
I00
sS'energy'
p5
F7.13383840371079
sS'lastScale'
p6
F2.6709346345995595
sS'VirtualEnergy'
p7
I0
sS'pos_y'
p8
F-97.377162082219556
sb.(i__main__
Data_Stationary
p1
(dp2
S'pos_x'
p3
F7.6998056915614939
sS'rapid'
p4
I00
sS'energy'
p5
F8.3889160492881061
sS'lastScale'
p6
F2.8963725548760477
sS'VirtualEnergy'
p7
I0
sS'pos_y'
p8
F-71.622763384279793
sb.(i__main__
Data_Stationary
p1
(dp2
S'pos_x'
p3
F147.31150212349746
sS'rapid'
p4
I00
sS'energy'
p5
F6.0297871898742912
sS'lastScale'
p6
F2.4555724996880635
sS'VirtualEnergy'
p7
I0
sS'pos_y'
p8
F-62.483161414169565
sb.(i__main__
Data_Stationary
p1
(dp2
S'pos_x'
p3
F5.9854276570482057
sS'rapid'
p4
I00
sS'energy'
p5
F6.0115904421893678
sS'lastScale'
p6
F2.4518644904193168
sS'VirtualEnergy'
p7
I0
sS'pos_y'
p8
F-33.391989093670489
sb.(i__main__
Data_Stationary
p1
(dp2
S'pos_x'
p3
F162.32541855893288
sS'rapid'
p4
I00
sS'energy'
p5
F7.0665858096670711
sS'lastScale'
p6
F2.6583150633189319
sS'VirtualEnergy'
p7
I0
sS'pos_y'
p8
F-93.853004629681891
sb.(i__main__
Data_Stationary
p1
(dp2
S'pos_x'
p3
F90.440242119194352
sS'rapid'
p4
I00
sS'energy'
p5
F1.3832979830461918
sS'lastScale'
p6
F1.1761468895864937
sS'VirtualEnergy'
p7
I0
sS'pos_y'
p8
F-88.596737067484455
sb.(i__main__
Data_Stationary
p1
(dp2
S'pos_x'
p3
F183.9325307761514
sS'rapid'
p4
I00
sS'energy'
p5
F2.6069758879307816
sS'lastScale'
p6
F1.6146232316845361
sS'VirtualEnergy'
p7
I0
sS'pos_y'
p8
F-59.50175848462456
sb.(i__main__
Data_Stationary
p1
(dp2
S'pos_x'
p3
F-50.628678032160451
sS'rapid'
p4
I00
sS'energy'
p5
F2.8052396098856436
sS'lastScale'
p6
F1.6748949542239144
sS'VirtualEnergy'
p7
I0
sS'pos_y'
p8
F-38.526651822129153
sb.(i__main__
Data_Stationary
p1
(dp2
S'pos_x'
p3
F-46.99986467205207
sS'rapid'
p4
I00
sS'energy'
p5
F2.3244903562987989
sS'lastScale'
p6
F1.5246379402853665
sS'VirtualEnergy'
p7
I0
sS'pos_y'
p8
F-72.761539439124377
sb.(i__main__
Data_Stationary
p1
(dp2
S'pos_x'
p3
F-120.80308532489221
sS'rapid'
p4
I00
sS'energy'
p5
F9.6041845995534594
sS'lastScale'
p6
F3.0990718902425067
sS'VirtualEnergy'
p7
I0
sS'pos_y'
p8
F-93.461019995577146
sb.(i__main__
Data_Stationary
p1
(dp2
S'pos_x'
p3
F-122.59206128895075
sS'rapid'
p4
I00
sS'energy'
p5
F7.8187509237006285
sS'lastScale'
p6
F2.7962129475166191
sS'VirtualEnergy'
p7
I0
sS'pos_y'
p8
F91.016798937547918
sb.(i__main__
Data_Stationary
p1
(dp2
S'pos_x'
p3
F-184.67702232966604
sS'rapid'
p4
I00
sS'energy'
p5
F8.2090968659886698
sS'lastScale'
p6
F2.865162154072916
sS'VirtualEnergy'
p7
I0
sS'pos_y'
p8
F75.628089659487841
sb.(i__main__
Data_Stationary
p1
(dp2
S'pos_x'
p3
F-20.856304607368514
sS'rapid'
p4
I00
sS'energy'
p5
F10.426620329117021
sS'lastScale'
p6
F3.2290377684029012
sS'VirtualEnergy'
p7
I0
sS'pos_y'
p8
F-88.225392005841059
sb.(i__main__
Data_Stationary
p1
(dp2
S'pos_x'
p3
F-149.96703574529926
sS'rapid'
p4
I00
sS'energy'
p5
F10.385032491253529
sS'lastScale'
p6
F3.2225916500522573
sS'VirtualEnergy'
p7
I0
sS'pos_y'
p8
F-59.611098736539269
sb.(i__main__
Data_Stationary
p1
(dp2
S'pos_x'
p3
F28.910796908338966
sS'rapid'
p4
I00
sS'energy'
p5
F0.51544873412830028
sS'lastScale'
p6
F0.71795758452710201
sS'VirtualEnergy'
p7
I0
sS'pos_y'
p8
F-46.248992195491148
sb.(i__main__
Data_Stationary
p1
(dp2
S'pos_x'
p3
F-5.1732412440146049
sS'rapid'
p4
I00
sS'energy'
p5
F4.7074230335997447
sS'lastScale'
p6
F2.1696696584717485
sS'VirtualEnergy'
p7
I0
sS'pos_y'
p8
F-2.7782907798196419
sb.(i__main__
Data_Stationary
p1
(dp2
S'pos_x'
p3
F-118.72830949979462
sS'rapid'
p4
I00
sS'energy'
p5
F1.6086190031032617
sS'lastScale'
p6
F1.2683234482860544
sS'VirtualEnergy'
p7
I0
sS'pos_y'
p8
F-38.248203560210236
sb.(i__main__
Data_Stationary
p1
(dp2
S'pos_x'
p3
F122.43275135700384
sS'rapid'
p4
I00
sS'energy'
p5
F4.4140262567693229
sS'lastScale'
p6
F2.1009684138600466
sS'VirtualEnergy'
p7
I0
sS'pos_y'
p8
F73.651782883983202
sb.(i__main__
Data_Stationary
p1
(dp2
S'pos_x'
p3
F-20.907548810897993
sS'rapid'
p4
I00
sS'energy'
p5
F6.0682578527480597
sS'lastScale'
p6
F2.4633934157004589
sS'VirtualEnergy'
p7
I0
sS'pos_y'
p8
F54.697999682403406
sb.(i__main__
Data_Stationary
p1
(dp2
S'pos_x'
p3
F146.5840924425508
sS'rapid'
p4
I00
sS'energy'
p5
F9.3653812757364872
sS'lastScale'
p6
F3.0603010442859007
sS'VirtualEnergy'
p7
I0
sS'pos_y'
p8
F60.000577373974721
sb.(i__main__
Data_Stationary
p1
(dp2
S'pos_x'
p3
F183.74305761525881
sS'rapid'
p4
I00
sS'energy'
p5
F14.497955482665308
sS'lastScale'
p6
F3.807628085189914
sS'VirtualEnergy'
p7
I0
sS'pos_y'
p8
F58.549691409786305
sb.(i__main__
Data_Stationary
p1
(dp2
S'pos_x'
p3
F-90.116193536566144
sS'rapid'
p4
I00
sS'energy'
p5
F11.886523496348282
sS'lastScale'
p6
F3.447693787174845
sS'VirtualEnergy'
p7
I0
sS'pos_y'
p8
F-83.490755241384917
sb.(i__main__
Data_Stationary
p1
(dp2
S'pos_x'
p3
F-71.588999591035673
sS'rapid'
p4
I00
sS'energy'
p5
F12.816498343842067
sS'lastScale'
p6
F3.5800237351471247
sS'VirtualEnergy'
p7
I0
sS'pos_y'
p8
F-52.78420277672835
sb.(i__main__
Data_Stationary
p1
(dp2
S'pos_x'
p3
F-186.77737940496226
sS'rapid'
p4
I00
sS'energy'
p5
F6.8503962461142729
sS'lastScale'
p6
F2.617336163494774
sS'VirtualEnergy'
p7
I0
sS'pos_y'
p8
F-84.659679133382497
sb.(i__main__
Data_Stationary
p1
(dp2
S'pos_x'
p3
F-64.321740970250261
sS'rapid'
p4
I01
sS'energy'
p5
F7
sS'lastScale'
p6
F2.6457613110645908
sS'VirtualEnergy'
p7
F7.9117236302142881
sS'pos_y'
p8
F94.936690110673396
sb.(i__main__
Data_Stationary
p1
(dp2
S'pos_x'
p3
F-159.65095841055029
sS'rapid'
p4
I01
sS'energy'
p5
F4
sS'lastScale'
p6
F2.0000100000000001
sS'VirtualEnergy'
p7
F8.7216389585416501
sS'pos_y'
p8
F60.101803113549835
sb.