(i__main__
Data_Stationary
p1
(dp2
S'pos_x'
p3
F-50.751696186058666
sS'rapid'
p4
I00
sS'energy'
p5
F10.626593828005387
sS'lastScale'
p6
F3.2598556754891614
sS'VirtualEnergy'
p7
I0
sS'pos_y'
p8
F83.442349735603585
sb.(i__main__
Data_Stationary
p1
(dp2
S'pos_x'
p3
F-135.0586378429997
sS'rapid'
p4
I00
sS'energy'
p5
F11.730745456071556
sS'lastScale'
p6
F3.4250275847828222
sS'VirtualEnergy'
p7
I0
sS'pos_y'
p8
F76.317650466111445
sb.(i__main__
Data_Stationary
p1
(dp2
S'pos_x'
p3
F-100.57708986834868
sS'rapid'
p4
I00
sS'energy'
p5
F12.68873251086039
sS'lastScale'
p6
F3.5621347185998964
sS'VirtualEnergy'
p7
I0
sS'pos_y'
p8
F89.783241239920869
sb.(i__main__
Data_Stationary
p1
(dp2
S'pos_x'
p3
F-168.03115361558145
sS'rapid'
p4
I00
sS'energy'
p5
F14.430312590855351
sS'lastScale'
p6
F3.7987351270466192
sS'VirtualEnergy'
p7
I0
sS'pos_y'
p8
F92.058244566861305
sb.(i__main__
Data_Stationary
p1
(dp2
S'pos_x'
p3
F-163.53067335239913
sS'rapid'
p4
I00
sS'energy'
p5
F14.966057987270883
sS'lastScale'
p6
F3.868608969558732
sS'VirtualEnergy'
p7
I0
sS'pos_y'
p8
F49.138579689122821
sb.(i__main__
Data_Stationary
p1
(dp2
S'pos_x'
p3
F-175.26615240923769
sS'rapid'
p4
I00
sS'energy'
p5
F13.037716965659902
sS'lastScale'
p6
F3.6107878892726015
sS'VirtualEnergy'
p7
I0
sS'pos_y'
p8
F24.598730046952838
sb.(i__main__
Data_Stationary
p1
(dp2
S'pos_x'
p3
F-118.5354065269327
sS'rapid'
p4
I00
sS'energy'
p5
F3.1262387769410611
sS'lastScale'
p6
F1.7681272972800932
sS'VirtualEnergy'
p7
I0
sS'pos_y'
p8
F37.800635908178407
sb.(i__main__
Data_Stationary
p1
(dp2
S'pos_x'
p3
F-186.30292683034136
sS'rapid'
p4
I00
sS'energy'
p5
F3.882723519034168
sS'lastScale'
p6
F1.9704727677360889
sS'VirtualEnergy'
p7
I0
sS'pos_y'
p8
F67.658355112239178
sb.(i__main__
Data_Stationary
p1
(dp2
S'pos_x'
p3
F-2.5919581408704175
sS'rapid'
p4
I00
sS'energy'
p5
F10.588754158000601
sS'lastScale'
p6
F3.2540465944470571
sS'VirtualEnergy'
p7
I0
sS'pos_y'
p8
F51.107802863503281
sb.(i__main__
Data_Stationary
p1
(dp2
S'pos_x'
p3
F59.005567326893697
sS'rapid'
p4
I00
sS'energy'
p5
F8.2329136451537366
sS'lastScale'
p6
F2.8693154290461544
sS'VirtualEnergy'
p7
I0
sS'pos_y'
p8
F96.704709844270127
sb.(i__main__
Data_Stationary
p1
(dp2
S'pos_x'
p3
F3.9118349731453748
sS'rapid'
p4
I00
sS'energy'
p5
F10.762050842284676
sS'lastScale'
p6
F3.2805664836296717
sS'VirtualEnergy'
p7
I0
sS'pos_y'
p8
F85.08502665762137
sb.(i__main__
Data_Stationary
p1
(dp2
S'pos_x'
p3
F-21.778738423987221
sS'rapid'
p4
I00
sS'energy'
p5
F5.6951995708341556
sS'lastScale'
p6
F2.3864717262453961
sS'VirtualEnergy'
p7
I0
sS'pos_y'
p8
F-11.247522390407198
sb.(i__main__
Data_Stationary
p1
(dp2
S'pos_x'
p3
F40.231215288592097
sS'rapid'
p4
I00
sS'energy'
p5
F5.3398165435234421
sS'lastScale'
p6
F2.3108143066264706
sS'VirtualEnergy'
p7
I0
sS'pos_y'
p8
F55.941578939183017
sb.(i__main__
Data_Stationary
p1
(dp2
S'pos_x'
p3
F7.5170921621809441
sS'rapid'
p4
I00
sS'energy'
p5
F3.4685485184647789
sS'lastScale'
p6
F1.8624139622124893
sS'VirtualEnergy'
p7
I0
sS'pos_y'
p8
F15.045258587826879
sb.(i__main__
Data_Stationary
p1
(dp2
S'pos_x'
p3
F159.50960881341473
sS'rapid'
p4
I00
sS'energy'
p5
F3.4945603288508811
sS'lastScale'
p6
F1.8693843148045235
sS'VirtualEnergy'
p7
I0
sS'pos_y'
p8
F93.49946567275245
sb.(i__main__
Data_Stationary
p1
(dp2
S'pos_x'
p3
F-50.271518886069146
sS'rapid'
p4
I00
sS'energy'
p5
F11.511245119629804
sS'lastScale'
p6
F3.3928325888822721
sS'VirtualEnergy'
p7
I0
sS'pos_y'
p8
F-28.960988149837291
sb.(i__main__
Data_Stationary
p1
(dp2
S'pos_x'
p3
F-139.6113595064881
sS'rapid'
p4
I00
sS'energy'
p5
F7.16995473372058
sS'lastScale'
p6
F2.6776871152849218
sS'VirtualEnergy'
p7
I0
sS'pos_y'
p8
F-6.1539821735437954
sb.(i__main__
Data_Stationary
p1
(dp2
S'pos_x'
p3
F-40.550866379521665
sS'rapid'
p4
I00
sS'energy'
p5
F13.857321520603348
sS'lastScale'
p6
F3.722552346381482
sS'VirtualEnergy'
p7
I0
sS'pos_y'
p8
F36.742834909320663
sb.(i__main__
Data_Stationary
p1
(dp2
S'pos_x'
p3
F57.877360551516688
sS'rapid'
p4
I00
sS'energy'
p5
F12.351133414943449
sS'lastScale'
p6
F3.5144279340174456
sS'VirtualEnergy'
p7
I0
sS'pos_y'
p8
F-84.023733379895987
sb.(i__main__
Data_Stationary
p1
(dp2
S'pos_x'
p3
F199.85421033429878
sS'rapid'
p4
I00
sS'energy'
p5
F9.0690463859556747
sS'lastScale'
p6
F3.0114957439403023
sS'VirtualEnergy'
p7
I0
sS'pos_y'
p8
F-99.002748074263877
sb.(i__main__
Data_Stationary
p1
(dp2
S'pos_x'
p3
F-106.9577243300695
sS'rapid'
p4
I00
sS'energy'
p5
F0.3206648996450473
sS'lastScale'
p6
F0.56628281379653678
sS'VirtualEnergy'
p7
I0
sS'pos_y'
p8
F-44.647613551437651
sb.(i__main__
Data_Stationary
p1
(dp2
S'pos_x'
p3
F-48.196786137935675
sS'rapid'
p4
I00
sS'energy'
p5
F10.184077134818175
sS'lastScale'
p6
F3.1912600896699046
sS'VirtualEnergy'
p7
I0
sS'pos_y'
p8
F-3.0455775547347628
sb.(i__main__
Data_Stationary
p1
(dp2
S'pos_x'
p3
F177.9172911376956
sS'rapid'
p4
I00
sS'energy'
p5
F0.98644773309835632
sS'lastScale'
p6
F0.99321075166018491
sS'VirtualEnergy'
p7
I0
sS'pos_y'
p8
F-49.110645498906067
sb.(i__main__
Data_Stationary
p1
(dp2
S'pos_x'
p3
F-80.783988057200148
sS'rapid'
p4
I00
sS'energy'
p5
F12.565389245392584
sS'lastScale'
p6
F3.5447792795713213
sS'VirtualEnergy'
p7
I0
sS'pos_y'
p8
F-92.665999071721217
sb.(i__main__
Data_Stationary
p1
(dp2
S'pos_x'
p3
F109.30406076921406
sS'rapid'
p4
I00
sS'energy'
p5
F10.159428723146707
sS'lastScale'
p6
F3.187395876097638
sS'VirtualEnergy'
p7
I0
sS'pos_y'
p8
F-32.389599007224803
sb.(i__main__
Data_Stationary
p1
(dp2
S'pos_x'
p3
F-139.16985230490695
sS'rapid'
p4
I00
sS'energy'
p5
F10.057196632391864
sS'lastScale'
p6
F3.1713183471009034
sS'VirtualEnergy'
p7
I0
sS'pos_y'
p8
F-71.414165359884521
sb.(i__main__
Data_Stationary
p1
(dp2
S'pos_x'
p3
F-186.59248291879885
sS'rapid'
p4
I00
sS'energy'
p5
F14.523807142705408
sS'lastScale'
p6
F3.8110213018338595
sS'VirtualEnergy'
p7
I0
sS'pos_y'
p8
F-87.86899381379385
sb.(i__main__
Data_Stationary
p1
(dp2
S'pos_x'
p3
F-167.94675630972876
sS'rapid'
p4
I00
sS'energy'
p5
F1.539843373371732
sS'lastScale'
p6
F1.2409142563275106
sS'VirtualEnergy'
p7
I0
sS'pos_y'
p8
F-59.211004489008737
sb.(i__main__
Data_Stationary
p1
(dp2
S'pos_x'
p3
F-80.375622478328836
sS'rapid'
p4
I00
sS'energy'
p5
F7.2335336630099718
sS'lastScale'
p6
F2.6895329433879112
sS'VirtualEnergy'
p7
I0
sS'pos_y'
p8
F-27.988651031940719
sb.(i__main__
Data_Stationary
p1
(dp2
S'pos_x'
p3
F190.5659076621904
sS'rapid'
p4
I00
sS'energy'
p5
F11.764406335883326
sS'lastScale'
p6
F3.4299380365458583
sS'VirtualEnergy'
p7
I0
sS'pos_y'
p8
F53.062743777586945
sb.(i__main__
Data_Stationary
p1
(dp2
S'pos_x'
p3
F31.605376369714264
sS'rapid'
p4
I00
sS'energy'
p5
F8.0676750874422076
sS'lastScale'
p6
F2.8403753088013532
sS'VirtualEnergy'
p7
I0
sS'pos_y'
p8
F83.715438402631634
sb.(i__main__
Data_Stationary
p1
(dp2
S'pos_x'
p3
F100.5023717916331
sS'rapid'
p4
I01
sS'energy'
p5
F7.9000000000000004
sS'lastScale'
p6
F2.8107038645110394
sS'VirtualEnergy'
p7
F4.9323528081858683
sS'pos_y'
p8
F-90.667188217782211
sb.(i__main__
Data_Stationary
p1
(dp2
S'pos_x'
p3
F138.82207244620133
sS'rapid'
p4
I01
sS'energy'
p5
F2
sS'lastScale'
p6
F1.4142235623730952
sS'VirtualEnergy'
p7
F10.316618397728794
sS'pos_y'
p8
F52.463240520011226
sb.