(i__main__
Data_Stationary
p1
(dp2
S'pos_x'
p3
F-20.630068031348799
sS'rapid'
p4
I00
sS'energy'
p5
F2.8550808442783122
sS'lastScale'
p6
F1.6897084477350721
sS'VirtualEnergy'
p7
I0
sS'pos_y'
p8
F88.197340640410431
sb.(i__main__
Data_Stationary
p1
(dp2
S'pos_x'
p3
F-105.58029921834562
sS'rapid'
p4
I00
sS'energy'
p5
F12.617759182160029
sS'lastScale'
p6
F3.5521585304193053
sS'VirtualEnergy'
p7
I0
sS'pos_y'
p8
F37.060996226664429
sb.(i__main__
Data_Stationary
p1
(dp2
S'pos_x'
p3
F-183.02764290730681
sS'rapid'
p4
I00
sS'energy'
p5
F9.6907414960132847
sS'lastScale'
p6
F3.1130055823954015
sS'VirtualEnergy'
p7
I0
sS'pos_y'
p8
F-98.314305972377156
sb.(i__main__
Data_Stationary
p1
(dp2
S'pos_x'
p3
F-92.420130939833058
sS'rapid'
p4
I00
sS'energy'
p5
F4.6920095176287084
sS'lastScale'
p6
F2.1661146875967718
sS'VirtualEnergy'
p7
I0
sS'pos_y'
p8
F-25.087980360199325
sb.(i__main__
Data_Stationary
p1
(dp2
S'pos_x'
p3
F-136.97275414955288
sS'rapid'
p4
I00
sS'energy'
p5
F12.271847659425763
sS'lastScale'
p6
F3.5031297038391029
sS'VirtualEnergy'
p7
I0
sS'pos_y'
p8
F7.3117402307844088
sb.(i__main__
Data_Stationary
p1
(dp2
S'pos_x'
p3
F14.648455048097958
sS'rapid'
p4
I00
sS'energy'
p5
F6.7983624266798097
sS'lastScale'
p6
F2.6073769528242106
sS'VirtualEnergy'
p7
I0
sS'pos_y'
p8
F54.327873886305554
sb.(i__main__
Data_Stationary
p1
(dp2
S'pos_x'
p3
F-182.2558794697668
sS'rapid'
p4
I00
sS'energy'
p5
F8.4585588503808395
sS'lastScale'
p6
F2.9083701651757026
sS'VirtualEnergy'
p7
I0
sS'pos_y'
p8
F-46.661942358732311
sb.(i__main__
Data_Stationary
p1
(dp2
S'pos_x'
p3
F62.145216452966622
sS'rapid'
p4
I00
sS'energy'
p5
F7.0500752230315502
sS'lastScale'
p6
F2.6552077747489076
sS'VirtualEnergy'
p7
I0
sS'pos_y'
p8
F80.562443721201134
sb.(i__main__
Data_Stationary
p1
(dp2
S'pos_x'
p3
F-91.050155603470188
sS'rapid'
p4
I00
sS'energy'
p5
F11.849578361261962
sS'lastScale'
p6
F3.442331652789286
sS'VirtualEnergy'
p7
I0
sS'pos_y'
p8
F69.977063138591433
sb.(i__main__
Data_Stationary
p1
(dp2
S'pos_x'
p3
F-189.34515004651112
sS'rapid'
p4
I00
sS'energy'
p5
F11.030788907499479
sS'lastScale'
p6
F3.3212731493905268
sS'VirtualEnergy'
p7
I0
sS'pos_y'
p8
F51.24034328989643
sb.(i__main__
Data_Stationary
p1
(dp2
S'pos_x'
p3
F-60.706963112498215
sS'rapid'
p4
I00
sS'energy'
p5
F8.1254665918891433
sS'lastScale'
p6
F2.850530407204471
sS'VirtualEnergy'
p7
I0
sS'pos_y'
p8
F63.981794583601555
sb.(i__main__
Data_Stationary
p1
(dp2
S'pos_x'
p3
F32.796593054452387
sS'rapid'
p4
I00
sS'energy'
p5
F9.9514349044120358
sS'lastScale'
p6
F3.15459949855794
sS'VirtualEnergy'
p7
I0
sS'pos_y'
p8
F1.5362755837699638
sb.(i__main__
Data_Stationary
p1
(dp2
S'pos_x'
p3
F-23.428592349730195
sS'rapid'
p4
I00
sS'energy'
p5
F14.748149038792302
sS'lastScale'
p6
F3.8403418917500218
sS'VirtualEnergy'
p7
I0
sS'pos_y'
p8
F-12.030077433371304
sb.(i__main__
Data_Stationary
p1
(dp2
S'pos_x'
p3
F-23.62016541157584
sS'rapid'
p4
I00
sS'energy'
p5
F0.14001118152274716
sS'lastScale'
p6
F0.37419068031733971
sS'VirtualEnergy'
p7
I0
sS'pos_y'
p8
F-73.662324453149495
sb.(i__main__
Data_Stationary
p1
(dp2
S'pos_x'
p3
F-50.516288369445306
sS'rapid'
p4
I00
sS'energy'
p5
F4.8674919342066678
sS'lastScale'
p6
F2.2062493193410972
sS'VirtualEnergy'
p7
I0
sS'pos_y'
p8
F-66.913751781712364
sb.(i__main__
Data_Stationary
p1
(dp2
S'pos_x'
p3
F102.60096011039093
sS'rapid'
p4
I00
sS'energy'
p5
F10.825012107438507
sS'lastScale'
p6
F3.2901486152316601
sS'VirtualEnergy'
p7
I0
sS'pos_y'
p8
F71.868013597274569
sb.(i__main__
Data_Stationary
p1
(dp2
S'pos_x'
p3
F-27.796051882752437
sS'rapid'
p4
I00
sS'energy'
p5
F13.406433611356141
sS'lastScale'
p6
F3.6614897024367266
sS'VirtualEnergy'
p7
I0
sS'pos_y'
p8
F16.513590106434094
sb.(i__main__
Data_Stationary
p1
(dp2
S'pos_x'
p3
F-147.36394814588732
sS'rapid'
p4
I00
sS'energy'
p5
F13.527630657123149
sS'lastScale'
p6
F3.6780027483782711
sS'VirtualEnergy'
p7
I0
sS'pos_y'
p8
F96.653554562953218
sb.(i__main__
Data_Stationary
p1
(dp2
S'pos_x'
p3
F9.090098787258853
sS'rapid'
p4
I00
sS'energy'
p5
F5.7055081020996266
sS'lastScale'
p6
F2.3886305437657165
sS'VirtualEnergy'
p7
I0
sS'pos_y'
p8
F-58.471853914984372
sb.(i__main__
Data_Stationary
p1
(dp2
S'pos_x'
p3
F46.364808510549125
sS'rapid'
p4
I01
sS'energy'
p5
F10
sS'lastScale'
p6
F3.1622876601683796
sS'VirtualEnergy'
p7
F1.7169071463214358
sS'pos_y'
p8
F-35.368529646039562
sb.(i__main__
Data_Stationary
p1
(dp2
S'pos_x'
p3
F57.869912433587274
sS'rapid'
p4
I00
sS'energy'
p5
F8.7623244785255654
sS'lastScale'
p6
F2.9601323755996249
sS'VirtualEnergy'
p7
I0
sS'pos_y'
p8
F24.431132147356507
sb.