(i__main__
Data_Stationary
p1
(dp2
S'pos_x'
p3
F-155.6479187996095
sS'rapid'
p4
I00
sS'energy'
p5
F2.8297461897181213
sS'lastScale'
p6
F1.6821949451585643
sS'VirtualEnergy'
p7
I0
sS'pos_y'
p8
F-66.978277271355523
sb.(i__main__
Data_Stationary
p1
(dp2
S'pos_x'
p3
F-185.67174215111652
sS'rapid'
p4
I00
sS'energy'
p5
F5.2264692772384977
sS'lastScale'
p6
F2.2861572562454278
sS'VirtualEnergy'
p7
I0
sS'pos_y'
p8
F-98.68075100034774
sb.(i__main__
Data_Stationary
p1
(dp2
S'pos_x'
p3
F-190.62893845068723
sS'rapid'
p4
I00
sS'energy'
p5
F1.5416048683597836
sS'lastScale'
p6
F1.2416238161118309
sS'VirtualEnergy'
p7
I0
sS'pos_y'
p8
F56.946774865748182
sb.(i__main__
Data_Stationary
p1
(dp2
S'pos_x'
p3
F-108.87782685630279
sS'rapid'
p4
I00
sS'energy'
p5
F12.445548072270356
sS'lastScale'
p6
F3.5278348358259448
sS'VirtualEnergy'
p7
I0
sS'pos_y'
p8
F76.737670225891037
sb.(i__main__
Data_Stationary
p1
(dp2
S'pos_x'
p3
F-141.30393528863041
sS'rapid'
p4
I00
sS'energy'
p5
F9.4844919854890826
sS'lastScale'
p6
F3.0797002418082702
sS'VirtualEnergy'
p7
I0
sS'pos_y'
p8
F-28.067175428411133
sb.(i__main__
Data_Stationary
p1
(dp2
S'pos_x'
p3
F-45.292140478756124
sS'rapid'
p4
I00
sS'energy'
p5
F2.5596508755655245
sS'lastScale'
p6
F1.5999008948942501
sS'VirtualEnergy'
p7
I0
sS'pos_y'
p8
F-68.59045407270537
sb.(i__main__
Data_Stationary
p1
(dp2
S'pos_x'
p3
F-161.0873226846127
sS'rapid'
p4
I00
sS'energy'
p5
F12.888744257434912
sS'lastScale'
p6
F3.5900997283264262
sS'VirtualEnergy'
p7
I0
sS'pos_y'
p8
F82.907754165948631
sb.(i__main__
Data_Stationary
p1
(dp2
S'pos_x'
p3
F-123.37748977560862
sS'rapid'
p4
I00
sS'energy'
p5
F3.6580984450738345
sS'lastScale'
p6
F1.9126256030613771
sS'VirtualEnergy'
p7
I0
sS'pos_y'
p8
F45.916554556258035
sb.(i__main__
Data_Stationary
p1
(dp2
S'pos_x'
p3
F-117.99159708187244
sS'rapid'
p4
I00
sS'energy'
p5
F10.470797634678568
sS'lastScale'
p6
F3.2358711890312244
sS'VirtualEnergy'
p7
I0
sS'pos_y'
p8
F-83.696843948418362
sb.(i__main__
Data_Stationary
p1
(dp2
S'pos_x'
p3
F-123.48373854585346
sS'rapid'
p4
I00
sS'energy'
p5
F4.7784673567296485
sS'lastScale'
p6
F2.1859805754491868
sS'VirtualEnergy'
p7
I0
sS'pos_y'
p8
F-55.382059156157617
sb.(i__main__
Data_Stationary
p1
(dp2
S'pos_x'
p3
F-198.34676633359663
sS'rapid'
p4
I00
sS'energy'
p5
F9.0207736335672895
sS'lastScale'
p6
F3.0034702766754364
sS'VirtualEnergy'
p7
I0
sS'pos_y'
p8
F90.086360032312683
sb.(i__main__
Data_Stationary
p1
(dp2
S'pos_x'
p3
F-17.231076003247125
sS'rapid'
p4
I00
sS'energy'
p5
F8.1645940157553483
sS'lastScale'
p6
F2.8573853718675726
sS'VirtualEnergy'
p7
I0
sS'pos_y'
p8
F79.285686367523169
sb.(i__main__
Data_Stationary
p1
(dp2
S'pos_x'
p3
F-130.70360380965667
sS'rapid'
p4
I00
sS'energy'
p5
F8.6836083382355511
sS'lastScale'
p6
F2.9468062838030646
sS'VirtualEnergy'
p7
I0
sS'pos_y'
p8
F2.354040913964667
sb.(i__main__
Data_Stationary
p1
(dp2
S'pos_x'
p3
F46.224682904651218
sS'rapid'
p4
I00
sS'energy'
p5
F1.0426544663383512
sS'lastScale'
p6
F1.0211145325226754
sS'VirtualEnergy'
p7
I0
sS'pos_y'
p8
F-83.141720896129186
sb.(i__main__
Data_Stationary
p1
(dp2
S'pos_x'
p3
F146.92782782098556
sS'rapid'
p4
I00
sS'energy'
p5
F3.3097324452311172
sS'lastScale'
p6
F1.8192770076794988
sS'VirtualEnergy'
p7
I0
sS'pos_y'
p8
F-85.841763015650344
sb.(i__main__
Data_Stationary
p1
(dp2
S'pos_x'
p3
F-132.01945442748362
sS'rapid'
p4
I00
sS'energy'
p5
F9.3181415795558351
sS'lastScale'
p6
F3.0525731163918355
sS'VirtualEnergy'
p7
I0
sS'pos_y'
p8
F91.313513112978853
sb.(i__main__
Data_Stationary
p1
(dp2
S'pos_x'
p3
F159.69587462691328
sS'rapid'
p4
I00
sS'energy'
p5
F3.0176206669094561
sS'lastScale'
p6
F1.7371400086376541
sS'VirtualEnergy'
p7
I0
sS'pos_y'
p8
F92.061727587786038
sb.(i__main__
Data_Stationary
p1
(dp2
S'pos_x'
p3
F182.50931436233617
sS'rapid'
p4
I00
sS'energy'
p5
F2.9400370465161005
sS'lastScale'
p6
F1.7146636228976688
sS'VirtualEnergy'
p7
I0
sS'pos_y'
p8
F-2.9382808030684089
sb.(i__main__
Data_Stationary
p1
(dp2
S'pos_x'
p3
F74.980063619557484
sS'rapid'
p4
I00
sS'energy'
p5
F1.9522376886736201
sS'lastScale'
p6
F1.3972349957231729
sS'VirtualEnergy'
p7
I0
sS'pos_y'
p8
F4.1783826086544593
sb.(i__main__
Data_Stationary
p1
(dp2
S'pos_x'
p3
F-42.053199159975662
sS'rapid'
p4
I00
sS'energy'
p5
F3.7543872381522347
sS'lastScale'
p6
F1.9376341219989586
sS'VirtualEnergy'
p7
I0
sS'pos_y'
p8
F47.444805699633548
sb.(i__main__
Data_Stationary
p1
(dp2
S'pos_x'
p3
F51.057081729851546
sS'rapid'
p4
I00
sS'energy'
p5
F3.3182997215009546
sS'lastScale'
p6
F1.8216300815485524
sS'VirtualEnergy'
p7
I0
sS'pos_y'
p8
F43.597160863627749
sb.(i__main__
Data_Stationary
p1
(dp2
S'pos_x'
p3
F-194.15740586366206
sS'rapid'
p4
I00
sS'energy'
p5
F9.9096566455485462
sS'lastScale'
p6
F3.1479707121990175
sS'VirtualEnergy'
p7
I0
sS'pos_y'
p8
F5.3500303483410505
sb.(i__main__
Data_Stationary
p1
(dp2
S'pos_x'
p3
F39.876413660653611
sS'rapid'
p4
I00
sS'energy'
p5
F12.803495945860945
sS'lastScale'
p6
F3.578207303931261
sS'VirtualEnergy'
p7
I0
sS'pos_y'
p8
F95.163979601772581
sb.(i__main__
Data_Stationary
p1
(dp2
S'pos_x'
p3
F187.01684864249853
sS'rapid'
p4
I00
sS'energy'
p5
F11.239058178662065
sS'lastScale'
p6
F3.3524804590289925
sS'VirtualEnergy'
p7
I0
sS'pos_y'
p8
F-95.861674051970198
sb.(i__main__
Data_Stationary
p1
(dp2
S'pos_x'
p3
F17.898969611607896
sS'rapid'
p4
I00
sS'energy'
p5
F11.674463356182374
sS'lastScale'
p6
F3.4168013831813573
sS'VirtualEnergy'
p7
I0
sS'pos_y'
p8
F70.406273407946514
sb.(i__main__
Data_Stationary
p1
(dp2
S'pos_x'
p3
F7.9003569273328651
sS'rapid'
p4
I00
sS'energy'
p5
F1.9001875755695523
sS'lastScale'
p6
F1.3784829143401958
sS'VirtualEnergy'
p7
I0
sS'pos_y'
p8
F-78.477879455998888
sb.(i__main__
Data_Stationary
p1
(dp2
S'pos_x'
p3
F196.26232972986594
sS'rapid'
p4
I00
sS'energy'
p5
F9.5686668337356888
sS'lastScale'
p6
F3.0933361764216993
sS'VirtualEnergy'
p7
I0
sS'pos_y'
p8
F28.080003449599985
sb.(i__main__
Data_Stationary
p1
(dp2
S'pos_x'
p3
F111.31868355320881
sS'rapid'
p4
I00
sS'energy'
p5
F6.8444861836359721
sS'lastScale'
p6
F2.6162068931324667
sS'VirtualEnergy'
p7
I0
sS'pos_y'
p8
F51.061380643485819
sb.(i__main__
Data_Stationary
p1
(dp2
S'pos_x'
p3
F-43.045914057551727
sS'rapid'
p4
I00
sS'energy'
p5
F12.230805196426777
sS'lastScale'
p6
F3.4972668101909212
sS'VirtualEnergy'
p7
I0
sS'pos_y'
p8
F-7.9587327546013711
sb.(i__main__
Data_Stationary
p1
(dp2
S'pos_x'
p3
F13.528875288542707
sS'rapid'
p4
I00
sS'energy'
p5
F4.7807073970014571
sS'lastScale'
p6
F2.1864928828512373
sS'VirtualEnergy'
p7
I0
sS'pos_y'
p8
F-11.815239304823692
sb.(i__main__
Data_Stationary
p1
(dp2
S'pos_x'
p3
F136.46401256177506
sS'rapid'
p4
I00
sS'energy'
p5
F6.7451369545401985
sS'lastScale'
p6
F2.5971501491910671
sS'VirtualEnergy'
p7
I0
sS'pos_y'
p8
F65.561295219103897
sb.(i__main__
Data_Stationary
p1
(dp2
S'pos_x'
p3
F-153.12397706294581
sS'rapid'
p4
I00
sS'energy'
p5
F9.7690005778406448
sS'lastScale'
p6
F3.1255500457905905
sS'VirtualEnergy'
p7
I0
sS'pos_y'
p8
F45.833227956770514
sb.(i__main__
Data_Stationary
p1
(dp2
S'pos_x'
p3
F-23.801707566173263
sS'rapid'
p4
I00
sS'energy'
p5
F10.733890310406956
sS'lastScale'
p6
F3.2762716364397635
sS'VirtualEnergy'
p7
I0
sS'pos_y'
p8
F-49.093828610569432
sb.(i__main__
Data_Stationary
p1
(dp2
S'pos_x'
p3
F77.683269567224954
sS'rapid'
p4
I00
sS'energy'
p5
F10.644712278954984
sS'lastScale'
p6
F3.2626335270032283
sS'VirtualEnergy'
p7
I0
sS'pos_y'
p8
F39.308590970949297
sb.(i__main__
Data_Stationary
p1
(dp2
S'pos_x'
p3
F159.89237701846019
sS'rapid'
p4
I01
sS'energy'
p5
F7.3670285963643893
sS'lastScale'
p6
F2.7142370716291202
sS'VirtualEnergy'
p7
F3.5243510803986453
sS'pos_y'
p8
F-60.445150163452332
sb.(i__main__
Data_Stationary
p1
(dp2
S'pos_x'
p3
F-73.577399333851503
sS'rapid'
p4
I01
sS'energy'
p5
F6.008397396494833
sS'lastScale'
p6
F2.4512132548311518
sS'VirtualEnergy'
p7
F7.3554262379114981
sS'pos_y'
p8
F28.710540728967828
sb.(i__main__
Data_Stationary
p1
(dp2
S'pos_x'
p3
F-19.992336943228452
sS'rapid'
p4
I01
sS'energy'
p5
F3.1199314302070289
sS'lastScale'
p6
F1.7663427631584681
sS'VirtualEnergy'
p7
F10.513842153307653
sS'pos_y'
p8
F32.64539197739623
sb.(i__main__
Data_Stationary
p1
(dp2
S'pos_x'
p3
F52.121833346059788
sS'rapid'
p4
I01
sS'energy'
p5
F3.3276069046873991
sS'lastScale'
p6
F1.8241829371656075
sS'VirtualEnergy'
p7
F3.9307684497252469
sS'pos_y'
p8
F-41.478942738796285
sb.(i__main__
Data_Stationary
p1
(dp2
S'pos_x'
p3
F-89.348626523960519
sS'rapid'
p4
I01
sS'energy'
p5
F2
sS'lastScale'
p6
F1.4142235623730952
sS'VirtualEnergy'
p7
F7.9820717072197471
sS'pos_y'
p8
F-1.0088345048993261
sb.