(i__main__
Data_Stationary
p1
(dp2
S'pos_x'
p3
F185.57628722503267
sS'rapid'
p4
I00
sS'energy'
p5
F1.0446886096326189
sS'lastScale'
p6
F1.0221100976580615
sS'VirtualEnergy'
p7
I0
sS'pos_y'
p8
F-88.7957938097165
sb.(i__main__
Data_Stationary
p1
(dp2
S'pos_x'
p3
F199.35309507162486
sS'rapid'
p4
I00
sS'energy'
p5
F2.017479295570316
sS'lastScale'
p6
F1.4203899828110491
sS'VirtualEnergy'
p7
I0
sS'pos_y'
p8
F-67.89026335388526
sb.(i__main__
Data_Stationary
p1
(dp2
S'pos_x'
p3
F144.92211556232172
sS'rapid'
p4
I00
sS'energy'
p5
F13.699942127722821
sS'lastScale'
p6
F3.7013532869328429
sS'VirtualEnergy'
p7
I0
sS'pos_y'
p8
F33.81808250961663
sb.(i__main__
Data_Stationary
p1
(dp2
S'pos_x'
p3
F192.02684272761917
sS'rapid'
p4
I00
sS'energy'
p5
F9.6644364204452433
sS'lastScale'
p6
F3.1087776691006108
sS'VirtualEnergy'
p7
I0
sS'pos_y'
p8
F-3.3463747109424844
sb.(i__main__
Data_Stationary
p1
(dp2
S'pos_x'
p3
F195.32452918572278
sS'rapid'
p4
I00
sS'energy'
p5
F8.5369335716007981
sS'lastScale'
p6
F2.9218131370372644
sS'VirtualEnergy'
p7
I0
sS'pos_y'
p8
F80.17886166461625
sb.(i__main__
Data_Stationary
p1
(dp2
S'pos_x'
p3
F199.73639037136866
sS'rapid'
p4
I00
sS'energy'
p5
F7.7611987849637636
sS'lastScale'
p6
F2.7859028164887758
sS'VirtualEnergy'
p7
I0
sS'pos_y'
p8
F52.757063978075735
sb.(i__main__
Data_Stationary
p1
(dp2
S'pos_x'
p3
F145.82740141457163
sS'rapid'
p4
I00
sS'energy'
p5
F8.2275474201337246
sS'lastScale'
p6
F2.8683801679061101
sS'VirtualEnergy'
p7
I0
sS'pos_y'
p8
F78.752386661815649
sb.(i__main__
Data_Stationary
p1
(dp2
S'pos_x'
p3
F167.78133244322942
sS'rapid'
p4
I00
sS'energy'
p5
F7.460904490167291
sS'lastScale'
p6
F2.7314756304202863
sS'VirtualEnergy'
p7
I0
sS'pos_y'
p8
F20.379740494698822
sb.(i__main__
Data_Stationary
p1
(dp2
S'pos_x'
p3
F176.27974081995512
sS'rapid'
p4
I00
sS'energy'
p5
F14.288140298518041
sS'lastScale'
p6
F3.7799756477960273
sS'VirtualEnergy'
p7
I0
sS'pos_y'
p8
F97.084564589107771
sb.(i__main__
Data_Stationary
p1
(dp2
S'pos_x'
p3
F171.55003414483815
sS'rapid'
p4
I00
sS'energy'
p5
F12.080183738778571
sS'lastScale'
p6
F3.475665871742565
sS'VirtualEnergy'
p7
I0
sS'pos_y'
p8
F69.667117299188277
sb.(i__main__
Data_Stationary
p1
(dp2
S'pos_x'
p3
F119.82946100639629
sS'rapid'
p4
I00
sS'energy'
p5
F6.5703198760738566
sS'lastScale'
p6
F2.5632735206068564
sS'VirtualEnergy'
p7
I0
sS'pos_y'
p8
F1.4863390752085905
sb.(i__main__
Data_Stationary
p1
(dp2
S'pos_x'
p3
F66.560425001369367
sS'rapid'
p4
I00
sS'energy'
p5
F8.8306251477935938
sS'lastScale'
p6
F2.9716467792503836
sS'VirtualEnergy'
p7
I0
sS'pos_y'
p8
F81.211474923688939
sb.(i__main__
Data_Stationary
p1
(dp2
S'pos_x'
p3
F116.23696181993199
sS'rapid'
p4
I00
sS'energy'
p5
F0.96130809920676563
sS'lastScale'
p6
F0.98047320645232039
sS'VirtualEnergy'
p7
I0
sS'pos_y'
p8
F52.170657430380714
sb.(i__main__
Data_Stationary
p1
(dp2
S'pos_x'
p3
F161.84116506085991
sS'rapid'
p4
I00
sS'energy'
p5
F7.5440412413665792
sS'lastScale'
p6
F2.746651811624985
sS'VirtualEnergy'
p7
I0
sS'pos_y'
p8
F-99.764513578419155
sb.(i__main__
Data_Stationary
p1
(dp2
S'pos_x'
p3
F136.78969844294755
sS'rapid'
p4
I00
sS'energy'
p5
F10.727652591982649
sS'lastScale'
p6
F3.2753195413995071
sS'VirtualEnergy'
p7
I0
sS'pos_y'
p8
F-31.079962163485632
sb.(i__main__
Data_Stationary
p1
(dp2
S'pos_x'
p3
F166.58597225937604
sS'rapid'
p4
I00
sS'energy'
p5
F9.7864780017368691
sS'lastScale'
p6
F3.128344701040934
sS'VirtualEnergy'
p7
I0
sS'pos_y'
p8
F-42.651014430413056
sb.(i__main__
Data_Stationary
p1
(dp2
S'pos_x'
p3
F119.78982685664448
sS'rapid'
p4
I00
sS'energy'
p5
F9.3170651185433258
sS'lastScale'
p6
F3.0523967904548606
sS'VirtualEnergy'
p7
I0
sS'pos_y'
p8
F-61.305074659219791
sb.(i__main__
Data_Stationary
p1
(dp2
S'pos_x'
p3
F159.22855772909548
sS'rapid'
p4
I00
sS'energy'
p5
F13.415404029416138
sS'lastScale'
p6
F3.6627144692980811
sS'VirtualEnergy'
p7
I0
sS'pos_y'
p8
F-14.468575379387374
sb.(i__main__
Data_Stationary
p1
(dp2
S'pos_x'
p3
F82.568030622943297
sS'rapid'
p4
I00
sS'energy'
p5
F5.4855244430320411
sS'lastScale'
p6
F2.3421296474629645
sS'VirtualEnergy'
p7
I0
sS'pos_y'
p8
F-63.430235939075487
sb.(i__main__
Data_Stationary
p1
(dp2
S'pos_x'
p3
F118.17104672621082
sS'rapid'
p4
I00
sS'energy'
p5
F9.8385613348720433
sS'lastScale'
p6
F3.1366581050433506
sS'VirtualEnergy'
p7
I0
sS'pos_y'
p8
F-98.00151295000579
sb.(i__main__
Data_Stationary
p1
(dp2
S'pos_x'
p3
F104.01185912226714
sS'rapid'
p4
I00
sS'energy'
p5
F6.6662572919369314
sS'lastScale'
p6
F2.5819196211790474
sS'VirtualEnergy'
p7
I0
sS'pos_y'
p8
F-25.355152704520137
sb.(i__main__
Data_Stationary
p1
(dp2
S'pos_x'
p3
F14.988409547981661
sS'rapid'
p4
I00
sS'energy'
p5
F7.0225290324691692
sS'lastScale'
p6
F2.6500154778187102
sS'VirtualEnergy'
p7
I0
sS'pos_y'
p8
F-21.677892054235116
sb.(i__main__
Data_Stationary
p1
(dp2
S'pos_x'
p3
F21.894156728156844
sS'rapid'
p4
I00
sS'energy'
p5
F8.6114623418906753
sS'lastScale'
p6
F2.9345393220362741
sS'VirtualEnergy'
p7
I0
sS'pos_y'
p8
F22.712222263260287
sb.(i__main__
Data_Stationary
p1
(dp2
S'pos_x'
p3
F23.38578797623083
sS'rapid'
p4
I00
sS'energy'
p5
F8.2890065567007181
sS'lastScale'
p6
F2.879073486049017
sS'VirtualEnergy'
p7
I0
sS'pos_y'
p8
F83.168230384830423
sb.(i__main__
Data_Stationary
p1
(dp2
S'pos_x'
p3
F-80.158563613047733
sS'rapid'
p4
I00
sS'energy'
p5
F4.4263440554118629
sS'lastScale'
p6
F2.1038978428784798
sS'VirtualEnergy'
p7
I0
sS'pos_y'
p8
F-35.512337792967941
sb.(i__main__
Data_Stationary
p1
(dp2
S'pos_x'
p3
F-66.431426403214999
sS'rapid'
p4
I00
sS'energy'
p5
F7.1212922492627815
sS'lastScale'
p6
F2.6685849472823095
sS'VirtualEnergy'
p7
I0
sS'pos_y'
p8
F-61.170745278910069
sb.(i__main__
Data_Stationary
p1
(dp2
S'pos_x'
p3
F-68.78490222347682
sS'rapid'
p4
I00
sS'energy'
p5
F1.9056094208580991
sS'lastScale'
p6
F1.3804481264142552
sS'VirtualEnergy'
p7
I0
sS'pos_y'
p8
F28.672535969850372
sb.(i__main__
Data_Stationary
p1
(dp2
S'pos_x'
p3
F-39.796631556608077
sS'rapid'
p4
I00
sS'energy'
p5
F8.057395435267269
sS'lastScale'
p6
F2.8385651668528955
sS'VirtualEnergy'
p7
I0
sS'pos_y'
p8
F21.780716383082293
sb.(i__main__
Data_Stationary
p1
(dp2
S'pos_x'
p3
F-120.94498794252972
sS'rapid'
p4
I00
sS'energy'
p5
F8.6299091952687537
sS'lastScale'
p6
F2.937680709128025
sS'VirtualEnergy'
p7
I0
sS'pos_y'
p8
F29.859662525367327
sb.(i__main__
Data_Stationary
p1
(dp2
S'pos_x'
p3
F-55.779472853709734
sS'rapid'
p4
I00
sS'energy'
p5
F8.1757506747998221
sS'lastScale'
p6
F2.8593369618565525
sS'VirtualEnergy'
p7
I0
sS'pos_y'
p8
F51.052453923778501
sb.(i__main__
Data_Stationary
p1
(dp2
S'pos_x'
p3
F23.611353799446022
sS'rapid'
p4
I00
sS'energy'
p5
F13.649292621090533
sS'lastScale'
p6
F3.6945049074387062
sS'VirtualEnergy'
p7
I0
sS'pos_y'
p8
F-74.539593149586111
sb.(i__main__
Data_Stationary
p1
(dp2
S'pos_x'
p3
F76.179608580384865
sS'rapid'
p4
I00
sS'energy'
p5
F11.027482261756692
sS'lastScale'
p6
F3.3207753126586184
sS'VirtualEnergy'
p7
I0
sS'pos_y'
p8
F-16.761464621559071
sb.(i__main__
Data_Stationary
p1
(dp2
S'pos_x'
p3
F-25.804349372667531
sS'rapid'
p4
I00
sS'energy'
p5
F11.63816209079182
sS'lastScale'
p6
F3.4114850608485798
sS'VirtualEnergy'
p7
I0
sS'pos_y'
p8
F-92.986881986012591
sb.(i__main__
Data_Stationary
p1
(dp2
S'pos_x'
p3
F54.979863337142064
sS'rapid'
p4
I00
sS'energy'
p5
F14.090739575853664
sS'lastScale'
p6
F3.7537733883682205
sS'VirtualEnergy'
p7
I0
sS'pos_y'
p8
F-41.732242482051674
sb.(i__main__
Data_Stationary
p1
(dp2
S'pos_x'
p3
F-160.69499057813718
sS'rapid'
p4
I01
sS'energy'
p5
F2
sS'lastScale'
p6
F1.4142235623730952
sS'VirtualEnergy'
p7
F12.732707580304297
sS'pos_y'
p8
F27.704766652683873
sb.