(i__main__
Data_Stationary
p1
(dp2
S'pos_x'
p3
F-186.39566998355824
sS'rapid'
p4
I00
sS'energy'
p5
F8.1885423246035671
sS'lastScale'
p6
F2.8615729164153576
sS'VirtualEnergy'
p7
I0
sS'pos_y'
p8
F-95.849229058484411
sb.(i__main__
Data_Stationary
p1
(dp2
S'pos_x'
p3
F35.110991745013592
sS'rapid'
p4
I00
sS'energy'
p5
F13.04242139867122
sS'lastScale'
p6
F3.61143927366316
sS'VirtualEnergy'
p7
I0
sS'pos_y'
p8
F-96.651256664840062
sb.(i__main__
Data_Stationary
p1
(dp2
S'pos_x'
p3
F-17.00031478261397
sS'rapid'
p4
I00
sS'energy'
p5
F0.8712748749983299
sS'lastScale'
p6
F0.93343105986437325
sS'VirtualEnergy'
p7
I0
sS'pos_y'
p8
F-96.576267447631011
sb.(i__main__
Data_Stationary
p1
(dp2
S'pos_x'
p3
F-18.374178748532444
sS'rapid'
p4
I00
sS'energy'
p5
F3.4864549987652413
sS'lastScale'
p6
F1.867215130339257
sS'VirtualEnergy'
p7
I0
sS'pos_y'
p8
F-61.219334270780593
sb.(i__main__
Data_Stationary
p1
(dp2
S'pos_x'
p3
F188.45839840096994
sS'rapid'
p4
I00
sS'energy'
p5
F3.2426118236780375
sS'lastScale'
p6
F1.8007353604250809
sS'VirtualEnergy'
p7
I0
sS'pos_y'
p8
F52.236126632488833
sb.(i__main__
Data_Stationary
p1
(dp2
S'pos_x'
p3
F185.66986580587985
sS'rapid'
p4
I00
sS'energy'
p5
F2.9735050042897688
sS'lastScale'
p6
F1.7243953990015599
sS'VirtualEnergy'
p7
I0
sS'pos_y'
p8
F79.590790018667548
sb.(i__main__
Data_Stationary
p1
(dp2
S'pos_x'
p3
F103.17515438588356
sS'rapid'
p4
I00
sS'energy'
p5
F3.0908161785584891
sS'lastScale'
p6
F1.7580817216764761
sS'VirtualEnergy'
p7
I0
sS'pos_y'
p8
F56.910329741027113
sb.(i__main__
Data_Stationary
p1
(dp2
S'pos_x'
p3
F-49.889863876766725
sS'rapid'
p4
I00
sS'energy'
p5
F11.460175321755692
sS'lastScale'
p6
F3.3852980707194908
sS'VirtualEnergy'
p7
I0
sS'pos_y'
p8
F-92.387414474249582
sb.(i__main__
Data_Stationary
p1
(dp2
S'pos_x'
p3
F147.27152923731347
sS'rapid'
p4
I00
sS'energy'
p5
F6.1507612999659349
sS'lastScale'
p6
F2.480082841665328
sS'VirtualEnergy'
p7
I0
sS'pos_y'
p8
F-24.487040540197029
sb.(i__main__
Data_Stationary
p1
(dp2
S'pos_x'
p3
F-45.037758659771129
sS'rapid'
p4
I00
sS'energy'
p5
F0.64471673056935419
sS'lastScale'
p6
F0.8029525449989271
sS'VirtualEnergy'
p7
I0
sS'pos_y'
p8
F-43.650689826232615
sb.(i__main__
Data_Stationary
p1
(dp2
S'pos_x'
p3
F-139.85539452867917
sS'rapid'
p4
I00
sS'energy'
p5
F6.9711965671413427
sS'lastScale'
p6
F2.6403123628253913
sS'VirtualEnergy'
p7
I0
sS'pos_y'
p8
F7.2192489692597803
sb.(i__main__
Data_Stationary
p1
(dp2
S'pos_x'
p3
F190.00467905492985
sS'rapid'
p4
I00
sS'energy'
p5
F6.3360722930066142
sS'lastScale'
p6
F2.5171655957085002
sS'VirtualEnergy'
p7
I0
sS'pos_y'
p8
F-95.12121423917182
sb.(i__main__
Data_Stationary
p1
(dp2
S'pos_x'
p3
F122.93289521462015
sS'rapid'
p4
I00
sS'energy'
p5
F9.5214474987148154
sS'lastScale'
p6
F3.0856942837067463
sS'VirtualEnergy'
p7
I0
sS'pos_y'
p8
F-72.09009572621747
sb.(i__main__
Data_Stationary
p1
(dp2
S'pos_x'
p3
F125.53036683095769
sS'rapid'
p4
I00
sS'energy'
p5
F6.4481912423038867
sS'lastScale'
p6
F2.5393388960479082
sS'VirtualEnergy'
p7
I0
sS'pos_y'
p8
F-44.552182536774424
sb.(i__main__
Data_Stationary
p1
(dp2
S'pos_x'
p3
F-55.400369025329553
sS'rapid'
p4
I00
sS'energy'
p5
F14.807722043411541
sS'lastScale'
p6
F3.848090306258114
sS'VirtualEnergy'
p7
I0
sS'pos_y'
p8
F79.994578777715844
sb.(i__main__
Data_Stationary
p1
(dp2
S'pos_x'
p3
F109.17308406259696
sS'rapid'
p4
I00
sS'energy'
p5
F14.213797752957456
sS'lastScale'
p6
F3.7701290634988514
sS'VirtualEnergy'
p7
I0
sS'pos_y'
p8
F-97.037557181707655
sb.(i__main__
Data_Stationary
p1
(dp2
S'pos_x'
p3
F-120.34248559988558
sS'rapid'
p4
I00
sS'energy'
p5
F6.8118557990443467
sS'lastScale'
p6
F2.609963217788462
sS'VirtualEnergy'
p7
I0
sS'pos_y'
p8
F-98.561717042215506
sb.(i__main__
Data_Stationary
p1
(dp2
S'pos_x'
p3
F3.161224515125781
sS'rapid'
p4
I00
sS'energy'
p5
F10.636542426809577
sS'lastScale'
p6
F3.2613812494608116
sS'VirtualEnergy'
p7
I0
sS'pos_y'
p8
F-81.671205628213841
sb.(i__main__
Data_Stationary
p1
(dp2
S'pos_x'
p3
F75.67122231750767
sS'rapid'
p4
I00
sS'energy'
p5
F10.769365074488437
sS'lastScale'
p6
F3.2816810795703519
sS'VirtualEnergy'
p7
I0
sS'pos_y'
p8
F-36.618673915628278
sb.(i__main__
Data_Stationary
p1
(dp2
S'pos_x'
p3
F-173.63875812867886
sS'rapid'
p4
I00
sS'energy'
p5
F6.2836934771177564
sS'lastScale'
p6
F2.5067396378185176
sS'VirtualEnergy'
p7
I0
sS'pos_y'
p8
F6.0508233227277657
sb.(i__main__
Data_Stationary
p1
(dp2
S'pos_x'
p3
F138.8852917922602
sS'rapid'
p4
I00
sS'energy'
p5
F1.5867479103406459
sS'lastScale'
p6
F1.2596718238005968
sS'VirtualEnergy'
p7
I0
sS'pos_y'
p8
F91.604703482117031
sb.(i__main__
Data_Stationary
p1
(dp2
S'pos_x'
p3
F139.26765050809178
sS'rapid'
p4
I00
sS'energy'
p5
F3.4171175028477996
sS'lastScale'
p6
F1.848554698633982
sS'VirtualEnergy'
p7
I0
sS'pos_y'
p8
F3.4852036453162754
sb.(i__main__
Data_Stationary
p1
(dp2
S'pos_x'
p3
F159.00686199072732
sS'rapid'
p4
I00
sS'energy'
p5
F8.9055430397593156
sS'lastScale'
p6
F2.9842256490038244
sS'VirtualEnergy'
p7
I0
sS'pos_y'
p8
F-62.537651661857296
sb.(i__main__
Data_Stationary
p1
(dp2
S'pos_x'
p3
F-19.020267985040903
sS'rapid'
p4
I00
sS'energy'
p5
F9.0499851014820418
sS'lastScale'
p6
F3.0083293150797741
sS'VirtualEnergy'
p7
I0
sS'pos_y'
p8
F19.461103864577552
sb.(i__main__
Data_Stationary
p1
(dp2
S'pos_x'
p3
F-131.97948554647002
sS'rapid'
p4
I00
sS'energy'
p5
F11.783990544416255
sS'lastScale'
p6
F3.4327917501869027
sS'VirtualEnergy'
p7
I0
sS'pos_y'
p8
F38.783349258322886
sb.(i__main__
Data_Stationary
p1
(dp2
S'pos_x'
p3
F-57.703446905609098
sS'rapid'
p4
I00
sS'energy'
p5
F10.845103220463887
sS'lastScale'
p6
F3.2932004318553898
sS'VirtualEnergy'
p7
I0
sS'pos_y'
p8
F48.699350079149355
sb.(i__main__
Data_Stationary
p1
(dp2
S'pos_x'
p3
F52.250608593521321
sS'rapid'
p4
I00
sS'energy'
p5
F8.1314171306442482
sS'lastScale'
p6
F2.8515739797564157
sS'VirtualEnergy'
p7
I0
sS'pos_y'
p8
F23.882105905862488
sb.(i__main__
Data_Stationary
p1
(dp2
S'pos_x'
p3
F-10.080275045473513
sS'rapid'
p4
I00
sS'energy'
p5
F9.6395964468435302
sS'lastScale'
p6
F3.1047799507118929
sS'VirtualEnergy'
p7
I0
sS'pos_y'
p8
F-4.01749641820264
sb.(i__main__
Data_Stationary
p1
(dp2
S'pos_x'
p3
F-162.65489003800798
sS'rapid'
p4
I00
sS'energy'
p5
F8.1154302870422441
sS'lastScale'
p6
F2.8487694294784256
sS'VirtualEnergy'
p7
I0
sS'pos_y'
p8
F31.535593109550177
sb.(i__main__
Data_Stationary
p1
(dp2
S'pos_x'
p3
F-193.88725354021105
sS'rapid'
p4
I00
sS'energy'
p5
F9.0432346090876727
sS'lastScale'
p6
F3.007207135055777
sS'VirtualEnergy'
p7
I0
sS'pos_y'
p8
F35.365572244166458
sb.(i__main__
Data_Stationary
p1
(dp2
S'pos_x'
p3
F89.392194701786991
sS'rapid'
p4
I00
sS'energy'
p5
F13.73524081346322
sS'lastScale'
p6
F3.7061185809057484
sS'VirtualEnergy'
p7
I0
sS'pos_y'
p8
F-72.963891090636537
sb.(i__main__
Data_Stationary
p1
(dp2
S'pos_x'
p3
F-164.3683885048535
sS'rapid'
p4
I00
sS'energy'
p5
F11.477553371833521
sS'lastScale'
p6
F3.3878638002448573
sS'VirtualEnergy'
p7
I0
sS'pos_y'
p8
F59.236656807367751
sb.(i__main__
Data_Stationary
p1
(dp2
S'pos_x'
p3
F159.85522568186082
sS'rapid'
p4
I00
sS'energy'
p5
F10.565330727950029
sS'lastScale'
p6
F3.2504454674335603
sS'VirtualEnergy'
p7
I0
sS'pos_y'
p8
F-87.664302083787661
sb.(i__main__
Data_Stationary
p1
(dp2
S'pos_x'
p3
F-82.063976550687684
sS'rapid'
p4
I01
sS'energy'
p5
F8
sS'lastScale'
p6
F2.8284371247461904
sS'VirtualEnergy'
p7
F6.8187064231826078
sS'pos_y'
p8
F-22.961690730367195
sb.(i__main__
Data_Stationary
p1
(dp2
S'pos_x'
p3
F-95.561136066805346
sS'rapid'
p4
I01
sS'energy'
p5
F2.5
sS'lastScale'
p6
F1.5811488300841898
sS'VirtualEnergy'
p7
F6.4616346110059997
sS'pos_y'
p8
F-75.957452596379824
sb.