(i__main__
Data_Stationary
p1
(dp2
S'pos_x'
p3
F-141.71923618372699
sS'rapid'
p4
I00
sS'energy'
p5
F9.4108728061556999
sS'lastScale'
p6
F3.0677245900744579
sS'VirtualEnergy'
p7
I0
sS'pos_y'
p8
F-86.97205732486475
sb.(i__main__
Data_Stationary
p1
(dp2
S'pos_x'
p3
F-159.23946838249952
sS'rapid'
p4
I00
sS'energy'
p5
F8.711973264714338
sS'lastScale'
p6
F2.9516152013632073
sS'VirtualEnergy'
p7
I0
sS'pos_y'
p8
F-7.4497686410026205
sb.(i__main__
Data_Stationary
p1
(dp2
S'pos_x'
p3
F-155.67099254218047
sS'rapid'
p4
I00
sS'energy'
p5
F12.131077736151852
sS'lastScale'
p6
F3.4829796720114938
sS'VirtualEnergy'
p7
I0
sS'pos_y'
p8
F-43.8218889867507
sb.(i__main__
Data_Stationary
p1
(dp2
S'pos_x'
p3
F131.32419204368898
sS'rapid'
p4
I00
sS'energy'
p5
F13.949806148690026
sS'lastScale'
p6
F3.7349539284532809
sS'VirtualEnergy'
p7
I0
sS'pos_y'
p8
F-90.707436595996597
sb.(i__main__
Data_Stationary
p1
(dp2
S'pos_x'
p3
F-197.55349089917377
sS'rapid'
p4
I00
sS'energy'
p5
F7.6383236782073016
sS'lastScale'
p6
F2.7637617396118093
sS'VirtualEnergy'
p7
I0
sS'pos_y'
p8
F22.824069559657076
sb.(i__main__
Data_Stationary
p1
(dp2
S'pos_x'
p3
F80.631870186620631
sS'rapid'
p4
I00
sS'energy'
p5
F11.686177318284116
sS'lastScale'
p6
F3.4185151291879197
sS'VirtualEnergy'
p7
I0
sS'pos_y'
p8
F-96.540399680361261
sb.(i__main__
Data_Stationary
p1
(dp2
S'pos_x'
p3
F60.48506837682595
sS'rapid'
p4
I00
sS'energy'
p5
F9.6251064978787557
sS'lastScale'
p6
F3.1024455751375011
sS'VirtualEnergy'
p7
I0
sS'pos_y'
p8
F-53.943733209087675
sb.(i__main__
Data_Stationary
p1
(dp2
S'pos_x'
p3
F198.76348843758802
sS'rapid'
p4
I00
sS'energy'
p5
F5.3623663345219859
sS'lastScale'
p6
F2.3156883745852932
sS'VirtualEnergy'
p7
I0
sS'pos_y'
p8
F29.845456562357896
sb.(i__main__
Data_Stationary
p1
(dp2
S'pos_x'
p3
F186.31756752006271
sS'rapid'
p4
I00
sS'energy'
p5
F9.3389751920453143
sS'lastScale'
p6
F3.0559836896847319
sS'VirtualEnergy'
p7
I0
sS'pos_y'
p8
F-94.769634348688285
sb.(i__main__
Data_Stationary
p1
(dp2
S'pos_x'
p3
F13.062562591033299
sS'rapid'
p4
I00
sS'energy'
p5
F9.9856507872488827
sS'lastScale'
p6
F3.1600180359468841
sS'VirtualEnergy'
p7
I0
sS'pos_y'
p8
F-63.673312789597873
sb.(i__main__
Data_Stationary
p1
(dp2
S'pos_x'
p3
F-65.821860999484727
sS'rapid'
p4
I00
sS'energy'
p5
F13.977241873261111
sS'lastScale'
p6
F3.7386249672386849
sS'VirtualEnergy'
p7
I0
sS'pos_y'
p8
F-49.747000585095421
sb.(i__main__
Data_Stationary
p1
(dp2
S'pos_x'
p3
F-97.424858540354137
sS'rapid'
p4
I00
sS'energy'
p5
F14.889088289254399
sS'lastScale'
p6
F3.8586481391955374
sS'VirtualEnergy'
p7
I0
sS'pos_y'
p8
F-13.354086823897603
sb.(i__main__
Data_Stationary
p1
(dp2
S'pos_x'
p3
F-196.78313933847627
sS'rapid'
p4
I00
sS'energy'
p5
F10.752904527596339
sS'lastScale'
p6
F3.2791721685418884
sS'VirtualEnergy'
p7
I0
sS'pos_y'
p8
F-58.215707962368299
sb.(i__main__
Data_Stationary
p1
(dp2
S'pos_x'
p3
F45.936239161083392
sS'rapid'
p4
I00
sS'energy'
p5
F13.302554084315506
sS'lastScale'
p6
F3.6472766593375794
sS'VirtualEnergy'
p7
I0
sS'pos_y'
p8
F-32.15833978641669
sb.(i__main__
Data_Stationary
p1
(dp2
S'pos_x'
p3
F-109.69246756927373
sS'rapid'
p4
I00
sS'energy'
p5
F13.383958707966167
sS'lastScale'
p6
F3.6584193138912391
sS'VirtualEnergy'
p7
I0
sS'pos_y'
p8
F39.846536279310243
sb.(i__main__
Data_Stationary
p1
(dp2
S'pos_x'
p3
F-87.630648793709128
sS'rapid'
p4
I00
sS'energy'
p5
F7.6038856545217497
sS'lastScale'
p6
F2.7575243978811335
sS'VirtualEnergy'
p7
I0
sS'pos_y'
p8
F-93.629033332791096
sb.(i__main__
Data_Stationary
p1
(dp2
S'pos_x'
p3
F174.51197829068172
sS'rapid'
p4
I00
sS'energy'
p5
F10.421957727436856
sS'lastScale'
p6
F3.228315705387403
sS'VirtualEnergy'
p7
I0
sS'pos_y'
p8
F-54.404444513611175
sb.(i__main__
Data_Stationary
p1
(dp2
S'pos_x'
p3
F0.23795494664992134
sS'rapid'
p4
I00
sS'energy'
p5
F8.6813764600344712
sS'lastScale'
p6
F2.9464275637601793
sS'VirtualEnergy'
p7
I0
sS'pos_y'
p8
F97.930659257077281
sb.