(i__main__
Data_Stationary
p1
(dp2
S'pos_x'
p3
F154.29281488670051
sS'rapid'
p4
I00
sS'energy'
p5
F11.426093811426274
sS'lastScale'
p6
F3.3802605545338311
sS'VirtualEnergy'
p7
I0
sS'pos_y'
p8
F14.340563785991733
sb.(i__main__
Data_Stationary
p1
(dp2
S'pos_x'
p3
F197.41042805531123
sS'rapid'
p4
I00
sS'energy'
p5
F0.83498039791347645
sS'lastScale'
p6
F0.91378261827736795
sS'VirtualEnergy'
p7
I0
sS'pos_y'
p8
F38.996582297486384
sb.(i__main__
Data_Stationary
p1
(dp2
S'pos_x'
p3
F179.58067020307044
sS'rapid'
p4
I00
sS'energy'
p5
F14.893131630236635
sS'lastScale'
p6
F3.8591720373128457
sS'VirtualEnergy'
p7
I0
sS'pos_y'
p8
F20.959636607919933
sb.(i__main__
Data_Stationary
p1
(dp2
S'pos_x'
p3
F-194.06017899018403
sS'rapid'
p4
I00
sS'energy'
p5
F8.45853636207233
sS'lastScale'
p6
F2.9083662990239572
sS'VirtualEnergy'
p7
I0
sS'pos_y'
p8
F78.791428530028327
sb.(i__main__
Data_Stationary
p1
(dp2
S'pos_x'
p3
F153.91490005254195
sS'rapid'
p4
I00
sS'energy'
p5
F4.9883837651469083
sS'lastScale'
p6
F2.2334789980268157
sS'VirtualEnergy'
p7
I0
sS'pos_y'
p8
F-39.587065051252225
sb.(i__main__
Data_Stationary
p1
(dp2
S'pos_x'
p3
F185.21896279100315
sS'rapid'
p4
I00
sS'energy'
p5
F9.4726731165792195
sS'lastScale'
p6
F3.077780803126708
sS'VirtualEnergy'
p7
I0
sS'pos_y'
p8
F96.325555759156401
sb.(i__main__
Data_Stationary
p1
(dp2
S'pos_x'
p3
F196.40252752256686
sS'rapid'
p4
I00
sS'energy'
p5
F8.3143895486289701
sS'lastScale'
p6
F2.8834783193385305
sS'VirtualEnergy'
p7
I0
sS'pos_y'
p8
F64.028551215372261
sb.(i__main__
Data_Stationary
p1
(dp2
S'pos_x'
p3
F76.866604745468749
sS'rapid'
p4
I00
sS'energy'
p5
F7.2311206772864205
sS'lastScale'
p6
F2.6890843160586733
sS'VirtualEnergy'
p7
I0
sS'pos_y'
p8
F88.876072101887161
sb.(i__main__
Data_Stationary
p1
(dp2
S'pos_x'
p3
F145.39733286979157
sS'rapid'
p4
I00
sS'energy'
p5
F11.291276907204317
sS'lastScale'
p6
F3.3602595304968523
sS'VirtualEnergy'
p7
I0
sS'pos_y'
p8
F-11.259069275943759
sb.(i__main__
Data_Stationary
p1
(dp2
S'pos_x'
p3
F107.58039344423531
sS'rapid'
p4
I00
sS'energy'
p5
F4.1816782901983229
sS'lastScale'
p6
F2.0449252281203059
sS'VirtualEnergy'
p7
I0
sS'pos_y'
p8
F21.68742378960134
sb.(i__main__
Data_Stationary
p1
(dp2
S'pos_x'
p3
F137.29800135086163
sS'rapid'
p4
I00
sS'energy'
p5
F8.7081442281760921
sS'lastScale'
p6
F2.9509664937789397
sS'VirtualEnergy'
p7
I0
sS'pos_y'
p8
F99.607966763127052
sb.(i__main__
Data_Stationary
p1
(dp2
S'pos_x'
p3
F73.960737010137677
sS'rapid'
p4
I00
sS'energy'
p5
F14.772095545472791
sS'lastScale'
p6
F3.8434583924560233
sS'VirtualEnergy'
p7
I0
sS'pos_y'
p8
F59.56673136977787
sb.(i__main__
Data_Stationary
p1
(dp2
S'pos_x'
p3
F79.056262684322576
sS'rapid'
p4
I00
sS'energy'
p5
F5.9156457501574851
sS'lastScale'
p6
F2.4322200546945951
sS'VirtualEnergy'
p7
I0
sS'pos_y'
p8
F-30.511125195787045
sb.(i__main__
Data_Stationary
p1
(dp2
S'pos_x'
p3
F28.365716130244863
sS'rapid'
p4
I00
sS'energy'
p5
F3.4591652687170296
sS'lastScale'
p6
F1.8598931330804174
sS'VirtualEnergy'
p7
I0
sS'pos_y'
p8
F69.160452332890856
sb.(i__main__
Data_Stationary
p1
(dp2
S'pos_x'
p3
F54.878447611408319
sS'rapid'
p4
I00
sS'energy'
p5
F5.3316753100870899
sS'lastScale'
p6
F2.3090520762920477
sS'VirtualEnergy'
p7
I0
sS'pos_y'
p8
F-13.938325023862788
sb.(i__main__
Data_Stationary
p1
(dp2
S'pos_x'
p3
F40.278358344313801
sS'rapid'
p4
I00
sS'energy'
p5
F7.5701887611512628
sS'lastScale'
p6
F2.7514076014293649
sS'VirtualEnergy'
p7
I0
sS'pos_y'
p8
F94.663336839149167
sb.(i__main__
Data_Stationary
p1
(dp2
S'pos_x'
p3
F133.72659409810092
sS'rapid'
p4
I00
sS'energy'
p5
F13.180239955316244
sS'lastScale'
p6
F3.6304700197931177
sS'VirtualEnergy'
p7
I0
sS'pos_y'
p8
F52.320122709365023
sb.(i__main__
Data_Stationary
p1
(dp2
S'pos_x'
p3
F94.742995373915278
sS'rapid'
p4
I00
sS'energy'
p5
F6.5516169544214948
sS'lastScale'
p6
F2.5596226571068317
sS'VirtualEnergy'
p7
I0
sS'pos_y'
p8
F-6.5278097360777991
sb.(i__main__
Data_Stationary
p1
(dp2
S'pos_x'
p3
F74.360545783608757
sS'rapid'
p4
I00
sS'energy'
p5
F1.9736883582572267
sS'lastScale'
p6
F1.4048901935600155
sS'VirtualEnergy'
p7
I0
sS'pos_y'
p8
F29.571653841098993
sb.(i__main__
Data_Stationary
p1
(dp2
S'pos_x'
p3
F170.48652578760823
sS'rapid'
p4
I00
sS'energy'
p5
F14.100588519928456
sS'lastScale'
p6
F3.7550850351928329
sS'VirtualEnergy'
p7
I0
sS'pos_y'
p8
F44.856924982215332
sb.(i__main__
Data_Stationary
p1
(dp2
S'pos_x'
p3
F-195.988520211815
sS'rapid'
p4
I00
sS'energy'
p5
F4.8796397441820893
sS'lastScale'
p6
F2.2090006618594136
sS'VirtualEnergy'
p7
I0
sS'pos_y'
p8
F11.259864027675022
sb.(i__main__
Data_Stationary
p1
(dp2
S'pos_x'
p3
F-19.251644820932341
sS'rapid'
p4
I00
sS'energy'
p5
F8.273056877598588
sS'lastScale'
p6
F2.8763022100507429
sS'VirtualEnergy'
p7
I0
sS'pos_y'
p8
F-98.611645959238643
sb.(i__main__
Data_Stationary
p1
(dp2
S'pos_x'
p3
F116.51963421705409
sS'rapid'
p4
I00
sS'energy'
p5
F10.872294834078495
sS'lastScale'
p6
F3.2973263078598474
sS'VirtualEnergy'
p7
I0
sS'pos_y'
p8
F-90.273605938488657
sb.(i__main__
Data_Stationary
p1
(dp2
S'pos_x'
p3
F-95.218170458403193
sS'rapid'
p4
I00
sS'energy'
p5
F10.19639996949701
sS'lastScale'
p6
F3.1931902281576607
sS'VirtualEnergy'
p7
I0
sS'pos_y'
p8
F57.577957042132653
sb.(i__main__
Data_Stationary
p1
(dp2
S'pos_x'
p3
F183.55985971298674
sS'rapid'
p4
I00
sS'energy'
p5
F11.213673632730453
sS'lastScale'
p6
F3.3486923726251572
sS'VirtualEnergy'
p7
I0
sS'pos_y'
p8
F-45.200089354160802
sb.(i__main__
Data_Stationary
p1
(dp2
S'pos_x'
p3
F-87.93811259453102
sS'rapid'
p4
I00
sS'energy'
p5
F13.578813973957555
sS'lastScale'
p6
F3.6849542294229578
sS'VirtualEnergy'
p7
I0
sS'pos_y'
p8
F-56.955347461137372
sb.(i__main__
Data_Stationary
p1
(dp2
S'pos_x'
p3
F-71.526983529432272
sS'rapid'
p4
I00
sS'energy'
p5
F8.335726959658377
sS'lastScale'
p6
F2.8871759044222549
sS'VirtualEnergy'
p7
I0
sS'pos_y'
p8
F-85.551526527598412
sb.(i__main__
Data_Stationary
p1
(dp2
S'pos_x'
p3
F170.48467740457642
sS'rapid'
p4
I00
sS'energy'
p5
F9.5861113303498904
sS'lastScale'
p6
F3.0961545913183528
sS'VirtualEnergy'
p7
I0
sS'pos_y'
p8
F-75.279120350956362
sb.(i__main__
Data_Stationary
p1
(dp2
S'pos_x'
p3
F-61.872555261976316
sS'rapid'
p4
I00
sS'energy'
p5
F8.3179389746856938
sS'lastScale'
p6
F2.8840937322598132
sS'VirtualEnergy'
p7
I0
sS'pos_y'
p8
F62.566108506105195
sb.(i__main__
Data_Stationary
p1
(dp2
S'pos_x'
p3
F-135.54528519616014
sS'rapid'
p4
I00
sS'energy'
p5
F9.3082183491795742
sS'lastScale'
p6
F3.0509472902731996
sS'VirtualEnergy'
p7
I0
sS'pos_y'
p8
F49.185318490694101
sb.(i__main__
Data_Stationary
p1
(dp2
S'pos_x'
p3
F-53.99915105039392
sS'rapid'
p4
I00
sS'energy'
p5
F5.5798010502412492
sS'lastScale'
p6
F2.3621702507537989
sS'VirtualEnergy'
p7
I0
sS'pos_y'
p8
F-34.618610217244282
sb.(i__main__
Data_Stationary
p1
(dp2
S'pos_x'
p3
F-18.75773768747564
sS'rapid'
p4
I00
sS'energy'
p5
F14.728574453542326
sS'lastScale'
p6
F3.8377924916926083
sS'VirtualEnergy'
p7
I0
sS'pos_y'
p8
F94.992663147270491
sb.(i__main__
Data_Stationary
p1
(dp2
S'pos_x'
p3
F6.0160382048588019
sS'rapid'
p4
I01
sS'energy'
p5
F4
sS'lastScale'
p6
F2.0000100000000001
sS'VirtualEnergy'
p7
F8.5413413760413945
sS'pos_y'
p8
F-80.454448554503259
sb.