(i__main__
Data_Stationary
p1
(dp2
S'pos_x'
p3
F-192.78427967409013
sS'rapid'
p4
I00
sS'energy'
p5
F7.9942205535979571
sS'lastScale'
p6
F2.8274152687221825
sS'VirtualEnergy'
p7
I0
sS'pos_y'
p8
F-36.50596002507065
sb.(i__main__
Data_Stationary
p1
(dp2
S'pos_x'
p3
F-199.12944880573326
sS'rapid'
p4
I00
sS'energy'
p5
F12.253444527909579
sS'lastScale'
p6
F3.500502040829343
sS'VirtualEnergy'
p7
I0
sS'pos_y'
p8
F2.3718303435960024
sb.(i__main__
Data_Stationary
p1
(dp2
S'pos_x'
p3
F-189.62149547431011
sS'rapid'
p4
I00
sS'energy'
p5
F14.02745520935953
sS'lastScale'
p6
F3.7453344464745015
sS'VirtualEnergy'
p7
I0
sS'pos_y'
p8
F-89.875574922500931
sb.(i__main__
Data_Stationary
p1
(dp2
S'pos_x'
p3
F61.453365047518844
sS'rapid'
p4
I00
sS'energy'
p5
F10.870909969677976
sS'lastScale'
p6
F3.2971163024534067
sS'VirtualEnergy'
p7
I0
sS'pos_y'
p8
F-11.768957683118813
sb.(i__main__
Data_Stationary
p1
(dp2
S'pos_x'
p3
F-152.98540898039974
sS'rapid'
p4
I00
sS'energy'
p5
F7.4469470866960528
sS'lastScale'
p6
F2.7289195050397059
sS'VirtualEnergy'
p7
I0
sS'pos_y'
p8
F-85.305115117169066
sb.(i__main__
Data_Stationary
p1
(dp2
S'pos_x'
p3
F-51.453265003664171
sS'rapid'
p4
I00
sS'energy'
p5
F9.0966063765598051
sS'lastScale'
p6
F3.0160680857403603
sS'VirtualEnergy'
p7
I0
sS'pos_y'
p8
F85.919813682844023
sb.(i__main__
Data_Stationary
p1
(dp2
S'pos_x'
p3
F178.71627882380568
sS'rapid'
p4
I00
sS'energy'
p5
F9.7032643501776796
sS'lastScale'
p6
F3.1150163162339943
sS'VirtualEnergy'
p7
I0
sS'pos_y'
p8
F-99.71732530295921
sb.(i__main__
Data_Stationary
p1
(dp2
S'pos_x'
p3
F-13.861989607205942
sS'rapid'
p4
I00
sS'energy'
p5
F6.2474119127769683
sS'lastScale'
p6
F2.4994923289587323
sS'VirtualEnergy'
p7
I0
sS'pos_y'
p8
F40.447269623938695
sb.(i__main__
Data_Stationary
p1
(dp2
S'pos_x'
p3
F12.322186902496924
sS'rapid'
p4
I00
sS'energy'
p5
F1.9969496662171753
sS'lastScale'
p6
F1.4131446950015683
sS'VirtualEnergy'
p7
I0
sS'pos_y'
p8
F-39.780803604791885
sb.(i__main__
Data_Stationary
p1
(dp2
S'pos_x'
p3
F-176.44652343348605
sS'rapid'
p4
I00
sS'energy'
p5
F3.9560438355667076
sS'lastScale'
p6
F1.9889906021092081
sS'VirtualEnergy'
p7
I0
sS'pos_y'
p8
F-14.064939341294135
sb.(i__main__
Data_Stationary
p1
(dp2
S'pos_x'
p3
F114.60464767781787
sS'rapid'
p4
I00
sS'energy'
p5
F5.4362566237514365
sS'lastScale'
p6
F2.3315881401770424
sS'VirtualEnergy'
p7
I0
sS'pos_y'
p8
F90.707386619160445
sb.(i__main__
Data_Stationary
p1
(dp2
S'pos_x'
p3
F152.07192926884522
sS'rapid'
p4
I00
sS'energy'
p5
F12.037924653480488
sS'lastScale'
p6
F3.4695812492295772
sS'VirtualEnergy'
p7
I0
sS'pos_y'
p8
F31.275223034050271
sb.(i__main__
Data_Stationary
p1
(dp2
S'pos_x'
p3
F-74.393928594724784
sS'rapid'
p4
I00
sS'energy'
p5
F7.2336826893172752
sS'lastScale'
p6
F2.6895606482156595
sS'VirtualEnergy'
p7
I0
sS'pos_y'
p8
F-91.746499216028226
sb.(i__main__
Data_Stationary
p1
(dp2
S'pos_x'
p3
F191.65628282172611
sS'rapid'
p4
I00
sS'energy'
p5
F5.2975758119856442
sS'lastScale'
p6
F2.3016563264336778
sS'VirtualEnergy'
p7
I0
sS'pos_y'
p8
F-33.349114134012112
sb.(i__main__
Data_Stationary
p1
(dp2
S'pos_x'
p3
F-172.19673549966097
sS'rapid'
p4
I00
sS'energy'
p5
F1.7963313102793952
sS'lastScale'
p6
F1.3402828491913112
sS'VirtualEnergy'
p7
I0
sS'pos_y'
p8
F66.717048895071741
sb.(i__main__
Data_Stationary
p1
(dp2
S'pos_x'
p3
F115.51984073967969
sS'rapid'
p4
I00
sS'energy'
p5
F12.889737472604768
sS'lastScale'
p6
F3.5902380530078823
sS'VirtualEnergy'
p7
I0
sS'pos_y'
p8
F60.480903194014104
sb.(i__main__
Data_Stationary
p1
(dp2
S'pos_x'
p3
F14.003192725747624
sS'rapid'
p4
I00
sS'energy'
p5
F7.5678702934668207
sS'lastScale'
p6
F2.7509862437118247
sS'VirtualEnergy'
p7
I0
sS'pos_y'
p8
F-99.657146694313226
sb.(i__main__
Data_Stationary
p1
(dp2
S'pos_x'
p3
F173.64964428400668
sS'rapid'
p4
I00
sS'energy'
p5
F10.251222069706053
sS'lastScale'
p6
F3.2017629682513067
sS'VirtualEnergy'
p7
I0
sS'pos_y'
p8
F71.462869043994516
sb.(i__main__
Data_Stationary
p1
(dp2
S'pos_x'
p3
F-51.779208384395048
sS'rapid'
p4
I01
sS'energy'
p5
F11.5
sS'lastScale'
p6
F3.3911749915626341
sS'VirtualEnergy'
p7
F3.340238727423781
sS'pos_y'
p8
F-62.158578470803974
sb.(i__main__
Data_Stationary
p1
(dp2
S'pos_x'
p3
F-114.29570990323121
sS'rapid'
p4
I00
sS'energy'
p5
F8.6789141701211037
sS'lastScale'
p6
F2.9460096894299062
sS'VirtualEnergy'
p7
I0
sS'pos_y'
p8
F-64.767126222840261
sb.(i__main__
Data_Stationary
p1
(dp2
S'pos_x'
p3
F164.44923877289546
sS'rapid'
p4
I01
sS'energy'
p5
F4.5
sS'lastScale'
p6
F2.1213303435596425
sS'VirtualEnergy'
p7
F8.2582497686265004
sS'pos_y'
p8
F-39.348858487723248
sb.(i__main__
Data_Stationary
p1
(dp2
S'pos_x'
p3
F90.780607716727673
sS'rapid'
p4
I01
sS'energy'
p5
F2.5
sS'lastScale'
p6
F1.5811488300841898
sS'VirtualEnergy'
p7
F5.0456073392686989
sS'pos_y'
p8
F-28.26272310609663
sb.