(i__main__
Data_Stationary
p1
(dp2
S'pos_x'
p3
F43.732769662843793
sS'rapid'
p4
I00
sS'energy'
p5
F3.6304059064153051
sS'lastScale'
p6
F1.9053724081563344
sS'VirtualEnergy'
p7
I0
sS'pos_y'
p8
F-74.973543177870908
sb.(i__main__
Data_Stationary
p1
(dp2
S'pos_x'
p3
F-114.57816016948752
sS'rapid'
p4
I00
sS'energy'
p5
F11.529942005749374
sS'lastScale'
p6
F3.3955868296048575
sS'VirtualEnergy'
p7
I0
sS'pos_y'
p8
F53.440685698476557
sb.(i__main__
Data_Stationary
p1
(dp2
S'pos_x'
p3
F-158.95364881814231
sS'rapid'
p4
I00
sS'energy'
p5
F6.6978454813403543
sS'lastScale'
p6
F2.5880296060579515
sS'VirtualEnergy'
p7
I0
sS'pos_y'
p8
F-21.08305160433892
sb.(i__main__
Data_Stationary
p1
(dp2
S'pos_x'
p3
F186.18666923504429
sS'rapid'
p4
I00
sS'energy'
p5
F4.8309591920592716
sS'lastScale'
p6
F2.197954310499989
sS'VirtualEnergy'
p7
I0
sS'pos_y'
p8
F-77.87328614552996
sb.(i__main__
Data_Stationary
p1
(dp2
S'pos_x'
p3
F-138.4978009714537
sS'rapid'
p4
I00
sS'energy'
p5
F13.392908885232949
sS'lastScale'
p6
F3.6596423429045366
sS'VirtualEnergy'
p7
I0
sS'pos_y'
p8
F-55.644017134673888
sb.(i__main__
Data_Stationary
p1
(dp2
S'pos_x'
p3
F30.808508805463163
sS'rapid'
p4
I00
sS'energy'
p5
F9.0686094390635539
sS'lastScale'
p6
F3.0114231963354938
sS'VirtualEnergy'
p7
I0
sS'pos_y'
p8
F56.970062372259775
sb.(i__main__
Data_Stationary
p1
(dp2
S'pos_x'
p3
F-185.25379899742484
sS'rapid'
p4
I00
sS'energy'
p5
F8.7203596447549501
sS'lastScale'
p6
F2.9530355069597607
sS'VirtualEnergy'
p7
I0
sS'pos_y'
p8
F35.122710240024617
sb.(i__main__
Data_Stationary
p1
(dp2
S'pos_x'
p3
F-66.825795981949426
sS'rapid'
p4
I00
sS'energy'
p5
F3.5646404762755486
sS'lastScale'
p6
F1.8880355496882315
sS'VirtualEnergy'
p7
I0
sS'pos_y'
p8
F-81.703361084790728
sb.(i__main__
Data_Stationary
p1
(dp2
S'pos_x'
p3
F12.188753340194495
sS'rapid'
p4
I00
sS'energy'
p5
F5.1912500013338851
sS'lastScale'
p6
F2.2784414783056097
sS'VirtualEnergy'
p7
I0
sS'pos_y'
p8
F11.863514379588949
sb.(i__main__
Data_Stationary
p1
(dp2
S'pos_x'
p3
F-5.9147506973321242
sS'rapid'
p4
I00
sS'energy'
p5
F9.4970773673077105
sS'lastScale'
p6
F3.0817428513853549
sS'VirtualEnergy'
p7
I0
sS'pos_y'
p8
F-69.253905260088573
sb.(i__main__
Data_Stationary
p1
(dp2
S'pos_x'
p3
F-24.940942488169242
sS'rapid'
p4
I00
sS'energy'
p5
F0.95894432040838651
sS'lastScale'
p6
F0.97926702469187654
sS'VirtualEnergy'
p7
I0
sS'pos_y'
p8
F43.861298439018697
sb.(i__main__
Data_Stationary
p1
(dp2
S'pos_x'
p3
F42.595924838982569
sS'rapid'
p4
I00
sS'energy'
p5
F10.632532907949155
sS'lastScale'
p6
F3.2607664932004896
sS'VirtualEnergy'
p7
I0
sS'pos_y'
p8
F-41.289347831314814
sb.(i__main__
Data_Stationary
p1
(dp2
S'pos_x'
p3
F-165.48185292038079
sS'rapid'
p4
I00
sS'energy'
p5
F9.7578948886237029
sS'lastScale'
p6
F3.1237729373279439
sS'VirtualEnergy'
p7
I0
sS'pos_y'
p8
F-85.745073320434187
sb.(i__main__
Data_Stationary
p1
(dp2
S'pos_x'
p3
F3.614550567455808
sS'rapid'
p4
I00
sS'energy'
p5
F9.5431464815712879
sS'lastScale'
p6
F3.0892083558151926
sS'VirtualEnergy'
p7
I0
sS'pos_y'
p8
F56.848798232938265
sb.(i__main__
Data_Stationary
p1
(dp2
S'pos_x'
p3
F-136.53444397997282
sS'rapid'
p4
I00
sS'energy'
p5
F11.419999413752386
sS'lastScale'
p6
F3.3793589630034342
sS'VirtualEnergy'
p7
I0
sS'pos_y'
p8
F-85.022381684772654
sb.(i__main__
Data_Stationary
p1
(dp2
S'pos_x'
p3
F9.8889212642937707
sS'rapid'
p4
I00
sS'energy'
p5
F4.4678519474225178
sS'lastScale'
p6
F2.1137393931396513
sS'VirtualEnergy'
p7
I0
sS'pos_y'
p8
F90.52311757390359
sb.(i__main__
Data_Stationary
p1
(dp2
S'pos_x'
p3
F92.740246959979913
sS'rapid'
p4
I00
sS'energy'
p5
F10.824073988650698
sS'lastScale'
p6
F3.2900060469050261
sS'VirtualEnergy'
p7
I0
sS'pos_y'
p8
F-18.197399300105133
sb.(i__main__
Data_Stationary
p1
(dp2
S'pos_x'
p3
F106.3905269581449
sS'rapid'
p4
I00
sS'energy'
p5
F8.5582450100163161
sS'lastScale'
p6
F2.9254578306776069
sS'VirtualEnergy'
p7
I0
sS'pos_y'
p8
F-91.396466197215929
sb.(i__main__
Data_Stationary
p1
(dp2
S'pos_x'
p3
F-169.35530270356173
sS'rapid'
p4
I00
sS'energy'
p5
F10.955091049595403
sS'lastScale'
p6
F3.3098575870643052
sS'VirtualEnergy'
p7
I0
sS'pos_y'
p8
F92.786027602919489
sb.(i__main__
Data_Stationary
p1
(dp2
S'pos_x'
p3
F73.378169222328211
sS'rapid'
p4
I00
sS'energy'
p5
F9.428721419447804
sS'lastScale'
p6
F3.0706323179427009
sS'VirtualEnergy'
p7
I0
sS'pos_y'
p8
F-37.98008998109281
sb.(i__main__
Data_Stationary
p1
(dp2
S'pos_x'
p3
F-156.59789124120059
sS'rapid'
p4
I00
sS'energy'
p5
F10.231184500187997
sS'lastScale'
p6
F3.1986322815749904
sS'VirtualEnergy'
p7
I0
sS'pos_y'
p8
F23.138697894209216
sb.(i__main__
Data_Stationary
p1
(dp2
S'pos_x'
p3
F160.72034261144938
sS'rapid'
p4
I01
sS'energy'
p5
F10.5
sS'lastScale'
p6
F3.2403803492039303
sS'VirtualEnergy'
p7
F3.6218227940175609
sS'pos_y'
p8
F41.325609611779242
sb.