(i__main__
Data_Stationary
p1
(dp2
S'pos_x'
p3
F182.06315175441205
sS'rapid'
p4
I00
sS'energy'
p5
F9.6167846019808572
sS'lastScale'
p6
F3.1011040975695749
sS'VirtualEnergy'
p7
I0
sS'pos_y'
p8
F-96.665734949568488
sb.(i__main__
Data_Stationary
p1
(dp2
S'pos_x'
p3
F198.27804932919065
sS'rapid'
p4
I00
sS'energy'
p5
F0.5643346191308376
sS'lastScale'
p6
F0.75123208376141171
sS'VirtualEnergy'
p7
I0
sS'pos_y'
p8
F65.802028608873115
sb.(i__main__
Data_Stationary
p1
(dp2
S'pos_x'
p3
F39.769973186506803
sS'rapid'
p4
I00
sS'energy'
p5
F8.3731138244322274
sS'lastScale'
p6
F2.8936433258435197
sS'VirtualEnergy'
p7
I0
sS'pos_y'
p8
F47.528783880548076
sb.(i__main__
Data_Stationary
p1
(dp2
S'pos_x'
p3
F-185.22324051597386
sS'rapid'
p4
I00
sS'energy'
p5
F12.498858587906934
sS'lastScale'
p6
F3.5353824822014066
sS'VirtualEnergy'
p7
I0
sS'pos_y'
p8
F81.616187966134248
sb.(i__main__
Data_Stationary
p1
(dp2
S'pos_x'
p3
F129.87869051150318
sS'rapid'
p4
I00
sS'energy'
p5
F14.131677759896375
sS'lastScale'
p6
F3.7592223855797742
sS'VirtualEnergy'
p7
I0
sS'pos_y'
p8
F99.154355591925537
sb.(i__main__
Data_Stationary
p1
(dp2
S'pos_x'
p3
F-154.97581191915486
sS'rapid'
p4
I00
sS'energy'
p5
F6.5598453117634046
sS'lastScale'
p6
F2.5612294969903311
sS'VirtualEnergy'
p7
I0
sS'pos_y'
p8
F51.231789909338374
sb.(i__main__
Data_Stationary
p1
(dp2
S'pos_x'
p3
F6.0178925524119222
sS'rapid'
p4
I00
sS'energy'
p5
F9.792983021234928
sS'lastScale'
p6
F3.1293842219867103
sS'VirtualEnergy'
p7
I0
sS'pos_y'
p8
F-98.042629133803615
sb.(i__main__
Data_Stationary
p1
(dp2
S'pos_x'
p3
F75.036510233296383
sS'rapid'
p4
I00
sS'energy'
p5
F9.2406918316338409
sS'lastScale'
p6
F3.0398606265331263
sS'VirtualEnergy'
p7
I0
sS'pos_y'
p8
F87.909895825027235
sb.(i__main__
Data_Stationary
p1
(dp2
S'pos_x'
p3
F160.57252277313887
sS'rapid'
p4
I00
sS'energy'
p5
F13.104487210270175
sS'lastScale'
p6
F3.6200220455973868
sS'VirtualEnergy'
p7
I0
sS'pos_y'
p8
F70.298923975695288
sb.(i__main__
Data_Stationary
p1
(dp2
S'pos_x'
p3
F9.2044441789573739
sS'rapid'
p4
I00
sS'energy'
p5
F4.018298181917622
sS'lastScale'
p6
F2.0045793257948508
sS'VirtualEnergy'
p7
I0
sS'pos_y'
p8
F37.222542187200986
sb.(i__main__
Data_Stationary
p1
(dp2
S'pos_x'
p3
F6.4505559264237036
sS'rapid'
p4
I00
sS'energy'
p5
F2.2009659225484679
sS'lastScale'
p6
F1.4835752741111421
sS'VirtualEnergy'
p7
I0
sS'pos_y'
p8
F9.5566222541705343
sb.(i__main__
Data_Stationary
p1
(dp2
S'pos_x'
p3
F119.58580189808305
sS'rapid'
p4
I00
sS'energy'
p5
F9.5260648047109804
sS'lastScale'
p6
F3.0864423748805807
sS'VirtualEnergy'
p7
I0
sS'pos_y'
p8
F-82.306234875442712
sb.(i__main__
Data_Stationary
p1
(dp2
S'pos_x'
p3
F36.658979701953655
sS'rapid'
p4
I00
sS'energy'
p5
F13.168838995528976
sS'lastScale'
p6
F3.6288994989416494
sS'VirtualEnergy'
p7
I0
sS'pos_y'
p8
F-94.264838924534658
sb.(i__main__
Data_Stationary
p1
(dp2
S'pos_x'
p3
F-11.625041900671164
sS'rapid'
p4
I00
sS'energy'
p5
F12.654419420393804
sS'lastScale'
p6
F3.5573150783414409
sS'VirtualEnergy'
p7
I0
sS'pos_y'
p8
F-22.098854530886541
sb.(i__main__
Data_Stationary
p1
(dp2
S'pos_x'
p3
F156.1386390330747
sS'rapid'
p4
I00
sS'energy'
p5
F11.688584297869143
sS'lastScale'
p6
F3.4188671625426448
sS'VirtualEnergy'
p7
I0
sS'pos_y'
p8
F-83.831408645865793
sb.(i__main__
Data_Stationary
p1
(dp2
S'pos_x'
p3
F-5.9492517423751963
sS'rapid'
p4
I00
sS'energy'
p5
F3.1800281794285121
sS'lastScale'
p6
F1.783273351114611
sS'VirtualEnergy'
p7
I0
sS'pos_y'
p8
F-54.346586147460975
sb.(i__main__
Data_Stationary
p1
(dp2
S'pos_x'
p3
F-38.859491989353018
sS'rapid'
p4
I00
sS'energy'
p5
F11.719201981838282
sS'lastScale'
p6
F3.4233419999436636
sS'VirtualEnergy'
p7
I0
sS'pos_y'
p8
F0.58577606935664051
sb.(i__main__
Data_Stationary
p1
(dp2
S'pos_x'
p3
F-109.4695037074226
sS'rapid'
p4
I00
sS'energy'
p5
F7.7839272561105135
sS'lastScale'
p6
F2.7899790421419577
sS'VirtualEnergy'
p7
I0
sS'pos_y'
p8
F9.0708655911163163
sb.(i__main__
Data_Stationary
p1
(dp2
S'pos_x'
p3
F8.1447320300035244
sS'rapid'
p4
I00
sS'energy'
p5
F11.52689734923934
sS'lastScale'
p6
F3.3951384731566994
sS'VirtualEnergy'
p7
I0
sS'pos_y'
p8
F88.244530571205502
sb.(i__main__
Data_Stationary
p1
(dp2
S'pos_x'
p3
F-82.288211108662068
sS'rapid'
p4
I01
sS'energy'
p5
F7.5
sS'lastScale'
p6
F2.7386227875258307
sS'VirtualEnergy'
p7
F1.046089394235846
sS'pos_y'
p8
F9.2399084269483325
sb.(i__main__
Data_Stationary
p1
(dp2
S'pos_x'
p3
F191.90376083862122
sS'rapid'
p4
I01
sS'energy'
p5
F6.5
sS'lastScale'
p6
F2.5495197567963923
sS'VirtualEnergy'
p7
F3.5264501327742579
sS'pos_y'
p8
F-3.5538465465902505
sb.