(i__main__
Data_Stationary
p1
(dp2
S'pos_x'
p3
F-98.391212108014997
sS'rapid'
p4
I00
sS'energy'
p5
F13.544367415827001
sS'lastScale'
p6
F3.680277302225071
sS'VirtualEnergy'
p7
I0
sS'pos_y'
p8
F-89.173714976734203
sb.(i__main__
Data_Stationary
p1
(dp2
S'pos_x'
p3
F147.63267668331184
sS'rapid'
p4
I00
sS'energy'
p5
F12.288896631813861
sS'lastScale'
p6
F3.5055622577496774
sS'VirtualEnergy'
p7
I0
sS'pos_y'
p8
F76.236756031067813
sb.(i__main__
Data_Stationary
p1
(dp2
S'pos_x'
p3
F188.65715072728
sS'rapid'
p4
I00
sS'energy'
p5
F10.731266706361129
sS'lastScale'
p6
F3.2758712159798726
sS'VirtualEnergy'
p7
I0
sS'pos_y'
p8
F8.8498872838191005
sb.(i__main__
Data_Stationary
p1
(dp2
S'pos_x'
p3
F-108.22739060112561
sS'rapid'
p4
I00
sS'energy'
p5
F14.11108163277537
sS'lastScale'
p6
F3.7564819661905333
sS'VirtualEnergy'
p7
I0
sS'pos_y'
p8
F54.436909757974007
sb.(i__main__
Data_Stationary
p1
(dp2
S'pos_x'
p3
F27.433927813243741
sS'rapid'
p4
I00
sS'energy'
p5
F12.686109929537135
sS'lastScale'
p6
F3.5617665792087947
sS'VirtualEnergy'
p7
I0
sS'pos_y'
p8
F-99.455856598479414
sb.(i__main__
Data_Stationary
p1
(dp2
S'pos_x'
p3
F163.11184504282755
sS'rapid'
p4
I00
sS'energy'
p5
F7.6928272658465184
sS'lastScale'
p6
F2.7736046469962981
sS'VirtualEnergy'
p7
I0
sS'pos_y'
p8
F8.3678063087497208
sb.(i__main__
Data_Stationary
p1
(dp2
S'pos_x'
p3
F-42.721260678010395
sS'rapid'
p4
I00
sS'energy'
p5
F13.347012203227811
sS'lastScale'
p6
F3.6533662929486925
sS'VirtualEnergy'
p7
I0
sS'pos_y'
p8
F-57.462261621942147
sb.(i__main__
Data_Stationary
p1
(dp2
S'pos_x'
p3
F12.437010788365427
sS'rapid'
p4
I00
sS'energy'
p5
F7.5176567942932389
sS'lastScale'
p6
F2.7418445672730218
sS'VirtualEnergy'
p7
I0
sS'pos_y'
p8
F37.941037362784499
sb.(i__main__
Data_Stationary
p1
(dp2
S'pos_x'
p3
F191.99943750606178
sS'rapid'
p4
I00
sS'energy'
p5
F11.543264896232492
sS'lastScale'
p6
F3.3975480639858167
sS'VirtualEnergy'
p7
I0
sS'pos_y'
p8
F48.987345236545536
sb.(i__main__
Data_Stationary
p1
(dp2
S'pos_x'
p3
F96.336454387139042
sS'rapid'
p4
I00
sS'energy'
p5
F14.64817804628467
sS'lastScale'
p6
F3.8273038280571914
sS'VirtualEnergy'
p7
I0
sS'pos_y'
p8
F-90.651157558511812
sb.(i__main__
Data_Stationary
p1
(dp2
S'pos_x'
p3
F-33.181861147996102
sS'rapid'
p4
I00
sS'energy'
p5
F12.473731538709917
sS'lastScale'
p6
F3.5318270307520061
sS'VirtualEnergy'
p7
I0
sS'pos_y'
p8
F58.828812213342985
sb.(i__main__
Data_Stationary
p1
(dp2
S'pos_x'
p3
F-160.62994224393896
sS'rapid'
p4
I00
sS'energy'
p5
F10.712276386100664
sS'lastScale'
p6
F3.2729714091981994
sS'VirtualEnergy'
p7
I0
sS'pos_y'
p8
F-82.072117941875703
sb.(i__main__
Data_Stationary
p1
(dp2
S'pos_x'
p3
F-83.285513322802316
sS'rapid'
p4
I00
sS'energy'
p5
F14.600085124112159
sS'lastScale'
p6
F3.8210157738914972
sS'VirtualEnergy'
p7
I0
sS'pos_y'
p8
F-55.802354466019445
sb.(i__main__
Data_Stationary
p1
(dp2
S'pos_x'
p3
F-175.35134112510571
sS'rapid'
p4
I00
sS'energy'
p5
F13.667501713799703
sS'lastScale'
p6
F3.6969684409078369
sS'VirtualEnergy'
p7
I0
sS'pos_y'
p8
F56.566361751567769
sb.(i__main__
Data_Stationary
p1
(dp2
S'pos_x'
p3
F-135.88554360687777
sS'rapid'
p4
I00
sS'energy'
p5
F14.977584113436313
sS'lastScale'
p6
F3.8700983857395705
sS'VirtualEnergy'
p7
I0
sS'pos_y'
p8
F22.130761988483627
sb.(i__main__
Data_Stationary
p1
(dp2
S'pos_x'
p3
F136.21302906713805
sS'rapid'
p4
I00
sS'energy'
p5
F13.875758879850284
sS'lastScale'
p6
F3.7250279704063556
sS'VirtualEnergy'
p7
I0
sS'pos_y'
p8
F-51.464287814531183
sb.