(i__main__
Data_Stationary
p1
(dp2
S'pos_x'
p3
F104.18444614213121
sS'rapid'
p4
I00
sS'energy'
p5
F11.479492350657159
sS'lastScale'
p6
F3.3881499544081941
sS'VirtualEnergy'
p7
I0
sS'pos_y'
p8
F77.863461797359093
sb.(i__main__
Data_Stationary
p1
(dp2
S'pos_x'
p3
F94.648041443066518
sS'rapid'
p4
I00
sS'energy'
p5
F8.9990535896771071
sS'lastScale'
p6
F2.9998522607992419
sS'VirtualEnergy'
p7
I0
sS'pos_y'
p8
F-59.697776643758594
sb.(i__main__
Data_Stationary
p1
(dp2
S'pos_x'
p3
F-76.854465622150727
sS'rapid'
p4
I00
sS'energy'
p5
F8.4337143946353628
sS'lastScale'
p6
F2.9040958104807033
sS'VirtualEnergy'
p7
I0
sS'pos_y'
p8
F79.680938916463788
sb.(i__main__
Data_Stationary
p1
(dp2
S'pos_x'
p3
F-116.55166608005901
sS'rapid'
p4
I00
sS'energy'
p5
F7.0516991698005169
sS'lastScale'
p6
F2.6555135623776742
sS'VirtualEnergy'
p7
I0
sS'pos_y'
p8
F-58.860880980275667
sb.(i__main__
Data_Stationary
p1
(dp2
S'pos_x'
p3
F-116.56129255682961
sS'rapid'
p4
I00
sS'energy'
p5
F11.720560588644268
sS'lastScale'
p6
F3.4235404275914165
sS'VirtualEnergy'
p7
I0
sS'pos_y'
p8
F56.039387610793852
sb.(i__main__
Data_Stationary
p1
(dp2
S'pos_x'
p3
F-132.96119553594306
sS'rapid'
p4
I00
sS'energy'
p5
F13.515161508532136
sS'lastScale'
p6
F3.6763072551919871
sS'VirtualEnergy'
p7
I0
sS'pos_y'
p8
F-11.16028759089005
sb.(i__main__
Data_Stationary
p1
(dp2
S'pos_x'
p3
F129.31152952087234
sS'rapid'
p4
I00
sS'energy'
p5
F13.018279734852236
sS'lastScale'
p6
F3.6080953281002426
sS'VirtualEnergy'
p7
I0
sS'pos_y'
p8
F-70.565497369552872
sb.(i__main__
Data_Stationary
p1
(dp2
S'pos_x'
p3
F44.127457170183106
sS'rapid'
p4
I00
sS'energy'
p5
F10.830067598431736
sS'lastScale'
p6
F3.2909168048839876
sS'VirtualEnergy'
p7
I0
sS'pos_y'
p8
F31.958054081646424
sb.(i__main__
Data_Stationary
p1
(dp2
S'pos_x'
p3
F-173.5852709870083
sS'rapid'
p4
I00
sS'energy'
p5
F10.725847722663204
sS'lastScale'
p6
F3.2750440032835084
sS'VirtualEnergy'
p7
I0
sS'pos_y'
p8
F83.769102521514355
sb.(i__main__
Data_Stationary
p1
(dp2
S'pos_x'
p3
F-197.69320301113021
sS'rapid'
p4
I00
sS'energy'
p5
F13.196713332472875
sS'lastScale'
p6
F3.6327380840262289
sS'VirtualEnergy'
p7
I0
sS'pos_y'
p8
F-7.207486612428383
sb.(i__main__
Data_Stationary
p1
(dp2
S'pos_x'
p3
F-158.78180671932731
sS'rapid'
p4
I00
sS'energy'
p5
F7.0267932366236234
sS'lastScale'
p6
F2.6508199208776975
sS'VirtualEnergy'
p7
I0
sS'pos_y'
p8
F-5.8400944331395692
sb.(i__main__
Data_Stationary
p1
(dp2
S'pos_x'
p3
F-5.0112108017224557
sS'rapid'
p4
I00
sS'energy'
p5
F9.55524967121743
sS'lastScale'
p6
F3.0911666882345887
sS'VirtualEnergy'
p7
I0
sS'pos_y'
p8
F99.754918868741328
sb.(i__main__
Data_Stationary
p1
(dp2
S'pos_x'
p3
F-46.572044081481721
sS'rapid'
p4
I00
sS'energy'
p5
F14.03879946378931
sS'lastScale'
p6
F3.7468485959084639
sS'VirtualEnergy'
p7
I0
sS'pos_y'
p8
F82.550386497825087
sb.(i__main__
Data_Stationary
p1
(dp2
S'pos_x'
p3
F-179.56767448846622
sS'rapid'
p4
I00
sS'energy'
p5
F8.1436102075765788
sS'lastScale'
p6
F2.8537111419517251
sS'VirtualEnergy'
p7
I0
sS'pos_y'
p8
F-66.206916012223147
sb.(i__main__
Data_Stationary
p1
(dp2
S'pos_x'
p3
F-187.12363696512176
sS'rapid'
p4
I00
sS'energy'
p5
F12.946562423903895
sS'lastScale'
p6
F3.598143185959616
sS'VirtualEnergy'
p7
I0
sS'pos_y'
p8
F53.798819725940518
sb.(i__main__
Data_Stationary
p1
(dp2
S'pos_x'
p3
F-4.7979286530040781
sS'rapid'
p4
I00
sS'energy'
p5
F12.509286324032523
sS'lastScale'
p6
F3.5368569466507203
sS'VirtualEnergy'
p7
I0
sS'pos_y'
p8
F18.630059246042492
sb.(i__main__
Data_Stationary
p1
(dp2
S'pos_x'
p3
F-74.852798618615694
sS'rapid'
p4
I00
sS'energy'
p5
F11.405892303064704
sS'lastScale'
p6
F3.377271065281259
sS'VirtualEnergy'
p7
I0
sS'pos_y'
p8
F-84.580605719390277
sb.(i__main__
Data_Stationary
p1
(dp2
S'pos_x'
p3
F13.930152650256645
sS'rapid'
p4
I00
sS'energy'
p5
F11.263824956344669
sS'lastScale'
p6
F3.3561722362967896
sS'VirtualEnergy'
p7
I0
sS'pos_y'
p8
F-58.50291342989
sb.