(i__main__
Data_mobile
p1
(dp2
S'vel_y'
p3
F-0.20330348492428352
sS'vel_x'
p4
F0.65201019875586697
sS'pos_x'
p5
F95.351810636352781
sS'pos_y'
p6
F-25.89425634178016
sS'isAlive'
p7
I01
sS'geno'
p8
(lp9
F-1.6908060695388027
aF3.5027155766317524
aF-1.973888198076541
aF4.1872523225257989
aF-2.0817617018764247
asS'accel_x'
p10
F0
sS'accel_y'
p11
F0
sS'maxAccel'
p12
I2
sS'maxVel'
p13
F0.69999999999999996
sS'age'
p14
I0
sS'gener'
p15
S'm'
sS'lastScale'
p16
F5.5
sS'energy'
p17
F0.5
sb.(i__main__
Data_mobile
p1
(dp2
S'vel_y'
p3
F0.10667668424988289
sS'vel_x'
p4
F0.68340223025296964
sS'pos_x'
p5
F95.563919617455298
sS'pos_y'
p6
F-25.850045573829075
sS'isAlive'
p7
I01
sS'geno'
p8
(lp9
F-2.09725016121175
aF3.2370655591957762
aF-2.2357554759178226
aF4.1872523225257989
aF-1.5965642669958564
asS'accel_x'
p10
F0
sS'accel_y'
p11
F0
sS'maxAccel'
p12
I2
sS'maxVel'
p13
F0.69999999999999996
sS'age'
p14
I0
sS'gener'
p15
S'm'
sS'lastScale'
p16
F5.5
sS'energy'
p17
F0.5
sb.(i__main__
Data_mobile
p1
(dp2
S'vel_y'
p3
F-0.20475846016146235
sS'vel_x'
p4
F0.65186285181882031
sS'pos_x'
p5
F94.743179964847741
sS'pos_y'
p6
F-26.021115795094946
sS'isAlive'
p7
I01
sS'geno'
p8
(lp9
F-1.6908060695388027
aF3.5027155766317524
aF-1.973888198076541
aF4.1872523225257989
aF-2.0817617018764247
asS'accel_x'
p10
F0
sS'accel_y'
p11
F0
sS'maxAccel'
p12
I2
sS'maxVel'
p13
F0.69999999999999996
sS'age'
p14
I0
sS'gener'
p15
S'm'
sS'lastScale'
p16
F5.5
sS'energy'
p17
F0.5
sb.(i__main__
Data_mobile
p1
(dp2
S'vel_y'
p3
F0.009249453324397014
sS'vel_x'
p4
F0.67353566778854979
sS'pos_x'
p5
F96.40927907126941
sS'pos_y'
p6
F-25.673843743743596
sS'isAlive'
p7
I01
sS'geno'
p8
(lp9
F-2.09725016121175
aF3.2370655591957762
aF-1.973888198076541
aF4.1872523225257989
aF-2.0817617018764247
asS'accel_x'
p10
F0
sS'accel_y'
p11
F0
sS'maxAccel'
p12
I2
sS'maxVel'
p13
F0.69999999999999996
sS'age'
p14
I0
sS'gener'
p15
S'm'
sS'lastScale'
p16
F5.5
sS'energy'
p17
F0.5
sb.(i__main__
Data_mobile
p1
(dp2
S'vel_y'
p3
F0.14185449620335117
sS'vel_x'
p4
F0.68544058169331623
sS'pos_x'
p5
F93.887192382519913
sS'pos_y'
p6
F-26.212534258541922
sS'isAlive'
p7
I01
sS'geno'
p8
(lp9
F-2.1472016181090354
aF3.0332906970037428
aF-1.973888198076541
aF4.1872523225257989
aF-2.0817617018764247
asS'accel_x'
p10
F0
sS'accel_y'
p11
F0
sS'maxAccel'
p12
I2
sS'maxVel'
p13
F0.69999999999999996
sS'age'
p14
I0
sS'gener'
p15
S'm'
sS'lastScale'
p16
F5.5
sS'energy'
p17
F0.5
sb.(i__main__
Data_mobile
p1
(dp2
S'vel_y'
p3
F0.20804172955835615
sS'vel_x'
p4
F0.66837013604915629
sS'pos_x'
p5
F95.040924668218125
sS'pos_y'
p6
F-26.067294293521016
sS'isAlive'
p7
I01
sS'geno'
p8
(lp9
F-1.6908060695388027
aF3.0332906970037428
aF-1.973888198076541
aF4.1872523225257989
aF-2.0817617018764247
asS'accel_x'
p10
F1.0094654468346287
sS'accel_y'
p11
F-1.7265513347847388
sS'maxAccel'
p12
I2
sS'maxVel'
p13
F0.69999999999999996
sS'age'
p14
I200
sS'gener'
p15
S'm'
sS'lastScale'
p16
F9.699999999999994
sS'energy'
p17
F0.41999999999999937
sb.(i__main__
Data_mobile
p1
(dp2
S'vel_y'
p3
F0.14123769674393488
sS'vel_x'
p4
F0.68557039766109551
sS'pos_x'
p5
F93.749310101758198
sS'pos_y'
p6
F-26.251077884510654
sS'isAlive'
p7
I01
sS'geno'
p8
(lp9
F-1.6908060695388027
aF3.5027155766317524
aF-1.973888198076541
aF4.1872523225257989
aF-2.0817617018764247
asS'accel_x'
p10
F0
sS'accel_y'
p11
F0
sS'maxAccel'
p12
I2
sS'maxVel'
p13
F0.69999999999999996
sS'age'
p14
I0
sS'gener'
p15
S'm'
sS'lastScale'
p16
F5.5
sS'energy'
p17
F0.5
sb.(i__main__
Data_mobile
p1
(dp2
S'vel_y'
p3
F0.15135571356828856
sS'vel_x'
p4
F0.68344088842432749
sS'pos_x'
p5
F93.534581971354768
sS'pos_y'
p6
F-26.311103006647546
sS'isAlive'
p7
I01
sS'geno'
p8
(lp9
F-2.1472016181090354
aF3.0332906970037428
aF-1.973888198076541
aF4.1872523225257989
aF-2.0817617018764247
asS'accel_x'
p10
F0.51617083495894367
sS'accel_y'
p11
F-1.9322442053575388
sS'maxAccel'
p12
I2
sS'maxVel'
p13
F0.69999999999999996
sS'age'
p14
I250
sS'gener'
p15
S'm'
sS'lastScale'
p16
F10.999999999999993
sS'energy'
p17
F0.54999999999999938
sb.(i__main__
Data_mobile
p1
(dp2
S'vel_y'
p3
F0.32120104195781113
sS'vel_x'
p4
F0.62195650221315035
sS'pos_x'
p5
F94.828705899268911
sS'pos_y'
p6
F-25.894771670670881
sS'isAlive'
p7
I01
sS'geno'
p8
(lp9
F-2.09725016121175
aF3.2370655591957762
aF-1.973888198076541
aF4.1872523225257989
aF-2.0817617018764247
asS'accel_x'
p10
F1.0708412578000515
sS'accel_y'
p11
F-1.6891710986733122
sS'maxAccel'
p12
I2
sS'maxVel'
p13
F0.69999999999999996
sS'age'
p14
I50
sS'gener'
p15
S'm'
sS'lastScale'
p16
F6.4999999999999964
sS'energy'
p17
F0.099999999999999686
sb.(i__main__
Data_mobile
p1
(dp2
S'vel_y'
p3
F0.13696531561163919
sS'vel_x'
p4
F0.68646959314991085
sS'pos_x'
p5
F94.070037553268122
sS'pos_y'
p6
F-26.161421702000393
sS'isAlive'
p7
I01
sS'geno'
p8
(lp9
F-1.6908060695388027
aF3.5027155766317524
aF-1.973888198076541
aF4.1872523225257989
aF-2.0817617018764247
asS'accel_x'
p10
F0.70292448255034479
sS'accel_y'
p11
F-1.8724041155240314
sS'maxAccel'
p12
I2
sS'maxVel'
p13
F0.69999999999999996
sS'age'
p14
I100
sS'gener'
p15
S'm'
sS'lastScale'
p16
F10.999999999999993
sS'energy'
p17
F0.54999999999999938
sb.(i__main__
Data_mobile
p1
(dp2
S'vel_y'
p3
F-0.17559639861722967
sS'vel_x'
p4
F0.67761781617122419
sS'pos_x'
p5
F88.044081781607929
sS'pos_y'
p6
F-27.978605326154511
sS'isAlive'
p7
I01
sS'geno'
p8
(lp9
F-1.6908060695388027
aF3.2629533045493968
aF-1.973888198076541
aF4.1872523225257989
aF-2.0817617018764247
asS'accel_x'
p10
F1.4345529382052766
sS'accel_y'
p11
F-1.3935773632944128
sS'maxAccel'
p12
I2
sS'maxVel'
p13
F0.69999999999999996
sS'age'
p14
I100
sS'gener'
p15
S'm'
sS'lastScale'
p16
F9.4999999999999893
sS'energy'
p17
F0.39999999999999891
sb.(i__main__
Data_mobile
p1
(dp2
S'vel_y'
p3
F0.38921708053798704
sS'vel_x'
p4
F0.58181617734253999
sS'pos_x'
p5
F94.741130975946234
sS'pos_y'
p6
F-26.424998654184858
sS'isAlive'
p7
I01
sS'geno'
p8
(lp9
F-1.6908060695388027
aF3.5027155766317524
aF-1.973888198076541
aF4.1872523225257989
aF-2.0817617018764247
asS'accel_x'
p10
F1.4249339822420855
sS'accel_y'
p11
F-1.4034112534291976
sS'maxAccel'
p12
I2
sS'maxVel'
p13
F0.69999999999999996
sS'age'
p14
I100
sS'gener'
p15
S'm'
sS'lastScale'
p16
F9.8999999999999932
sS'energy'
p17
F0.43999999999999939
sb.(i__main__
Data_mobile
p1
(dp2
S'vel_y'
p3
F0.52356689670850154
sS'vel_x'
p4
F0.46462641409096544
sS'pos_x'
p5
F88.740945634912848
sS'pos_y'
p6
F-27.863068096680589
sS'isAlive'
p7
I01
sS'geno'
p8
(lp9
F-2.1472016181090354
aF3.0332906970037428
aF-1.973888198076541
aF4.1872523225257989
aF-2.0817617018764247
asS'accel_x'
p10
F1.4770581666758946
sS'accel_y'
p11
F-1.3484432402797106
sS'maxAccel'
p12
I2
sS'maxVel'
p13
F0.69999999999999996
sS'age'
p14
I100
sS'gener'
p15
S'm'
sS'lastScale'
p16
F7.4999999999999893
sS'energy'
p17
F0.19999999999999896
sb.(i__main__
Data_mobile
p1
(dp2
S'vel_y'
p3
F-0.00714032801337053
sS'vel_x'
p4
F0.69996358170683515
sS'pos_x'
p5
F97.832793841146298
sS'pos_y'
p6
F-25.446245234368565
sS'isAlive'
p7
I01
sS'geno'
p8
(lp9
F-2.09725016121175
aF3.2370655591957762
aF-1.973888198076541
aF4.1872523225257989
aF-2.0817617018764247
asS'accel_x'
p10
F-0.45866962965893082
sS'accel_y'
p11
F-1.946695192070022
sS'maxAccel'
p12
I2
sS'maxVel'
p13
F0.69999999999999996
sS'age'
p14
I50
sS'gener'
p15
S'm'
sS'lastScale'
p16
F9.4999999999999964
sS'energy'
p17
F0.39999999999999969
sb.(i__main__
Data_mobile
p1
(dp2
S'vel_y'
p3
F-0.27181201901151048
sS'vel_x'
p4
F0.64507226441762799
sS'pos_x'
p5
F96.546362837011145
sS'pos_y'
p6
F-25.645270797300846
sS'isAlive'
p7
I01
sS'geno'
p8
(lp9
F-2.09725016121175
aF3.2370655591957762
aF-1.973888198076541
aF4.1872523225257989
aF-2.0817617018764247
asS'accel_x'
p10
F-0.4522066229327158
sS'accel_y'
p11
F-1.9482066548946466
sS'maxAccel'
p12
I2
sS'maxVel'
p13
F0.69999999999999996
sS'age'
p14
I100
sS'gener'
p15
S'm'
sS'lastScale'
p16
F11.999999999999995
sS'energy'
p17
F0.64999999999999936
sb.(i__main__
Data_mobile
p1
(dp2
S'vel_y'
p3
F0.39574511175800703
sS'vel_x'
p4
F0.57739571051371907
sS'pos_x'
p5
F95.255018522137291
sS'pos_y'
p6
F-25.698589555707997
sS'isAlive'
p7
I01
sS'geno'
p8
(lp9
F-2.09725016121175
aF3.2370655591957762
aF-1.973888198076541
aF4.1872523225257989
aF-2.0817617018764247
asS'accel_x'
p10
F0.5139238939387748
sS'accel_y'
p11
F-1.9328430436118726
sS'maxAccel'
p12
I2
sS'maxVel'
p13
F0.69999999999999996
sS'age'
p14
I100
sS'gener'
p15
S'm'
sS'lastScale'
p16
F9.699999999999994
sS'energy'
p17
F0.41999999999999937
sb.(i__main__
Data_mobile
p1
(dp2
S'vel_y'
p3
F-0.36963499385281978
sS'vel_x'
p4
F0.59444930088227532
sS'pos_x'
p5
F95.126212393268773
sS'pos_y'
p6
F-26.709052081296328
sS'isAlive'
p7
I01
sS'geno'
p8
(lp9
F-1.6908060695388027
aF3.0332906970037428
aF-1.973888198076541
aF4.1872523225257989
aF-2.0817617018764247
asS'accel_x'
p10
F1.2229187360069989
sS'accel_y'
p11
F-1.5825516627026885
sS'maxAccel'
p12
I2
sS'maxVel'
p13
F0.69999999999999996
sS'age'
p14
I100
sS'gener'
p15
S'm'
sS'lastScale'
p16
F8.699999999999994
sS'energy'
p17
F0.3199999999999994
sb.(i__main__
Data_mobile
p1
(dp2
S'vel_y'
p3
F0.13696531561163916
sS'vel_x'
p4
F0.68646959314991074
sS'pos_x'
p5
F94.070037553268122
sS'pos_y'
p6
F-26.161421702000393
sS'isAlive'
p7
I01
sS'geno'
p8
(lp9
F-1.6908060695388027
aF3.5027155766317524
aF-1.973888198076541
aF4.1872523225257989
aF-2.0817617018764247
asS'accel_x'
p10
F0
sS'accel_y'
p11
F0
sS'maxAccel'
p12
I2
sS'maxVel'
p13
F0.69999999999999996
sS'age'
p14
I0
sS'gener'
p15
S'm'
sS'lastScale'
p16
F5.5
sS'energy'
p17
F0.5
sb.(i__main__
Data_mobile
p1
(dp2
S'vel_y'
p3
F0.092340102007426123
sS'vel_x'
p4
F0.69388277508615104
sS'pos_x'
p5
F93.957501245571507
sS'pos_y'
p6
F-26.409678801144498
sS'isAlive'
p7
I01
sS'geno'
p8
(lp9
F-2.09725016121175
aF3.0332906970037428
aF-1.7725537955557358
aF4.1872523225257989
aF-2.0817617018764247
asS'accel_x'
p10
F1.6841104146502783
sS'accel_y'
p11
F-1.0787826988168043
sS'maxAccel'
p12
I2
sS'maxVel'
p13
F0.69999999999999996
sS'age'
p14
I50
sS'gener'
p15
S'm'
sS'lastScale'
p16
F5.5
sS'energy'
p17
I0
sb.(i__main__
Data_mobile
p1
(dp2
S'vel_y'
p3
F0.27548089105838869
sS'vel_x'
p4
F0.6435140081316616
sS'pos_x'
p5
F94.723659492209777
sS'pos_y'
p6
F-26.0308548367918
sS'isAlive'
p7
I01
sS'geno'
p8
(lp9
F-2.1472016181090354
aF3.2370655591957762
aF-1.973888198076541
aF3.7174462625938109
aF-2.0817617018764247
asS'accel_x'
p10
F1.5261816136095794
sS'accel_y'
p11
F-1.2925825630419361
sS'maxAccel'
p12
I2
sS'maxVel'
p13
F0.69999999999999996
sS'age'
p14
I50
sS'gener'
p15
S'm'
sS'lastScale'
p16
F5.5
sS'energy'
p17
I0
sb.(i__main__
Data_mobile
p1
(dp2
S'vel_y'
p3
F0.13696531561163916
sS'vel_x'
p4
F0.68646959314991074
sS'pos_x'
p5
F94.070037553268122
sS'pos_y'
p6
F-26.161421702000393
sS'isAlive'
p7
I01
sS'geno'
p8
(lp9
F-1.6908060695388027
aF3.5027155766317524
aF-1.973888198076541
aF4.1872523225257989
aF-2.0817617018764247
asS'accel_x'
p10
F0
sS'accel_y'
p11
F0
sS'maxAccel'
p12
I2
sS'maxVel'
p13
F0.69999999999999996
sS'age'
p14
I0
sS'gener'
p15
S'm'
sS'lastScale'
p16
F5.5
sS'energy'
p17
F0.5
sb.(i__main__
Data_mobile
p1
(dp2
S'vel_y'
p3
F-0.050567923276203283
sS'vel_x'
p4
F0.69817110018643136
sS'pos_x'
p5
F94.98785864518716
sS'pos_y'
p6
F-25.510108000537986
sS'isAlive'
p7
I01
sS'geno'
p8
(lp9
F-1.6908060695388027
aF3.5027155766317524
aF-1.973888198076541
aF4.1872523225257989
aF-1.9683995794292422
asS'accel_x'
p10
F0.80795781422987267
sS'accel_y'
p11
F-1.8295365999140016
sS'maxAccel'
p12
I2
sS'maxVel'
p13
F0.69999999999999996
sS'age'
p14
I50
sS'gener'
p15
S'm'
sS'lastScale'
p16
F5.5
sS'energy'
p17
I0
sb.(i__main__
Data_mobile
p1
(dp2
S'vel_y'
p3
F0.04097879502608362
sS'vel_x'
p4
F0.698799497966484
sS'pos_x'
p5
F96.931914803889313
sS'pos_y'
p6
F-25.723938198008078
sS'isAlive'
p7
I01
sS'geno'
p8
(lp9
F-1.6908060695388027
aF3.5027155766317524
aF-1.973888198076541
aF4.1872523225257989
aF-2.0817617018764247
asS'accel_x'
p10
F-1.0603827245159771
sS'accel_y'
p11
F-1.6957560194639067
sS'maxAccel'
p12
I2
sS'maxVel'
p13
F0.69999999999999996
sS'age'
p14
I50
sS'gener'
p15
S'm'
sS'lastScale'
p16
F7.4999999999999973
sS'energy'
p17
F0.19999999999999968
sb.(i__main__
Data_mobile
p1
(dp2
S'vel_y'
p3
I0
sS'vel_x'
p4
I0
sS'pos_x'
p5
I-9999
sS'pos_y'
p6
I9999
sS'isAlive'
p7
I00
sS'geno'
p8
(lp9
F-2.1472016181090354
aF3.0332906970037428
aF-1.973888198076541
aF4.1872523225257989
aF-2.1452524482604023
asS'accel_x'
p10
F0
sS'accel_y'
p11
F0
sS'maxAccel'
p12
I2
sS'maxVel'
p13
F0.69999999999999996
sS'age'
p14
I0
sS'gener'
p15
S'm'
sS'lastScale'
p16
F5.5
sS'energy'
p17
F0.5
sb.(i__main__
Data_mobile
p1
(dp2
S'vel_y'
p3
I0
sS'vel_x'
p4
I0
sS'pos_x'
p5
I-9999
sS'pos_y'
p6
I9999
sS'isAlive'
p7
I00
sS'geno'
p8
(lp9
F-2.09725016121175
aF2.6739599267064591
aF-1.973888198076541
aF4.1872523225257989
aF-2.0817617018764247
asS'accel_x'
p10
F0
sS'accel_y'
p11
F0
sS'maxAccel'
p12
I2
sS'maxVel'
p13
F0.69999999999999996
sS'age'
p14
I0
sS'gener'
p15
S'm'
sS'lastScale'
p16
F5.5
sS'energy'
p17
F0.5
sb.(i__main__
Data_mobile
p1
(dp2
S'vel_y'
p3
I0
sS'vel_x'
p4
I0
sS'pos_x'
p5
I-9999
sS'pos_y'
p6
I9999
sS'isAlive'
p7
I00
sS'geno'
p8
(lp9
F-2.09725016121175
aF2.206787438818246
aF-1.973888198076541
aF4.1872523225257989
aF-2.0817617018764247
asS'accel_x'
p10
F0
sS'accel_y'
p11
F0
sS'maxAccel'
p12
I2
sS'maxVel'
p13
F0.69999999999999996
sS'age'
p14
I0
sS'gener'
p15
S'm'
sS'lastScale'
p16
F5.5
sS'energy'
p17
F0.5
sb.(i__main__
Data_mobile
p1
(dp2
S'vel_y'
p3
I0
sS'vel_x'
p4
I0
sS'pos_x'
p5
I-9999
sS'pos_y'
p6
I9999
sS'isAlive'
p7
I00
sS'geno'
p8
(lp9
F-2.09725016121175
aF2.206787438818246
aF-1.973888198076541
aF4.1872523225257989
aF-2.0817617018764247
asS'accel_x'
p10
F0
sS'accel_y'
p11
F0
sS'maxAccel'
p12
I2
sS'maxVel'
p13
F0.69999999999999996
sS'age'
p14
I0
sS'gener'
p15
S'm'
sS'lastScale'
p16
F5.5
sS'energy'
p17
F0.5
sb.(i__main__
Data_mobile
p1
(dp2
S'vel_y'
p3
I0
sS'vel_x'
p4
I0
sS'pos_x'
p5
I-9999
sS'pos_y'
p6
I9999
sS'isAlive'
p7
I00
sS'geno'
p8
(lp9
F-2.09725016121175
aF2.206787438818246
aF-1.973888198076541
aF4.1872523225257989
aF-2.0817617018764247
asS'accel_x'
p10
F0
sS'accel_y'
p11
F0
sS'maxAccel'
p12
I2
sS'maxVel'
p13
F0.69999999999999996
sS'age'
p14
I0
sS'gener'
p15
S'm'
sS'lastScale'
p16
F5.5
sS'energy'
p17
F0.5
sb.(i__main__
Data_mobile
p1
(dp2
S'vel_y'
p3
I0
sS'vel_x'
p4
I0
sS'pos_x'
p5
I-9999
sS'pos_y'
p6
I9999
sS'isAlive'
p7
I00
sS'geno'
p8
(lp9
F-2.09725016121175
aF2.6739599267064591
aF-2.2022876460936223
aF4.1872523225257989
aF-2.0817617018764247
asS'accel_x'
p10
F0
sS'accel_y'
p11
F0
sS'maxAccel'
p12
I2
sS'maxVel'
p13
F0.69999999999999996
sS'age'
p14
I0
sS'gener'
p15
S'm'
sS'lastScale'
p16
F5.5
sS'energy'
p17
F0.5
sb.(i__main__
Data_mobile
p1
(dp2
S'vel_y'
p3
I0
sS'vel_x'
p4
I0
sS'pos_x'
p5
I-9999
sS'pos_y'
p6
I9999
sS'isAlive'
p7
I00
sS'geno'
p8
(lp9
F-2.1472016181090354
aF3.0332906970037428
aF-2.269051638952909
aF4.1872523225257989
aF-2.0817617018764247
asS'accel_x'
p10
F0
sS'accel_y'
p11
F0
sS'maxAccel'
p12
I2
sS'maxVel'
p13
F0.69999999999999996
sS'age'
p14
I0
sS'gener'
p15
S'm'
sS'lastScale'
p16
F5.5
sS'energy'
p17
F0.5
sb.(i__main__
Data_mobile
p1
(dp2
S'vel_y'
p3
I0
sS'vel_x'
p4
I0
sS'pos_x'
p5
I-9999
sS'pos_y'
p6
I9999
sS'isAlive'
p7
I00
sS'geno'
p8
(lp9
F-2.09725016121175
aF2.6739599267064591
aF-1.973888198076541
aF4.1872523225257989
aF-2.0817617018764247
asS'accel_x'
p10
F0
sS'accel_y'
p11
F0
sS'maxAccel'
p12
I2
sS'maxVel'
p13
F0.69999999999999996
sS'age'
p14
I0
sS'gener'
p15
S'm'
sS'lastScale'
p16
F5.5
sS'energy'
p17
F0.5
sb.(i__main__
Data_mobile
p1
(dp2
S'vel_y'
p3
I0
sS'vel_x'
p4
I0
sS'pos_x'
p5
I-9999
sS'pos_y'
p6
I9999
sS'isAlive'
p7
I00
sS'geno'
p8
(lp9
F-2.09725016121175
aF2.206787438818246
aF-1.973888198076541
aF4.1872523225257989
aF-2.1452524482604023
asS'accel_x'
p10
F0
sS'accel_y'
p11
F0
sS'maxAccel'
p12
I2
sS'maxVel'
p13
F0.69999999999999996
sS'age'
p14
I0
sS'gener'
p15
S'm'
sS'lastScale'
p16
F5.5
sS'energy'
p17
F0.5
sb.(i__main__
Data_mobile
p1
(dp2
S'vel_y'
p3
I0
sS'vel_x'
p4
I0
sS'pos_x'
p5
I-9999
sS'pos_y'
p6
I9999
sS'isAlive'
p7
I00
sS'geno'
p8
(lp9
F-1.78971413050376
aF3.0332906970037428
aF-1.973888198076541
aF4.1872523225257989
aF-2.0817617018764247
asS'accel_x'
p10
F0
sS'accel_y'
p11
F0
sS'maxAccel'
p12
I2
sS'maxVel'
p13
F0.69999999999999996
sS'age'
p14
I0
sS'gener'
p15
S'm'
sS'lastScale'
p16
F5.5
sS'energy'
p17
F0.5
sb.(i__main__
Data_mobile
p1
(dp2
S'vel_y'
p3
I0
sS'vel_x'
p4
I0
sS'pos_x'
p5
I-9999
sS'pos_y'
p6
I9999
sS'isAlive'
p7
I00
sS'geno'
p8
(lp9
F-2.09725016121175
aF2.6739599267064591
aF-1.973888198076541
aF4.1872523225257989
aF-2.0817617018764247
asS'accel_x'
p10
F0
sS'accel_y'
p11
F0
sS'maxAccel'
p12
I2
sS'maxVel'
p13
F0.69999999999999996
sS'age'
p14
I0
sS'gener'
p15
S'm'
sS'lastScale'
p16
F5.5
sS'energy'
p17
F0.5
sb.(i__main__
Data_mobile
p1
(dp2
S'vel_y'
p3
I0
sS'vel_x'
p4
I0
sS'pos_x'
p5
I-9999
sS'pos_y'
p6
I9999
sS'isAlive'
p7
I00
sS'geno'
p8
(lp9
F-2.09725016121175
aF2.6739599267064591
aF-1.973888198076541
aF4.1872523225257989
aF-2.0817617018764247
asS'accel_x'
p10
F0
sS'accel_y'
p11
F0
sS'maxAccel'
p12
I2
sS'maxVel'
p13
F0.69999999999999996
sS'age'
p14
I0
sS'gener'
p15
S'm'
sS'lastScale'
p16
F5.5
sS'energy'
p17
F0.5
sb.(i__main__
Data_mobile
p1
(dp2
S'vel_y'
p3
I0
sS'vel_x'
p4
I0
sS'pos_x'
p5
I-9999
sS'pos_y'
p6
I9999
sS'isAlive'
p7
I00
sS'geno'
p8
(lp9
F-2.09725016121175
aF2.6739599267064591
aF-1.973888198076541
aF4.1872523225257989
aF-2.0817617018764247
asS'accel_x'
p10
F0
sS'accel_y'
p11
F0
sS'maxAccel'
p12
I2
sS'maxVel'
p13
F0.69999999999999996
sS'age'
p14
I0
sS'gener'
p15
S'm'
sS'lastScale'
p16
F5.5
sS'energy'
p17
F0.5
sb.(i__main__
Data_mobile
p1
(dp2
S'vel_y'
p3
I0
sS'vel_x'
p4
I0
sS'pos_x'
p5
I-9999
sS'pos_y'
p6
I9999
sS'isAlive'
p7
I00
sS'geno'
p8
(lp9
F-2.1472016181090354
aF3.0332906970037428
aF-1.973888198076541
aF4.1872523225257989
aF-2.0817617018764247
asS'accel_x'
p10
F0
sS'accel_y'
p11
F0
sS'maxAccel'
p12
I2
sS'maxVel'
p13
F0.69999999999999996
sS'age'
p14
I0
sS'gener'
p15
S'm'
sS'lastScale'
p16
F5.5
sS'energy'
p17
F0.5
sb.(i__main__
Data_mobile
p1
(dp2
S'vel_y'
p3
I0
sS'vel_x'
p4
I0
sS'pos_x'
p5
I-9999
sS'pos_y'
p6
I9999
sS'isAlive'
p7
I00
sS'geno'
p8
(lp9
F-2.09725016121175
aF2.206787438818246
aF-1.973888198076541
aF4.1872523225257989
aF-2.0817617018764247
asS'accel_x'
p10
F0
sS'accel_y'
p11
F0
sS'maxAccel'
p12
I2
sS'maxVel'
p13
F0.69999999999999996
sS'age'
p14
I0
sS'gener'
p15
S'm'
sS'lastScale'
p16
F5.5
sS'energy'
p17
F0.5
sb.(i__main__
Data_mobile
p1
(dp2
S'vel_y'
p3
I0
sS'vel_x'
p4
I0
sS'pos_x'
p5
I-9999
sS'pos_y'
p6
I9999
sS'isAlive'
p7
I00
sS'geno'
p8
(lp9
F-2.09725016121175
aF2.6739599267064591
aF-1.973888198076541
aF4.1872523225257989
aF-2.0817617018764247
asS'accel_x'
p10
F0
sS'accel_y'
p11
F0
sS'maxAccel'
p12
I2
sS'maxVel'
p13
F0.69999999999999996
sS'age'
p14
I0
sS'gener'
p15
S'm'
sS'lastScale'
p16
F5.5
sS'energy'
p17
F0.5
sb.(i__main__
Data_mobile
p1
(dp2
S'vel_y'
p3
I0
sS'vel_x'
p4
I0
sS'pos_x'
p5
I-9999
sS'pos_y'
p6
I9999
sS'isAlive'
p7
I00
sS'geno'
p8
(lp9
F-2.09725016121175
aF2.6739599267064591
aF-1.973888198076541
aF4.1872523225257989
aF-2.0817617018764247
asS'accel_x'
p10
F0
sS'accel_y'
p11
F0
sS'maxAccel'
p12
I2
sS'maxVel'
p13
F0.69999999999999996
sS'age'
p14
I0
sS'gener'
p15
S'm'
sS'lastScale'
p16
F5.5
sS'energy'
p17
F0.5
sb.(i__main__
Data_mobile
p1
(dp2
S'vel_y'
p3
I0
sS'vel_x'
p4
I0
sS'pos_x'
p5
I-9999
sS'pos_y'
p6
I9999
sS'isAlive'
p7
I00
sS'geno'
p8
(lp9
F-2.09725016121175
aF2.6739599267064591
aF-1.973888198076541
aF4.1872523225257989
aF-2.0817617018764247
asS'accel_x'
p10
F0
sS'accel_y'
p11
F0
sS'maxAccel'
p12
I2
sS'maxVel'
p13
F0.69999999999999996
sS'age'
p14
I0
sS'gener'
p15
S'm'
sS'lastScale'
p16
F5.5
sS'energy'
p17
F0.5
sb.(i__main__
Data_mobile
p1
(dp2
S'vel_y'
p3
I0
sS'vel_x'
p4
I0
sS'pos_x'
p5
I-9999
sS'pos_y'
p6
I9999
sS'isAlive'
p7
I00
sS'geno'
p8
(lp9
F-2.09725016121175
aF2.6739599267064591
aF-1.973888198076541
aF4.1872523225257989
aF-2.0817617018764247
asS'accel_x'
p10
F0
sS'accel_y'
p11
F0
sS'maxAccel'
p12
I2
sS'maxVel'
p13
F0.69999999999999996
sS'age'
p14
I0
sS'gener'
p15
S'm'
sS'lastScale'
p16
F5.5
sS'energy'
p17
F0.5
sb.(i__main__
Data_mobile
p1
(dp2
S'vel_y'
p3
I0
sS'vel_x'
p4
I0
sS'pos_x'
p5
I-9999
sS'pos_y'
p6
I9999
sS'isAlive'
p7
I00
sS'geno'
p8
(lp9
F-2.1472016181090354
aF3.0332906970037428
aF-1.973888198076541
aF4.1872523225257989
aF-2.0817617018764247
asS'accel_x'
p10
F0
sS'accel_y'
p11
F0
sS'maxAccel'
p12
I2
sS'maxVel'
p13
F0.69999999999999996
sS'age'
p14
I0
sS'gener'
p15
S'm'
sS'lastScale'
p16
F5.5
sS'energy'
p17
F0.5
sb.(i__main__
Data_mobile
p1
(dp2
S'vel_y'
p3
I0
sS'vel_x'
p4
I0
sS'pos_x'
p5
I-9999
sS'pos_y'
p6
I9999
sS'isAlive'
p7
I00
sS'geno'
p8
(lp9
F-2.09725016121175
aF2.206787438818246
aF-1.973888198076541
aF4.4171584253214853
aF-2.1452524482604023
asS'accel_x'
p10
F0
sS'accel_y'
p11
F0
sS'maxAccel'
p12
I2
sS'maxVel'
p13
F0.69999999999999996
sS'age'
p14
I0
sS'gener'
p15
S'm'
sS'lastScale'
p16
F5.5
sS'energy'
p17
F0.5
sb.(i__main__
Data_mobile
p1
(dp2
S'vel_y'
p3
I0
sS'vel_x'
p4
I0
sS'pos_x'
p5
I-9999
sS'pos_y'
p6
I9999
sS'isAlive'
p7
I00
sS'geno'
p8
(lp9
F-2.09725016121175
aF2.206787438818246
aF-1.973888198076541
aF4.1872523225257989
aF-2.0817617018764247
asS'accel_x'
p10
F0
sS'accel_y'
p11
F0
sS'maxAccel'
p12
I2
sS'maxVel'
p13
F0.69999999999999996
sS'age'
p14
I0
sS'gener'
p15
S'm'
sS'lastScale'
p16
F5.5
sS'energy'
p17
F0.5
sb.(i__main__
Data_mobile
p1
(dp2
S'vel_y'
p3
I0
sS'vel_x'
p4
I0
sS'pos_x'
p5
I-9999
sS'pos_y'
p6
I9999
sS'isAlive'
p7
I00
sS'geno'
p8
(lp9
F-1.6908060695388027
aF3.0332906970037428
aF-1.973888198076541
aF4.1872523225257989
aF-2.0817617018764247
asS'accel_x'
p10
F0
sS'accel_y'
p11
F0
sS'maxAccel'
p12
I2
sS'maxVel'
p13
F0.69999999999999996
sS'age'
p14
I0
sS'gener'
p15
S'm'
sS'lastScale'
p16
F5.5
sS'energy'
p17
F0.5
sb.(i__main__
Data_mobile
p1
(dp2
S'vel_y'
p3
I0
sS'vel_x'
p4
I0
sS'pos_x'
p5
I-9999
sS'pos_y'
p6
I9999
sS'isAlive'
p7
I00
sS'geno'
p8
(lp9
F-2.1472016181090354
aF3.0332906970037428
aF-1.973888198076541
aF4.1872523225257989
aF-2.0817617018764247
asS'accel_x'
p10
F0
sS'accel_y'
p11
F0
sS'maxAccel'
p12
I2
sS'maxVel'
p13
F0.69999999999999996
sS'age'
p14
I0
sS'gener'
p15
S'm'
sS'lastScale'
p16
F5.5
sS'energy'
p17
F0.5
sb.(i__main__
Data_mobile
p1
(dp2
S'vel_y'
p3
I0
sS'vel_x'
p4
I0
sS'pos_x'
p5
I-9999
sS'pos_y'
p6
I9999
sS'isAlive'
p7
I00
sS'geno'
p8
(lp9
F-1.6908060695388027
aF3.0332906970037428
aF-1.973888198076541
aF4.1872523225257989
aF-2.3630493795647354
asS'accel_x'
p10
F0
sS'accel_y'
p11
F0
sS'maxAccel'
p12
I2
sS'maxVel'
p13
F0.69999999999999996
sS'age'
p14
I0
sS'gener'
p15
S'm'
sS'lastScale'
p16
F5.5
sS'energy'
p17
F0.5
sb.(i__main__
Data_mobile
p1
(dp2
S'vel_y'
p3
I0
sS'vel_x'
p4
I0
sS'pos_x'
p5
I-9999
sS'pos_y'
p6
I9999
sS'isAlive'
p7
I00
sS'geno'
p8
(lp9
F-1.6908060695388027
aF3.1613513536699336
aF-1.973888198076541
aF4.1872523225257989
aF-2.0817617018764247
asS'accel_x'
p10
F0
sS'accel_y'
p11
F0
sS'maxAccel'
p12
I2
sS'maxVel'
p13
F0.69999999999999996
sS'age'
p14
I0
sS'gener'
p15
S'm'
sS'lastScale'
p16
F5.5
sS'energy'
p17
F0.5
sb.(i__main__
Data_mobile
p1
(dp2
S'vel_y'
p3
I0
sS'vel_x'
p4
I0
sS'pos_x'
p5
I-9999
sS'pos_y'
p6
I9999
sS'isAlive'
p7
I00
sS'geno'
p8
(lp9
F-1.6908060695388027
aF3.0332906970037428
aF-1.973888198076541
aF4.1872523225257989
aF-2.0817617018764247
asS'accel_x'
p10
F0
sS'accel_y'
p11
F0
sS'maxAccel'
p12
I2
sS'maxVel'
p13
F0.69999999999999996
sS'age'
p14
I0
sS'gener'
p15
S'm'
sS'lastScale'
p16
F5.5
sS'energy'
p17
F0.5
sb.(i__main__
Data_mobile
p1
(dp2
S'vel_y'
p3
I0
sS'vel_x'
p4
I0
sS'pos_x'
p5
I-9999
sS'pos_y'
p6
I9999
sS'isAlive'
p7
I00
sS'geno'
p8
(lp9
F-1.6908060695388027
aF3.0332906970037428
aF-1.973888198076541
aF4.1872523225257989
aF-2.0817617018764247
asS'accel_x'
p10
F0
sS'accel_y'
p11
F0
sS'maxAccel'
p12
I2
sS'maxVel'
p13
F0.69999999999999996
sS'age'
p14
I0
sS'gener'
p15
S'm'
sS'lastScale'
p16
F5.5
sS'energy'
p17
F0.5
sb.(i__main__
Data_mobile
p1
(dp2
S'vel_y'
p3
I0
sS'vel_x'
p4
I0
sS'pos_x'
p5
I-9999
sS'pos_y'
p6
I9999
sS'isAlive'
p7
I00
sS'geno'
p8
(lp9
F-2.09725016121175
aF2.206787438818246
aF-1.973888198076541
aF4.1872523225257989
aF-2.1452524482604023
asS'accel_x'
p10
F0
sS'accel_y'
p11
F0
sS'maxAccel'
p12
I2
sS'maxVel'
p13
F0.69999999999999996
sS'age'
p14
I0
sS'gener'
p15
S'm'
sS'lastScale'
p16
F5.5
sS'energy'
p17
F0.5
sb.(i__main__
Data_mobile
p1
(dp2
S'vel_y'
p3
I0
sS'vel_x'
p4
I0
sS'pos_x'
p5
I-9999
sS'pos_y'
p6
I9999
sS'isAlive'
p7
I00
sS'geno'
p8
(lp9
F-1.6908060695388027
aF3.0332906970037428
aF-1.973888198076541
aF4.1872523225257989
aF-2.1452524482604023
asS'accel_x'
p10
F0
sS'accel_y'
p11
F0
sS'maxAccel'
p12
I2
sS'maxVel'
p13
F0.69999999999999996
sS'age'
p14
I0
sS'gener'
p15
S'm'
sS'lastScale'
p16
F5.5
sS'energy'
p17
F0.5
sb.(i__main__
Data_mobile
p1
(dp2
S'vel_y'
p3
I0
sS'vel_x'
p4
I0
sS'pos_x'
p5
I-9999
sS'pos_y'
p6
I9999
sS'isAlive'
p7
I00
sS'geno'
p8
(lp9
F-1.6908060695388027
aF3.0332906970037428
aF-1.973888198076541
aF4.1872523225257989
aF-2.0817617018764247
asS'accel_x'
p10
F0
sS'accel_y'
p11
F0
sS'maxAccel'
p12
I2
sS'maxVel'
p13
F0.69999999999999996
sS'age'
p14
I0
sS'gener'
p15
S'm'
sS'lastScale'
p16
F5.5
sS'energy'
p17
F0.5
sb.(i__main__
Data_mobile
p1
(dp2
S'vel_y'
p3
I0
sS'vel_x'
p4
I0
sS'pos_x'
p5
I-9999
sS'pos_y'
p6
I9999
sS'isAlive'
p7
I00
sS'geno'
p8
(lp9
F-2.09725016121175
aF3.2370655591957762
aF-1.973888198076541
aF4.1872523225257989
aF-2.0817617018764247
asS'accel_x'
p10
F0
sS'accel_y'
p11
F0
sS'maxAccel'
p12
I2
sS'maxVel'
p13
F0.69999999999999996
sS'age'
p14
I0
sS'gener'
p15
S'm'
sS'lastScale'
p16
F5.5
sS'energy'
p17
F0.5
sb.(i__main__
Data_mobile
p1
(dp2
S'vel_y'
p3
I0
sS'vel_x'
p4
I0
sS'pos_x'
p5
I-9999
sS'pos_y'
p6
I9999
sS'isAlive'
p7
I00
sS'geno'
p8
(lp9
F-1.6908060695388027
aF3.1613513536699336
aF-1.973888198076541
aF4.1872523225257989
aF-2.0817617018764247
asS'accel_x'
p10
F0
sS'accel_y'
p11
F0
sS'maxAccel'
p12
I2
sS'maxVel'
p13
F0.69999999999999996
sS'age'
p14
I0
sS'gener'
p15
S'm'
sS'lastScale'
p16
F5.5
sS'energy'
p17
F0.5
sb.(i__main__
Data_mobile
p1
(dp2
S'vel_y'
p3
I0
sS'vel_x'
p4
I0
sS'pos_x'
p5
I-9999
sS'pos_y'
p6
I9999
sS'isAlive'
p7
I00
sS'geno'
p8
(lp9
F-1.6908060695388027
aF2.6739599267064591
aF-1.973888198076541
aF4.1872523225257989
aF-2.0817617018764247
asS'accel_x'
p10
F0
sS'accel_y'
p11
F0
sS'maxAccel'
p12
I2
sS'maxVel'
p13
F0.69999999999999996
sS'age'
p14
I0
sS'gener'
p15
S'm'
sS'lastScale'
p16
F5.5
sS'energy'
p17
F0.5
sb.(i__main__
Data_mobile
p1
(dp2
S'vel_y'
p3
I0
sS'vel_x'
p4
I0
sS'pos_x'
p5
I-9999
sS'pos_y'
p6
I9999
sS'isAlive'
p7
I00
sS'geno'
p8
(lp9
F-2.1472016181090354
aF3.0332906970037428
aF-1.973888198076541
aF4.1872523225257989
aF-2.0817617018764247
asS'accel_x'
p10
F0
sS'accel_y'
p11
F0
sS'maxAccel'
p12
I2
sS'maxVel'
p13
F0.69999999999999996
sS'age'
p14
I0
sS'gener'
p15
S'm'
sS'lastScale'
p16
F5.5
sS'energy'
p17
F0.5
sb.(i__main__
Data_mobile
p1
(dp2
S'vel_y'
p3
I0
sS'vel_x'
p4
I0
sS'pos_x'
p5
I-9999
sS'pos_y'
p6
I9999
sS'isAlive'
p7
I00
sS'geno'
p8
(lp9
F-2.09725016121175
aF3.2370655591957762
aF-1.973888198076541
aF4.1872523225257989
aF-2.0817617018764247
asS'accel_x'
p10
F0
sS'accel_y'
p11
F0
sS'maxAccel'
p12
I2
sS'maxVel'
p13
F0.69999999999999996
sS'age'
p14
I0
sS'gener'
p15
S'm'
sS'lastScale'
p16
F5.5
sS'energy'
p17
F0.5
sb.(i__main__
Data_mobile
p1
(dp2
S'vel_y'
p3
I0
sS'vel_x'
p4
I0
sS'pos_x'
p5
I-9999
sS'pos_y'
p6
I9999
sS'isAlive'
p7
I00
sS'geno'
p8
(lp9
F-1.6908060695388027
aF3.2629533045493968
aF-1.973888198076541
aF4.1872523225257989
aF-2.0817617018764247
asS'accel_x'
p10
F0
sS'accel_y'
p11
F0
sS'maxAccel'
p12
I2
sS'maxVel'
p13
F0.69999999999999996
sS'age'
p14
I0
sS'gener'
p15
S'm'
sS'lastScale'
p16
F5.5
sS'energy'
p17
F0.5
sb.(i__main__
Data_mobile
p1
(dp2
S'vel_y'
p3
I0
sS'vel_x'
p4
I0
sS'pos_x'
p5
I-9999
sS'pos_y'
p6
I9999
sS'isAlive'
p7
I00
sS'geno'
p8
(lp9
F-1.6908060695388027
aF3.0332906970037428
aF-1.973888198076541
aF4.1872523225257989
aF-2.0817617018764247
asS'accel_x'
p10
F0
sS'accel_y'
p11
F0
sS'maxAccel'
p12
I2
sS'maxVel'
p13
F0.69999999999999996
sS'age'
p14
I0
sS'gener'
p15
S'm'
sS'lastScale'
p16
F5.5
sS'energy'
p17
F0.5
sb.(i__main__
Data_mobile
p1
(dp2
S'vel_y'
p3
I0
sS'vel_x'
p4
I0
sS'pos_x'
p5
I-9999
sS'pos_y'
p6
I9999
sS'isAlive'
p7
I00
sS'geno'
p8
(lp9
F-1.6908060695388027
aF3.2629533045493968
aF-1.973888198076541
aF4.1872523225257989
aF-2.0817617018764247
asS'accel_x'
p10
F0
sS'accel_y'
p11
F0
sS'maxAccel'
p12
I2
sS'maxVel'
p13
F0.69999999999999996
sS'age'
p14
I0
sS'gener'
p15
S'm'
sS'lastScale'
p16
F5.5
sS'energy'
p17
F0.5
sb.(i__main__
Data_mobile
p1
(dp2
S'vel_y'
p3
I0
sS'vel_x'
p4
I0
sS'pos_x'
p5
I-9999
sS'pos_y'
p6
I9999
sS'isAlive'
p7
I00
sS'geno'
p8
(lp9
F-2.1472016181090354
aF3.0332906970037428
aF-1.973888198076541
aF4.1872523225257989
aF-2.0817617018764247
asS'accel_x'
p10
F0
sS'accel_y'
p11
F0
sS'maxAccel'
p12
I2
sS'maxVel'
p13
F0.69999999999999996
sS'age'
p14
I0
sS'gener'
p15
S'm'
sS'lastScale'
p16
F5.5
sS'energy'
p17
F0.5
sb.(i__main__
Data_mobile
p1
(dp2
S'vel_y'
p3
I0
sS'vel_x'
p4
I0
sS'pos_x'
p5
I-9999
sS'pos_y'
p6
I9999
sS'isAlive'
p7
I00
sS'geno'
p8
(lp9
F-2.09725016121175
aF2.6739599267064591
aF-1.973888198076541
aF4.1872523225257989
aF-2.0817617018764247
asS'accel_x'
p10
F0
sS'accel_y'
p11
F0
sS'maxAccel'
p12
I2
sS'maxVel'
p13
F0.69999999999999996
sS'age'
p14
I0
sS'gener'
p15
S'm'
sS'lastScale'
p16
F5.5
sS'energy'
p17
F0.5
sb.