(i__main__
Data_mobile
p1
(dp2
S'vel_y'
p3
F0.68111813152135148
sS'vel_x'
p4
F-0.16148712292899203
sS'pos_x'
p5
F176.71325274575551
sS'pos_y'
p6
F-49.727403815022022
sS'isAlive'
p7
I01
sS'geno'
p8
(i__main__
Node
p9
(dp10
S'node'
p11
(lp12
S'+'
aS'-'
aS'*'
aS'/'
asS'right'
p13
(i__main__
Node
p14
(dp15
g11
(lp16
S'+'
aS'-'
aS'*'
aS'/'
asg13
(i__main__
Node
p17
(dp18
g11
(lp19
S'+'
aS'-'
aS'*'
aS'/'
asg13
NsS'leaf'
p20
(lp21
S'indiv.alignment()'
p22
aS'indiv.cohesion()'
p23
aS'indiv.separation()'
p24
aS'indiv.target()'
p25
aS'indiv.currentVelocity()'
p26
aS'indiv.centerOfWorld()'
p27
aS'indiv.mostEnergizedNeighbor()'
p28
aS'indiv.randV()'
p29
asS'parent'
p30
g14
sS'data'
p31
g22
sS'left'
p32
Nsbsg20
(lp33
g22
ag23
ag24
ag25
ag26
ag27
ag28
ag29
asg30
g9
sg31
S'+'
sg32
(i__main__
Node
p34
(dp35
g11
(lp36
S'+'
aS'-'
aS'*'
aS'/'
asg13
Nsg20
(lp37
g22
ag23
ag24
ag25
ag26
ag27
ag28
ag29
asg30
g14
sg31
g25
sg32
Nsbsbsg20
(lp38
g22
ag23
ag24
ag25
ag26
ag27
ag28
ag29
asg30
Nsg31
S'+'
sg32
(i__main__
Node
p39
(dp40
g11
(lp41
S'+'
aS'-'
aS'*'
aS'/'
asg13
(i__main__
Node
p42
(dp43
g11
(lp44
S'+'
aS'-'
aS'*'
aS'/'
asg13
Nsg20
(lp45
g22
ag23
ag24
ag25
ag26
ag27
ag28
ag29
asg30
g39
sg31
g22
sg32
Nsbsg20
(lp46
g22
ag23
ag24
ag25
ag26
ag27
ag28
ag29
asg30
g9
sg31
S'+'
sg32
(i__main__
Node
p47
(dp48
g11
(lp49
S'+'
aS'-'
aS'*'
aS'/'
asg13
Nsg20
(lp50
g22
ag23
ag24
ag25
ag26
ag27
ag28
ag29
asg30
g39
sg31
g25
sg32
NsbsbsbsS'accel_x'
p51
F0
sS'accel_y'
p52
F0
sS'maxAccel'
p53
I2
sS'maxVel'
p54
F0.69999999999999996
sS'age'
p55
I0
sS'gener'
p56
S'm'
sS'lastScale'
p57
F5.5
sS'energy'
p58
F0.5
sb.(i__main__
Data_mobile
p1
(dp2
S'vel_y'
p3
F0.68111483893076574
sS'vel_x'
p4
F-0.16150100986779298
sS'pos_x'
p5
F176.65577033665718
sS'pos_y'
p6
F-50.074295247542551
sS'isAlive'
p7
I01
sS'geno'
p8
(i__main__
Node
p9
(dp10
S'node'
p11
(lp12
S'+'
aS'-'
aS'*'
aS'/'
asS'right'
p13
(i__main__
Node
p14
(dp15
g11
(lp16
S'+'
aS'-'
aS'*'
aS'/'
asg13
(i__main__
Node
p17
(dp18
g11
(lp19
S'+'
aS'-'
aS'*'
aS'/'
asg13
NsS'leaf'
p20
(lp21
S'indiv.alignment()'
p22
aS'indiv.cohesion()'
p23
aS'indiv.separation()'
p24
aS'indiv.target()'
p25
aS'indiv.currentVelocity()'
p26
aS'indiv.centerOfWorld()'
p27
aS'indiv.mostEnergizedNeighbor()'
p28
aS'indiv.randV()'
p29
asS'parent'
p30
g14
sS'data'
p31
g22
sS'left'
p32
Nsbsg20
(lp33
g22
ag23
ag24
ag25
ag26
ag27
ag28
ag29
asg30
g9
sg31
S'+'
sg32
(i__main__
Node
p34
(dp35
g11
(lp36
S'+'
aS'-'
aS'*'
aS'/'
asg13
Nsg20
(lp37
g22
ag23
ag24
ag25
ag26
ag27
ag28
ag29
asg30
g14
sg31
g25
sg32
Nsbsbsg20
(lp38
g22
ag23
ag24
ag25
ag26
ag27
ag28
ag29
asg30
Nsg31
S'+'
sg32
(i__main__
Node
p39
(dp40
g11
(lp41
S'+'
aS'-'
aS'*'
aS'/'
asg13
(i__main__
Node
p42
(dp43
g11
(lp44
S'+'
aS'-'
aS'*'
aS'/'
asg13
Nsg20
(lp45
g22
ag23
ag24
ag25
ag26
ag27
ag28
ag29
asg30
g39
sg31
g22
sg32
Nsbsg20
(lp46
g22
ag23
ag24
ag25
ag26
ag27
ag28
ag29
asg30
g9
sg31
S'+'
sg32
(i__main__
Node
p47
(dp48
g11
(lp49
S'+'
aS'-'
aS'*'
aS'/'
asg13
Nsg20
(lp50
g22
ag23
ag24
ag25
ag26
ag27
ag28
ag29
asg30
g39
sg31
g25
sg32
NsbsbsbsS'accel_x'
p51
F-0.32297843686536554
sS'accel_y'
p52
F1.362235269041838
sS'maxAccel'
p53
I2
sS'maxVel'
p54
F0.69999999999999996
sS'age'
p55
I100
sS'gener'
p56
S'm'
sS'lastScale'
p57
F13.799999999999999
sS'energy'
p58
F0.82999999999999985
sb.(i__main__
Data_mobile
p1
(dp2
S'vel_y'
p3
F-0.0043108238979544088
sS'vel_x'
p4
F0.6999867261579471
sS'pos_x'
p5
F28.886362864107245
sS'pos_y'
p6
F0.52541356595413213
sS'isAlive'
p7
I01
sS'geno'
p8
(i__main__
Node
p9
(dp10
S'node'
p11
(lp12
S'+'
aS'-'
aS'*'
aS'/'
asS'right'
p13
(i__main__
Node
p14
(dp15
g11
(lp16
S'+'
aS'-'
aS'*'
aS'/'
asg13
(i__main__
Node
p17
(dp18
g11
(lp19
S'+'
aS'-'
aS'*'
aS'/'
asg13
(i__main__
Node
p20
(dp21
g11
(lp22
S'+'
aS'-'
aS'*'
aS'/'
asg13
(i__main__
Node
p23
(dp24
g11
(lp25
S'+'
aS'-'
aS'*'
aS'/'
asg13
NsS'leaf'
p26
(lp27
S'indiv.alignment()'
p28
aS'indiv.cohesion()'
p29
aS'indiv.separation()'
p30
aS'indiv.target()'
p31
aS'indiv.currentVelocity()'
p32
aS'indiv.centerOfWorld()'
p33
aS'indiv.mostEnergizedNeighbor()'
p34
aS'indiv.randV()'
p35
asS'parent'
p36
g20
sS'data'
p37
g34
sS'left'
p38
Nsbsg26
(lp39
g28
ag29
ag30
ag31
ag32
ag33
ag34
ag35
asg36
g17
sg37
S'/'
sg38
(i__main__
Node
p40
(dp41
g11
(lp42
S'+'
aS'-'
aS'*'
aS'/'
asg13
Nsg26
(lp43
g28
ag29
ag30
ag31
ag32
ag33
ag34
ag35
asg36
g20
sg37
g28
sg38
Nsbsbsg26
(lp44
g28
ag29
ag30
ag31
ag32
ag33
ag34
ag35
asg36
g14
sg37
S'/'
sg38
(i__main__
Node
p45
(dp46
g11
(lp47
S'+'
aS'-'
aS'*'
aS'/'
asg13
(i__main__
Node
p48
(dp49
g11
(lp50
S'+'
aS'-'
aS'*'
aS'/'
asg13
Nsg26
(lp51
g28
ag29
ag30
ag31
ag32
ag33
ag34
ag35
asg36
g45
sg37
g28
sg38
Nsbsg26
(lp52
g28
ag29
ag30
ag31
ag32
ag33
ag34
ag35
asg36
g17
sg37
S'-'
sg38
(i__main__
Node
p53
(dp54
g11
(lp55
S'+'
aS'-'
aS'*'
aS'/'
asg13
Nsg26
(lp56
g28
ag29
ag30
ag31
ag32
ag33
ag34
ag35
asg36
g45
sg37
g32
sg38
Nsbsbsbsg26
(lp57
g28
ag29
ag30
ag31
ag32
ag33
ag34
ag35
asg36
g9
sg37
S'/'
sg38
(i__main__
Node
p58
(dp59
g11
(lp60
S'+'
aS'-'
aS'*'
aS'/'
asg13
(i__main__
Node
p61
(dp62
g11
(lp63
S'+'
aS'-'
aS'*'
aS'/'
asg13
Nsg26
(lp64
g28
ag29
ag30
ag31
ag32
ag33
ag34
ag35
asg36
g58
sg37
g28
sg38
Nsbsg26
(lp65
g28
ag29
ag30
ag31
ag32
ag33
ag34
ag35
asg36
g14
sg37
S'-'
sg38
(i__main__
Node
p66
(dp67
g11
(lp68
S'+'
aS'-'
aS'*'
aS'/'
asg13
Nsg26
(lp69
g28
ag29
ag30
ag31
ag32
ag33
ag34
ag35
asg36
g58
sg37
g32
sg38
Nsbsbsbsg26
(lp70
g28
ag29
ag30
ag31
ag32
ag33
ag34
ag35
asg36
Nsg37
S'+'
sg38
(i__main__
Node
p71
(dp72
g11
(lp73
S'+'
aS'-'
aS'*'
aS'/'
asg13
(i__main__
Node
p74
(dp75
g11
(lp76
S'+'
aS'-'
aS'*'
aS'/'
asg13
Nsg26
(lp77
g28
ag29
ag30
ag31
ag32
ag33
ag34
ag35
asg36
g71
sg37
g29
sg38
Nsbsg26
(lp78
g28
ag29
ag30
ag31
ag32
ag33
ag34
ag35
asg36
g9
sg37
S'-'
sg38
(i__main__
Node
p79
(dp80
g11
(lp81
S'+'
aS'-'
aS'*'
aS'/'
asg13
Nsg26
(lp82
g28
ag29
ag30
ag31
ag32
ag33
ag34
ag35
asg36
g71
sg37
g31
sg38
NsbsbsbsS'accel_x'
p83
F0
sS'accel_y'
p84
F0
sS'maxAccel'
p85
I2
sS'maxVel'
p86
F0.69999999999999996
sS'age'
p87
I0
sS'gener'
p88
S'm'
sS'lastScale'
p89
F5.5
sS'energy'
p90
F0.5
sb.(i__main__
Data_mobile
p1
(dp2
S'vel_y'
p3
F0.42411687445126645
sS'vel_x'
p4
F-0.40517419669856164
sS'pos_x'
p5
F114.20218743508346
sS'pos_y'
p6
F-26.959673942593636
sS'isAlive'
p7
I01
sS'geno'
p8
(i__main__
Node
p9
(dp10
S'node'
p11
(lp12
S'+'
aS'-'
aS'*'
aS'/'
asS'right'
p13
(i__main__
Node
p14
(dp15
g11
(lp16
S'+'
aS'-'
aS'*'
aS'/'
asg13
(i__main__
Node
p17
(dp18
g11
(lp19
S'+'
aS'-'
aS'*'
aS'/'
asg13
NsS'leaf'
p20
(lp21
S'indiv.alignment()'
p22
aS'indiv.cohesion()'
p23
aS'indiv.separation()'
p24
aS'indiv.target()'
p25
aS'indiv.currentVelocity()'
p26
aS'indiv.centerOfWorld()'
p27
aS'indiv.mostEnergizedNeighbor()'
p28
aS'indiv.randV()'
p29
asS'parent'
p30
g14
sS'data'
p31
g22
sS'left'
p32
Nsbsg20
(lp33
g22
ag23
ag24
ag25
ag26
ag27
ag28
ag29
asg30
g9
sg31
S'+'
sg32
(i__main__
Node
p34
(dp35
g11
(lp36
S'+'
aS'-'
aS'*'
aS'/'
asg13
Nsg20
(lp37
g22
ag23
ag24
ag25
ag26
ag27
ag28
ag29
asg30
g14
sg31
g25
sg32
Nsbsbsg20
(lp38
g22
ag23
ag24
ag25
ag26
ag27
ag28
ag29
asg30
Nsg31
S'+'
sg32
(i__main__
Node
p39
(dp40
g11
(lp41
S'+'
aS'-'
aS'*'
aS'/'
asg13
(i__main__
Node
p42
(dp43
g11
(lp44
S'+'
aS'-'
aS'*'
aS'/'
asg13
Nsg20
(lp45
g22
ag23
ag24
ag25
ag26
ag27
ag28
ag29
asg30
g39
sg31
g22
sg32
Nsbsg20
(lp46
g22
ag23
ag24
ag25
ag26
ag27
ag28
ag29
asg30
g9
sg31
S'+'
sg32
(i__main__
Node
p47
(dp48
g11
(lp49
S'+'
aS'-'
aS'*'
aS'/'
asg13
Nsg20
(lp50
g22
ag23
ag24
ag25
ag26
ag27
ag28
ag29
asg30
g39
sg31
g25
sg32
NsbsbsbsS'accel_x'
p51
F0
sS'accel_y'
p52
F0
sS'maxAccel'
p53
I2
sS'maxVel'
p54
F0.69999999999999996
sS'age'
p55
I0
sS'gener'
p56
S'm'
sS'lastScale'
p57
F5.5
sS'energy'
p58
F0.5
sb.(i__main__
Data_mobile
p1
(dp2
S'vel_y'
p3
F0.11028076387154256
sS'vel_x'
p4
F0.47304286755484715
sS'pos_x'
p5
F150.6253161930922
sS'pos_y'
p6
F-51.093697746652111
sS'isAlive'
p7
I01
sS'geno'
p8
(i__main__
Node
p9
(dp10
S'node'
p11
(lp12
S'+'
aS'-'
aS'*'
aS'/'
asS'right'
p13
(i__main__
Node
p14
(dp15
g11
(lp16
S'+'
aS'-'
aS'*'
aS'/'
asg13
(i__main__
Node
p17
(dp18
g11
(lp19
S'+'
aS'-'
aS'*'
aS'/'
asg13
(i__main__
Node
p20
(dp21
g11
(lp22
S'+'
aS'-'
aS'*'
aS'/'
asg13
(i__main__
Node
p23
(dp24
g11
(lp25
S'+'
aS'-'
aS'*'
aS'/'
asg13
NsS'leaf'
p26
(lp27
S'indiv.alignment()'
p28
aS'indiv.cohesion()'
p29
aS'indiv.separation()'
p30
aS'indiv.target()'
p31
aS'indiv.currentVelocity()'
p32
aS'indiv.centerOfWorld()'
p33
aS'indiv.mostEnergizedNeighbor()'
p34
aS'indiv.randV()'
p35
asS'parent'
p36
g20
sS'data'
p37
g28
sS'left'
p38
Nsbsg26
(lp39
g28
ag29
ag30
ag31
ag32
ag33
ag34
ag35
asg36
g17
sg37
S'*'
sg38
(i__main__
Node
p40
(dp41
g11
(lp42
S'+'
aS'-'
aS'*'
aS'/'
asg13
Nsg26
(lp43
g28
ag29
ag30
ag31
ag32
ag33
ag34
ag35
asg36
g20
sg37
g33
sg38
Nsbsbsg26
(lp44
g28
ag29
ag30
ag31
ag32
ag33
ag34
ag35
asg36
g14
sg37
S'+'
sg38
(i__main__
Node
p45
(dp46
g11
(lp47
S'+'
aS'-'
aS'*'
aS'/'
asg13
(i__main__
Node
p48
(dp49
g11
(lp50
S'+'
aS'-'
aS'*'
aS'/'
asg13
Nsg26
(lp51
g28
ag29
ag30
ag31
ag32
ag33
ag34
ag35
asg36
g45
sg37
g28
sg38
Nsbsg26
(lp52
g28
ag29
ag30
ag31
ag32
ag33
ag34
ag35
asg36
g17
sg37
S'+'
sg38
(i__main__
Node
p53
(dp54
g11
(lp55
S'+'
aS'-'
aS'*'
aS'/'
asg13
Nsg26
(lp56
g28
ag29
ag30
ag31
ag32
ag33
ag34
ag35
asg36
g45
sg37
g31
sg38
Nsbsbsbsg26
(lp57
g28
ag29
ag30
ag31
ag32
ag33
ag34
ag35
asg36
g9
sg37
S'/'
sg38
(i__main__
Node
p58
(dp59
g11
(lp60
S'+'
aS'-'
aS'*'
aS'/'
asg13
(i__main__
Node
p61
(dp62
g11
(lp63
S'+'
aS'-'
aS'*'
aS'/'
asg13
Nsg26
(lp64
g28
ag29
ag30
ag31
ag32
ag33
ag34
ag35
asg36
g58
sg37
g28
sg38
Nsbsg26
(lp65
g28
ag29
ag30
ag31
ag32
ag33
ag34
ag35
asg36
g14
sg37
S'+'
sg38
(i__main__
Node
p66
(dp67
g11
(lp68
S'+'
aS'-'
aS'*'
aS'/'
asg13
Nsg26
(lp69
g28
ag29
ag30
ag31
ag32
ag33
ag34
ag35
asg36
g58
sg37
g31
sg38
Nsbsbsbsg26
(lp70
g28
ag29
ag30
ag31
ag32
ag33
ag34
ag35
asg36
Nsg37
S'+'
sg38
(i__main__
Node
p71
(dp72
g11
(lp73
S'+'
aS'-'
aS'*'
aS'/'
asg13
(i__main__
Node
p74
(dp75
g11
(lp76
S'+'
aS'-'
aS'*'
aS'/'
asg13
Nsg26
(lp77
g28
ag29
ag30
ag31
ag32
ag33
ag34
ag35
asg36
g71
sg37
g28
sg38
Nsbsg26
(lp78
g28
ag29
ag30
ag31
ag32
ag33
ag34
ag35
asg36
g9
sg37
S'+'
sg38
(i__main__
Node
p79
(dp80
g11
(lp81
S'+'
aS'-'
aS'*'
aS'/'
asg13
Nsg26
(lp82
g28
ag29
ag30
ag31
ag32
ag33
ag34
ag35
asg36
g71
sg37
g31
sg38
NsbsbsbsS'accel_x'
p83
F0
sS'accel_y'
p84
F0
sS'maxAccel'
p85
I2
sS'maxVel'
p86
F0.69999999999999996
sS'age'
p87
I0
sS'gener'
p88
S'm'
sS'lastScale'
p89
F5.5
sS'energy'
p90
F0.5
sb.(i__main__
Data_mobile
p1
(dp2
S'vel_y'
p3
F-0.67800490478762576
sS'vel_x'
p4
F-0.17409580432601623
sS'pos_x'
p5
F155.84702699191232
sS'pos_y'
p6
F-65.660876198128065
sS'isAlive'
p7
I01
sS'geno'
p8
(i__main__
Node
p9
(dp10
S'node'
p11
(lp12
S'+'
aS'-'
aS'*'
aS'/'
asS'right'
p13
(i__main__
Node
p14
(dp15
g11
(lp16
S'+'
aS'-'
aS'*'
aS'/'
asg13
(i__main__
Node
p17
(dp18
g11
(lp19
S'+'
aS'-'
aS'*'
aS'/'
asg13
NsS'leaf'
p20
(lp21
S'indiv.alignment()'
p22
aS'indiv.cohesion()'
p23
aS'indiv.separation()'
p24
aS'indiv.target()'
p25
aS'indiv.currentVelocity()'
p26
aS'indiv.centerOfWorld()'
p27
aS'indiv.mostEnergizedNeighbor()'
p28
aS'indiv.randV()'
p29
asS'parent'
p30
g14
sS'data'
p31
g29
sS'left'
p32
Nsbsg20
(lp33
g22
ag23
ag24
ag25
ag26
ag27
ag28
ag29
asg30
g9
sg31
S'-'
sg32
(i__main__
Node
p34
(dp35
g11
(lp36
S'+'
aS'-'
aS'*'
aS'/'
asg13
Nsg20
(lp37
g22
ag23
ag24
ag25
ag26
ag27
ag28
ag29
asg30
g14
sg31
g23
sg32
Nsbsbsg20
(lp38
g22
ag23
ag24
ag25
ag26
ag27
ag28
ag29
asg30
Nsg31
S'+'
sg32
(i__main__
Node
p39
(dp40
g11
(lp41
S'+'
aS'-'
aS'*'
aS'/'
asg13
(i__main__
Node
p42
(dp43
g11
(lp44
S'+'
aS'-'
aS'*'
aS'/'
asg13
Nsg20
(lp45
g22
ag23
ag24
ag25
ag26
ag27
ag28
ag29
asg30
g39
sg31
g23
sg32
Nsbsg20
(lp46
g22
ag23
ag24
ag25
ag26
ag27
ag28
ag29
asg30
g9
sg31
S'-'
sg32
(i__main__
Node
p47
(dp48
g11
(lp49
S'+'
aS'-'
aS'*'
aS'/'
asg13
Nsg20
(lp50
g22
ag23
ag24
ag25
ag26
ag27
ag28
ag29
asg30
g39
sg31
g25
sg32
NsbsbsbsS'accel_x'
p51
F-0.37229525050179291
sS'accel_y'
p52
F-0.29297569084454267
sS'maxAccel'
p53
I2
sS'maxVel'
p54
F0.69999999999999996
sS'age'
p55
I800
sS'gener'
p56
S'm'
sS'lastScale'
p57
F7.9999999999999929
sS'energy'
p58
F0.24999999999999933
sb.(i__main__
Data_mobile
p1
(dp2
S'vel_y'
p3
F0.68111486823014888
sS'vel_x'
p4
F-0.16150088630043777
sS'pos_x'
p5
F176.66126304786113
sS'pos_y'
p6
F-50.056285007007496
sS'isAlive'
p7
I01
sS'geno'
p8
(i__main__
Node
p9
(dp10
S'node'
p11
(lp12
S'+'
aS'-'
aS'*'
aS'/'
asS'right'
p13
(i__main__
Node
p14
(dp15
g11
(lp16
S'+'
aS'-'
aS'*'
aS'/'
asg13
(i__main__
Node
p17
(dp18
g11
(lp19
S'+'
aS'-'
aS'*'
aS'/'
asg13
NsS'leaf'
p20
(lp21
S'indiv.alignment()'
p22
aS'indiv.cohesion()'
p23
aS'indiv.separation()'
p24
aS'indiv.target()'
p25
aS'indiv.currentVelocity()'
p26
aS'indiv.centerOfWorld()'
p27
aS'indiv.mostEnergizedNeighbor()'
p28
aS'indiv.randV()'
p29
asS'parent'
p30
g14
sS'data'
p31
g22
sS'left'
p32
Nsbsg20
(lp33
g22
ag23
ag24
ag25
ag26
ag27
ag28
ag29
asg30
g9
sg31
S'+'
sg32
(i__main__
Node
p34
(dp35
g11
(lp36
S'+'
aS'-'
aS'*'
aS'/'
asg13
Nsg20
(lp37
g22
ag23
ag24
ag25
ag26
ag27
ag28
ag29
asg30
g14
sg31
g25
sg32
Nsbsbsg20
(lp38
g22
ag23
ag24
ag25
ag26
ag27
ag28
ag29
asg30
Nsg31
S'+'
sg32
(i__main__
Node
p39
(dp40
g11
(lp41
S'+'
aS'-'
aS'*'
aS'/'
asg13
(i__main__
Node
p42
(dp43
g11
(lp44
S'+'
aS'-'
aS'*'
aS'/'
asg13
Nsg20
(lp45
g22
ag23
ag24
ag25
ag26
ag27
ag28
ag29
asg30
g39
sg31
g22
sg32
Nsbsg20
(lp46
g22
ag23
ag24
ag25
ag26
ag27
ag28
ag29
asg30
g9
sg31
S'+'
sg32
(i__main__
Node
p47
(dp48
g11
(lp49
S'+'
aS'-'
aS'*'
aS'/'
asg13
Nsg20
(lp50
g22
ag23
ag24
ag25
ag26
ag27
ag28
ag29
asg30
g39
sg31
g25
sg32
NsbsbsbsS'accel_x'
p51
F-0.32297787186898369
sS'accel_y'
p52
F1.362235403014632
sS'maxAccel'
p53
I2
sS'maxVel'
p54
F0.69999999999999996
sS'age'
p55
I350
sS'gener'
p56
S'm'
sS'lastScale'
p57
F13.799999999999999
sS'energy'
p58
F0.82999999999999985
sb.(i__main__
Data_mobile
p1
(dp2
S'vel_y'
p3
F-0.47911099379647432
sS'vel_x'
p4
F-0.51034562369374226
sS'pos_x'
p5
F155.65123328694381
sS'pos_y'
p6
F-64.916755854363657
sS'isAlive'
p7
I01
sS'geno'
p8
(i__main__
Node
p9
(dp10
S'node'
p11
(lp12
S'+'
aS'-'
aS'*'
aS'/'
asS'right'
p13
(i__main__
Node
p14
(dp15
g11
(lp16
S'+'
aS'-'
aS'*'
aS'/'
asg13
(i__main__
Node
p17
(dp18
g11
(lp19
S'+'
aS'-'
aS'*'
aS'/'
asg13
NsS'leaf'
p20
(lp21
S'indiv.alignment()'
p22
aS'indiv.cohesion()'
p23
aS'indiv.separation()'
p24
aS'indiv.target()'
p25
aS'indiv.currentVelocity()'
p26
aS'indiv.centerOfWorld()'
p27
aS'indiv.mostEnergizedNeighbor()'
p28
aS'indiv.randV()'
p29
asS'parent'
p30
g14
sS'data'
p31
g29
sS'left'
p32
Nsbsg20
(lp33
g22
ag23
ag24
ag25
ag26
ag27
ag28
ag29
asg30
g9
sg31
S'-'
sg32
(i__main__
Node
p34
(dp35
g11
(lp36
S'+'
aS'-'
aS'*'
aS'/'
asg13
Nsg20
(lp37
g22
ag23
ag24
ag25
ag26
ag27
ag28
ag29
asg30
g14
sg31
g23
sg32
Nsbsbsg20
(lp38
g22
ag23
ag24
ag25
ag26
ag27
ag28
ag29
asg30
Nsg31
S'+'
sg32
(i__main__
Node
p39
(dp40
g11
(lp41
S'+'
aS'-'
aS'*'
aS'/'
asg13
(i__main__
Node
p42
(dp43
g11
(lp44
S'+'
aS'-'
aS'*'
aS'/'
asg13
Nsg20
(lp45
g22
ag23
ag24
ag25
ag26
ag27
ag28
ag29
asg30
g39
sg31
g23
sg32
Nsbsg20
(lp46
g22
ag23
ag24
ag25
ag26
ag27
ag28
ag29
asg30
g9
sg31
S'-'
sg32
(i__main__
Node
p47
(dp48
g11
(lp49
S'+'
aS'-'
aS'*'
aS'/'
asg13
Nsg20
(lp50
g22
ag23
ag24
ag25
ag26
ag27
ag28
ag29
asg30
g39
sg31
g25
sg32
NsbsbsbsS'accel_x'
p51
F-0.27087208320321565
sS'accel_y'
p52
F-0.022975780006163404
sS'maxAccel'
p53
I2
sS'maxVel'
p54
F0.69999999999999996
sS'age'
p55
I950
sS'gener'
p56
S'm'
sS'lastScale'
p57
F7.9999999999999929
sS'energy'
p58
F0.24999999999999933
sb.(i__main__
Data_mobile
p1
(dp2
S'vel_y'
p3
F-0.61143215636981973
sS'vel_x'
p4
F-0.26076394448784707
sS'pos_x'
p5
F160.97277256529654
sS'pos_y'
p6
F-43.89999842746515
sS'isAlive'
p7
I01
sS'geno'
p8
(i__main__
Node
p9
(dp10
S'node'
p11
(lp12
S'+'
aS'-'
aS'*'
aS'/'
asS'right'
p13
(i__main__
Node
p14
(dp15
g11
(lp16
S'+'
aS'-'
aS'*'
aS'/'
asg13
(i__main__
Node
p17
(dp18
g11
(lp19
S'+'
aS'-'
aS'*'
aS'/'
asg13
NsS'leaf'
p20
(lp21
S'indiv.alignment()'
p22
aS'indiv.cohesion()'
p23
aS'indiv.separation()'
p24
aS'indiv.target()'
p25
aS'indiv.currentVelocity()'
p26
aS'indiv.centerOfWorld()'
p27
aS'indiv.mostEnergizedNeighbor()'
p28
aS'indiv.randV()'
p29
asS'parent'
p30
g14
sS'data'
p31
g22
sS'left'
p32
Nsbsg20
(lp33
g22
ag23
ag24
ag25
ag26
ag27
ag28
ag29
asg30
g9
sg31
S'+'
sg32
(i__main__
Node
p34
(dp35
g11
(lp36
S'+'
aS'-'
aS'*'
aS'/'
asg13
Nsg20
(lp37
g22
ag23
ag24
ag25
ag26
ag27
ag28
ag29
asg30
g14
sg31
g25
sg32
Nsbsbsg20
(lp38
g22
ag23
ag24
ag25
ag26
ag27
ag28
ag29
asg30
Nsg31
S'+'
sg32
(i__main__
Node
p39
(dp40
g11
(lp41
S'+'
aS'-'
aS'*'
aS'/'
asg13
(i__main__
Node
p42
(dp43
g11
(lp44
S'+'
aS'-'
aS'*'
aS'/'
asg13
Nsg20
(lp45
g22
ag23
ag24
ag25
ag26
ag27
ag28
ag29
asg30
g39
sg31
g22
sg32
Nsbsg20
(lp46
g22
ag23
ag24
ag25
ag26
ag27
ag28
ag29
asg30
g9
sg31
S'+'
sg32
(i__main__
Node
p47
(dp48
g11
(lp49
S'+'
aS'-'
aS'*'
aS'/'
asg13
Nsg20
(lp50
g22
ag23
ag24
ag25
ag26
ag27
ag28
ag29
asg30
g39
sg31
g25
sg32
NsbsbsbsS'accel_x'
p51
F0
sS'accel_y'
p52
F0
sS'maxAccel'
p53
I2
sS'maxVel'
p54
F0.69999999999999996
sS'age'
p55
I0
sS'gener'
p56
S'm'
sS'lastScale'
p57
F5.5
sS'energy'
p58
F0.5
sb.(i__main__
Data_mobile
p1
(dp2
S'vel_y'
p3
F0.68111488386650199
sS'vel_x'
p4
F-0.16150082035556806
sS'pos_x'
p5
F176.68870418633949
sS'pos_y'
p6
F-50.001498084490862
sS'isAlive'
p7
I01
sS'geno'
p8
(i__main__
Node
p9
(dp10
S'node'
p11
(lp12
S'+'
aS'-'
aS'*'
aS'/'
asS'right'
p13
(i__main__
Node
p14
(dp15
g11
(lp16
S'+'
aS'-'
aS'*'
aS'/'
asg13
(i__main__
Node
p17
(dp18
g11
(lp19
S'+'
aS'-'
aS'*'
aS'/'
asg13
NsS'leaf'
p20
(lp21
S'indiv.alignment()'
p22
aS'indiv.cohesion()'
p23
aS'indiv.separation()'
p24
aS'indiv.target()'
p25
aS'indiv.currentVelocity()'
p26
aS'indiv.centerOfWorld()'
p27
aS'indiv.mostEnergizedNeighbor()'
p28
aS'indiv.randV()'
p29
asS'parent'
p30
g14
sS'data'
p31
g22
sS'left'
p32
Nsbsg20
(lp33
g22
ag23
ag24
ag25
ag26
ag27
ag28
ag29
asg30
g9
sg31
S'+'
sg32
(i__main__
Node
p34
(dp35
g11
(lp36
S'+'
aS'-'
aS'*'
aS'/'
asg13
Nsg20
(lp37
g22
ag23
ag24
ag25
ag26
ag27
ag28
ag29
asg30
g14
sg31
g25
sg32
Nsbsbsg20
(lp38
g22
ag23
ag24
ag25
ag26
ag27
ag28
ag29
asg30
Nsg31
S'+'
sg32
(i__main__
Node
p39
(dp40
g11
(lp41
S'+'
aS'-'
aS'*'
aS'/'
asg13
(i__main__
Node
p42
(dp43
g11
(lp44
S'+'
aS'-'
aS'*'
aS'/'
asg13
Nsg20
(lp45
g22
ag23
ag24
ag25
ag26
ag27
ag28
ag29
asg30
g39
sg31
g22
sg32
Nsbsg20
(lp46
g22
ag23
ag24
ag25
ag26
ag27
ag28
ag29
asg30
g9
sg31
S'+'
sg32
(i__main__
Node
p47
(dp48
g11
(lp49
S'+'
aS'-'
aS'*'
aS'/'
asg13
Nsg20
(lp50
g22
ag23
ag24
ag25
ag26
ag27
ag28
ag29
asg30
g39
sg31
g25
sg32
NsbsbsbsS'accel_x'
p51
F-0.32297725316653408
sS'accel_y'
p52
F1.3622355497226863
sS'maxAccel'
p53
I2
sS'maxVel'
p54
F0.69999999999999996
sS'age'
p55
I100
sS'gener'
p56
S'm'
sS'lastScale'
p57
F13.699999999999999
sS'energy'
p58
F0.81999999999999984
sb.(i__main__
Data_mobile
p1
(dp2
S'vel_y'
p3
F0.68111504199521855
sS'vel_x'
p4
F-0.16150015346076746
sS'pos_x'
p5
F176.68938712321403
sS'pos_y'
p6
F-49.987465714091378
sS'isAlive'
p7
I01
sS'geno'
p8
(i__main__
Node
p9
(dp10
S'node'
p11
(lp12
S'+'
aS'-'
aS'*'
aS'/'
asS'right'
p13
(i__main__
Node
p14
(dp15
g11
(lp16
S'+'
aS'-'
aS'*'
aS'/'
asg13
(i__main__
Node
p17
(dp18
g11
(lp19
S'+'
aS'-'
aS'*'
aS'/'
asg13
NsS'leaf'
p20
(lp21
S'indiv.alignment()'
p22
aS'indiv.cohesion()'
p23
aS'indiv.separation()'
p24
aS'indiv.target()'
p25
aS'indiv.currentVelocity()'
p26
aS'indiv.centerOfWorld()'
p27
aS'indiv.mostEnergizedNeighbor()'
p28
aS'indiv.randV()'
p29
asS'parent'
p30
g14
sS'data'
p31
g22
sS'left'
p32
Nsbsg20
(lp33
g22
ag23
ag24
ag25
ag26
ag27
ag28
ag29
asg30
g9
sg31
S'+'
sg32
(i__main__
Node
p34
(dp35
g11
(lp36
S'+'
aS'-'
aS'*'
aS'/'
asg13
Nsg20
(lp37
g22
ag23
ag24
ag25
ag26
ag27
ag28
ag29
asg30
g14
sg31
g25
sg32
Nsbsbsg20
(lp38
g22
ag23
ag24
ag25
ag26
ag27
ag28
ag29
asg30
Nsg31
S'+'
sg32
(i__main__
Node
p39
(dp40
g11
(lp41
S'+'
aS'-'
aS'*'
aS'/'
asg13
(i__main__
Node
p42
(dp43
g11
(lp44
S'+'
aS'-'
aS'*'
aS'/'
asg13
Nsg20
(lp45
g22
ag23
ag24
ag25
ag26
ag27
ag28
ag29
asg30
g39
sg31
g22
sg32
Nsbsg20
(lp46
g22
ag23
ag24
ag25
ag26
ag27
ag28
ag29
asg30
g9
sg31
S'+'
sg32
(i__main__
Node
p47
(dp48
g11
(lp49
S'+'
aS'-'
aS'*'
aS'/'
asg13
Nsg20
(lp50
g22
ag23
ag24
ag25
ag26
ag27
ag28
ag29
asg30
g39
sg31
g25
sg32
NsbsbsbsS'accel_x'
p51
F-0.32297667163951271
sS'accel_y'
p52
F1.3622356876152284
sS'maxAccel'
p53
I2
sS'maxVel'
p54
F0.69999999999999996
sS'age'
p55
I950
sS'gener'
p56
S'm'
sS'lastScale'
p57
F13.699999999999999
sS'energy'
p58
F0.81999999999999984
sb.(i__main__
Data_mobile
p1
(dp2
S'vel_y'
p3
F0.68111519635739892
sS'vel_x'
p4
F-0.16149950244821787
sS'pos_x'
p5
F176.70041459382489
sS'pos_y'
p6
F-49.959286292342483
sS'isAlive'
p7
I01
sS'geno'
p8
(i__main__
Node
p9
(dp10
S'node'
p11
(lp12
S'+'
aS'-'
aS'*'
aS'/'
asS'right'
p13
(i__main__
Node
p14
(dp15
g11
(lp16
S'+'
aS'-'
aS'*'
aS'/'
asg13
(i__main__
Node
p17
(dp18
g11
(lp19
S'+'
aS'-'
aS'*'
aS'/'
asg13
NsS'leaf'
p20
(lp21
S'indiv.alignment()'
p22
aS'indiv.cohesion()'
p23
aS'indiv.separation()'
p24
aS'indiv.target()'
p25
aS'indiv.currentVelocity()'
p26
aS'indiv.centerOfWorld()'
p27
aS'indiv.mostEnergizedNeighbor()'
p28
aS'indiv.randV()'
p29
asS'parent'
p30
g14
sS'data'
p31
g22
sS'left'
p32
Nsbsg20
(lp33
g22
ag23
ag24
ag25
ag26
ag27
ag28
ag29
asg30
g9
sg31
S'+'
sg32
(i__main__
Node
p34
(dp35
g11
(lp36
S'+'
aS'-'
aS'*'
aS'/'
asg13
Nsg20
(lp37
g22
ag23
ag24
ag25
ag26
ag27
ag28
ag29
asg30
g14
sg31
g25
sg32
Nsbsbsg20
(lp38
g22
ag23
ag24
ag25
ag26
ag27
ag28
ag29
asg30
Nsg31
S'+'
sg32
(i__main__
Node
p39
(dp40
g11
(lp41
S'+'
aS'-'
aS'*'
aS'/'
asg13
(i__main__
Node
p42
(dp43
g11
(lp44
S'+'
aS'-'
aS'*'
aS'/'
asg13
Nsg20
(lp45
g22
ag23
ag24
ag25
ag26
ag27
ag28
ag29
asg30
g39
sg31
g22
sg32
Nsbsg20
(lp46
g22
ag23
ag24
ag25
ag26
ag27
ag28
ag29
asg30
g9
sg31
S'+'
sg32
(i__main__
Node
p47
(dp48
g11
(lp49
S'+'
aS'-'
aS'*'
aS'/'
asg13
Nsg20
(lp50
g22
ag23
ag24
ag25
ag26
ag27
ag28
ag29
asg30
g39
sg31
g25
sg32
NsbsbsbsS'accel_x'
p51
F-0.32297608555502189
sS'accel_y'
p52
F1.3622358265878798
sS'maxAccel'
p53
I2
sS'maxVel'
p54
F0.69999999999999996
sS'age'
p55
I750
sS'gener'
p56
S'm'
sS'lastScale'
p57
F13.699999999999999
sS'energy'
p58
F0.81999999999999984
sb.(i__main__
Data_mobile
p1
(dp2
S'vel_y'
p3
F0.68111538455223752
sS'vel_x'
p4
F-0.16149870874486158
sS'pos_x'
p5
F176.71384244153535
sS'pos_y'
p6
F-49.927257379036156
sS'isAlive'
p7
I01
sS'geno'
p8
(i__main__
Node
p9
(dp10
S'node'
p11
(lp12
S'+'
aS'-'
aS'*'
aS'/'
asS'right'
p13
(i__main__
Node
p14
(dp15
g11
(lp16
S'+'
aS'-'
aS'*'
aS'/'
asg13
(i__main__
Node
p17
(dp18
g11
(lp19
S'+'
aS'-'
aS'*'
aS'/'
asg13
NsS'leaf'
p20
(lp21
S'indiv.alignment()'
p22
aS'indiv.cohesion()'
p23
aS'indiv.separation()'
p24
aS'indiv.target()'
p25
aS'indiv.currentVelocity()'
p26
aS'indiv.centerOfWorld()'
p27
aS'indiv.mostEnergizedNeighbor()'
p28
aS'indiv.randV()'
p29
asS'parent'
p30
g14
sS'data'
p31
g22
sS'left'
p32
Nsbsg20
(lp33
g22
ag23
ag24
ag25
ag26
ag27
ag28
ag29
asg30
g9
sg31
S'+'
sg32
(i__main__
Node
p34
(dp35
g11
(lp36
S'+'
aS'-'
aS'*'
aS'/'
asg13
Nsg20
(lp37
g22
ag23
ag24
ag25
ag26
ag27
ag28
ag29
asg30
g14
sg31
g25
sg32
Nsbsbsg20
(lp38
g22
ag23
ag24
ag25
ag26
ag27
ag28
ag29
asg30
Nsg31
S'+'
sg32
(i__main__
Node
p39
(dp40
g11
(lp41
S'+'
aS'-'
aS'*'
aS'/'
asg13
(i__main__
Node
p42
(dp43
g11
(lp44
S'+'
aS'-'
aS'*'
aS'/'
asg13
Nsg20
(lp45
g22
ag23
ag24
ag25
ag26
ag27
ag28
ag29
asg30
g39
sg31
g22
sg32
Nsbsg20
(lp46
g22
ag23
ag24
ag25
ag26
ag27
ag28
ag29
asg30
g9
sg31
S'+'
sg32
(i__main__
Node
p47
(dp48
g11
(lp49
S'+'
aS'-'
aS'*'
aS'/'
asg13
Nsg20
(lp50
g22
ag23
ag24
ag25
ag26
ag27
ag28
ag29
asg30
g39
sg31
g25
sg32
NsbsbsbsS'accel_x'
p51
F-0.32297550972488237
sS'accel_y'
p52
F1.3622359631283414
sS'maxAccel'
p53
I2
sS'maxVel'
p54
F0.69999999999999996
sS'age'
p55
I450
sS'gener'
p56
S'm'
sS'lastScale'
p57
F13.699999999999999
sS'energy'
p58
F0.81999999999999984
sb.(i__main__
Data_mobile
p1
(dp2
S'vel_y'
p3
F0.68111561000468956
sS'vel_x'
p4
F-0.16149775790375406
sS'pos_x'
p5
F176.72888353212147
sS'pos_y'
p6
F-49.892428256532639
sS'isAlive'
p7
I01
sS'geno'
p8
(i__main__
Node
p9
(dp10
S'node'
p11
(lp12
S'+'
aS'-'
aS'*'
aS'/'
asS'right'
p13
(i__main__
Node
p14
(dp15
g11
(lp16
S'+'
aS'-'
aS'*'
aS'/'
asg13
(i__main__
Node
p17
(dp18
g11
(lp19
S'+'
aS'-'
aS'*'
aS'/'
asg13
NsS'leaf'
p20
(lp21
S'indiv.alignment()'
p22
aS'indiv.cohesion()'
p23
aS'indiv.separation()'
p24
aS'indiv.target()'
p25
aS'indiv.currentVelocity()'
p26
aS'indiv.centerOfWorld()'
p27
aS'indiv.mostEnergizedNeighbor()'
p28
aS'indiv.randV()'
p29
asS'parent'
p30
g14
sS'data'
p31
g22
sS'left'
p32
Nsbsg20
(lp33
g22
ag23
ag24
ag25
ag26
ag27
ag28
ag29
asg30
g9
sg31
S'+'
sg32
(i__main__
Node
p34
(dp35
g11
(lp36
S'+'
aS'-'
aS'*'
aS'/'
asg13
Nsg20
(lp37
g22
ag23
ag24
ag25
ag26
ag27
ag28
ag29
asg30
g14
sg31
g25
sg32
Nsbsbsg20
(lp38
g22
ag23
ag24
ag25
ag26
ag27
ag28
ag29
asg30
Nsg31
S'+'
sg32
(i__main__
Node
p39
(dp40
g11
(lp41
S'+'
aS'-'
aS'*'
aS'/'
asg13
(i__main__
Node
p42
(dp43
g11
(lp44
S'+'
aS'-'
aS'*'
aS'/'
asg13
Nsg20
(lp45
g22
ag23
ag24
ag25
ag26
ag27
ag28
ag29
asg30
g39
sg31
g22
sg32
Nsbsg20
(lp46
g22
ag23
ag24
ag25
ag26
ag27
ag28
ag29
asg30
g9
sg31
S'+'
sg32
(i__main__
Node
p47
(dp48
g11
(lp49
S'+'
aS'-'
aS'*'
aS'/'
asg13
Nsg20
(lp50
g22
ag23
ag24
ag25
ag26
ag27
ag28
ag29
asg30
g39
sg31
g25
sg32
NsbsbsbsS'accel_x'
p51
F-0.32297495447691427
sS'accel_y'
p52
F1.3622360947875116
sS'maxAccel'
p53
I2
sS'maxVel'
p54
F0.69999999999999996
sS'age'
p55
I50
sS'gener'
p56
S'm'
sS'lastScale'
p57
F13.699999999999999
sS'energy'
p58
F0.81999999999999984
sb.(i__main__
Data_mobile
p1
(dp2
S'vel_y'
p3
F0.68111560914998359
sS'vel_x'
p4
F-0.16149776150847051
sS'pos_x'
p5
F176.87539488867128
sS'pos_y'
p6
F-49.731086675214549
sS'isAlive'
p7
I01
sS'geno'
p8
(i__main__
Node
p9
(dp10
S'node'
p11
(lp12
S'+'
aS'-'
aS'*'
aS'/'
asS'right'
p13
(i__main__
Node
p14
(dp15
g11
(lp16
S'+'
aS'-'
aS'*'
aS'/'
asg13
(i__main__
Node
p17
(dp18
g11
(lp19
S'+'
aS'-'
aS'*'
aS'/'
asg13
NsS'leaf'
p20
(lp21
S'indiv.alignment()'
p22
aS'indiv.cohesion()'
p23
aS'indiv.separation()'
p24
aS'indiv.target()'
p25
aS'indiv.currentVelocity()'
p26
aS'indiv.centerOfWorld()'
p27
aS'indiv.mostEnergizedNeighbor()'
p28
aS'indiv.randV()'
p29
asS'parent'
p30
g14
sS'data'
p31
g22
sS'left'
p32
Nsbsg20
(lp33
g22
ag23
ag24
ag25
ag26
ag27
ag28
ag29
asg30
g9
sg31
S'+'
sg32
(i__main__
Node
p34
(dp35
g11
(lp36
S'+'
aS'-'
aS'*'
aS'/'
asg13
Nsg20
(lp37
g22
ag23
ag24
ag25
ag26
ag27
ag28
ag29
asg30
g14
sg31
g25
sg32
Nsbsbsg20
(lp38
g22
ag23
ag24
ag25
ag26
ag27
ag28
ag29
asg30
Nsg31
S'+'
sg32
(i__main__
Node
p39
(dp40
g11
(lp41
S'+'
aS'-'
aS'*'
aS'/'
asg13
(i__main__
Node
p42
(dp43
g11
(lp44
S'+'
aS'-'
aS'*'
aS'/'
asg13
Nsg20
(lp45
g22
ag23
ag24
ag25
ag26
ag27
ag28
ag29
asg30
g39
sg31
g22
sg32
Nsbsg20
(lp46
g22
ag23
ag24
ag25
ag26
ag27
ag28
ag29
asg30
g9
sg31
S'+'
sg32
(i__main__
Node
p47
(dp48
g11
(lp49
S'+'
aS'-'
aS'*'
aS'/'
asg13
Nsg20
(lp50
g22
ag23
ag24
ag25
ag26
ag27
ag28
ag29
asg30
g39
sg31
g25
sg32
NsbsbsbsS'accel_x'
p51
F-0.32297422663341746
sS'accel_y'
p52
F1.3622362673730266
sS'maxAccel'
p53
I2
sS'maxVel'
p54
F0.69999999999999996
sS'age'
p55
I150
sS'gener'
p56
S'm'
sS'lastScale'
p57
F13.999999999999998
sS'energy'
p58
F0.84999999999999987
sb.(i__main__
Data_mobile
p1
(dp2
S'vel_y'
p3
F0.68111618708926469
sS'vel_x'
p4
F-0.16149532403441805
sS'pos_x'
p5
F176.87833427519669
sS'pos_y'
p6
F-49.714646049752496
sS'isAlive'
p7
I01
sS'geno'
p8
(i__main__
Node
p9
(dp10
S'node'
p11
(lp12
S'+'
aS'-'
aS'*'
aS'/'
asS'right'
p13
(i__main__
Node
p14
(dp15
g11
(lp16
S'+'
aS'-'
aS'*'
aS'/'
asg13
(i__main__
Node
p17
(dp18
g11
(lp19
S'+'
aS'-'
aS'*'
aS'/'
asg13
NsS'leaf'
p20
(lp21
S'indiv.alignment()'
p22
aS'indiv.cohesion()'
p23
aS'indiv.separation()'
p24
aS'indiv.target()'
p25
aS'indiv.currentVelocity()'
p26
aS'indiv.centerOfWorld()'
p27
aS'indiv.mostEnergizedNeighbor()'
p28
aS'indiv.randV()'
p29
asS'parent'
p30
g14
sS'data'
p31
g22
sS'left'
p32
Nsbsg20
(lp33
g22
ag23
ag24
ag25
ag26
ag27
ag28
ag29
asg30
g9
sg31
S'+'
sg32
(i__main__
Node
p34
(dp35
g11
(lp36
S'+'
aS'-'
aS'*'
aS'/'
asg13
Nsg20
(lp37
g22
ag23
ag24
ag25
ag26
ag27
ag28
ag29
asg30
g14
sg31
g25
sg32
Nsbsbsg20
(lp38
g22
ag23
ag24
ag25
ag26
ag27
ag28
ag29
asg30
Nsg31
S'+'
sg32
(i__main__
Node
p39
(dp40
g11
(lp41
S'+'
aS'-'
aS'*'
aS'/'
asg13
(i__main__
Node
p42
(dp43
g11
(lp44
S'+'
aS'-'
aS'*'
aS'/'
asg13
Nsg20
(lp45
g22
ag23
ag24
ag25
ag26
ag27
ag28
ag29
asg30
g39
sg31
g22
sg32
Nsbsg20
(lp46
g22
ag23
ag24
ag25
ag26
ag27
ag28
ag29
asg30
g9
sg31
S'+'
sg32
(i__main__
Node
p47
(dp48
g11
(lp49
S'+'
aS'-'
aS'*'
aS'/'
asg13
Nsg20
(lp50
g22
ag23
ag24
ag25
ag26
ag27
ag28
ag29
asg30
g39
sg31
g25
sg32
NsbsbsbsS'accel_x'
p51
F-0.32297377137950029
sS'accel_y'
p52
F1.3622363753204536
sS'maxAccel'
p53
I2
sS'maxVel'
p54
F0.69999999999999996
sS'age'
p55
I550
sS'gener'
p56
S'm'
sS'lastScale'
p57
F13.999999999999998
sS'energy'
p58
F0.84999999999999987
sb.(i__main__
Data_mobile
p1
(dp2
S'vel_y'
p3
F0.68111724871520785
sS'vel_x'
p4
F-0.16149084649795362
sS'pos_x'
p5
F176.60896074149602
sS'pos_y'
p6
F-49.851894845782688
sS'isAlive'
p7
I01
sS'geno'
p8
(i__main__
Node
p9
(dp10
S'node'
p11
(lp12
S'+'
aS'-'
aS'*'
aS'/'
asS'right'
p13
(i__main__
Node
p14
(dp15
g11
(lp16
S'+'
aS'-'
aS'*'
aS'/'
asg13
(i__main__
Node
p17
(dp18
g11
(lp19
S'+'
aS'-'
aS'*'
aS'/'
asg13
NsS'leaf'
p20
(lp21
S'indiv.alignment()'
p22
aS'indiv.cohesion()'
p23
aS'indiv.separation()'
p24
aS'indiv.target()'
p25
aS'indiv.currentVelocity()'
p26
aS'indiv.centerOfWorld()'
p27
aS'indiv.mostEnergizedNeighbor()'
p28
aS'indiv.randV()'
p29
asS'parent'
p30
g14
sS'data'
p31
g22
sS'left'
p32
Nsbsg20
(lp33
g22
ag23
ag24
ag25
ag26
ag27
ag28
ag29
asg30
g9
sg31
S'+'
sg32
(i__main__
Node
p34
(dp35
g11
(lp36
S'+'
aS'-'
aS'*'
aS'/'
asg13
Nsg20
(lp37
g22
ag23
ag24
ag25
ag26
ag27
ag28
ag29
asg30
g14
sg31
g25
sg32
Nsbsbsg20
(lp38
g22
ag23
ag24
ag25
ag26
ag27
ag28
ag29
asg30
Nsg31
S'+'
sg32
(i__main__
Node
p39
(dp40
g11
(lp41
S'+'
aS'-'
aS'*'
aS'/'
asg13
(i__main__
Node
p42
(dp43
g11
(lp44
S'+'
aS'-'
aS'*'
aS'/'
asg13
Nsg20
(lp45
g22
ag23
ag24
ag25
ag26
ag27
ag28
ag29
asg30
g39
sg31
g22
sg32
Nsbsg20
(lp46
g22
ag23
ag24
ag25
ag26
ag27
ag28
ag29
asg30
g9
sg31
S'+'
sg32
(i__main__
Node
p47
(dp48
g11
(lp49
S'+'
aS'-'
aS'*'
aS'/'
asg13
Nsg20
(lp50
g22
ag23
ag24
ag25
ag26
ag27
ag28
ag29
asg30
g39
sg31
g25
sg32
NsbsbsbsS'accel_x'
p51
F-0.32297385762806768
sS'accel_y'
p52
F1.3622363548706951
sS'maxAccel'
p53
I2
sS'maxVel'
p54
F0.69999999999999996
sS'age'
p55
I650
sS'gener'
p56
S'm'
sS'lastScale'
p57
F13.599999999999998
sS'energy'
p58
F0.80999999999999983
sb.(i__main__
Data_mobile
p1
(dp2
S'vel_y'
p3
F0.68111698708129698
sS'vel_x'
p4
F-0.1614919499829521
sS'pos_x'
p5
F176.74550211710482
sS'pos_y'
p6
F-49.622479000763434
sS'isAlive'
p7
I01
sS'geno'
p8
(i__main__
Node
p9
(dp10
S'node'
p11
(lp12
S'+'
aS'-'
aS'*'
aS'/'
asS'right'
p13
(i__main__
Node
p14
(dp15
g11
(lp16
S'+'
aS'-'
aS'*'
aS'/'
asg13
(i__main__
Node
p17
(dp18
g11
(lp19
S'+'
aS'-'
aS'*'
aS'/'
asg13
NsS'leaf'
p20
(lp21
S'indiv.alignment()'
p22
aS'indiv.cohesion()'
p23
aS'indiv.separation()'
p24
aS'indiv.target()'
p25
aS'indiv.currentVelocity()'
p26
aS'indiv.centerOfWorld()'
p27
aS'indiv.mostEnergizedNeighbor()'
p28
aS'indiv.randV()'
p29
asS'parent'
p30
g14
sS'data'
p31
g22
sS'left'
p32
Nsbsg20
(lp33
g22
ag23
ag24
ag25
ag26
ag27
ag28
ag29
asg30
g9
sg31
S'+'
sg32
(i__main__
Node
p34
(dp35
g11
(lp36
S'+'
aS'-'
aS'*'
aS'/'
asg13
Nsg20
(lp37
g22
ag23
ag24
ag25
ag26
ag27
ag28
ag29
asg30
g14
sg31
g25
sg32
Nsbsbsg20
(lp38
g22
ag23
ag24
ag25
ag26
ag27
ag28
ag29
asg30
Nsg31
S'+'
sg32
(i__main__
Node
p39
(dp40
g11
(lp41
S'+'
aS'-'
aS'*'
aS'/'
asg13
(i__main__
Node
p42
(dp43
g11
(lp44
S'+'
aS'-'
aS'*'
aS'/'
asg13
Nsg20
(lp45
g22
ag23
ag24
ag25
ag26
ag27
ag28
ag29
asg30
g39
sg31
g22
sg32
Nsbsg20
(lp46
g22
ag23
ag24
ag25
ag26
ag27
ag28
ag29
asg30
g9
sg31
S'+'
sg32
(i__main__
Node
p47
(dp48
g11
(lp49
S'+'
aS'-'
aS'*'
aS'/'
asg13
Nsg20
(lp50
g22
ag23
ag24
ag25
ag26
ag27
ag28
ag29
asg30
g39
sg31
g25
sg32
NsbsbsbsS'accel_x'
p51
F-0.3229734588706038
sS'accel_y'
p52
F1.3622364494173533
sS'maxAccel'
p53
I2
sS'maxVel'
p54
F0.69999999999999996
sS'age'
p55
I50
sS'gener'
p56
S'm'
sS'lastScale'
p57
F13.999999999999998
sS'energy'
p58
F0.84999999999999987
sb.(i__main__
Data_mobile
p1
(dp2
S'vel_y'
p3
F0.681117475410974
sS'vel_x'
p4
F-0.16148989036401382
sS'pos_x'
p5
F176.69139333556819
sS'pos_y'
p6
F-49.696986433759278
sS'isAlive'
p7
I01
sS'geno'
p8
(i__main__
Node
p9
(dp10
S'node'
p11
(lp12
S'+'
aS'-'
aS'*'
aS'/'
asS'right'
p13
(i__main__
Node
p14
(dp15
g11
(lp16
S'+'
aS'-'
aS'*'
aS'/'
asg13
(i__main__
Node
p17
(dp18
g11
(lp19
S'+'
aS'-'
aS'*'
aS'/'
asg13
NsS'leaf'
p20
(lp21
S'indiv.alignment()'
p22
aS'indiv.cohesion()'
p23
aS'indiv.separation()'
p24
aS'indiv.target()'
p25
aS'indiv.currentVelocity()'
p26
aS'indiv.centerOfWorld()'
p27
aS'indiv.mostEnergizedNeighbor()'
p28
aS'indiv.randV()'
p29
asS'parent'
p30
g14
sS'data'
p31
g22
sS'left'
p32
Nsbsg20
(lp33
g22
ag23
ag24
ag25
ag26
ag27
ag28
ag29
asg30
g9
sg31
S'+'
sg32
(i__main__
Node
p34
(dp35
g11
(lp36
S'+'
aS'-'
aS'*'
aS'/'
asg13
Nsg20
(lp37
g22
ag23
ag24
ag25
ag26
ag27
ag28
ag29
asg30
g14
sg31
g25
sg32
Nsbsbsg20
(lp38
g22
ag23
ag24
ag25
ag26
ag27
ag28
ag29
asg30
Nsg31
S'+'
sg32
(i__main__
Node
p39
(dp40
g11
(lp41
S'+'
aS'-'
aS'*'
aS'/'
asg13
(i__main__
Node
p42
(dp43
g11
(lp44
S'+'
aS'-'
aS'*'
aS'/'
asg13
Nsg20
(lp45
g22
ag23
ag24
ag25
ag26
ag27
ag28
ag29
asg30
g39
sg31
g22
sg32
Nsbsg20
(lp46
g22
ag23
ag24
ag25
ag26
ag27
ag28
ag29
asg30
g9
sg31
S'+'
sg32
(i__main__
Node
p47
(dp48
g11
(lp49
S'+'
aS'-'
aS'*'
aS'/'
asg13
Nsg20
(lp50
g22
ag23
ag24
ag25
ag26
ag27
ag28
ag29
asg30
g39
sg31
g25
sg32
NsbsbsbsS'accel_x'
p51
F-0.32297337278865285
sS'accel_y'
p52
F1.3622364698273866
sS'maxAccel'
p53
I2
sS'maxVel'
p54
F0.69999999999999996
sS'age'
p55
I50
sS'gener'
p56
S'm'
sS'lastScale'
p57
F13.999999999999998
sS'energy'
p58
F0.84999999999999987
sb.(i__main__
Data_mobile
p1
(dp2
S'vel_y'
p3
F0.68111760779308672
sS'vel_x'
p4
F-0.1614893320136746
sS'pos_x'
p5
F176.73460295657679
sS'pos_y'
p6
F-49.611330115611949
sS'isAlive'
p7
I01
sS'geno'
p8
(i__main__
Node
p9
(dp10
S'node'
p11
(lp12
S'+'
aS'-'
aS'*'
aS'/'
asS'right'
p13
(i__main__
Node
p14
(dp15
g11
(lp16
S'+'
aS'-'
aS'*'
aS'/'
asg13
(i__main__
Node
p17
(dp18
g11
(lp19
S'+'
aS'-'
aS'*'
aS'/'
asg13
NsS'leaf'
p20
(lp21
S'indiv.alignment()'
p22
aS'indiv.cohesion()'
p23
aS'indiv.separation()'
p24
aS'indiv.target()'
p25
aS'indiv.currentVelocity()'
p26
aS'indiv.centerOfWorld()'
p27
aS'indiv.mostEnergizedNeighbor()'
p28
aS'indiv.randV()'
p29
asS'parent'
p30
g14
sS'data'
p31
g22
sS'left'
p32
Nsbsg20
(lp33
g22
ag23
ag24
ag25
ag26
ag27
ag28
ag29
asg30
g9
sg31
S'+'
sg32
(i__main__
Node
p34
(dp35
g11
(lp36
S'+'
aS'-'
aS'*'
aS'/'
asg13
Nsg20
(lp37
g22
ag23
ag24
ag25
ag26
ag27
ag28
ag29
asg30
g14
sg31
g25
sg32
Nsbsbsg20
(lp38
g22
ag23
ag24
ag25
ag26
ag27
ag28
ag29
asg30
Nsg31
S'+'
sg32
(i__main__
Node
p39
(dp40
g11
(lp41
S'+'
aS'-'
aS'*'
aS'/'
asg13
(i__main__
Node
p42
(dp43
g11
(lp44
S'+'
aS'-'
aS'*'
aS'/'
asg13
Nsg20
(lp45
g22
ag23
ag24
ag25
ag26
ag27
ag28
ag29
asg30
g39
sg31
g22
sg32
Nsbsg20
(lp46
g22
ag23
ag24
ag25
ag26
ag27
ag28
ag29
asg30
g9
sg31
S'+'
sg32
(i__main__
Node
p47
(dp48
g11
(lp49
S'+'
aS'-'
aS'*'
aS'/'
asg13
Nsg20
(lp50
g22
ag23
ag24
ag25
ag26
ag27
ag28
ag29
asg30
g39
sg31
g25
sg32
NsbsbsbsS'accel_x'
p51
F-0.32297319356351212
sS'accel_y'
p52
F1.3622365123213593
sS'maxAccel'
p53
I2
sS'maxVel'
p54
F0.69999999999999996
sS'age'
p55
I800
sS'gener'
p56
S'm'
sS'lastScale'
p57
F13.999999999999998
sS'energy'
p58
F0.84999999999999987
sb.(i__main__
Data_mobile
p1
(dp2
S'vel_y'
p3
F0.19542560020279115
sS'vel_x'
p4
F-0.62202204470195221
sS'pos_x'
p5
F33.650825896426127
sS'pos_y'
p6
F2.0173229359630303
sS'isAlive'
p7
I01
sS'geno'
p8
(i__main__
Node
p9
(dp10
S'node'
p11
(lp12
S'+'
aS'-'
aS'*'
aS'/'
asS'right'
p13
(i__main__
Node
p14
(dp15
g11
(lp16
S'+'
aS'-'
aS'*'
aS'/'
asg13
(i__main__
Node
p17
(dp18
g11
(lp19
S'+'
aS'-'
aS'*'
aS'/'
asg13
NsS'leaf'
p20
(lp21
S'indiv.alignment()'
p22
aS'indiv.cohesion()'
p23
aS'indiv.separation()'
p24
aS'indiv.target()'
p25
aS'indiv.currentVelocity()'
p26
aS'indiv.centerOfWorld()'
p27
aS'indiv.mostEnergizedNeighbor()'
p28
aS'indiv.randV()'
p29
asS'parent'
p30
g14
sS'data'
p31
g22
sS'left'
p32
Nsbsg20
(lp33
g22
ag23
ag24
ag25
ag26
ag27
ag28
ag29
asg30
g9
sg31
S'+'
sg32
(i__main__
Node
p34
(dp35
g11
(lp36
S'+'
aS'-'
aS'*'
aS'/'
asg13
Nsg20
(lp37
g22
ag23
ag24
ag25
ag26
ag27
ag28
ag29
asg30
g14
sg31
g25
sg32
Nsbsbsg20
(lp38
g22
ag23
ag24
ag25
ag26
ag27
ag28
ag29
asg30
Nsg31
S'+'
sg32
(i__main__
Node
p39
(dp40
g11
(lp41
S'+'
aS'-'
aS'*'
aS'/'
asg13
(i__main__
Node
p42
(dp43
g11
(lp44
S'+'
aS'-'
aS'*'
aS'/'
asg13
Nsg20
(lp45
g22
ag23
ag24
ag25
ag26
ag27
ag28
ag29
asg30
g39
sg31
g22
sg32
Nsbsg20
(lp46
g22
ag23
ag24
ag25
ag26
ag27
ag28
ag29
asg30
g9
sg31
S'+'
sg32
(i__main__
Node
p47
(dp48
g11
(lp49
S'+'
aS'-'
aS'*'
aS'/'
asg13
Nsg20
(lp50
g22
ag23
ag24
ag25
ag26
ag27
ag28
ag29
asg30
g39
sg31
g25
sg32
NsbsbsbsS'accel_x'
p51
F-1.497017677805945
sS'accel_y'
p52
F1.0567115026896097
sS'maxAccel'
p53
I2
sS'maxVel'
p54
F0.69999999999999996
sS'age'
p55
I150
sS'gener'
p56
S'm'
sS'lastScale'
p57
F15.4
sS'energy'
p58
F0.98999999999999999
sb.(i__main__
Data_mobile
p1
(dp2
S'vel_y'
p3
F0.68111810762488634
sS'vel_x'
p4
F-0.16148722384601749
sS'pos_x'
p5
F176.65896293590538
sS'pos_y'
p6
F-49.722424155739922
sS'isAlive'
p7
I01
sS'geno'
p8
(i__main__
Node
p9
(dp10
S'node'
p11
(lp12
S'+'
aS'-'
aS'*'
aS'/'
asS'right'
p13
(i__main__
Node
p14
(dp15
g11
(lp16
S'+'
aS'-'
aS'*'
aS'/'
asg13
(i__main__
Node
p17
(dp18
g11
(lp19
S'+'
aS'-'
aS'*'
aS'/'
asg13
NsS'leaf'
p20
(lp21
S'indiv.alignment()'
p22
aS'indiv.cohesion()'
p23
aS'indiv.separation()'
p24
aS'indiv.target()'
p25
aS'indiv.currentVelocity()'
p26
aS'indiv.centerOfWorld()'
p27
aS'indiv.mostEnergizedNeighbor()'
p28
aS'indiv.randV()'
p29
asS'parent'
p30
g14
sS'data'
p31
g22
sS'left'
p32
Nsbsg20
(lp33
g22
ag23
ag24
ag25
ag26
ag27
ag28
ag29
asg30
g9
sg31
S'+'
sg32
(i__main__
Node
p34
(dp35
g11
(lp36
S'+'
aS'-'
aS'*'
aS'/'
asg13
Nsg20
(lp37
g22
ag23
ag24
ag25
ag26
ag27
ag28
ag29
asg30
g14
sg31
g25
sg32
Nsbsbsg20
(lp38
g22
ag23
ag24
ag25
ag26
ag27
ag28
ag29
asg30
Nsg31
S'+'
sg32
(i__main__
Node
p39
(dp40
g11
(lp41
S'+'
aS'-'
aS'*'
aS'/'
asg13
(i__main__
Node
p42
(dp43
g11
(lp44
S'+'
aS'-'
aS'*'
aS'/'
asg13
Nsg20
(lp45
g22
ag23
ag24
ag25
ag26
ag27
ag28
ag29
asg30
g39
sg31
g22
sg32
Nsbsg20
(lp46
g22
ag23
ag24
ag25
ag26
ag27
ag28
ag29
asg30
g9
sg31
S'+'
sg32
(i__main__
Node
p47
(dp48
g11
(lp49
S'+'
aS'-'
aS'*'
aS'/'
asg13
Nsg20
(lp50
g22
ag23
ag24
ag25
ag26
ag27
ag28
ag29
asg30
g39
sg31
g25
sg32
NsbsbsbsS'accel_x'
p51
F-0.32297326558574529
sS'accel_y'
p52
F1.3622364952453547
sS'maxAccel'
p53
I2
sS'maxVel'
p54
F0.69999999999999996
sS'age'
p55
I50
sS'gener'
p56
S'm'
sS'lastScale'
p57
F13.999999999999998
sS'energy'
p58
F0.84999999999999987
sb.(i__main__
Data_mobile
p1
(dp2
S'vel_y'
p3
F0.68111781084013912
sS'vel_x'
p4
F-0.16148847561462762
sS'pos_x'
p5
F176.8389048779529
sS'pos_y'
p6
F-49.346803216438445
sS'isAlive'
p7
I01
sS'geno'
p8
(i__main__
Node
p9
(dp10
S'node'
p11
(lp12
S'+'
aS'-'
aS'*'
aS'/'
asS'right'
p13
(i__main__
Node
p14
(dp15
g11
(lp16
S'+'
aS'-'
aS'*'
aS'/'
asg13
(i__main__
Node
p17
(dp18
g11
(lp19
S'+'
aS'-'
aS'*'
aS'/'
asg13
NsS'leaf'
p20
(lp21
S'indiv.alignment()'
p22
aS'indiv.cohesion()'
p23
aS'indiv.separation()'
p24
aS'indiv.target()'
p25
aS'indiv.currentVelocity()'
p26
aS'indiv.centerOfWorld()'
p27
aS'indiv.mostEnergizedNeighbor()'
p28
aS'indiv.randV()'
p29
asS'parent'
p30
g14
sS'data'
p31
g22
sS'left'
p32
Nsbsg20
(lp33
g22
ag23
ag24
ag25
ag26
ag27
ag28
ag29
asg30
g9
sg31
S'+'
sg32
(i__main__
Node
p34
(dp35
g11
(lp36
S'+'
aS'-'
aS'*'
aS'/'
asg13
Nsg20
(lp37
g22
ag23
ag24
ag25
ag26
ag27
ag28
ag29
asg30
g14
sg31
g25
sg32
Nsbsbsg20
(lp38
g22
ag23
ag24
ag25
ag26
ag27
ag28
ag29
asg30
Nsg31
S'+'
sg32
(i__main__
Node
p39
(dp40
g11
(lp41
S'+'
aS'-'
aS'*'
aS'/'
asg13
(i__main__
Node
p42
(dp43
g11
(lp44
S'+'
aS'-'
aS'*'
aS'/'
asg13
Nsg20
(lp45
g22
ag23
ag24
ag25
ag26
ag27
ag28
ag29
asg30
g39
sg31
g22
sg32
Nsbsg20
(lp46
g22
ag23
ag24
ag25
ag26
ag27
ag28
ag29
asg30
g9
sg31
S'+'
sg32
(i__main__
Node
p47
(dp48
g11
(lp49
S'+'
aS'-'
aS'*'
aS'/'
asg13
Nsg20
(lp50
g22
ag23
ag24
ag25
ag26
ag27
ag28
ag29
asg30
g39
sg31
g25
sg32
NsbsbsbsS'accel_x'
p51
F-0.32297293030234553
sS'accel_y'
p52
F1.3622365747398981
sS'maxAccel'
p53
I2
sS'maxVel'
p54
F0.69999999999999996
sS'age'
p55
I50
sS'gener'
p56
S'm'
sS'lastScale'
p57
F13.999999999999998
sS'energy'
p58
F0.84999999999999987
sb.(i__main__
Data_mobile
p1
(dp2
S'vel_y'
p3
F0.028632262261577945
sS'vel_x'
p4
F0.69941417883667767
sS'pos_x'
p5
F26.088612850018777
sS'pos_y'
p6
F1.9938924702225644
sS'isAlive'
p7
I01
sS'geno'
p8
(i__main__
Node
p9
(dp10
S'node'
p11
(lp12
S'+'
aS'-'
aS'*'
aS'/'
asS'right'
p13
(i__main__
Node
p14
(dp15
g11
(lp16
S'+'
aS'-'
aS'*'
aS'/'
asg13
(i__main__
Node
p17
(dp18
g11
(lp19
S'+'
aS'-'
aS'*'
aS'/'
asg13
NsS'leaf'
p20
(lp21
S'indiv.alignment()'
p22
aS'indiv.cohesion()'
p23
aS'indiv.separation()'
p24
aS'indiv.target()'
p25
aS'indiv.currentVelocity()'
p26
aS'indiv.centerOfWorld()'
p27
aS'indiv.mostEnergizedNeighbor()'
p28
aS'indiv.randV()'
p29
asS'parent'
p30
g14
sS'data'
p31
g22
sS'left'
p32
Nsbsg20
(lp33
g22
ag23
ag24
ag25
ag26
ag27
ag28
ag29
asg30
g9
sg31
S'-'
sg32
(i__main__
Node
p34
(dp35
g11
(lp36
S'+'
aS'-'
aS'*'
aS'/'
asg13
Nsg20
(lp37
g22
ag23
ag24
ag25
ag26
ag27
ag28
ag29
asg30
g14
sg31
g26
sg32
Nsbsbsg20
(lp38
g22
ag23
ag24
ag25
ag26
ag27
ag28
ag29
asg30
Nsg31
S'+'
sg32
(i__main__
Node
p39
(dp40
g11
(lp41
S'+'
aS'-'
aS'*'
aS'/'
asg13
(i__main__
Node
p42
(dp43
g11
(lp44
S'+'
aS'-'
aS'*'
aS'/'
asg13
Nsg20
(lp45
g22
ag23
ag24
ag25
ag26
ag27
ag28
ag29
asg30
g39
sg31
g23
sg32
Nsbsg20
(lp46
g22
ag23
ag24
ag25
ag26
ag27
ag28
ag29
asg30
g9
sg31
S'-'
sg32
(i__main__
Node
p47
(dp48
g11
(lp49
S'+'
aS'-'
aS'*'
aS'/'
asg13
Nsg20
(lp50
g22
ag23
ag24
ag25
ag26
ag27
ag28
ag29
asg30
g39
sg31
g25
sg32
NsbsbsbsS'accel_x'
p51
F-1.9982571946337162
sS'accel_y'
p52
F-0.083475649710502864
sS'maxAccel'
p53
I2
sS'maxVel'
p54
F0.69999999999999996
sS'age'
p55
I100
sS'gener'
p56
S'm'
sS'lastScale'
p57
F14.399999999999999
sS'energy'
p58
F0.8899999999999999
sb.(i__main__
Data_mobile
p1
(dp2
S'vel_y'
p3
F0.68111828967691357
sS'vel_x'
p4
F-0.16148645598809827
sS'pos_x'
p5
F176.89030009991748
sS'pos_y'
p6
F-49.32203738154297
sS'isAlive'
p7
I01
sS'geno'
p8
(i__main__
Node
p9
(dp10
S'node'
p11
(lp12
S'+'
aS'-'
aS'*'
aS'/'
asS'right'
p13
(i__main__
Node
p14
(dp15
g11
(lp16
S'+'
aS'-'
aS'*'
aS'/'
asg13
(i__main__
Node
p17
(dp18
g11
(lp19
S'+'
aS'-'
aS'*'
aS'/'
asg13
NsS'leaf'
p20
(lp21
S'indiv.alignment()'
p22
aS'indiv.cohesion()'
p23
aS'indiv.separation()'
p24
aS'indiv.target()'
p25
aS'indiv.currentVelocity()'
p26
aS'indiv.centerOfWorld()'
p27
aS'indiv.mostEnergizedNeighbor()'
p28
aS'indiv.randV()'
p29
asS'parent'
p30
g14
sS'data'
p31
g22
sS'left'
p32
Nsbsg20
(lp33
g22
ag23
ag24
ag25
ag26
ag27
ag28
ag29
asg30
g9
sg31
S'+'
sg32
(i__main__
Node
p34
(dp35
g11
(lp36
S'+'
aS'-'
aS'*'
aS'/'
asg13
Nsg20
(lp37
g22
ag23
ag24
ag25
ag26
ag27
ag28
ag29
asg30
g14
sg31
g25
sg32
Nsbsbsg20
(lp38
g22
ag23
ag24
ag25
ag26
ag27
ag28
ag29
asg30
Nsg31
S'+'
sg32
(i__main__
Node
p39
(dp40
g11
(lp41
S'+'
aS'-'
aS'*'
aS'/'
asg13
(i__main__
Node
p42
(dp43
g11
(lp44
S'+'
aS'-'
aS'*'
aS'/'
asg13
Nsg20
(lp45
g22
ag23
ag24
ag25
ag26
ag27
ag28
ag29
asg30
g39
sg31
g22
sg32
Nsbsg20
(lp46
g22
ag23
ag24
ag25
ag26
ag27
ag28
ag29
asg30
g9
sg31
S'+'
sg32
(i__main__
Node
p47
(dp48
g11
(lp49
S'+'
aS'-'
aS'*'
aS'/'
asg13
Nsg20
(lp50
g22
ag23
ag24
ag25
ag26
ag27
ag28
ag29
asg30
g39
sg31
g25
sg32
NsbsbsbsS'accel_x'
p51
F-0.3229728820241542
sS'accel_y'
p52
F1.3622365861863703
sS'maxAccel'
p53
I2
sS'maxVel'
p54
F0.69999999999999996
sS'age'
p55
I50
sS'gener'
p56
S'm'
sS'lastScale'
p57
F13.999999999999998
sS'energy'
p58
F0.84999999999999987
sb.(i__main__
Data_mobile
p1
(dp2
S'vel_y'
p3
F0.66160204685253909
sS'vel_x'
p4
F0.22865417468423921
sS'pos_x'
p5
F32.763851357649159
sS'pos_y'
p6
F0.4995761630934723
sS'isAlive'
p7
I01
sS'geno'
p8
(i__main__
Node
p9
(dp10
S'node'
p11
(lp12
S'+'
aS'-'
aS'*'
aS'/'
asS'right'
p13
(i__main__
Node
p14
(dp15
g11
(lp16
S'+'
aS'-'
aS'*'
aS'/'
asg13
(i__main__
Node
p17
(dp18
g11
(lp19
S'+'
aS'-'
aS'*'
aS'/'
asg13
NsS'leaf'
p20
(lp21
S'indiv.alignment()'
p22
aS'indiv.cohesion()'
p23
aS'indiv.separation()'
p24
aS'indiv.target()'
p25
aS'indiv.currentVelocity()'
p26
aS'indiv.centerOfWorld()'
p27
aS'indiv.mostEnergizedNeighbor()'
p28
aS'indiv.randV()'
p29
asS'parent'
p30
g14
sS'data'
p31
g28
sS'left'
p32
Nsbsg20
(lp33
g22
ag23
ag24
ag25
ag26
ag27
ag28
ag29
asg30
g9
sg31
S'/'
sg32
(i__main__
Node
p34
(dp35
g11
(lp36
S'+'
aS'-'
aS'*'
aS'/'
asg13
Nsg20
(lp37
g22
ag23
ag24
ag25
ag26
ag27
ag28
ag29
asg30
g14
sg31
g22
sg32
Nsbsbsg20
(lp38
g22
ag23
ag24
ag25
ag26
ag27
ag28
ag29
asg30
Nsg31
S'+'
sg32
(i__main__
Node
p39
(dp40
g11
(lp41
S'+'
aS'-'
aS'*'
aS'/'
asg13
(i__main__
Node
p42
(dp43
g11
(lp44
S'+'
aS'-'
aS'*'
aS'/'
asg13
Nsg20
(lp45
g22
ag23
ag24
ag25
ag26
ag27
ag28
ag29
asg30
g39
sg31
g22
sg32
Nsbsg20
(lp46
g22
ag23
ag24
ag25
ag26
ag27
ag28
ag29
asg30
g9
sg31
S'+'
sg32
(i__main__
Node
p47
(dp48
g11
(lp49
S'+'
aS'-'
aS'*'
aS'/'
asg13
Nsg20
(lp50
g22
ag23
ag24
ag25
ag26
ag27
ag28
ag29
asg30
g39
sg31
g25
sg32
NsbsbsbsS'accel_x'
p51
F0.4368957579506309
sS'accel_y'
p52
F0.79700455364918632
sS'maxAccel'
p53
I2
sS'maxVel'
p54
F0.69999999999999996
sS'age'
p55
I150
sS'gener'
p56
S'm'
sS'lastScale'
p57
F15.4
sS'energy'
p58
F0.98999999999999999
sb.(i__main__
Data_mobile
p1
(dp2
S'vel_y'
p3
F-0.69665297997679232
sS'vel_x'
p4
F0.068371232908693652
sS'pos_x'
p5
F179.88377840827326
sS'pos_y'
p6
F-84.179647487151144
sS'isAlive'
p7
I01
sS'geno'
p8
(i__main__
Node
p9
(dp10
S'node'
p11
(lp12
S'+'
aS'-'
aS'*'
aS'/'
asS'right'
p13
(i__main__
Node
p14
(dp15
g11
(lp16
S'+'
aS'-'
aS'*'
aS'/'
asg13
(i__main__
Node
p17
(dp18
g11
(lp19
S'+'
aS'-'
aS'*'
aS'/'
asg13
NsS'leaf'
p20
(lp21
S'indiv.alignment()'
p22
aS'indiv.cohesion()'
p23
aS'indiv.separation()'
p24
aS'indiv.target()'
p25
aS'indiv.currentVelocity()'
p26
aS'indiv.centerOfWorld()'
p27
aS'indiv.mostEnergizedNeighbor()'
p28
aS'indiv.randV()'
p29
asS'parent'
p30
g14
sS'data'
p31
g22
sS'left'
p32
Nsbsg20
(lp33
g22
ag23
ag24
ag25
ag26
ag27
ag28
ag29
asg30
g9
sg31
S'+'
sg32
(i__main__
Node
p34
(dp35
g11
(lp36
S'+'
aS'-'
aS'*'
aS'/'
asg13
Nsg20
(lp37
g22
ag23
ag24
ag25
ag26
ag27
ag28
ag29
asg30
g14
sg31
g25
sg32
Nsbsbsg20
(lp38
g22
ag23
ag24
ag25
ag26
ag27
ag28
ag29
asg30
Nsg31
S'+'
sg32
(i__main__
Node
p39
(dp40
g11
(lp41
S'+'
aS'-'
aS'*'
aS'/'
asg13
(i__main__
Node
p42
(dp43
g11
(lp44
S'+'
aS'-'
aS'*'
aS'/'
asg13
(i__main__
Node
p45
(dp46
g11
(lp47
S'+'
aS'-'
aS'*'
aS'/'
asg13
Nsg20
(lp48
g22
ag23
ag24
ag25
ag26
ag27
ag28
ag29
asg30
g42
sg31
g25
sg32
Nsbsg20
(lp49
g22
ag23
ag24
ag25
ag26
ag27
ag28
ag29
asg30
g39
sg31
S'-'
sg32
(i__main__
Node
p50
(dp51
g11
(lp52
S'+'
aS'-'
aS'*'
aS'/'
asg13
Nsg20
(lp53
g22
ag23
ag24
ag25
ag26
ag27
ag28
ag29
asg30
g42
sg31
g28
sg32
Nsbsbsg20
(lp54
g22
ag23
ag24
ag25
ag26
ag27
ag28
ag29
asg30
g9
sg31
S'*'
sg32
(i__main__
Node
p55
(dp56
g11
(lp57
S'+'
aS'-'
aS'*'
aS'/'
asg13
(i__main__
Node
p58
(dp59
g11
(lp60
S'+'
aS'-'
aS'*'
aS'/'
asg13
Nsg20
(lp61
g22
ag23
ag24
ag25
ag26
ag27
ag28
ag29
asg30
g55
sg31
g25
sg32
Nsbsg20
(lp62
g22
ag23
ag24
ag25
ag26
ag27
ag28
ag29
asg30
g39
sg31
S'*'
sg32
(i__main__
Node
p63
(dp64
g11
(lp65
S'+'
aS'-'
aS'*'
aS'/'
asg13
Nsg20
(lp66
g22
ag23
ag24
ag25
ag26
ag27
ag28
ag29
asg30
g55
sg31
g27
sg32
NsbsbsbsbsS'accel_x'
p67
F0
sS'accel_y'
p68
F0
sS'maxAccel'
p69
I2
sS'maxVel'
p70
F0.69999999999999996
sS'age'
p71
I50
sS'gener'
p72
S'm'
sS'lastScale'
p73
F13.499999999999998
sS'energy'
p74
F0.79999999999999982
sb.(i__main__
Data_mobile
p1
(dp2
S'vel_y'
p3
F0.68111903103508109
sS'vel_x'
p4
F-0.1614833290523581
sS'pos_x'
p5
F176.83050967353225
sS'pos_y'
p6
F-49.407051789357666
sS'isAlive'
p7
I01
sS'geno'
p8
(i__main__
Node
p9
(dp10
S'node'
p11
(lp12
S'+'
aS'-'
aS'*'
aS'/'
asS'right'
p13
(i__main__
Node
p14
(dp15
g11
(lp16
S'+'
aS'-'
aS'*'
aS'/'
asg13
(i__main__
Node
p17
(dp18
g11
(lp19
S'+'
aS'-'
aS'*'
aS'/'
asg13
NsS'leaf'
p20
(lp21
S'indiv.alignment()'
p22
aS'indiv.cohesion()'
p23
aS'indiv.separation()'
p24
aS'indiv.target()'
p25
aS'indiv.currentVelocity()'
p26
aS'indiv.centerOfWorld()'
p27
aS'indiv.mostEnergizedNeighbor()'
p28
aS'indiv.randV()'
p29
asS'parent'
p30
g14
sS'data'
p31
g22
sS'left'
p32
Nsbsg20
(lp33
g22
ag23
ag24
ag25
ag26
ag27
ag28
ag29
asg30
g9
sg31
S'+'
sg32
(i__main__
Node
p34
(dp35
g11
(lp36
S'+'
aS'-'
aS'*'
aS'/'
asg13
Nsg20
(lp37
g22
ag23
ag24
ag25
ag26
ag27
ag28
ag29
asg30
g14
sg31
g25
sg32
Nsbsbsg20
(lp38
g22
ag23
ag24
ag25
ag26
ag27
ag28
ag29
asg30
Nsg31
S'+'
sg32
(i__main__
Node
p39
(dp40
g11
(lp41
S'+'
aS'-'
aS'*'
aS'/'
asg13
(i__main__
Node
p42
(dp43
g11
(lp44
S'+'
aS'-'
aS'*'
aS'/'
asg13
Nsg20
(lp45
g22
ag23
ag24
ag25
ag26
ag27
ag28
ag29
asg30
g39
sg31
g22
sg32
Nsbsg20
(lp46
g22
ag23
ag24
ag25
ag26
ag27
ag28
ag29
asg30
g9
sg31
S'+'
sg32
(i__main__
Node
p47
(dp48
g11
(lp49
S'+'
aS'-'
aS'*'
aS'/'
asg13
Nsg20
(lp50
g22
ag23
ag24
ag25
ag26
ag27
ag28
ag29
asg30
g39
sg31
g25
sg32
NsbsbsbsS'accel_x'
p51
F-0.32297317216255922
sS'accel_y'
p52
F1.3622365173987097
sS'maxAccel'
p53
I2
sS'maxVel'
p54
F0.69999999999999996
sS'age'
p55
I50
sS'gener'
p56
S'm'
sS'lastScale'
p57
F13.999999999999998
sS'energy'
p58
F0.84999999999999987
sb.(i__main__
Data_mobile
p1
(dp2
S'vel_y'
p3
F0.68111955198550822
sS'vel_x'
p4
F-0.16148113172460915
sS'pos_x'
p5
F176.78151516710724
sS'pos_y'
p6
F-49.471534074005305
sS'isAlive'
p7
I01
sS'geno'
p8
(i__main__
Node
p9
(dp10
S'node'
p11
(lp12
S'+'
aS'-'
aS'*'
aS'/'
asS'right'
p13
(i__main__
Node
p14
(dp15
g11
(lp16
S'+'
aS'-'
aS'*'
aS'/'
asg13
(i__main__
Node
p17
(dp18
g11
(lp19
S'+'
aS'-'
aS'*'
aS'/'
asg13
NsS'leaf'
p20
(lp21
S'indiv.alignment()'
p22
aS'indiv.cohesion()'
p23
aS'indiv.separation()'
p24
aS'indiv.target()'
p25
aS'indiv.currentVelocity()'
p26
aS'indiv.centerOfWorld()'
p27
aS'indiv.mostEnergizedNeighbor()'
p28
aS'indiv.randV()'
p29
asS'parent'
p30
g14
sS'data'
p31
g22
sS'left'
p32
Nsbsg20
(lp33
g22
ag23
ag24
ag25
ag26
ag27
ag28
ag29
asg30
g9
sg31
S'+'
sg32
(i__main__
Node
p34
(dp35
g11
(lp36
S'+'
aS'-'
aS'*'
aS'/'
asg13
Nsg20
(lp37
g22
ag23
ag24
ag25
ag26
ag27
ag28
ag29
asg30
g14
sg31
g25
sg32
Nsbsbsg20
(lp38
g22
ag23
ag24
ag25
ag26
ag27
ag28
ag29
asg30
Nsg31
S'+'
sg32
(i__main__
Node
p39
(dp40
g11
(lp41
S'+'
aS'-'
aS'*'
aS'/'
asg13
(i__main__
Node
p42
(dp43
g11
(lp44
S'+'
aS'-'
aS'*'
aS'/'
asg13
Nsg20
(lp45
g22
ag23
ag24
ag25
ag26
ag27
ag28
ag29
asg30
g39
sg31
g22
sg32
Nsbsg20
(lp46
g22
ag23
ag24
ag25
ag26
ag27
ag28
ag29
asg30
g9
sg31
S'+'
sg32
(i__main__
Node
p47
(dp48
g11
(lp49
S'+'
aS'-'
aS'*'
aS'/'
asg13
Nsg20
(lp50
g22
ag23
ag24
ag25
ag26
ag27
ag28
ag29
asg30
g39
sg31
g25
sg32
NsbsbsbsS'accel_x'
p51
F-0.32297363052128869
sS'accel_y'
p52
F1.3622364087318375
sS'maxAccel'
p53
I2
sS'maxVel'
p54
F0.69999999999999996
sS'age'
p55
I50
sS'gener'
p56
S'm'
sS'lastScale'
p57
F13.999999999999998
sS'energy'
p58
F0.84999999999999987
sb.(i__main__
Data_mobile
p1
(dp2
S'vel_y'
p3
F0.68112003717902136
sS'vel_x'
p4
F-0.16147908518829446
sS'pos_x'
p5
F176.70912330826695
sS'pos_y'
p6
F-49.740839129986391
sS'isAlive'
p7
I01
sS'geno'
p8
(i__main__
Node
p9
(dp10
S'node'
p11
(lp12
S'+'
aS'-'
aS'*'
aS'/'
asS'right'
p13
(i__main__
Node
p14
(dp15
g11
(lp16
S'+'
aS'-'
aS'*'
aS'/'
asg13
(i__main__
Node
p17
(dp18
g11
(lp19
S'+'
aS'-'
aS'*'
aS'/'
asg13
NsS'leaf'
p20
(lp21
S'indiv.alignment()'
p22
aS'indiv.cohesion()'
p23
aS'indiv.separation()'
p24
aS'indiv.target()'
p25
aS'indiv.currentVelocity()'
p26
aS'indiv.centerOfWorld()'
p27
aS'indiv.mostEnergizedNeighbor()'
p28
aS'indiv.randV()'
p29
asS'parent'
p30
g14
sS'data'
p31
g22
sS'left'
p32
Nsbsg20
(lp33
g22
ag23
ag24
ag25
ag26
ag27
ag28
ag29
asg30
g9
sg31
S'+'
sg32
(i__main__
Node
p34
(dp35
g11
(lp36
S'+'
aS'-'
aS'*'
aS'/'
asg13
Nsg20
(lp37
g22
ag23
ag24
ag25
ag26
ag27
ag28
ag29
asg30
g14
sg31
g25
sg32
Nsbsbsg20
(lp38
g22
ag23
ag24
ag25
ag26
ag27
ag28
ag29
asg30
Nsg31
S'+'
sg32
(i__main__
Node
p39
(dp40
g11
(lp41
S'+'
aS'-'
aS'*'
aS'/'
asg13
(i__main__
Node
p42
(dp43
g11
(lp44
S'+'
aS'-'
aS'*'
aS'/'
asg13
Nsg20
(lp45
g22
ag23
ag24
ag25
ag26
ag27
ag28
ag29
asg30
g39
sg31
g22
sg32
Nsbsg20
(lp46
g22
ag23
ag24
ag25
ag26
ag27
ag28
ag29
asg30
g9
sg31
S'+'
sg32
(i__main__
Node
p47
(dp48
g11
(lp49
S'+'
aS'-'
aS'*'
aS'/'
asg13
Nsg20
(lp50
g22
ag23
ag24
ag25
ag26
ag27
ag28
ag29
asg30
g39
sg31
g25
sg32
NsbsbsbsS'accel_x'
p51
F-0.32297432057268105
sS'accel_y'
p52
F1.3622362451405121
sS'maxAccel'
p53
I2
sS'maxVel'
p54
F0.69999999999999996
sS'age'
p55
I150
sS'gener'
p56
S'm'
sS'lastScale'
p57
F13.999999999999998
sS'energy'
p58
F0.84999999999999987
sb.(i__main__
Data_mobile
p1
(dp2
S'vel_y'
p3
F-0.0043108238979544088
sS'vel_x'
p4
F0.6999867261579471
sS'pos_x'
p5
F28.886362864107245
sS'pos_y'
p6
F0.52541356595413213
sS'isAlive'
p7
I01
sS'geno'
p8
(i__main__
Node
p9
(dp10
S'node'
p11
(lp12
S'+'
aS'-'
aS'*'
aS'/'
asS'right'
p13
(i__main__
Node
p14
(dp15
g11
(lp16
S'+'
aS'-'
aS'*'
aS'/'
asg13
(i__main__
Node
p17
(dp18
g11
(lp19
S'+'
aS'-'
aS'*'
aS'/'
asg13
(i__main__
Node
p20
(dp21
g11
(lp22
S'+'
aS'-'
aS'*'
aS'/'
asg13
(i__main__
Node
p23
(dp24
g11
(lp25
S'+'
aS'-'
aS'*'
aS'/'
asg13
NsS'leaf'
p26
(lp27
S'indiv.alignment()'
p28
aS'indiv.cohesion()'
p29
aS'indiv.separation()'
p30
aS'indiv.target()'
p31
aS'indiv.currentVelocity()'
p32
aS'indiv.centerOfWorld()'
p33
aS'indiv.mostEnergizedNeighbor()'
p34
aS'indiv.randV()'
p35
asS'parent'
p36
g20
sS'data'
p37
g34
sS'left'
p38
Nsbsg26
(lp39
g28
ag29
ag30
ag31
ag32
ag33
ag34
ag35
asg36
g17
sg37
S'/'
sg38
(i__main__
Node
p40
(dp41
g11
(lp42
S'+'
aS'-'
aS'*'
aS'/'
asg13
Nsg26
(lp43
g28
ag29
ag30
ag31
ag32
ag33
ag34
ag35
asg36
g20
sg37
g28
sg38
Nsbsbsg26
(lp44
g28
ag29
ag30
ag31
ag32
ag33
ag34
ag35
asg36
g14
sg37
S'/'
sg38
(i__main__
Node
p45
(dp46
g11
(lp47
S'+'
aS'-'
aS'*'
aS'/'
asg13
(i__main__
Node
p48
(dp49
g11
(lp50
S'+'
aS'-'
aS'*'
aS'/'
asg13
Nsg26
(lp51
g28
ag29
ag30
ag31
ag32
ag33
ag34
ag35
asg36
g45
sg37
g28
sg38
Nsbsg26
(lp52
g28
ag29
ag30
ag31
ag32
ag33
ag34
ag35
asg36
g17
sg37
S'-'
sg38
(i__main__
Node
p53
(dp54
g11
(lp55
S'+'
aS'-'
aS'*'
aS'/'
asg13
Nsg26
(lp56
g28
ag29
ag30
ag31
ag32
ag33
ag34
ag35
asg36
g45
sg37
g32
sg38
Nsbsbsbsg26
(lp57
g28
ag29
ag30
ag31
ag32
ag33
ag34
ag35
asg36
g9
sg37
S'/'
sg38
(i__main__
Node
p58
(dp59
g11
(lp60
S'+'
aS'-'
aS'*'
aS'/'
asg13
(i__main__
Node
p61
(dp62
g11
(lp63
S'+'
aS'-'
aS'*'
aS'/'
asg13
(i__main__
Node
p64
(dp65
g11
(lp66
S'+'
aS'-'
aS'*'
aS'/'
asg13
Nsg26
(lp67
g28
ag29
ag30
ag31
ag32
ag33
ag34
ag35
asg36
g61
sg37
g29
sg38
Nsbsg26
(lp68
g28
ag29
ag30
ag31
ag32
ag33
ag34
ag35
asg36
g58
sg37
S'-'
sg38
(i__main__
Node
p69
(dp70
g11
(lp71
S'+'
aS'-'
aS'*'
aS'/'
asg13
Nsg26
(lp72
g28
ag29
ag30
ag31
ag32
ag33
ag34
ag35
asg36
g61
sg37
g31
sg38
Nsbsbsg26
(lp73
g28
ag29
ag30
ag31
ag32
ag33
ag34
ag35
asg36
g14
sg37
S'*'
sg38
(i__main__
Node
p74
(dp75
g11
(lp76
S'+'
aS'-'
aS'*'
aS'/'
asg13
(i__main__
Node
p77
(dp78
g11
(lp79
S'+'
aS'-'
aS'*'
aS'/'
asg13
Nsg26
(lp80
g28
ag29
ag30
ag31
ag32
ag33
ag34
ag35
asg36
g74
sg37
g28
sg38
Nsbsg26
(lp81
g28
ag29
ag30
ag31
ag32
ag33
ag34
ag35
asg36
g58
sg37
S'*'
sg38
(i__main__
Node
p82
(dp83
g11
(lp84
S'+'
aS'-'
aS'*'
aS'/'
asg13
Nsg26
(lp85
g28
ag29
ag30
ag31
ag32
ag33
ag34
ag35
asg36
g74
sg37
g35
sg38
Nsbsbsbsbsg26
(lp86
g28
ag29
ag30
ag31
ag32
ag33
ag34
ag35
asg36
Nsg37
S'+'
sg38
(i__main__
Node
p87
(dp88
g11
(lp89
S'+'
aS'-'
aS'*'
aS'/'
asg13
(i__main__
Node
p90
(dp91
g11
(lp92
S'+'
aS'-'
aS'*'
aS'/'
asg13
Nsg26
(lp93
g28
ag29
ag30
ag31
ag32
ag33
ag34
ag35
asg36
g87
sg37
g29
sg38
Nsbsg26
(lp94
g28
ag29
ag30
ag31
ag32
ag33
ag34
ag35
asg36
g9
sg37
S'-'
sg38
(i__main__
Node
p95
(dp96
g11
(lp97
S'+'
aS'-'
aS'*'
aS'/'
asg13
Nsg26
(lp98
g28
ag29
ag30
ag31
ag32
ag33
ag34
ag35
asg36
g87
sg37
g31
sg38
NsbsbsbsS'accel_x'
p99
F-1.9999999261460124
sS'accel_y'
p100
F-0.00054352179817705878
sS'maxAccel'
p101
I2
sS'maxVel'
p102
F0.69999999999999996
sS'age'
p103
I700
sS'gener'
p104
S'm'
sS'lastScale'
p105
F14.299999999999999
sS'energy'
p106
F0.87999999999999989
sb.(i__main__
Data_mobile
p1
(dp2
S'vel_y'
p3
F0.68112003407500721
sS'vel_x'
p4
F-0.16147909828105014
sS'pos_x'
p5
F176.70941872919528
sS'pos_y'
p6
F-49.727060245674522
sS'isAlive'
p7
I01
sS'geno'
p8
(i__main__
Node
p9
(dp10
S'node'
p11
(lp12
S'+'
aS'-'
aS'*'
aS'/'
asS'right'
p13
(i__main__
Node
p14
(dp15
g11
(lp16
S'+'
aS'-'
aS'*'
aS'/'
asg13
(i__main__
Node
p17
(dp18
g11
(lp19
S'+'
aS'-'
aS'*'
aS'/'
asg13
NsS'leaf'
p20
(lp21
S'indiv.alignment()'
p22
aS'indiv.cohesion()'
p23
aS'indiv.separation()'
p24
aS'indiv.target()'
p25
aS'indiv.currentVelocity()'
p26
aS'indiv.centerOfWorld()'
p27
aS'indiv.mostEnergizedNeighbor()'
p28
aS'indiv.randV()'
p29
asS'parent'
p30
g14
sS'data'
p31
g22
sS'left'
p32
Nsbsg20
(lp33
g22
ag23
ag24
ag25
ag26
ag27
ag28
ag29
asg30
g9
sg31
S'+'
sg32
(i__main__
Node
p34
(dp35
g11
(lp36
S'+'
aS'-'
aS'*'
aS'/'
asg13
Nsg20
(lp37
g22
ag23
ag24
ag25
ag26
ag27
ag28
ag29
asg30
g14
sg31
g25
sg32
Nsbsbsg20
(lp38
g22
ag23
ag24
ag25
ag26
ag27
ag28
ag29
asg30
Nsg31
S'+'
sg32
(i__main__
Node
p39
(dp40
g11
(lp41
S'+'
aS'-'
aS'*'
aS'/'
asg13
(i__main__
Node
p42
(dp43
g11
(lp44
S'+'
aS'-'
aS'*'
aS'/'
asg13
Nsg20
(lp45
g22
ag23
ag24
ag25
ag26
ag27
ag28
ag29
asg30
g39
sg31
g22
sg32
Nsbsg20
(lp46
g22
ag23
ag24
ag25
ag26
ag27
ag28
ag29
asg30
g9
sg31
S'+'
sg32
(i__main__
Node
p47
(dp48
g11
(lp49
S'+'
aS'-'
aS'*'
aS'/'
asg13
Nsg20
(lp50
g22
ag23
ag24
ag25
ag26
ag27
ag28
ag29
asg30
g39
sg31
g25
sg32
NsbsbsbsS'accel_x'
p51
F-0.32297493009942102
sS'accel_y'
p52
F1.3622361006404371
sS'maxAccel'
p53
I2
sS'maxVel'
p54
F0.69999999999999996
sS'age'
p55
I100
sS'gener'
p56
S'm'
sS'lastScale'
p57
F13.999999999999998
sS'energy'
p58
F0.84999999999999987
sb.(i__main__
Data_mobile
p1
(dp2
S'vel_y'
p3
F0.68112002377272596
sS'vel_x'
p4
F-0.16147914173614261
sS'pos_x'
p5
F176.67653439725035
sS'pos_y'
p6
F-49.586057933042021
sS'isAlive'
p7
I01
sS'geno'
p8
(i__main__
Node
p9
(dp10
S'node'
p11
(lp12
S'+'
aS'-'
aS'*'
aS'/'
asS'right'
p13
(i__main__
Node
p14
(dp15
g11
(lp16
S'+'
aS'-'
aS'*'
aS'/'
asg13
(i__main__
Node
p17
(dp18
g11
(lp19
S'+'
aS'-'
aS'*'
aS'/'
asg13
NsS'leaf'
p20
(lp21
S'indiv.alignment()'
p22
aS'indiv.cohesion()'
p23
aS'indiv.separation()'
p24
aS'indiv.target()'
p25
aS'indiv.currentVelocity()'
p26
aS'indiv.centerOfWorld()'
p27
aS'indiv.mostEnergizedNeighbor()'
p28
aS'indiv.randV()'
p29
asS'parent'
p30
g14
sS'data'
p31
g22
sS'left'
p32
Nsbsg20
(lp33
g22
ag23
ag24
ag25
ag26
ag27
ag28
ag29
asg30
g9
sg31
S'+'
sg32
(i__main__
Node
p34
(dp35
g11
(lp36
S'+'
aS'-'
aS'*'
aS'/'
asg13
Nsg20
(lp37
g22
ag23
ag24
ag25
ag26
ag27
ag28
ag29
asg30
g14
sg31
g25
sg32
Nsbsbsg20
(lp38
g22
ag23
ag24
ag25
ag26
ag27
ag28
ag29
asg30
Nsg31
S'+'
sg32
(i__main__
Node
p39
(dp40
g11
(lp41
S'+'
aS'-'
aS'*'
aS'/'
asg13
(i__main__
Node
p42
(dp43
g11
(lp44
S'+'
aS'-'
aS'*'
aS'/'
asg13
Nsg20
(lp45
g22
ag23
ag24
ag25
ag26
ag27
ag28
ag29
asg30
g39
sg31
g22
sg32
Nsbsg20
(lp46
g22
ag23
ag24
ag25
ag26
ag27
ag28
ag29
asg30
g9
sg31
S'+'
sg32
(i__main__
Node
p47
(dp48
g11
(lp49
S'+'
aS'-'
aS'*'
aS'/'
asg13
Nsg20
(lp50
g22
ag23
ag24
ag25
ag26
ag27
ag28
ag29
asg30
g39
sg31
g25
sg32
NsbsbsbsS'accel_x'
p51
F-0.32297556408086636
sS'accel_y'
p52
F1.3622359503431301
sS'maxAccel'
p53
I2
sS'maxVel'
p54
F0.69999999999999996
sS'age'
p55
I50
sS'gener'
p56
S'm'
sS'lastScale'
p57
F13.699999999999999
sS'energy'
p58
F0.81999999999999984
sb.(i__main__
Data_mobile
p1
(dp2
S'vel_y'
p3
F-0.48966068061050683
sS'vel_x'
p4
F-0.50023236387108672
sS'pos_x'
p5
F87.258795524805095
sS'pos_y'
p6
F-12.575132955733622
sS'isAlive'
p7
I01
sS'geno'
p8
(i__main__
Node
p9
(dp10
S'node'
p11
(lp12
S'+'
aS'-'
aS'*'
aS'/'
asS'right'
p13
(i__main__
Node
p14
(dp15
g11
(lp16
S'+'
aS'-'
aS'*'
aS'/'
asg13
(i__main__
Node
p17
(dp18
g11
(lp19
S'+'
aS'-'
aS'*'
aS'/'
asg13
NsS'leaf'
p20
(lp21
S'indiv.alignment()'
p22
aS'indiv.cohesion()'
p23
aS'indiv.separation()'
p24
aS'indiv.target()'
p25
aS'indiv.currentVelocity()'
p26
aS'indiv.centerOfWorld()'
p27
aS'indiv.mostEnergizedNeighbor()'
p28
aS'indiv.randV()'
p29
asS'parent'
p30
g14
sS'data'
p31
g28
sS'left'
p32
Nsbsg20
(lp33
g22
ag23
ag24
ag25
ag26
ag27
ag28
ag29
asg30
g9
sg31
S'/'
sg32
(i__main__
Node
p34
(dp35
g11
(lp36
S'+'
aS'-'
aS'*'
aS'/'
asg13
Nsg20
(lp37
g22
ag23
ag24
ag25
ag26
ag27
ag28
ag29
asg30
g14
sg31
g22
sg32
Nsbsbsg20
(lp38
g22
ag23
ag24
ag25
ag26
ag27
ag28
ag29
asg30
Nsg31
S'+'
sg32
(i__main__
Node
p39
(dp40
g11
(lp41
S'+'
aS'-'
aS'*'
aS'/'
asg13
(i__main__
Node
p42
(dp43
g11
(lp44
S'+'
aS'-'
aS'*'
aS'/'
asg13
Nsg20
(lp45
g22
ag23
ag24
ag25
ag26
ag27
ag28
ag29
asg30
g39
sg31
g22
sg32
Nsbsg20
(lp46
g22
ag23
ag24
ag25
ag26
ag27
ag28
ag29
asg30
g9
sg31
S'+'
sg32
(i__main__
Node
p47
(dp48
g11
(lp49
S'+'
aS'-'
aS'*'
aS'/'
asg13
Nsg20
(lp50
g22
ag23
ag24
ag25
ag26
ag27
ag28
ag29
asg30
g39
sg31
g25
sg32
NsbsbsbsS'accel_x'
p51
F-1.4852052390994459
sS'accel_y'
p52
F-1.3394645936909111
sS'maxAccel'
p53
I2
sS'maxVel'
p54
F0.69999999999999996
sS'age'
p55
I50
sS'gener'
p56
S'm'
sS'lastScale'
p57
F8.4999999999999947
sS'energy'
p58
F0.29999999999999949
sb.(i__main__
Data_mobile
p1
(dp2
S'vel_y'
p3
F0.68112005772683448
sS'vel_x'
p4
F-0.16147899851743458
sS'pos_x'
p5
F176.64714758365034
sS'pos_y'
p6
F-49.619031539248255
sS'isAlive'
p7
I01
sS'geno'
p8
(i__main__
Node
p9
(dp10
S'node'
p11
(lp12
S'+'
aS'-'
aS'*'
aS'/'
asS'right'
p13
(i__main__
Node
p14
(dp15
g11
(lp16
S'+'
aS'-'
aS'*'
aS'/'
asg13
(i__main__
Node
p17
(dp18
g11
(lp19
S'+'
aS'-'
aS'*'
aS'/'
asg13
NsS'leaf'
p20
(lp21
S'indiv.alignment()'
p22
aS'indiv.cohesion()'
p23
aS'indiv.separation()'
p24
aS'indiv.target()'
p25
aS'indiv.currentVelocity()'
p26
aS'indiv.centerOfWorld()'
p27
aS'indiv.mostEnergizedNeighbor()'
p28
aS'indiv.randV()'
p29
asS'parent'
p30
g14
sS'data'
p31
g22
sS'left'
p32
Nsbsg20
(lp33
g22
ag23
ag24
ag25
ag26
ag27
ag28
ag29
asg30
g9
sg31
S'+'
sg32
(i__main__
Node
p34
(dp35
g11
(lp36
S'+'
aS'-'
aS'*'
aS'/'
asg13
Nsg20
(lp37
g22
ag23
ag24
ag25
ag26
ag27
ag28
ag29
asg30
g14
sg31
g25
sg32
Nsbsbsg20
(lp38
g22
ag23
ag24
ag25
ag26
ag27
ag28
ag29
asg30
Nsg31
S'+'
sg32
(i__main__
Node
p39
(dp40
g11
(lp41
S'+'
aS'-'
aS'*'
aS'/'
asg13
(i__main__
Node
p42
(dp43
g11
(lp44
S'+'
aS'-'
aS'*'
aS'/'
asg13
Nsg20
(lp45
g22
ag23
ag24
ag25
ag26
ag27
ag28
ag29
asg30
g39
sg31
g22
sg32
Nsbsg20
(lp46
g22
ag23
ag24
ag25
ag26
ag27
ag28
ag29
asg30
g9
sg31
S'+'
sg32
(i__main__
Node
p47
(dp48
g11
(lp49
S'+'
aS'-'
aS'*'
aS'/'
asg13
Nsg20
(lp50
g22
ag23
ag24
ag25
ag26
ag27
ag28
ag29
asg30
g39
sg31
g25
sg32
NsbsbsbsS'accel_x'
p51
F-0.32297626772334836
sS'accel_y'
p52
F1.362235783532068
sS'maxAccel'
p53
I2
sS'maxVel'
p54
F0.69999999999999996
sS'age'
p55
I50
sS'gener'
p56
S'm'
sS'lastScale'
p57
F13.699999999999999
sS'energy'
p58
F0.81999999999999984
sb.(i__main__
Data_mobile
p1
(dp2
S'vel_y'
p3
F0.67088861552044021
sS'vel_x'
p4
F-0.16227752231536827
sS'pos_x'
p5
F146.98522434893954
sS'pos_y'
p6
F-38.825196842028774
sS'isAlive'
p7
I01
sS'geno'
p8
(i__main__
Node
p9
(dp10
S'node'
p11
(lp12
S'+'
aS'-'
aS'*'
aS'/'
asS'right'
p13
(i__main__
Node
p14
(dp15
g11
(lp16
S'+'
aS'-'
aS'*'
aS'/'
asg13
(i__main__
Node
p17
(dp18
g11
(lp19
S'+'
aS'-'
aS'*'
aS'/'
asg13
NsS'leaf'
p20
(lp21
S'indiv.alignment()'
p22
aS'indiv.cohesion()'
p23
aS'indiv.separation()'
p24
aS'indiv.target()'
p25
aS'indiv.currentVelocity()'
p26
aS'indiv.centerOfWorld()'
p27
aS'indiv.mostEnergizedNeighbor()'
p28
aS'indiv.randV()'
p29
asS'parent'
p30
g14
sS'data'
p31
g25
sS'left'
p32
Nsbsg20
(lp33
g22
ag23
ag24
ag25
ag26
ag27
ag28
ag29
asg30
g9
sg31
S'-'
sg32
(i__main__
Node
p34
(dp35
g11
(lp36
S'+'
aS'-'
aS'*'
aS'/'
asg13
Nsg20
(lp37
g22
ag23
ag24
ag25
ag26
ag27
ag28
ag29
asg30
g14
sg31
g29
sg32
Nsbsbsg20
(lp38
g22
ag23
ag24
ag25
ag26
ag27
ag28
ag29
asg30
Nsg31
S'+'
sg32
(i__main__
Node
p39
(dp40
g11
(lp41
S'+'
aS'-'
aS'*'
aS'/'
asg13
(i__main__
Node
p42
(dp43
g11
(lp44
S'+'
aS'-'
aS'*'
aS'/'
asg13
Nsg20
(lp45
g22
ag23
ag24
ag25
ag26
ag27
ag28
ag29
asg30
g39
sg31
g22
sg32
Nsbsg20
(lp46
g22
ag23
ag24
ag25
ag26
ag27
ag28
ag29
asg30
g9
sg31
S'+'
sg32
(i__main__
Node
p47
(dp48
g11
(lp49
S'+'
aS'-'
aS'*'
aS'/'
asg13
Nsg20
(lp50
g22
ag23
ag24
ag25
ag26
ag27
ag28
ag29
asg30
g39
sg31
g25
sg32
NsbsbsbsS'accel_x'
p51
F0
sS'accel_y'
p52
F0
sS'maxAccel'
p53
I2
sS'maxVel'
p54
F0.69999999999999996
sS'age'
p55
I0
sS'gener'
p56
S'm'
sS'lastScale'
p57
F5.5
sS'energy'
p58
F0.5
sb.(i__main__
Data_mobile
p1
(dp2
S'vel_y'
p3
F0.68112001169116798
sS'vel_x'
p4
F-0.16147919269622057
sS'pos_x'
p5
F176.61872992553705
sS'pos_y'
p6
F-49.651367489989561
sS'isAlive'
p7
I01
sS'geno'
p8
(i__main__
Node
p9
(dp10
S'node'
p11
(lp12
S'+'
aS'-'
aS'*'
aS'/'
asS'right'
p13
(i__main__
Node
p14
(dp15
g11
(lp16
S'+'
aS'-'
aS'*'
aS'/'
asg13
(i__main__
Node
p17
(dp18
g11
(lp19
S'+'
aS'-'
aS'*'
aS'/'
asg13
NsS'leaf'
p20
(lp21
S'indiv.alignment()'
p22
aS'indiv.cohesion()'
p23
aS'indiv.separation()'
p24
aS'indiv.target()'
p25
aS'indiv.currentVelocity()'
p26
aS'indiv.centerOfWorld()'
p27
aS'indiv.mostEnergizedNeighbor()'
p28
aS'indiv.randV()'
p29
asS'parent'
p30
g14
sS'data'
p31
g22
sS'left'
p32
Nsbsg20
(lp33
g22
ag23
ag24
ag25
ag26
ag27
ag28
ag29
asg30
g9
sg31
S'+'
sg32
(i__main__
Node
p34
(dp35
g11
(lp36
S'+'
aS'-'
aS'*'
aS'/'
asg13
Nsg20
(lp37
g22
ag23
ag24
ag25
ag26
ag27
ag28
ag29
asg30
g14
sg31
g25
sg32
Nsbsbsg20
(lp38
g22
ag23
ag24
ag25
ag26
ag27
ag28
ag29
asg30
Nsg31
S'+'
sg32
(i__main__
Node
p39
(dp40
g11
(lp41
S'+'
aS'-'
aS'*'
aS'/'
asg13
(i__main__
Node
p42
(dp43
g11
(lp44
S'+'
aS'-'
aS'*'
aS'/'
asg13
Nsg20
(lp45
g22
ag23
ag24
ag25
ag26
ag27
ag28
ag29
asg30
g39
sg31
g22
sg32
Nsbsg20
(lp46
g22
ag23
ag24
ag25
ag26
ag27
ag28
ag29
asg30
g9
sg31
S'+'
sg32
(i__main__
Node
p47
(dp48
g11
(lp49
S'+'
aS'-'
aS'*'
aS'/'
asg13
Nsg20
(lp50
g22
ag23
ag24
ag25
ag26
ag27
ag28
ag29
asg30
g39
sg31
g25
sg32
NsbsbsbsS'accel_x'
p51
F-0.32297699003039015
sS'accel_y'
p52
F1.3622356122966068
sS'maxAccel'
p53
I2
sS'maxVel'
p54
F0.69999999999999996
sS'age'
p55
I150
sS'gener'
p56
S'm'
sS'lastScale'
p57
F13.699999999999999
sS'energy'
p58
F0.81999999999999984
sb.(i__main__
Data_mobile
p1
(dp2
S'vel_y'
p3
F-0.66525421703697663
sS'vel_x'
p4
F-0.21779996950073058
sS'pos_x'
p5
F33.678826514822376
sS'pos_y'
p6
F2.2169327872696245
sS'isAlive'
p7
I01
sS'geno'
p8
(i__main__
Node
p9
(dp10
S'node'
p11
(lp12
S'+'
aS'-'
aS'*'
aS'/'
asS'right'
p13
(i__main__
Node
p14
(dp15
g11
(lp16
S'+'
aS'-'
aS'*'
aS'/'
asg13
(i__main__
Node
p17
(dp18
g11
(lp19
S'+'
aS'-'
aS'*'
aS'/'
asg13
NsS'leaf'
p20
(lp21
S'indiv.alignment()'
p22
aS'indiv.cohesion()'
p23
aS'indiv.separation()'
p24
aS'indiv.target()'
p25
aS'indiv.currentVelocity()'
p26
aS'indiv.centerOfWorld()'
p27
aS'indiv.mostEnergizedNeighbor()'
p28
aS'indiv.randV()'
p29
asS'parent'
p30
g14
sS'data'
p31
g22
sS'left'
p32
Nsbsg20
(lp33
g22
ag23
ag24
ag25
ag26
ag27
ag28
ag29
asg30
g9
sg31
S'+'
sg32
(i__main__
Node
p34
(dp35
g11
(lp36
S'+'
aS'-'
aS'*'
aS'/'
asg13
Nsg20
(lp37
g22
ag23
ag24
ag25
ag26
ag27
ag28
ag29
asg30
g14
sg31
g25
sg32
Nsbsbsg20
(lp38
g22
ag23
ag24
ag25
ag26
ag27
ag28
ag29
asg30
Nsg31
S'+'
sg32
(i__main__
Node
p39
(dp40
g11
(lp41
S'+'
aS'-'
aS'*'
aS'/'
asg13
(i__main__
Node
p42
(dp43
g11
(lp44
S'+'
aS'-'
aS'*'
aS'/'
asg13
Nsg20
(lp45
g22
ag23
ag24
ag25
ag26
ag27
ag28
ag29
asg30
g39
sg31
g22
sg32
Nsbsg20
(lp46
g22
ag23
ag24
ag25
ag26
ag27
ag28
ag29
asg30
g9
sg31
S'+'
sg32
(i__main__
Node
p47
(dp48
g11
(lp49
S'+'
aS'-'
aS'*'
aS'/'
asg13
Nsg20
(lp50
g22
ag23
ag24
ag25
ag26
ag27
ag28
ag29
asg30
g39
sg31
g25
sg32
NsbsbsbsS'accel_x'
p51
F-1.9295949465703675
sS'accel_y'
p52
F0.52598796770468181
sS'maxAccel'
p53
I2
sS'maxVel'
p54
F0.69999999999999996
sS'age'
p55
I200
sS'gener'
p56
S'm'
sS'lastScale'
p57
F15.4
sS'energy'
p58
F0.98999999999999999
sb.(i__main__
Data_mobile
p1
(dp2
S'vel_y'
p3
F-0.019046381355003354
sS'vel_x'
p4
F-0.69974083442177348
sS'pos_x'
p5
F66.460660384138421
sS'pos_y'
p6
F-34.813980052752129
sS'isAlive'
p7
I01
sS'geno'
p8
(i__main__
Node
p9
(dp10
S'node'
p11
(lp12
S'+'
aS'-'
aS'*'
aS'/'
asS'right'
p13
(i__main__
Node
p14
(dp15
g11
(lp16
S'+'
aS'-'
aS'*'
aS'/'
asg13
(i__main__
Node
p17
(dp18
g11
(lp19
S'+'
aS'-'
aS'*'
aS'/'
asg13
(i__main__
Node
p20
(dp21
g11
(lp22
S'+'
aS'-'
aS'*'
aS'/'
asg13
(i__main__
Node
p23
(dp24
g11
(lp25
S'+'
aS'-'
aS'*'
aS'/'
asg13
NsS'leaf'
p26
(lp27
S'indiv.alignment()'
p28
aS'indiv.cohesion()'
p29
aS'indiv.separation()'
p30
aS'indiv.target()'
p31
aS'indiv.currentVelocity()'
p32
aS'indiv.centerOfWorld()'
p33
aS'indiv.mostEnergizedNeighbor()'
p34
aS'indiv.randV()'
p35
asS'parent'
p36
g20
sS'data'
p37
g34
sS'left'
p38
Nsbsg26
(lp39
g28
ag29
ag30
ag31
ag32
ag33
ag34
ag35
asg36
g17
sg37
S'/'
sg38
(i__main__
Node
p40
(dp41
g11
(lp42
S'+'
aS'-'
aS'*'
aS'/'
asg13
Nsg26
(lp43
g28
ag29
ag30
ag31
ag32
ag33
ag34
ag35
asg36
g20
sg37
g28
sg38
Nsbsbsg26
(lp44
g28
ag29
ag30
ag31
ag32
ag33
ag34
ag35
asg36
g14
sg37
S'/'
sg38
(i__main__
Node
p45
(dp46
g11
(lp47
S'+'
aS'-'
aS'*'
aS'/'
asg13
(i__main__
Node
p48
(dp49
g11
(lp50
S'+'
aS'-'
aS'*'
aS'/'
asg13
Nsg26
(lp51
g28
ag29
ag30
ag31
ag32
ag33
ag34
ag35
asg36
g45
sg37
g35
sg38
Nsbsg26
(lp52
g28
ag29
ag30
ag31
ag32
ag33
ag34
ag35
asg36
g17
sg37
S'-'
sg38
(i__main__
Node
p53
(dp54
g11
(lp55
S'+'
aS'-'
aS'*'
aS'/'
asg13
Nsg26
(lp56
g28
ag29
ag30
ag31
ag32
ag33
ag34
ag35
asg36
g45
sg37
g29
sg38
Nsbsbsbsg26
(lp57
g28
ag29
ag30
ag31
ag32
ag33
ag34
ag35
asg36
g9
sg37
S'/'
sg38
(i__main__
Node
p58
(dp59
g11
(lp60
S'+'
aS'-'
aS'*'
aS'/'
asg13
(i__main__
Node
p61
(dp62
g11
(lp63
S'+'
aS'-'
aS'*'
aS'/'
asg13
(i__main__
Node
p64
(dp65
g11
(lp66
S'+'
aS'-'
aS'*'
aS'/'
asg13
Nsg26
(lp67
g28
ag29
ag30
ag31
ag32
ag33
ag34
ag35
asg36
g61
sg37
g29
sg38
Nsbsg26
(lp68
g28
ag29
ag30
ag31
ag32
ag33
ag34
ag35
asg36
g58
sg37
S'-'
sg38
(i__main__
Node
p69
(dp70
g11
(lp71
S'+'
aS'-'
aS'*'
aS'/'
asg13
Nsg26
(lp72
g28
ag29
ag30
ag31
ag32
ag33
ag34
ag35
asg36
g61
sg37
g31
sg38
Nsbsbsg26
(lp73
g28
ag29
ag30
ag31
ag32
ag33
ag34
ag35
asg36
g14
sg37
S'*'
sg38
(i__main__
Node
p74
(dp75
g11
(lp76
S'+'
aS'-'
aS'*'
aS'/'
asg13
(i__main__
Node
p77
(dp78
g11
(lp79
S'+'
aS'-'
aS'*'
aS'/'
asg13
Nsg26
(lp80
g28
ag29
ag30
ag31
ag32
ag33
ag34
ag35
asg36
g74
sg37
g28
sg38
Nsbsg26
(lp81
g28
ag29
ag30
ag31
ag32
ag33
ag34
ag35
asg36
g58
sg37
S'*'
sg38
(i__main__
Node
p82
(dp83
g11
(lp84
S'+'
aS'-'
aS'*'
aS'/'
asg13
Nsg26
(lp85
g28
ag29
ag30
ag31
ag32
ag33
ag34
ag35
asg36
g74
sg37
g35
sg38
Nsbsbsbsbsg26
(lp86
g28
ag29
ag30
ag31
ag32
ag33
ag34
ag35
asg36
Nsg37
S'+'
sg38
(i__main__
Node
p87
(dp88
g11
(lp89
S'+'
aS'-'
aS'*'
aS'/'
asg13
(i__main__
Node
p90
(dp91
g11
(lp92
S'+'
aS'-'
aS'*'
aS'/'
asg13
Nsg26
(lp93
g28
ag29
ag30
ag31
ag32
ag33
ag34
ag35
asg36
g87
sg37
g29
sg38
Nsbsg26
(lp94
g28
ag29
ag30
ag31
ag32
ag33
ag34
ag35
asg36
g9
sg37
S'-'
sg38
(i__main__
Node
p95
(dp96
g11
(lp97
S'+'
aS'-'
aS'*'
aS'/'
asg13
Nsg26
(lp98
g28
ag29
ag30
ag31
ag32
ag33
ag34
ag35
asg36
g87
sg37
g31
sg38
NsbsbsbsS'accel_x'
p99
F-1.999229243455821
sS'accel_y'
p100
F-0.055519655177838662
sS'maxAccel'
p101
I2
sS'maxVel'
p102
F0.69999999999999996
sS'age'
p103
I100
sS'gener'
p104
S'm'
sS'lastScale'
p105
F5.5
sS'energy'
p106
I0
sb.(i__main__
Data_mobile
p1
(dp2
S'vel_y'
p3
F-0.58506559693137794
sS'vel_x'
p4
F-0.38431529671264764
sS'pos_x'
p5
F33.598690758360654
sS'pos_y'
p6
F2.3365728576635054
sS'isAlive'
p7
I01
sS'geno'
p8
(i__main__
Node
p9
(dp10
S'node'
p11
(lp12
S'+'
aS'-'
aS'*'
aS'/'
asS'right'
p13
(i__main__
Node
p14
(dp15
g11
(lp16
S'+'
aS'-'
aS'*'
aS'/'
asg13
(i__main__
Node
p17
(dp18
g11
(lp19
S'+'
aS'-'
aS'*'
aS'/'
asg13
NsS'leaf'
p20
(lp21
S'indiv.alignment()'
p22
aS'indiv.cohesion()'
p23
aS'indiv.separation()'
p24
aS'indiv.target()'
p25
aS'indiv.currentVelocity()'
p26
aS'indiv.centerOfWorld()'
p27
aS'indiv.mostEnergizedNeighbor()'
p28
aS'indiv.randV()'
p29
asS'parent'
p30
g14
sS'data'
p31
g22
sS'left'
p32
Nsbsg20
(lp33
g22
ag23
ag24
ag25
ag26
ag27
ag28
ag29
asg30
g9
sg31
S'+'
sg32
(i__main__
Node
p34
(dp35
g11
(lp36
S'+'
aS'-'
aS'*'
aS'/'
asg13
Nsg20
(lp37
g22
ag23
ag24
ag25
ag26
ag27
ag28
ag29
asg30
g14
sg31
g25
sg32
Nsbsbsg20
(lp38
g22
ag23
ag24
ag25
ag26
ag27
ag28
ag29
asg30
Nsg31
S'+'
sg32
(i__main__
Node
p39
(dp40
g11
(lp41
S'+'
aS'-'
aS'*'
aS'/'
asg13
(i__main__
Node
p42
(dp43
g11
(lp44
S'+'
aS'-'
aS'*'
aS'/'
asg13
Nsg20
(lp45
g22
ag23
ag24
ag25
ag26
ag27
ag28
ag29
asg30
g39
sg31
g22
sg32
Nsbsg20
(lp46
g22
ag23
ag24
ag25
ag26
ag27
ag28
ag29
asg30
g9
sg31
S'+'
sg32
(i__main__
Node
p47
(dp48
g11
(lp49
S'+'
aS'-'
aS'*'
aS'/'
asg13
Nsg20
(lp50
g22
ag23
ag24
ag25
ag26
ag27
ag28
ag29
asg30
g39
sg31
g25
sg32
NsbsbsbsS'accel_x'
p51
F-1.9911250726698391
sS'accel_y'
p52
F-0.18820452966262022
sS'maxAccel'
p53
I2
sS'maxVel'
p54
F0.69999999999999996
sS'age'
p55
I50
sS'gener'
p56
S'm'
sS'lastScale'
p57
F15.4
sS'energy'
p58
F0.98999999999999999
sb.(i__main__
Data_mobile
p1
(dp2
S'vel_y'
p3
F0.68111986467862351
sS'vel_x'
p4
F-0.16147981279458318
sS'pos_x'
p5
F176.60390104310076
sS'pos_y'
p6
F-49.661561663035457
sS'isAlive'
p7
I01
sS'geno'
p8
(i__main__
Node
p9
(dp10
S'node'
p11
(lp12
S'+'
aS'-'
aS'*'
aS'/'
asS'right'
p13
(i__main__
Node
p14
(dp15
g11
(lp16
S'+'
aS'-'
aS'*'
aS'/'
asg13
(i__main__
Node
p17
(dp18
g11
(lp19
S'+'
aS'-'
aS'*'
aS'/'
asg13
NsS'leaf'
p20
(lp21
S'indiv.alignment()'
p22
aS'indiv.cohesion()'
p23
aS'indiv.separation()'
p24
aS'indiv.target()'
p25
aS'indiv.currentVelocity()'
p26
aS'indiv.centerOfWorld()'
p27
aS'indiv.mostEnergizedNeighbor()'
p28
aS'indiv.randV()'
p29
asS'parent'
p30
g14
sS'data'
p31
g22
sS'left'
p32
Nsbsg20
(lp33
g22
ag23
ag24
ag25
ag26
ag27
ag28
ag29
asg30
g9
sg31
S'+'
sg32
(i__main__
Node
p34
(dp35
g11
(lp36
S'+'
aS'-'
aS'*'
aS'/'
asg13
Nsg20
(lp37
g22
ag23
ag24
ag25
ag26
ag27
ag28
ag29
asg30
g14
sg31
g25
sg32
Nsbsbsg20
(lp38
g22
ag23
ag24
ag25
ag26
ag27
ag28
ag29
asg30
Nsg31
S'+'
sg32
(i__main__
Node
p39
(dp40
g11
(lp41
S'+'
aS'-'
aS'*'
aS'/'
asg13
(i__main__
Node
p42
(dp43
g11
(lp44
S'+'
aS'-'
aS'*'
aS'/'
asg13
Nsg20
(lp45
g22
ag23
ag24
ag25
ag26
ag27
ag28
ag29
asg30
g39
sg31
g22
sg32
Nsbsg20
(lp46
g22
ag23
ag24
ag25
ag26
ag27
ag28
ag29
asg30
g9
sg31
S'+'
sg32
(i__main__
Node
p47
(dp48
g11
(lp49
S'+'
aS'-'
aS'*'
aS'/'
asg13
Nsg20
(lp50
g22
ag23
ag24
ag25
ag26
ag27
ag28
ag29
asg30
g39
sg31
g25
sg32
NsbsbsbsS'accel_x'
p51
F-0.32297768642866992
sS'accel_y'
p52
F1.3622354472027791
sS'maxAccel'
p53
I2
sS'maxVel'
p54
F0.69999999999999996
sS'age'
p55
I150
sS'gener'
p56
S'm'
sS'lastScale'
p57
F13.699999999999999
sS'energy'
p58
F0.81999999999999984
sb.(i__main__
Data_mobile
p1
(dp2
S'vel_y'
p3
F0.68111967030503495
sS'vel_x'
p4
F-0.16148063265779095
sS'pos_x'
p5
F176.59505281702081
sS'pos_y'
p6
F-49.662448412377316
sS'isAlive'
p7
I01
sS'geno'
p8
(i__main__
Node
p9
(dp10
S'node'
p11
(lp12
S'+'
aS'-'
aS'*'
aS'/'
asS'right'
p13
(i__main__
Node
p14
(dp15
g11
(lp16
S'+'
aS'-'
aS'*'
aS'/'
asg13
(i__main__
Node
p17
(dp18
g11
(lp19
S'+'
aS'-'
aS'*'
aS'/'
asg13
NsS'leaf'
p20
(lp21
S'indiv.alignment()'
p22
aS'indiv.cohesion()'
p23
aS'indiv.separation()'
p24
aS'indiv.target()'
p25
aS'indiv.currentVelocity()'
p26
aS'indiv.centerOfWorld()'
p27
aS'indiv.mostEnergizedNeighbor()'
p28
aS'indiv.randV()'
p29
asS'parent'
p30
g14
sS'data'
p31
g22
sS'left'
p32
Nsbsg20
(lp33
g22
ag23
ag24
ag25
ag26
ag27
ag28
ag29
asg30
g9
sg31
S'+'
sg32
(i__main__
Node
p34
(dp35
g11
(lp36
S'+'
aS'-'
aS'*'
aS'/'
asg13
Nsg20
(lp37
g22
ag23
ag24
ag25
ag26
ag27
ag28
ag29
asg30
g14
sg31
g25
sg32
Nsbsbsg20
(lp38
g22
ag23
ag24
ag25
ag26
ag27
ag28
ag29
asg30
Nsg31
S'+'
sg32
(i__main__
Node
p39
(dp40
g11
(lp41
S'+'
aS'-'
aS'*'
aS'/'
asg13
(i__main__
Node
p42
(dp43
g11
(lp44
S'+'
aS'-'
aS'*'
aS'/'
asg13
Nsg20
(lp45
g22
ag23
ag24
ag25
ag26
ag27
ag28
ag29
asg30
g39
sg31
g22
sg32
Nsbsg20
(lp46
g22
ag23
ag24
ag25
ag26
ag27
ag28
ag29
asg30
g9
sg31
S'+'
sg32
(i__main__
Node
p47
(dp48
g11
(lp49
S'+'
aS'-'
aS'*'
aS'/'
asg13
Nsg20
(lp50
g22
ag23
ag24
ag25
ag26
ag27
ag28
ag29
asg30
g39
sg31
g25
sg32
NsbsbsbsS'accel_x'
p51
F-0.3229783500133695
sS'accel_y'
p52
F1.3622352898870291
sS'maxAccel'
p53
I2
sS'maxVel'
p54
F0.69999999999999996
sS'age'
p55
I100
sS'gener'
p56
S'm'
sS'lastScale'
p57
F13.699999999999999
sS'energy'
p58
F0.81999999999999984
sb.(i__main__
Data_mobile
p1
(dp2
S'vel_y'
p3
F-0.49053918361299781
sS'vel_x'
p4
F-0.499370913590583
sS'pos_x'
p5
F87.052595678745149
sS'pos_y'
p6
F-12.640063825389449
sS'isAlive'
p7
I01
sS'geno'
p8
(i__main__
Node
p9
(dp10
S'node'
p11
(lp12
S'+'
aS'-'
aS'*'
aS'/'
asS'right'
p13
(i__main__
Node
p14
(dp15
g11
(lp16
S'+'
aS'-'
aS'*'
aS'/'
asg13
(i__main__
Node
p17
(dp18
g11
(lp19
S'+'
aS'-'
aS'*'
aS'/'
asg13
NsS'leaf'
p20
(lp21
S'indiv.alignment()'
p22
aS'indiv.cohesion()'
p23
aS'indiv.separation()'
p24
aS'indiv.target()'
p25
aS'indiv.currentVelocity()'
p26
aS'indiv.centerOfWorld()'
p27
aS'indiv.mostEnergizedNeighbor()'
p28
aS'indiv.randV()'
p29
asS'parent'
p30
g14
sS'data'
p31
g22
sS'left'
p32
Nsbsg20
(lp33
g22
ag23
ag24
ag25
ag26
ag27
ag28
ag29
asg30
g9
sg31
S'+'
sg32
(i__main__
Node
p34
(dp35
g11
(lp36
S'+'
aS'-'
aS'*'
aS'/'
asg13
Nsg20
(lp37
g22
ag23
ag24
ag25
ag26
ag27
ag28
ag29
asg30
g14
sg31
g25
sg32
Nsbsbsg20
(lp38
g22
ag23
ag24
ag25
ag26
ag27
ag28
ag29
asg30
Nsg31
S'+'
sg32
(i__main__
Node
p39
(dp40
g11
(lp41
S'+'
aS'-'
aS'*'
aS'/'
asg13
(i__main__
Node
p42
(dp43
g11
(lp44
S'+'
aS'-'
aS'*'
aS'/'
asg13
Nsg20
(lp45
g22
ag23
ag24
ag25
ag26
ag27
ag28
ag29
asg30
g39
sg31
g22
sg32
Nsbsg20
(lp46
g22
ag23
ag24
ag25
ag26
ag27
ag28
ag29
asg30
g9
sg31
S'+'
sg32
(i__main__
Node
p47
(dp48
g11
(lp49
S'+'
aS'-'
aS'*'
aS'/'
asg13
Nsg20
(lp50
g22
ag23
ag24
ag25
ag26
ag27
ag28
ag29
asg30
g39
sg31
g25
sg32
NsbsbsbsS'accel_x'
p51
F-1.4833032842379279
sS'accel_y'
p52
F-1.3415704852779733
sS'maxAccel'
p53
I2
sS'maxVel'
p54
F0.69999999999999996
sS'age'
p55
I50
sS'gener'
p56
S'm'
sS'lastScale'
p57
F8.4999999999999947
sS'energy'
p58
F0.29999999999999949
sb.(i__main__
Data_mobile
p1
(dp2
S'vel_y'
p3
F-0.49421430152512319
sS'vel_x'
p4
F-0.49573402563071511
sS'pos_x'
p5
F86.607252327992313
sS'pos_y'
p6
F-12.736710113768204
sS'isAlive'
p7
I01
sS'geno'
p8
(i__main__
Node
p9
(dp10
S'node'
p11
(lp12
S'+'
aS'-'
aS'*'
aS'/'
asS'right'
p13
(i__main__
Node
p14
(dp15
g11
(lp16
S'+'
aS'-'
aS'*'
aS'/'
asg13
(i__main__
Node
p17
(dp18
g11
(lp19
S'+'
aS'-'
aS'*'
aS'/'
asg13
NsS'leaf'
p20
(lp21
S'indiv.alignment()'
p22
aS'indiv.cohesion()'
p23
aS'indiv.separation()'
p24
aS'indiv.target()'
p25
aS'indiv.currentVelocity()'
p26
aS'indiv.centerOfWorld()'
p27
aS'indiv.mostEnergizedNeighbor()'
p28
aS'indiv.randV()'
p29
asS'parent'
p30
g14
sS'data'
p31
g22
sS'left'
p32
Nsbsg20
(lp33
g22
ag23
ag24
ag25
ag26
ag27
ag28
ag29
asg30
g9
sg31
S'+'
sg32
(i__main__
Node
p34
(dp35
g11
(lp36
S'+'
aS'-'
aS'*'
aS'/'
asg13
Nsg20
(lp37
g22
ag23
ag24
ag25
ag26
ag27
ag28
ag29
asg30
g14
sg31
g25
sg32
Nsbsbsg20
(lp38
g22
ag23
ag24
ag25
ag26
ag27
ag28
ag29
asg30
Nsg31
S'+'
sg32
(i__main__
Node
p39
(dp40
g11
(lp41
S'+'
aS'-'
aS'*'
aS'/'
asg13
(i__main__
Node
p42
(dp43
g11
(lp44
S'+'
aS'-'
aS'*'
aS'/'
asg13
Nsg20
(lp45
g22
ag23
ag24
ag25
ag26
ag27
ag28
ag29
asg30
g39
sg31
g22
sg32
Nsbsg20
(lp46
g22
ag23
ag24
ag25
ag26
ag27
ag28
ag29
asg30
g9
sg31
S'+'
sg32
(i__main__
Node
p47
(dp48
g11
(lp49
S'+'
aS'-'
aS'*'
aS'/'
asg13
Nsg20
(lp50
g22
ag23
ag24
ag25
ag26
ag27
ag28
ag29
asg30
g39
sg31
g25
sg32
NsbsbsbsS'accel_x'
p51
F-1.4747256539475999
sS'accel_y'
p52
F-1.3509937992414411
sS'maxAccel'
p53
I2
sS'maxVel'
p54
F0.69999999999999996
sS'age'
p55
I50
sS'gener'
p56
S'm'
sS'lastScale'
p57
F12.699999999999998
sS'energy'
p58
F0.71999999999999975
sb.(i__main__
Data_mobile
p1
(dp2
S'vel_y'
p3
F0.68111997320607298
sS'vel_x'
p4
F-0.16147935502644994
sS'pos_x'
p5
F176.3529008974985
sS'pos_y'
p6
F-49.997807791253102
sS'isAlive'
p7
I01
sS'geno'
p8
(i__main__
Node
p9
(dp10
S'node'
p11
(lp12
S'+'
aS'-'
aS'*'
aS'/'
asS'right'
p13
(i__main__
Node
p14
(dp15
g11
(lp16
S'+'
aS'-'
aS'*'
aS'/'
asg13
(i__main__
Node
p17
(dp18
g11
(lp19
S'+'
aS'-'
aS'*'
aS'/'
asg13
NsS'leaf'
p20
(lp21
S'indiv.alignment()'
p22
aS'indiv.cohesion()'
p23
aS'indiv.separation()'
p24
aS'indiv.target()'
p25
aS'indiv.currentVelocity()'
p26
aS'indiv.centerOfWorld()'
p27
aS'indiv.mostEnergizedNeighbor()'
p28
aS'indiv.randV()'
p29
asS'parent'
p30
g14
sS'data'
p31
g22
sS'left'
p32
Nsbsg20
(lp33
g22
ag23
ag24
ag25
ag26
ag27
ag28
ag29
asg30
g9
sg31
S'+'
sg32
(i__main__
Node
p34
(dp35
g11
(lp36
S'+'
aS'-'
aS'*'
aS'/'
asg13
Nsg20
(lp37
g22
ag23
ag24
ag25
ag26
ag27
ag28
ag29
asg30
g14
sg31
g25
sg32
Nsbsbsg20
(lp38
g22
ag23
ag24
ag25
ag26
ag27
ag28
ag29
asg30
Nsg31
S'+'
sg32
(i__main__
Node
p39
(dp40
g11
(lp41
S'+'
aS'-'
aS'*'
aS'/'
asg13
(i__main__
Node
p42
(dp43
g11
(lp44
S'+'
aS'-'
aS'*'
aS'/'
asg13
Nsg20
(lp45
g22
ag23
ag24
ag25
ag26
ag27
ag28
ag29
asg30
g39
sg31
g22
sg32
Nsbsg20
(lp46
g22
ag23
ag24
ag25
ag26
ag27
ag28
ag29
asg30
g9
sg31
S'+'
sg32
(i__main__
Node
p47
(dp48
g11
(lp49
S'+'
aS'-'
aS'*'
aS'/'
asg13
Nsg20
(lp50
g22
ag23
ag24
ag25
ag26
ag27
ag28
ag29
asg30
g39
sg31
g25
sg32
NsbsbsbsS'accel_x'
p51
F-0.32297938113141189
sS'accel_y'
p52
F1.362235045444868
sS'maxAccel'
p53
I2
sS'maxVel'
p54
F0.69999999999999996
sS'age'
p55
I50
sS'gener'
p56
S'm'
sS'lastScale'
p57
F13.599999999999998
sS'energy'
p58
F0.80999999999999983
sb.(i__main__
Data_mobile
p1
(dp2
S'vel_y'
p3
F0.68111929840343099
sS'vel_x'
p4
F-0.16148220131772334
sS'pos_x'
p5
F176.32717427914861
sS'pos_y'
p6
F-50.021458038272456
sS'isAlive'
p7
I01
sS'geno'
p8
(i__main__
Node
p9
(dp10
S'node'
p11
(lp12
S'+'
aS'-'
aS'*'
aS'/'
asS'right'
p13
(i__main__
Node
p14
(dp15
g11
(lp16
S'+'
aS'-'
aS'*'
aS'/'
asg13
(i__main__
Node
p17
(dp18
g11
(lp19
S'+'
aS'-'
aS'*'
aS'/'
asg13
NsS'leaf'
p20
(lp21
S'indiv.alignment()'
p22
aS'indiv.cohesion()'
p23
aS'indiv.separation()'
p24
aS'indiv.target()'
p25
aS'indiv.currentVelocity()'
p26
aS'indiv.centerOfWorld()'
p27
aS'indiv.mostEnergizedNeighbor()'
p28
aS'indiv.randV()'
p29
asS'parent'
p30
g14
sS'data'
p31
g22
sS'left'
p32
Nsbsg20
(lp33
g22
ag23
ag24
ag25
ag26
ag27
ag28
ag29
asg30
g9
sg31
S'+'
sg32
(i__main__
Node
p34
(dp35
g11
(lp36
S'+'
aS'-'
aS'*'
aS'/'
asg13
Nsg20
(lp37
g22
ag23
ag24
ag25
ag26
ag27
ag28
ag29
asg30
g14
sg31
g25
sg32
Nsbsbsg20
(lp38
g22
ag23
ag24
ag25
ag26
ag27
ag28
ag29
asg30
Nsg31
S'+'
sg32
(i__main__
Node
p39
(dp40
g11
(lp41
S'+'
aS'-'
aS'*'
aS'/'
asg13
(i__main__
Node
p42
(dp43
g11
(lp44
S'+'
aS'-'
aS'*'
aS'/'
asg13
Nsg20
(lp45
g22
ag23
ag24
ag25
ag26
ag27
ag28
ag29
asg30
g39
sg31
g22
sg32
Nsbsg20
(lp46
g22
ag23
ag24
ag25
ag26
ag27
ag28
ag29
asg30
g9
sg31
S'+'
sg32
(i__main__
Node
p47
(dp48
g11
(lp49
S'+'
aS'-'
aS'*'
aS'/'
asg13
Nsg20
(lp50
g22
ag23
ag24
ag25
ag26
ag27
ag28
ag29
asg30
g39
sg31
g25
sg32
NsbsbsbsS'accel_x'
p51
F-0.32298000567275598
sS'accel_y'
p52
F1.3622348973851757
sS'maxAccel'
p53
I2
sS'maxVel'
p54
F0.69999999999999996
sS'age'
p55
I50
sS'gener'
p56
S'm'
sS'lastScale'
p57
F13.599999999999998
sS'energy'
p58
F0.80999999999999983
sb.(i__main__
Data_mobile
p1
(dp2
S'vel_y'
p3
F-0.64846789145433481
sS'vel_x'
p4
F-0.26360840986730499
sS'pos_x'
p5
F33.657368286109744
sS'pos_y'
p6
F2.2911142316456692
sS'isAlive'
p7
I01
sS'geno'
p8
(i__main__
Node
p9
(dp10
S'node'
p11
(lp12
S'+'
aS'-'
aS'*'
aS'/'
asS'right'
p13
(i__main__
Node
p14
(dp15
g11
(lp16
S'+'
aS'-'
aS'*'
aS'/'
asg13
(i__main__
Node
p17
(dp18
g11
(lp19
S'+'
aS'-'
aS'*'
aS'/'
asg13
NsS'leaf'
p20
(lp21
S'indiv.alignment()'
p22
aS'indiv.cohesion()'
p23
aS'indiv.separation()'
p24
aS'indiv.target()'
p25
aS'indiv.currentVelocity()'
p26
aS'indiv.centerOfWorld()'
p27
aS'indiv.mostEnergizedNeighbor()'
p28
aS'indiv.randV()'
p29
asS'parent'
p30
g14
sS'data'
p31
g22
sS'left'
p32
Nsbsg20
(lp33
g22
ag23
ag24
ag25
ag26
ag27
ag28
ag29
asg30
g9
sg31
S'+'
sg32
(i__main__
Node
p34
(dp35
g11
(lp36
S'+'
aS'-'
aS'*'
aS'/'
asg13
Nsg20
(lp37
g22
ag23
ag24
ag25
ag26
ag27
ag28
ag29
asg30
g14
sg31
g25
sg32
Nsbsbsg20
(lp38
g22
ag23
ag24
ag25
ag26
ag27
ag28
ag29
asg30
Nsg31
S'+'
sg32
(i__main__
Node
p39
(dp40
g11
(lp41
S'+'
aS'-'
aS'*'
aS'/'
asg13
(i__main__
Node
p42
(dp43
g11
(lp44
S'+'
aS'-'
aS'*'
aS'/'
asg13
Nsg20
(lp45
g22
ag23
ag24
ag25
ag26
ag27
ag28
ag29
asg30
g39
sg31
g22
sg32
Nsbsg20
(lp46
g22
ag23
ag24
ag25
ag26
ag27
ag28
ag29
asg30
g9
sg31
S'+'
sg32
(i__main__
Node
p47
(dp48
g11
(lp49
S'+'
aS'-'
aS'*'
aS'/'
asg13
Nsg20
(lp50
g22
ag23
ag24
ag25
ag26
ag27
ag28
ag29
asg30
g39
sg31
g25
sg32
NsbsbsbsS'accel_x'
p51
F-1.9484570418114648
sS'accel_y'
p52
F-0.4511265412445995
sS'maxAccel'
p53
I2
sS'maxVel'
p54
F0.69999999999999996
sS'age'
p55
I150
sS'gener'
p56
S'm'
sS'lastScale'
p57
F15.4
sS'energy'
p58
F0.98999999999999999
sb.(i__main__
Data_mobile
p1
(dp2
S'vel_y'
p3
F0.68111958710597809
sS'vel_x'
p4
F-0.16148098352002227
sS'pos_x'
p5
F176.71111032415243
sS'pos_y'
p6
F-49.73437428233229
sS'isAlive'
p7
I01
sS'geno'
p8
(i__main__
Node
p9
(dp10
S'node'
p11
(lp12
S'+'
aS'-'
aS'*'
aS'/'
asS'right'
p13
(i__main__
Node
p14
(dp15
g11
(lp16
S'+'
aS'-'
aS'*'
aS'/'
asg13
(i__main__
Node
p17
(dp18
g11
(lp19
S'+'
aS'-'
aS'*'
aS'/'
asg13
NsS'leaf'
p20
(lp21
S'indiv.alignment()'
p22
aS'indiv.cohesion()'
p23
aS'indiv.separation()'
p24
aS'indiv.target()'
p25
aS'indiv.currentVelocity()'
p26
aS'indiv.centerOfWorld()'
p27
aS'indiv.mostEnergizedNeighbor()'
p28
aS'indiv.randV()'
p29
asS'parent'
p30
g14
sS'data'
p31
g22
sS'left'
p32
Nsbsg20
(lp33
g22
ag23
ag24
ag25
ag26
ag27
ag28
ag29
asg30
g9
sg31
S'+'
sg32
(i__main__
Node
p34
(dp35
g11
(lp36
S'+'
aS'-'
aS'*'
aS'/'
asg13
Nsg20
(lp37
g22
ag23
ag24
ag25
ag26
ag27
ag28
ag29
asg30
g14
sg31
g25
sg32
Nsbsbsg20
(lp38
g22
ag23
ag24
ag25
ag26
ag27
ag28
ag29
asg30
Nsg31
S'+'
sg32
(i__main__
Node
p39
(dp40
g11
(lp41
S'+'
aS'-'
aS'*'
aS'/'
asg13
(i__main__
Node
p42
(dp43
g11
(lp44
S'+'
aS'-'
aS'*'
aS'/'
asg13
Nsg20
(lp45
g22
ag23
ag24
ag25
ag26
ag27
ag28
ag29
asg30
g39
sg31
g22
sg32
Nsbsg20
(lp46
g22
ag23
ag24
ag25
ag26
ag27
ag28
ag29
asg30
g9
sg31
S'+'
sg32
(i__main__
Node
p47
(dp48
g11
(lp49
S'+'
aS'-'
aS'*'
aS'/'
asg13
Nsg20
(lp50
g22
ag23
ag24
ag25
ag26
ag27
ag28
ag29
asg30
g39
sg31
g25
sg32
NsbsbsbsS'accel_x'
p51
F0
sS'accel_y'
p52
F0
sS'maxAccel'
p53
I2
sS'maxVel'
p54
F0.69999999999999996
sS'age'
p55
I0
sS'gener'
p56
S'm'
sS'lastScale'
p57
F5.5
sS'energy'
p58
F0.5
sb.(i__main__
Data_mobile
p1
(dp2
S'vel_y'
p3
F0.68111816246127621
sS'vel_x'
p4
F-0.16148699255783522
sS'pos_x'
p5
F176.51996635407332
sS'pos_y'
p6
F-49.749611948118783
sS'isAlive'
p7
I01
sS'geno'
p8
(i__main__
Node
p9
(dp10
S'node'
p11
(lp12
S'+'
aS'-'
aS'*'
aS'/'
asS'right'
p13
(i__main__
Node
p14
(dp15
g11
(lp16
S'+'
aS'-'
aS'*'
aS'/'
asg13
(i__main__
Node
p17
(dp18
g11
(lp19
S'+'
aS'-'
aS'*'
aS'/'
asg13
NsS'leaf'
p20
(lp21
S'indiv.alignment()'
p22
aS'indiv.cohesion()'
p23
aS'indiv.separation()'
p24
aS'indiv.target()'
p25
aS'indiv.currentVelocity()'
p26
aS'indiv.centerOfWorld()'
p27
aS'indiv.mostEnergizedNeighbor()'
p28
aS'indiv.randV()'
p29
asS'parent'
p30
g14
sS'data'
p31
g22
sS'left'
p32
Nsbsg20
(lp33
g22
ag23
ag24
ag25
ag26
ag27
ag28
ag29
asg30
g9
sg31
S'+'
sg32
(i__main__
Node
p34
(dp35
g11
(lp36
S'+'
aS'-'
aS'*'
aS'/'
asg13
Nsg20
(lp37
g22
ag23
ag24
ag25
ag26
ag27
ag28
ag29
asg30
g14
sg31
g25
sg32
Nsbsbsg20
(lp38
g22
ag23
ag24
ag25
ag26
ag27
ag28
ag29
asg30
Nsg31
S'+'
sg32
(i__main__
Node
p39
(dp40
g11
(lp41
S'+'
aS'-'
aS'*'
aS'/'
asg13
(i__main__
Node
p42
(dp43
g11
(lp44
S'+'
aS'-'
aS'*'
aS'/'
asg13
Nsg20
(lp45
g22
ag23
ag24
ag25
ag26
ag27
ag28
ag29
asg30
g39
sg31
g22
sg32
Nsbsg20
(lp46
g22
ag23
ag24
ag25
ag26
ag27
ag28
ag29
asg30
g9
sg31
S'+'
sg32
(i__main__
Node
p47
(dp48
g11
(lp49
S'+'
aS'-'
aS'*'
aS'/'
asg13
Nsg20
(lp50
g22
ag23
ag24
ag25
ag26
ag27
ag28
ag29
asg30
g39
sg31
g25
sg32
NsbsbsbsS'accel_x'
p51
F-0.32298004984884643
sS'accel_y'
p52
F1.3622348869117804
sS'maxAccel'
p53
I2
sS'maxVel'
p54
F0.69999999999999996
sS'age'
p55
I100
sS'gener'
p56
S'm'
sS'lastScale'
p57
F13.699999999999999
sS'energy'
p58
F0.81999999999999984
sb.(i__main__
Data_mobile
p1
(dp2
S'vel_y'
p3
F0.68111796205236597
sS'vel_x'
p4
F-0.16148783783812226
sS'pos_x'
p5
F176.49735138276424
sS'pos_y'
p6
F-49.772106665931524
sS'isAlive'
p7
I01
sS'geno'
p8
(i__main__
Node
p9
(dp10
S'node'
p11
(lp12
S'+'
aS'-'
aS'*'
aS'/'
asS'right'
p13
(i__main__
Node
p14
(dp15
g11
(lp16
S'+'
aS'-'
aS'*'
aS'/'
asg13
(i__main__
Node
p17
(dp18
g11
(lp19
S'+'
aS'-'
aS'*'
aS'/'
asg13
NsS'leaf'
p20
(lp21
S'indiv.alignment()'
p22
aS'indiv.cohesion()'
p23
aS'indiv.separation()'
p24
aS'indiv.target()'
p25
aS'indiv.currentVelocity()'
p26
aS'indiv.centerOfWorld()'
p27
aS'indiv.mostEnergizedNeighbor()'
p28
aS'indiv.randV()'
p29
asS'parent'
p30
g14
sS'data'
p31
g22
sS'left'
p32
Nsbsg20
(lp33
g22
ag23
ag24
ag25
ag26
ag27
ag28
ag29
asg30
g9
sg31
S'+'
sg32
(i__main__
Node
p34
(dp35
g11
(lp36
S'+'
aS'-'
aS'*'
aS'/'
asg13
Nsg20
(lp37
g22
ag23
ag24
ag25
ag26
ag27
ag28
ag29
asg30
g14
sg31
g25
sg32
Nsbsbsg20
(lp38
g22
ag23
ag24
ag25
ag26
ag27
ag28
ag29
asg30
Nsg31
S'+'
sg32
(i__main__
Node
p39
(dp40
g11
(lp41
S'+'
aS'-'
aS'*'
aS'/'
asg13
(i__main__
Node
p42
(dp43
g11
(lp44
S'+'
aS'-'
aS'*'
aS'/'
asg13
Nsg20
(lp45
g22
ag23
ag24
ag25
ag26
ag27
ag28
ag29
asg30
g39
sg31
g22
sg32
Nsbsg20
(lp46
g22
ag23
ag24
ag25
ag26
ag27
ag28
ag29
asg30
g9
sg31
S'+'
sg32
(i__main__
Node
p47
(dp48
g11
(lp49
S'+'
aS'-'
aS'*'
aS'/'
asg13
Nsg20
(lp50
g22
ag23
ag24
ag25
ag26
ag27
ag28
ag29
asg30
g39
sg31
g25
sg32
NsbsbsbsS'accel_x'
p51
F-0.32298023179006669
sS'accel_y'
p52
F1.3622348437756657
sS'maxAccel'
p53
I2
sS'maxVel'
p54
F0.69999999999999996
sS'age'
p55
I50
sS'gener'
p56
S'm'
sS'lastScale'
p57
F13.699999999999999
sS'energy'
p58
F0.81999999999999984
sb.(i__main__
Data_mobile
p1
(dp2
S'vel_y'
p3
F0.34349955843989466
sS'vel_x'
p4
F-0.48161651635559072
sS'pos_x'
p5
F104.07376563085224
sS'pos_y'
p6
F-23.316144629124928
sS'isAlive'
p7
I01
sS'geno'
p8
(i__main__
Node
p9
(dp10
S'node'
p11
(lp12
S'+'
aS'-'
aS'*'
aS'/'
asS'right'
p13
(i__main__
Node
p14
(dp15
g11
(lp16
S'+'
aS'-'
aS'*'
aS'/'
asg13
(i__main__
Node
p17
(dp18
g11
(lp19
S'+'
aS'-'
aS'*'
aS'/'
asg13
NsS'leaf'
p20
(lp21
S'indiv.alignment()'
p22
aS'indiv.cohesion()'
p23
aS'indiv.separation()'
p24
aS'indiv.target()'
p25
aS'indiv.currentVelocity()'
p26
aS'indiv.centerOfWorld()'
p27
aS'indiv.mostEnergizedNeighbor()'
p28
aS'indiv.randV()'
p29
asS'parent'
p30
g14
sS'data'
p31
g22
sS'left'
p32
Nsbsg20
(lp33
g22
ag23
ag24
ag25
ag26
ag27
ag28
ag29
asg30
g9
sg31
S'+'
sg32
(i__main__
Node
p34
(dp35
g11
(lp36
S'+'
aS'-'
aS'*'
aS'/'
asg13
Nsg20
(lp37
g22
ag23
ag24
ag25
ag26
ag27
ag28
ag29
asg30
g14
sg31
g25
sg32
Nsbsbsg20
(lp38
g22
ag23
ag24
ag25
ag26
ag27
ag28
ag29
asg30
Nsg31
S'+'
sg32
(i__main__
Node
p39
(dp40
g11
(lp41
S'+'
aS'-'
aS'*'
aS'/'
asg13
(i__main__
Node
p42
(dp43
g11
(lp44
S'+'
aS'-'
aS'*'
aS'/'
asg13
Nsg20
(lp45
g22
ag23
ag24
ag25
ag26
ag27
ag28
ag29
asg30
g39
sg31
g22
sg32
Nsbsg20
(lp46
g22
ag23
ag24
ag25
ag26
ag27
ag28
ag29
asg30
g9
sg31
S'+'
sg32
(i__main__
Node
p47
(dp48
g11
(lp49
S'+'
aS'-'
aS'*'
aS'/'
asg13
Nsg20
(lp50
g22
ag23
ag24
ag25
ag26
ag27
ag28
ag29
asg30
g39
sg31
g25
sg32
NsbsbsbsS'accel_x'
p51
F0
sS'accel_y'
p52
F0
sS'maxAccel'
p53
I2
sS'maxVel'
p54
F0.69999999999999996
sS'age'
p55
I0
sS'gener'
p56
S'm'
sS'lastScale'
p57
F5.5
sS'energy'
p58
F0.5
sb.(i__main__
Data_mobile
p1
(dp2
S'vel_y'
p3
F-0.11791367931942642
sS'vel_x'
p4
F-0.22286028641921557
sS'pos_x'
p5
F147.43331002043939
sS'pos_y'
p6
F-39.039956344947576
sS'isAlive'
p7
I01
sS'geno'
p8
(i__main__
Node
p9
(dp10
S'node'
p11
(lp12
S'+'
aS'-'
aS'*'
aS'/'
asS'right'
p13
(i__main__
Node
p14
(dp15
g11
(lp16
S'+'
aS'-'
aS'*'
aS'/'
asg13
(i__main__
Node
p17
(dp18
g11
(lp19
S'+'
aS'-'
aS'*'
aS'/'
asg13
NsS'leaf'
p20
(lp21
S'indiv.alignment()'
p22
aS'indiv.cohesion()'
p23
aS'indiv.separation()'
p24
aS'indiv.target()'
p25
aS'indiv.currentVelocity()'
p26
aS'indiv.centerOfWorld()'
p27
aS'indiv.mostEnergizedNeighbor()'
p28
aS'indiv.randV()'
p29
asS'parent'
p30
g14
sS'data'
p31
g22
sS'left'
p32
Nsbsg20
(lp33
g22
ag23
ag24
ag25
ag26
ag27
ag28
ag29
asg30
g9
sg31
S'+'
sg32
(i__main__
Node
p34
(dp35
g11
(lp36
S'+'
aS'-'
aS'*'
aS'/'
asg13
Nsg20
(lp37
g22
ag23
ag24
ag25
ag26
ag27
ag28
ag29
asg30
g14
sg31
g25
sg32
Nsbsbsg20
(lp38
g22
ag23
ag24
ag25
ag26
ag27
ag28
ag29
asg30
Nsg31
S'+'
sg32
(i__main__
Node
p39
(dp40
g11
(lp41
S'+'
aS'-'
aS'*'
aS'/'
asg13
(i__main__
Node
p42
(dp43
g11
(lp44
S'+'
aS'-'
aS'*'
aS'/'
asg13
Nsg20
(lp45
g22
ag23
ag24
ag25
ag26
ag27
ag28
ag29
asg30
g39
sg31
g22
sg32
Nsbsg20
(lp46
g22
ag23
ag24
ag25
ag26
ag27
ag28
ag29
asg30
g9
sg31
S'+'
sg32
(i__main__
Node
p47
(dp48
g11
(lp49
S'+'
aS'-'
aS'*'
aS'/'
asg13
Nsg20
(lp50
g22
ag23
ag24
ag25
ag26
ag27
ag28
ag29
asg30
g39
sg31
g25
sg32
NsbsbsbsS'accel_x'
p51
F0
sS'accel_y'
p52
F0
sS'maxAccel'
p53
I2
sS'maxVel'
p54
F0.69999999999999996
sS'age'
p55
I0
sS'gener'
p56
S'm'
sS'lastScale'
p57
F5.5
sS'energy'
p58
F0.5
sb.(i__main__
Data_mobile
p1
(dp2
S'vel_y'
p3
F-0.64062894359186628
sS'vel_x'
p4
F-0.28212507267587794
sS'pos_x'
p5
F33.648756570113832
sS'pos_y'
p6
F2.3034701646161193
sS'isAlive'
p7
I01
sS'geno'
p8
(i__main__
Node
p9
(dp10
S'node'
p11
(lp12
S'+'
aS'-'
aS'*'
aS'/'
asS'right'
p13
(i__main__
Node
p14
(dp15
g11
(lp16
S'+'
aS'-'
aS'*'
aS'/'
asg13
(i__main__
Node
p17
(dp18
g11
(lp19
S'+'
aS'-'
aS'*'
aS'/'
asg13
NsS'leaf'
p20
(lp21
S'indiv.alignment()'
p22
aS'indiv.cohesion()'
p23
aS'indiv.separation()'
p24
aS'indiv.target()'
p25
aS'indiv.currentVelocity()'
p26
aS'indiv.centerOfWorld()'
p27
aS'indiv.mostEnergizedNeighbor()'
p28
aS'indiv.randV()'
p29
asS'parent'
p30
g14
sS'data'
p31
g22
sS'left'
p32
Nsbsg20
(lp33
g22
ag23
ag24
ag25
ag26
ag27
ag28
ag29
asg30
g9
sg31
S'+'
sg32
(i__main__
Node
p34
(dp35
g11
(lp36
S'+'
aS'-'
aS'*'
aS'/'
asg13
Nsg20
(lp37
g22
ag23
ag24
ag25
ag26
ag27
ag28
ag29
asg30
g14
sg31
g25
sg32
Nsbsbsg20
(lp38
g22
ag23
ag24
ag25
ag26
ag27
ag28
ag29
asg30
Nsg31
S'+'
sg32
(i__main__
Node
p39
(dp40
g11
(lp41
S'+'
aS'-'
aS'*'
aS'/'
asg13
(i__main__
Node
p42
(dp43
g11
(lp44
S'+'
aS'-'
aS'*'
aS'/'
asg13
Nsg20
(lp45
g22
ag23
ag24
ag25
ag26
ag27
ag28
ag29
asg30
g39
sg31
g22
sg32
Nsbsg20
(lp46
g22
ag23
ag24
ag25
ag26
ag27
ag28
ag29
asg30
g9
sg31
S'+'
sg32
(i__main__
Node
p47
(dp48
g11
(lp49
S'+'
aS'-'
aS'*'
aS'/'
asg13
Nsg20
(lp50
g22
ag23
ag24
ag25
ag26
ag27
ag28
ag29
asg30
g39
sg31
g25
sg32
NsbsbsbsS'accel_x'
p51
F-1.8513263241349531
sS'accel_y'
p52
F-0.75669732493577813
sS'maxAccel'
p53
I2
sS'maxVel'
p54
F0.69999999999999996
sS'age'
p55
I200
sS'gener'
p56
S'm'
sS'lastScale'
p57
F15.4
sS'energy'
p58
F0.98999999999999999
sb.(i__main__
Data_mobile
p1
(dp2
S'vel_y'
p3
F-0.064781639768727139
sS'vel_x'
p4
F0.66764368283606379
sS'pos_x'
p5
F71.431146417778749
sS'pos_y'
p6
F-54.19509329429065
sS'isAlive'
p7
I01
sS'geno'
p8
(i__main__
Node
p9
(dp10
S'node'
p11
(lp12
S'+'
aS'-'
aS'*'
aS'/'
asS'right'
p13
(i__main__
Node
p14
(dp15
g11
(lp16
S'+'
aS'-'
aS'*'
aS'/'
asg13
(i__main__
Node
p17
(dp18
g11
(lp19
S'+'
aS'-'
aS'*'
aS'/'
asg13
NsS'leaf'
p20
(lp21
S'indiv.alignment()'
p22
aS'indiv.cohesion()'
p23
aS'indiv.separation()'
p24
aS'indiv.target()'
p25
aS'indiv.currentVelocity()'
p26
aS'indiv.centerOfWorld()'
p27
aS'indiv.mostEnergizedNeighbor()'
p28
aS'indiv.randV()'
p29
asS'parent'
p30
g14
sS'data'
p31
g22
sS'left'
p32
Nsbsg20
(lp33
g22
ag23
ag24
ag25
ag26
ag27
ag28
ag29
asg30
g9
sg31
S'+'
sg32
(i__main__
Node
p34
(dp35
g11
(lp36
S'+'
aS'-'
aS'*'
aS'/'
asg13
Nsg20
(lp37
g22
ag23
ag24
ag25
ag26
ag27
ag28
ag29
asg30
g14
sg31
g25
sg32
Nsbsbsg20
(lp38
g22
ag23
ag24
ag25
ag26
ag27
ag28
ag29
asg30
Nsg31
S'+'
sg32
(i__main__
Node
p39
(dp40
g11
(lp41
S'+'
aS'-'
aS'*'
aS'/'
asg13
(i__main__
Node
p42
(dp43
g11
(lp44
S'+'
aS'-'
aS'*'
aS'/'
asg13
Nsg20
(lp45
g22
ag23
ag24
ag25
ag26
ag27
ag28
ag29
asg30
g39
sg31
g22
sg32
Nsbsg20
(lp46
g22
ag23
ag24
ag25
ag26
ag27
ag28
ag29
asg30
g9
sg31
S'+'
sg32
(i__main__
Node
p47
(dp48
g11
(lp49
S'+'
aS'-'
aS'*'
aS'/'
asg13
Nsg20
(lp50
g22
ag23
ag24
ag25
ag26
ag27
ag28
ag29
asg30
g39
sg31
g25
sg32
NsbsbsbsS'accel_x'
p51
F0
sS'accel_y'
p52
F0
sS'maxAccel'
p53
I2
sS'maxVel'
p54
F0.69999999999999996
sS'age'
p55
I0
sS'gener'
p56
S'm'
sS'lastScale'
p57
F5.5
sS'energy'
p58
F0.5
sb.(i__main__
Data_mobile
p1
(dp2
S'vel_y'
p3
F0.68111767169152415
sS'vel_x'
p4
F-0.16148906250739398
sS'pos_x'
p5
F176.50482306909512
sS'pos_y'
p6
F-49.7501223784421
sS'isAlive'
p7
I01
sS'geno'
p8
(i__main__
Node
p9
(dp10
S'node'
p11
(lp12
S'+'
aS'-'
aS'*'
aS'/'
asS'right'
p13
(i__main__
Node
p14
(dp15
g11
(lp16
S'+'
aS'-'
aS'*'
aS'/'
asg13
(i__main__
Node
p17
(dp18
g11
(lp19
S'+'
aS'-'
aS'*'
aS'/'
asg13
NsS'leaf'
p20
(lp21
S'indiv.alignment()'
p22
aS'indiv.cohesion()'
p23
aS'indiv.separation()'
p24
aS'indiv.target()'
p25
aS'indiv.currentVelocity()'
p26
aS'indiv.centerOfWorld()'
p27
aS'indiv.mostEnergizedNeighbor()'
p28
aS'indiv.randV()'
p29
asS'parent'
p30
g14
sS'data'
p31
g22
sS'left'
p32
Nsbsg20
(lp33
g22
ag23
ag24
ag25
ag26
ag27
ag28
ag29
asg30
g9
sg31
S'+'
sg32
(i__main__
Node
p34
(dp35
g11
(lp36
S'+'
aS'-'
aS'*'
aS'/'
asg13
Nsg20
(lp37
g22
ag23
ag24
ag25
ag26
ag27
ag28
ag29
asg30
g14
sg31
g25
sg32
Nsbsbsg20
(lp38
g22
ag23
ag24
ag25
ag26
ag27
ag28
ag29
asg30
Nsg31
S'+'
sg32
(i__main__
Node
p39
(dp40
g11
(lp41
S'+'
aS'-'
aS'*'
aS'/'
asg13
(i__main__
Node
p42
(dp43
g11
(lp44
S'+'
aS'-'
aS'*'
aS'/'
asg13
Nsg20
(lp45
g22
ag23
ag24
ag25
ag26
ag27
ag28
ag29
asg30
g39
sg31
g22
sg32
Nsbsg20
(lp46
g22
ag23
ag24
ag25
ag26
ag27
ag28
ag29
asg30
g9
sg31
S'+'
sg32
(i__main__
Node
p47
(dp48
g11
(lp49
S'+'
aS'-'
aS'*'
aS'/'
asg13
Nsg20
(lp50
g22
ag23
ag24
ag25
ag26
ag27
ag28
ag29
asg30
g39
sg31
g25
sg32
NsbsbsbsS'accel_x'
p51
F-0.32298028249504118
sS'accel_y'
p52
F1.3622348317539459
sS'maxAccel'
p53
I2
sS'maxVel'
p54
F0.69999999999999996
sS'age'
p55
I150
sS'gener'
p56
S'm'
sS'lastScale'
p57
F13.699999999999999
sS'energy'
p58
F0.81999999999999984
sb.(i__main__
Data_mobile
p1
(dp2
S'vel_y'
p3
F0.68111744493223791
sS'vel_x'
p4
F-0.16149001891442083
sS'pos_x'
p5
F176.50443441627684
sS'pos_y'
p6
F-49.73941860065522
sS'isAlive'
p7
I01
sS'geno'
p8
(i__main__
Node
p9
(dp10
S'node'
p11
(lp12
S'+'
aS'-'
aS'*'
aS'/'
asS'right'
p13
(i__main__
Node
p14
(dp15
g11
(lp16
S'+'
aS'-'
aS'*'
aS'/'
asg13
(i__main__
Node
p17
(dp18
g11
(lp19
S'+'
aS'-'
aS'*'
aS'/'
asg13
NsS'leaf'
p20
(lp21
S'indiv.alignment()'
p22
aS'indiv.cohesion()'
p23
aS'indiv.separation()'
p24
aS'indiv.target()'
p25
aS'indiv.currentVelocity()'
p26
aS'indiv.centerOfWorld()'
p27
aS'indiv.mostEnergizedNeighbor()'
p28
aS'indiv.randV()'
p29
asS'parent'
p30
g14
sS'data'
p31
g22
sS'left'
p32
Nsbsg20
(lp33
g22
ag23
ag24
ag25
ag26
ag27
ag28
ag29
asg30
g9
sg31
S'+'
sg32
(i__main__
Node
p34
(dp35
g11
(lp36
S'+'
aS'-'
aS'*'
aS'/'
asg13
Nsg20
(lp37
g22
ag23
ag24
ag25
ag26
ag27
ag28
ag29
asg30
g14
sg31
g25
sg32
Nsbsbsg20
(lp38
g22
ag23
ag24
ag25
ag26
ag27
ag28
ag29
asg30
Nsg31
S'+'
sg32
(i__main__
Node
p39
(dp40
g11
(lp41
S'+'
aS'-'
aS'*'
aS'/'
asg13
(i__main__
Node
p42
(dp43
g11
(lp44
S'+'
aS'-'
aS'*'
aS'/'
asg13
Nsg20
(lp45
g22
ag23
ag24
ag25
ag26
ag27
ag28
ag29
asg30
g39
sg31
g22
sg32
Nsbsg20
(lp46
g22
ag23
ag24
ag25
ag26
ag27
ag28
ag29
asg30
g9
sg31
S'+'
sg32
(i__main__
Node
p47
(dp48
g11
(lp49
S'+'
aS'-'
aS'*'
aS'/'
asg13
Nsg20
(lp50
g22
ag23
ag24
ag25
ag26
ag27
ag28
ag29
asg30
g39
sg31
g25
sg32
NsbsbsbsS'accel_x'
p51
F-0.32298025418653131
sS'accel_y'
p52
F1.3622348384657423
sS'maxAccel'
p53
I2
sS'maxVel'
p54
F0.69999999999999996
sS'age'
p55
I100
sS'gener'
p56
S'm'
sS'lastScale'
p57
F13.699999999999999
sS'energy'
p58
F0.81999999999999984
sb.(i__main__
Data_mobile
p1
(dp2
S'vel_y'
p3
F-0.0043108238979544088
sS'vel_x'
p4
F0.6999867261579471
sS'pos_x'
p5
F28.886362864107245
sS'pos_y'
p6
F0.52541356595413213
sS'isAlive'
p7
I01
sS'geno'
p8
(i__main__
Node
p9
(dp10
S'node'
p11
(lp12
S'+'
aS'-'
aS'*'
aS'/'
asS'right'
p13
(i__main__
Node
p14
(dp15
g11
(lp16
S'+'
aS'-'
aS'*'
aS'/'
asg13
(i__main__
Node
p17
(dp18
g11
(lp19
S'+'
aS'-'
aS'*'
aS'/'
asg13
(i__main__
Node
p20
(dp21
g11
(lp22
S'+'
aS'-'
aS'*'
aS'/'
asg13
(i__main__
Node
p23
(dp24
g11
(lp25
S'+'
aS'-'
aS'*'
aS'/'
asg13
NsS'leaf'
p26
(lp27
S'indiv.alignment()'
p28
aS'indiv.cohesion()'
p29
aS'indiv.separation()'
p30
aS'indiv.target()'
p31
aS'indiv.currentVelocity()'
p32
aS'indiv.centerOfWorld()'
p33
aS'indiv.mostEnergizedNeighbor()'
p34
aS'indiv.randV()'
p35
asS'parent'
p36
g20
sS'data'
p37
g34
sS'left'
p38
Nsbsg26
(lp39
g28
ag29
ag30
ag31
ag32
ag33
ag34
ag35
asg36
g17
sg37
S'/'
sg38
(i__main__
Node
p40
(dp41
g11
(lp42
S'+'
aS'-'
aS'*'
aS'/'
asg13
Nsg26
(lp43
g28
ag29
ag30
ag31
ag32
ag33
ag34
ag35
asg36
g20
sg37
g28
sg38
Nsbsbsg26
(lp44
g28
ag29
ag30
ag31
ag32
ag33
ag34
ag35
asg36
g14
sg37
S'/'
sg38
(i__main__
Node
p45
(dp46
g11
(lp47
S'+'
aS'-'
aS'*'
aS'/'
asg13
(i__main__
Node
p48
(dp49
g11
(lp50
S'+'
aS'-'
aS'*'
aS'/'
asg13
Nsg26
(lp51
g28
ag29
ag30
ag31
ag32
ag33
ag34
ag35
asg36
g45
sg37
g28
sg38
Nsbsg26
(lp52
g28
ag29
ag30
ag31
ag32
ag33
ag34
ag35
asg36
g17
sg37
S'-'
sg38
(i__main__
Node
p53
(dp54
g11
(lp55
S'+'
aS'-'
aS'*'
aS'/'
asg13
Nsg26
(lp56
g28
ag29
ag30
ag31
ag32
ag33
ag34
ag35
asg36
g45
sg37
g32
sg38
Nsbsbsbsg26
(lp57
g28
ag29
ag30
ag31
ag32
ag33
ag34
ag35
asg36
g9
sg37
S'/'
sg38
(i__main__
Node
p58
(dp59
g11
(lp60
S'+'
aS'-'
aS'*'
aS'/'
asg13
(i__main__
Node
p61
(dp62
g11
(lp63
S'+'
aS'-'
aS'*'
aS'/'
asg13
(i__main__
Node
p64
(dp65
g11
(lp66
S'+'
aS'-'
aS'*'
aS'/'
asg13
Nsg26
(lp67
g28
ag29
ag30
ag31
ag32
ag33
ag34
ag35
asg36
g61
sg37
g29
sg38
Nsbsg26
(lp68
g28
ag29
ag30
ag31
ag32
ag33
ag34
ag35
asg36
g58
sg37
S'-'
sg38
(i__main__
Node
p69
(dp70
g11
(lp71
S'+'
aS'-'
aS'*'
aS'/'
asg13
Nsg26
(lp72
g28
ag29
ag30
ag31
ag32
ag33
ag34
ag35
asg36
g61
sg37
g31
sg38
Nsbsbsg26
(lp73
g28
ag29
ag30
ag31
ag32
ag33
ag34
ag35
asg36
g14
sg37
S'*'
sg38
(i__main__
Node
p74
(dp75
g11
(lp76
S'+'
aS'-'
aS'*'
aS'/'
asg13
(i__main__
Node
p77
(dp78
g11
(lp79
S'+'
aS'-'
aS'*'
aS'/'
asg13
(i__main__
Node
p80
(dp81
g11
(lp82
S'+'
aS'-'
aS'*'
aS'/'
asg13
Nsg26
(lp83
g28
ag29
ag30
ag31
ag32
ag33
ag34
ag35
asg36
g77
sg37
g29
sg38
Nsbsg26
(lp84
g28
ag29
ag30
ag31
ag32
ag33
ag34
ag35
asg36
g74
sg37
S'-'
sg38
(i__main__
Node
p85
(dp86
g11
(lp87
S'+'
aS'-'
aS'*'
aS'/'
asg13
Nsg26
(lp88
g28
ag29
ag30
ag31
ag32
ag33
ag34
ag35
asg36
g77
sg37
g31
sg38
Nsbsbsg26
(lp89
g28
ag29
ag30
ag31
ag32
ag33
ag34
ag35
asg36
g58
sg37
S'*'
sg38
(i__main__
Node
p90
(dp91
g11
(lp92
S'+'
aS'-'
aS'*'
aS'/'
asg13
(i__main__
Node
p93
(dp94
g11
(lp95
S'+'
aS'-'
aS'*'
aS'/'
asg13
Nsg26
(lp96
g28
ag29
ag30
ag31
ag32
ag33
ag34
ag35
asg36
g90
sg37
g28
sg38
Nsbsg26
(lp97
g28
ag29
ag30
ag31
ag32
ag33
ag34
ag35
asg36
g74
sg37
S'*'
sg38
(i__main__
Node
p98
(dp99
g11
(lp100
S'+'
aS'-'
aS'*'
aS'/'
asg13
Nsg26
(lp101
g28
ag29
ag30
ag31
ag32
ag33
ag34
ag35
asg36
g90
sg37
g35
sg38
Nsbsbsbsbsbsg26
(lp102
g28
ag29
ag30
ag31
ag32
ag33
ag34
ag35
asg36
Nsg37
S'+'
sg38
(i__main__
Node
p103
(dp104
g11
(lp105
S'+'
aS'-'
aS'*'
aS'/'
asg13
(i__main__
Node
p106
(dp107
g11
(lp108
S'+'
aS'-'
aS'*'
aS'/'
asg13
Nsg26
(lp109
g28
ag29
ag30
ag31
ag32
ag33
ag34
ag35
asg36
g103
sg37
g29
sg38
Nsbsg26
(lp110
g28
ag29
ag30
ag31
ag32
ag33
ag34
ag35
asg36
g9
sg37
S'-'
sg38
(i__main__
Node
p111
(dp112
g11
(lp113
S'+'
aS'-'
aS'*'
aS'/'
asg13
Nsg26
(lp114
g28
ag29
ag30
ag31
ag32
ag33
ag34
ag35
asg36
g103
sg37
g31
sg38
NsbsbsbsS'accel_x'
p115
F0
sS'accel_y'
p116
F0
sS'maxAccel'
p117
I2
sS'maxVel'
p118
F0.69999999999999996
sS'age'
p119
I0
sS'gener'
p120
S'm'
sS'lastScale'
p121
F5.5
sS'energy'
p122
F0.5
sb.(i__main__
Data_mobile
p1
(dp2
S'vel_y'
p3
F-0.088801619692601752
sS'vel_x'
p4
F0.69434449111371976
sS'pos_x'
p5
F9.8715012407100513
sS'pos_y'
p6
F-56.605887043477509
sS'isAlive'
p7
I01
sS'geno'
p8
(i__main__
Node
p9
(dp10
S'node'
p11
(lp12
S'+'
aS'-'
aS'*'
aS'/'
asS'right'
p13
(i__main__
Node
p14
(dp15
g11
(lp16
S'+'
aS'-'
aS'*'
aS'/'
asg13
(i__main__
Node
p17
(dp18
g11
(lp19
S'+'
aS'-'
aS'*'
aS'/'
asg13
(i__main__
Node
p20
(dp21
g11
(lp22
S'+'
aS'-'
aS'*'
aS'/'
asg13
(i__main__
Node
p23
(dp24
g11
(lp25
S'+'
aS'-'
aS'*'
aS'/'
asg13
NsS'leaf'
p26
(lp27
S'indiv.alignment()'
p28
aS'indiv.cohesion()'
p29
aS'indiv.separation()'
p30
aS'indiv.target()'
p31
aS'indiv.currentVelocity()'
p32
aS'indiv.centerOfWorld()'
p33
aS'indiv.mostEnergizedNeighbor()'
p34
aS'indiv.randV()'
p35
asS'parent'
p36
g20
sS'data'
p37
g28
sS'left'
p38
Nsbsg26
(lp39
g28
ag29
ag30
ag31
ag32
ag33
ag34
ag35
asg36
g17
sg37
S'*'
sg38
(i__main__
Node
p40
(dp41
g11
(lp42
S'+'
aS'-'
aS'*'
aS'/'
asg13
Nsg26
(lp43
g28
ag29
ag30
ag31
ag32
ag33
ag34
ag35
asg36
g20
sg37
g33
sg38
Nsbsbsg26
(lp44
g28
ag29
ag30
ag31
ag32
ag33
ag34
ag35
asg36
g14
sg37
S'+'
sg38
(i__main__
Node
p45
(dp46
g11
(lp47
S'+'
aS'-'
aS'*'
aS'/'
asg13
(i__main__
Node
p48
(dp49
g11
(lp50
S'+'
aS'-'
aS'*'
aS'/'
asg13
Nsg26
(lp51
g28
ag29
ag30
ag31
ag32
ag33
ag34
ag35
asg36
g45
sg37
g28
sg38
Nsbsg26
(lp52
g28
ag29
ag30
ag31
ag32
ag33
ag34
ag35
asg36
g17
sg37
S'+'
sg38
(i__main__
Node
p53
(dp54
g11
(lp55
S'+'
aS'-'
aS'*'
aS'/'
asg13
Nsg26
(lp56
g28
ag29
ag30
ag31
ag32
ag33
ag34
ag35
asg36
g45
sg37
g31
sg38
Nsbsbsbsg26
(lp57
g28
ag29
ag30
ag31
ag32
ag33
ag34
ag35
asg36
g9
sg37
S'/'
sg38
(i__main__
Node
p58
(dp59
g11
(lp60
S'+'
aS'-'
aS'*'
aS'/'
asg13
(i__main__
Node
p61
(dp62
g11
(lp63
S'+'
aS'-'
aS'*'
aS'/'
asg13
Nsg26
(lp64
g28
ag29
ag30
ag31
ag32
ag33
ag34
ag35
asg36
g58
sg37
g28
sg38
Nsbsg26
(lp65
g28
ag29
ag30
ag31
ag32
ag33
ag34
ag35
asg36
g14
sg37
S'+'
sg38
(i__main__
Node
p66
(dp67
g11
(lp68
S'+'
aS'-'
aS'*'
aS'/'
asg13
Nsg26
(lp69
g28
ag29
ag30
ag31
ag32
ag33
ag34
ag35
asg36
g58
sg37
g31
sg38
Nsbsbsbsg26
(lp70
g28
ag29
ag30
ag31
ag32
ag33
ag34
ag35
asg36
Nsg37
S'+'
sg38
(i__main__
Node
p71
(dp72
g11
(lp73
S'+'
aS'-'
aS'*'
aS'/'
asg13
(i__main__
Node
p74
(dp75
g11
(lp76
S'+'
aS'-'
aS'*'
aS'/'
asg13
Nsg26
(lp77
g28
ag29
ag30
ag31
ag32
ag33
ag34
ag35
asg36
g71
sg37
g28
sg38
Nsbsg26
(lp78
g28
ag29
ag30
ag31
ag32
ag33
ag34
ag35
asg36
g9
sg37
S'+'
sg38
(i__main__
Node
p79
(dp80
g11
(lp81
S'+'
aS'-'
aS'*'
aS'/'
asg13
Nsg26
(lp82
g28
ag29
ag30
ag31
ag32
ag33
ag34
ag35
asg36
g71
sg37
g31
sg38
NsbsbsbsS'accel_x'
p83
F0.24909474348040028
sS'accel_y'
p84
F-0.54639450018883906
sS'maxAccel'
p85
I2
sS'maxVel'
p86
F0.69999999999999996
sS'age'
p87
I150
sS'gener'
p88
S'm'
sS'lastScale'
p89
F15.4
sS'energy'
p90
F0.98999999999999999
sb.(i__main__
Data_mobile
p1
(dp2
S'vel_y'
p3
F0.68111724501619209
sS'vel_x'
p4
F-0.1614908620992303
sS'pos_x'
p5
F176.50460555797466
sS'pos_y'
p6
F-49.72783946969232
sS'isAlive'
p7
I01
sS'geno'
p8
(i__main__
Node
p9
(dp10
S'node'
p11
(lp12
S'+'
aS'-'
aS'*'
aS'/'
asS'right'
p13
(i__main__
Node
p14
(dp15
g11
(lp16
S'+'
aS'-'
aS'*'
aS'/'
asg13
(i__main__
Node
p17
(dp18
g11
(lp19
S'+'
aS'-'
aS'*'
aS'/'
asg13
NsS'leaf'
p20
(lp21
S'indiv.alignment()'
p22
aS'indiv.cohesion()'
p23
aS'indiv.separation()'
p24
aS'indiv.target()'
p25
aS'indiv.currentVelocity()'
p26
aS'indiv.centerOfWorld()'
p27
aS'indiv.mostEnergizedNeighbor()'
p28
aS'indiv.randV()'
p29
asS'parent'
p30
g14
sS'data'
p31
g22
sS'left'
p32
Nsbsg20
(lp33
g22
ag23
ag24
ag25
ag26
ag27
ag28
ag29
asg30
g9
sg31
S'+'
sg32
(i__main__
Node
p34
(dp35
g11
(lp36
S'+'
aS'-'
aS'*'
aS'/'
asg13
Nsg20
(lp37
g22
ag23
ag24
ag25
ag26
ag27
ag28
ag29
asg30
g14
sg31
g25
sg32
Nsbsbsg20
(lp38
g22
ag23
ag24
ag25
ag26
ag27
ag28
ag29
asg30
Nsg31
S'+'
sg32
(i__main__
Node
p39
(dp40
g11
(lp41
S'+'
aS'-'
aS'*'
aS'/'
asg13
(i__main__
Node
p42
(dp43
g11
(lp44
S'+'
aS'-'
aS'*'
aS'/'
asg13
Nsg20
(lp45
g22
ag23
ag24
ag25
ag26
ag27
ag28
ag29
asg30
g39
sg31
g22
sg32
Nsbsg20
(lp46
g22
ag23
ag24
ag25
ag26
ag27
ag28
ag29
asg30
g9
sg31
S'+'
sg32
(i__main__
Node
p47
(dp48
g11
(lp49
S'+'
aS'-'
aS'*'
aS'/'
asg13
Nsg20
(lp50
g22
ag23
ag24
ag25
ag26
ag27
ag28
ag29
asg30
g39
sg31
g25
sg32
NsbsbsbsS'accel_x'
p51
F-0.32298014205595066
sS'accel_y'
p52
F1.3622348650516163
sS'maxAccel'
p53
I2
sS'maxVel'
p54
F0.69999999999999996
sS'age'
p55
I100
sS'gener'
p56
S'm'
sS'lastScale'
p57
F13.699999999999999
sS'energy'
p58
F0.81999999999999984
sb.(i__main__
Data_mobile
p1
(dp2
S'vel_y'
p3
F0.68111595266764402
sS'vel_x'
p4
F-0.16149631271842582
sS'pos_x'
p5
F176.92294783131146
sS'pos_y'
p6
F-48.672729977319527
sS'isAlive'
p7
I01
sS'geno'
p8
(i__main__
Node
p9
(dp10
S'node'
p11
(lp12
S'+'
aS'-'
aS'*'
aS'/'
asS'right'
p13
(i__main__
Node
p14
(dp15
g11
(lp16
S'+'
aS'-'
aS'*'
aS'/'
asg13
(i__main__
Node
p17
(dp18
g11
(lp19
S'+'
aS'-'
aS'*'
aS'/'
asg13
NsS'leaf'
p20
(lp21
S'indiv.alignment()'
p22
aS'indiv.cohesion()'
p23
aS'indiv.separation()'
p24
aS'indiv.target()'
p25
aS'indiv.currentVelocity()'
p26
aS'indiv.centerOfWorld()'
p27
aS'indiv.mostEnergizedNeighbor()'
p28
aS'indiv.randV()'
p29
asS'parent'
p30
g14
sS'data'
p31
g22
sS'left'
p32
Nsbsg20
(lp33
g22
ag23
ag24
ag25
ag26
ag27
ag28
ag29
asg30
g9
sg31
S'+'
sg32
(i__main__
Node
p34
(dp35
g11
(lp36
S'+'
aS'-'
aS'*'
aS'/'
asg13
Nsg20
(lp37
g22
ag23
ag24
ag25
ag26
ag27
ag28
ag29
asg30
g14
sg31
g25
sg32
Nsbsbsg20
(lp38
g22
ag23
ag24
ag25
ag26
ag27
ag28
ag29
asg30
Nsg31
S'+'
sg32
(i__main__
Node
p39
(dp40
g11
(lp41
S'+'
aS'-'
aS'*'
aS'/'
asg13
(i__main__
Node
p42
(dp43
g11
(lp44
S'+'
aS'-'
aS'*'
aS'/'
asg13
Nsg20
(lp45
g22
ag23
ag24
ag25
ag26
ag27
ag28
ag29
asg30
g39
sg31
g22
sg32
Nsbsg20
(lp46
g22
ag23
ag24
ag25
ag26
ag27
ag28
ag29
asg30
g9
sg31
S'+'
sg32
(i__main__
Node
p47
(dp48
g11
(lp49
S'+'
aS'-'
aS'*'
aS'/'
asg13
Nsg20
(lp50
g22
ag23
ag24
ag25
ag26
ag27
ag28
ag29
asg30
g39
sg31
g25
sg32
NsbsbsbsS'accel_x'
p51
F-0.32297908130185632
sS'accel_y'
p52
F1.3622351165706887
sS'maxAccel'
p53
I2
sS'maxVel'
p54
F0.69999999999999996
sS'age'
p55
I50
sS'gener'
p56
S'm'
sS'lastScale'
p57
F13.699999999999999
sS'energy'
p58
F0.81999999999999984
sb.(i__main__
Data_mobile
p1
(dp2
S'vel_y'
p3
F0.68111799227822312
sS'vel_x'
p4
F-0.16148771035246695
sS'pos_x'
p5
F176.5001087922227
sS'pos_y'
p6
F-49.704893491037055
sS'isAlive'
p7
I01
sS'geno'
p8
(i__main__
Node
p9
(dp10
S'node'
p11
(lp12
S'+'
aS'-'
aS'*'
aS'/'
asS'right'
p13
(i__main__
Node
p14
(dp15
g11
(lp16
S'+'
aS'-'
aS'*'
aS'/'
asg13
(i__main__
Node
p17
(dp18
g11
(lp19
S'+'
aS'-'
aS'*'
aS'/'
asg13
NsS'leaf'
p20
(lp21
S'indiv.alignment()'
p22
aS'indiv.cohesion()'
p23
aS'indiv.separation()'
p24
aS'indiv.target()'
p25
aS'indiv.currentVelocity()'
p26
aS'indiv.centerOfWorld()'
p27
aS'indiv.mostEnergizedNeighbor()'
p28
aS'indiv.randV()'
p29
asS'parent'
p30
g14
sS'data'
p31
g22
sS'left'
p32
Nsbsg20
(lp33
g22
ag23
ag24
ag25
ag26
ag27
ag28
ag29
asg30
g9
sg31
S'+'
sg32
(i__main__
Node
p34
(dp35
g11
(lp36
S'+'
aS'-'
aS'*'
aS'/'
asg13
Nsg20
(lp37
g22
ag23
ag24
ag25
ag26
ag27
ag28
ag29
asg30
g14
sg31
g25
sg32
Nsbsbsg20
(lp38
g22
ag23
ag24
ag25
ag26
ag27
ag28
ag29
asg30
Nsg31
S'+'
sg32
(i__main__
Node
p39
(dp40
g11
(lp41
S'+'
aS'-'
aS'*'
aS'/'
asg13
(i__main__
Node
p42
(dp43
g11
(lp44
S'+'
aS'-'
aS'*'
aS'/'
asg13
Nsg20
(lp45
g22
ag23
ag24
ag25
ag26
ag27
ag28
ag29
asg30
g39
sg31
g22
sg32
Nsbsg20
(lp46
g22
ag23
ag24
ag25
ag26
ag27
ag28
ag29
asg30
g9
sg31
S'+'
sg32
(i__main__
Node
p47
(dp48
g11
(lp49
S'+'
aS'-'
aS'*'
aS'/'
asg13
Nsg20
(lp50
g22
ag23
ag24
ag25
ag26
ag27
ag28
ag29
asg30
g39
sg31
g25
sg32
NsbsbsbsS'accel_x'
p51
F-0.32297968875559818
sS'accel_y'
p52
F1.3622349725458107
sS'maxAccel'
p53
I2
sS'maxVel'
p54
F0.69999999999999996
sS'age'
p55
I50
sS'gener'
p56
S'm'
sS'lastScale'
p57
F13.699999999999999
sS'energy'
p58
F0.81999999999999984
sb.(i__main__
Data_mobile
p1
(dp2
S'vel_y'
p3
F0.68111773196695002
sS'vel_x'
p4
F-0.16148880828155882
sS'pos_x'
p5
F176.50255403321546
sS'pos_y'
p6
F-49.68926239056303
sS'isAlive'
p7
I01
sS'geno'
p8
(i__main__
Node
p9
(dp10
S'node'
p11
(lp12
S'+'
aS'-'
aS'*'
aS'/'
asS'right'
p13
(i__main__
Node
p14
(dp15
g11
(lp16
S'+'
aS'-'
aS'*'
aS'/'
asg13
(i__main__
Node
p17
(dp18
g11
(lp19
S'+'
aS'-'
aS'*'
aS'/'
asg13
NsS'leaf'
p20
(lp21
S'indiv.alignment()'
p22
aS'indiv.cohesion()'
p23
aS'indiv.separation()'
p24
aS'indiv.target()'
p25
aS'indiv.currentVelocity()'
p26
aS'indiv.centerOfWorld()'
p27
aS'indiv.mostEnergizedNeighbor()'
p28
aS'indiv.randV()'
p29
asS'parent'
p30
g14
sS'data'
p31
g22
sS'left'
p32
Nsbsg20
(lp33
g22
ag23
ag24
ag25
ag26
ag27
ag28
ag29
asg30
g9
sg31
S'+'
sg32
(i__main__
Node
p34
(dp35
g11
(lp36
S'+'
aS'-'
aS'*'
aS'/'
asg13
Nsg20
(lp37
g22
ag23
ag24
ag25
ag26
ag27
ag28
ag29
asg30
g14
sg31
g25
sg32
Nsbsbsg20
(lp38
g22
ag23
ag24
ag25
ag26
ag27
ag28
ag29
asg30
Nsg31
S'+'
sg32
(i__main__
Node
p39
(dp40
g11
(lp41
S'+'
aS'-'
aS'*'
aS'/'
asg13
(i__main__
Node
p42
(dp43
g11
(lp44
S'+'
aS'-'
aS'*'
aS'/'
asg13
Nsg20
(lp45
g22
ag23
ag24
ag25
ag26
ag27
ag28
ag29
asg30
g39
sg31
g22
sg32
Nsbsg20
(lp46
g22
ag23
ag24
ag25
ag26
ag27
ag28
ag29
asg30
g9
sg31
S'+'
sg32
(i__main__
Node
p47
(dp48
g11
(lp49
S'+'
aS'-'
aS'*'
aS'/'
asg13
Nsg20
(lp50
g22
ag23
ag24
ag25
ag26
ag27
ag28
ag29
asg30
g39
sg31
g25
sg32
NsbsbsbsS'accel_x'
p51
F-0.32297972166603495
sS'accel_y'
p52
F1.3622349647430223
sS'maxAccel'
p53
I2
sS'maxVel'
p54
F0.69999999999999996
sS'age'
p55
I50
sS'gener'
p56
S'm'
sS'lastScale'
p57
F13.699999999999999
sS'energy'
p58
F0.81999999999999984
sb.(i__main__
Data_mobile
p1
(dp2
S'vel_y'
p3
F0.68111749959571088
sS'vel_x'
p4
F-0.16148978835978003
sS'pos_x'
p5
F176.5065798129597
sS'pos_y'
p6
F-49.670778657131947
sS'isAlive'
p7
I01
sS'geno'
p8
(i__main__
Node
p9
(dp10
S'node'
p11
(lp12
S'+'
aS'-'
aS'*'
aS'/'
asS'right'
p13
(i__main__
Node
p14
(dp15
g11
(lp16
S'+'
aS'-'
aS'*'
aS'/'
asg13
(i__main__
Node
p17
(dp18
g11
(lp19
S'+'
aS'-'
aS'*'
aS'/'
asg13
NsS'leaf'
p20
(lp21
S'indiv.alignment()'
p22
aS'indiv.cohesion()'
p23
aS'indiv.separation()'
p24
aS'indiv.target()'
p25
aS'indiv.currentVelocity()'
p26
aS'indiv.centerOfWorld()'
p27
aS'indiv.mostEnergizedNeighbor()'
p28
aS'indiv.randV()'
p29
asS'parent'
p30
g14
sS'data'
p31
g22
sS'left'
p32
Nsbsg20
(lp33
g22
ag23
ag24
ag25
ag26
ag27
ag28
ag29
asg30
g9
sg31
S'+'
sg32
(i__main__
Node
p34
(dp35
g11
(lp36
S'+'
aS'-'
aS'*'
aS'/'
asg13
Nsg20
(lp37
g22
ag23
ag24
ag25
ag26
ag27
ag28
ag29
asg30
g14
sg31
g25
sg32
Nsbsbsg20
(lp38
g22
ag23
ag24
ag25
ag26
ag27
ag28
ag29
asg30
Nsg31
S'+'
sg32
(i__main__
Node
p39
(dp40
g11
(lp41
S'+'
aS'-'
aS'*'
aS'/'
asg13
(i__main__
Node
p42
(dp43
g11
(lp44
S'+'
aS'-'
aS'*'
aS'/'
asg13
Nsg20
(lp45
g22
ag23
ag24
ag25
ag26
ag27
ag28
ag29
asg30
g39
sg31
g22
sg32
Nsbsg20
(lp46
g22
ag23
ag24
ag25
ag26
ag27
ag28
ag29
asg30
g9
sg31
S'+'
sg32
(i__main__
Node
p47
(dp48
g11
(lp49
S'+'
aS'-'
aS'*'
aS'/'
asg13
Nsg20
(lp50
g22
ag23
ag24
ag25
ag26
ag27
ag28
ag29
asg30
g39
sg31
g25
sg32
NsbsbsbsS'accel_x'
p51
F-0.32297967509648867
sS'accel_y'
p52
F1.3622349757844077
sS'maxAccel'
p53
I2
sS'maxVel'
p54
F0.69999999999999996
sS'age'
p55
I100
sS'gener'
p56
S'm'
sS'lastScale'
p57
F13.699999999999999
sS'energy'
p58
F0.81999999999999984
sb.(i__main__
Data_mobile
p1
(dp2
S'vel_y'
p3
F0.68111729890916606
sS'vel_x'
p4
F-0.1614906347955874
sS'pos_x'
p5
F176.51179661143388
sS'pos_y'
p6
F-49.649926049124936
sS'isAlive'
p7
I01
sS'geno'
p8
(i__main__
Node
p9
(dp10
S'node'
p11
(lp12
S'+'
aS'-'
aS'*'
aS'/'
asS'right'
p13
(i__main__
Node
p14
(dp15
g11
(lp16
S'+'
aS'-'
aS'*'
aS'/'
asg13
(i__main__
Node
p17
(dp18
g11
(lp19
S'+'
aS'-'
aS'*'
aS'/'
asg13
NsS'leaf'
p20
(lp21
S'indiv.alignment()'
p22
aS'indiv.cohesion()'
p23
aS'indiv.separation()'
p24
aS'indiv.target()'
p25
aS'indiv.currentVelocity()'
p26
aS'indiv.centerOfWorld()'
p27
aS'indiv.mostEnergizedNeighbor()'
p28
aS'indiv.randV()'
p29
asS'parent'
p30
g14
sS'data'
p31
g22
sS'left'
p32
Nsbsg20
(lp33
g22
ag23
ag24
ag25
ag26
ag27
ag28
ag29
asg30
g9
sg31
S'+'
sg32
(i__main__
Node
p34
(dp35
g11
(lp36
S'+'
aS'-'
aS'*'
aS'/'
asg13
Nsg20
(lp37
g22
ag23
ag24
ag25
ag26
ag27
ag28
ag29
asg30
g14
sg31
g25
sg32
Nsbsbsg20
(lp38
g22
ag23
ag24
ag25
ag26
ag27
ag28
ag29
asg30
Nsg31
S'+'
sg32
(i__main__
Node
p39
(dp40
g11
(lp41
S'+'
aS'-'
aS'*'
aS'/'
asg13
(i__main__
Node
p42
(dp43
g11
(lp44
S'+'
aS'-'
aS'*'
aS'/'
asg13
Nsg20
(lp45
g22
ag23
ag24
ag25
ag26
ag27
ag28
ag29
asg30
g39
sg31
g22
sg32
Nsbsg20
(lp46
g22
ag23
ag24
ag25
ag26
ag27
ag28
ag29
asg30
g9
sg31
S'+'
sg32
(i__main__
Node
p47
(dp48
g11
(lp49
S'+'
aS'-'
aS'*'
aS'/'
asg13
Nsg20
(lp50
g22
ag23
ag24
ag25
ag26
ag27
ag28
ag29
asg30
g39
sg31
g25
sg32
NsbsbsbsS'accel_x'
p51
F-0.32297955587444893
sS'accel_y'
p52
F1.3622350040516185
sS'maxAccel'
p53
I2
sS'maxVel'
p54
F0.69999999999999996
sS'age'
p55
I50
sS'gener'
p56
S'm'
sS'lastScale'
p57
F13.699999999999999
sS'energy'
p58
F0.81999999999999984
sb.(i__main__
Data_mobile
p1
(dp2
S'vel_y'
p3
F-0.57198012926966468
sS'vel_x'
p4
F-0.25773392483922924
sS'pos_x'
p5
F140.60901822847552
sS'pos_y'
p6
F-36.560914806029515
sS'isAlive'
p7
I01
sS'geno'
p8
(i__main__
Node
p9
(dp10
S'node'
p11
(lp12
S'+'
aS'-'
aS'*'
aS'/'
asS'right'
p13
(i__main__
Node
p14
(dp15
g11
(lp16
S'+'
aS'-'
aS'*'
aS'/'
asg13
(i__main__
Node
p17
(dp18
g11
(lp19
S'+'
aS'-'
aS'*'
aS'/'
asg13
NsS'leaf'
p20
(lp21
S'indiv.alignment()'
p22
aS'indiv.cohesion()'
p23
aS'indiv.separation()'
p24
aS'indiv.target()'
p25
aS'indiv.currentVelocity()'
p26
aS'indiv.centerOfWorld()'
p27
aS'indiv.mostEnergizedNeighbor()'
p28
aS'indiv.randV()'
p29
asS'parent'
p30
g14
sS'data'
p31
g22
sS'left'
p32
Nsbsg20
(lp33
g22
ag23
ag24
ag25
ag26
ag27
ag28
ag29
asg30
g9
sg31
S'+'
sg32
(i__main__
Node
p34
(dp35
g11
(lp36
S'+'
aS'-'
aS'*'
aS'/'
asg13
Nsg20
(lp37
g22
ag23
ag24
ag25
ag26
ag27
ag28
ag29
asg30
g14
sg31
g25
sg32
Nsbsbsg20
(lp38
g22
ag23
ag24
ag25
ag26
ag27
ag28
ag29
asg30
Nsg31
S'+'
sg32
(i__main__
Node
p39
(dp40
g11
(lp41
S'+'
aS'-'
aS'*'
aS'/'
asg13
(i__main__
Node
p42
(dp43
g11
(lp44
S'+'
aS'-'
aS'*'
aS'/'
asg13
Nsg20
(lp45
g22
ag23
ag24
ag25
ag26
ag27
ag28
ag29
asg30
g39
sg31
g22
sg32
Nsbsg20
(lp46
g22
ag23
ag24
ag25
ag26
ag27
ag28
ag29
asg30
g9
sg31
S'+'
sg32
(i__main__
Node
p47
(dp48
g11
(lp49
S'+'
aS'-'
aS'*'
aS'/'
asg13
Nsg20
(lp50
g22
ag23
ag24
ag25
ag26
ag27
ag28
ag29
asg30
g39
sg31
g25
sg32
NsbsbsbsS'accel_x'
p51
F0
sS'accel_y'
p52
F0
sS'maxAccel'
p53
I2
sS'maxVel'
p54
F0.69999999999999996
sS'age'
p55
I0
sS'gener'
p56
S'm'
sS'lastScale'
p57
F5.5
sS'energy'
p58
F0.5
sb.(i__main__
Data_mobile
p1
(dp2
S'vel_y'
p3
F0.68111960412355455
sS'vel_x'
p4
F-0.16148091179358459
sS'pos_x'
p5
F176.8170277481475
sS'pos_y'
p6
F-49.42263786373622
sS'isAlive'
p7
I01
sS'geno'
p8
(i__main__
Node
p9
(dp10
S'node'
p11
(lp12
S'+'
aS'-'
aS'*'
aS'/'
asS'right'
p13
(i__main__
Node
p14
(dp15
g11
(lp16
S'+'
aS'-'
aS'*'
aS'/'
asg13
(i__main__
Node
p17
(dp18
g11
(lp19
S'+'
aS'-'
aS'*'
aS'/'
asg13
NsS'leaf'
p20
(lp21
S'indiv.alignment()'
p22
aS'indiv.cohesion()'
p23
aS'indiv.separation()'
p24
aS'indiv.target()'
p25
aS'indiv.currentVelocity()'
p26
aS'indiv.centerOfWorld()'
p27
aS'indiv.mostEnergizedNeighbor()'
p28
aS'indiv.randV()'
p29
asS'parent'
p30
g14
sS'data'
p31
g22
sS'left'
p32
Nsbsg20
(lp33
g22
ag23
ag24
ag25
ag26
ag27
ag28
ag29
asg30
g9
sg31
S'+'
sg32
(i__main__
Node
p34
(dp35
g11
(lp36
S'+'
aS'-'
aS'*'
aS'/'
asg13
Nsg20
(lp37
g22
ag23
ag24
ag25
ag26
ag27
ag28
ag29
asg30
g14
sg31
g25
sg32
Nsbsbsg20
(lp38
g22
ag23
ag24
ag25
ag26
ag27
ag28
ag29
asg30
Nsg31
S'+'
sg32
(i__main__
Node
p39
(dp40
g11
(lp41
S'+'
aS'-'
aS'*'
aS'/'
asg13
(i__main__
Node
p42
(dp43
g11
(lp44
S'+'
aS'-'
aS'*'
aS'/'
asg13
Nsg20
(lp45
g22
ag23
ag24
ag25
ag26
ag27
ag28
ag29
asg30
g39
sg31
g22
sg32
Nsbsg20
(lp46
g22
ag23
ag24
ag25
ag26
ag27
ag28
ag29
asg30
g9
sg31
S'+'
sg32
(i__main__
Node
p47
(dp48
g11
(lp49
S'+'
aS'-'
aS'*'
aS'/'
asg13
Nsg20
(lp50
g22
ag23
ag24
ag25
ag26
ag27
ag28
ag29
asg30
g39
sg31
g25
sg32
NsbsbsbsS'accel_x'
p51
F0
sS'accel_y'
p52
F0
sS'maxAccel'
p53
I2
sS'maxVel'
p54
F0.69999999999999996
sS'age'
p55
I0
sS'gener'
p56
S'm'
sS'lastScale'
p57
F5.5
sS'energy'
p58
F0.5
sb.(i__main__
Data_mobile
p1
(dp2
S'vel_y'
p3
F0.68111713109760319
sS'vel_x'
p4
F-0.1614913425709576
sS'pos_x'
p5
F176.51838949472025
sS'pos_y'
p6
F-49.626259350615236
sS'isAlive'
p7
I01
sS'geno'
p8
(i__main__
Node
p9
(dp10
S'node'
p11
(lp12
S'+'
aS'-'
aS'*'
aS'/'
asS'right'
p13
(i__main__
Node
p14
(dp15
g11
(lp16
S'+'
aS'-'
aS'*'
aS'/'
asg13
(i__main__
Node
p17
(dp18
g11
(lp19
S'+'
aS'-'
aS'*'
aS'/'
asg13
NsS'leaf'
p20
(lp21
S'indiv.alignment()'
p22
aS'indiv.cohesion()'
p23
aS'indiv.separation()'
p24
aS'indiv.target()'
p25
aS'indiv.currentVelocity()'
p26
aS'indiv.centerOfWorld()'
p27
aS'indiv.mostEnergizedNeighbor()'
p28
aS'indiv.randV()'
p29
asS'parent'
p30
g14
sS'data'
p31
g22
sS'left'
p32
Nsbsg20
(lp33
g22
ag23
ag24
ag25
ag26
ag27
ag28
ag29
asg30
g9
sg31
S'+'
sg32
(i__main__
Node
p34
(dp35
g11
(lp36
S'+'
aS'-'
aS'*'
aS'/'
asg13
Nsg20
(lp37
g22
ag23
ag24
ag25
ag26
ag27
ag28
ag29
asg30
g14
sg31
g25
sg32
Nsbsbsg20
(lp38
g22
ag23
ag24
ag25
ag26
ag27
ag28
ag29
asg30
Nsg31
S'+'
sg32
(i__main__
Node
p39
(dp40
g11
(lp41
S'+'
aS'-'
aS'*'
aS'/'
asg13
(i__main__
Node
p42
(dp43
g11
(lp44
S'+'
aS'-'
aS'*'
aS'/'
asg13
Nsg20
(lp45
g22
ag23
ag24
ag25
ag26
ag27
ag28
ag29
asg30
g39
sg31
g22
sg32
Nsbsg20
(lp46
g22
ag23
ag24
ag25
ag26
ag27
ag28
ag29
asg30
g9
sg31
S'+'
sg32
(i__main__
Node
p47
(dp48
g11
(lp49
S'+'
aS'-'
aS'*'
aS'/'
asg13
Nsg20
(lp50
g22
ag23
ag24
ag25
ag26
ag27
ag28
ag29
asg30
g39
sg31
g25
sg32
NsbsbsbsS'accel_x'
p51
F-0.32297937109066155
sS'accel_y'
p52
F1.3622350478637666
sS'maxAccel'
p53
I2
sS'maxVel'
p54
F0.69999999999999996
sS'age'
p55
I150
sS'gener'
p56
S'm'
sS'lastScale'
p57
F13.699999999999999
sS'energy'
p58
F0.81999999999999984
sb.(i__main__
Data_mobile
p1
(dp2
S'vel_y'
p3
F0.68111701272533209
sS'vel_x'
p4
F-0.16149184182527507
sS'pos_x'
p5
F176.51993139089166
sS'pos_y'
p6
F-49.610333078634561
sS'isAlive'
p7
I01
sS'geno'
p8
(i__main__
Node
p9
(dp10
S'node'
p11
(lp12
S'+'
aS'-'
aS'*'
aS'/'
asS'right'
p13
(i__main__
Node
p14
(dp15
g11
(lp16
S'+'
aS'-'
aS'*'
aS'/'
asg13
(i__main__
Node
p17
(dp18
g11
(lp19
S'+'
aS'-'
aS'*'
aS'/'
asg13
NsS'leaf'
p20
(lp21
S'indiv.alignment()'
p22
aS'indiv.cohesion()'
p23
aS'indiv.separation()'
p24
aS'indiv.target()'
p25
aS'indiv.currentVelocity()'
p26
aS'indiv.centerOfWorld()'
p27
aS'indiv.mostEnergizedNeighbor()'
p28
aS'indiv.randV()'
p29
asS'parent'
p30
g14
sS'data'
p31
g22
sS'left'
p32
Nsbsg20
(lp33
g22
ag23
ag24
ag25
ag26
ag27
ag28
ag29
asg30
g9
sg31
S'+'
sg32
(i__main__
Node
p34
(dp35
g11
(lp36
S'+'
aS'-'
aS'*'
aS'/'
asg13
Nsg20
(lp37
g22
ag23
ag24
ag25
ag26
ag27
ag28
ag29
asg30
g14
sg31
g25
sg32
Nsbsbsg20
(lp38
g22
ag23
ag24
ag25
ag26
ag27
ag28
ag29
asg30
Nsg31
S'+'
sg32
(i__main__
Node
p39
(dp40
g11
(lp41
S'+'
aS'-'
aS'*'
aS'/'
asg13
(i__main__
Node
p42
(dp43
g11
(lp44
S'+'
aS'-'
aS'*'
aS'/'
asg13
Nsg20
(lp45
g22
ag23
ag24
ag25
ag26
ag27
ag28
ag29
asg30
g39
sg31
g22
sg32
Nsbsg20
(lp46
g22
ag23
ag24
ag25
ag26
ag27
ag28
ag29
asg30
g9
sg31
S'+'
sg32
(i__main__
Node
p47
(dp48
g11
(lp49
S'+'
aS'-'
aS'*'
aS'/'
asg13
Nsg20
(lp50
g22
ag23
ag24
ag25
ag26
ag27
ag28
ag29
asg30
g39
sg31
g25
sg32
NsbsbsbsS'accel_x'
p51
F-0.32297914065657535
sS'accel_y'
p52
F1.3622351024999944
sS'maxAccel'
p53
I2
sS'maxVel'
p54
F0.69999999999999996
sS'age'
p55
I150
sS'gener'
p56
S'm'
sS'lastScale'
p57
F13.699999999999999
sS'energy'
p58
F0.81999999999999984
sb.(i__main__
Data_mobile
p1
(dp2
S'vel_y'
p3
F0.68111979339231277
sS'vel_x'
p4
F-0.16148011346734395
sS'pos_x'
p5
F176.7520438996396
sS'pos_y'
p6
F-49.497763861495642
sS'isAlive'
p7
I01
sS'geno'
p8
(i__main__
Node
p9
(dp10
S'node'
p11
(lp12
S'+'
aS'-'
aS'*'
aS'/'
asS'right'
p13
(i__main__
Node
p14
(dp15
g11
(lp16
S'+'
aS'-'
aS'*'
aS'/'
asg13
(i__main__
Node
p17
(dp18
g11
(lp19
S'+'
aS'-'
aS'*'
aS'/'
asg13
NsS'leaf'
p20
(lp21
S'indiv.alignment()'
p22
aS'indiv.cohesion()'
p23
aS'indiv.separation()'
p24
aS'indiv.target()'
p25
aS'indiv.currentVelocity()'
p26
aS'indiv.centerOfWorld()'
p27
aS'indiv.mostEnergizedNeighbor()'
p28
aS'indiv.randV()'
p29
asS'parent'
p30
g14
sS'data'
p31
g22
sS'left'
p32
Nsbsg20
(lp33
g22
ag23
ag24
ag25
ag26
ag27
ag28
ag29
asg30
g9
sg31
S'+'
sg32
(i__main__
Node
p34
(dp35
g11
(lp36
S'+'
aS'-'
aS'*'
aS'/'
asg13
Nsg20
(lp37
g22
ag23
ag24
ag25
ag26
ag27
ag28
ag29
asg30
g14
sg31
g25
sg32
Nsbsbsg20
(lp38
g22
ag23
ag24
ag25
ag26
ag27
ag28
ag29
asg30
Nsg31
S'+'
sg32
(i__main__
Node
p39
(dp40
g11
(lp41
S'+'
aS'-'
aS'*'
aS'/'
asg13
(i__main__
Node
p42
(dp43
g11
(lp44
S'+'
aS'-'
aS'*'
aS'/'
asg13
Nsg20
(lp45
g22
ag23
ag24
ag25
ag26
ag27
ag28
ag29
asg30
g39
sg31
g22
sg32
Nsbsg20
(lp46
g22
ag23
ag24
ag25
ag26
ag27
ag28
ag29
asg30
g9
sg31
S'+'
sg32
(i__main__
Node
p47
(dp48
g11
(lp49
S'+'
aS'-'
aS'*'
aS'/'
asg13
Nsg20
(lp50
g22
ag23
ag24
ag25
ag26
ag27
ag28
ag29
asg30
g39
sg31
g25
sg32
NsbsbsbsS'accel_x'
p51
F0
sS'accel_y'
p52
F0
sS'maxAccel'
p53
I2
sS'maxVel'
p54
F0.69999999999999996
sS'age'
p55
I0
sS'gener'
p56
S'm'
sS'lastScale'
p57
F5.5
sS'energy'
p58
F0.5
sb.(i__main__
Data_mobile
p1
(dp2
S'vel_y'
p3
F0.68111692152486558
sS'vel_x'
p4
F-0.16149222647697323
sS'pos_x'
p5
F176.5206907492425
sS'pos_y'
p6
F-49.595416126845478
sS'isAlive'
p7
I01
sS'geno'
p8
(i__main__
Node
p9
(dp10
S'node'
p11
(lp12
S'+'
aS'-'
aS'*'
aS'/'
asS'right'
p13
(i__main__
Node
p14
(dp15
g11
(lp16
S'+'
aS'-'
aS'*'
aS'/'
asg13
(i__main__
Node
p17
(dp18
g11
(lp19
S'+'
aS'-'
aS'*'
aS'/'
asg13
NsS'leaf'
p20
(lp21
S'indiv.alignment()'
p22
aS'indiv.cohesion()'
p23
aS'indiv.separation()'
p24
aS'indiv.target()'
p25
aS'indiv.currentVelocity()'
p26
aS'indiv.centerOfWorld()'
p27
aS'indiv.mostEnergizedNeighbor()'
p28
aS'indiv.randV()'
p29
asS'parent'
p30
g14
sS'data'
p31
g22
sS'left'
p32
Nsbsg20
(lp33
g22
ag23
ag24
ag25
ag26
ag27
ag28
ag29
asg30
g9
sg31
S'+'
sg32
(i__main__
Node
p34
(dp35
g11
(lp36
S'+'
aS'-'
aS'*'
aS'/'
asg13
Nsg20
(lp37
g22
ag23
ag24
ag25
ag26
ag27
ag28
ag29
asg30
g14
sg31
g25
sg32
Nsbsbsg20
(lp38
g22
ag23
ag24
ag25
ag26
ag27
ag28
ag29
asg30
Nsg31
S'+'
sg32
(i__main__
Node
p39
(dp40
g11
(lp41
S'+'
aS'-'
aS'*'
aS'/'
asg13
(i__main__
Node
p42
(dp43
g11
(lp44
S'+'
aS'-'
aS'*'
aS'/'
asg13
Nsg20
(lp45
g22
ag23
ag24
ag25
ag26
ag27
ag28
ag29
asg30
g39
sg31
g22
sg32
Nsbsg20
(lp46
g22
ag23
ag24
ag25
ag26
ag27
ag28
ag29
asg30
g9
sg31
S'+'
sg32
(i__main__
Node
p47
(dp48
g11
(lp49
S'+'
aS'-'
aS'*'
aS'/'
asg13
Nsg20
(lp50
g22
ag23
ag24
ag25
ag26
ag27
ag28
ag29
asg30
g39
sg31
g25
sg32
NsbsbsbsS'accel_x'
p51
F-0.32297886660824854
sS'accel_y'
p52
F1.3622351674776141
sS'maxAccel'
p53
I2
sS'maxVel'
p54
F0.69999999999999996
sS'age'
p55
I100
sS'gener'
p56
S'm'
sS'lastScale'
p57
F13.699999999999999
sS'energy'
p58
F0.81999999999999984
sb.(i__main__
Data_mobile
p1
(dp2
S'vel_y'
p3
F0.68111688277510696
sS'vel_x'
p4
F-0.16149238990962136
sS'pos_x'
p5
F176.50906697625535
sS'pos_y'
p6
F-49.602225876539627
sS'isAlive'
p7
I01
sS'geno'
p8
(i__main__
Node
p9
(dp10
S'node'
p11
(lp12
S'+'
aS'-'
aS'*'
aS'/'
asS'right'
p13
(i__main__
Node
p14
(dp15
g11
(lp16
S'+'
aS'-'
aS'*'
aS'/'
asg13
(i__main__
Node
p17
(dp18
g11
(lp19
S'+'
aS'-'
aS'*'
aS'/'
asg13
NsS'leaf'
p20
(lp21
S'indiv.alignment()'
p22
aS'indiv.cohesion()'
p23
aS'indiv.separation()'
p24
aS'indiv.target()'
p25
aS'indiv.currentVelocity()'
p26
aS'indiv.centerOfWorld()'
p27
aS'indiv.mostEnergizedNeighbor()'
p28
aS'indiv.randV()'
p29
asS'parent'
p30
g14
sS'data'
p31
g22
sS'left'
p32
Nsbsg20
(lp33
g22
ag23
ag24
ag25
ag26
ag27
ag28
ag29
asg30
g9
sg31
S'+'
sg32
(i__main__
Node
p34
(dp35
g11
(lp36
S'+'
aS'-'
aS'*'
aS'/'
asg13
Nsg20
(lp37
g22
ag23
ag24
ag25
ag26
ag27
ag28
ag29
asg30
g14
sg31
g25
sg32
Nsbsbsg20
(lp38
g22
ag23
ag24
ag25
ag26
ag27
ag28
ag29
asg30
Nsg31
S'+'
sg32
(i__main__
Node
p39
(dp40
g11
(lp41
S'+'
aS'-'
aS'*'
aS'/'
asg13
(i__main__
Node
p42
(dp43
g11
(lp44
S'+'
aS'-'
aS'*'
aS'/'
asg13
Nsg20
(lp45
g22
ag23
ag24
ag25
ag26
ag27
ag28
ag29
asg30
g39
sg31
g22
sg32
Nsbsg20
(lp46
g22
ag23
ag24
ag25
ag26
ag27
ag28
ag29
asg30
g9
sg31
S'+'
sg32
(i__main__
Node
p47
(dp48
g11
(lp49
S'+'
aS'-'
aS'*'
aS'/'
asg13
Nsg20
(lp50
g22
ag23
ag24
ag25
ag26
ag27
ag28
ag29
asg30
g39
sg31
g25
sg32
NsbsbsbsS'accel_x'
p51
F-0.32297857586111556
sS'accel_y'
p52
F1.362235236414816
sS'maxAccel'
p53
I2
sS'maxVel'
p54
F0.69999999999999996
sS'age'
p55
I100
sS'gener'
p56
S'm'
sS'lastScale'
p57
F13.699999999999999
sS'energy'
p58
F0.81999999999999984
sb.