(i__main__
Data_mobile
p1
(dp2
S'vel_y'
p3
F-0.44762692482728927
sS'vel_x'
p4
F-0.53817296120268265
sS'pos_x'
p5
F78.166981320148096
sS'pos_y'
p6
F68.937985152694139
sS'isAlive'
p7
I01
sS'geno'
p8
(lp9
F-4.0477149987856711
aF4.2270072799955809
aF0.039554385246129975
aF4.7926560870909505
aF-2.1102589460839329
asS'accel_x'
p10
F-1.081336259375099
sS'accel_y'
p11
F-0.61555199229146862
sS'maxAccel'
p12
I2
sS'maxVel'
p13
F0.69999999999999996
sS'age'
p14
I100
sS'radius'
p15
I2
sS'gener'
p16
S'm'
sS'lastScale'
p17
F7.4999999999999973
sS'energy'
p18
F0.69999999999999973
sb.(i__main__
Data_mobile
p1
(dp2
S'vel_y'
p3
F-0.24216793195033512
sS'vel_x'
p4
F-0.65677598367700518
sS'pos_x'
p5
F112.3916727793054
sS'pos_y'
p6
F85.317875958488699
sS'isAlive'
p7
I01
sS'geno'
p8
(lp9
F-4.0477149987856711
aF4.2270072799955809
aF0.039554385246129975
aF4.7926560870909505
aF-2.1102589460839329
asS'accel_x'
p10
F-1.388352722557946
sS'accel_y'
p11
F-1.0930733747579773
sS'maxAccel'
p12
I2
sS'maxVel'
p13
F0.69999999999999996
sS'age'
p14
I150
sS'radius'
p15
I2
sS'gener'
p16
S'm'
sS'lastScale'
p17
F6.9999999999999964
sS'energy'
p18
F0.64999999999999969
sb.(i__main__
Data_mobile
p1
(dp2
S'vel_y'
p3
F0.044087708943901606
sS'vel_x'
p4
F0.69861024464294663
sS'pos_x'
p5
F-176.53994032005147
sS'pos_y'
p6
F-17.418129229804727
sS'isAlive'
p7
I01
sS'geno'
p8
(lp9
F-4.1401920100861425
aF4.2270072799955809
aF0.039554385246129975
aF4.7926560870909505
aF-2.1102589460839329
asS'accel_x'
p10
F0.35030572807556432
sS'accel_y'
p11
F-1.9690825012877058
sS'maxAccel'
p12
I2
sS'maxVel'
p13
F0.69999999999999996
sS'age'
p14
I550
sS'radius'
p15
I2
sS'gener'
p16
S'm'
sS'lastScale'
p17
F14.500000000000004
sS'energy'
p18
F1.4000000000000004
sb.(i__main__
Data_mobile
p1
(dp2
S'vel_y'
p3
F0.6589817898141811
sS'vel_x'
p4
F0.060681806811553329
sS'pos_x'
p5
F52.168983312652628
sS'pos_y'
p6
F43.333276050775041
sS'isAlive'
p7
I01
sS'geno'
p8
(lp9
F-4.0477149987856711
aF4.2270072799955809
aF0.039554385246129975
aF4.7926560870909505
aF-2.1102589460839329
asS'accel_x'
p10
F0
sS'accel_y'
p11
F0
sS'maxAccel'
p12
I2
sS'maxVel'
p13
F0.69999999999999996
sS'age'
p14
I0
sS'radius'
p15
I2
sS'gener'
p16
S'm'
sS'lastScale'
p17
F5.4999999999999956
sS'energy'
p18
F1
sb.(i__main__
Data_mobile
p1
(dp2
S'vel_y'
p3
F-0.31782320641268025
sS'vel_x'
p4
F0.34691484935534234
sS'pos_x'
p5
F75.82632524698883
sS'pos_y'
p6
F-4.3245109103455874
sS'isAlive'
p7
I01
sS'geno'
p8
(lp9
F-3.8846641075967812
aF4.2270072799955809
aF0.039554385246129975
aF4.7926560870909505
aF-2.1102589460839329
asS'accel_x'
p10
F0
sS'accel_y'
p11
F0
sS'maxAccel'
p12
I2
sS'maxVel'
p13
F0.69999999999999996
sS'age'
p14
I0
sS'radius'
p15
I2
sS'gener'
p16
S'm'
sS'lastScale'
p17
F5.4999999999999956
sS'energy'
p18
F1
sb.(i__main__
Data_mobile
p1
(dp2
S'vel_y'
p3
F-0.69997941294896882
sS'vel_x'
p4
F-0.0053685610378397452
sS'pos_x'
p5
F6.6811979173765641
sS'pos_y'
p6
F-33.469834585132517
sS'isAlive'
p7
I01
sS'geno'
p8
(lp9
F-4.0477149987856711
aF4.2270072799955809
aF0.039554385246129975
aF4.7926560870909505
aF-2.1102589460839329
asS'accel_x'
p10
F-1.0532446845098444
sS'accel_y'
p11
F1.7001987044318552
sS'maxAccel'
p12
I2
sS'maxVel'
p13
F0.69999999999999996
sS'age'
p14
I300
sS'radius'
p15
I2
sS'gener'
p16
S'm'
sS'lastScale'
p17
F10.5
sS'energy'
p18
F1
sb.(i__main__
Data_mobile
p1
(dp2
S'vel_y'
p3
F-0.074127702018387795
sS'vel_x'
p4
F-0.69606399403608943
sS'pos_x'
p5
F38.283413163063052
sS'pos_y'
p6
F-41.255514130505659
sS'isAlive'
p7
I01
sS'geno'
p8
(lp9
F-4.0477149987856711
aF4.2270072799955809
aF0.039554385246129975
aF4.7926560870909505
aF-2.1102589460839329
asS'accel_x'
p10
F-1.8438449563695891
sS'accel_y'
p11
F-0.77474884760832541
sS'maxAccel'
p12
I2
sS'maxVel'
p13
F0.69999999999999996
sS'age'
p14
I300
sS'radius'
p15
I2
sS'gener'
p16
S'm'
sS'lastScale'
p17
F6.9999999999999964
sS'energy'
p18
F0.64999999999999969
sb.(i__main__
Data_mobile
p1
(dp2
S'vel_y'
p3
F-0.25204957201193717
sS'vel_x'
p4
F-0.63547488220984016
sS'pos_x'
p5
F-111.5717314159396
sS'pos_y'
p6
F68.209125458380413
sS'isAlive'
p7
I01
sS'geno'
p8
(lp9
F-4.1401920100861425
aF4.2270072799955809
aF0.039554385246129975
aF4.7926560870909505
aF-2.1102589460839329
asS'accel_x'
p10
F0
sS'accel_y'
p11
F0
sS'maxAccel'
p12
I2
sS'maxVel'
p13
F0.69999999999999996
sS'age'
p14
I0
sS'radius'
p15
I2
sS'gener'
p16
S'm'
sS'lastScale'
p17
F5.4999999999999956
sS'energy'
p18
F1
sb.(i__main__
Data_mobile
p1
(dp2
S'vel_y'
p3
F0.68275670080814066
sS'vel_x'
p4
F0.15441271806940954
sS'pos_x'
p5
F181.89014038031013
sS'pos_y'
p6
F60.888995713167219
sS'isAlive'
p7
I01
sS'geno'
p8
(lp9
F-4.0477149987856711
aF4.2270072799955809
aF0.039554385246129975
aF4.7926560870909505
aF-1.7492125058562058
asS'accel_x'
p10
F0.80238177210445516
sS'accel_y'
p11
F1.8319889442337018
sS'maxAccel'
p12
I2
sS'maxVel'
p13
F0.69999999999999996
sS'age'
p14
I150
sS'radius'
p15
I2
sS'gener'
p16
S'm'
sS'lastScale'
p17
F14.500000000000004
sS'energy'
p18
F1.4000000000000004
sb.(i__main__
Data_mobile
p1
(dp2
S'vel_y'
p3
F-0.67160889921358591
sS'vel_x'
p4
F-0.19733597365182887
sS'pos_x'
p5
F-67.095156592708349
sS'pos_y'
p6
F-60.161870006865691
sS'isAlive'
p7
I01
sS'geno'
p8
(lp9
F-4.1401920100861425
aF4.6069114420658677
aF-0.27975852581918792
aF4.7926560870909505
aF-2.1102589460839329
asS'accel_x'
p10
F-0.48443867773579513
sS'accel_y'
p11
F-1.9404430338233571
sS'maxAccel'
p12
I2
sS'maxVel'
p13
F0.69999999999999996
sS'age'
p14
I150
sS'radius'
p15
I2
sS'gener'
p16
S'm'
sS'lastScale'
p17
F10.5
sS'energy'
p18
F1
sb.(i__main__
Data_mobile
p1
(dp2
S'vel_y'
p3
F0.68077912417687958
sS'vel_x'
p4
F0.16291035597825168
sS'pos_x'
p5
F185.97198484908571
sS'pos_y'
p6
F80.19276425893726
sS'isAlive'
p7
I01
sS'geno'
p8
(lp9
F-4.0477149987856711
aF4.2270072799955809
aF0.039554385246129975
aF4.7926560870909505
aF-2.1102589460839329
asS'accel_x'
p10
F0.40235669141751501
sS'accel_y'
p11
F1.959109260064775
sS'maxAccel'
p12
I2
sS'maxVel'
p13
F0.69999999999999996
sS'age'
p14
I150
sS'radius'
p15
I2
sS'gener'
p16
S'm'
sS'lastScale'
p17
F14.500000000000004
sS'energy'
p18
F1.4000000000000004
sb.(i__main__
Data_mobile
p1
(dp2
S'vel_y'
p3
F-0.6763385288774536
sS'vel_x'
p4
F-0.18046106049749897
sS'pos_x'
p5
F35.596948305557433
sS'pos_y'
p6
F-100.12967331584825
sS'isAlive'
p7
I01
sS'geno'
p8
(lp9
F-4.0477149987856711
aF4.2270072799955809
aF0.039554385246129975
aF4.7926560870909505
aF-2.1102589460839329
asS'accel_x'
p10
F-0.95327056621320005
sS'accel_y'
p11
F-0.61023795590136853
sS'maxAccel'
p12
I2
sS'maxVel'
p13
F0.69999999999999996
sS'age'
p14
I250
sS'radius'
p15
I2
sS'gener'
p16
S'm'
sS'lastScale'
p17
F7.4999999999999973
sS'energy'
p18
F0.69999999999999973
sb.(i__main__
Data_mobile
p1
(dp2
S'vel_y'
p3
F-0.28388777614621857
sS'vel_x'
p4
F-0.63984977186426684
sS'pos_x'
p5
F-91.56545024733515
sS'pos_y'
p6
F66.425231337852338
sS'isAlive'
p7
I01
sS'geno'
p8
(lp9
F-4.1401920100861425
aF4.2270072799955809
aF0.039554385246129975
aF4.7926560870909505
aF-2.1102589460839329
asS'accel_x'
p10
F-1.9760108282397215
sS'accel_y'
p11
F-0.30883847992011842
sS'maxAccel'
p12
I2
sS'maxVel'
p13
F0.69999999999999996
sS'age'
p14
I300
sS'radius'
p15
I2
sS'gener'
p16
S'm'
sS'lastScale'
p17
F11
sS'energy'
p18
F1.05
sb.(i__main__
Data_mobile
p1
(dp2
S'vel_y'
p3
F0.69842099539209257
sS'vel_x'
p4
F-0.046990564962749636
sS'pos_x'
p5
F-72.450988378238023
sS'pos_y'
p6
F-86.194422470554898
sS'isAlive'
p7
I01
sS'geno'
p8
(lp9
F-4.1401920100861425
aF4.2270072799955809
aF0.039554385246129975
aF4.7926560870909505
aF-2.1102589460839329
asS'accel_x'
p10
F1.2389983183209909
sS'accel_y'
p11
F1.5699946392258022
sS'maxAccel'
p12
I2
sS'maxVel'
p13
F0.69999999999999996
sS'age'
p14
I700
sS'radius'
p15
I2
sS'gener'
p16
S'm'
sS'lastScale'
p17
F6.9999999999999964
sS'energy'
p18
F0.64999999999999969
sb.(i__main__
Data_mobile
p1
(dp2
S'vel_y'
p3
F-0.68890667351883605
sS'vel_x'
p4
F-0.12412733454486086
sS'pos_x'
p5
F-141.67702079923706
sS'pos_y'
p6
F-96.16344973752885
sS'isAlive'
p7
I01
sS'geno'
p8
(lp9
F-4.1401920100861425
aF4.2270072799955809
aF0.039554385246129975
aF4.7926560870909505
aF-2.1102589460839329
asS'accel_x'
p10
F0.49524709445514453
sS'accel_y'
p11
F-1.9377126503776916
sS'maxAccel'
p12
I2
sS'maxVel'
p13
F0.69999999999999996
sS'age'
p14
I500
sS'radius'
p15
I2
sS'gener'
p16
S'm'
sS'lastScale'
p17
F14.500000000000004
sS'energy'
p18
F1.4000000000000004
sb.(i__main__
Data_mobile
p1
(dp2
S'vel_y'
p3
F-0.044056875099757052
sS'vel_x'
p4
F-0.69861218981380824
sS'pos_x'
p5
F13.946127372047885
sS'pos_y'
p6
F-49.270105591688981
sS'isAlive'
p7
I01
sS'geno'
p8
(lp9
F-3.8760470413325558
aF4.2270072799955809
aF0.039554385246129975
aF4.7926560870909505
aF-2.1102589460839329
asS'accel_x'
p10
F1.5629685807325273
sS'accel_y'
p11
F-1.2478498369767692
sS'maxAccel'
p12
I2
sS'maxVel'
p13
F0.69999999999999996
sS'age'
p14
I150
sS'radius'
p15
I2
sS'gener'
p16
S'm'
sS'lastScale'
p17
F10.5
sS'energy'
p18
F1
sb.(i__main__
Data_mobile
p1
(dp2
S'vel_y'
p3
F0.49767494001995594
sS'vel_x'
p4
F0.37014479130289607
sS'pos_x'
p5
F-1.9053857108971357
sS'pos_y'
p6
F-26.358173272265013
sS'isAlive'
p7
I01
sS'geno'
p8
(lp9
F-4.1401920100861425
aF4.2270072799955809
aF0.039554385246129975
aF4.7926560870909505
aF-2.1102589460839329
asS'accel_x'
p10
F0
sS'accel_y'
p11
F0
sS'maxAccel'
p12
I2
sS'maxVel'
p13
F0.69999999999999996
sS'age'
p14
I0
sS'radius'
p15
I2
sS'gener'
p16
S'm'
sS'lastScale'
p17
F5.4999999999999956
sS'energy'
p18
F1
sb.(i__main__
Data_mobile
p1
(dp2
S'vel_y'
p3
F0.18055268123965532
sS'vel_x'
p4
F0.23804709889595282
sS'pos_x'
p5
F160.02445968255998
sS'pos_y'
p6
F54.513440045583856
sS'isAlive'
p7
I01
sS'geno'
p8
(lp9
F-4.0477149987856711
aF4.2270072799955809
aF0.039554385246129975
aF4.7926560870909505
aF-2.1102589460839329
asS'accel_x'
p10
F0
sS'accel_y'
p11
F0
sS'maxAccel'
p12
I2
sS'maxVel'
p13
F0.69999999999999996
sS'age'
p14
I0
sS'radius'
p15
I2
sS'gener'
p16
S'm'
sS'lastScale'
p17
F5.4999999999999956
sS'energy'
p18
F1
sb.(i__main__
Data_mobile
p1
(dp2
S'vel_y'
p3
F-0.56073144435222111
sS'vel_x'
p4
F0.052513327366516704
sS'pos_x'
p5
F105.36979301746544
sS'pos_y'
p6
F-54.83316707800558
sS'isAlive'
p7
I01
sS'geno'
p8
(lp9
F-4.1401920100861425
aF4.2270072799955809
aF0.039554385246129975
aF4.7926560870909505
aF-2.1102589460839329
asS'accel_x'
p10
F0
sS'accel_y'
p11
F0
sS'maxAccel'
p12
I2
sS'maxVel'
p13
F0.69999999999999996
sS'age'
p14
I0
sS'radius'
p15
I2
sS'gener'
p16
S'm'
sS'lastScale'
p17
F5.4999999999999956
sS'energy'
p18
F1
sb.(i__main__
Data_mobile
p1
(dp2
S'vel_y'
p3
F0.33330185132610424
sS'vel_x'
p4
F-0.61555655784224361
sS'pos_x'
p5
F21.152422854741854
sS'pos_y'
p6
F-32.767940028880403
sS'isAlive'
p7
I01
sS'geno'
p8
(lp9
F-4.0477149987856711
aF4.2270072799955809
aF0.22654744556145479
aF4.7926560870909505
aF-2.1102589460839329
asS'accel_x'
p10
F-1.9602587300291092
sS'accel_y'
p11
F0.39671868035758534
sS'maxAccel'
p12
I2
sS'maxVel'
p13
F0.69999999999999996
sS'age'
p14
I150
sS'radius'
p15
I2
sS'gener'
p16
S'm'
sS'lastScale'
p17
F13.000000000000002
sS'energy'
p18
F1.2500000000000002
sb.(i__main__
Data_mobile
p1
(dp2
S'vel_y'
p3
F0.073440703842467467
sS'vel_x'
p4
F-0.69613681343477518
sS'pos_x'
p5
F-91.634335703380572
sS'pos_y'
p6
F0.32120810449420906
sS'isAlive'
p7
I01
sS'geno'
p8
(lp9
F-4.1401920100861425
aF4.2270072799955809
aF0.039554385246129975
aF4.7926560870909505
aF-2.1102589460839329
asS'accel_x'
p10
F-1.8081861474057634
sS'accel_y'
p11
F-0.85467119778889411
sS'maxAccel'
p12
I2
sS'maxVel'
p13
F0.69999999999999996
sS'age'
p14
I250
sS'radius'
p15
I2
sS'gener'
p16
S'm'
sS'lastScale'
p17
F10
sS'energy'
p18
F0.94999999999999996
sb.(i__main__
Data_mobile
p1
(dp2
S'vel_y'
p3
F0.51785743764166225
sS'vel_x'
p4
F0.47098160715596082
sS'pos_x'
p5
F171.59305566005702
sS'pos_y'
p6
F70.183085072101122
sS'isAlive'
p7
I01
sS'geno'
p8
(lp9
F-4.1401920100861425
aF4.2270072799955809
aF0.039554385246129975
aF5.141618777032849
aF-2.1102589460839329
asS'accel_x'
p10
F0.83653638946510478
sS'accel_y'
p11
F1.8166471504121777
sS'maxAccel'
p12
I2
sS'maxVel'
p13
F0.69999999999999996
sS'age'
p14
I250
sS'radius'
p15
I2
sS'gener'
p16
S'm'
sS'lastScale'
p17
F14.500000000000004
sS'energy'
p18
F1.4000000000000004
sb.(i__main__
Data_mobile
p1
(dp2
S'vel_y'
p3
F-0.095325891632913551
sS'vel_x'
p4
F-0.24887639353768096
sS'pos_x'
p5
F47.089979634044454
sS'pos_y'
p6
F78.499002447575705
sS'isAlive'
p7
I01
sS'geno'
p8
(lp9
F-4.1401920100861425
aF4.2270072799955809
aF-0.072365882477340437
aF4.7926560870909505
aF-2.1102589460839329
asS'accel_x'
p10
F0
sS'accel_y'
p11
F0
sS'maxAccel'
p12
I2
sS'maxVel'
p13
F0.69999999999999996
sS'age'
p14
I0
sS'radius'
p15
I2
sS'gener'
p16
S'm'
sS'lastScale'
p17
F5.4999999999999956
sS'energy'
p18
F1
sb.(i__main__
Data_mobile
p1
(dp2
S'vel_y'
p3
F0.58477344008385668
sS'vel_x'
p4
F0.38475969613837152
sS'pos_x'
p5
F165.66258785112555
sS'pos_y'
p6
F51.286276366730519
sS'isAlive'
p7
I01
sS'geno'
p8
(lp9
F-4.0477149987856711
aF4.2270072799955809
aF0.039554385246129975
aF4.7926560870909505
aF-2.1102589460839329
asS'accel_x'
p10
F1.347341475476598
sS'accel_y'
p11
F1.4780632423751507
sS'maxAccel'
p12
I2
sS'maxVel'
p13
F0.69999999999999996
sS'age'
p14
I150
sS'radius'
p15
I2
sS'gener'
p16
S'm'
sS'lastScale'
p17
F13.000000000000002
sS'energy'
p18
F1.2500000000000002
sb.(i__main__
Data_mobile
p1
(dp2
S'vel_y'
p3
F-0.19251452244367417
sS'vel_x'
p4
F-0.58214836002528669
sS'pos_x'
p5
F-140.23876611069184
sS'pos_y'
p6
F-42.522444945451639
sS'isAlive'
p7
I01
sS'geno'
p8
(lp9
F-4.0518993239444958
aF4.3664807629413041
aF0.039554385246129975
aF4.7926560870909505
aF-2.1102589460839329
asS'accel_x'
p10
F0
sS'accel_y'
p11
F0
sS'maxAccel'
p12
I2
sS'maxVel'
p13
F0.69999999999999996
sS'age'
p14
I0
sS'radius'
p15
I2
sS'gener'
p16
S'm'
sS'lastScale'
p17
F5.4999999999999956
sS'energy'
p18
F1
sb.(i__main__
Data_mobile
p1
(dp2
S'vel_y'
p3
F-0.49061784236103445
sS'vel_x'
p4
F-0.49929363380379993
sS'pos_x'
p5
F73.56422129770398
sS'pos_y'
p6
F-108.82035043718638
sS'isAlive'
p7
I01
sS'geno'
p8
(lp9
F-4.0477149987856711
aF4.2270072799955809
aF0.039554385246129975
aF4.7926560870909505
aF-2.1102589460839329
asS'accel_x'
p10
F-1.5112856409632827
sS'accel_y'
p11
F-0.63406674762411397
sS'maxAccel'
p12
I2
sS'maxVel'
p13
F0.69999999999999996
sS'age'
p14
I550
sS'radius'
p15
I2
sS'gener'
p16
S'm'
sS'lastScale'
p17
F6.9999999999999964
sS'energy'
p18
F0.64999999999999969
sb.(i__main__
Data_mobile
p1
(dp2
S'vel_y'
p3
F-0.61736677764888326
sS'vel_x'
p4
F0.32993675432639269
sS'pos_x'
p5
F-70.962716292275147
sS'pos_y'
p6
F-103.48289757942382
sS'isAlive'
p7
I01
sS'geno'
p8
(lp9
F-4.0477149987856711
aF4.2270072799955809
aF0.039554385246129975
aF4.7926560870909505
aF-2.1102589460839329
asS'accel_x'
p10
F0.50461712132055836
sS'accel_y'
p11
F1.9352936626957038
sS'maxAccel'
p12
I2
sS'maxVel'
p13
F0.69999999999999996
sS'age'
p14
I200
sS'radius'
p15
I2
sS'gener'
p16
S'm'
sS'lastScale'
p17
F14.500000000000004
sS'energy'
p18
F1.4000000000000004
sb.(i__main__
Data_mobile
p1
(dp2
S'vel_y'
p3
F0.59269412389381804
sS'vel_x'
p4
F0.37244284863820315
sS'pos_x'
p5
F157.02913650739706
sS'pos_y'
p6
F38.217557143589588
sS'isAlive'
p7
I01
sS'geno'
p8
(lp9
F-4.0477149987856711
aF4.2270072799955809
aF0.039554385246129975
aF4.7926560870909505
aF-2.1102589460839329
asS'accel_x'
p10
F1.2320630967178519
sS'accel_y'
p11
F1.5754429617431465
sS'maxAccel'
p12
I2
sS'maxVel'
p13
F0.69999999999999996
sS'age'
p14
I350
sS'radius'
p15
I2
sS'gener'
p16
S'm'
sS'lastScale'
p17
F8.9999999999999982
sS'energy'
p18
F0.84999999999999987
sb.(i__main__
Data_mobile
p1
(dp2
S'vel_y'
p3
F-0.49454166965107643
sS'vel_x'
p4
F-0.49540744542116599
sS'pos_x'
p5
F-96.865360651457948
sS'pos_y'
p6
F66.877153867020354
sS'isAlive'
p7
I01
sS'geno'
p8
(lp9
F-4.1401920100861425
aF4.2270072799955809
aF0.039554385246129975
aF4.7926560870909505
aF-2.1102589460839329
asS'accel_x'
p10
F-1.8451225415977501
sS'accel_y'
p11
F0.77170124173015187
sS'maxAccel'
p12
I2
sS'maxVel'
p13
F0.69999999999999996
sS'age'
p14
I350
sS'radius'
p15
I2
sS'gener'
p16
S'm'
sS'lastScale'
p17
F14.500000000000004
sS'energy'
p18
F1.4000000000000004
sb.(i__main__
Data_mobile
p1
(dp2
S'vel_y'
p3
F-0.45658305975865304
sS'vel_x'
p4
F-0.13318210769168226
sS'pos_x'
p5
F75.914696206926862
sS'pos_y'
p6
F-62.984826270501515
sS'isAlive'
p7
I01
sS'geno'
p8
(lp9
F-4.1401920100861425
aF4.2270072799955809
aF0.039554385246129975
aF4.7926560870909505
aF-2.1102589460839329
asS'accel_x'
p10
F0
sS'accel_y'
p11
F0
sS'maxAccel'
p12
I2
sS'maxVel'
p13
F0.69999999999999996
sS'age'
p14
I0
sS'radius'
p15
I2
sS'gener'
p16
S'm'
sS'lastScale'
p17
F5.4999999999999956
sS'energy'
p18
F1
sb.(i__main__
Data_mobile
p1
(dp2
S'vel_y'
p3
F-0.18129121521843491
sS'vel_x'
p4
F-0.66850706995407194
sS'pos_x'
p5
F98.632638594505778
sS'pos_y'
p6
F-6.8265566006800462
sS'isAlive'
p7
I01
sS'geno'
p8
(lp9
F-4.1401920100861425
aF4.5981237850676653
aF0.039554385246129975
aF4.7926560870909505
aF-2.1102589460839329
asS'accel_x'
p10
F0
sS'accel_y'
p11
F0
sS'maxAccel'
p12
I2
sS'maxVel'
p13
F0.69999999999999996
sS'age'
p14
I0
sS'radius'
p15
I2
sS'gener'
p16
S'm'
sS'lastScale'
p17
F5.4999999999999956
sS'energy'
p18
F1
sb.(i__main__
Data_mobile
p1
(dp2
S'vel_y'
p3
F0.55133270164144532
sS'vel_x'
p4
F0.43131456282015912
sS'pos_x'
p5
F162.98468619517925
sS'pos_y'
p6
F37.410115766959869
sS'isAlive'
p7
I01
sS'geno'
p8
(lp9
F-4.0477149987856711
aF4.2270072799955809
aF0.039554385246129975
aF4.7926560870909505
aF-2.1102589460839329
asS'accel_x'
p10
F1.2456767597139686
sS'accel_y'
p11
F1.564701061004468
sS'maxAccel'
p12
I2
sS'maxVel'
p13
F0.69999999999999996
sS'age'
p14
I150
sS'radius'
p15
I2
sS'gener'
p16
S'm'
sS'lastScale'
p17
F7.4999999999999973
sS'energy'
p18
F0.69999999999999973
sb.(i__main__
Data_mobile
p1
(dp2
S'vel_y'
p3
F0.67110649779802678
sS'vel_x'
p4
F0.19903785723642375
sS'pos_x'
p5
F-87.562315920667814
sS'pos_y'
p6
F-96.327393644659438
sS'isAlive'
p7
I01
sS'geno'
p8
(lp9
F-4.0477149987856711
aF4.2270072799955809
aF0.039554385246129975
aF4.7926560870909505
aF-2.1102589460839329
asS'accel_x'
p10
F0.81141593014713698
sS'accel_y'
p11
F-1.8280055219565001
sS'maxAccel'
p12
I2
sS'maxVel'
p13
F0.69999999999999996
sS'age'
p14
I150
sS'radius'
p15
I2
sS'gener'
p16
S'm'
sS'lastScale'
p17
F14.000000000000004
sS'energy'
p18
F1.3500000000000003
sb.(i__main__
Data_mobile
p1
(dp2
S'vel_y'
p3
F-0.55793076209406178
sS'vel_x'
p4
F-0.42274491683418186
sS'pos_x'
p5
F37.120770495479157
sS'pos_y'
p6
F62.318223872955237
sS'isAlive'
p7
I01
sS'geno'
p8
(lp9
F-4.0477149987856711
aF4.2270072799955809
aF0.039554385246129975
aF4.7926560870909505
aF-2.1102589460839329
asS'accel_x'
p10
F-1.7251634300956433
sS'accel_y'
p11
F-0.96283060531411391
sS'maxAccel'
p12
I2
sS'maxVel'
p13
F0.69999999999999996
sS'age'
p14
I200
sS'radius'
p15
I2
sS'gener'
p16
S'm'
sS'lastScale'
p17
F6.4999999999999964
sS'energy'
p18
F0.59999999999999964
sb.(i__main__
Data_mobile
p1
(dp2
S'vel_y'
p3
F-0.0030460428257281791
sS'vel_x'
p4
F0.253130990854186
sS'pos_x'
p5
F187.73619103909334
sS'pos_y'
p6
F-31.685124822064878
sS'isAlive'
p7
I01
sS'geno'
p8
(lp9
F-4.1401920100861425
aF4.3664807629413041
aF0.039554385246129975
aF4.7926560870909505
aF-2.1102589460839329
asS'accel_x'
p10
F0
sS'accel_y'
p11
F0
sS'maxAccel'
p12
I2
sS'maxVel'
p13
F0.69999999999999996
sS'age'
p14
I0
sS'radius'
p15
I2
sS'gener'
p16
S'm'
sS'lastScale'
p17
F5.4999999999999956
sS'energy'
p18
F1
sb.(i__main__
Data_mobile
p1
(dp2
S'vel_y'
p3
F-0.59950000984360052
sS'vel_x'
p4
F-0.36138585777188725
sS'pos_x'
p5
F-108.177523787675
sS'pos_y'
p6
F52.028345574358845
sS'isAlive'
p7
I01
sS'geno'
p8
(lp9
F-4.1401920100861425
aF4.3187333740770679
aF0.039554385246129975
aF4.7926560870909505
aF-2.1102589460839329
asS'accel_x'
p10
F0
sS'accel_y'
p11
F0
sS'maxAccel'
p12
I2
sS'maxVel'
p13
F0.69999999999999996
sS'age'
p14
I0
sS'radius'
p15
I2
sS'gener'
p16
S'm'
sS'lastScale'
p17
F5.4999999999999956
sS'energy'
p18
F1
sb.(i__main__
Data_mobile
p1
(dp2
S'vel_y'
p3
F-0.61209966917107295
sS'vel_x'
p4
F-0.09781238137621516
sS'pos_x'
p5
F-105.34370767735834
sS'pos_y'
p6
F-95.741765078388653
sS'isAlive'
p7
I01
sS'geno'
p8
(lp9
F-4.1401920100861425
aF4.2270072799955809
aF0.039554385246129975
aF4.7926560870909505
aF-2.1102589460839329
asS'accel_x'
p10
F0
sS'accel_y'
p11
F0
sS'maxAccel'
p12
I2
sS'maxVel'
p13
F0.69999999999999996
sS'age'
p14
I0
sS'radius'
p15
I2
sS'gener'
p16
S'm'
sS'lastScale'
p17
F5.4999999999999956
sS'energy'
p18
F1
sb.(i__main__
Data_mobile
p1
(dp2
S'vel_y'
p3
F0.1514540798887446
sS'vel_x'
p4
F-0.62516292838547938
sS'pos_x'
p5
F-123.849842557882
sS'pos_y'
p6
F28.84302055208212
sS'isAlive'
p7
I01
sS'geno'
p8
(lp9
F-4.1401920100861425
aF4.2270072799955809
aF0.039554385246129975
aF4.7926560870909505
aF-2.1102589460839329
asS'accel_x'
p10
F0
sS'accel_y'
p11
F0
sS'maxAccel'
p12
I2
sS'maxVel'
p13
F0.69999999999999996
sS'age'
p14
I0
sS'radius'
p15
I2
sS'gener'
p16
S'm'
sS'lastScale'
p17
F5.4999999999999956
sS'energy'
p18
F1
sb.(i__main__
Data_mobile
p1
(dp2
S'vel_y'
p3
F-0.36975125069761189
sS'vel_x'
p4
F-0.59437699535526411
sS'pos_x'
p5
F77.878264681145907
sS'pos_y'
p6
F94.787774467995817
sS'isAlive'
p7
I01
sS'geno'
p8
(lp9
F-4.0477149987856711
aF4.2270072799955809
aF0.039554385246129975
aF4.7926560870909505
aF-2.1102589460839329
asS'accel_x'
p10
F-0.1695156589499541
sS'accel_y'
p11
F-1.6461769541894049
sS'maxAccel'
p12
I2
sS'maxVel'
p13
F0.69999999999999996
sS'age'
p14
I250
sS'radius'
p15
I2
sS'gener'
p16
S'm'
sS'lastScale'
p17
F5.9999999999999964
sS'energy'
p18
F0.5499999999999996
sb.(i__main__
Data_mobile
p1
(dp2
S'vel_y'
p3
F0.66442987631266825
sS'vel_x'
p4
F0.22030192796054304
sS'pos_x'
p5
F169.70778410549059
sS'pos_y'
p6
F88.398222261311261
sS'isAlive'
p7
I01
sS'geno'
p8
(lp9
F-4.0477149987856711
aF4.2270072799955809
aF0.039554385246129975
aF4.7926560870909505
aF-2.1102589460839329
asS'accel_x'
p10
F-0.27373264974794964
sS'accel_y'
p11
F1.9811790520954855
sS'maxAccel'
p12
I2
sS'maxVel'
p13
F0.69999999999999996
sS'age'
p14
I900
sS'radius'
p15
I2
sS'gener'
p16
S'm'
sS'lastScale'
p17
F14.000000000000004
sS'energy'
p18
F1.3500000000000003
sb.(i__main__
Data_mobile
p1
(dp2
S'vel_y'
p3
F-0.63022356527554801
sS'vel_x'
p4
F-0.009672176176100597
sS'pos_x'
p5
F-123.27219951710973
sS'pos_y'
p6
F3.1008352571844267
sS'isAlive'
p7
I01
sS'geno'
p8
(lp9
F-4.1401920100861425
aF4.4252309131007284
aF0.039554385246129975
aF4.7926560870909505
aF-2.1102589460839329
asS'accel_x'
p10
F0
sS'accel_y'
p11
F0
sS'maxAccel'
p12
I2
sS'maxVel'
p13
F0.69999999999999996
sS'age'
p14
I0
sS'radius'
p15
I2
sS'gener'
p16
S'm'
sS'lastScale'
p17
F5.4999999999999956
sS'energy'
p18
F1
sb.(i__main__
Data_mobile
p1
(dp2
S'vel_y'
p3
F0.28057385240368948
sS'vel_x'
p4
F-0.64130984192303842
sS'pos_x'
p5
F-148.27147799002066
sS'pos_y'
p6
F-77.500838775203079
sS'isAlive'
p7
I01
sS'geno'
p8
(lp9
F-4.1401920100861425
aF4.3664807629413041
aF0.039554385246129975
aF4.7926560870909505
aF-2.1102589460839329
asS'accel_x'
p10
F-1.5293580718149453
sS'accel_y'
p11
F1.2888226752251344
sS'maxAccel'
p12
I2
sS'maxVel'
p13
F0.69999999999999996
sS'age'
p14
I150
sS'radius'
p15
I2
sS'gener'
p16
S'm'
sS'lastScale'
p17
F14.500000000000004
sS'energy'
p18
F1.4000000000000004
sb.(i__main__
Data_mobile
p1
(dp2
S'vel_y'
p3
F-0.67710275247711327
sS'vel_x'
p4
F0.16334928973714602
sS'pos_x'
p5
F-129.93760298923019
sS'pos_y'
p6
F-10.946452451001644
sS'isAlive'
p7
I01
sS'geno'
p8
(lp9
F-4.0477149987856711
aF4.2270072799955809
aF0.039554385246129975
aF4.7926560870909505
aF-2.1102589460839329
asS'accel_x'
p10
F0
sS'accel_y'
p11
F0
sS'maxAccel'
p12
I2
sS'maxVel'
p13
F0.69999999999999996
sS'age'
p14
I0
sS'radius'
p15
I2
sS'gener'
p16
S'm'
sS'lastScale'
p17
F5.4999999999999956
sS'energy'
p18
F1
sb.(i__main__
Data_mobile
p1
(dp2
S'vel_y'
p3
F-0.59950000984360052
sS'vel_x'
p4
F-0.36138585777188725
sS'pos_x'
p5
F-108.177523787675
sS'pos_y'
p6
F52.028345574358838
sS'isAlive'
p7
I01
sS'geno'
p8
(lp9
F-4.1401920100861425
aF4.3187333740770679
aF0.039554385246129975
aF4.7926560870909505
aF-2.1102589460839329
asS'accel_x'
p10
F0
sS'accel_y'
p11
F0
sS'maxAccel'
p12
I2
sS'maxVel'
p13
F0.69999999999999996
sS'age'
p14
I0
sS'radius'
p15
I2
sS'gener'
p16
S'm'
sS'lastScale'
p17
F5.4999999999999956
sS'energy'
p18
F1
sb.(i__main__
Data_mobile
p1
(dp2
S'vel_y'
p3
F0.39469487366358097
sS'vel_x'
p4
F0.57811413812818135
sS'pos_x'
p5
F-27.137717244451192
sS'pos_y'
p6
F25.796739967180955
sS'isAlive'
p7
I01
sS'geno'
p8
(lp9
F-4.1401920100861425
aF4.2270072799955809
aF0.039554385246129975
aF4.7926560870909505
aF-2.1102589460839329
asS'accel_x'
p10
F-1.2353965847268178
sS'accel_y'
p11
F-1.5728303400066119
sS'maxAccel'
p12
I2
sS'maxVel'
p13
F0.69999999999999996
sS'age'
p14
I200
sS'radius'
p15
I2
sS'gener'
p16
S'm'
sS'lastScale'
p17
F10.5
sS'energy'
p18
F1
sb.(i__main__
Data_mobile
p1
(dp2
S'vel_y'
p3
F0.58082458626460709
sS'vel_x'
p4
F0.39069527766604484
sS'pos_x'
p5
F155.18544494393311
sS'pos_y'
p6
F39.853053783842235
sS'isAlive'
p7
I01
sS'geno'
p8
(lp9
F-4.0477149987856711
aF4.2270072799955809
aF0.18179084758076125
aF4.7926560870909505
aF-1.8584472333988882
asS'accel_x'
p10
F1.4392155096198951
sS'accel_y'
p11
F1.3887615766824577
sS'maxAccel'
p12
I2
sS'maxVel'
p13
F0.69999999999999996
sS'age'
p14
I350
sS'radius'
p15
I2
sS'gener'
p16
S'm'
sS'lastScale'
p17
F11.5
sS'energy'
p18
F1.1000000000000001
sb.(i__main__
Data_mobile
p1
(dp2
S'vel_y'
p3
F0.36541592243523369
sS'vel_x'
p4
F0.2370955769952936
sS'pos_x'
p5
F-109.82762241457755
sS'pos_y'
p6
F-95.793805420848912
sS'isAlive'
p7
I01
sS'geno'
p8
(lp9
F-4.1401920100861425
aF4.6865720999676679
aF-0.37228882086623261
aF4.7926560870909505
aF-2.1102589460839329
asS'accel_x'
p10
F0
sS'accel_y'
p11
F0
sS'maxAccel'
p12
I2
sS'maxVel'
p13
F0.69999999999999996
sS'age'
p14
I0
sS'radius'
p15
I2
sS'gener'
p16
S'm'
sS'lastScale'
p17
F5.4999999999999956
sS'energy'
p18
F1
sb.(i__main__
Data_mobile
p1
(dp2
S'vel_y'
p3
F-0.69363941062150214
sS'vel_x'
p4
F0.094150772873381847
sS'pos_x'
p5
F-66.893082372355934
sS'pos_y'
p6
F-100.43761368553493
sS'isAlive'
p7
I01
sS'geno'
p8
(lp9
F-4.1401920100861425
aF4.2270072799955809
aF0.039554385246129975
aF4.7926560870909505
aF-2.1102589460839329
asS'accel_x'
p10
F-1.9479101955926315
sS'accel_y'
p11
F-0.45348194000012459
sS'maxAccel'
p12
I2
sS'maxVel'
p13
F0.69999999999999996
sS'age'
p14
I200
sS'radius'
p15
I2
sS'gener'
p16
S'm'
sS'lastScale'
p17
F8.9999999999999982
sS'energy'
p18
F0.84999999999999987
sb.(i__main__
Data_mobile
p1
(dp2
S'vel_y'
p3
F0.078493128157189257
sS'vel_x'
p4
F-0.0040158638787344825
sS'pos_x'
p5
F78.088861271791984
sS'pos_y'
p6
F-46.635886841454436
sS'isAlive'
p7
I01
sS'geno'
p8
(lp9
F-4.0477149987856711
aF4.2270072799955809
aF0.039554385246129975
aF4.7926560870909505
aF-2.1102589460839329
asS'accel_x'
p10
F0
sS'accel_y'
p11
F0
sS'maxAccel'
p12
I2
sS'maxVel'
p13
F0.69999999999999996
sS'age'
p14
I0
sS'radius'
p15
I2
sS'gener'
p16
S'm'
sS'lastScale'
p17
F5.4999999999999956
sS'energy'
p18
F1
sb.(i__main__
Data_mobile
p1
(dp2
S'vel_y'
p3
F-0.66080588761245496
sS'vel_x'
p4
F0.23094496941201251
sS'pos_x'
p5
F-67.481908308493004
sS'pos_y'
p6
F-102.66964743709181
sS'isAlive'
p7
I01
sS'geno'
p8
(lp9
F-4.1401920100861425
aF4.2270072799955809
aF0.039554385246129975
aF4.7926560870909505
aF-2.1102589460839329
asS'accel_x'
p10
F-1.784846804736995
sS'accel_y'
p11
F0.90239785218058821
sS'maxAccel'
p12
I2
sS'maxVel'
p13
F0.69999999999999996
sS'age'
p14
I400
sS'radius'
p15
I2
sS'gener'
p16
S'm'
sS'lastScale'
p17
F14.000000000000004
sS'energy'
p18
F1.3500000000000003
sb.(i__main__
Data_mobile
p1
(dp2
S'vel_y'
p3
F-0.42986018857092501
sS'vel_x'
p4
F-0.55246739114790189
sS'pos_x'
p5
F-114.5641915275164
sS'pos_y'
p6
F69.277330108433787
sS'isAlive'
p7
I01
sS'geno'
p8
(lp9
F-4.1401920100861425
aF4.2270072799955809
aF0.039554385246129975
aF4.7926560870909505
aF-2.1102589460839329
asS'accel_x'
p10
F1.1693276775537758
sS'accel_y'
p11
F1.6225513189131164
sS'maxAccel'
p12
I2
sS'maxVel'
p13
F0.69999999999999996
sS'age'
p14
I200
sS'radius'
p15
I2
sS'gener'
p16
S'm'
sS'lastScale'
p17
F14.500000000000004
sS'energy'
p18
F1.4000000000000004
sb.(i__main__
Data_mobile
p1
(dp2
S'vel_y'
p3
F0.52070888895121159
sS'vel_x'
p4
F0.46782716142523695
sS'pos_x'
p5
F182.52799313931092
sS'pos_y'
p6
F60.512852040292337
sS'isAlive'
p7
I01
sS'geno'
p8
(lp9
F-4.0477149987856711
aF4.2270072799955809
aF0.039554385246129975
aF4.7926560870909505
aF-2.1102589460839329
asS'accel_x'
p10
F1.6911074575533847
sS'accel_y'
p11
F1.0677806736438566
sS'maxAccel'
p12
I2
sS'maxVel'
p13
F0.69999999999999996
sS'age'
p14
I300
sS'radius'
p15
I2
sS'gener'
p16
S'm'
sS'lastScale'
p17
F14.500000000000004
sS'energy'
p18
F1.4000000000000004
sb.(i__main__
Data_mobile
p1
(dp2
S'vel_y'
p3
F0.58403728304363245
sS'vel_x'
p4
F0.38587621333144118
sS'pos_x'
p5
F159.20876569073155
sS'pos_y'
p6
F54.960252580673782
sS'isAlive'
p7
I01
sS'geno'
p8
(lp9
F-4.1401920100861425
aF4.2270072799955809
aF0.039554385246129975
aF4.7926560870909505
aF-2.1102589460839329
asS'accel_x'
p10
F1.0321433378433185
sS'accel_y'
p11
F1.7130908119961574
sS'maxAccel'
p12
I2
sS'maxVel'
p13
F0.69999999999999996
sS'age'
p14
I150
sS'radius'
p15
I2
sS'gener'
p16
S'm'
sS'lastScale'
p17
F13.000000000000002
sS'energy'
p18
F1.2500000000000002
sb.(i__main__
Data_mobile
p1
(dp2
S'vel_y'
p3
F0.66626917791749163
sS'vel_x'
p4
F-0.21467506272771827
sS'pos_x'
p5
F-132.99081154580165
sS'pos_y'
p6
F64.484244750144001
sS'isAlive'
p7
I01
sS'geno'
p8
(lp9
F-3.9156567953249546
aF4.2270072799955809
aF0.039554385246129975
aF4.7926560870909505
aF-2.1102589460839329
asS'accel_x'
p10
F-1.9418231651920037
sS'accel_y'
p11
F-0.4788765969680584
sS'maxAccel'
p12
I2
sS'maxVel'
p13
F0.69999999999999996
sS'age'
p14
I200
sS'radius'
p15
I2
sS'gener'
p16
S'm'
sS'lastScale'
p17
F14.500000000000004
sS'energy'
p18
F1.4000000000000004
sb.(i__main__
Data_mobile
p1
(dp2
S'vel_y'
p3
F-0.1402441551020201
sS'vel_x'
p4
F0.68580724475593036
sS'pos_x'
p5
F196.96574668878591
sS'pos_y'
p6
F-30.426645565377893
sS'isAlive'
p7
I01
sS'geno'
p8
(lp9
F-4.0477149987856711
aF4.2270072799955809
aF0.039554385246129975
aF4.7926560870909505
aF-2.1102589460839329
asS'accel_x'
p10
F1.992042055615604
sS'accel_y'
p11
F-0.17823705747896065
sS'maxAccel'
p12
I2
sS'maxVel'
p13
F0.69999999999999996
sS'age'
p14
I450
sS'radius'
p15
I2
sS'gener'
p16
S'm'
sS'lastScale'
p17
F14.500000000000004
sS'energy'
p18
F1.4000000000000004
sb.(i__main__
Data_mobile
p1
(dp2
S'vel_y'
p3
F0.5868296630705474
sS'vel_x'
p4
F0.38161622939873491
sS'pos_x'
p5
F164.2806371025676
sS'pos_y'
p6
F53.996955808437306
sS'isAlive'
p7
I01
sS'geno'
p8
(lp9
F-4.0477149987856711
aF4.2270072799955809
aF0.039554385246129975
aF4.7926560870909505
aF-2.2157338153525838
asS'accel_x'
p10
F1.2882316881504938
sS'accel_y'
p11
F1.5298559140144303
sS'maxAccel'
p12
I2
sS'maxVel'
p13
F0.69999999999999996
sS'age'
p14
I150
sS'radius'
p15
I2
sS'gener'
p16
S'm'
sS'lastScale'
p17
F13.000000000000002
sS'energy'
p18
F1.2500000000000002
sb.(i__main__
Data_mobile
p1
(dp2
S'vel_y'
p3
F0.56164436901340142
sS'vel_x'
p4
F0.4177985193314333
sS'pos_x'
p5
F171.20921749968093
sS'pos_y'
p6
F42.310984840350557
sS'isAlive'
p7
I01
sS'geno'
p8
(lp9
F-4.0244897678605893
aF4.2270072799955809
aF0.039554385246129975
aF4.7926560870909505
aF-2.1102589460839329
asS'accel_x'
p10
F1.2054410116357543
sS'accel_y'
p11
F1.5959047488702356
sS'maxAccel'
p12
I2
sS'maxVel'
p13
F0.69999999999999996
sS'age'
p14
I200
sS'radius'
p15
I2
sS'gener'
p16
S'm'
sS'lastScale'
p17
F10.5
sS'energy'
p18
F1
sb.(i__main__
Data_mobile
p1
(dp2
S'vel_y'
p3
F-0.67968747980902999
sS'vel_x'
p4
F0.16740648073133108
sS'pos_x'
p5
F-130.62225378951899
sS'pos_y'
p6
F-14.650604264283222
sS'isAlive'
p7
I01
sS'geno'
p8
(lp9
F-4.0477149987856711
aF4.2270072799955809
aF0.039554385246129975
aF4.7926560870909505
aF-2.1102589460839329
asS'accel_x'
p10
F-1.7503914596061394
sS'accel_y'
p11
F0.96753797762045957
sS'maxAccel'
p12
I2
sS'maxVel'
p13
F0.69999999999999996
sS'age'
p14
I200
sS'radius'
p15
I2
sS'gener'
p16
S'm'
sS'lastScale'
p17
F14.500000000000004
sS'energy'
p18
F1.4000000000000004
sb.(i__main__
Data_mobile
p1
(dp2
S'vel_y'
p3
F-0.19019277570763132
sS'vel_x'
p4
F-0.60094284596875258
sS'pos_x'
p5
F-126.46274884209159
sS'pos_y'
p6
F7.8534777975031513
sS'isAlive'
p7
I01
sS'geno'
p8
(lp9
F-4.0477149987856711
aF4.2270072799955809
aF0.039554385246129975
aF4.7926560870909505
aF-2.1102589460839329
asS'accel_x'
p10
F0
sS'accel_y'
p11
F0
sS'maxAccel'
p12
I2
sS'maxVel'
p13
F0.69999999999999996
sS'age'
p14
I0
sS'radius'
p15
I2
sS'gener'
p16
S'm'
sS'lastScale'
p17
F5.4999999999999956
sS'energy'
p18
F1
sb.(i__main__
Data_mobile
p1
(dp2
S'vel_y'
p3
F0.6224100015097791
sS'vel_x'
p4
F0.32032138551866424
sS'pos_x'
p5
F4.4375483225177064
sS'pos_y'
p6
F-33.372253344218606
sS'isAlive'
p7
I01
sS'geno'
p8
(lp9
F-4.1401920100861425
aF4.2270072799955809
aF0.039554385246129975
aF4.7926560870909505
aF-1.8584472333988882
asS'accel_x'
p10
F-1.8848766852749159
sS'accel_y'
p11
F0.66875995791243803
sS'maxAccel'
p12
I2
sS'maxVel'
p13
F0.69999999999999996
sS'age'
p14
I250
sS'radius'
p15
I2
sS'gener'
p16
S'm'
sS'lastScale'
p17
F11.5
sS'energy'
p18
F1.1000000000000001
sb.(i__main__
Data_mobile
p1
(dp2
S'vel_y'
p3
F0.68507945945780746
sS'vel_x'
p4
F-0.053290242495437484
sS'pos_x'
p5
F42.815146862586957
sS'pos_y'
p6
F42.677811238063498
sS'isAlive'
p7
I01
sS'geno'
p8
(lp9
F-4.0477149987856711
aF4.3664807629413041
aF0.039554385246129975
aF4.7926560870909505
aF-2.1102589460839329
asS'accel_x'
p10
F0
sS'accel_y'
p11
F0
sS'maxAccel'
p12
I2
sS'maxVel'
p13
F0.69999999999999996
sS'age'
p14
I0
sS'radius'
p15
I2
sS'gener'
p16
S'm'
sS'lastScale'
p17
F5.4999999999999956
sS'energy'
p18
F1
sb.(i__main__
Data_mobile
p1
(dp2
S'vel_y'
p3
F-0.13552374911450663
sS'vel_x'
p4
F-0.68675564317007853
sS'pos_x'
p5
F-114.908551998462
sS'pos_y'
p6
F70.364905771134787
sS'isAlive'
p7
I01
sS'geno'
p8
(lp9
F-4.0477149987856711
aF4.2270072799955809
aF0.039554385246129975
aF4.7926560870909505
aF-2.1102589460839329
asS'accel_x'
p10
F0.8420055166107967
sS'accel_y'
p11
F1.8141187144167235
sS'maxAccel'
p12
I2
sS'maxVel'
p13
F0.69999999999999996
sS'age'
p14
I250
sS'radius'
p15
I2
sS'gener'
p16
S'm'
sS'lastScale'
p17
F14.500000000000004
sS'energy'
p18
F1.4000000000000004
sb.(i__main__
Data_mobile
p1
(dp2
S'vel_y'
p3
F-0.4652142491076024
sS'vel_x'
p4
F-0.52304464668635087
sS'pos_x'
p5
F48.434339073259068
sS'pos_y'
p6
F-8.4811758164955648
sS'isAlive'
p7
I01
sS'geno'
p8
(lp9
F-4.1401920100861425
aF4.2270072799955809
aF0.039554385246129975
aF4.7926560870909505
aF-2.1102589460839329
asS'accel_x'
p10
F-1.5762910175629234
sS'accel_y'
p11
F-1.2309779152976075
sS'maxAccel'
p12
I2
sS'maxVel'
p13
F0.69999999999999996
sS'age'
p14
I200
sS'radius'
p15
I2
sS'gener'
p16
S'm'
sS'lastScale'
p17
F6.4999999999999964
sS'energy'
p18
F0.59999999999999964
sb.(i__main__
Data_mobile
p1
(dp2
S'vel_y'
p3
F-0.017549555377007364
sS'vel_x'
p4
F0.075450623811529283
sS'pos_x'
p5
F-113.16441837786422
sS'pos_y'
p6
F10.795950929263135
sS'isAlive'
p7
I01
sS'geno'
p8
(lp9
F-3.9156567953249546
aF4.2270072799955809
aF0.039554385246129975
aF4.7926560870909505
aF-2.1102589460839329
asS'accel_x'
p10
F0
sS'accel_y'
p11
F0
sS'maxAccel'
p12
I2
sS'maxVel'
p13
F0.69999999999999996
sS'age'
p14
I0
sS'radius'
p15
I2
sS'gener'
p16
S'm'
sS'lastScale'
p17
F5.4999999999999956
sS'energy'
p18
F1
sb.(i__main__
Data_mobile
p1
(dp2
S'vel_y'
p3
F0.39995306943022629
sS'vel_x'
p4
F-0.57448894006180873
sS'pos_x'
p5
F5.0918204282380284
sS'pos_y'
p6
F-33.250030776452867
sS'isAlive'
p7
I01
sS'geno'
p8
(lp9
F-3.9156567953249546
aF4.2270072799955809
aF0.039554385246129975
aF4.7926560870909505
aF-2.1102589460839329
asS'accel_x'
p10
F-0.24003835443753205
sS'accel_y'
p11
F1.9855431469497009
sS'maxAccel'
p12
I2
sS'maxVel'
p13
F0.69999999999999996
sS'age'
p14
I250
sS'radius'
p15
I2
sS'gener'
p16
S'm'
sS'lastScale'
p17
F12.000000000000002
sS'energy'
p18
F1.1500000000000001
sb.(i__main__
Data_mobile
p1
(dp2
S'vel_y'
p3
F0.69979299158653907
sS'vel_x'
p4
F0.017022600458270663
sS'pos_x'
p5
F-77.002894343894056
sS'pos_y'
p6
F-81.799784381040837
sS'isAlive'
p7
I01
sS'geno'
p8
(lp9
F-4.1401920100861425
aF4.2270072799955809
aF0.039554385246129975
aF4.7926560870909505
aF-2.1102589460839329
asS'accel_x'
p10
F1.9856748710437557
sS'accel_y'
p11
F-0.23894624187328031
sS'maxAccel'
p12
I2
sS'maxVel'
p13
F0.69999999999999996
sS'age'
p14
I100
sS'radius'
p15
I2
sS'gener'
p16
S'm'
sS'lastScale'
p17
F11.5
sS'energy'
p18
F1.1000000000000001
sb.(i__main__
Data_mobile
p1
(dp2
S'vel_y'
p3
F-0.46231424936114512
sS'vel_x'
p4
F-0.52560967917042856
sS'pos_x'
p5
F64.730988477592447
sS'pos_y'
p6
F3.701213487828023
sS'isAlive'
p7
I01
sS'geno'
p8
(lp9
F-4.0477149987856711
aF4.2270072799955809
aF0.18179084758076125
aF4.7926560870909505
aF-2.1102589460839329
asS'accel_x'
p10
F-0.14800267891066365
sS'accel_y'
p11
F-0.81761576759355437
sS'maxAccel'
p12
I2
sS'maxVel'
p13
F0.69999999999999996
sS'age'
p14
I200
sS'radius'
p15
I2
sS'gener'
p16
S'm'
sS'lastScale'
p17
F9.5
sS'energy'
p18
F0.89999999999999991
sb.(i__main__
Data_mobile
p1
(dp2
S'vel_y'
p3
F0.58918777604097827
sS'vel_x'
p4
F0.37796529544904778
sS'pos_x'
p5
F158.5799797248051
sS'pos_y'
p6
F38.740488767360638
sS'isAlive'
p7
I01
sS'geno'
p8
(lp9
F-4.0477149987856711
aF4.2270072799955809
aF0.039554385246129975
aF4.7926560870909505
aF-2.1102589460839329
asS'accel_x'
p10
F1.2741202910953897
sS'accel_y'
p11
F1.5416281924702206
sS'maxAccel'
p12
I2
sS'maxVel'
p13
F0.69999999999999996
sS'age'
p14
I200
sS'radius'
p15
I2
sS'gener'
p16
S'm'
sS'lastScale'
p17
F7.9999999999999982
sS'energy'
p18
F0.74999999999999978
sb.(i__main__
Data_mobile
p1
(dp2
S'vel_y'
p3
F-0.57065211620562017
sS'vel_x'
p4
F-0.22293536593419877
sS'pos_x'
p5
F-116.74502911307256
sS'pos_y'
p6
F18.864891736130616
sS'isAlive'
p7
I01
sS'geno'
p8
(lp9
F-4.0477149987856711
aF4.2270072799955809
aF0.039554385246129975
aF4.7926560870909505
aF-2.1102589460839329
asS'accel_x'
p10
F0
sS'accel_y'
p11
F0
sS'maxAccel'
p12
I2
sS'maxVel'
p13
F0.69999999999999996
sS'age'
p14
I0
sS'radius'
p15
I2
sS'gener'
p16
S'm'
sS'lastScale'
p17
F5.4999999999999956
sS'energy'
p18
F1
sb.(i__main__
Data_mobile
p1
(dp2
S'vel_y'
p3
F0.58980207604896073
sS'vel_x'
p4
F0.37700598282830444
sS'pos_x'
p5
F159.78903372788267
sS'pos_y'
p6
F38.360148027874537
sS'isAlive'
p7
I01
sS'geno'
p8
(lp9
F-4.0477149987856711
aF4.6608427574947662
aF0.039554385246129975
aF4.7926560870909505
aF-2.1102589460839329
asS'accel_x'
p10
F1.2989445619588216
sS'accel_y'
p11
F1.5207705365891346
sS'maxAccel'
p12
I2
sS'maxVel'
p13
F0.69999999999999996
sS'age'
p14
I150
sS'radius'
p15
I2
sS'gener'
p16
S'm'
sS'lastScale'
p17
F7.9999999999999982
sS'energy'
p18
F0.74999999999999978
sb.(i__main__
Data_mobile
p1
(dp2
S'vel_y'
p3
F-0.21386728517835096
sS'vel_x'
p4
F-0.66652890734794223
sS'pos_x'
p5
F54.01535641319564
sS'pos_y'
p6
F75.783502350280941
sS'isAlive'
p7
I01
sS'geno'
p8
(lp9
F-4.0477149987856711
aF4.1772408302912245
aF0.039554385246129975
aF4.5273956539349953
aF-2.1102589460839329
asS'accel_x'
p10
F-0.94670715449754173
sS'accel_y'
p11
F-1.7617450336592888
sS'maxAccel'
p12
I2
sS'maxVel'
p13
F0.69999999999999996
sS'age'
p14
I150
sS'radius'
p15
I2
sS'gener'
p16
S'm'
sS'lastScale'
p17
F5.9999999999999964
sS'energy'
p18
F0.5499999999999996
sb.(i__main__
Data_mobile
p1
(dp2
S'vel_y'
p3
F0.54536379517161626
sS'vel_x'
p4
F0.39584018893172063
sS'pos_x'
p5
F72.574801008590441
sS'pos_y'
p6
F-6.5209684545468463
sS'isAlive'
p7
I01
sS'geno'
p8
(lp9
F-4.0477149987856711
aF4.2270072799955809
aF0.039554385246129975
aF4.7926560870909505
aF-2.1102589460839329
asS'accel_x'
p10
F0
sS'accel_y'
p11
F0
sS'maxAccel'
p12
I2
sS'maxVel'
p13
F0.69999999999999996
sS'age'
p14
I0
sS'radius'
p15
I2
sS'gener'
p16
S'm'
sS'lastScale'
p17
F5.4999999999999956
sS'energy'
p18
F1
sb.(i__main__
Data_mobile
p1
(dp2
S'vel_y'
p3
F0.10799104065143639
sS'vel_x'
p4
F-0.12332039114064235
sS'pos_x'
p5
F-21.985138474071853
sS'pos_y'
p6
F72.922407916630391
sS'isAlive'
p7
I01
sS'geno'
p8
(lp9
F-4.0477149987856711
aF4.2270072799955809
aF0.039554385246129975
aF4.7926560870909505
aF-2.1102589460839329
asS'accel_x'
p10
F0
sS'accel_y'
p11
F0
sS'maxAccel'
p12
I2
sS'maxVel'
p13
F0.69999999999999996
sS'age'
p14
I0
sS'radius'
p15
I2
sS'gener'
p16
S'm'
sS'lastScale'
p17
F5.4999999999999956
sS'energy'
p18
F1
sb.(i__main__
Data_mobile
p1
(dp2
S'vel_y'
p3
F0.62028525601011508
sS'vel_x'
p4
F0.32441670915115628
sS'pos_x'
p5
F-86.78916133826749
sS'pos_y'
p6
F-95.526420897629407
sS'isAlive'
p7
I01
sS'geno'
p8
(lp9
F-4.1401920100861425
aF4.6865720999676679
aF0.039554385246129975
aF4.7926560870909505
aF-2.1102589460839329
asS'accel_x'
p10
F1.681129739103606
sS'accel_y'
p11
F-1.0834218016550345
sS'maxAccel'
p12
I2
sS'maxVel'
p13
F0.69999999999999996
sS'age'
p14
I100
sS'radius'
p15
I2
sS'gener'
p16
S'm'
sS'lastScale'
p17
F11
sS'energy'
p18
F1.05
sb.(i__main__
Data_mobile
p1
(dp2
S'vel_y'
p3
F0.5733048552642046
sS'vel_x'
p4
F0.40164853159259706
sS'pos_x'
p5
F161.49535000036681
sS'pos_y'
p6
F55.248037628417393
sS'isAlive'
p7
I01
sS'geno'
p8
(lp9
F-4.0477149987856711
aF4.2270072799955809
aF0.039554385246129975
aF4.7926560870909505
aF-2.1102589460839329
asS'accel_x'
p10
F1.098591820118717
sS'accel_y'
p11
F1.6712558190678781
sS'maxAccel'
p12
I2
sS'maxVel'
p13
F0.69999999999999996
sS'age'
p14
I100
sS'radius'
p15
I2
sS'gener'
p16
S'm'
sS'lastScale'
p17
F11
sS'energy'
p18
F1.05
sb.(i__main__
Data_mobile
p1
(dp2
S'vel_y'
p3
F0.56321279047852135
sS'vel_x'
p4
F0.415681792530533
sS'pos_x'
p5
F155.55564282707161
sS'pos_y'
p6
F53.927731901488521
sS'isAlive'
p7
I01
sS'geno'
p8
(lp9
F-3.8846641075967812
aF4.2270072799955809
aF0.039554385246129975
aF4.7926560870909505
aF-2.1102589460839329
asS'accel_x'
p10
F1.1210088979668886
sS'accel_y'
p11
F1.6563028257776604
sS'maxAccel'
p12
I2
sS'maxVel'
p13
F0.69999999999999996
sS'age'
p14
I100
sS'radius'
p15
I2
sS'gener'
p16
S'm'
sS'lastScale'
p17
F7.4999999999999973
sS'energy'
p18
F0.69999999999999973
sb.(i__main__
Data_mobile
p1
(dp2
S'vel_y'
p3
F0.57613098136269458
sS'vel_x'
p4
F0.39758406949230057
sS'pos_x'
p5
F163.05963505823993
sS'pos_y'
p6
F54.60300965919096
sS'isAlive'
p7
I01
sS'geno'
p8
(lp9
F-3.8846641075967812
aF4.2270072799955809
aF0.039554385246129975
aF4.7926560870909505
aF-2.1102589460839329
asS'accel_x'
p10
F1.0394705082768472
sS'accel_y'
p11
F1.7086547522605828
sS'maxAccel'
p12
I2
sS'maxVel'
p13
F0.69999999999999996
sS'age'
p14
I100
sS'radius'
p15
I2
sS'gener'
p16
S'm'
sS'lastScale'
p17
F13.000000000000002
sS'energy'
p18
F1.2500000000000002
sb.(i__main__
Data_mobile
p1
(dp2
S'vel_y'
p3
F-0.56243369510055885
sS'vel_x'
p4
F-0.41673533401372553
sS'pos_x'
p5
F53.413988170816651
sS'pos_y'
p6
F-117.18446728912569
sS'isAlive'
p7
I01
sS'geno'
p8
(lp9
F-4.0477149987856711
aF4.2270072799955809
aF0.039554385246129975
aF4.7926560870909505
aF-2.1102589460839329
asS'accel_x'
p10
F-0.85521632468287745
sS'accel_y'
p11
F-1.6966214765339749
sS'maxAccel'
p12
I2
sS'maxVel'
p13
F0.69999999999999996
sS'age'
p14
I100
sS'radius'
p15
I2
sS'gener'
p16
S'm'
sS'lastScale'
p17
F7.4999999999999973
sS'energy'
p18
F0.69999999999999973
sb.(i__main__
Data_mobile
p1
(dp2
S'vel_y'
p3
F0.69393359197217575
sS'vel_x'
p4
F-0.09195743543941283
sS'pos_x'
p5
F-18.095664558873548
sS'pos_y'
p6
F38.409520487673532
sS'isAlive'
p7
I01
sS'geno'
p8
(lp9
F-4.0477149987856711
aF4.3664807629413041
aF0.039554385246129975
aF4.7926560870909505
aF-2.1102589460839329
asS'accel_x'
p10
F-1.9978315294382567
sS'accel_y'
p11
F0.093108431317455054
sS'maxAccel'
p12
I2
sS'maxVel'
p13
F0.69999999999999996
sS'age'
p14
I100
sS'radius'
p15
I2
sS'gener'
p16
S'm'
sS'lastScale'
p17
F12.000000000000002
sS'energy'
p18
F1.1500000000000001
sb.(i__main__
Data_mobile
p1
(dp2
S'vel_y'
p3
F-0.10935364388507064
sS'vel_x'
p4
F-0.69140565558075751
sS'pos_x'
p5
F54.507549153070272
sS'pos_y'
p6
F-29.549269110515127
sS'isAlive'
p7
I01
sS'geno'
p8
(lp9
F-4.0477149987856711
aF4.2270072799955809
aF-0.42771251273077893
aF4.7926560870909505
aF-2.1102589460839329
asS'accel_x'
p10
F-1.9244079620167618
sS'accel_y'
p11
F-0.54465952275388829
sS'maxAccel'
p12
I2
sS'maxVel'
p13
F0.69999999999999996
sS'age'
p14
I100
sS'radius'
p15
I2
sS'gener'
p16
S'm'
sS'lastScale'
p17
F8.4999999999999982
sS'energy'
p18
F0.79999999999999982
sb.(i__main__
Data_mobile
p1
(dp2
S'vel_y'
p3
F-0.098355637298722057
sS'vel_x'
p4
F-0.69305567497248177
sS'pos_x'
p5
F11.852841362620559
sS'pos_y'
p6
F-47.034506145517931
sS'isAlive'
p7
I01
sS'geno'
p8
(lp9
F-3.7422605123196977
aF4.2270072799955809
aF0.039554385246129975
aF4.7926560870909505
aF-2.1102589460839329
asS'accel_x'
p10
F1.9724836363637017
sS'accel_y'
p11
F-0.3306180640519033
sS'maxAccel'
p12
I2
sS'maxVel'
p13
F0.69999999999999996
sS'age'
p14
I100
sS'radius'
p15
I2
sS'gener'
p16
S'm'
sS'lastScale'
p17
F14.500000000000004
sS'energy'
p18
F1.4000000000000004
sb.(i__main__
Data_mobile
p1
(dp2
S'vel_y'
p3
F0.29000857253409984
sS'vel_x'
p4
F-0.63709891528453688
sS'pos_x'
p5
F-7.1564087843813962
sS'pos_y'
p6
F39.602241696945512
sS'isAlive'
p7
I01
sS'geno'
p8
(lp9
F-4.1401920100861425
aF4.2270072799955809
aF0.039554385246129975
aF4.7926560870909505
aF-2.1102589460839329
asS'accel_x'
p10
F1.9998206265113847
sS'accel_y'
p11
F-0.026785477027904504
sS'maxAccel'
p12
I2
sS'maxVel'
p13
F0.69999999999999996
sS'age'
p14
I100
sS'radius'
p15
I2
sS'gener'
p16
S'm'
sS'lastScale'
p17
F6.4999999999999964
sS'energy'
p18
F0.59999999999999964
sb.(i__main__
Data_mobile
p1
(dp2
S'vel_y'
p3
F0.68643608270938405
sS'vel_x'
p4
F0.13713316285492586
sS'pos_x'
p5
F-82.283774774644002
sS'pos_y'
p6
F-86.424473812617791
sS'isAlive'
p7
I01
sS'geno'
p8
(lp9
F-4.0477149987856711
aF4.2270072799955809
aF-1.0959959911405193e-005
aF4.7926560870909505
aF-2.1102589460839329
asS'accel_x'
p10
F1.9163519306683421
sS'accel_y'
p11
F-0.57235939568047467
sS'maxAccel'
p12
I2
sS'maxVel'
p13
F0.69999999999999996
sS'age'
p14
I100
sS'radius'
p15
I2
sS'gener'
p16
S'm'
sS'lastScale'
p17
F12.000000000000002
sS'energy'
p18
F1.1500000000000001
sb.(i__main__
Data_mobile
p1
(dp2
S'vel_y'
p3
F0.072720033069289688
sS'vel_x'
p4
F-0.69621246526502334
sS'pos_x'
p5
F-96.620096045270557
sS'pos_y'
p6
F-19.46140277061405
sS'isAlive'
p7
I01
sS'geno'
p8
(lp9
F-4.1401920100861425
aF4.2270072799955809
aF0.039554385246129975
aF4.7926560870909505
aF-1.8584472333988882
asS'accel_x'
p10
F-1.9477656831437544
sS'accel_y'
p11
F0.45410223911311398
sS'maxAccel'
p12
I2
sS'maxVel'
p13
F0.69999999999999996
sS'age'
p14
I100
sS'radius'
p15
I2
sS'gener'
p16
S'm'
sS'lastScale'
p17
F8.9999999999999982
sS'energy'
p18
F0.84999999999999987
sb.(i__main__
Data_mobile
p1
(dp2
S'vel_y'
p3
F-0.59950000984360052
sS'vel_x'
p4
F-0.36138585777188725
sS'pos_x'
p5
F-108.177523787675
sS'pos_y'
p6
F52.028345574358845
sS'isAlive'
p7
I01
sS'geno'
p8
(lp9
F-4.1401920100861425
aF4.3187333740770679
aF0.039554385246129975
aF4.7926560870909505
aF-2.1102589460839329
asS'accel_x'
p10
F0.018413293012943487
sS'accel_y'
p11
F-1.9999152358638652
sS'maxAccel'
p12
I2
sS'maxVel'
p13
F0.69999999999999996
sS'age'
p14
I100
sS'radius'
p15
I2
sS'gener'
p16
S'm'
sS'lastScale'
p17
F14.500000000000004
sS'energy'
p18
F1.4000000000000004
sb.(i__main__
Data_mobile
p1
(dp2
S'vel_y'
p3
F0.32743243457218391
sS'vel_x'
p4
F-0.61869863487010568
sS'pos_x'
p5
F-8.4296974576328356
sS'pos_y'
p6
F29.409081179308441
sS'isAlive'
p7
I01
sS'geno'
p8
(lp9
F-4.0477149987856711
aF4.2270072799955809
aF0.039554385246129975
aF4.7926560870909505
aF-2.1102589460839329
asS'accel_x'
p10
F1.2753940302939308
sS'accel_y'
p11
F-1.540574590044443
sS'maxAccel'
p12
I2
sS'maxVel'
p13
F0.69999999999999996
sS'age'
p14
I100
sS'radius'
p15
I2
sS'gener'
p16
S'm'
sS'lastScale'
p17
F11
sS'energy'
p18
F1.05
sb.(i__main__
Data_mobile
p1
(dp2
S'vel_y'
p3
F0.55576938200998449
sS'vel_x'
p4
F0.42558241742374631
sS'pos_x'
p5
F170.31371906377061
sS'pos_y'
p6
F50.696433789864109
sS'isAlive'
p7
I01
sS'geno'
p8
(lp9
F-4.1401920100861425
aF4.2270072799955809
aF0.42369195940472948
aF4.7926560870909505
aF-1.8584472333988882
asS'accel_x'
p10
F1.2575960752887074
sS'accel_y'
p11
F1.5551373287971837
sS'maxAccel'
p12
I2
sS'maxVel'
p13
F0.69999999999999996
sS'age'
p14
I100
sS'radius'
p15
I2
sS'gener'
p16
S'm'
sS'lastScale'
p17
F10
sS'energy'
p18
F0.94999999999999996
sb.(i__main__
Data_mobile
p1
(dp2
S'vel_y'
p3
F0.55380652644418837
sS'vel_x'
p4
F0.42813354373118501
sS'pos_x'
p5
F168.84948733400779
sS'pos_y'
p6
F45.574267671890944
sS'isAlive'
p7
I01
sS'geno'
p8
(lp9
F-4.0477149987856711
aF4.2270072799955809
aF0.039554385246129975
aF4.7926560870909505
aF-2.1102589460839329
asS'accel_x'
p10
F1.2599927712860122
sS'accel_y'
p11
F1.553196129375487
sS'maxAccel'
p12
I2
sS'maxVel'
p13
F0.69999999999999996
sS'age'
p14
I100
sS'radius'
p15
I2
sS'gener'
p16
S'm'
sS'lastScale'
p17
F10.5
sS'energy'
p18
F1
sb.(i__main__
Data_mobile
p1
(dp2
S'vel_y'
p3
F0.58152457121585344
sS'vel_x'
p4
F0.38965263129127942
sS'pos_x'
p5
F154.31741352168345
sS'pos_y'
p6
F42.010707974787657
sS'isAlive'
p7
I01
sS'geno'
p8
(lp9
F-3.8846641075967812
aF4.2270072799955809
aF0.039554385246129975
aF4.4231285393636393
aF-1.7492125058562058
asS'accel_x'
p10
F1.308975739875889
sS'accel_y'
p11
F1.512145003766626
sS'maxAccel'
p12
I2
sS'maxVel'
p13
F0.69999999999999996
sS'age'
p14
I100
sS'radius'
p15
I2
sS'gener'
p16
S'm'
sS'lastScale'
p17
F8.4999999999999982
sS'energy'
p18
F0.79999999999999982
sb.(i__main__
Data_mobile
p1
(dp2
S'vel_y'
p3
F0.5897069258782196
sS'vel_x'
p4
F0.37715479788975237
sS'pos_x'
p5
F166.09645759949112
sS'pos_y'
p6
F53.228793299644934
sS'isAlive'
p7
I01
sS'geno'
p8
(lp9
F-4.0477149987856711
aF4.2270072799955809
aF0.039554385246129975
aF4.7926560870909505
aF-2.2157338153525838
asS'accel_x'
p10
F1.3229463837904056
sS'accel_y'
p11
F1.4999376205748987
sS'maxAccel'
p12
I2
sS'maxVel'
p13
F0.69999999999999996
sS'age'
p14
I100
sS'radius'
p15
I2
sS'gener'
p16
S'm'
sS'lastScale'
p17
F13.000000000000002
sS'energy'
p18
F1.2500000000000002
sb.(i__main__
Data_mobile
p1
(dp2
S'vel_y'
p3
F0.58837260584633544
sS'vel_x'
p4
F0.37923301107576696
sS'pos_x'
p5
F167.7610144514571
sS'pos_y'
p6
F52.403942536258242
sS'isAlive'
p7
I01
sS'geno'
p8
(lp9
F-4.0477149987856711
aF4.2270072799955809
aF0.039554385246129975
aF4.7926560870909505
aF-2.1102589460839329
asS'accel_x'
p10
F1.3281981782679655
sS'accel_y'
p11
F1.4952891356676334
sS'maxAccel'
p12
I2
sS'maxVel'
p13
F0.69999999999999996
sS'age'
p14
I100
sS'radius'
p15
I2
sS'gener'
p16
S'm'
sS'lastScale'
p17
F12.500000000000002
sS'energy'
p18
F1.2000000000000002
sb.(i__main__
Data_mobile
p1
(dp2
S'vel_y'
p3
F0.36585226788745751
sS'vel_x'
p4
F-0.59678481723449039
sS'pos_x'
p5
F-17.105669409412702
sS'pos_y'
p6
F46.437070726023876
sS'isAlive'
p7
I01
sS'geno'
p8
(lp9
F-4.0477149987856711
aF4.2270072799955809
aF0.039554385246129975
aF4.7926560870909505
aF-2.1102589460839329
asS'accel_x'
p10
F-1.0157103575273299
sS'accel_y'
p11
F1.7228849263986565
sS'maxAccel'
p12
I2
sS'maxVel'
p13
F0.69999999999999996
sS'age'
p14
I100
sS'radius'
p15
I2
sS'gener'
p16
S'm'
sS'lastScale'
p17
F12.000000000000002
sS'energy'
p18
F1.1500000000000001
sb.(i__main__
Data_mobile
p1
(dp2
S'vel_y'
p3
F0.69845308513031146
sS'vel_x'
p4
F-0.046511158574580339
sS'pos_x'
p5
F-20.961883999726936
sS'pos_y'
p6
F39.465476070969331
sS'isAlive'
p7
I01
sS'geno'
p8
(lp9
F-4.1401920100861425
aF4.1772408302912245
aF0.039554385246129975
aF4.5273956539349953
aF-2.1102589460839329
asS'accel_x'
p10
F-1.9590107800980974
sS'accel_y'
p11
F0.40283590140334252
sS'maxAccel'
p12
I2
sS'maxVel'
p13
F0.69999999999999996
sS'age'
p14
I100
sS'radius'
p15
I2
sS'gener'
p16
S'm'
sS'lastScale'
p17
F6.4999999999999964
sS'energy'
p18
F0.59999999999999964
sb.(i__main__
Data_mobile
p1
(dp2
S'vel_y'
p3
F-0.2981700483418262
sS'vel_x'
p4
F-0.63332031569485669
sS'pos_x'
p5
F11.928052816176324
sS'pos_y'
p6
F-50.693008198909276
sS'isAlive'
p7
I01
sS'geno'
p8
(lp9
F-4.0477149987856711
aF4.2270072799955809
aF0.039554385246129975
aF4.7926560870909505
aF-2.1102589460839329
asS'accel_x'
p10
F1.9994911667660946
sS'accel_y'
p11
F-0.045111794736643632
sS'maxAccel'
p12
I2
sS'maxVel'
p13
F0.69999999999999996
sS'age'
p14
I100
sS'radius'
p15
I2
sS'gener'
p16
S'm'
sS'lastScale'
p17
F14.000000000000004
sS'energy'
p18
F1.3500000000000003
sb.(i__main__
Data_mobile
p1
(dp2
S'vel_y'
p3
F-0.14749390826708572
sS'vel_x'
p4
F-0.68428469734760278
sS'pos_x'
p5
F177.3291871287548
sS'pos_y'
p6
F-34.918499668599608
sS'isAlive'
p7
I01
sS'geno'
p8
(lp9
F-4.1401920100861425
aF4.2270072799955809
aF0.039554385246129975
aF4.7926560870909505
aF-2.1102589460839329
asS'accel_x'
p10
F1.977080111824044
sS'accel_y'
p11
F0.30191759046108163
sS'maxAccel'
p12
I2
sS'maxVel'
p13
F0.69999999999999996
sS'age'
p14
I100
sS'radius'
p15
I2
sS'gener'
p16
S'm'
sS'lastScale'
p17
F14.500000000000004
sS'energy'
p18
F1.4000000000000004
sb.(i__main__
Data_mobile
p1
(dp2
S'vel_y'
p3
F0.50425690652369304
sS'vel_x'
p4
F-0.14593766321329812
sS'pos_x'
p5
F-81.484916159593183
sS'pos_y'
p6
F-74.98961827574432
sS'isAlive'
p7
I01
sS'geno'
p8
(lp9
F-4.0477149987856711
aF4.2270072799955809
aF0.039554385246129975
aF4.7926560870909505
aF-2.1102589460839329
asS'accel_x'
p10
F0
sS'accel_y'
p11
F0
sS'maxAccel'
p12
I2
sS'maxVel'
p13
F0.69999999999999996
sS'age'
p14
I0
sS'radius'
p15
I2
sS'gener'
p16
S'm'
sS'lastScale'
p17
F5.4999999999999956
sS'energy'
p18
F1
sb.(i__main__
Data_mobile
p1
(dp2
S'vel_y'
p3
F-0.51228554744052379
sS'vel_x'
p4
F-0.43188513674585688
sS'pos_x'
p5
F-105.28444105860046
sS'pos_y'
p6
F46.543862283749448
sS'isAlive'
p7
I01
sS'geno'
p8
(lp9
F-4.1401920100861425
aF4.2270072799955809
aF0.039554385246129975
aF4.5858009179466439
aF-2.1075430856342559
asS'accel_x'
p10
F0
sS'accel_y'
p11
F0
sS'maxAccel'
p12
I2
sS'maxVel'
p13
F0.69999999999999996
sS'age'
p14
I0
sS'radius'
p15
I2
sS'gener'
p16
S'm'
sS'lastScale'
p17
F5.4999999999999956
sS'energy'
p18
F1
sb.(i__main__
Data_mobile
p1
(dp2
S'vel_y'
p3
F0.52112361635848947
sS'vel_x'
p4
F-0.46736514255285416
sS'pos_x'
p5
F-9.2786335486996823
sS'pos_y'
p6
F45.363522417165633
sS'isAlive'
p7
I01
sS'geno'
p8
(lp9
F-4.1401920100861425
aF4.6069114420658677
aF-0.27975852581918792
aF4.7926560870909505
aF-1.7502707017720511
asS'accel_x'
p10
F1.1976575207177043
sS'accel_y'
p11
F1.60175418309687
sS'maxAccel'
p12
I2
sS'maxVel'
p13
F0.69999999999999996
sS'age'
p14
I100
sS'radius'
p15
I2
sS'gener'
p16
S'm'
sS'lastScale'
p17
F7.4999999999999973
sS'energy'
p18
F0.69999999999999973
sb.(i__main__
Data_mobile
p1
(dp2
S'vel_y'
p3
F-0.66377123805977467
sS'vel_x'
p4
F0.11042702937666024
sS'pos_x'
p5
F-105.93522224763745
sS'pos_y'
p6
F44.972131995680122
sS'isAlive'
p7
I01
sS'geno'
p8
(lp9
F-4.0477149987856711
aF4.2270072799955809
aF0.039554385246129975
aF4.7926560870909505
aF-2.1102589460839329
asS'accel_x'
p10
F0
sS'accel_y'
p11
F0
sS'maxAccel'
p12
I2
sS'maxVel'
p13
F0.69999999999999996
sS'age'
p14
I0
sS'radius'
p15
I2
sS'gener'
p16
S'm'
sS'lastScale'
p17
F5.4999999999999956
sS'energy'
p18
F1
sb.(i__main__
Data_mobile
p1
(dp2
S'vel_y'
p3
F-0.59950000984360052
sS'vel_x'
p4
F-0.36138585777188725
sS'pos_x'
p5
F-108.177523787675
sS'pos_y'
p6
F52.028345574358845
sS'isAlive'
p7
I01
sS'geno'
p8
(lp9
F-4.1401920100861425
aF4.3187333740770679
aF0.039554385246129975
aF4.7926560870909505
aF-2.1102589460839329
asS'accel_x'
p10
F0
sS'accel_y'
p11
F0
sS'maxAccel'
p12
I2
sS'maxVel'
p13
F0.69999999999999996
sS'age'
p14
I0
sS'radius'
p15
I2
sS'gener'
p16
S'm'
sS'lastScale'
p17
F15.5
sS'energy'
p18
F1
sb.(i__main__
Data_mobile
p1
(dp2
S'vel_y'
p3
F-0.59950000984360052
sS'vel_x'
p4
F-0.36138585777188725
sS'pos_x'
p5
F-108.177523787675
sS'pos_y'
p6
F52.028345574358845
sS'isAlive'
p7
I01
sS'geno'
p8
(lp9
F-4.1401920100861425
aF4.3187333740770679
aF0.039554385246129975
aF4.7926560870909505
aF-2.1102589460839329
asS'accel_x'
p10
F0
sS'accel_y'
p11
F0
sS'maxAccel'
p12
I2
sS'maxVel'
p13
F0.69999999999999996
sS'age'
p14
I0
sS'radius'
p15
I2
sS'gener'
p16
S'm'
sS'lastScale'
p17
F15.5
sS'energy'
p18
F1
sb.(i__main__
Data_mobile
p1
(dp2
S'vel_y'
p3
F0.58189647669218814
sS'vel_x'
p4
F0.38906125878268444
sS'pos_x'
p5
F159.10009906182839
sS'pos_y'
p6
F44.652002829947421
sS'isAlive'
p7
I01
sS'geno'
p8
(lp9
F-4.0477149987856711
aF4.2270072799955809
aF0.039554385246129975
aF4.7926560870909505
aF-2.2157338153525838
asS'accel_x'
p10
F0
sS'accel_y'
p11
F0
sS'maxAccel'
p12
I2
sS'maxVel'
p13
F0.69999999999999996
sS'age'
p14
I0
sS'radius'
p15
I2
sS'gener'
p16
S'm'
sS'lastScale'
p17
F15.5
sS'energy'
p18
F1
sb.(i__main__
Data_mobile
p1
(dp2
S'vel_y'
p3
F0.58571162989262304
sS'vel_x'
p4
F0.3832453356136607
sS'pos_x'
p5
F159.70310696812365
sS'pos_y'
p6
F45.39122630399099
sS'isAlive'
p7
I01
sS'geno'
p8
(lp9
F-4.0477149987856711
aF4.2270072799955809
aF0.18179084758076125
aF4.7926560870909505
aF-1.8584472333988882
asS'accel_x'
p10
F0
sS'accel_y'
p11
F0
sS'maxAccel'
p12
I2
sS'maxVel'
p13
F0.69999999999999996
sS'age'
p14
I0
sS'radius'
p15
I2
sS'gener'
p16
S'm'
sS'lastScale'
p17
F15.5
sS'energy'
p18
F1
sb.(i__main__
Data_mobile
p1
(dp2
S'vel_y'
p3
F0.02234791239099225
sS'vel_x'
p4
F0.50427115090551067
sS'pos_x'
p5
F69.040177942942222
sS'pos_y'
p6
F6.3707125133644738
sS'isAlive'
p7
I01
sS'geno'
p8
(lp9
F-3.9156567953249546
aF3.8103866521418079
aF0.039554385246129975
aF4.7926560870909505
aF-2.1102589460839329
asS'accel_x'
p10
F0
sS'accel_y'
p11
F0
sS'maxAccel'
p12
I2
sS'maxVel'
p13
F0.69999999999999996
sS'age'
p14
I0
sS'radius'
p15
I2
sS'gener'
p16
S'm'
sS'lastScale'
p17
F15.5
sS'energy'
p18
F1
sb.(i__main__
Data_mobile
p1
(dp2
S'vel_y'
p3
F0.54777396631871877
sS'vel_x'
p4
F-0.082373664601117585
sS'pos_x'
p5
F16.270443397098191
sS'pos_y'
p6
F21.549748548462755
sS'isAlive'
p7
I01
sS'geno'
p8
(lp9
F-4.0477149987856711
aF4.2270072799955809
aF0.039554385246129975
aF4.7926560870909505
aF-2.1102589460839329
asS'accel_x'
p10
F0
sS'accel_y'
p11
F0
sS'maxAccel'
p12
I2
sS'maxVel'
p13
F0.69999999999999996
sS'age'
p14
I0
sS'radius'
p15
I2
sS'gener'
p16
S'm'
sS'lastScale'
p17
F15.5
sS'energy'
p18
F1
sb.(i__main__
Data_mobile
p1
(dp2
S'vel_y'
p3
F-0.41133969765264966
sS'vel_x'
p4
F-0.42123377111988713
sS'pos_x'
p5
F-112.95890376033648
sS'pos_y'
p6
F36.581421960924438
sS'isAlive'
p7
I01
sS'geno'
p8
(lp9
F-4.1401920100861425
aF4.3664807629413041
aF0.039554385246129975
aF4.7926560870909505
aF-2.1102589460839329
asS'accel_x'
p10
F0
sS'accel_y'
p11
F0
sS'maxAccel'
p12
I2
sS'maxVel'
p13
F0.69999999999999996
sS'age'
p14
I0
sS'radius'
p15
I2
sS'gener'
p16
S'm'
sS'lastScale'
p17
F15.5
sS'energy'
p18
F1
sb.(i__main__
Data_mobile
p1
(dp2
S'vel_y'
p3
F-0.44218633416537539
sS'vel_x'
p4
F-0.41142242032228976
sS'pos_x'
p5
F-111.50076993610352
sS'pos_y'
p6
F41.292129315260496
sS'isAlive'
p7
I01
sS'geno'
p8
(lp9
F-4.1401920100861425
aF4.3187333740770679
aF0.039554385246129975
aF4.8978794580404967
aF-2.1102589460839329
asS'accel_x'
p10
F0
sS'accel_y'
p11
F0
sS'maxAccel'
p12
I2
sS'maxVel'
p13
F0.69999999999999996
sS'age'
p14
I0
sS'radius'
p15
I2
sS'gener'
p16
S'm'
sS'lastScale'
p17
F15.5
sS'energy'
p18
F1
sb.(i__main__
Data_mobile
p1
(dp2
S'vel_y'
p3
F0.38904328923004311
sS'vel_x'
p4
F0.354912876167506
sS'pos_x'
p5
F16.292564766725761
sS'pos_y'
p6
F-24.059304385068017
sS'isAlive'
p7
I01
sS'geno'
p8
(lp9
F-3.647702369282503
aF4.6372970797774533
aF0.039554385246129975
aF4.7926560870909505
aF-2.1102589460839329
asS'accel_x'
p10
F0
sS'accel_y'
p11
F0
sS'maxAccel'
p12
I2
sS'maxVel'
p13
F0.69999999999999996
sS'age'
p14
I0
sS'radius'
p15
I2
sS'gener'
p16
S'm'
sS'lastScale'
p17
F15.5
sS'energy'
p18
F1
sb.(i__main__
Data_mobile
p1
(dp2
S'vel_y'
p3
F0.46868029745443585
sS'vel_x'
p4
F0.39030350701184596
sS'pos_x'
p5
F41.621675219205507
sS'pos_y'
p6
F-12.498003801978754
sS'isAlive'
p7
I01
sS'geno'
p8
(lp9
F-4.1401920100861425
aF4.2270072799955809
aF0.039554385246129975
aF4.3339127096180912
aF-2.1102589460839329
asS'accel_x'
p10
F0
sS'accel_y'
p11
F0
sS'maxAccel'
p12
I2
sS'maxVel'
p13
F0.69999999999999996
sS'age'
p14
I0
sS'radius'
p15
I2
sS'gener'
p16
S'm'
sS'lastScale'
p17
F15.5
sS'energy'
p18
F1
sb.(i__main__
Data_mobile
p1
(dp2
S'vel_y'
p3
I0
sS'vel_x'
p4
I0
sS'pos_x'
p5
I-9999
sS'pos_y'
p6
I9999
sS'isAlive'
p7
I00
sS'geno'
p8
NsS'accel_x'
p9
F0
sS'accel_y'
p10
F0
sS'maxAccel'
p11
I2
sS'maxVel'
p12
F0.69999999999999996
sS'age'
p13
I0
sS'radius'
p14
I2
sS'gener'
p15
S'm'
sS'lastScale'
p16
F15.5
sS'energy'
p17
I1
sb.(i__main__
Data_mobile
p1
(dp2
S'vel_y'
p3
I0
sS'vel_x'
p4
I0
sS'pos_x'
p5
I-9999
sS'pos_y'
p6
I9999
sS'isAlive'
p7
I00
sS'geno'
p8
NsS'accel_x'
p9
F0
sS'accel_y'
p10
F0
sS'maxAccel'
p11
I2
sS'maxVel'
p12
F0.69999999999999996
sS'age'
p13
I0
sS'radius'
p14
I2
sS'gener'
p15
S'm'
sS'lastScale'
p16
F15.5
sS'energy'
p17
I1
sb.(i__main__
Data_mobile
p1
(dp2
S'vel_y'
p3
I0
sS'vel_x'
p4
I0
sS'pos_x'
p5
I-9999
sS'pos_y'
p6
I9999
sS'isAlive'
p7
I00
sS'geno'
p8
NsS'accel_x'
p9
F0
sS'accel_y'
p10
F0
sS'maxAccel'
p11
I2
sS'maxVel'
p12
F0.69999999999999996
sS'age'
p13
I0
sS'radius'
p14
I2
sS'gener'
p15
S'm'
sS'lastScale'
p16
F15.5
sS'energy'
p17
I1
sb.(i__main__
Data_mobile
p1
(dp2
S'vel_y'
p3
I0
sS'vel_x'
p4
I0
sS'pos_x'
p5
I-9999
sS'pos_y'
p6
I9999
sS'isAlive'
p7
I00
sS'geno'
p8
NsS'accel_x'
p9
F0
sS'accel_y'
p10
F0
sS'maxAccel'
p11
I2
sS'maxVel'
p12
F0.69999999999999996
sS'age'
p13
I0
sS'radius'
p14
I2
sS'gener'
p15
S'm'
sS'lastScale'
p16
F15.5
sS'energy'
p17
I1
sb.(i__main__
Data_mobile
p1
(dp2
S'vel_y'
p3
I0
sS'vel_x'
p4
I0
sS'pos_x'
p5
I-9999
sS'pos_y'
p6
I9999
sS'isAlive'
p7
I00
sS'geno'
p8
NsS'accel_x'
p9
F0
sS'accel_y'
p10
F0
sS'maxAccel'
p11
I2
sS'maxVel'
p12
F0.69999999999999996
sS'age'
p13
I0
sS'radius'
p14
I2
sS'gener'
p15
S'm'
sS'lastScale'
p16
F15.5
sS'energy'
p17
I1
sb.(i__main__
Data_mobile
p1
(dp2
S'vel_y'
p3
I0
sS'vel_x'
p4
I0
sS'pos_x'
p5
I-9999
sS'pos_y'
p6
I9999
sS'isAlive'
p7
I00
sS'geno'
p8
NsS'accel_x'
p9
F0
sS'accel_y'
p10
F0
sS'maxAccel'
p11
I2
sS'maxVel'
p12
F0.69999999999999996
sS'age'
p13
I0
sS'radius'
p14
I2
sS'gener'
p15
S'm'
sS'lastScale'
p16
F15.5
sS'energy'
p17
I1
sb.(i__main__
Data_mobile
p1
(dp2
S'vel_y'
p3
I0
sS'vel_x'
p4
I0
sS'pos_x'
p5
I-9999
sS'pos_y'
p6
I9999
sS'isAlive'
p7
I00
sS'geno'
p8
NsS'accel_x'
p9
F0
sS'accel_y'
p10
F0
sS'maxAccel'
p11
I2
sS'maxVel'
p12
F0.69999999999999996
sS'age'
p13
I0
sS'radius'
p14
I2
sS'gener'
p15
S'm'
sS'lastScale'
p16
F15.5
sS'energy'
p17
I1
sb.(i__main__
Data_mobile
p1
(dp2
S'vel_y'
p3
I0
sS'vel_x'
p4
I0
sS'pos_x'
p5
I-9999
sS'pos_y'
p6
I9999
sS'isAlive'
p7
I00
sS'geno'
p8
NsS'accel_x'
p9
F0
sS'accel_y'
p10
F0
sS'maxAccel'
p11
I2
sS'maxVel'
p12
F0.69999999999999996
sS'age'
p13
I0
sS'radius'
p14
I2
sS'gener'
p15
S'm'
sS'lastScale'
p16
F15.5
sS'energy'
p17
I1
sb.(i__main__
Data_mobile
p1
(dp2
S'vel_y'
p3
I0
sS'vel_x'
p4
I0
sS'pos_x'
p5
I-9999
sS'pos_y'
p6
I9999
sS'isAlive'
p7
I00
sS'geno'
p8
NsS'accel_x'
p9
F0
sS'accel_y'
p10
F0
sS'maxAccel'
p11
I2
sS'maxVel'
p12
F0.69999999999999996
sS'age'
p13
I0
sS'radius'
p14
I2
sS'gener'
p15
S'm'
sS'lastScale'
p16
F15.5
sS'energy'
p17
I1
sb.(i__main__
Data_mobile
p1
(dp2
S'vel_y'
p3
I0
sS'vel_x'
p4
I0
sS'pos_x'
p5
I-9999
sS'pos_y'
p6
I9999
sS'isAlive'
p7
I00
sS'geno'
p8
NsS'accel_x'
p9
F0
sS'accel_y'
p10
F0
sS'maxAccel'
p11
I2
sS'maxVel'
p12
F0.69999999999999996
sS'age'
p13
I0
sS'radius'
p14
I2
sS'gener'
p15
S'm'
sS'lastScale'
p16
F15.5
sS'energy'
p17
I1
sb.(i__main__
Data_mobile
p1
(dp2
S'vel_y'
p3
I0
sS'vel_x'
p4
I0
sS'pos_x'
p5
I-9999
sS'pos_y'
p6
I9999
sS'isAlive'
p7
I00
sS'geno'
p8
(lp9
F-4.1401920100861425
aF4.2530154658552304
aF0.039554385246129975
aF4.7926560870909505
aF-2.1102589460839329
asS'accel_x'
p10
F0
sS'accel_y'
p11
F0
sS'maxAccel'
p12
I2
sS'maxVel'
p13
F0.69999999999999996
sS'age'
p14
I0
sS'radius'
p15
I2
sS'gener'
p16
S'm'
sS'lastScale'
p17
F5.4999999999999956
sS'energy'
p18
I1
sb.(i__main__
Data_mobile
p1
(dp2
S'vel_y'
p3
I0
sS'vel_x'
p4
I0
sS'pos_x'
p5
I-9999
sS'pos_y'
p6
I9999
sS'isAlive'
p7
I00
sS'geno'
p8
(lp9
F-4.0477149987856711
aF4.2270072799955809
aF0.18179084758076125
aF4.7926560870909505
aF-2.1102589460839329
asS'accel_x'
p10
F0
sS'accel_y'
p11
F0
sS'maxAccel'
p12
I2
sS'maxVel'
p13
F0.69999999999999996
sS'age'
p14
I0
sS'radius'
p15
I2
sS'gener'
p16
S'm'
sS'lastScale'
p17
F5.4999999999999956
sS'energy'
p18
I1
sb.(i__main__
Data_mobile
p1
(dp2
S'vel_y'
p3
I0
sS'vel_x'
p4
I0
sS'pos_x'
p5
I-9999
sS'pos_y'
p6
I9999
sS'isAlive'
p7
I00
sS'geno'
p8
(lp9
F-4.1401920100861425
aF4.2270072799955809
aF0.039554385246129975
aF4.7926560870909505
aF-2.1102589460839329
asS'accel_x'
p10
F0
sS'accel_y'
p11
F0
sS'maxAccel'
p12
I2
sS'maxVel'
p13
F0.69999999999999996
sS'age'
p14
I0
sS'radius'
p15
I2
sS'gener'
p16
S'm'
sS'lastScale'
p17
F5.4999999999999956
sS'energy'
p18
I1
sb.(i__main__
Data_mobile
p1
(dp2
S'vel_y'
p3
I0
sS'vel_x'
p4
I0
sS'pos_x'
p5
I-9999
sS'pos_y'
p6
I9999
sS'isAlive'
p7
I00
sS'geno'
p8
(lp9
F-4.0477149987856711
aF4.2270072799955809
aF0.039554385246129975
aF4.7926560870909505
aF-2.1102589460839329
asS'accel_x'
p10
F0
sS'accel_y'
p11
F0
sS'maxAccel'
p12
I2
sS'maxVel'
p13
F0.69999999999999996
sS'age'
p14
I0
sS'radius'
p15
I2
sS'gener'
p16
S'm'
sS'lastScale'
p17
F5.4999999999999956
sS'energy'
p18
I1
sb.(i__main__
Data_mobile
p1
(dp2
S'vel_y'
p3
I0
sS'vel_x'
p4
I0
sS'pos_x'
p5
I-9999
sS'pos_y'
p6
I9999
sS'isAlive'
p7
I00
sS'geno'
p8
(lp9
F-4.5144280460242987
aF3.7515945193468925
aF0.039554385246129975
aF4.7926560870909505
aF-2.1102589460839329
asS'accel_x'
p10
F0
sS'accel_y'
p11
F0
sS'maxAccel'
p12
I2
sS'maxVel'
p13
F0.69999999999999996
sS'age'
p14
I0
sS'radius'
p15
I2
sS'gener'
p16
S'm'
sS'lastScale'
p17
F5.4999999999999956
sS'energy'
p18
I1
sb.(i__main__
Data_mobile
p1
(dp2
S'vel_y'
p3
I0
sS'vel_x'
p4
I0
sS'pos_x'
p5
I-9999
sS'pos_y'
p6
I9999
sS'isAlive'
p7
I00
sS'geno'
p8
(lp9
F-4.1401920100861425
aF4.2270072799955809
aF0.039554385246129975
aF4.7926560870909505
aF-2.1102589460839329
asS'accel_x'
p10
F0
sS'accel_y'
p11
F0
sS'maxAccel'
p12
I2
sS'maxVel'
p13
F0.69999999999999996
sS'age'
p14
I0
sS'radius'
p15
I2
sS'gener'
p16
S'm'
sS'lastScale'
p17
F5.4999999999999956
sS'energy'
p18
I1
sb.(i__main__
Data_mobile
p1
(dp2
S'vel_y'
p3
I0
sS'vel_x'
p4
I0
sS'pos_x'
p5
I-9999
sS'pos_y'
p6
I9999
sS'isAlive'
p7
I00
sS'geno'
p8
(lp9
F-4.3824434616365791
aF4.2270072799955809
aF0.039554385246129975
aF4.7926560870909505
aF-2.1102589460839329
asS'accel_x'
p10
F0
sS'accel_y'
p11
F0
sS'maxAccel'
p12
I2
sS'maxVel'
p13
F0.69999999999999996
sS'age'
p14
I0
sS'radius'
p15
I2
sS'gener'
p16
S'm'
sS'lastScale'
p17
F5.4999999999999956
sS'energy'
p18
I1
sb.(i__main__
Data_mobile
p1
(dp2
S'vel_y'
p3
I0
sS'vel_x'
p4
I0
sS'pos_x'
p5
I-9999
sS'pos_y'
p6
I9999
sS'isAlive'
p7
I00
sS'geno'
p8
(lp9
F-4.0477149987856711
aF4.3664807629413041
aF0.039554385246129975
aF4.7926560870909505
aF-2.1102589460839329
asS'accel_x'
p10
F0
sS'accel_y'
p11
F0
sS'maxAccel'
p12
I2
sS'maxVel'
p13
F0.69999999999999996
sS'age'
p14
I0
sS'radius'
p15
I2
sS'gener'
p16
S'm'
sS'lastScale'
p17
F5.4999999999999956
sS'energy'
p18
I1
sb.(i__main__
Data_mobile
p1
(dp2
S'vel_y'
p3
I0
sS'vel_x'
p4
I0
sS'pos_x'
p5
I-9999
sS'pos_y'
p6
I9999
sS'isAlive'
p7
I00
sS'geno'
p8
(lp9
F-4.0477149987856711
aF4.3664807629413041
aF0.039554385246129975
aF4.7926560870909505
aF-2.1102589460839329
asS'accel_x'
p10
F0
sS'accel_y'
p11
F0
sS'maxAccel'
p12
I2
sS'maxVel'
p13
F0.69999999999999996
sS'age'
p14
I0
sS'radius'
p15
I2
sS'gener'
p16
S'm'
sS'lastScale'
p17
F5.4999999999999956
sS'energy'
p18
I1
sb.(i__main__
Data_mobile
p1
(dp2
S'vel_y'
p3
I0
sS'vel_x'
p4
I0
sS'pos_x'
p5
I-9999
sS'pos_y'
p6
I9999
sS'isAlive'
p7
I00
sS'geno'
p8
(lp9
F-4.1401920100861425
aF4.2270072799955809
aF0.039554385246129975
aF4.7926560870909505
aF-2.1102589460839329
asS'accel_x'
p10
F0
sS'accel_y'
p11
F0
sS'maxAccel'
p12
I2
sS'maxVel'
p13
F0.69999999999999996
sS'age'
p14
I0
sS'radius'
p15
I2
sS'gener'
p16
S'm'
sS'lastScale'
p17
F5.4999999999999956
sS'energy'
p18
I1
sb.(i__main__
Data_mobile
p1
(dp2
S'vel_y'
p3
I0
sS'vel_x'
p4
I0
sS'pos_x'
p5
I-9999
sS'pos_y'
p6
I9999
sS'isAlive'
p7
I00
sS'geno'
p8
(lp9
F-4.0477149987856711
aF4.2270072799955809
aF0.039554385246129975
aF4.7926560870909505
aF-1.7492125058562058
asS'accel_x'
p10
F0
sS'accel_y'
p11
F0
sS'maxAccel'
p12
I2
sS'maxVel'
p13
F0.69999999999999996
sS'age'
p14
I0
sS'radius'
p15
I2
sS'gener'
p16
S'm'
sS'lastScale'
p17
F5.4999999999999956
sS'energy'
p18
I1
sb.(i__main__
Data_mobile
p1
(dp2
S'vel_y'
p3
I0
sS'vel_x'
p4
I0
sS'pos_x'
p5
I-9999
sS'pos_y'
p6
I9999
sS'isAlive'
p7
I00
sS'geno'
p8
(lp9
F-3.8846641075967812
aF4.2270072799955809
aF0.039554385246129975
aF4.7926560870909505
aF-2.1102589460839329
asS'accel_x'
p10
F0
sS'accel_y'
p11
F0
sS'maxAccel'
p12
I2
sS'maxVel'
p13
F0.69999999999999996
sS'age'
p14
I0
sS'radius'
p15
I2
sS'gener'
p16
S'm'
sS'lastScale'
p17
F5.4999999999999956
sS'energy'
p18
I1
sb.(i__main__
Data_mobile
p1
(dp2
S'vel_y'
p3
I0
sS'vel_x'
p4
I0
sS'pos_x'
p5
I-9999
sS'pos_y'
p6
I9999
sS'isAlive'
p7
I00
sS'geno'
p8
(lp9
F-3.8846641075967812
aF4.2270072799955809
aF0.039554385246129975
aF4.7926560870909505
aF-2.1102589460839329
asS'accel_x'
p10
F0
sS'accel_y'
p11
F0
sS'maxAccel'
p12
I2
sS'maxVel'
p13
F0.69999999999999996
sS'age'
p14
I0
sS'radius'
p15
I2
sS'gener'
p16
S'm'
sS'lastScale'
p17
F5.4999999999999956
sS'energy'
p18
I1
sb.(i__main__
Data_mobile
p1
(dp2
S'vel_y'
p3
I0
sS'vel_x'
p4
I0
sS'pos_x'
p5
I-9999
sS'pos_y'
p6
I9999
sS'isAlive'
p7
I00
sS'geno'
p8
(lp9
F-4.1401920100861425
aF4.2270072799955809
aF0.039554385246129975
aF4.7926560870909505
aF-2.1102589460839329
asS'accel_x'
p10
F0
sS'accel_y'
p11
F0
sS'maxAccel'
p12
I2
sS'maxVel'
p13
F0.69999999999999996
sS'age'
p14
I0
sS'radius'
p15
I2
sS'gener'
p16
S'm'
sS'lastScale'
p17
F5.4999999999999956
sS'energy'
p18
I1
sb.(i__main__
Data_mobile
p1
(dp2
S'vel_y'
p3
I0
sS'vel_x'
p4
I0
sS'pos_x'
p5
I-9999
sS'pos_y'
p6
I9999
sS'isAlive'
p7
I00
sS'geno'
p8
(lp9
F-4.1401920100861425
aF4.2270072799955809
aF0.039554385246129975
aF4.7926560870909505
aF-2.1102589460839329
asS'accel_x'
p10
F0
sS'accel_y'
p11
F0
sS'maxAccel'
p12
I2
sS'maxVel'
p13
F0.69999999999999996
sS'age'
p14
I0
sS'radius'
p15
I2
sS'gener'
p16
S'm'
sS'lastScale'
p17
F5.4999999999999956
sS'energy'
p18
I1
sb.(i__main__
Data_mobile
p1
(dp2
S'vel_y'
p3
I0
sS'vel_x'
p4
I0
sS'pos_x'
p5
I-9999
sS'pos_y'
p6
I9999
sS'isAlive'
p7
I00
sS'geno'
p8
(lp9
F-4.0477149987856711
aF4.2270072799955809
aF0.18179084758076125
aF4.7926560870909505
aF-1.8584472333988882
asS'accel_x'
p10
F0
sS'accel_y'
p11
F0
sS'maxAccel'
p12
I2
sS'maxVel'
p13
F0.69999999999999996
sS'age'
p14
I0
sS'radius'
p15
I2
sS'gener'
p16
S'm'
sS'lastScale'
p17
F5.4999999999999956
sS'energy'
p18
I1
sb.(i__main__
Data_mobile
p1
(dp2
S'vel_y'
p3
I0
sS'vel_x'
p4
I0
sS'pos_x'
p5
I-9999
sS'pos_y'
p6
I9999
sS'isAlive'
p7
I00
sS'geno'
p8
(lp9
F-4.0477149987856711
aF4.2270072799955809
aF0.18179084758076125
aF4.7926560870909505
aF-1.8584472333988882
asS'accel_x'
p10
F0
sS'accel_y'
p11
F0
sS'maxAccel'
p12
I2
sS'maxVel'
p13
F0.69999999999999996
sS'age'
p14
I0
sS'radius'
p15
I2
sS'gener'
p16
S'm'
sS'lastScale'
p17
F5.4999999999999956
sS'energy'
p18
I1
sb.(i__main__
Data_mobile
p1
(dp2
S'vel_y'
p3
I0
sS'vel_x'
p4
I0
sS'pos_x'
p5
I-9999
sS'pos_y'
p6
I9999
sS'isAlive'
p7
I00
sS'geno'
p8
(lp9
F-3.9156567953249546
aF4.2270072799955809
aF0.039554385246129975
aF4.7926560870909505
aF-2.1102589460839329
asS'accel_x'
p10
F0
sS'accel_y'
p11
F0
sS'maxAccel'
p12
I2
sS'maxVel'
p13
F0.69999999999999996
sS'age'
p14
I0
sS'radius'
p15
I2
sS'gener'
p16
S'm'
sS'lastScale'
p17
F5.4999999999999956
sS'energy'
p18
I1
sb.