(i__main__
Data_mobile
p1
(dp2
S'vel_y'
p3
F-0.57234032133160206
sS'vel_x'
p4
F-0.39309970507073033
sS'pos_x'
p5
F94.727350623474209
sS'pos_y'
p6
F5.9635770629298612
sS'isAlive'
p7
I01
sS'geno'
p8
(lp9
(lp10
(lp11
S'centerOfWorld'
p12
aa(lp13
(lp14
S'FLOAT.DEFINE'
p15
aa(lp16
S'INTEGER.='
p17
aaS'centerOfWorld'
p18
aa(lp19
(lp20
S'CODE.LENGTH'
p21
aS'-0.79770578392727898:-0.64429938458937674:0.054568135425115037'
p22
a(lp23
S'INTEGER./'
p24
aS'INTEGER.DUP'
p25
aaS'INTEGER.MIN'
p26
aa(lp27
S'target'
p28
aS'INTEGER.='
p29
aS'FLOAT.SWAP'
p30
aaS'CODE.FROMNAME'
p31
a(lp32
S'INTEGER./'
p33
aS'INTEGER.DUP'
p34
aaaS'FLOAT.+'
p35
aa(lp36
S'CODE.DO*COUNT'
p37
aS'FLOAT.FROMBOOLEAN'
p38
aS'FLOAT.ROT'
p39
aaS'INTEGER.RAND'
p40
a(lp41
S'POINT.POP'
p42
aa(lp43
(lp44
S'INTEGER.='
p45
aaS'INTEGER.YANK'
p46
aS'CODE.NTH'
p47
a(lp48
S'POINT.+'
p49
aS'CODE.DO*COUNT'
p50
aaaS'CODE.FROMNAME'
p51
asS'accel_x'
p52
F0.69122420555614483
sS'accel_y'
p53
F0.18714201748111825
sS'maxAccel'
p54
I2
sS'maxVel'
p55
F0.69999999999999996
sS'age'
p56
I250
sS'gener'
p57
S'm'
sS'lastScale'
p58
F15.4
sS'energy'
p59
F0.98999999999999999
sb.(i__main__
Data_mobile
p1
(dp2
S'vel_y'
p3
F0.42825479574163267
sS'vel_x'
p4
F0.55371276843169548
sS'pos_x'
p5
F-92.942141998191516
sS'pos_y'
p6
F51.875169352295714
sS'isAlive'
p7
I01
sS'geno'
p8
(lp9
(lp10
S'CODE.FROMNAME'
p11
aa(lp12
S'CODE.LENGTH'
p13
aS'-0.38639363166559337'
p14
aS'0.80596280838501710:0.92538271749517476:0.29183063313640434'
p15
aa(lp16
(lp17
S'CODE.LENGTH'
p18
aS'CODE.FROMBOOLEAN'
p19
aS'CODE.FROMBOOLEAN'
p20
aS'INTEGER.MIN'
p21
aa(lp22
S'target'
p23
aS'FLOAT.YANKDUP'
p24
aS'FLOAT.SWAP'
p25
aaS'INTEGER.%'
p26
a(lp27
S'INTEGER.<'
p28
aS'INTEGER.MIN'
p29
aaaS'FLOAT.+'
p30
asS'accel_x'
p31
F1.5649056370636314
sS'accel_y'
p32
F1.2454197473488489
sS'maxAccel'
p33
I2
sS'maxVel'
p34
F0.69999999999999996
sS'age'
p35
I150
sS'gener'
p36
S'm'
sS'lastScale'
p37
F12.299999999999994
sS'energy'
p38
F0.67999999999999927
sb.(i__main__
Data_mobile
p1
(dp2
S'vel_y'
p3
F0.63274419556987804
sS'vel_x'
p4
F-0.2993906861821653
sS'pos_x'
p5
F199.33516407728132
sS'pos_y'
p6
F29.127766763451547
sS'isAlive'
p7
I01
sS'geno'
p8
(lp9
(lp10
(lp11
S'CODE.FROMNAME'
p12
aa(lp13
S'target'
p14
aS'-0.38639363166559337'
p15
aS'0.80596280838501710:0.92538271749517476:0.29183063313640434'
p16
aa(lp17
(lp18
S'CODE.LENGTH'
p19
aS'-0.79770578392727898:-0.64429938458937674:0.054568135425115037'
p20
aS'-0.79770578392727898:-0.64429938458937674:0.054568135425115037'
p21
aS'INTEGER.MIN'
p22
aa(lp23
S'target'
p24
aS'INTEGER.='
p25
aS'CODE.NULL'
p26
aaS'INTEGER.%'
p27
a(lp28
S'INTEGER.<'
p29
aS'FLOAT.YANK'
p30
aaaS'FLOAT.+'
p31
aa(lp32
S'CODE.DO*COUNT'
p33
aS'FLOAT.FROMBOOLEAN'
p34
aS'centerOfWorld'
p35
aaS'INTEGER.RAND'
p36
a(lp37
S'FLOAT.>'
p38
aa(lp39
S'FLOAT.+'
p40
aS'CODE.POP'
p41
aS'INTEGER.YANK'
p42
a(lp43
(lp44
S'CODE.DO*COUNT'
p45
aaS'CODE.FLUSH'
p46
aaaS'CODE.FROMNAME'
p47
asS'accel_x'
p48
F0
sS'accel_y'
p49
F0
sS'maxAccel'
p50
I2
sS'maxVel'
p51
F0.69999999999999996
sS'age'
p52
I0
sS'gener'
p53
S'm'
sS'lastScale'
p54
F5.5
sS'energy'
p55
F0.5
sb.(i__main__
Data_mobile
p1
(dp2
S'vel_y'
p3
F0.075250891582487475
sS'vel_x'
p4
F-0.69594346272958163
sS'pos_x'
p5
F88.810441255814212
sS'pos_y'
p6
F15.063340750254985
sS'isAlive'
p7
I01
sS'geno'
p8
(lp9
(lp10
(lp11
S'CODE.FROMNAME'
p12
aa(lp13
S'FLOAT.COS'
p14
aS'CODE.YANK'
p15
aS'CODE.YANKDUP'
p16
aa(lp17
(lp18
S'CODE.NTH'
p19
a(lp20
S'FLOAT.+'
p21
aS'CODE.FROMINTEGER'
p22
aS'POINT.LENGTH'
p23
aaS'-0.79770578392727898:-0.64429938458937674:0.054568135425115037'
p24
aS'INTEGER.MIN'
p25
aa(lp26
S'target'
p27
aS'INTEGER.='
p28
aS'FLOAT.SWAP'
p29
aaS'FLOAT.FROMBOOLEAN'
p30
a(lp31
S'INTEGER.<'
p32
aS'FLOAT.YANK'
p33
aaaS'FLOAT.+'
p34
aa(lp35
S'CODE.DO*COUNT'
p36
aS'FLOAT.FROMBOOLEAN'
p37
aS'FLOAT.ROT'
p38
aaS'INTEGER.RAND'
p39
aS'CODE.FROMINTEGER'
p40
a(lp41
(lp42
S'INTEGER.='
p43
aaS'FLOAT.MIN'
p44
aS'INTEGER.YANK'
p45
a(lp46
(lp47
S'FLOAT.SWAP'
p48
aaS'CODE.FLUSH'
p49
aaaS'CODE.FROMNAME'
p50
asS'accel_x'
p51
F0.2455875355746997
sS'accel_y'
p52
F0.69175589672882154
sS'maxAccel'
p53
I2
sS'maxVel'
p54
F0.69999999999999996
sS'age'
p55
I100
sS'gener'
p56
S'm'
sS'lastScale'
p57
F15.4
sS'energy'
p58
F0.98999999999999999
sb.(i__main__
Data_mobile
p1
(dp2
S'vel_y'
p3
F-0.57240194687991031
sS'vel_x'
p4
F-0.39315379740528594
sS'pos_x'
p5
F95.525101680465895
sS'pos_y'
p6
F6.607894061686804
sS'isAlive'
p7
I01
sS'geno'
p8
(lp9
(lp10
S'CODE.NTH'
p11
a(lp12
S'9'
aaS'CODE.DO'
p13
a(lp14
S'CODE.POSITION'
p15
aS'POINT.*'
p16
aaa(lp17
S'CODE.DO*COUNT'
p18
aS'FLOAT.FROMBOOLEAN'
p19
aS'FLOAT.ROT'
p20
aaS'currentVelocity'
p21
a(lp22
S'target'
p23
aa(lp24
S'INTEGER.-'
p25
aaS'FLOAT.<'
p26
asS'accel_x'
p27
F0.6911789324917379
sS'accel_y'
p28
F0.18712440331355218
sS'maxAccel'
p29
I2
sS'maxVel'
p30
F0.69999999999999996
sS'age'
p31
I250
sS'gener'
p32
S'm'
sS'lastScale'
p33
F15.4
sS'energy'
p34
F0.98999999999999999
sb.(i__main__
Data_mobile
p1
(dp2
S'vel_y'
p3
F-0.092331838817661327
sS'vel_x'
p4
F0.2551826613805106
sS'pos_x'
p5
F90.341541216695234
sS'pos_y'
p6
F16.065153157365835
sS'isAlive'
p7
I01
sS'geno'
p8
(lp9
(lp10
(lp11
S'centerOfWorld'
p12
aa(lp13
(lp14
S'FLOAT.DEFINE'
p15
aa(lp16
S'INTEGER.='
p17
aaS'POINT.+'
p18
aa(lp19
(lp20
S'CODE.LENGTH'
p21
aS'-0.79770578392727898:-0.64429938458937674:0.054568135425115037'
p22
a(lp23
S'INTEGER./'
p24
aS'INTEGER.DUP'
p25
aaS'INTEGER.MIN'
p26
aa(lp27
S'target'
p28
aS'INTEGER.='
p29
aS'FLOAT.SWAP'
p30
aaS'CODE.FROMNAME'
p31
a(lp32
S'INTEGER./'
p33
aS'INTEGER.DUP'
p34
aaaS'FLOAT.+'
p35
aa(lp36
S'CODE.DO*COUNT'
p37
aS'alignment'
p38
aS'FLOAT.ROT'
p39
aaS'INTEGER.RAND'
p40
a(lp41
S'POINT.POP'
p42
aa(lp43
(lp44
S'INTEGER.='
p45
aaS'INTEGER.YANK'
p46
aS'CODE.NTH'
p47
a(lp48
S'POINT.+'
p49
aS'CODE.DO*COUNT'
p50
aaaS'CODE.FROMNAME'
p51
asS'accel_x'
p52
F0.60937433641143934
sS'accel_y'
p53
F0.0034868654851536451
sS'maxAccel'
p54
I2
sS'maxVel'
p55
F0.69999999999999996
sS'age'
p56
I150
sS'gener'
p57
S'm'
sS'lastScale'
p58
F15.4
sS'energy'
p59
F0.98999999999999999
sb.(i__main__
Data_mobile
p1
(dp2
S'vel_y'
p3
F0.068813604832233033
sS'vel_x'
p4
F0.30904266616785214
sS'pos_x'
p5
F65.986138079211827
sS'pos_y'
p6
F23.559224470171269
sS'isAlive'
p7
I01
sS'geno'
p8
(lp9
(lp10
(lp11
S'centerOfWorld'
p12
aa(lp13
S'CODE.CONTAINER'
p14
aS'FLOAT.='
p15
aa(lp16
(lp17
S'CODE.YANKDUP'
p18
aS'INTEGER.>'
p19
aS'INTEGER.YANK'
p20
aS'INTEGER.MIN'
p21
aa(lp22
S'target'
p23
aS'INTEGER.='
p24
aS'FLOAT.SWAP'
p25
aaS'-0.79770578392727898:-0.64429938458937674:0.054568135425115037'
p26
a(lp27
S'INTEGER./'
p28
aS'INTEGER.DUP'
p29
aaaS'FLOAT.+'
p30
aa(lp31
S'CODE.DO*COUNT'
p32
aS'FLOAT.FROMBOOLEAN'
p33
aS'FLOAT.ROT'
p34
aaS'INTEGER.RAND'
p35
a(lp36
S'POINT.POP'
p37
aa(lp38
(lp39
S'INTEGER.='
p40
aa(lp41
S'FLOAT.+'
p42
aS'CODE.FROMINTEGER'
p43
aS'POINT.LENGTH'
p44
aaS'CODE.NTH'
p45
a(lp46
S'POINT.+'
p47
aS'CODE.DO*COUNT'
p48
aaaS'CODE.FROMNAME'
p49
asS'accel_x'
p50
F0
sS'accel_y'
p51
F0
sS'maxAccel'
p52
I2
sS'maxVel'
p53
F0.69999999999999996
sS'age'
p54
I0
sS'gener'
p55
S'm'
sS'lastScale'
p56
F5.5
sS'energy'
p57
F0.5
sb.(i__main__
Data_mobile
p1
(dp2
S'vel_y'
p3
F-0.0081252751615884383
sS'vel_x'
p4
F0.15678674557156932
sS'pos_x'
p5
F62.812787559512884
sS'pos_y'
p6
F29.934500425868812
sS'isAlive'
p7
I01
sS'geno'
p8
(lp9
(lp10
(lp11
S'CODE.FROMNAME'
p12
aa(lp13
(lp14
S'CODE.NTHCDR'
p15
aaS'POINT./'
p16
aS'FLOAT.MAX'
p17
aa(lp18
(lp19
S'CODE.LENGTH'
p20
aS'-0.79770578392727898:-0.64429938458937674:0.054568135425115037'
p21
aS'INTEGER.YANK'
p22
aS'0.80596280838501710:0.92538271749517476:0.29183063313640434'
p23
aa(lp24
S'target'
p25
aS'INTEGER.='
p26
aS'FLOAT.SWAP'
p27
aaS'CODE.FROMNAME'
p28
a(lp29
S'INTEGER.<'
p30
aS'INTEGER.DUP'
p31
aaaS'POINT.POP'
p32
aa(lp33
S'FLOAT.+'
p34
aS'CODE.FROMINTEGER'
p35
aS'POINT.LENGTH'
p36
aaS'INTEGER.RAND'
p37
a(lp38
S'CODE.NOOP'
p39
aa(lp40
(lp41
S'FLOAT.+'
p42
aaS'FLOAT.MIN'
p43
aS'CODE.NTH'
p44
a(lp45
(lp46
S'CODE.DO*TIMES'
p47
aaS'CODE.FROMNAME'
p48
aaaS'CODE.SIZE'
p49
asS'accel_x'
p50
F0.44252192403693869
sS'accel_y'
p51
F0.46359348539309053
sS'maxAccel'
p52
I2
sS'maxVel'
p53
F0.69999999999999996
sS'age'
p54
I100
sS'gener'
p55
S'm'
sS'lastScale'
p56
F15.4
sS'energy'
p57
F0.98999999999999999
sb.(i__main__
Data_mobile
p1
(dp2
S'vel_y'
p3
F-0.22349568754160495
sS'vel_x'
p4
F-0.58738670324810749
sS'pos_x'
p5
F45.076457972645059
sS'pos_y'
p6
F-8.2431382005673175
sS'isAlive'
p7
I01
sS'geno'
p8
(lp9
(lp10
(lp11
S'CODE.FROMNAME'
p12
aa(lp13
(lp14
S'FLOAT.DEFINE'
p15
aaS'-0.38639363166559337'
p16
aS'0.80596280838501710:0.92538271749517476:0.29183063313640434'
p17
aa(lp18
(lp19
(lp20
(lp21
S'centerOfWorld'
p22
aa(lp23
S'CODE.CONTAINER'
p24
aS'FLOAT.='
p25
aa(lp26
(lp27
S'CODE.LENGTH'
p28
aS'-0.79770578392727898:-0.64429938458937674:0.054568135425115037'
p29
aS'INTEGER.YANK'
p30
aS'INTEGER.MIN'
p31
aa(lp32
S'target'
p33
aS'INTEGER.='
p34
aS'FLOAT.SWAP'
p35
aaS'CODE.FROMNAME'
p36
a(lp37
S'INTEGER./'
p38
aS'INTEGER.DUP'
p39
aaaS'FLOAT.+'
p40
aa(lp41
S'CODE.DO*COUNT'
p42
aS'FLOAT.FROMBOOLEAN'
p43
aS'FLOAT.ROT'
p44
aaS'INTEGER.RAND'
p45
a(lp46
S'POINT.POP'
p47
aa(lp48
(lp49
S'INTEGER.='
p50
aaS'INTEGER.YANK'
p51
aS'CODE.NTH'
p52
a(lp53
S'POINT.+'
p54
aS'CODE.DO*COUNT'
p55
aaaS'CODE.FROMNAME'
p56
aa(lp57
S'target'
p58
aS'FLOAT.YANKDUP'
p59
aS'FLOAT.SWAP'
p60
aaS'INTEGER.%'
p61
a(lp62
S'INTEGER.<'
p63
aS'INTEGER.MIN'
p64
aaaS'FLOAT.+'
p65
aa(lp66
S'CODE.DO*COUNT'
p67
aS'FLOAT.FROMBOOLEAN'
p68
aS'FLOAT.ROT'
p69
aaS'POINT.POP'
p70
a(lp71
S'CODE.POSITION'
p72
aa(lp73
(lp74
S'-0.79770578392727898:-0.64429938458937674:0.054568135425115037'
p75
aaS'FLOAT.MIN'
p76
aS'CODE.RAND'
p77
a(lp78
(lp79
S'CODE.DO*COUNT'
p80
aaS'CODE.FLUSH'
p81
aaaS'FLOAT.>'
p82
asS'accel_x'
p83
F0
sS'accel_y'
p84
F0
sS'maxAccel'
p85
I2
sS'maxVel'
p86
F0.69999999999999996
sS'age'
p87
I0
sS'gener'
p88
S'm'
sS'lastScale'
p89
F5.5
sS'energy'
p90
F0.5
sb.(i__main__
Data_mobile
p1
(dp2
S'vel_y'
p3
F0.42512689683216121
sS'vel_x'
p4
F0.55611790259787264
sS'pos_x'
p5
F-91.534653189124015
sS'pos_y'
p6
F53.027767327597999
sS'isAlive'
p7
I01
sS'geno'
p8
(lp9
(lp10
(lp11
S'CODE.FROMNAME'
p12
aa(lp13
(lp14
S'FLOAT.DEFINE'
p15
aaS'-0.38639363166559337'
p16
aS'0.80596280838501710:0.92538271749517476:0.29183063313640434'
p17
aa(lp18
(lp19
S'CODE.LENGTH'
p20
aS'-0.79770578392727898:-0.64429938458937674:0.054568135425115037'
p21
aS'-0.79770578392727898:-0.64429938458937674:0.054568135425115037'
p22
aS'INTEGER.MIN'
p23
aa(lp24
S'target'
p25
aS'INTEGER.='
p26
aS'FLOAT.SWAP'
p27
aaS'INTEGER.%'
p28
a(lp29
S'INTEGER.<'
p30
aS'FLOAT.YANK'
p31
aaaS'FLOAT.+'
p32
aa(lp33
S'CODE.DO*COUNT'
p34
aS'FLOAT.FROMBOOLEAN'
p35
aS'FLOAT.ROT'
p36
aaS'POINT.POP'
p37
aS'-0.79770578392727898:-0.64429938458937674:0.054568135425115037'
p38
a(lp39
(lp40
S'INTEGER.='
p41
aaS'FLOAT.MIN'
p42
aS'POINT.-'
p43
a(lp44
(lp45
S'CODE.DO*COUNT'
p46
aaS'CODE.FLUSH'
p47
aaaS'CODE.FROMNAME'
p48
asS'accel_x'
p49
F1.5719924571153214
sS'accel_y'
p50
F1.2364625812261905
sS'maxAccel'
p51
I2
sS'maxVel'
p52
F0.69999999999999996
sS'age'
p53
I200
sS'gener'
p54
S'm'
sS'lastScale'
p55
F10.299999999999994
sS'energy'
p56
F0.47999999999999932
sb.(i__main__
Data_mobile
p1
(dp2
S'vel_y'
p3
F0.68231533083229323
sS'vel_x'
p4
F0.15635149283335326
sS'pos_x'
p5
F134.40985616009843
sS'pos_y'
p6
F22.896073721655245
sS'isAlive'
p7
I01
sS'geno'
p8
(lp9
(lp10
S'CODE.NTH'
p11
aS'currentVelocity'
p12
aS'CODE.DO'
p13
aS'INTEGER.='
p14
aa(lp15
S'CODE.DO*COUNT'
p16
aS'FLOAT.FROMBOOLEAN'
p17
aS'FLOAT.ROT'
p18
aaS'currentVelocity'
p19
a(lp20
S'target'
p21
aa(lp22
S'INTEGER.-'
p23
aaS'FLOAT.<'
p24
asS'accel_x'
p25
F0.15635149283335326
sS'accel_y'
p26
F0.68231533083229323
sS'maxAccel'
p27
I2
sS'maxVel'
p28
F0.69999999999999996
sS'age'
p29
I50
sS'gener'
p30
S'm'
sS'lastScale'
p31
F10.799999999999995
sS'energy'
p32
F0.52999999999999958
sb.(i__main__
Data_mobile
p1
(dp2
S'vel_y'
p3
F0.42825479529594379
sS'vel_x'
p4
F0.55371276877640196
sS'pos_x'
p5
F-92.942142001743193
sS'pos_y'
p6
F51.875169355580468
sS'isAlive'
p7
I01
sS'geno'
p8
(lp9
S'cohesion'
p10
a(lp11
(lp12
S'FLOAT.DEFINE'
p13
aaS'FLOAT.FROMBOOLEAN'
p14
aS'0.80596280838501710:0.92538271749517476:0.29183063313640434'
p15
aa(lp16
(lp17
S'CODE.LENGTH'
p18
aS'-0.79770578392727898:-0.64429938458937674:0.054568135425115037'
p19
aS'CODE.FROMBOOLEAN'
p20
aS'INTEGER.MIN'
p21
aa(lp22
S'target'
p23
aS'FLOAT.YANKDUP'
p24
aS'FLOAT.SWAP'
p25
aaS'INTEGER.%'
p26
aS'FLOAT.DEFINE'
p27
aaS'FLOAT.+'
p28
asS'accel_x'
p29
F1.564905638572917
sS'accel_y'
p30
F1.2454197454523881
sS'maxAccel'
p31
I2
sS'maxVel'
p32
F0.69999999999999996
sS'age'
p33
I100
sS'gener'
p34
S'm'
sS'lastScale'
p35
F10.299999999999994
sS'energy'
p36
F0.47999999999999932
sb.(i__main__
Data_mobile
p1
(dp2
S'vel_y'
p3
F-0.47012606827528658
sS'vel_x'
p4
F-0.49772930007788097
sS'pos_x'
p5
F61.156498764493264
sS'pos_y'
p6
F0.32609829503888044
sS'isAlive'
p7
I01
sS'geno'
p8
(lp9
(lp10
(lp11
S'CODE.FROMNAME'
p12
aa(lp13
(lp14
S'FLOAT.ROT'
p15
aaS'CODE.FLUSH'
p16
aS'0.80596280838501710:0.92538271749517476:0.29183063313640434'
p17
aa(lp18
(lp19
S'CODE.LENGTH'
p20
aS'-0.79770578392727898:-0.64429938458937674:0.054568135425115037'
p21
aS'-0.79770578392727898:-0.64429938458937674:0.054568135425115037'
p22
aS'INTEGER.MIN'
p23
aa(lp24
S'target'
p25
aS'FLOAT.YANKDUP'
p26
aS'FLOAT.SWAP'
p27
aaS'INTEGER.%'
p28
a(lp29
S'INTEGER.<'
p30
aS'INTEGER.MIN'
p31
aaaS'FLOAT.+'
p32
aa(lp33
S'-0.38639363166559337'
p34
aS'FLOAT.FROMBOOLEAN'
p35
aS'FLOAT.FLUSH'
p36
aaS'POINT.POP'
p37
a(lp38
S'FLOAT.>'
p39
aa(lp40
(lp41
S'INTEGER.MIN'
p42
aaS'FLOAT.MIN'
p43
aS'CODE.RAND'
p44
a(lp45
(lp46
S'CODE.IF'
p47
aaS'CODE.FLUSH'
p48
aaaS'CODE.FROMNAME'
p49
asS'accel_x'
p50
F0
sS'accel_y'
p51
F0
sS'maxAccel'
p52
I2
sS'maxVel'
p53
F0.69999999999999996
sS'age'
p54
I0
sS'gener'
p55
S'm'
sS'lastScale'
p56
F5.5
sS'energy'
p57
F0.5
sb.(i__main__
Data_mobile
p1
(dp2
S'vel_y'
p3
F0.42448772315020661
sS'vel_x'
p4
F0.55660594040555611
sS'pos_x'
p5
F-93.031983519120672
sS'pos_y'
p6
F51.85722952580889
sS'isAlive'
p7
I01
sS'geno'
p8
(lp9
(lp10
(lp11
S'CODE.FROMNAME'
p12
aa(lp13
(lp14
S'FLOAT.DEFINE'
p15
aaS'-0.38639363166559337'
p16
aS'0.80596280838501710:0.92538271749517476:0.29183063313640434'
p17
aa(lp18
(lp19
S'CODE.NTH'
p20
aS'-0.79770578392727898:-0.64429938458937674:0.054568135425115037'
p21
aS'centerOfWorld'
p22
aS'INTEGER.MIN'
p23
aa(lp24
S'INTEGER./'
p25
aS'POINT.+'
p26
aaS'FLOAT.FROMBOOLEAN'
p27
a(lp28
S'INTEGER.<'
p29
aS'FLOAT.YANK'
p30
aaa(lp31
(lp32
S'CODE.NTH'
p33
a(lp34
S'9'
aaS'CODE.DO'
p35
a(lp36
S'CODE.POSITION'
p37
aS'INTEGER.RAND'
p38
aaa(lp39
S'CODE.DO*COUNT'
p40
aS'FLOAT.FROMBOOLEAN'
p41
aS'FLOAT.ROT'
p42
aaS'currentVelocity'
p43
a(lp44
S'target'
p45
aa(lp46
S'INTEGER.-'
p47
aaS'CODE.FROMNAME'
p48
aaa(lp49
S'CODE.DO*COUNT'
p50
aS'FLOAT.FROMBOOLEAN'
p51
aS'FLOAT.ROT'
p52
aaS'INTEGER.RAND'
p53
a(lp54
S'FLOAT.>'
p55
aa(lp56
(lp57
S'INTEGER.='
p58
aaS'FLOAT.MIN'
p59
aS'INTEGER.YANK'
p60
a(lp61
(lp62
S'CODE.DO*COUNT'
p63
aaS'CODE.FLUSH'
p64
aaaS'CODE.FROMNAME'
p65
asS'accel_x'
p66
F1.577780075644585
sS'accel_y'
p67
F1.2290687665460245
sS'maxAccel'
p68
I2
sS'maxVel'
p69
F0.69999999999999996
sS'age'
p70
I100
sS'gener'
p71
S'm'
sS'lastScale'
p72
F9.2999999999999936
sS'energy'
p73
F0.37999999999999934
sb.(i__main__
Data_mobile
p1
(dp2
S'vel_y'
p3
F0.63274419395349724
sS'vel_x'
p4
F-0.29939068959828896
sS'pos_x'
p5
F199.33516406408756
sS'pos_y'
p6
F29.127766754875161
sS'isAlive'
p7
I01
sS'geno'
p8
(lp9
(lp10
(lp11
S'CODE.FROMNAME'
p12
aa(lp13
S'target'
p14
aS'-0.38639363166559337'
p15
aS'0.80596280838501710:0.92538271749517476:0.29183063313640434'
p16
aa(lp17
(lp18
S'CODE.LENGTH'
p19
aS'-0.79770578392727898:-0.64429938458937674:0.054568135425115037'
p20
aS'-0.79770578392727898:-0.64429938458937674:0.054568135425115037'
p21
aS'INTEGER.MIN'
p22
aa(lp23
S'target'
p24
aS'INTEGER.='
p25
aS'CODE.NULL'
p26
aaS'INTEGER.%'
p27
a(lp28
S'INTEGER.<'
p29
aS'FLOAT.YANK'
p30
aaaS'FLOAT.+'
p31
aa(lp32
S'CODE.DO*COUNT'
p33
aS'FLOAT.FROMBOOLEAN'
p34
aS'FLOAT.ROT'
p35
aaS'INTEGER.RAND'
p36
a(lp37
S'FLOAT.>'
p38
aa(lp39
(lp40
S'INTEGER.='
p41
aaS'FLOAT.MIN'
p42
aS'INTEGER.YANK'
p43
a(lp44
(lp45
S'CODE.DO*COUNT'
p46
aaS'CODE.FLUSH'
p47
aaaS'CODE.FROMNAME'
p48
asS'accel_x'
p49
F-0.057654702311452866
sS'accel_y'
p50
F0.35846432628791192
sS'maxAccel'
p51
I2
sS'maxVel'
p52
F0.69999999999999996
sS'age'
p53
I300
sS'gener'
p54
S'm'
sS'lastScale'
p55
F15.4
sS'energy'
p56
F0.98999999999999999
sb.(i__main__
Data_mobile
p1
(dp2
S'vel_y'
p3
F-0.57234032133157287
sS'vel_x'
p4
F-0.39309970507073977
sS'pos_x'
p5
F94.727350623474209
sS'pos_y'
p6
F5.9635770629298666
sS'isAlive'
p7
I01
sS'geno'
p8
(lp9
(lp10
(lp11
S'centerOfWorld'
p12
aa(lp13
(lp14
S'FLOAT.DEFINE'
p15
aa(lp16
S'INTEGER.='
p17
aaS'centerOfWorld'
p18
aa(lp19
(lp20
S'INTEGER.='
p21
aS'-0.79770578392727898:-0.64429938458937674:0.054568135425115037'
p22
a(lp23
S'INTEGER.+'
p24
aS'INTEGER.DUP'
p25
aaS'INTEGER.MIN'
p26
aa(lp27
S'target'
p28
aS'INTEGER.='
p29
aS'FLOAT.SWAP'
p30
aaS'CODE.FROMNAME'
p31
a(lp32
S'INTEGER./'
p33
aS'INTEGER.DUP'
p34
aaaS'FLOAT.+'
p35
aa(lp36
S'CODE.DO*COUNT'
p37
aS'FLOAT.FROMBOOLEAN'
p38
aS'FLOAT.ROT'
p39
aaS'INTEGER.RAND'
p40
a(lp41
S'POINT.POP'
p42
aa(lp43
(lp44
S'INTEGER.='
p45
aaS'INTEGER.YANK'
p46
aS'CODE.NTH'
p47
a(lp48
S'POINT.+'
p49
aS'CODE.DO*COUNT'
p50
aaaS'CODE.FROMNAME'
p51
asS'accel_x'
p52
F0.69122420555614483
sS'accel_y'
p53
F0.18714201748111292
sS'maxAccel'
p54
I2
sS'maxVel'
p55
F0.69999999999999996
sS'age'
p56
I150
sS'gener'
p57
S'm'
sS'lastScale'
p58
F15.4
sS'energy'
p59
F0.98999999999999999
sb.(i__main__
Data_mobile
p1
(dp2
S'vel_y'
p3
F0.09534822349173426
sS'vel_x'
p4
F-0.61957852863839513
sS'pos_x'
p5
F192.32846711107311
sS'pos_y'
p6
F28.313167883092966
sS'isAlive'
p7
I01
sS'geno'
p8
(lp9
(lp10
(lp11
S'CODE.FROMNAME'
p12
aa(lp13
S'currentVelocity'
p14
aS'0.76593730034444885'
p15
aS'FLOAT.POP'
p16
aa(lp17
(lp18
S'CODE.LENGTH'
p19
aS'-0.79770578392727898:-0.64429938458937674:0.054568135425115037'
p20
aS'-0.79770578392727898:-0.64429938458937674:0.054568135425115037'
p21
aS'INTEGER.MIN'
p22
aa(lp23
S'target'
p24
aS'FLOAT.YANKDUP'
p25
aS'FLOAT.SWAP'
p26
aaS'INTEGER.%'
p27
a(lp28
S'INTEGER.<'
p29
aS'INTEGER.MIN'
p30
aaaS'FLOAT.+'
p31
aa(lp32
S'-0.38639363166559337'
p33
aS'FLOAT.FROMBOOLEAN'
p34
aS'FLOAT.ROT'
p35
aaS'POINT.POP'
p36
a(lp37
S'FLOAT.>'
p38
aa(lp39
S'INTEGER.DUP'
p40
aS'FLOAT.MIN'
p41
aS'CODE.RAND'
p42
a(lp43
(lp44
S'CODE.DO*COUNT'
p45
aaS'CODE.FLUSH'
p46
aaaS'CODE.FROMNAME'
p47
asS'accel_x'
p48
F0
sS'accel_y'
p49
F0
sS'maxAccel'
p50
I2
sS'maxVel'
p51
F0.69999999999999996
sS'age'
p52
I0
sS'gener'
p53
S'm'
sS'lastScale'
p54
F5.5
sS'energy'
p55
F0.5
sb.(i__main__
Data_mobile
p1
(dp2
S'vel_y'
p3
F0.20600734012009678
sS'vel_x'
p4
F0.58053815021926891
sS'pos_x'
p5
F68.501485008348752
sS'pos_y'
p6
F18.505880788778775
sS'isAlive'
p7
I01
sS'geno'
p8
(lp9
(lp10
(lp11
S'centerOfWorld'
p12
aa(lp13
S'CODE.CONTAINER'
p14
aS'FLOAT.='
p15
aa(lp16
(lp17
S'CODE.YANKDUP'
p18
aS'-0.79770578392727898:-0.64429938458937674:0.054568135425115037'
p19
aS'INTEGER.YANK'
p20
aS'INTEGER.MIN'
p21
aa(lp22
S'target'
p23
aS'INTEGER.='
p24
aS'FLOAT.SWAP'
p25
aaS'-0.79770578392727898:-0.64429938458937674:0.054568135425115037'
p26
a(lp27
S'INTEGER./'
p28
aS'INTEGER.DUP'
p29
aaaS'FLOAT.+'
p30
aa(lp31
S'CODE.DO*COUNT'
p32
aS'FLOAT.FROMBOOLEAN'
p33
aS'FLOAT.ROT'
p34
aaS'INTEGER.RAND'
p35
a(lp36
S'POINT.POP'
p37
aa(lp38
(lp39
S'INTEGER.='
p40
aaS'INTEGER.YANK'
p41
aS'CODE.NTH'
p42
a(lp43
S'POINT.+'
p44
aS'CODE.DO*COUNT'
p45
aaaS'CODE.FROMNAME'
p46
asS'accel_x'
p47
F-0.20623928520354595
sS'accel_y'
p48
F0.17628218287735886
sS'maxAccel'
p49
I2
sS'maxVel'
p50
F0.69999999999999996
sS'age'
p51
I100
sS'gener'
p52
S'm'
sS'lastScale'
p53
F15.4
sS'energy'
p54
F0.98999999999999999
sb.(i__main__
Data_mobile
p1
(dp2
S'vel_y'
p3
F0.42347917370813881
sS'vel_x'
p4
F0.55737365333811029
sS'pos_x'
p5
F-95.374380419523462
sS'pos_y'
p6
F50.05284253005815
sS'isAlive'
p7
I01
sS'geno'
p8
(lp9
(lp10
(lp11
S'centerOfWorld'
p12
aa(lp13
S'CODE.CONTAINER'
p14
aS'FLOAT.='
p15
aa(lp16
(lp17
S'CODE.LENGTH'
p18
aS'-0.79770578392727898:-0.64429938458937674:0.054568135425115037'
p19
aS'INTEGER.YANK'
p20
aS'INTEGER.MIN'
p21
aa(lp22
S'target'
p23
aS'INTEGER.='
p24
aS'FLOAT.SWAP'
p25
aaS'CODE.FROMNAME'
p26
a(lp27
S'INTEGER./'
p28
aS'INTEGER.DUP'
p29
aaaS'FLOAT.+'
p30
aa(lp31
S'CODE.DO*COUNT'
p32
aS'FLOAT.FROMBOOLEAN'
p33
aS'FLOAT.ROT'
p34
aaS'INTEGER.RAND'
p35
a(lp36
S'POINT.POP'
p37
aa(lp38
(lp39
S'INTEGER.='
p40
aaS'INTEGER.YANK'
p41
aS'CODE.NTH'
p42
a(lp43
S'POINT.+'
p44
aS'CODE.DO*COUNT'
p45
aaaS'CODE.FROMNAME'
p46
asS'accel_x'
p47
F1.5847841458798584
sS'accel_y'
p48
F1.2200242665487633
sS'maxAccel'
p49
I2
sS'maxVel'
p50
F0.69999999999999996
sS'age'
p51
I300
sS'gener'
p52
S'm'
sS'lastScale'
p53
F10.299999999999994
sS'energy'
p54
F0.47999999999999932
sb.(i__main__
Data_mobile
p1
(dp2
S'vel_y'
p3
F0.63274419556987804
sS'vel_x'
p4
F-0.2993906861821653
sS'pos_x'
p5
F199.33516407728135
sS'pos_y'
p6
F29.127766763451547
sS'isAlive'
p7
I01
sS'geno'
p8
(lp9
(lp10
(lp11
S'CODE.FROMNAME'
p12
aa(lp13
S'target'
p14
aS'-0.38639363166559337'
p15
aS'0.80596280838501710:0.92538271749517476:0.29183063313640434'
p16
aa(lp17
(lp18
S'CODE.LENGTH'
p19
aS'-0.79770578392727898:-0.64429938458937674:0.054568135425115037'
p20
aS'-0.79770578392727898:-0.64429938458937674:0.054568135425115037'
p21
aS'INTEGER.MIN'
p22
aa(lp23
S'CODE.FROMNAME'
p24
aS'INTEGER.='
p25
aS'FLOAT.SIN'
p26
aaS'INTEGER.%'
p27
a(lp28
S'INTEGER.<'
p29
aS'FLOAT.YANK'
p30
aaaS'FLOAT.+'
p31
aa(lp32
S'CODE.DO*COUNT'
p33
aS'FLOAT.FROMBOOLEAN'
p34
aS'FLOAT.ROT'
p35
aaS'INTEGER.RAND'
p36
a(lp37
S'FLOAT.>'
p38
aa(lp39
S'INTEGER.RAND'
p40
aS'CODE.POP'
p41
aS'INTEGER.YANK'
p42
a(lp43
(lp44
S'CODE.DO*COUNT'
p45
aaS'CODE.FLUSH'
p46
aaaS'CODE.FROMNAME'
p47
asS'accel_x'
p48
F0
sS'accel_y'
p49
F0
sS'maxAccel'
p50
I2
sS'maxVel'
p51
F0.69999999999999996
sS'age'
p52
I0
sS'gener'
p53
S'm'
sS'lastScale'
p54
F5.5
sS'energy'
p55
F0.5
sb.(i__main__
Data_mobile
p1
(dp2
S'vel_y'
p3
F0.28292893650210726
sS'vel_x'
p4
F-0.6290182680751043
sS'pos_x'
p5
F134.89786636682217
sS'pos_y'
p6
F63.798529659254733
sS'isAlive'
p7
I01
sS'geno'
p8
(lp9
S'CODE.YANKDUP'
p10
a(lp11
S'CODE.DO*COUNT'
p12
aS'FLOAT.FROMBOOLEAN'
p13
aS'FLOAT.ROT'
p14
aaS'INTEGER.RAND'
p15
a(lp16
S'POINT.POP'
p17
aa(lp18
(lp19
S'INTEGER.='
p20
aaS'INTEGER.YANK'
p21
aS'CODE.NTH'
p22
a(lp23
S'POINT.+'
p24
aS'CODE.DO*COUNT'
p25
aaaS'CODE.FROMNAME'
p26
asS'accel_x'
p27
F0
sS'accel_y'
p28
F0
sS'maxAccel'
p29
I2
sS'maxVel'
p30
F0.69999999999999996
sS'age'
p31
I50
sS'gener'
p32
S'm'
sS'lastScale'
p33
F5.5
sS'energy'
p34
I0
sb.(i__main__
Data_mobile
p1
(dp2
S'vel_y'
p3
F0.63274442783277096
sS'vel_x'
p4
F-0.29939019530802813
sS'pos_x'
p5
F199.33516391372979
sS'pos_y'
p6
F29.127766627082959
sS'isAlive'
p7
I01
sS'geno'
p8
(lp9
(lp10
(lp11
S'CODE.FROMNAME'
p12
aa(lp13
S'target'
p14
aS'-0.38639363166559337'
p15
aS'0.80596280838501710:0.92538271749517476:0.29183063313640434'
p16
aa(lp17
(lp18
S'CODE.LENGTH'
p19
aS'-0.79770578392727898:-0.64429938458937674:0.054568135425115037'
p20
aS'-0.79770578392727898:-0.64429938458937674:0.054568135425115037'
p21
aS'INTEGER.MIN'
p22
aa(lp23
S'target'
p24
aS'INTEGER.='
p25
aS'CODE.NULL'
p26
aaS'INTEGER.%'
p27
a(lp28
(lp29
S'INTEGER./'
p30
aS'INTEGER.DUP'
p31
aaS'FLOAT.YANK'
p32
aaaS'FLOAT.+'
p33
aaS'CODE.NTHCDR'
p34
aS'CODE.POSITION'
p35
a(lp36
S'FLOAT.>'
p37
aa(lp38
(lp39
S'CODE.POSITION'
p40
aaS'FLOAT.MIN'
p41
aS'INTEGER.YANK'
p42
a(lp43
(lp44
S'CODE.DO*COUNT'
p45
aaS'CODE.FLUSH'
p46
aaaS'CODE.FROMNAME'
p47
asS'accel_x'
p48
F-0.057654551953675082
sS'accel_y'
p49
F0.35846445408011363
sS'maxAccel'
p50
I2
sS'maxVel'
p51
F0.69999999999999996
sS'age'
p52
I50
sS'gener'
p53
S'm'
sS'lastScale'
p54
F15.4
sS'energy'
p55
F0.98999999999999999
sb.(i__main__
Data_mobile
p1
(dp2
S'vel_y'
p3
F0.63274419395347847
sS'vel_x'
p4
F-0.2993906895983286
sS'pos_x'
p5
F199.33516406408759
sS'pos_y'
p6
F29.12776675487515
sS'isAlive'
p7
I01
sS'geno'
p8
(lp9
(lp10
(lp11
S'CODE.FROMNAME'
p12
aa(lp13
(lp14
S'FLOAT.DEFINE'
p15
aa(lp16
S'CODE.LENGTH'
p17
aS'-0.79770578392727898:-0.64429938458937674:0.054568135425115037'
p18
aS'INTEGER.YANK'
p19
aS'INTEGER.MIN'
p20
aaS'0.80596280838501710:0.92538271749517476:0.29183063313640434'
p21
aaS'CODE.FROMINTEGER'
p22
aS'FLOAT.+'
p23
aa(lp24
S'CODE.DO*COUNT'
p25
aS'FLOAT.FROMBOOLEAN'
p26
aS'FLOAT.ROT'
p27
aaS'POINT.POP'
p28
a(lp29
S'target'
p30
aa(lp31
(lp32
S'INTEGER.='
p33
aaS'FLOAT.MIN'
p34
aS'CODE.RAND'
p35
a(lp36
(lp37
S'CODE.DO*COUNT'
p38
aaS'CODE.FLUSH'
p39
aaaS'CODE.FROMNAME'
p40
asS'accel_x'
p41
F-0.057654702311481287
sS'accel_y'
p42
F0.35846432628792257
sS'maxAccel'
p43
I2
sS'maxVel'
p44
F0.69999999999999996
sS'age'
p45
I300
sS'gener'
p46
S'm'
sS'lastScale'
p47
F15.4
sS'energy'
p48
F0.98999999999999999
sb.(i__main__
Data_mobile
p1
(dp2
S'vel_y'
p3
F0.42825473756784072
sS'vel_x'
p4
F0.55371281342470291
sS'pos_x'
p5
F-92.942142461929151
sS'pos_y'
p6
F51.875169780920508
sS'isAlive'
p7
I01
sS'geno'
p8
(lp9
(lp10
(lp11
S'CODE.FROMNAME'
p12
aa(lp13
S'FLOAT.COS'
p14
aS'CODE.YANK'
p15
aS'CODE.YANKDUP'
p16
aa(lp17
(lp18
S'CODE.NTH'
p19
aS'-0.79770578392727898:-0.64429938458937674:0.054568135425115037'
p20
aS'-0.79770578392727898:-0.64429938458937674:0.054568135425115037'
p21
aS'INTEGER.MIN'
p22
aa(lp23
S'target'
p24
aS'INTEGER.='
p25
aS'FLOAT.SWAP'
p26
aaS'FLOAT.FROMBOOLEAN'
p27
a(lp28
S'INTEGER.<'
p29
aS'FLOAT.YANK'
p30
aaaS'FLOAT.+'
p31
aa(lp32
S'CODE.DO*COUNT'
p33
aS'FLOAT.FROMBOOLEAN'
p34
aS'FLOAT.ROT'
p35
aaS'INTEGER.RAND'
p36
a(lp37
S'FLOAT.>'
p38
aa(lp39
(lp40
S'INTEGER.='
p41
aaS'FLOAT.MIN'
p42
aS'INTEGER.YANK'
p43
a(lp44
(lp45
S'FLOAT.SWAP'
p46
aaS'CODE.FLUSH'
p47
aaaS'CODE.FROMNAME'
p48
asS'accel_x'
p49
F1.5649058340645359
sS'accel_y'
p50
F1.2454194998115209
sS'maxAccel'
p51
I2
sS'maxVel'
p52
F0.69999999999999996
sS'age'
p53
I150
sS'gener'
p54
S'm'
sS'lastScale'
p55
F10.299999999999994
sS'energy'
p56
F0.47999999999999932
sb.(i__main__
Data_mobile
p1
(dp2
S'vel_y'
p3
F-0.5045431727983104
sS'vel_x'
p4
F-0.48521766948722539
sS'pos_x'
p5
F8.4007713318299508
sS'pos_y'
p6
F-27.788028448806937
sS'isAlive'
p7
I01
sS'geno'
p8
(lp9
(lp10
(lp11
S'CODE.FROMNAME'
p12
aa(lp13
(lp14
S'FLOAT.ROT'
p15
aaS'-0.38639363166559337'
p16
aS'0.80596280838501710:0.92538271749517476:0.29183063313640434'
p17
aa(lp18
(lp19
S'CODE.LENGTH'
p20
aS'-0.79770578392727898:-0.64429938458937674:0.054568135425115037'
p21
aS'-0.79770578392727898:-0.64429938458937674:0.054568135425115037'
p22
aS'INTEGER.MIN'
p23
aa(lp24
S'target'
p25
aS'FLOAT.YANKDUP'
p26
aS'FLOAT.SWAP'
p27
aaS'INTEGER.%'
p28
a(lp29
S'INTEGER.<'
p30
aS'INTEGER.MIN'
p31
aaaS'FLOAT.+'
p32
aa(lp33
S'-0.38639363166559337'
p34
aS'FLOAT.FROMBOOLEAN'
p35
aS'FLOAT.ROT'
p36
aaS'POINT.POP'
p37
a(lp38
S'FLOAT.>'
p39
aa(lp40
(lp41
S'INTEGER.MIN'
p42
aaS'FLOAT.MIN'
p43
aS'CODE.RAND'
p44
a(lp45
(lp46
S'CODE.IF'
p47
aaS'CODE.FLUSH'
p48
aaaS'CODE.FROMNAME'
p49
asS'accel_x'
p50
F0.56980014185746697
sS'accel_y'
p51
F-1.5701758617036852
sS'maxAccel'
p52
I2
sS'maxVel'
p53
F0.69999999999999996
sS'age'
p54
I150
sS'gener'
p55
S'm'
sS'lastScale'
p56
F15.4
sS'energy'
p57
F0.98999999999999999
sb.(i__main__
Data_mobile
p1
(dp2
S'vel_y'
p3
F0.42347930857890798
sS'vel_x'
p4
F0.5573735508664992
sS'pos_x'
p5
F-95.374366344119508
sS'pos_y'
p6
F50.052850809590389
sS'isAlive'
p7
I01
sS'geno'
p8
(lp9
(lp10
(lp11
S'centerOfWorld'
p12
aa(lp13
S'separation'
p14
aS'INTEGER.<'
p15
aa(lp16
(lp17
S'CODE.LENGTH'
p18
aS'-0.79770578392727898:-0.64429938458937674:0.054568135425115037'
p19
aS'-0.79770578392727898:-0.64429938458937674:0.054568135425115037'
p20
aS'INTEGER.MIN'
p21
aa(lp22
S'target'
p23
aS'INTEGER.='
p24
aS'FLOAT.SWAP'
p25
aaS'CODE.FROMNAME'
p26
a(lp27
S'INTEGER./'
p28
aS'INTEGER.DUP'
p29
aaaS'FLOAT.+'
p30
aa(lp31
S'CODE.DO*COUNT'
p32
aS'FLOAT.FROMBOOLEAN'
p33
aS'FLOAT.ROT'
p34
aaS'INTEGER.RAND'
p35
a(lp36
S'POINT.POP'
p37
aa(lp38
(lp39
S'INTEGER.='
p40
aaS'INTEGER.YANK'
p41
aS'CODE.NTH'
p42
a(lp43
S'POINT.+'
p44
aS'CODE.DO*COUNT'
p45
aaaS'CODE.FROMNAME'
p46
asS'accel_x'
p47
F1.5847837311868236
sS'accel_y'
p48
F1.2200248052255205
sS'maxAccel'
p49
I2
sS'maxVel'
p50
F0.69999999999999996
sS'age'
p51
I150
sS'gener'
p52
S'm'
sS'lastScale'
p53
F7.3999999999999906
sS'energy'
p54
F0.18999999999999906
sb.(i__main__
Data_mobile
p1
(dp2
S'vel_y'
p3
F-0.036439650683292774
sS'vel_x'
p4
F0.64289770058441387
sS'pos_x'
p5
F68.80453704515709
sS'pos_y'
p6
F18.632343820670375
sS'isAlive'
p7
I01
sS'geno'
p8
(lp9
(lp10
(lp11
S'CODE.FROMNAME'
p12
aa(lp13
(lp14
S'INTEGER.DEFINE'
p15
aaS'-0.38639363166559337'
p16
aS'0.80596280838501710:0.92538271749517476:0.29183063313640434'
p17
aa(lp18
S'FLOAT.DEFINE'
p19
a(lp20
S'target'
p21
aS'FLOAT.YANKDUP'
p22
aS'FLOAT.SWAP'
p23
aaS'INTEGER.%'
p24
a(lp25
S'INTEGER.<'
p26
aS'INTEGER.MIN'
p27
aaaS'FLOAT.DUP'
p28
aa(lp29
S'-0.38639363166559337'
p30
aS'FLOAT.FROMBOOLEAN'
p31
aS'CODE.FROMNAME'
p32
aaS'POINT.POP'
p33
a(lp34
S'FLOAT.>'
p35
aa(lp36
(lp37
S'INTEGER.MIN'
p38
aaS'FLOAT.MIN'
p39
aS'CODE.RAND'
p40
a(lp41
(lp42
S'CODE.IF'
p43
aaS'CODE.FLUSH'
p44
aaaS'CODE.FROMNAME'
p45
asS'accel_x'
p46
F0.28841446191539433
sS'accel_y'
p47
F0.69411853557513581
sS'maxAccel'
p48
I2
sS'maxVel'
p49
F0.69999999999999996
sS'age'
p50
I50
sS'gener'
p51
S'm'
sS'lastScale'
p52
F15.4
sS'energy'
p53
F0.98999999999999999
sb.(i__main__
Data_mobile
p1
(dp2
S'vel_y'
p3
F0.63274419395348336
sS'vel_x'
p4
F-0.29939068959831833
sS'pos_x'
p5
F199.33516406408754
sS'pos_y'
p6
F29.127766754875115
sS'isAlive'
p7
I01
sS'geno'
p8
(lp9
(lp10
(lp11
S'CODE.FROMNAME'
p12
aa(lp13
(lp14
S'FLOAT.DEFINE'
p15
aaS'-0.38639363166559337'
p16
aS'0.80596280838501710:0.92538271749517476:0.29183063313640434'
p17
aa(lp18
(lp19
S'CODE.LENGTH'
p20
aS'-0.79770578392727898:-0.64429938458937674:0.054568135425115037'
p21
aS'-0.79770578392727898:-0.64429938458937674:0.054568135425115037'
p22
aS'INTEGER.MIN'
p23
aa(lp24
S'target'
p25
aS'FLOAT.YANKDUP'
p26
aS'FLOAT.SWAP'
p27
aaS'INTEGER.%'
p28
a(lp29
S'INTEGER.<'
p30
aS'INTEGER.MIN'
p31
aaaS'FLOAT.+'
p32
aa(lp33
S'CODE.DO*COUNT'
p34
aS'FLOAT.FROMBOOLEAN'
p35
aS'FLOAT.ROT'
p36
aaS'POINT.POP'
p37
a(lp38
S'FLOAT.>'
p39
aa(lp40
(lp41
S'INTEGER.='
p42
aaS'FLOAT.MIN'
p43
aS'CODE.RAND'
p44
a(lp45
(lp46
S'CODE.DO*COUNT'
p47
aaS'CODE.FLUSH'
p48
aaaS'CODE.FROMNAME'
p49
asS'accel_x'
p50
F-0.057654702311424444
sS'accel_y'
p51
F0.3584643262879581
sS'maxAccel'
p52
I2
sS'maxVel'
p53
F0.69999999999999996
sS'age'
p54
I400
sS'gener'
p55
S'm'
sS'lastScale'
p56
F15.4
sS'energy'
p57
F0.98999999999999999
sb.(i__main__
Data_mobile
p1
(dp2
S'vel_y'
p3
F0.41477737744345933
sS'vel_x'
p4
F0.56387917780418706
sS'pos_x'
p5
F-93.640921712507918
sS'pos_y'
p6
F51.537373096161026
sS'isAlive'
p7
I01
sS'geno'
p8
(lp9
(lp10
(lp11
S'CODE.FROMNAME'
p12
aa(lp13
(lp14
S'FLOAT.DEFINE'
p15
aaS'-0.38639363166559337'
p16
aS'0.80596280838501710:0.92538271749517476:0.29183063313640434'
p17
aa(lp18
(lp19
S'CODE.NTH'
p20
aS'-0.79770578392727898:-0.64429938458937674:0.054568135425115037'
p21
aS'-0.79770578392727898:-0.64429938458937674:0.054568135425115037'
p22
aS'INTEGER.MIN'
p23
aa(lp24
S'INTEGER./'
p25
aS'POINT.+'
p26
aaS'FLOAT.FROMBOOLEAN'
p27
a(lp28
S'INTEGER.<'
p29
aS'FLOAT.YANK'
p30
aaa(lp31
(lp32
S'CODE.NTH'
p33
a(lp34
S'9'
aaS'CODE.DO'
p35
a(lp36
S'CODE.POSITION'
p37
aS'POINT.*'
p38
aaa(lp39
S'CODE.DO*COUNT'
p40
aS'FLOAT.FROMBOOLEAN'
p41
aS'FLOAT.ROT'
p42
aaS'currentVelocity'
p43
a(lp44
S'target'
p45
aa(lp46
S'INTEGER.-'
p47
aaS'CODE.FROMNAME'
p48
aaa(lp49
S'CODE.DO*COUNT'
p50
aS'FLOAT.FROMBOOLEAN'
p51
aS'FLOAT.ROT'
p52
aaS'INTEGER.RAND'
p53
a(lp54
S'FLOAT.>'
p55
aa(lp56
(lp57
S'INTEGER.='
p58
aaS'FLOAT.MIN'
p59
aS'INTEGER.YANK'
p60
a(lp61
(lp62
S'CODE.DO*COUNT'
p63
aaS'CODE.FLUSH'
p64
aaaS'CODE.FROMNAME'
p65
asS'accel_x'
p66
F1.6090825144155325
sS'accel_y'
p67
F1.1877935265870863
sS'maxAccel'
p68
I2
sS'maxVel'
p69
F0.69999999999999996
sS'age'
p70
I200
sS'gener'
p71
S'm'
sS'lastScale'
p72
F6.3999999999999915
sS'energy'
p73
F0.089999999999999136
sb.(i__main__
Data_mobile
p1
(dp2
S'vel_y'
p3
F-0.4557315445362991
sS'vel_x'
p4
F-0.53132735607585568
sS'pos_x'
p5
F7.4437580973490274
sS'pos_y'
p6
F-29.190134733708959
sS'isAlive'
p7
I01
sS'geno'
p8
(lp9
(lp10
(lp11
S'centerOfWorld'
p12
aa(lp13
S'FLOAT.SIN'
p14
aS'POINT.POP'
p15
a(lp16
(lp17
S'CODE.LENGTH'
p18
aS'-0.79770578392727898:-0.64429938458937674:0.054568135425115037'
p19
aS'INTEGER.YANK'
p20
aS'INTEGER.MIN'
p21
aa(lp22
S'target'
p23
aS'INTEGER.='
p24
aS'FLOAT.SWAP'
p25
aaS'CODE.FROMNAME'
p26
a(lp27
S'FLOAT.YANKDUP'
p28
aS'separation'
p29
aaaS'FLOAT.+'
p30
aa(lp31
(lp32
S'INTEGER.='
p33
aS'-0.79770578392727898:-0.64429938458937674:0.054568135425115037'
p34
a(lp35
S'INTEGER.+'
p36
aS'INTEGER.DUP'
p37
aaS'INTEGER.MIN'
p38
aa(lp39
S'target'
p40
aS'INTEGER.='
p41
aS'FLOAT.SWAP'
p42
aaS'CODE.FROMNAME'
p43
a(lp44
S'INTEGER./'
p45
aS'INTEGER.DUP'
p46
aaaS'FLOAT.+'
p47
aa(lp48
S'CODE.DO*COUNT'
p49
aS'FLOAT.FROMBOOLEAN'
p50
aS'FLOAT.ROT'
p51
aaS'INTEGER.RAND'
p52
a(lp53
S'POINT.POP'
p54
aa(lp55
(lp56
S'INTEGER.='
p57
aaS'INTEGER.YANK'
p58
aS'CODE.NTH'
p59
a(lp60
S'POINT.+'
p61
aS'CODE.DO*COUNT'
p62
aaaS'CODE.FROMNAME'
p63
asS'accel_x'
p64
F0.56495586977342982
sS'accel_y'
p65
F-0.88157698989964861
sS'maxAccel'
p66
I2
sS'maxVel'
p67
F0.69999999999999996
sS'age'
p68
I100
sS'gener'
p69
S'm'
sS'lastScale'
p70
F15.4
sS'energy'
p71
F0.98999999999999999
sb.(i__main__
Data_mobile
p1
(dp2
S'vel_y'
p3
F0.42825476342807745
sS'vel_x'
p4
F0.55371279342377611
sS'pos_x'
p5
F-92.942142255780254
sS'pos_y'
p6
F51.875169590383472
sS'isAlive'
p7
I01
sS'geno'
p8
(lp9
(lp10
(lp11
S'CODE.FROMNAME'
p12
aa(lp13
(lp14
S'FLOAT.DEFINE'
p15
aaS'-0.38639363166559337'
p16
aS'0.80596280838501710:0.92538271749517476:0.29183063313640434'
p17
aa(lp18
(lp19
S'CODE.NTH'
p20
aS'-0.79770578392727898:-0.64429938458937674:0.054568135425115037'
p21
aS'-0.79770578392727898:-0.64429938458937674:0.054568135425115037'
p22
aS'INTEGER.MIN'
p23
aa(lp24
S'target'
p25
aS'INTEGER.='
p26
aS'FLOAT.SWAP'
p27
aaS'FLOAT.FROMBOOLEAN'
p28
a(lp29
S'INTEGER.<'
p30
aS'FLOAT.YANK'
p31
aaaS'FLOAT.+'
p32
aa(lp33
S'CODE.DO*COUNT'
p34
aS'FLOAT.FROMBOOLEAN'
p35
aS'FLOAT.ROT'
p36
aaS'INTEGER.RAND'
p37
a(lp38
S'FLOAT.>'
p39
aa(lp40
(lp41
S'INTEGER.='
p42
aaS'FLOAT.MIN'
p43
aS'INTEGER.YANK'
p44
a(lp45
(lp46
S'CODE.DO*COUNT'
p47
aaS'CODE.FLUSH'
p48
aaaS'CODE.FROMNAME'
p49
asS'accel_x'
p50
F1.5649057464909082
sS'accel_y'
p51
F1.2454196098503241
sS'maxAccel'
p52
I2
sS'maxVel'
p53
F0.69999999999999996
sS'age'
p54
I250
sS'gener'
p55
S'm'
sS'lastScale'
p56
F8.199999999999994
sS'energy'
p57
F0.26999999999999935
sb.(i__main__
Data_mobile
p1
(dp2
S'vel_y'
p3
F0.27965967335746933
sS'vel_x'
p4
F-0.53966935819524575
sS'pos_x'
p5
F125.45291532639447
sS'pos_y'
p6
F35.99897643953571
sS'isAlive'
p7
I01
sS'geno'
p8
(lp9
(lp10
(lp11
S'CODE.FROMNAME'
p12
aa(lp13
S'target'
p14
aS'-0.38639363166559337'
p15
aS'0.80596280838501710:0.92538271749517476:0.29183063313640434'
p16
aa(lp17
(lp18
S'CODE.LENGTH'
p19
aS'-0.79770578392727898:-0.64429938458937674:0.054568135425115037'
p20
aS'-0.79770578392727898:-0.64429938458937674:0.054568135425115037'
p21
aS'INTEGER.MIN'
p22
aa(lp23
S'target'
p24
aS'INTEGER.='
p25
aS'CODE.NULL'
p26
aaS'INTEGER.%'
p27
a(lp28
(lp29
S'INTEGER./'
p30
aS'INTEGER.DUP'
p31
aaS'FLOAT.YANK'
p32
aaaS'FLOAT.+'
p33
aa(lp34
S'CODE.DO*COUNT'
p35
aS'FLOAT.FROMBOOLEAN'
p36
aS'FLOAT.ROT'
p37
aaS'INTEGER.RAND'
p38
a(lp39
S'FLOAT.>'
p40
aa(lp41
(lp42
S'CODE.POSITION'
p43
aaS'FLOAT.MIN'
p44
a(lp45
S'CODE.DO*COUNT'
p46
aS'FLOAT.FROMBOOLEAN'
p47
aS'FLOAT.ROT'
p48
aa(lp49
(lp50
S'separation'
p51
aaS'CODE.FLUSH'
p52
aaaS'CODE.FROMNAME'
p53
asS'accel_x'
p54
F0
sS'accel_y'
p55
F0
sS'maxAccel'
p56
I2
sS'maxVel'
p57
F0.69999999999999996
sS'age'
p58
I50
sS'gener'
p59
S'm'
sS'lastScale'
p60
F5.5
sS'energy'
p61
I0
sb.(i__main__
Data_mobile
p1
(dp2
S'vel_y'
p3
F-0.46032339311281684
sS'vel_x'
p4
F-0.52735412556753836
sS'pos_x'
p5
F8.4906077966130464
sS'pos_y'
p6
F-27.753508831500177
sS'isAlive'
p7
I01
sS'geno'
p8
(lp9
(lp10
(lp11
S'CODE.FROMNAME'
p12
aa(lp13
(lp14
S'FLOAT.ROT'
p15
aaS'-0.38639363166559337'
p16
aS'0.80596280838501710:0.92538271749517476:0.29183063313640434'
p17
aa(lp18
S'FLOAT.DEFINE'
p19
a(lp20
S'target'
p21
aS'FLOAT.YANKDUP'
p22
aS'FLOAT.SWAP'
p23
aaS'INTEGER.%'
p24
a(lp25
S'INTEGER.<'
p26
aS'INTEGER.MIN'
p27
aaaS'FLOAT.DUP'
p28
aa(lp29
S'-0.38639363166559337'
p30
aS'FLOAT.FROMBOOLEAN'
p31
aS'FLOAT.ROT'
p32
aaS'POINT.POP'
p33
a(lp34
S'FLOAT.>'
p35
aa(lp36
(lp37
S'INTEGER.MIN'
p38
aaS'FLOAT.MIN'
p39
aS'CODE.RAND'
p40
a(lp41
(lp42
S'CODE.IF'
p43
aaS'CODE.FLUSH'
p44
aaaS'CODE.FROMNAME'
p45
asS'accel_x'
p46
F0.47996367707437138
sS'accel_y'
p47
F-1.6046954790104451
sS'maxAccel'
p48
I2
sS'maxVel'
p49
F0.69999999999999996
sS'age'
p50
I100
sS'gener'
p51
S'm'
sS'lastScale'
p52
F15.4
sS'energy'
p53
F0.98999999999999999
sb.(i__main__
Data_mobile
p1
(dp2
S'vel_y'
p3
F0.52786154900736648
sS'vel_x'
p4
F0.45974143285062252
sS'pos_x'
p5
F61.279554944764222
sS'pos_y'
p6
F50.275331751383234
sS'isAlive'
p7
I01
sS'geno'
p8
(lp9
(lp10
(lp11
S'CODE.FROMNAME'
p12
aa(lp13
(lp14
S'CODE.NTHCDR'
p15
aaS'POINT./'
p16
aS'FLOAT.MAX'
p17
aa(lp18
(lp19
S'CODE.LENGTH'
p20
aS'-0.79770578392727898:-0.64429938458937674:0.054568135425115037'
p21
aS'INTEGER.+'
p22
aS'0.80596280838501710:0.92538271749517476:0.29183063313640434'
p23
aa(lp24
S'CODE.FROMNAME'
p25
aaS'CODE.FROMNAME'
p26
a(lp27
S'INTEGER.<'
p28
aS'INTEGER.DUP'
p29
aaaS'POINT.POP'
p30
aa(lp31
S'FLOAT.+'
p32
aS'CODE.FROMINTEGER'
p33
aS'POINT.LENGTH'
p34
aaS'INTEGER.RAND'
p35
a(lp36
S'CODE.NOOP'
p37
aa(lp38
(lp39
S'FLOAT.+'
p40
aaS'FLOAT.MIN'
p41
aS'CODE.NTH'
p42
a(lp43
(lp44
S'CODE.DO*TIMES'
p45
aaS'CODE.FROMNAME'
p46
aaaS'CODE.SIZE'
p47
asS'accel_x'
p48
F0.8059628083850171
sS'accel_y'
p49
F0.92538271749517476
sS'maxAccel'
p50
I2
sS'maxVel'
p51
F0.69999999999999996
sS'age'
p52
I50
sS'gener'
p53
S'm'
sS'lastScale'
p54
F5.5
sS'energy'
p55
I0
sb.(i__main__
Data_mobile
p1
(dp2
S'vel_y'
p3
F0.63274419129052906
sS'vel_x'
p4
F-0.29939069522631168
sS'pos_x'
p5
F199.33516415864233
sS'pos_y'
p6
F29.127766818193475
sS'isAlive'
p7
I01
sS'geno'
p8
(lp9
(lp10
(lp11
S'CODE.FROMNAME'
p12
aa(lp13
(lp14
S'CODE.NTHCDR'
p15
aaS'POINT./'
p16
aS'FLOAT.MAX'
p17
aa(lp18
(lp19
S'CODE.LENGTH'
p20
aS'-0.79770578392727898:-0.64429938458937674:0.054568135425115037'
p21
aS'INTEGER.YANK'
p22
aS'0.80596280838501710:0.92538271749517476:0.29183063313640434'
p23
aa(lp24
S'target'
p25
aS'INTEGER.='
p26
aS'FLOAT.SWAP'
p27
aaS'CODE.FROMNAME'
p28
a(lp29
S'INTEGER.<'
p30
aS'INTEGER.DUP'
p31
aaaS'POINT.POP'
p32
aa(lp33
S'FLOAT.+'
p34
aS'CODE.FROMINTEGER'
p35
aS'POINT.LENGTH'
p36
aaS'INTEGER.RAND'
p37
a(lp38
S'CODE.NOOP'
p39
aa(lp40
(lp41
S'FLOAT.+'
p42
aaS'FLOAT.MIN'
p43
aS'CODE.NTH'
p44
a(lp45
(lp46
S'CODE.DO*TIMES'
p47
aaS'CODE.FLUSH'
p48
aaaS'INTEGER.POP'
p49
asS'accel_x'
p50
F-0.057654796866216884
sS'accel_y'
p51
F0.35846426296959777
sS'maxAccel'
p52
I2
sS'maxVel'
p53
F0.69999999999999996
sS'age'
p54
I50
sS'gener'
p55
S'm'
sS'lastScale'
p56
F15.4
sS'energy'
p57
F0.98999999999999999
sb.(i__main__
Data_mobile
p1
(dp2
S'vel_y'
p3
F0.63274444086768633
sS'vel_x'
p4
F-0.29939016775946209
sS'pos_x'
p5
F199.33516416862977
sS'pos_y'
p6
F29.127766794838536
sS'isAlive'
p7
I01
sS'geno'
p8
(lp9
(lp10
(lp11
S'CODE.FROMNAME'
p12
aa(lp13
S'target'
p14
aS'-0.38639363166559337'
p15
aS'0.80596280838501710:0.92538271749517476:0.29183063313640434'
p16
aa(lp17
(lp18
S'CODE.LENGTH'
p19
aS'-0.79770578392727898:-0.64429938458937674:0.054568135425115037'
p20
aS'-0.79770578392727898:-0.64429938458937674:0.054568135425115037'
p21
aS'INTEGER.MIN'
p22
aa(lp23
S'target'
p24
aS'INTEGER.='
p25
aS'CODE.NULL'
p26
aaS'INTEGER.%'
p27
a(lp28
(lp29
S'INTEGER./'
p30
aS'INTEGER.DUP'
p31
aaS'FLOAT.YANK'
p32
aaaS'FLOAT.+'
p33
aa(lp34
S'CODE.DO*COUNT'
p35
aS'FLOAT.FROMBOOLEAN'
p36
aS'FLOAT.ROT'
p37
aaS'INTEGER.RAND'
p38
a(lp39
S'FLOAT.>'
p40
aa(lp41
(lp42
S'CODE.POSITION'
p43
aaS'FLOAT.MIN'
p44
aS'INTEGER.YANK'
p45
a(lp46
(lp47
S'CODE.DO*COUNT'
p48
aaS'CODE.FLUSH'
p49
aaaS'CODE.FROMNAME'
p50
asS'accel_x'
p51
F-0.057654806853662421
sS'accel_y'
p52
F0.35846428632453708
sS'maxAccel'
p53
I2
sS'maxVel'
p54
F0.69999999999999996
sS'age'
p55
I150
sS'gener'
p56
S'm'
sS'lastScale'
p57
F15.4
sS'energy'
p58
F0.98999999999999999
sb.(i__main__
Data_mobile
p1
(dp2
S'vel_y'
p3
F0.42825476984686239
sS'vel_x'
p4
F0.55371278845933369
sS'pos_x'
p5
F-92.942142204612381
sS'pos_y'
p6
F51.875169543089818
sS'isAlive'
p7
I01
sS'geno'
p8
(lp9
(lp10
(lp11
S'CODE.FROMNAME'
p12
aa(lp13
S'FLOAT.COS'
p14
aS'INTEGER.='
p15
aS'CODE.YANKDUP'
p16
aa(lp17
(lp18
S'CODE.NTH'
p19
aS'FLOAT.POP'
p20
aS'-0.79770578392727898:-0.64429938458937674:0.054568135425115037'
p21
aS'INTEGER.MIN'
p22
aa(lp23
S'target'
p24
aS'INTEGER.='
p25
aS'FLOAT.SWAP'
p26
aaS'FLOAT.FROMBOOLEAN'
p27
a(lp28
S'INTEGER.<'
p29
aS'FLOAT.YANK'
p30
aaaS'FLOAT.+'
p31
aa(lp32
S'CODE.DO*COUNT'
p33
aS'FLOAT.FROMBOOLEAN'
p34
aS'FLOAT.ROT'
p35
aaS'INTEGER.RAND'
p36
a(lp37
S'FLOAT.>'
p38
aa(lp39
(lp40
S'FLOAT.FROMBOOLEAN'
p41
aaS'FLOAT.MIN'
p42
aS'INTEGER.YANK'
p43
a(lp44
S'INTEGER.<'
p45
aS'CODE.FLUSH'
p46
aaaS'CODE.FROMNAME'
p47
asS'accel_x'
p48
F1.5649057247542117
sS'accel_y'
p49
F1.245419637163111
sS'maxAccel'
p50
I2
sS'maxVel'
p51
F0.69999999999999996
sS'age'
p52
I100
sS'gener'
p53
S'm'
sS'lastScale'
p54
F5.5
sS'energy'
p55
I0
sb.(i__main__
Data_mobile
p1
(dp2
S'vel_y'
p3
F0.027549163896304164
sS'vel_x'
p4
F0.2273836214417615
sS'pos_x'
p5
F64.602850726932132
sS'pos_y'
p6
F26.338255195603345
sS'isAlive'
p7
I01
sS'geno'
p8
(lp9
(lp10
(lp11
S'CODE.FROMNAME'
p12
aa(lp13
S'INTEGER./'
p14
a(lp15
S'CODE.YANK'
p16
aaa(lp17
(lp18
S'CODE.LENGTH'
p19
aS'-0.79770578392727898:-0.64429938458937674:0.054568135425115037'
p20
aS'INTEGER.YANK'
p21
aS'0.80596280838501710:0.92538271749517476:0.29183063313640434'
p22
aa(lp23
S'target'
p24
aS'INTEGER.='
p25
aS'FLOAT.SWAP'
p26
aaS'CODE.FROMNAME'
p27
a(lp28
S'INTEGER.<'
p29
aS'INTEGER.DUP'
p30
aaaS'POINT.POP'
p31
aa(lp32
S'FLOAT.+'
p33
aS'CODE.FROMINTEGER'
p34
aS'-0.79770578392727898:-0.64429938458937674:0.054568135425115037'
p35
aaS'INTEGER.RAND'
p36
a(lp37
S'CODE.NOOP'
p38
aa(lp39
(lp40
S'FLOAT.+'
p41
aaS'FLOAT.MIN'
p42
aS'CODE.NTH'
p43
a(lp44
(lp45
S'CODE.DO*TIMES'
p46
aaS'CODE.FROMNAME'
p47
aaaS'CODE.SIZE'
p48
asS'accel_x'
p49
F0
sS'accel_y'
p50
F0
sS'maxAccel'
p51
I2
sS'maxVel'
p52
F0.69999999999999996
sS'age'
p53
I0
sS'gener'
p54
S'm'
sS'lastScale'
p55
F5.5
sS'energy'
p56
F0.5
sb.(i__main__
Data_mobile
p1
(dp2
S'vel_y'
p3
F-0.037905545305162824
sS'vel_x'
p4
F-0.69897293912934733
sS'pos_x'
p5
F91.119954949629275
sS'pos_y'
p6
F16.54666215659697
sS'isAlive'
p7
I01
sS'geno'
p8
(lp9
(lp10
(lp11
S'centerOfWorld'
p12
aa(lp13
(lp14
S'FLOAT.DEFINE'
p15
aa(lp16
S'CODE.NOOP'
p17
aaS'POINT.+'
p18
aa(lp19
(lp20
S'CODE.LENGTH'
p21
aS'-0.79770578392727898:-0.64429938458937674:0.054568135425115037'
p22
a(lp23
S'INTEGER./'
p24
aS'INTEGER.DUP'
p25
aaS'INTEGER.MIN'
p26
aa(lp27
S'target'
p28
aS'INTEGER.='
p29
aS'FLOAT.SWAP'
p30
aaS'CODE.FROMNAME'
p31
a(lp32
S'INTEGER./'
p33
aS'INTEGER.DUP'
p34
aaaS'FLOAT.+'
p35
aa(lp36
S'CODE.DO*COUNT'
p37
aS'alignment'
p38
aS'FLOAT.ROT'
p39
aaS'INTEGER.RAND'
p40
aS'FLOAT.SWAP'
p41
a(lp42
(lp43
S'INTEGER.='
p44
aaS'INTEGER.YANK'
p45
aS'CODE.NTH'
p46
a(lp47
S'POINT.+'
p48
aS'CODE.DO*COUNT'
p49
aaaS'CODE.FROMNAME'
p50
asS'accel_x'
p51
F0.074790421429649978
sS'accel_y'
p52
F-0.29734406700617866
sS'maxAccel'
p53
I2
sS'maxVel'
p54
F0.69999999999999996
sS'age'
p55
I50
sS'gener'
p56
S'm'
sS'lastScale'
p57
F15.4
sS'energy'
p58
F0.98999999999999999
sb.(i__main__
Data_mobile
p1
(dp2
S'vel_y'
p3
F0.63398855660688058
sS'vel_x'
p4
F-0.29674654183583032
sS'pos_x'
p5
F198.52647246629917
sS'pos_y'
p6
F28.486780563867825
sS'isAlive'
p7
I01
sS'geno'
p8
(lp9
(lp10
(lp11
S'centerOfWorld'
p12
aa(lp13
S'FLOAT.SIN'
p14
a(lp15
S'CODE.CONTAINER'
p16
aS'FLOAT.='
p17
aa(lp18
(lp19
S'CODE.LENGTH'
p20
aS'-0.79770578392727898:-0.64429938458937674:0.054568135425115037'
p21
aS'INTEGER.YANK'
p22
aS'INTEGER.MIN'
p23
aa(lp24
S'target'
p25
aS'INTEGER.='
p26
aS'FLOAT.SWAP'
p27
aaS'CODE.FROMNAME'
p28
a(lp29
S'INTEGER./'
p30
aS'INTEGER.DUP'
p31
aaaS'FLOAT.+'
p32
aa(lp33
(lp34
S'INTEGER.='
p35
aS'-0.79770578392727898:-0.64429938458937674:0.054568135425115037'
p36
a(lp37
S'INTEGER.+'
p38
aS'INTEGER.DUP'
p39
aaS'INTEGER.MIN'
p40
aa(lp41
S'target'
p42
aS'INTEGER.='
p43
aS'FLOAT.SWAP'
p44
aaS'CODE.FROMNAME'
p45
a(lp46
S'INTEGER./'
p47
aS'INTEGER.DUP'
p48
aaaS'FLOAT.+'
p49
aa(lp50
S'CODE.DO*COUNT'
p51
aS'FLOAT.FROMBOOLEAN'
p52
aS'FLOAT.ROT'
p53
aaS'INTEGER.RAND'
p54
a(lp55
S'POINT.POP'
p56
aa(lp57
(lp58
S'INTEGER.='
p59
aaS'INTEGER.YANK'
p60
aS'CODE.NTH'
p61
a(lp62
S'POINT.+'
p63
aS'CODE.DO*COUNT'
p64
aaaS'CODE.FROMNAME'
p65
asS'accel_x'
p66
F-0.046668888450335677
sS'accel_y'
p67
F0.35515113270587118
sS'maxAccel'
p68
I2
sS'maxVel'
p69
F0.69999999999999996
sS'age'
p70
I150
sS'gener'
p71
S'm'
sS'lastScale'
p72
F15.4
sS'energy'
p73
F0.98999999999999999
sb.(i__main__
Data_mobile
p1
(dp2
S'vel_y'
p3
F0.4234793910049921
sS'vel_x'
p4
F0.55737348824109034
sS'pos_x'
p5
F-96.17206352513621
sS'pos_y'
p6
F49.40855648559792
sS'isAlive'
p7
I01
sS'geno'
p8
(lp9
(lp10
(lp11
S'centerOfWorld'
p12
aa(lp13
S'CODE.SHOVE'
p14
aS'CODE.YANK'
p15
aa(lp16
(lp17
S'CODE.LENGTH'
p18
aS'-0.79770578392727898:-0.64429938458937674:0.054568135425115037'
p19
aS'INTEGER.YANK'
p20
aS'INTEGER.MIN'
p21
aa(lp22
S'target'
p23
aS'INTEGER.='
p24
aS'FLOAT.SWAP'
p25
aaS'CODE.FROMNAME'
p26
a(lp27
S'INTEGER./'
p28
aS'INTEGER.DUP'
p29
aaaS'FLOAT.+'
p30
aa(lp31
S'CODE.DO*COUNT'
p32
aS'FLOAT.FROMBOOLEAN'
p33
aS'FLOAT.ROT'
p34
aaS'INTEGER.RAND'
p35
a(lp36
S'POINT.POP'
p37
aa(lp38
(lp39
(lp40
S'CODE.NTH'
p41
aS'-0.79770578392727898:-0.64429938458937674:0.054568135425115037'
p42
aS'-0.79770578392727898:-0.64429938458937674:0.054568135425115037'
p43
aS'INTEGER.MIN'
p44
aa(lp45
S'INTEGER./'
p46
aS'POINT.+'
p47
aaS'FLOAT.FROMBOOLEAN'
p48
a(lp49
S'INTEGER.<'
p50
aS'FLOAT.YANK'
p51
aaaS'INTEGER.YANK'
p52
aS'CODE.NTH'
p53
a(lp54
S'POINT.+'
p55
aS'CODE.DO*COUNT'
p56
aaaS'CODE.FROMNAME'
p57
asS'accel_x'
p58
F1.5847834777460985
sS'accel_y'
p59
F1.2200251344390334
sS'maxAccel'
p60
I2
sS'maxVel'
p61
F0.69999999999999996
sS'age'
p62
I100
sS'gener'
p63
S'm'
sS'lastScale'
p64
F10.699999999999992
sS'energy'
p65
F0.51999999999999924
sb.(i__main__
Data_mobile
p1
(dp2
S'vel_y'
p3
F-0.62734991371764859
sS'vel_x'
p4
F0.31053516026121541
sS'pos_x'
p5
F95.739718226856127
sS'pos_y'
p6
F7.4504076383406552
sS'isAlive'
p7
I01
sS'geno'
p8
(lp9
(lp10
(lp11
S'centerOfWorld'
p12
aa(lp13
S'FLOAT.SIN'
p14
aS'POINT.POP'
p15
a(lp16
(lp17
S'CODE.LENGTH'
p18
aS'-0.79770578392727898:-0.64429938458937674:0.054568135425115037'
p19
aS'INTEGER.YANK'
p20
aS'INTEGER.MIN'
p21
aa(lp22
S'target'
p23
aS'INTEGER.='
p24
aS'FLOAT.SWAP'
p25
aaS'CODE.FROMNAME'
p26
a(lp27
S'FLOAT.YANKDUP'
p28
aS'separation'
p29
aaaS'FLOAT.+'
p30
aaS'CODE.DO'
p31
aS'FLOAT.+'
p32
aa(lp33
S'CODE.DO*COUNT'
p34
aS'INTEGER.%'
p35
aS'FLOAT.ROT'
p36
aaS'INTEGER.RAND'
p37
a(lp38
S'POINT.POP'
p39
aa(lp40
(lp41
S'INTEGER.='
p42
aaS'INTEGER.YANK'
p43
aS'CODE.NTH'
p44
a(lp45
S'POINT.+'
p46
aS'CODE.DO*COUNT'
p47
aaaS'CODE.FROMNAME'
p48
asS'accel_x'
p49
F-0.97494084461568287
sS'accel_y'
p50
F1.340780751572509
sS'maxAccel'
p51
I2
sS'maxVel'
p52
F0.69999999999999996
sS'age'
p53
I50
sS'gener'
p54
S'm'
sS'lastScale'
p55
F15.4
sS'energy'
p56
F0.98999999999999999
sb.(i__main__
Data_mobile
p1
(dp2
S'vel_y'
p3
F0.075152466459812314
sS'vel_x'
p4
F-0.69595409818824028
sS'pos_x'
p5
F88.810514457005155
sS'pos_y'
p6
F15.063237559167698
sS'isAlive'
p7
I01
sS'geno'
p8
(lp9
(lp10
(lp11
S'CODE.FROMNAME'
p12
aa(lp13
(lp14
S'FLOAT.DEFINE'
p15
aaS'-0.38639363166559337'
p16
aS'0.80596280838501710:0.92538271749517476:0.29183063313640434'
p17
aa(lp18
(lp19
(lp20
(lp21
S'centerOfWorld'
p22
aa(lp23
S'CODE.CONTAINER'
p24
aS'FLOAT.='
p25
aa(lp26
(lp27
S'CODE.LENGTH'
p28
aS'-0.79770578392727898:-0.64429938458937674:0.054568135425115037'
p29
aS'INTEGER.YANK'
p30
aS'INTEGER.MIN'
p31
aa(lp32
S'target'
p33
aS'INTEGER.='
p34
aS'FLOAT.SWAP'
p35
aaS'CODE.FROMNAME'
p36
a(lp37
S'INTEGER./'
p38
aS'INTEGER.DUP'
p39
aaaS'FLOAT.+'
p40
aa(lp41
S'CODE.DO*COUNT'
p42
aS'FLOAT.FROMBOOLEAN'
p43
aS'FLOAT.ROT'
p44
aaS'INTEGER.RAND'
p45
a(lp46
S'POINT.POP'
p47
aa(lp48
(lp49
S'INTEGER.='
p50
aaS'INTEGER.YANK'
p51
aS'CODE.NTH'
p52
a(lp53
S'POINT.+'
p54
aS'CODE.DO*COUNT'
p55
aaaS'CODE.FROMNAME'
p56
aa(lp57
S'target'
p58
aS'FLOAT.YANKDUP'
p59
aS'FLOAT.SWAP'
p60
aaS'INTEGER.%'
p61
a(lp62
S'INTEGER.<'
p63
aS'INTEGER.MIN'
p64
aaaS'FLOAT.+'
p65
aa(lp66
S'CODE.DO*COUNT'
p67
aS'FLOAT.FROMBOOLEAN'
p68
aS'FLOAT.ROT'
p69
aaS'POINT.POP'
p70
a(lp71
S'FLOAT.>'
p72
aa(lp73
(lp74
S'INTEGER.='
p75
aaS'FLOAT.MIN'
p76
aS'CODE.RAND'
p77
a(lp78
(lp79
S'CODE.DO*COUNT'
p80
aaS'CODE.FLUSH'
p81
aaaS'FLOAT.>'
p82
asS'accel_x'
p83
F0.24551433438375625
sS'accel_y'
p84
F0.69185908781610905
sS'maxAccel'
p85
I2
sS'maxVel'
p86
F0.69999999999999996
sS'age'
p87
I100
sS'gener'
p88
S'm'
sS'lastScale'
p89
F15.4
sS'energy'
p90
F0.98999999999999999
sb.(i__main__
Data_mobile
p1
(dp2
S'vel_y'
p3
F0.63274419395348336
sS'vel_x'
p4
F-0.29939068959831833
sS'pos_x'
p5
F199.33516406408754
sS'pos_y'
p6
F29.127766754875115
sS'isAlive'
p7
I01
sS'geno'
p8
(lp9
(lp10
(lp11
S'CODE.FROMNAME'
p12
aa(lp13
(lp14
S'CODE.NTHCDR'
p15
aaS'POINT./'
p16
aS'FLOAT.MAX'
p17
aa(lp18
(lp19
S'CODE.LENGTH'
p20
aS'-0.79770578392727898:-0.64429938458937674:0.054568135425115037'
p21
aS'INTEGER.YANK'
p22
aS'0.80596280838501710:0.92538271749517476:0.29183063313640434'
p23
aa(lp24
S'target'
p25
aS'INTEGER.='
p26
aS'FLOAT.SWAP'
p27
aaS'CODE.FROMNAME'
p28
a(lp29
S'INTEGER.<'
p30
aS'INTEGER.DUP'
p31
aaaS'POINT.POP'
p32
aa(lp33
S'FLOAT.+'
p34
aS'CODE.FROMINTEGER'
p35
aS'POINT.LENGTH'
p36
aaS'INTEGER.RAND'
p37
a(lp38
S'CODE.NOOP'
p39
aa(lp40
(lp41
S'FLOAT.+'
p42
aaS'FLOAT.MIN'
p43
aS'CODE.NTH'
p44
a(lp45
(lp46
S'CODE.DO*TIMES'
p47
aaS'CODE.FLUSH'
p48
aaaS'CODE.FROMNAME'
p49
asS'accel_x'
p50
F-0.057654702311424444
sS'accel_y'
p51
F0.3584643262879581
sS'maxAccel'
p52
I2
sS'maxVel'
p53
F0.69999999999999996
sS'age'
p54
I350
sS'gener'
p55
S'm'
sS'lastScale'
p56
F15.4
sS'energy'
p57
F0.98999999999999999
sb.(i__main__
Data_mobile
p1
(dp2
S'vel_y'
p3
F0.42825479119779586
sS'vel_x'
p4
F0.55371277194600832
sS'pos_x'
p5
F-92.942142034413209
sS'pos_y'
p6
F51.875169385774761
sS'isAlive'
p7
I01
sS'geno'
p8
(lp9
(lp10
S'CODE.FROMNAME'
p11
aa(lp12
(lp13
S'FLOAT.DEFINE'
p14
aaS'FLOAT.FROMBOOLEAN'
p15
aS'0.80596280838501710:0.92538271749517476:0.29183063313640434'
p16
aa(lp17
(lp18
S'CODE.LENGTH'
p19
aS'-0.79770578392727898:-0.64429938458937674:0.054568135425115037'
p20
aS'CODE.FROMBOOLEAN'
p21
aS'INTEGER.MIN'
p22
aa(lp23
S'target'
p24
aS'FLOAT.YANKDUP'
p25
aS'FLOAT.SWAP'
p26
aaS'INTEGER.%'
p27
a(lp28
S'CODE.FROMBOOLEAN'
p29
aS'INTEGER.MIN'
p30
aaaS'FLOAT.+'
p31
asS'accel_x'
p32
F1.5649056524509994
sS'accel_y'
p33
F1.245419728014179
sS'maxAccel'
p34
I2
sS'maxVel'
p35
F0.69999999999999996
sS'age'
p36
I150
sS'gener'
p37
S'm'
sS'lastScale'
p38
F8.199999999999994
sS'energy'
p39
F0.26999999999999935
sb.(i__main__
Data_mobile
p1
(dp2
S'vel_y'
p3
F0.42825479661011623
sS'vel_x'
p4
F0.55371276775998934
sS'pos_x'
p5
F-92.942141991268059
sS'pos_y'
p6
F51.875169345897007
sS'isAlive'
p7
I01
sS'geno'
p8
(lp9
(lp10
(lp11
S'CODE.FROMNAME'
p12
aa(lp13
S'FLOAT.COS'
p14
aS'CODE.YANK'
p15
aS'CODE.YANKDUP'
p16
aa(lp17
(lp18
S'CODE.NTH'
p19
aS'-0.79770578392727898:-0.64429938458937674:0.054568135425115037'
p20
aS'-0.79770578392727898:-0.64429938458937674:0.054568135425115037'
p21
aS'INTEGER.MIN'
p22
aa(lp23
S'target'
p24
aS'INTEGER.='
p25
aS'FLOAT.SWAP'
p26
aaS'FLOAT.FROMBOOLEAN'
p27
a(lp28
S'INTEGER.<'
p29
aS'FLOAT.YANK'
p30
aaaS'FLOAT.+'
p31
aa(lp32
S'CODE.DO*COUNT'
p33
aS'FLOAT.FROMBOOLEAN'
p34
aS'FLOAT.ROT'
p35
aaS'INTEGER.RAND'
p36
a(lp37
S'FLOAT.>'
p38
aa(lp39
(lp40
S'FLOAT.FROMBOOLEAN'
p41
aaS'FLOAT.MIN'
p42
aS'INTEGER.YANK'
p43
a(lp44
S'INTEGER.<'
p45
aS'CODE.FLUSH'
p46
aaaS'CODE.FROMNAME'
p47
asS'accel_x'
p48
F1.5649056341225993
sS'accel_y'
p49
F1.2454197510443401
sS'maxAccel'
p50
I2
sS'maxVel'
p51
F0.69999999999999996
sS'age'
p52
I150
sS'gener'
p53
S'm'
sS'lastScale'
p54
F8.199999999999994
sS'energy'
p55
F0.26999999999999935
sb.(i__main__
Data_mobile
p1
(dp2
S'vel_y'
p3
F0.067611912463963614
sS'vel_x'
p4
F0.696727083794627
sS'pos_x'
p5
F96.110383232341476
sS'pos_y'
p6
F7.2449287101334283
sS'isAlive'
p7
I01
sS'geno'
p8
(lp9
(lp10
(lp11
S'CODE.FROMNAME'
p12
aa(lp13
(lp14
S'CODE.NTHCDR'
p15
aaS'POINT./'
p16
aS'FLOAT.MAX'
p17
aa(lp18
(lp19
S'CODE.LENGTH'
p20
aS'-0.79770578392727898:-0.64429938458937674:0.054568135425115037'
p21
aS'INTEGER.YANK'
p22
aS'0.80596280838501710:0.92538271749517476:0.29183063313640434'
p23
aa(lp24
S'INTEGER.='
p25
aaS'CODE.FROMNAME'
p26
a(lp27
S'INTEGER.<'
p28
aS'INTEGER.DUP'
p29
aaaS'POINT.POP'
p30
aa(lp31
S'FLOAT.+'
p32
aS'CODE.FROMINTEGER'
p33
aS'POINT.LENGTH'
p34
aaS'INTEGER.RAND'
p35
a(lp36
S'CODE.NOOP'
p37
aa(lp38
(lp39
S'POINT.-'
p40
a(lp41
(lp42
S'FLOAT.POP'
p43
aaS'CODE.NTHCDR'
p44
aaS'CODE.DEFINITION'
p45
aaS'INTEGER.+'
p46
aS'target'
p47
aaS'CODE.SIZE'
p48
asS'accel_x'
p49
F0.10589738061615606
sS'accel_y'
p50
F-0.4499102451330721
sS'maxAccel'
p51
I2
sS'maxVel'
p52
F0.69999999999999996
sS'age'
p53
I50
sS'gener'
p54
S'm'
sS'lastScale'
p55
F15.4
sS'energy'
p56
F0.98999999999999999
sb.(i__main__
Data_mobile
p1
(dp2
S'vel_y'
p3
F0.42512685080763368
sS'vel_x'
p4
F0.55611793778153196
sS'pos_x'
p5
F-91.534654694812559
sS'pos_y'
p6
F53.027766710922414
sS'isAlive'
p7
I01
sS'geno'
p8
(lp9
(lp10
(lp11
S'CODE.FROMNAME'
p12
aa(lp13
(lp14
S'FLOAT.DEFINE'
p15
aaS'-0.38639363166559337'
p16
aS'0.80596280838501710:0.92538271749517476:0.29183063313640434'
p17
aa(lp18
(lp19
S'CODE.LENGTH'
p20
aS'-0.79770578392727898:-0.64429938458937674:0.054568135425115037'
p21
aS'-0.79770578392727898:-0.64429938458937674:0.054568135425115037'
p22
aS'INTEGER.MIN'
p23
aa(lp24
S'target'
p25
aS'INTEGER.='
p26
aS'INTEGER.FROMFLOAT'
p27
aaS'INTEGER.%'
p28
a(lp29
S'INTEGER.<'
p30
aS'FLOAT.YANK'
p31
aaaS'FLOAT.+'
p32
aa(lp33
S'CODE.DO*COUNT'
p34
aS'FLOAT.FROMBOOLEAN'
p35
aS'FLOAT.ROT'
p36
aaS'POINT.POP'
p37
aS'-0.79770578392727898:-0.64429938458937674:0.054568135425115037'
p38
a(lp39
(lp40
S'FLOAT.ROT'
p41
aaS'FLOAT.MIN'
p42
aS'POINT.-'
p43
a(lp44
(lp45
S'CODE.DO*COUNT'
p46
aaS'CODE.FLUSH'
p47
aaaS'CODE.FROMNAME'
p48
asS'accel_x'
p49
F1.5719926321210673
sS'accel_y'
p50
F1.2364623587303731
sS'maxAccel'
p51
I2
sS'maxVel'
p52
F0.69999999999999996
sS'age'
p53
I150
sS'gener'
p54
S'm'
sS'lastScale'
p55
F8.3999999999999915
sS'energy'
p56
F0.28999999999999904
sb.(i__main__
Data_mobile
p1
(dp2
S'vel_y'
p3
F0.63274419395347958
sS'vel_x'
p4
F-0.29939068959832627
sS'pos_x'
p5
F199.33516406408759
sS'pos_y'
p6
F29.127766754875161
sS'isAlive'
p7
I01
sS'geno'
p8
(lp9
(lp10
(lp11
S'CODE.FROMNAME'
p12
aa(lp13
(lp14
S'FLOAT.DEFINE'
p15
aaS'-0.38639363166559337'
p16
aS'0.80596280838501710:0.92538271749517476:0.29183063313640434'
p17
aa(lp18
(lp19
S'CODE.LENGTH'
p20
aS'-0.79770578392727898:-0.64429938458937674:0.054568135425115037'
p21
aS'-0.79770578392727898:-0.64429938458937674:0.054568135425115037'
p22
aS'INTEGER.MIN'
p23
aa(lp24
S'target'
p25
aS'FLOAT.YANKDUP'
p26
aS'FLOAT.SWAP'
p27
aaS'INTEGER.%'
p28
a(lp29
S'INTEGER.<'
p30
aS'INTEGER.MIN'
p31
aaaS'FLOAT.+'
p32
aa(lp33
S'-0.38639363166559337'
p34
aS'FLOAT.FROMBOOLEAN'
p35
aS'FLOAT.ROT'
p36
aaS'POINT.POP'
p37
a(lp38
S'FLOAT.>'
p39
aa(lp40
(lp41
S'INTEGER.MIN'
p42
aaS'FLOAT.MIN'
p43
aS'CODE.RAND'
p44
a(lp45
(lp46
S'CODE.DO*COUNT'
p47
aaS'CODE.FLUSH'
p48
aaaS'CODE.FROMNAME'
p49
asS'accel_x'
p50
F-0.057654702311481287
sS'accel_y'
p51
F0.35846432628791192
sS'maxAccel'
p52
I2
sS'maxVel'
p53
F0.69999999999999996
sS'age'
p54
I350
sS'gener'
p55
S'm'
sS'lastScale'
p56
F15.4
sS'energy'
p57
F0.98999999999999999
sb.(i__main__
Data_mobile
p1
(dp2
S'vel_y'
p3
F0.63274419556987815
sS'vel_x'
p4
F-0.29939068618216536
sS'pos_x'
p5
F199.33516407728135
sS'pos_y'
p6
F29.127766763451547
sS'isAlive'
p7
I01
sS'geno'
p8
(lp9
(lp10
(lp11
S'CODE.FROMNAME'
p12
aa(lp13
S'target'
p14
aS'-0.38639363166559337'
p15
aS'0.80596280838501710:0.92538271749517476:0.29183063313640434'
p16
aa(lp17
(lp18
S'CODE.LENGTH'
p19
aS'-0.79770578392727898:-0.64429938458937674:0.054568135425115037'
p20
aS'-0.79770578392727898:-0.64429938458937674:0.054568135425115037'
p21
aS'INTEGER.MIN'
p22
aa(lp23
S'target'
p24
aS'INTEGER.='
p25
aS'CODE.NULL'
p26
aaS'INTEGER.%'
p27
a(lp28
S'INTEGER.<'
p29
aS'FLOAT.YANK'
p30
aaaS'FLOAT.+'
p31
aa(lp32
S'CODE.DO*COUNT'
p33
aS'FLOAT.FROMBOOLEAN'
p34
aS'FLOAT.ROT'
p35
aaS'INTEGER.RAND'
p36
a(lp37
S'FLOAT.>'
p38
aa(lp39
S'FLOAT.+'
p40
aS'CODE.POP'
p41
aS'INTEGER.YANK'
p42
a(lp43
(lp44
S'CODE.DO*COUNT'
p45
aaS'CODE.FLUSH'
p46
aaaS'CODE.FROMNAME'
p47
asS'accel_x'
p48
F-0.057654715505236709
sS'accel_y'
p49
F0.35846431771152609
sS'maxAccel'
p50
I2
sS'maxVel'
p51
F0.69999999999999996
sS'age'
p52
I200
sS'gener'
p53
S'm'
sS'lastScale'
p54
F15.4
sS'energy'
p55
F0.98999999999999999
sb.(i__main__
Data_mobile
p1
(dp2
S'vel_y'
p3
F0.045289108901121838
sS'vel_x'
p4
F-0.64940443096374267
sS'pos_x'
p5
F155.44057522489996
sS'pos_y'
p6
F24.024580077112219
sS'isAlive'
p7
I01
sS'geno'
p8
(lp9
(lp10
(lp11
S'centerOfWorld'
p12
aa(lp13
(lp14
S'FLOAT.DEFINE'
p15
aa(lp16
S'CODE.NOOP'
p17
aaS'POINT.+'
p18
aa(lp19
(lp20
S'CODE.LENGTH'
p21
aS'-0.79770578392727898:-0.64429938458937674:0.054568135425115037'
p22
a(lp23
S'INTEGER./'
p24
aS'INTEGER.DUP'
p25
aaS'INTEGER.MIN'
p26
aa(lp27
S'target'
p28
aS'INTEGER.='
p29
aS'FLOAT.SWAP'
p30
aaS'CODE.FROMNAME'
p31
a(lp32
S'FLOAT.DUP'
p33
aS'INTEGER.DUP'
p34
aaaS'FLOAT.+'
p35
aa(lp36
(lp37
S'-0.38639363166559337'
p38
aS'FLOAT.FROMBOOLEAN'
p39
aS'FLOAT.ROT'
p40
aaS'alignment'
p41
aS'FLOAT.ROT'
p42
aaS'INTEGER.RAND'
p43
aS'FLOAT.SWAP'
p44
a(lp45
(lp46
S'INTEGER.='
p47
aaS'INTEGER.YANK'
p48
aS'CODE.NTH'
p49
a(lp50
S'POINT.+'
p51
aS'CODE.DO*COUNT'
p52
aaaS'CODE.FROMNAME'
p53
asS'accel_x'
p54
F0
sS'accel_y'
p55
F0
sS'maxAccel'
p56
I2
sS'maxVel'
p57
F0.69999999999999996
sS'age'
p58
I0
sS'gener'
p59
S'm'
sS'lastScale'
p60
F15.5
sS'energy'
p61
F0.5
sb.(i__main__
Data_mobile
p1
(dp2
S'vel_y'
p3
F0.33099006106334378
sS'vel_x'
p4
F-0.51400048668568332
sS'pos_x'
p5
F132.68065308373642
sS'pos_y'
p6
F20.645818890381037
sS'isAlive'
p7
I01
sS'geno'
p8
(lp9
(lp10
(lp11
S'CODE.FROMNAME'
p12
aa(lp13
(lp14
S'CODE.NTHCDR'
p15
aaS'POINT./'
p16
aS'FLOAT.MAX'
p17
aa(lp18
(lp19
S'target'
p20
aS'INTEGER.='
p21
aS'FLOAT.SWAP'
p22
aa(lp23
S'target'
p24
aS'INTEGER.='
p25
aS'FLOAT.SWAP'
p26
aaS'CODE.FROMNAME'
p27
a(lp28
S'INTEGER.<'
p29
aS'INTEGER.DUP'
p30
aaaS'POINT.POP'
p31
aa(lp32
S'FLOAT.+'
p33
aS'CODE.FROMINTEGER'
p34
aS'POINT.LENGTH'
p35
aaS'CODE.CONTAINER'
p36
a(lp37
S'CODE.NOOP'
p38
aa(lp39
(lp40
S'FLOAT.+'
p41
aaS'FLOAT.MIN'
p42
aS'CODE.NTH'
p43
a(lp44
(lp45
S'CODE.DO*TIMES'
p46
aaS'CODE.FLUSH'
p47
aaaS'CODE.FROMNAME'
p48
asS'accel_x'
p49
F0
sS'accel_y'
p50
F0
sS'maxAccel'
p51
I2
sS'maxVel'
p52
F0.69999999999999996
sS'age'
p53
I0
sS'gener'
p54
S'm'
sS'lastScale'
p55
F15.5
sS'energy'
p56
F0.5
sb.(i__main__
Data_mobile
p1
(dp2
S'vel_y'
p3
F0.34063534628187536
sS'vel_x'
p4
F-0.50714068767059417
sS'pos_x'
p5
F193.11699250244914
sS'pos_y'
p6
F28.336489372105863
sS'isAlive'
p7
I01
sS'geno'
p8
(lp9
(lp10
(lp11
S'CODE.FROMNAME'
p12
aa(lp13
(lp14
S'FLOAT.DEFINE'
p15
aaS'INTEGER.YANKDUP'
p16
aS'0.80596280838501710:0.92538271749517476:0.29183063313640434'
p17
aa(lp18
(lp19
(lp20
(lp21
S'centerOfWorld'
p22
aa(lp23
S'CODE.CONTAINER'
p24
aS'POINT./'
p25
aa(lp26
(lp27
S'CODE.LENGTH'
p28
aS'-0.79770578392727898:-0.64429938458937674:0.054568135425115037'
p29
aS'INTEGER.YANK'
p30
aS'INTEGER.MIN'
p31
aa(lp32
S'target'
p33
aS'INTEGER.='
p34
aS'FLOAT.SWAP'
p35
aaS'CODE.FROMNAME'
p36
a(lp37
S'INTEGER./'
p38
aS'INTEGER.DUP'
p39
aaaS'FLOAT.+'
p40
aa(lp41
S'CODE.DO*COUNT'
p42
aS'FLOAT.FROMBOOLEAN'
p43
aS'FLOAT.ROT'
p44
aaS'INTEGER.RAND'
p45
a(lp46
S'POINT.POP'
p47
aa(lp48
(lp49
S'INTEGER.='
p50
aaS'INTEGER.YANK'
p51
aS'CODE.NTH'
p52
a(lp53
S'POINT.+'
p54
aS'CODE.DO*COUNT'
p55
aaaS'CODE.FROMNAME'
p56
aa(lp57
S'target'
p58
aS'FLOAT.YANKDUP'
p59
aS'FLOAT.SWAP'
p60
aaS'INTEGER.%'
p61
a(lp62
S'INTEGER.<'
p63
aS'INTEGER.MIN'
p64
aaaS'FLOAT.+'
p65
aa(lp66
S'CODE.DO*COUNT'
p67
aS'FLOAT.FROMBOOLEAN'
p68
aS'FLOAT.ROT'
p69
aaS'POINT.POP'
p70
a(lp71
S'FLOAT.>'
p72
aa(lp73
(lp74
S'INTEGER.='
p75
aaS'FLOAT.MIN'
p76
aS'CODE.RAND'
p77
a(lp78
(lp79
S'CODE.DO*COUNT'
p80
aaS'CODE.FLUSH'
p81
aaaS'FLOAT.>'
p82
asS'accel_x'
p83
F0
sS'accel_y'
p84
F0
sS'maxAccel'
p85
I2
sS'maxVel'
p86
F0.69999999999999996
sS'age'
p87
I0
sS'gener'
p88
S'm'
sS'lastScale'
p89
F15.5
sS'energy'
p90
F0.5
sb.(i__main__
Data_mobile
p1
(dp2
S'vel_y'
p3
I0
sS'vel_x'
p4
I0
sS'pos_x'
p5
I-9999
sS'pos_y'
p6
I9999
sS'isAlive'
p7
I00
sS'geno'
p8
(lp9
(lp10
(lp11
(lp12
S'randV'
p13
aS'FLOAT.FLUSH'
p14
aa(lp15
(lp16
S'alignment'
p17
aaS'CODE.APPEND'
p18
aaS'INTEGER./'
p19
aaS'CODE.CDR'
p20
aaS'FLOAT.*'
p21
aS'INTEGER.FROMFLOAT'
p22
aS'CODE.POP'
p23
aS'CODE.DO*'
p24
a(lp25
(lp26
S'CODE.CONS'
p27
a(lp28
S'FLOAT.MAX'
p29
aaaS'CODE.NULL'
p30
a(lp31
S'INTEGER.<'
p32
a(lp33
S'INTEGER.FROMBOOL'
p34
aaaaS'FLOAT.='
p35
asS'accel_x'
p36
F0
sS'accel_y'
p37
F0
sS'maxAccel'
p38
I2
sS'maxVel'
p39
F0.69999999999999996
sS'age'
p40
I0
sS'gener'
p41
S'm'
sS'lastScale'
p42
F15.5
sS'energy'
p43
F0.5
sb.