(i__main__
Data_mobile
p1
(dp2
S'vel_y'
p3
F0.22650085472099768
sS'vel_x'
p4
F-0.2064087051943938
sS'pos_x'
p5
F-169.13462317041549
sS'pos_y'
p6
F-78.4479173864014
sS'isAlive'
p7
I01
sS'geno'
p8
(i__main__
Node
p9
(dp10
S'node'
p11
(lp12
S'+'
aS'-'
aS'*'
aS'/'
asS'right'
p13
(i__main__
Node
p14
(dp15
g11
(lp16
S'+'
aS'-'
aS'*'
aS'/'
asg13
(i__main__
Node
p17
(dp18
g11
(lp19
S'+'
aS'-'
aS'*'
aS'/'
asg13
NsS'leaf'
p20
(lp21
S'indiv.alignment()'
p22
aS'indiv.cohesion()'
p23
aS'indiv.separation()'
p24
aS'indiv.target()'
p25
aS'indiv.currentVelocity()'
p26
aS'indiv.centerOfWorld()'
p27
aS'indiv.mostEnergizedNeighbor()'
p28
aS'indiv.randV()'
p29
asS'parent'
p30
NsS'data'
p31
g26
sS'left'
p32
Nsbsg20
(lp33
g22
ag23
ag24
ag25
ag26
ag27
ag28
ag29
asg30
Nsg31
S'-'
sg32
(i__main__
Node
p34
(dp35
g11
(lp36
S'+'
aS'-'
aS'*'
aS'/'
asg13
Nsg20
(lp37
g22
ag23
ag24
ag25
ag26
ag27
ag28
ag29
asg30
Nsg31
g24
sg32
Nsbsbsg20
(lp38
g22
ag23
ag24
ag25
ag26
ag27
ag28
ag29
asg30
Nsg31
S'/'
sg32
(i__main__
Node
p39
(dp40
g11
(lp41
S'+'
aS'-'
aS'*'
aS'/'
asg13
(i__main__
Node
p42
(dp43
g11
(lp44
S'+'
aS'-'
aS'*'
aS'/'
asg13
Nsg20
(lp45
g22
ag23
ag24
ag25
ag26
ag27
ag28
ag29
asg30
Nsg31
g24
sg32
Nsbsg20
(lp46
g22
ag23
ag24
ag25
ag26
ag27
ag28
ag29
asg30
Nsg31
S'/'
sg32
(i__main__
Node
p47
(dp48
g11
(lp49
S'+'
aS'-'
aS'*'
aS'/'
asg13
Nsg20
(lp50
g22
ag23
ag24
ag25
ag26
ag27
ag28
ag29
asg30
Nsg31
g22
sg32
NsbsbsbsS'accel_x'
p51
F0
sS'accel_y'
p52
F0
sS'maxAccel'
p53
I2
sS'maxVel'
p54
F0.69999999999999996
sS'age'
p55
I0
sS'radius'
p56
I2
sS'gener'
p57
S'm'
sS'lastScale'
p58
F15.5
sS'energy'
p59
F1.5
sb.(i__main__
Data_mobile
p1
(dp2
S'vel_y'
p3
F-0.13355466554494011
sS'vel_x'
p4
F-0.18400759481453355
sS'pos_x'
p5
F-172.14213073461059
sS'pos_y'
p6
F-34.030951762294094
sS'isAlive'
p7
I01
sS'geno'
p8
(i__main__
Node
p9
(dp10
S'node'
p11
(lp12
S'+'
aS'-'
aS'*'
aS'/'
asS'right'
p13
(i__main__
Node
p14
(dp15
g11
(lp16
S'+'
aS'-'
aS'*'
aS'/'
asg13
(i__main__
Node
p17
(dp18
g11
(lp19
S'+'
aS'-'
aS'*'
aS'/'
asg13
NsS'leaf'
p20
(lp21
S'indiv.alignment()'
p22
aS'indiv.cohesion()'
p23
aS'indiv.separation()'
p24
aS'indiv.target()'
p25
aS'indiv.currentVelocity()'
p26
aS'indiv.centerOfWorld()'
p27
aS'indiv.mostEnergizedNeighbor()'
p28
aS'indiv.randV()'
p29
asS'parent'
p30
NsS'data'
p31
g24
sS'left'
p32
Nsbsg20
(lp33
g22
ag23
ag24
ag25
ag26
ag27
ag28
ag29
asg30
Nsg31
S'+'
sg32
(i__main__
Node
p34
(dp35
g11
(lp36
S'+'
aS'-'
aS'*'
aS'/'
asg13
Nsg20
(lp37
g22
ag23
ag24
ag25
ag26
ag27
ag28
ag29
asg30
Nsg31
g24
sg32
Nsbsbsg20
(lp38
g22
ag23
ag24
ag25
ag26
ag27
ag28
ag29
asg30
Nsg31
S'-'
sg32
(i__main__
Node
p39
(dp40
g11
(lp41
S'+'
aS'-'
aS'*'
aS'/'
asg13
(i__main__
Node
p42
(dp43
g11
(lp44
S'+'
aS'-'
aS'*'
aS'/'
asg13
Nsg20
(lp45
g22
ag23
ag24
ag25
ag26
ag27
ag28
ag29
asg30
Nsg31
g25
sg32
Nsbsg20
(lp46
g22
ag23
ag24
ag25
ag26
ag27
ag28
ag29
asg30
Nsg31
S'-'
sg32
(i__main__
Node
p47
(dp48
g11
(lp49
S'+'
aS'-'
aS'*'
aS'/'
asg13
Nsg20
(lp50
g22
ag23
ag24
ag25
ag26
ag27
ag28
ag29
asg30
Nsg31
g23
sg32
NsbsbsbsS'accel_x'
p51
F0
sS'accel_y'
p52
F0
sS'maxAccel'
p53
I2
sS'maxVel'
p54
F0.69999999999999996
sS'age'
p55
I0
sS'radius'
p56
I2
sS'gener'
p57
S'm'
sS'lastScale'
p58
F15.5
sS'energy'
p59
F1.5
sb.(i__main__
Data_mobile
p1
(dp2
S'vel_y'
p3
F-0.37326939822699023
sS'vel_x'
p4
F-0.33710535272675501
sS'pos_x'
p5
F-152.41759714766499
sS'pos_y'
p6
F19.064587359736024
sS'isAlive'
p7
I01
sS'geno'
p8
(i__main__
Node
p9
(dp10
S'node'
p11
(lp12
S'+'
aS'-'
aS'*'
aS'/'
asS'right'
p13
(i__main__
Node
p14
(dp15
g11
(lp16
S'+'
aS'-'
aS'*'
aS'/'
asg13
(i__main__
Node
p17
(dp18
g11
(lp19
S'+'
aS'-'
aS'*'
aS'/'
asg13
NsS'leaf'
p20
(lp21
S'indiv.alignment()'
p22
aS'indiv.cohesion()'
p23
aS'indiv.separation()'
p24
aS'indiv.target()'
p25
aS'indiv.currentVelocity()'
p26
aS'indiv.centerOfWorld()'
p27
aS'indiv.mostEnergizedNeighbor()'
p28
aS'indiv.randV()'
p29
asS'parent'
p30
NsS'data'
p31
g26
sS'left'
p32
Nsbsg20
(lp33
g22
ag23
ag24
ag25
ag26
ag27
ag28
ag29
asg30
Nsg31
S'+'
sg32
(i__main__
Node
p34
(dp35
g11
(lp36
S'+'
aS'-'
aS'*'
aS'/'
asg13
Nsg20
(lp37
g22
ag23
ag24
ag25
ag26
ag27
ag28
ag29
asg30
Nsg31
g23
sg32
Nsbsbsg20
(lp38
g22
ag23
ag24
ag25
ag26
ag27
ag28
ag29
asg30
Nsg31
S'/'
sg32
(i__main__
Node
p39
(dp40
g11
(lp41
S'+'
aS'-'
aS'*'
aS'/'
asg13
(i__main__
Node
p42
(dp43
g11
(lp44
S'+'
aS'-'
aS'*'
aS'/'
asg13
Nsg20
(lp45
g22
ag23
ag24
ag25
ag26
ag27
ag28
ag29
asg30
Nsg31
g26
sg32
Nsbsg20
(lp46
g22
ag23
ag24
ag25
ag26
ag27
ag28
ag29
asg30
Nsg31
S'+'
sg32
(i__main__
Node
p47
(dp48
g11
(lp49
S'+'
aS'-'
aS'*'
aS'/'
asg13
Nsg20
(lp50
g22
ag23
ag24
ag25
ag26
ag27
ag28
ag29
asg30
Nsg31
g26
sg32
NsbsbsbsS'accel_x'
p51
F0
sS'accel_y'
p52
F0
sS'maxAccel'
p53
I2
sS'maxVel'
p54
F0.69999999999999996
sS'age'
p55
I0
sS'radius'
p56
I2
sS'gener'
p57
S'm'
sS'lastScale'
p58
F15.5
sS'energy'
p59
F1.5
sb.(i__main__
Data_mobile
p1
(dp2
S'vel_y'
p3
F-0.097335207885429931
sS'vel_x'
p4
F0.41499324153613149
sS'pos_x'
p5
F-168.28751060141056
sS'pos_y'
p6
F20.268007928069412
sS'isAlive'
p7
I01
sS'geno'
p8
(i__main__
Node
p9
(dp10
S'node'
p11
(lp12
S'+'
aS'-'
aS'*'
aS'/'
asS'right'
p13
(i__main__
Node
p14
(dp15
g11
(lp16
S'+'
aS'-'
aS'*'
aS'/'
asg13
(i__main__
Node
p17
(dp18
g11
(lp19
S'+'
aS'-'
aS'*'
aS'/'
asg13
NsS'leaf'
p20
(lp21
S'indiv.alignment()'
p22
aS'indiv.cohesion()'
p23
aS'indiv.separation()'
p24
aS'indiv.target()'
p25
aS'indiv.currentVelocity()'
p26
aS'indiv.centerOfWorld()'
p27
aS'indiv.mostEnergizedNeighbor()'
p28
aS'indiv.randV()'
p29
asS'parent'
p30
NsS'data'
p31
g28
sS'left'
p32
Nsbsg20
(lp33
g22
ag23
ag24
ag25
ag26
ag27
ag28
ag29
asg30
Nsg31
S'-'
sg32
(i__main__
Node
p34
(dp35
g11
(lp36
S'+'
aS'-'
aS'*'
aS'/'
asg13
Nsg20
(lp37
g22
ag23
ag24
ag25
ag26
ag27
ag28
ag29
asg30
Nsg31
g24
sg32
Nsbsbsg20
(lp38
g22
ag23
ag24
ag25
ag26
ag27
ag28
ag29
asg30
Nsg31
S'-'
sg32
(i__main__
Node
p39
(dp40
g11
(lp41
S'+'
aS'-'
aS'*'
aS'/'
asg13
(i__main__
Node
p42
(dp43
g11
(lp44
S'+'
aS'-'
aS'*'
aS'/'
asg13
Nsg20
(lp45
g22
ag23
ag24
ag25
ag26
ag27
ag28
ag29
asg30
Nsg31
g27
sg32
Nsbsg20
(lp46
g22
ag23
ag24
ag25
ag26
ag27
ag28
ag29
asg30
Nsg31
S'/'
sg32
(i__main__
Node
p47
(dp48
g11
(lp49
S'+'
aS'-'
aS'*'
aS'/'
asg13
Nsg20
(lp50
g22
ag23
ag24
ag25
ag26
ag27
ag28
ag29
asg30
Nsg31
g26
sg32
NsbsbsbsS'accel_x'
p51
F0
sS'accel_y'
p52
F0
sS'maxAccel'
p53
I2
sS'maxVel'
p54
F0.69999999999999996
sS'age'
p55
I0
sS'radius'
p56
I2
sS'gener'
p57
S'm'
sS'lastScale'
p58
F15.5
sS'energy'
p59
F1.5
sb.(i__main__
Data_mobile
p1
(dp2
S'vel_y'
p3
F-0.39984818001141126
sS'vel_x'
p4
F-0.20255387325009055
sS'pos_x'
p5
F-138.04394879178221
sS'pos_y'
p6
F68.999775577114463
sS'isAlive'
p7
I01
sS'geno'
p8
(i__main__
Node
p9
(dp10
S'node'
p11
(lp12
S'+'
aS'-'
aS'*'
aS'/'
asS'right'
p13
(i__main__
Node
p14
(dp15
g11
(lp16
S'+'
aS'-'
aS'*'
aS'/'
asg13
(i__main__
Node
p17
(dp18
g11
(lp19
S'+'
aS'-'
aS'*'
aS'/'
asg13
NsS'leaf'
p20
(lp21
S'indiv.alignment()'
p22
aS'indiv.cohesion()'
p23
aS'indiv.separation()'
p24
aS'indiv.target()'
p25
aS'indiv.currentVelocity()'
p26
aS'indiv.centerOfWorld()'
p27
aS'indiv.mostEnergizedNeighbor()'
p28
aS'indiv.randV()'
p29
asS'parent'
p30
NsS'data'
p31
g29
sS'left'
p32
Nsbsg20
(lp33
g22
ag23
ag24
ag25
ag26
ag27
ag28
ag29
asg30
Nsg31
S'-'
sg32
(i__main__
Node
p34
(dp35
g11
(lp36
S'+'
aS'-'
aS'*'
aS'/'
asg13
Nsg20
(lp37
g22
ag23
ag24
ag25
ag26
ag27
ag28
ag29
asg30
Nsg31
g22
sg32
Nsbsbsg20
(lp38
g22
ag23
ag24
ag25
ag26
ag27
ag28
ag29
asg30
Nsg31
S'+'
sg32
(i__main__
Node
p39
(dp40
g11
(lp41
S'+'
aS'-'
aS'*'
aS'/'
asg13
(i__main__
Node
p42
(dp43
g11
(lp44
S'+'
aS'-'
aS'*'
aS'/'
asg13
Nsg20
(lp45
g22
ag23
ag24
ag25
ag26
ag27
ag28
ag29
asg30
Nsg31
g27
sg32
Nsbsg20
(lp46
g22
ag23
ag24
ag25
ag26
ag27
ag28
ag29
asg30
Nsg31
S'*'
sg32
(i__main__
Node
p47
(dp48
g11
(lp49
S'+'
aS'-'
aS'*'
aS'/'
asg13
Nsg20
(lp50
g22
ag23
ag24
ag25
ag26
ag27
ag28
ag29
asg30
Nsg31
g29
sg32
NsbsbsbsS'accel_x'
p51
F0
sS'accel_y'
p52
F0
sS'maxAccel'
p53
I2
sS'maxVel'
p54
F0.69999999999999996
sS'age'
p55
I0
sS'radius'
p56
I2
sS'gener'
p57
S'm'
sS'lastScale'
p58
F15.5
sS'energy'
p59
F1.5
sb.(i__main__
Data_mobile
p1
(dp2
S'vel_y'
p3
F0.057609662821348939
sS'vel_x'
p4
F0.051382018544250285
sS'pos_x'
p5
F-75.331739620339278
sS'pos_y'
p6
F-95.873386661610638
sS'isAlive'
p7
I01
sS'geno'
p8
(i__main__
Node
p9
(dp10
S'node'
p11
(lp12
S'+'
aS'-'
aS'*'
aS'/'
asS'right'
p13
(i__main__
Node
p14
(dp15
g11
(lp16
S'+'
aS'-'
aS'*'
aS'/'
asg13
(i__main__
Node
p17
(dp18
g11
(lp19
S'+'
aS'-'
aS'*'
aS'/'
asg13
NsS'leaf'
p20
(lp21
S'indiv.alignment()'
p22
aS'indiv.cohesion()'
p23
aS'indiv.separation()'
p24
aS'indiv.target()'
p25
aS'indiv.currentVelocity()'
p26
aS'indiv.centerOfWorld()'
p27
aS'indiv.mostEnergizedNeighbor()'
p28
aS'indiv.randV()'
p29
asS'parent'
p30
NsS'data'
p31
g28
sS'left'
p32
Nsbsg20
(lp33
g22
ag23
ag24
ag25
ag26
ag27
ag28
ag29
asg30
Nsg31
S'+'
sg32
(i__main__
Node
p34
(dp35
g11
(lp36
S'+'
aS'-'
aS'*'
aS'/'
asg13
Nsg20
(lp37
g22
ag23
ag24
ag25
ag26
ag27
ag28
ag29
asg30
Nsg31
g26
sg32
Nsbsbsg20
(lp38
g22
ag23
ag24
ag25
ag26
ag27
ag28
ag29
asg30
Nsg31
S'-'
sg32
(i__main__
Node
p39
(dp40
g11
(lp41
S'+'
aS'-'
aS'*'
aS'/'
asg13
(i__main__
Node
p42
(dp43
g11
(lp44
S'+'
aS'-'
aS'*'
aS'/'
asg13
Nsg20
(lp45
g22
ag23
ag24
ag25
ag26
ag27
ag28
ag29
asg30
Nsg31
g24
sg32
Nsbsg20
(lp46
g22
ag23
ag24
ag25
ag26
ag27
ag28
ag29
asg30
Nsg31
S'*'
sg32
(i__main__
Node
p47
(dp48
g11
(lp49
S'+'
aS'-'
aS'*'
aS'/'
asg13
Nsg20
(lp50
g22
ag23
ag24
ag25
ag26
ag27
ag28
ag29
asg30
Nsg31
g25
sg32
NsbsbsbsS'accel_x'
p51
F0
sS'accel_y'
p52
F0
sS'maxAccel'
p53
I2
sS'maxVel'
p54
F0.69999999999999996
sS'age'
p55
I0
sS'radius'
p56
I2
sS'gener'
p57
S'm'
sS'lastScale'
p58
F15.5
sS'energy'
p59
F1.5
sb.(i__main__
Data_mobile
p1
(dp2
S'vel_y'
p3
F-0.5644003875347956
sS'vel_x'
p4
F-0.41406787191301436
sS'pos_x'
p5
F-103.3429849099457
sS'pos_y'
p6
F-50.529129397763413
sS'isAlive'
p7
I01
sS'geno'
p8
(i__main__
Node
p9
(dp10
S'node'
p11
(lp12
S'+'
aS'-'
aS'*'
aS'/'
asS'right'
p13
(i__main__
Node
p14
(dp15
g11
(lp16
S'+'
aS'-'
aS'*'
aS'/'
asg13
(i__main__
Node
p17
(dp18
g11
(lp19
S'+'
aS'-'
aS'*'
aS'/'
asg13
NsS'leaf'
p20
(lp21
S'indiv.alignment()'
p22
aS'indiv.cohesion()'
p23
aS'indiv.separation()'
p24
aS'indiv.target()'
p25
aS'indiv.currentVelocity()'
p26
aS'indiv.centerOfWorld()'
p27
aS'indiv.mostEnergizedNeighbor()'
p28
aS'indiv.randV()'
p29
asS'parent'
p30
NsS'data'
p31
g22
sS'left'
p32
Nsbsg20
(lp33
g22
ag23
ag24
ag25
ag26
ag27
ag28
ag29
asg30
Nsg31
S'/'
sg32
(i__main__
Node
p34
(dp35
g11
(lp36
S'+'
aS'-'
aS'*'
aS'/'
asg13
Nsg20
(lp37
g22
ag23
ag24
ag25
ag26
ag27
ag28
ag29
asg30
Nsg31
g24
sg32
Nsbsbsg20
(lp38
g22
ag23
ag24
ag25
ag26
ag27
ag28
ag29
asg30
Nsg31
S'-'
sg32
(i__main__
Node
p39
(dp40
g11
(lp41
S'+'
aS'-'
aS'*'
aS'/'
asg13
(i__main__
Node
p42
(dp43
g11
(lp44
S'+'
aS'-'
aS'*'
aS'/'
asg13
Nsg20
(lp45
g22
ag23
ag24
ag25
ag26
ag27
ag28
ag29
asg30
Nsg31
g25
sg32
Nsbsg20
(lp46
g22
ag23
ag24
ag25
ag26
ag27
ag28
ag29
asg30
Nsg31
S'/'
sg32
(i__main__
Node
p47
(dp48
g11
(lp49
S'+'
aS'-'
aS'*'
aS'/'
asg13
Nsg20
(lp50
g22
ag23
ag24
ag25
ag26
ag27
ag28
ag29
asg30
Nsg31
g29
sg32
NsbsbsbsS'accel_x'
p51
F0
sS'accel_y'
p52
F0
sS'maxAccel'
p53
I2
sS'maxVel'
p54
F0.69999999999999996
sS'age'
p55
I0
sS'radius'
p56
I2
sS'gener'
p57
S'm'
sS'lastScale'
p58
F15.5
sS'energy'
p59
F1.5
sb.(i__main__
Data_mobile
p1
(dp2
S'vel_y'
p3
F-0.52313048860087519
sS'vel_x'
p4
F-0.46511771832108229
sS'pos_x'
p5
F-88.054548623193682
sS'pos_y'
p6
F14.768427346951491
sS'isAlive'
p7
I01
sS'geno'
p8
(i__main__
Node
p9
(dp10
S'node'
p11
(lp12
S'+'
aS'-'
aS'*'
aS'/'
asS'right'
p13
(i__main__
Node
p14
(dp15
g11
(lp16
S'+'
aS'-'
aS'*'
aS'/'
asg13
(i__main__
Node
p17
(dp18
g11
(lp19
S'+'
aS'-'
aS'*'
aS'/'
asg13
NsS'leaf'
p20
(lp21
S'indiv.alignment()'
p22
aS'indiv.cohesion()'
p23
aS'indiv.separation()'
p24
aS'indiv.target()'
p25
aS'indiv.currentVelocity()'
p26
aS'indiv.centerOfWorld()'
p27
aS'indiv.mostEnergizedNeighbor()'
p28
aS'indiv.randV()'
p29
asS'parent'
p30
NsS'data'
p31
g29
sS'left'
p32
Nsbsg20
(lp33
g22
ag23
ag24
ag25
ag26
ag27
ag28
ag29
asg30
Nsg31
S'/'
sg32
(i__main__
Node
p34
(dp35
g11
(lp36
S'+'
aS'-'
aS'*'
aS'/'
asg13
Nsg20
(lp37
g22
ag23
ag24
ag25
ag26
ag27
ag28
ag29
asg30
Nsg31
g25
sg32
Nsbsbsg20
(lp38
g22
ag23
ag24
ag25
ag26
ag27
ag28
ag29
asg30
Nsg31
S'/'
sg32
(i__main__
Node
p39
(dp40
g11
(lp41
S'+'
aS'-'
aS'*'
aS'/'
asg13
(i__main__
Node
p42
(dp43
g11
(lp44
S'+'
aS'-'
aS'*'
aS'/'
asg13
Nsg20
(lp45
g22
ag23
ag24
ag25
ag26
ag27
ag28
ag29
asg30
Nsg31
g25
sg32
Nsbsg20
(lp46
g22
ag23
ag24
ag25
ag26
ag27
ag28
ag29
asg30
Nsg31
S'+'
sg32
(i__main__
Node
p47
(dp48
g11
(lp49
S'+'
aS'-'
aS'*'
aS'/'
asg13
Nsg20
(lp50
g22
ag23
ag24
ag25
ag26
ag27
ag28
ag29
asg30
Nsg31
g26
sg32
NsbsbsbsS'accel_x'
p51
F0
sS'accel_y'
p52
F0
sS'maxAccel'
p53
I2
sS'maxVel'
p54
F0.69999999999999996
sS'age'
p55
I0
sS'radius'
p56
I2
sS'gener'
p57
S'm'
sS'lastScale'
p58
F15.5
sS'energy'
p59
F1.5
sb.(i__main__
Data_mobile
p1
(dp2
S'vel_y'
p3
F0.083086673176328008
sS'vel_x'
p4
F0.48088680402099881
sS'pos_x'
p5
F-90.859798023774943
sS'pos_y'
p6
F41.974558844195876
sS'isAlive'
p7
I01
sS'geno'
p8
(i__main__
Node
p9
(dp10
S'node'
p11
(lp12
S'+'
aS'-'
aS'*'
aS'/'
asS'right'
p13
(i__main__
Node
p14
(dp15
g11
(lp16
S'+'
aS'-'
aS'*'
aS'/'
asg13
(i__main__
Node
p17
(dp18
g11
(lp19
S'+'
aS'-'
aS'*'
aS'/'
asg13
NsS'leaf'
p20
(lp21
S'indiv.alignment()'
p22
aS'indiv.cohesion()'
p23
aS'indiv.separation()'
p24
aS'indiv.target()'
p25
aS'indiv.currentVelocity()'
p26
aS'indiv.centerOfWorld()'
p27
aS'indiv.mostEnergizedNeighbor()'
p28
aS'indiv.randV()'
p29
asS'parent'
p30
NsS'data'
p31
g24
sS'left'
p32
Nsbsg20
(lp33
g22
ag23
ag24
ag25
ag26
ag27
ag28
ag29
asg30
Nsg31
S'/'
sg32
(i__main__
Node
p34
(dp35
g11
(lp36
S'+'
aS'-'
aS'*'
aS'/'
asg13
Nsg20
(lp37
g22
ag23
ag24
ag25
ag26
ag27
ag28
ag29
asg30
Nsg31
g29
sg32
Nsbsbsg20
(lp38
g22
ag23
ag24
ag25
ag26
ag27
ag28
ag29
asg30
Nsg31
S'/'
sg32
(i__main__
Node
p39
(dp40
g11
(lp41
S'+'
aS'-'
aS'*'
aS'/'
asg13
(i__main__
Node
p42
(dp43
g11
(lp44
S'+'
aS'-'
aS'*'
aS'/'
asg13
Nsg20
(lp45
g22
ag23
ag24
ag25
ag26
ag27
ag28
ag29
asg30
Nsg31
g28
sg32
Nsbsg20
(lp46
g22
ag23
ag24
ag25
ag26
ag27
ag28
ag29
asg30
Nsg31
S'*'
sg32
(i__main__
Node
p47
(dp48
g11
(lp49
S'+'
aS'-'
aS'*'
aS'/'
asg13
Nsg20
(lp50
g22
ag23
ag24
ag25
ag26
ag27
ag28
ag29
asg30
Nsg31
g28
sg32
NsbsbsbsS'accel_x'
p51
F0
sS'accel_y'
p52
F0
sS'maxAccel'
p53
I2
sS'maxVel'
p54
F0.69999999999999996
sS'age'
p55
I0
sS'radius'
p56
I2
sS'gener'
p57
S'm'
sS'lastScale'
p58
F15.5
sS'energy'
p59
F1.5
sb.(i__main__
Data_mobile
p1
(dp2
S'vel_y'
p3
F0.39799585121503417
sS'vel_x'
p4
F-0.57584659625252665
sS'pos_x'
p5
F-99.574898928607823
sS'pos_y'
p6
F99.742154218467903
sS'isAlive'
p7
I01
sS'geno'
p8
(i__main__
Node
p9
(dp10
S'node'
p11
(lp12
S'+'
aS'-'
aS'*'
aS'/'
asS'right'
p13
(i__main__
Node
p14
(dp15
g11
(lp16
S'+'
aS'-'
aS'*'
aS'/'
asg13
(i__main__
Node
p17
(dp18
g11
(lp19
S'+'
aS'-'
aS'*'
aS'/'
asg13
NsS'leaf'
p20
(lp21
S'indiv.alignment()'
p22
aS'indiv.cohesion()'
p23
aS'indiv.separation()'
p24
aS'indiv.target()'
p25
aS'indiv.currentVelocity()'
p26
aS'indiv.centerOfWorld()'
p27
aS'indiv.mostEnergizedNeighbor()'
p28
aS'indiv.randV()'
p29
asS'parent'
p30
NsS'data'
p31
g27
sS'left'
p32
Nsbsg20
(lp33
g22
ag23
ag24
ag25
ag26
ag27
ag28
ag29
asg30
Nsg31
S'*'
sg32
(i__main__
Node
p34
(dp35
g11
(lp36
S'+'
aS'-'
aS'*'
aS'/'
asg13
Nsg20
(lp37
g22
ag23
ag24
ag25
ag26
ag27
ag28
ag29
asg30
Nsg31
g25
sg32
Nsbsbsg20
(lp38
g22
ag23
ag24
ag25
ag26
ag27
ag28
ag29
asg30
Nsg31
S'*'
sg32
(i__main__
Node
p39
(dp40
g11
(lp41
S'+'
aS'-'
aS'*'
aS'/'
asg13
(i__main__
Node
p42
(dp43
g11
(lp44
S'+'
aS'-'
aS'*'
aS'/'
asg13
Nsg20
(lp45
g22
ag23
ag24
ag25
ag26
ag27
ag28
ag29
asg30
Nsg31
g29
sg32
Nsbsg20
(lp46
g22
ag23
ag24
ag25
ag26
ag27
ag28
ag29
asg30
Nsg31
S'+'
sg32
(i__main__
Node
p47
(dp48
g11
(lp49
S'+'
aS'-'
aS'*'
aS'/'
asg13
Nsg20
(lp50
g22
ag23
ag24
ag25
ag26
ag27
ag28
ag29
asg30
Nsg31
g26
sg32
NsbsbsbsS'accel_x'
p51
F0
sS'accel_y'
p52
F0
sS'maxAccel'
p53
I2
sS'maxVel'
p54
F0.69999999999999996
sS'age'
p55
I0
sS'radius'
p56
I2
sS'gener'
p57
S'm'
sS'lastScale'
p58
F15.5
sS'energy'
p59
F1.5
sb.(i__main__
Data_mobile
p1
(dp2
S'vel_y'
p3
F0.12503132730866839
sS'vel_x'
p4
F-0.00079269606344600785
sS'pos_x'
p5
F-24.012309243232703
sS'pos_y'
p6
F-67.88203311066431
sS'isAlive'
p7
I01
sS'geno'
p8
(i__main__
Node
p9
(dp10
S'node'
p11
(lp12
S'+'
aS'-'
aS'*'
aS'/'
asS'right'
p13
(i__main__
Node
p14
(dp15
g11
(lp16
S'+'
aS'-'
aS'*'
aS'/'
asg13
(i__main__
Node
p17
(dp18
g11
(lp19
S'+'
aS'-'
aS'*'
aS'/'
asg13
NsS'leaf'
p20
(lp21
S'indiv.alignment()'
p22
aS'indiv.cohesion()'
p23
aS'indiv.separation()'
p24
aS'indiv.target()'
p25
aS'indiv.currentVelocity()'
p26
aS'indiv.centerOfWorld()'
p27
aS'indiv.mostEnergizedNeighbor()'
p28
aS'indiv.randV()'
p29
asS'parent'
p30
NsS'data'
p31
g28
sS'left'
p32
Nsbsg20
(lp33
g22
ag23
ag24
ag25
ag26
ag27
ag28
ag29
asg30
Nsg31
S'+'
sg32
(i__main__
Node
p34
(dp35
g11
(lp36
S'+'
aS'-'
aS'*'
aS'/'
asg13
Nsg20
(lp37
g22
ag23
ag24
ag25
ag26
ag27
ag28
ag29
asg30
Nsg31
g24
sg32
Nsbsbsg20
(lp38
g22
ag23
ag24
ag25
ag26
ag27
ag28
ag29
asg30
Nsg31
S'*'
sg32
(i__main__
Node
p39
(dp40
g11
(lp41
S'+'
aS'-'
aS'*'
aS'/'
asg13
(i__main__
Node
p42
(dp43
g11
(lp44
S'+'
aS'-'
aS'*'
aS'/'
asg13
Nsg20
(lp45
g22
ag23
ag24
ag25
ag26
ag27
ag28
ag29
asg30
Nsg31
g29
sg32
Nsbsg20
(lp46
g22
ag23
ag24
ag25
ag26
ag27
ag28
ag29
asg30
Nsg31
S'-'
sg32
(i__main__
Node
p47
(dp48
g11
(lp49
S'+'
aS'-'
aS'*'
aS'/'
asg13
Nsg20
(lp50
g22
ag23
ag24
ag25
ag26
ag27
ag28
ag29
asg30
Nsg31
g29
sg32
NsbsbsbsS'accel_x'
p51
F0
sS'accel_y'
p52
F0
sS'maxAccel'
p53
I2
sS'maxVel'
p54
F0.69999999999999996
sS'age'
p55
I0
sS'radius'
p56
I2
sS'gener'
p57
S'm'
sS'lastScale'
p58
F15.5
sS'energy'
p59
F1.5
sb.(i__main__
Data_mobile
p1
(dp2
S'vel_y'
p3
F0.38999072428625814
sS'vel_x'
p4
F-0.47982309555351155
sS'pos_x'
p5
F10.974430861313508
sS'pos_y'
p6
F-29.942943137393048
sS'isAlive'
p7
I01
sS'geno'
p8
(i__main__
Node
p9
(dp10
S'node'
p11
(lp12
S'+'
aS'-'
aS'*'
aS'/'
asS'right'
p13
(i__main__
Node
p14
(dp15
g11
(lp16
S'+'
aS'-'
aS'*'
aS'/'
asg13
(i__main__
Node
p17
(dp18
g11
(lp19
S'+'
aS'-'
aS'*'
aS'/'
asg13
NsS'leaf'
p20
(lp21
S'indiv.alignment()'
p22
aS'indiv.cohesion()'
p23
aS'indiv.separation()'
p24
aS'indiv.target()'
p25
aS'indiv.currentVelocity()'
p26
aS'indiv.centerOfWorld()'
p27
aS'indiv.mostEnergizedNeighbor()'
p28
aS'indiv.randV()'
p29
asS'parent'
p30
NsS'data'
p31
g25
sS'left'
p32
Nsbsg20
(lp33
g22
ag23
ag24
ag25
ag26
ag27
ag28
ag29
asg30
Nsg31
S'-'
sg32
(i__main__
Node
p34
(dp35
g11
(lp36
S'+'
aS'-'
aS'*'
aS'/'
asg13
Nsg20
(lp37
g22
ag23
ag24
ag25
ag26
ag27
ag28
ag29
asg30
Nsg31
g22
sg32
Nsbsbsg20
(lp38
g22
ag23
ag24
ag25
ag26
ag27
ag28
ag29
asg30
Nsg31
S'+'
sg32
(i__main__
Node
p39
(dp40
g11
(lp41
S'+'
aS'-'
aS'*'
aS'/'
asg13
(i__main__
Node
p42
(dp43
g11
(lp44
S'+'
aS'-'
aS'*'
aS'/'
asg13
Nsg20
(lp45
g22
ag23
ag24
ag25
ag26
ag27
ag28
ag29
asg30
Nsg31
g29
sg32
Nsbsg20
(lp46
g22
ag23
ag24
ag25
ag26
ag27
ag28
ag29
asg30
Nsg31
S'/'
sg32
(i__main__
Node
p47
(dp48
g11
(lp49
S'+'
aS'-'
aS'*'
aS'/'
asg13
Nsg20
(lp50
g22
ag23
ag24
ag25
ag26
ag27
ag28
ag29
asg30
Nsg31
g27
sg32
NsbsbsbsS'accel_x'
p51
F0
sS'accel_y'
p52
F0
sS'maxAccel'
p53
I2
sS'maxVel'
p54
F0.69999999999999996
sS'age'
p55
I0
sS'radius'
p56
I2
sS'gener'
p57
S'm'
sS'lastScale'
p58
F15.5
sS'energy'
p59
F1.5
sb.(i__main__
Data_mobile
p1
(dp2
S'vel_y'
p3
F0.48571600822861805
sS'vel_x'
p4
F-0.5040634477428978
sS'pos_x'
p5
F-12.670514525232903
sS'pos_y'
p6
F-6.7080029216694292
sS'isAlive'
p7
I01
sS'geno'
p8
(i__main__
Node
p9
(dp10
S'node'
p11
(lp12
S'+'
aS'-'
aS'*'
aS'/'
asS'right'
p13
(i__main__
Node
p14
(dp15
g11
(lp16
S'+'
aS'-'
aS'*'
aS'/'
asg13
(i__main__
Node
p17
(dp18
g11
(lp19
S'+'
aS'-'
aS'*'
aS'/'
asg13
NsS'leaf'
p20
(lp21
S'indiv.alignment()'
p22
aS'indiv.cohesion()'
p23
aS'indiv.separation()'
p24
aS'indiv.target()'
p25
aS'indiv.currentVelocity()'
p26
aS'indiv.centerOfWorld()'
p27
aS'indiv.mostEnergizedNeighbor()'
p28
aS'indiv.randV()'
p29
asS'parent'
p30
NsS'data'
p31
g27
sS'left'
p32
Nsbsg20
(lp33
g22
ag23
ag24
ag25
ag26
ag27
ag28
ag29
asg30
Nsg31
S'+'
sg32
(i__main__
Node
p34
(dp35
g11
(lp36
S'+'
aS'-'
aS'*'
aS'/'
asg13
Nsg20
(lp37
g22
ag23
ag24
ag25
ag26
ag27
ag28
ag29
asg30
Nsg31
g23
sg32
Nsbsbsg20
(lp38
g22
ag23
ag24
ag25
ag26
ag27
ag28
ag29
asg30
Nsg31
S'-'
sg32
(i__main__
Node
p39
(dp40
g11
(lp41
S'+'
aS'-'
aS'*'
aS'/'
asg13
(i__main__
Node
p42
(dp43
g11
(lp44
S'+'
aS'-'
aS'*'
aS'/'
asg13
Nsg20
(lp45
g22
ag23
ag24
ag25
ag26
ag27
ag28
ag29
asg30
Nsg31
g24
sg32
Nsbsg20
(lp46
g22
ag23
ag24
ag25
ag26
ag27
ag28
ag29
asg30
Nsg31
S'*'
sg32
(i__main__
Node
p47
(dp48
g11
(lp49
S'+'
aS'-'
aS'*'
aS'/'
asg13
Nsg20
(lp50
g22
ag23
ag24
ag25
ag26
ag27
ag28
ag29
asg30
Nsg31
g24
sg32
NsbsbsbsS'accel_x'
p51
F0
sS'accel_y'
p52
F0
sS'maxAccel'
p53
I2
sS'maxVel'
p54
F0.69999999999999996
sS'age'
p55
I0
sS'radius'
p56
I2
sS'gener'
p57
S'm'
sS'lastScale'
p58
F15.5
sS'energy'
p59
F1.5
sb.(i__main__
Data_mobile
p1
(dp2
S'vel_y'
p3
F0.31239073162866099
sS'vel_x'
p4
F0.62642799330211107
sS'pos_x'
p5
F-30.50497766003528
sS'pos_y'
p6
F26.873579261947427
sS'isAlive'
p7
I01
sS'geno'
p8
(i__main__
Node
p9
(dp10
S'node'
p11
(lp12
S'+'
aS'-'
aS'*'
aS'/'
asS'right'
p13
(i__main__
Node
p14
(dp15
g11
(lp16
S'+'
aS'-'
aS'*'
aS'/'
asg13
(i__main__
Node
p17
(dp18
g11
(lp19
S'+'
aS'-'
aS'*'
aS'/'
asg13
NsS'leaf'
p20
(lp21
S'indiv.alignment()'
p22
aS'indiv.cohesion()'
p23
aS'indiv.separation()'
p24
aS'indiv.target()'
p25
aS'indiv.currentVelocity()'
p26
aS'indiv.centerOfWorld()'
p27
aS'indiv.mostEnergizedNeighbor()'
p28
aS'indiv.randV()'
p29
asS'parent'
p30
NsS'data'
p31
g22
sS'left'
p32
Nsbsg20
(lp33
g22
ag23
ag24
ag25
ag26
ag27
ag28
ag29
asg30
Nsg31
S'+'
sg32
(i__main__
Node
p34
(dp35
g11
(lp36
S'+'
aS'-'
aS'*'
aS'/'
asg13
Nsg20
(lp37
g22
ag23
ag24
ag25
ag26
ag27
ag28
ag29
asg30
Nsg31
g22
sg32
Nsbsbsg20
(lp38
g22
ag23
ag24
ag25
ag26
ag27
ag28
ag29
asg30
Nsg31
S'/'
sg32
(i__main__
Node
p39
(dp40
g11
(lp41
S'+'
aS'-'
aS'*'
aS'/'
asg13
(i__main__
Node
p42
(dp43
g11
(lp44
S'+'
aS'-'
aS'*'
aS'/'
asg13
Nsg20
(lp45
g22
ag23
ag24
ag25
ag26
ag27
ag28
ag29
asg30
Nsg31
g27
sg32
Nsbsg20
(lp46
g22
ag23
ag24
ag25
ag26
ag27
ag28
ag29
asg30
Nsg31
S'/'
sg32
(i__main__
Node
p47
(dp48
g11
(lp49
S'+'
aS'-'
aS'*'
aS'/'
asg13
Nsg20
(lp50
g22
ag23
ag24
ag25
ag26
ag27
ag28
ag29
asg30
Nsg31
g24
sg32
NsbsbsbsS'accel_x'
p51
F0
sS'accel_y'
p52
F0
sS'maxAccel'
p53
I2
sS'maxVel'
p54
F0.69999999999999996
sS'age'
p55
I0
sS'radius'
p56
I2
sS'gener'
p57
S'm'
sS'lastScale'
p58
F15.5
sS'energy'
p59
F1.5
sb.(i__main__
Data_mobile
p1
(dp2
S'vel_y'
p3
F0.47132376686400679
sS'vel_x'
p4
F0.51754604315859987
sS'pos_x'
p5
F33.034682505886266
sS'pos_y'
p6
F98.098898741471771
sS'isAlive'
p7
I01
sS'geno'
p8
(i__main__
Node
p9
(dp10
S'node'
p11
(lp12
S'+'
aS'-'
aS'*'
aS'/'
asS'right'
p13
(i__main__
Node
p14
(dp15
g11
(lp16
S'+'
aS'-'
aS'*'
aS'/'
asg13
(i__main__
Node
p17
(dp18
g11
(lp19
S'+'
aS'-'
aS'*'
aS'/'
asg13
NsS'leaf'
p20
(lp21
S'indiv.alignment()'
p22
aS'indiv.cohesion()'
p23
aS'indiv.separation()'
p24
aS'indiv.target()'
p25
aS'indiv.currentVelocity()'
p26
aS'indiv.centerOfWorld()'
p27
aS'indiv.mostEnergizedNeighbor()'
p28
aS'indiv.randV()'
p29
asS'parent'
p30
NsS'data'
p31
g23
sS'left'
p32
Nsbsg20
(lp33
g22
ag23
ag24
ag25
ag26
ag27
ag28
ag29
asg30
Nsg31
S'*'
sg32
(i__main__
Node
p34
(dp35
g11
(lp36
S'+'
aS'-'
aS'*'
aS'/'
asg13
Nsg20
(lp37
g22
ag23
ag24
ag25
ag26
ag27
ag28
ag29
asg30
Nsg31
g24
sg32
Nsbsbsg20
(lp38
g22
ag23
ag24
ag25
ag26
ag27
ag28
ag29
asg30
Nsg31
S'/'
sg32
(i__main__
Node
p39
(dp40
g11
(lp41
S'+'
aS'-'
aS'*'
aS'/'
asg13
(i__main__
Node
p42
(dp43
g11
(lp44
S'+'
aS'-'
aS'*'
aS'/'
asg13
Nsg20
(lp45
g22
ag23
ag24
ag25
ag26
ag27
ag28
ag29
asg30
Nsg31
g26
sg32
Nsbsg20
(lp46
g22
ag23
ag24
ag25
ag26
ag27
ag28
ag29
asg30
Nsg31
S'-'
sg32
(i__main__
Node
p47
(dp48
g11
(lp49
S'+'
aS'-'
aS'*'
aS'/'
asg13
Nsg20
(lp50
g22
ag23
ag24
ag25
ag26
ag27
ag28
ag29
asg30
Nsg31
g28
sg32
NsbsbsbsS'accel_x'
p51
F0
sS'accel_y'
p52
F0
sS'maxAccel'
p53
I2
sS'maxVel'
p54
F0.69999999999999996
sS'age'
p55
I0
sS'radius'
p56
I2
sS'gener'
p57
S'm'
sS'lastScale'
p58
F15.5
sS'energy'
p59
F1.5
sb.(i__main__
Data_mobile
p1
(dp2
S'vel_y'
p3
F-0.3453696582957248
sS'vel_x'
p4
F-0.34207454069028076
sS'pos_x'
p5
F105.41766389810591
sS'pos_y'
p6
F-78.901284840648387
sS'isAlive'
p7
I01
sS'geno'
p8
(i__main__
Node
p9
(dp10
S'node'
p11
(lp12
S'+'
aS'-'
aS'*'
aS'/'
asS'right'
p13
(i__main__
Node
p14
(dp15
g11
(lp16
S'+'
aS'-'
aS'*'
aS'/'
asg13
(i__main__
Node
p17
(dp18
g11
(lp19
S'+'
aS'-'
aS'*'
aS'/'
asg13
NsS'leaf'
p20
(lp21
S'indiv.alignment()'
p22
aS'indiv.cohesion()'
p23
aS'indiv.separation()'
p24
aS'indiv.target()'
p25
aS'indiv.currentVelocity()'
p26
aS'indiv.centerOfWorld()'
p27
aS'indiv.mostEnergizedNeighbor()'
p28
aS'indiv.randV()'
p29
asS'parent'
p30
NsS'data'
p31
g25
sS'left'
p32
Nsbsg20
(lp33
g22
ag23
ag24
ag25
ag26
ag27
ag28
ag29
asg30
Nsg31
S'-'
sg32
(i__main__
Node
p34
(dp35
g11
(lp36
S'+'
aS'-'
aS'*'
aS'/'
asg13
Nsg20
(lp37
g22
ag23
ag24
ag25
ag26
ag27
ag28
ag29
asg30
Nsg31
g27
sg32
Nsbsbsg20
(lp38
g22
ag23
ag24
ag25
ag26
ag27
ag28
ag29
asg30
Nsg31
S'/'
sg32
(i__main__
Node
p39
(dp40
g11
(lp41
S'+'
aS'-'
aS'*'
aS'/'
asg13
(i__main__
Node
p42
(dp43
g11
(lp44
S'+'
aS'-'
aS'*'
aS'/'
asg13
Nsg20
(lp45
g22
ag23
ag24
ag25
ag26
ag27
ag28
ag29
asg30
Nsg31
g24
sg32
Nsbsg20
(lp46
g22
ag23
ag24
ag25
ag26
ag27
ag28
ag29
asg30
Nsg31
S'/'
sg32
(i__main__
Node
p47
(dp48
g11
(lp49
S'+'
aS'-'
aS'*'
aS'/'
asg13
Nsg20
(lp50
g22
ag23
ag24
ag25
ag26
ag27
ag28
ag29
asg30
Nsg31
g24
sg32
NsbsbsbsS'accel_x'
p51
F0
sS'accel_y'
p52
F0
sS'maxAccel'
p53
I2
sS'maxVel'
p54
F0.69999999999999996
sS'age'
p55
I0
sS'radius'
p56
I2
sS'gener'
p57
S'm'
sS'lastScale'
p58
F15.5
sS'energy'
p59
F1.5
sb.(i__main__
Data_mobile
p1
(dp2
S'vel_y'
p3
F-0.53358455350338785
sS'vel_x'
p4
F0.15411667854260536
sS'pos_x'
p5
F82.722144518242118
sS'pos_y'
p6
F-26.672742032157181
sS'isAlive'
p7
I01
sS'geno'
p8
(i__main__
Node
p9
(dp10
S'node'
p11
(lp12
S'+'
aS'-'
aS'*'
aS'/'
asS'right'
p13
(i__main__
Node
p14
(dp15
g11
(lp16
S'+'
aS'-'
aS'*'
aS'/'
asg13
(i__main__
Node
p17
(dp18
g11
(lp19
S'+'
aS'-'
aS'*'
aS'/'
asg13
NsS'leaf'
p20
(lp21
S'indiv.alignment()'
p22
aS'indiv.cohesion()'
p23
aS'indiv.separation()'
p24
aS'indiv.target()'
p25
aS'indiv.currentVelocity()'
p26
aS'indiv.centerOfWorld()'
p27
aS'indiv.mostEnergizedNeighbor()'
p28
aS'indiv.randV()'
p29
asS'parent'
p30
NsS'data'
p31
g29
sS'left'
p32
Nsbsg20
(lp33
g22
ag23
ag24
ag25
ag26
ag27
ag28
ag29
asg30
Nsg31
S'/'
sg32
(i__main__
Node
p34
(dp35
g11
(lp36
S'+'
aS'-'
aS'*'
aS'/'
asg13
Nsg20
(lp37
g22
ag23
ag24
ag25
ag26
ag27
ag28
ag29
asg30
Nsg31
g27
sg32
Nsbsbsg20
(lp38
g22
ag23
ag24
ag25
ag26
ag27
ag28
ag29
asg30
Nsg31
S'-'
sg32
(i__main__
Node
p39
(dp40
g11
(lp41
S'+'
aS'-'
aS'*'
aS'/'
asg13
(i__main__
Node
p42
(dp43
g11
(lp44
S'+'
aS'-'
aS'*'
aS'/'
asg13
Nsg20
(lp45
g22
ag23
ag24
ag25
ag26
ag27
ag28
ag29
asg30
Nsg31
g25
sg32
Nsbsg20
(lp46
g22
ag23
ag24
ag25
ag26
ag27
ag28
ag29
asg30
Nsg31
S'*'
sg32
(i__main__
Node
p47
(dp48
g11
(lp49
S'+'
aS'-'
aS'*'
aS'/'
asg13
Nsg20
(lp50
g22
ag23
ag24
ag25
ag26
ag27
ag28
ag29
asg30
Nsg31
g27
sg32
NsbsbsbsS'accel_x'
p51
F0
sS'accel_y'
p52
F0
sS'maxAccel'
p53
I2
sS'maxVel'
p54
F0.69999999999999996
sS'age'
p55
I0
sS'radius'
p56
I2
sS'gener'
p57
S'm'
sS'lastScale'
p58
F15.5
sS'energy'
p59
F1.5
sb.(i__main__
Data_mobile
p1
(dp2
S'vel_y'
p3
F-0.028221986043754477
sS'vel_x'
p4
F-0.53555038656182419
sS'pos_x'
p5
F109.54109771819748
sS'pos_y'
p6
F5.9325949273300296
sS'isAlive'
p7
I01
sS'geno'
p8
(i__main__
Node
p9
(dp10
S'node'
p11
(lp12
S'+'
aS'-'
aS'*'
aS'/'
asS'right'
p13
(i__main__
Node
p14
(dp15
g11
(lp16
S'+'
aS'-'
aS'*'
aS'/'
asg13
(i__main__
Node
p17
(dp18
g11
(lp19
S'+'
aS'-'
aS'*'
aS'/'
asg13
NsS'leaf'
p20
(lp21
S'indiv.alignment()'
p22
aS'indiv.cohesion()'
p23
aS'indiv.separation()'
p24
aS'indiv.target()'
p25
aS'indiv.currentVelocity()'
p26
aS'indiv.centerOfWorld()'
p27
aS'indiv.mostEnergizedNeighbor()'
p28
aS'indiv.randV()'
p29
asS'parent'
p30
NsS'data'
p31
g22
sS'left'
p32
Nsbsg20
(lp33
g22
ag23
ag24
ag25
ag26
ag27
ag28
ag29
asg30
Nsg31
S'+'
sg32
(i__main__
Node
p34
(dp35
g11
(lp36
S'+'
aS'-'
aS'*'
aS'/'
asg13
Nsg20
(lp37
g22
ag23
ag24
ag25
ag26
ag27
ag28
ag29
asg30
Nsg31
g26
sg32
Nsbsbsg20
(lp38
g22
ag23
ag24
ag25
ag26
ag27
ag28
ag29
asg30
Nsg31
S'*'
sg32
(i__main__
Node
p39
(dp40
g11
(lp41
S'+'
aS'-'
aS'*'
aS'/'
asg13
(i__main__
Node
p42
(dp43
g11
(lp44
S'+'
aS'-'
aS'*'
aS'/'
asg13
Nsg20
(lp45
g22
ag23
ag24
ag25
ag26
ag27
ag28
ag29
asg30
Nsg31
g28
sg32
Nsbsg20
(lp46
g22
ag23
ag24
ag25
ag26
ag27
ag28
ag29
asg30
Nsg31
S'/'
sg32
(i__main__
Node
p47
(dp48
g11
(lp49
S'+'
aS'-'
aS'*'
aS'/'
asg13
Nsg20
(lp50
g22
ag23
ag24
ag25
ag26
ag27
ag28
ag29
asg30
Nsg31
g25
sg32
NsbsbsbsS'accel_x'
p51
F0
sS'accel_y'
p52
F0
sS'maxAccel'
p53
I2
sS'maxVel'
p54
F0.69999999999999996
sS'age'
p55
I0
sS'radius'
p56
I2
sS'gener'
p57
S'm'
sS'lastScale'
p58
F15.5
sS'energy'
p59
F1.5
sb.(i__main__
Data_mobile
p1
(dp2
S'vel_y'
p3
F0.20750980953876397
sS'vel_x'
p4
F0.42852131274682104
sS'pos_x'
p5
F56.183263748892173
sS'pos_y'
p6
F49.085099012092854
sS'isAlive'
p7
I01
sS'geno'
p8
(i__main__
Node
p9
(dp10
S'node'
p11
(lp12
S'+'
aS'-'
aS'*'
aS'/'
asS'right'
p13
(i__main__
Node
p14
(dp15
g11
(lp16
S'+'
aS'-'
aS'*'
aS'/'
asg13
(i__main__
Node
p17
(dp18
g11
(lp19
S'+'
aS'-'
aS'*'
aS'/'
asg13
NsS'leaf'
p20
(lp21
S'indiv.alignment()'
p22
aS'indiv.cohesion()'
p23
aS'indiv.separation()'
p24
aS'indiv.target()'
p25
aS'indiv.currentVelocity()'
p26
aS'indiv.centerOfWorld()'
p27
aS'indiv.mostEnergizedNeighbor()'
p28
aS'indiv.randV()'
p29
asS'parent'
p30
NsS'data'
p31
g29
sS'left'
p32
Nsbsg20
(lp33
g22
ag23
ag24
ag25
ag26
ag27
ag28
ag29
asg30
Nsg31
S'+'
sg32
(i__main__
Node
p34
(dp35
g11
(lp36
S'+'
aS'-'
aS'*'
aS'/'
asg13
Nsg20
(lp37
g22
ag23
ag24
ag25
ag26
ag27
ag28
ag29
asg30
Nsg31
g22
sg32
Nsbsbsg20
(lp38
g22
ag23
ag24
ag25
ag26
ag27
ag28
ag29
asg30
Nsg31
S'+'
sg32
(i__main__
Node
p39
(dp40
g11
(lp41
S'+'
aS'-'
aS'*'
aS'/'
asg13
(i__main__
Node
p42
(dp43
g11
(lp44
S'+'
aS'-'
aS'*'
aS'/'
asg13
Nsg20
(lp45
g22
ag23
ag24
ag25
ag26
ag27
ag28
ag29
asg30
Nsg31
g24
sg32
Nsbsg20
(lp46
g22
ag23
ag24
ag25
ag26
ag27
ag28
ag29
asg30
Nsg31
S'/'
sg32
(i__main__
Node
p47
(dp48
g11
(lp49
S'+'
aS'-'
aS'*'
aS'/'
asg13
Nsg20
(lp50
g22
ag23
ag24
ag25
ag26
ag27
ag28
ag29
asg30
Nsg31
g27
sg32
NsbsbsbsS'accel_x'
p51
F0
sS'accel_y'
p52
F0
sS'maxAccel'
p53
I2
sS'maxVel'
p54
F0.69999999999999996
sS'age'
p55
I0
sS'radius'
p56
I2
sS'gener'
p57
S'm'
sS'lastScale'
p58
F15.5
sS'energy'
p59
F1.5
sb.(i__main__
Data_mobile
p1
(dp2
S'vel_y'
p3
F-0.42350172292095056
sS'vel_x'
p4
F-0.3035768440384618
sS'pos_x'
p5
F69.859488258687549
sS'pos_y'
p6
F97.603921930420285
sS'isAlive'
p7
I01
sS'geno'
p8
(i__main__
Node
p9
(dp10
S'node'
p11
(lp12
S'+'
aS'-'
aS'*'
aS'/'
asS'right'
p13
(i__main__
Node
p14
(dp15
g11
(lp16
S'+'
aS'-'
aS'*'
aS'/'
asg13
(i__main__
Node
p17
(dp18
g11
(lp19
S'+'
aS'-'
aS'*'
aS'/'
asg13
NsS'leaf'
p20
(lp21
S'indiv.alignment()'
p22
aS'indiv.cohesion()'
p23
aS'indiv.separation()'
p24
aS'indiv.target()'
p25
aS'indiv.currentVelocity()'
p26
aS'indiv.centerOfWorld()'
p27
aS'indiv.mostEnergizedNeighbor()'
p28
aS'indiv.randV()'
p29
asS'parent'
p30
NsS'data'
p31
g28
sS'left'
p32
Nsbsg20
(lp33
g22
ag23
ag24
ag25
ag26
ag27
ag28
ag29
asg30
Nsg31
S'-'
sg32
(i__main__
Node
p34
(dp35
g11
(lp36
S'+'
aS'-'
aS'*'
aS'/'
asg13
Nsg20
(lp37
g22
ag23
ag24
ag25
ag26
ag27
ag28
ag29
asg30
Nsg31
g24
sg32
Nsbsbsg20
(lp38
g22
ag23
ag24
ag25
ag26
ag27
ag28
ag29
asg30
Nsg31
S'/'
sg32
(i__main__
Node
p39
(dp40
g11
(lp41
S'+'
aS'-'
aS'*'
aS'/'
asg13
(i__main__
Node
p42
(dp43
g11
(lp44
S'+'
aS'-'
aS'*'
aS'/'
asg13
Nsg20
(lp45
g22
ag23
ag24
ag25
ag26
ag27
ag28
ag29
asg30
Nsg31
g27
sg32
Nsbsg20
(lp46
g22
ag23
ag24
ag25
ag26
ag27
ag28
ag29
asg30
Nsg31
S'-'
sg32
(i__main__
Node
p47
(dp48
g11
(lp49
S'+'
aS'-'
aS'*'
aS'/'
asg13
Nsg20
(lp50
g22
ag23
ag24
ag25
ag26
ag27
ag28
ag29
asg30
Nsg31
g24
sg32
NsbsbsbsS'accel_x'
p51
F0
sS'accel_y'
p52
F0
sS'maxAccel'
p53
I2
sS'maxVel'
p54
F0.69999999999999996
sS'age'
p55
I0
sS'radius'
p56
I2
sS'gener'
p57
S'm'
sS'lastScale'
p58
F15.5
sS'energy'
p59
F1.5
sb.(i__main__
Data_mobile
p1
(dp2
S'vel_y'
p3
F0.45897770400028848
sS'vel_x'
p4
F0.21181469953901988
sS'pos_x'
p5
F171.46089280279534
sS'pos_y'
p6
F-77.961500151711817
sS'isAlive'
p7
I01
sS'geno'
p8
(i__main__
Node
p9
(dp10
S'node'
p11
(lp12
S'+'
aS'-'
aS'*'
aS'/'
asS'right'
p13
(i__main__
Node
p14
(dp15
g11
(lp16
S'+'
aS'-'
aS'*'
aS'/'
asg13
(i__main__
Node
p17
(dp18
g11
(lp19
S'+'
aS'-'
aS'*'
aS'/'
asg13
NsS'leaf'
p20
(lp21
S'indiv.alignment()'
p22
aS'indiv.cohesion()'
p23
aS'indiv.separation()'
p24
aS'indiv.target()'
p25
aS'indiv.currentVelocity()'
p26
aS'indiv.centerOfWorld()'
p27
aS'indiv.mostEnergizedNeighbor()'
p28
aS'indiv.randV()'
p29
asS'parent'
p30
NsS'data'
p31
g27
sS'left'
p32
Nsbsg20
(lp33
g22
ag23
ag24
ag25
ag26
ag27
ag28
ag29
asg30
Nsg31
S'+'
sg32
(i__main__
Node
p34
(dp35
g11
(lp36
S'+'
aS'-'
aS'*'
aS'/'
asg13
Nsg20
(lp37
g22
ag23
ag24
ag25
ag26
ag27
ag28
ag29
asg30
Nsg31
g26
sg32
Nsbsbsg20
(lp38
g22
ag23
ag24
ag25
ag26
ag27
ag28
ag29
asg30
Nsg31
S'+'
sg32
(i__main__
Node
p39
(dp40
g11
(lp41
S'+'
aS'-'
aS'*'
aS'/'
asg13
(i__main__
Node
p42
(dp43
g11
(lp44
S'+'
aS'-'
aS'*'
aS'/'
asg13
Nsg20
(lp45
g22
ag23
ag24
ag25
ag26
ag27
ag28
ag29
asg30
Nsg31
g23
sg32
Nsbsg20
(lp46
g22
ag23
ag24
ag25
ag26
ag27
ag28
ag29
asg30
Nsg31
S'-'
sg32
(i__main__
Node
p47
(dp48
g11
(lp49
S'+'
aS'-'
aS'*'
aS'/'
asg13
Nsg20
(lp50
g22
ag23
ag24
ag25
ag26
ag27
ag28
ag29
asg30
Nsg31
g24
sg32
NsbsbsbsS'accel_x'
p51
F0
sS'accel_y'
p52
F0
sS'maxAccel'
p53
I2
sS'maxVel'
p54
F0.69999999999999996
sS'age'
p55
I0
sS'radius'
p56
I2
sS'gener'
p57
S'm'
sS'lastScale'
p58
F15.5
sS'energy'
p59
F1.5
sb.(i__main__
Data_mobile
p1
(dp2
S'vel_y'
p3
F-0.17747859123674803
sS'vel_x'
p4
F-0.49613934316241382
sS'pos_x'
p5
F121.68531631250715
sS'pos_y'
p6
F-37.417757477920631
sS'isAlive'
p7
I01
sS'geno'
p8
(i__main__
Node
p9
(dp10
S'node'
p11
(lp12
S'+'
aS'-'
aS'*'
aS'/'
asS'right'
p13
(i__main__
Node
p14
(dp15
g11
(lp16
S'+'
aS'-'
aS'*'
aS'/'
asg13
(i__main__
Node
p17
(dp18
g11
(lp19
S'+'
aS'-'
aS'*'
aS'/'
asg13
NsS'leaf'
p20
(lp21
S'indiv.alignment()'
p22
aS'indiv.cohesion()'
p23
aS'indiv.separation()'
p24
aS'indiv.target()'
p25
aS'indiv.currentVelocity()'
p26
aS'indiv.centerOfWorld()'
p27
aS'indiv.mostEnergizedNeighbor()'
p28
aS'indiv.randV()'
p29
asS'parent'
p30
NsS'data'
p31
g22
sS'left'
p32
Nsbsg20
(lp33
g22
ag23
ag24
ag25
ag26
ag27
ag28
ag29
asg30
Nsg31
S'-'
sg32
(i__main__
Node
p34
(dp35
g11
(lp36
S'+'
aS'-'
aS'*'
aS'/'
asg13
Nsg20
(lp37
g22
ag23
ag24
ag25
ag26
ag27
ag28
ag29
asg30
Nsg31
g28
sg32
Nsbsbsg20
(lp38
g22
ag23
ag24
ag25
ag26
ag27
ag28
ag29
asg30
Nsg31
S'+'
sg32
(i__main__
Node
p39
(dp40
g11
(lp41
S'+'
aS'-'
aS'*'
aS'/'
asg13
(i__main__
Node
p42
(dp43
g11
(lp44
S'+'
aS'-'
aS'*'
aS'/'
asg13
Nsg20
(lp45
g22
ag23
ag24
ag25
ag26
ag27
ag28
ag29
asg30
Nsg31
g26
sg32
Nsbsg20
(lp46
g22
ag23
ag24
ag25
ag26
ag27
ag28
ag29
asg30
Nsg31
S'-'
sg32
(i__main__
Node
p47
(dp48
g11
(lp49
S'+'
aS'-'
aS'*'
aS'/'
asg13
Nsg20
(lp50
g22
ag23
ag24
ag25
ag26
ag27
ag28
ag29
asg30
Nsg31
g29
sg32
NsbsbsbsS'accel_x'
p51
F0
sS'accel_y'
p52
F0
sS'maxAccel'
p53
I2
sS'maxVel'
p54
F0.69999999999999996
sS'age'
p55
I0
sS'radius'
p56
I2
sS'gener'
p57
S'm'
sS'lastScale'
p58
F15.5
sS'energy'
p59
F1.5
sb.(i__main__
Data_mobile
p1
(dp2
S'vel_y'
p3
F0.25391015053622101
sS'vel_x'
p4
F0.22453609314724154
sS'pos_x'
p5
F145.69236346963561
sS'pos_y'
p6
F10.173084002650157
sS'isAlive'
p7
I01
sS'geno'
p8
(i__main__
Node
p9
(dp10
S'node'
p11
(lp12
S'+'
aS'-'
aS'*'
aS'/'
asS'right'
p13
(i__main__
Node
p14
(dp15
g11
(lp16
S'+'
aS'-'
aS'*'
aS'/'
asg13
(i__main__
Node
p17
(dp18
g11
(lp19
S'+'
aS'-'
aS'*'
aS'/'
asg13
NsS'leaf'
p20
(lp21
S'indiv.alignment()'
p22
aS'indiv.cohesion()'
p23
aS'indiv.separation()'
p24
aS'indiv.target()'
p25
aS'indiv.currentVelocity()'
p26
aS'indiv.centerOfWorld()'
p27
aS'indiv.mostEnergizedNeighbor()'
p28
aS'indiv.randV()'
p29
asS'parent'
p30
NsS'data'
p31
g23
sS'left'
p32
Nsbsg20
(lp33
g22
ag23
ag24
ag25
ag26
ag27
ag28
ag29
asg30
Nsg31
S'-'
sg32
(i__main__
Node
p34
(dp35
g11
(lp36
S'+'
aS'-'
aS'*'
aS'/'
asg13
Nsg20
(lp37
g22
ag23
ag24
ag25
ag26
ag27
ag28
ag29
asg30
Nsg31
g26
sg32
Nsbsbsg20
(lp38
g22
ag23
ag24
ag25
ag26
ag27
ag28
ag29
asg30
Nsg31
S'/'
sg32
(i__main__
Node
p39
(dp40
g11
(lp41
S'+'
aS'-'
aS'*'
aS'/'
asg13
(i__main__
Node
p42
(dp43
g11
(lp44
S'+'
aS'-'
aS'*'
aS'/'
asg13
Nsg20
(lp45
g22
ag23
ag24
ag25
ag26
ag27
ag28
ag29
asg30
Nsg31
g26
sg32
Nsbsg20
(lp46
g22
ag23
ag24
ag25
ag26
ag27
ag28
ag29
asg30
Nsg31
S'*'
sg32
(i__main__
Node
p47
(dp48
g11
(lp49
S'+'
aS'-'
aS'*'
aS'/'
asg13
Nsg20
(lp50
g22
ag23
ag24
ag25
ag26
ag27
ag28
ag29
asg30
Nsg31
g22
sg32
NsbsbsbsS'accel_x'
p51
F0
sS'accel_y'
p52
F0
sS'maxAccel'
p53
I2
sS'maxVel'
p54
F0.69999999999999996
sS'age'
p55
I0
sS'radius'
p56
I2
sS'gener'
p57
S'm'
sS'lastScale'
p58
F15.5
sS'energy'
p59
F1.5
sb.(i__main__
Data_mobile
p1
(dp2
S'vel_y'
p3
F-0.12938858691319377
sS'vel_x'
p4
F-0.27623084365826772
sS'pos_x'
p5
F164.996283589873
sS'pos_y'
p6
F46.166380608771988
sS'isAlive'
p7
I01
sS'geno'
p8
(i__main__
Node
p9
(dp10
S'node'
p11
(lp12
S'+'
aS'-'
aS'*'
aS'/'
asS'right'
p13
(i__main__
Node
p14
(dp15
g11
(lp16
S'+'
aS'-'
aS'*'
aS'/'
asg13
(i__main__
Node
p17
(dp18
g11
(lp19
S'+'
aS'-'
aS'*'
aS'/'
asg13
NsS'leaf'
p20
(lp21
S'indiv.alignment()'
p22
aS'indiv.cohesion()'
p23
aS'indiv.separation()'
p24
aS'indiv.target()'
p25
aS'indiv.currentVelocity()'
p26
aS'indiv.centerOfWorld()'
p27
aS'indiv.mostEnergizedNeighbor()'
p28
aS'indiv.randV()'
p29
asS'parent'
p30
NsS'data'
p31
g28
sS'left'
p32
Nsbsg20
(lp33
g22
ag23
ag24
ag25
ag26
ag27
ag28
ag29
asg30
Nsg31
S'/'
sg32
(i__main__
Node
p34
(dp35
g11
(lp36
S'+'
aS'-'
aS'*'
aS'/'
asg13
Nsg20
(lp37
g22
ag23
ag24
ag25
ag26
ag27
ag28
ag29
asg30
Nsg31
g26
sg32
Nsbsbsg20
(lp38
g22
ag23
ag24
ag25
ag26
ag27
ag28
ag29
asg30
Nsg31
S'-'
sg32
(i__main__
Node
p39
(dp40
g11
(lp41
S'+'
aS'-'
aS'*'
aS'/'
asg13
(i__main__
Node
p42
(dp43
g11
(lp44
S'+'
aS'-'
aS'*'
aS'/'
asg13
Nsg20
(lp45
g22
ag23
ag24
ag25
ag26
ag27
ag28
ag29
asg30
Nsg31
g27
sg32
Nsbsg20
(lp46
g22
ag23
ag24
ag25
ag26
ag27
ag28
ag29
asg30
Nsg31
S'+'
sg32
(i__main__
Node
p47
(dp48
g11
(lp49
S'+'
aS'-'
aS'*'
aS'/'
asg13
Nsg20
(lp50
g22
ag23
ag24
ag25
ag26
ag27
ag28
ag29
asg30
Nsg31
g25
sg32
NsbsbsbsS'accel_x'
p51
F0
sS'accel_y'
p52
F0
sS'maxAccel'
p53
I2
sS'maxVel'
p54
F0.69999999999999996
sS'age'
p55
I0
sS'radius'
p56
I2
sS'gener'
p57
S'm'
sS'lastScale'
p58
F15.5
sS'energy'
p59
F1.5
sb.(i__main__
Data_mobile
p1
(dp2
S'vel_y'
p3
F0.50898884021410851
sS'vel_x'
p4
F0.42662478716345986
sS'pos_x'
p5
F164.56464878648916
sS'pos_y'
p6
F83.791407807790804
sS'isAlive'
p7
I01
sS'geno'
p8
(i__main__
Node
p9
(dp10
S'node'
p11
(lp12
S'+'
aS'-'
aS'*'
aS'/'
asS'right'
p13
(i__main__
Node
p14
(dp15
g11
(lp16
S'+'
aS'-'
aS'*'
aS'/'
asg13
(i__main__
Node
p17
(dp18
g11
(lp19
S'+'
aS'-'
aS'*'
aS'/'
asg13
NsS'leaf'
p20
(lp21
S'indiv.alignment()'
p22
aS'indiv.cohesion()'
p23
aS'indiv.separation()'
p24
aS'indiv.target()'
p25
aS'indiv.currentVelocity()'
p26
aS'indiv.centerOfWorld()'
p27
aS'indiv.mostEnergizedNeighbor()'
p28
aS'indiv.randV()'
p29
asS'parent'
p30
NsS'data'
p31
g22
sS'left'
p32
Nsbsg20
(lp33
g22
ag23
ag24
ag25
ag26
ag27
ag28
ag29
asg30
Nsg31
S'+'
sg32
(i__main__
Node
p34
(dp35
g11
(lp36
S'+'
aS'-'
aS'*'
aS'/'
asg13
Nsg20
(lp37
g22
ag23
ag24
ag25
ag26
ag27
ag28
ag29
asg30
Nsg31
g22
sg32
Nsbsbsg20
(lp38
g22
ag23
ag24
ag25
ag26
ag27
ag28
ag29
asg30
Nsg31
S'+'
sg32
(i__main__
Node
p39
(dp40
g11
(lp41
S'+'
aS'-'
aS'*'
aS'/'
asg13
(i__main__
Node
p42
(dp43
g11
(lp44
S'+'
aS'-'
aS'*'
aS'/'
asg13
Nsg20
(lp45
g22
ag23
ag24
ag25
ag26
ag27
ag28
ag29
asg30
Nsg31
g23
sg32
Nsbsg20
(lp46
g22
ag23
ag24
ag25
ag26
ag27
ag28
ag29
asg30
Nsg31
S'/'
sg32
(i__main__
Node
p47
(dp48
g11
(lp49
S'+'
aS'-'
aS'*'
aS'/'
asg13
Nsg20
(lp50
g22
ag23
ag24
ag25
ag26
ag27
ag28
ag29
asg30
Nsg31
g29
sg32
NsbsbsbsS'accel_x'
p51
F0
sS'accel_y'
p52
F0
sS'maxAccel'
p53
I2
sS'maxVel'
p54
F0.69999999999999996
sS'age'
p55
I0
sS'radius'
p56
I2
sS'gener'
p57
S'm'
sS'lastScale'
p58
F15.5
sS'energy'
p59
F1.5
sb.