(i__main__
Data_mobile
p1
(dp2
S'vel_y'
p3
F0.36656231160995084
sS'vel_x'
p4
F0.63129396615773958
sS'pos_x'
p5
F-52.229234550990512
sS'pos_y'
p6
F-2.778506625923403
sS'isAlive'
p7
I01
sS'cumulativeEnergy'
p8
F44.287149286787034
sS'geno'
p9
(lp10
F0.56112106322276822
aF-1.4932881197606709
aF0.80506314162437076
aF4.3132613378057814
aF0.47471957572860835
asS'accel_x'
p11
F0.097784427802970642
sS'accel_y'
p12
F0.46453942917603402
sS'visionAngle'
p13
I130
sS'maxAccel'
p14
I2
sS'maxVel'
p15
F0.72999999999999998
sS'age'
p16
I150
sS'lastScale'
p17
F13.524572580182285
sS'maxSteering'
p18
I20
sS'energy'
p19
F0.80245725801822865
sb.(i__main__
Data_mobile
p1
(dp2
S'vel_y'
p3
F-0.61538463373072938
sS'vel_x'
p4
F-0.39268530984504135
sS'pos_x'
p5
F-68.995892775933527
sS'pos_y'
p6
F28.476701936217939
sS'isAlive'
p7
I01
sS'cumulativeEnergy'
p8
F34.189356662665418
sS'geno'
p9
(lp10
F0.12579066220520374
aF-2.0789189827463126
aF0.80506314162437076
aF4.3132613378057814
aF0.0041002995405376996
asS'accel_x'
p11
F1.8227446535731451
sS'accel_y'
p12
F0.82316579610095264
sS'visionAngle'
p13
I130
sS'maxAccel'
p14
I2
sS'maxVel'
p15
F0.72999999999999998
sS'age'
p16
I50
sS'lastScale'
p17
F15.398593637295674
sS'maxSteering'
p18
I20
sS'energy'
p19
F0.98985936372956751
sb.(i__main__
Data_mobile
p1
(dp2
S'vel_y'
p3
F-0.37963671671429328
sS'vel_x'
p4
F-0.62351901600704318
sS'pos_x'
p5
F-67.958234788860253
sS'pos_y'
p6
F-14.675655156807411
sS'isAlive'
p7
I01
sS'cumulativeEnergy'
p8
F16.631245061703293
sS'geno'
p9
(lp10
F0.58633287410419521
aF-1.8705499249212769
aF0.80506314162437076
aF4.283241162640401
aF-0.063163899337823071
asS'accel_x'
p11
F-0.055482715562882264
sS'accel_y'
p12
F-0.030188515255423674
sS'visionAngle'
p13
I130
sS'maxAccel'
p14
I2
sS'maxVel'
p15
F0.72999999999999998
sS'age'
p16
I50
sS'lastScale'
p17
F6.4825676022439982
sS'maxSteering'
p18
I20
sS'energy'
p19
F0.098256760224399775
sb.(i__main__
Data_mobile
p1
(dp2
S'vel_y'
p3
F0.27837407011379373
sS'vel_x'
p4
F-0.672484610259931
sS'pos_x'
p5
F-71.92172077290526
sS'pos_y'
p6
F32.008217144853482
sS'isAlive'
p7
I01
sS'cumulativeEnergy'
p8
F30.89774351017828
sS'geno'
p9
(lp10
F-0.019114131770877396
aF-2.0789189827463126
aF-0.055124144012102083
aF4.3329456145533092
aF0.0041002995405376996
asS'accel_x'
p11
F0.0012199968135331273
sS'accel_y'
p12
F0.0039145962878824022
sS'visionAngle'
p13
I130
sS'maxAccel'
p14
I2
sS'maxVel'
p15
F0.72999999999999998
sS'age'
p16
I50
sS'lastScale'
p17
F14.993994797860932
sS'maxSteering'
p18
I20
sS'energy'
p19
F0.94939947978609318
sb.(i__main__
Data_mobile
p1
(dp2
S'vel_y'
p3
F0.38707734824619527
sS'vel_x'
p4
F0.6189274000031777
sS'pos_x'
p5
F-63.159424016844795
sS'pos_y'
p6
F-10.53088810947208
sS'isAlive'
p7
I01
sS'cumulativeEnergy'
p8
F34.762521440206712
sS'geno'
p9
(lp10
F0.58633287410419521
aF-1.8705499249212769
aF0.41145417279752583
aF4.3329456145533092
aF-0.55161878701621381
asS'accel_x'
p11
F-1.8345135987240713
sS'accel_y'
p12
F0.7965926538052287
sS'visionAngle'
p13
I130
sS'maxAccel'
p14
I2
sS'maxVel'
p15
F0.72999999999999998
sS'age'
p16
I100
sS'lastScale'
p17
F9.5080569844141749
sS'maxSteering'
p18
I20
sS'energy'
p19
F0.4008056984414175
sb.(i__main__
Data_mobile
p1
(dp2
S'vel_y'
p3
F-0.72044108159693099
sS'vel_x'
p4
F0.047691344441847333
sS'pos_x'
p5
F-68.141675129871487
sS'pos_y'
p6
F21.721916904121301
sS'isAlive'
p7
I01
sS'cumulativeEnergy'
p8
F43.045708173558822
sS'geno'
p9
(lp10
F0.12579066220520374
aF-2.0789189827463126
aF0.80506314162437076
aF4.4453655317731648
aF0.0041002995405376996
asS'accel_x'
p11
F0.00028857102899004729
sS'accel_y'
p12
F0.0040901324041357507
sS'visionAngle'
p13
I130
sS'maxAccel'
p14
I2
sS'maxVel'
p15
F0.72999999999999998
sS'age'
p16
I50
sS'lastScale'
p17
F14.590688719221344
sS'maxSteering'
p18
I20
sS'energy'
p19
F0.90906887192213437
sb.(i__main__
Data_mobile
p1
(dp2
S'vel_y'
p3
F-0.7168182546926064
sS'vel_x'
p4
F0.13809992664533055
sS'pos_x'
p5
F-3.1554511535986158
sS'pos_y'
p6
F-5.5718883405470825
sS'isAlive'
p7
I01
sS'cumulativeEnergy'
p8
F48.30839739649484
sS'geno'
p9
(lp10
F0.36406344722298423
aF-2.0789189827463126
aF-0.055124144012102083
aF4.3329456145533092
aF0.47471957572860835
asS'accel_x'
p11
F0.20451269150923593
sS'accel_y'
p12
F1.9895161620383104
sS'visionAngle'
p13
I130
sS'maxAccel'
p14
I2
sS'maxVel'
p15
F0.72999999999999998
sS'age'
p16
I50
sS'lastScale'
p17
F15.398593637295674
sS'maxSteering'
p18
I20
sS'energy'
p19
F0.98985936372956751
sb.(i__main__
Data_mobile
p1
(dp2
S'vel_y'
p3
F0.69957462117099867
sS'vel_x'
p4
F-0.20855538692024642
sS'pos_x'
p5
F-110.40648409895267
sS'pos_y'
p6
F-20.906315123447438
sS'isAlive'
p7
I01
sS'cumulativeEnergy'
p8
F39.570341194943531
sS'geno'
p9
(lp10
F0.36406344722298423
aF-2.0789189827463126
aF-0.064157362892962033
aF4.3329456145533092
aF-0.55161878701621381
asS'accel_x'
p11
F-1.2175846475684229
sS'accel_y'
p12
F1.5866592658808882
sS'visionAngle'
p13
I130
sS'maxAccel'
p14
I2
sS'maxVel'
p15
F0.72999999999999998
sS'age'
p16
I100
sS'lastScale'
p17
F12.693326322115563
sS'maxSteering'
p18
I20
sS'energy'
p19
F0.7193326322115563
sb.(i__main__
Data_mobile
p1
(dp2
S'vel_y'
p3
F-0.50329548981686312
sS'vel_x'
p4
F0.52734274512825552
sS'pos_x'
p5
F-56.249367499970916
sS'pos_y'
p6
F-14.647840348521719
sS'isAlive'
p7
I01
sS'cumulativeEnergy'
p8
F24.231245061703294
sS'geno'
p9
(lp10
F0.36406344722298423
aF-2.0789189827463126
aF-0.064157362892962033
aF4.3329456145533092
aF0.0041002995405376996
asS'accel_x'
p11
F0.0035586416102881312
sS'accel_y'
p12
F0.0020367931195041803
sS'visionAngle'
p13
I130
sS'maxAccel'
p14
I2
sS'maxVel'
p15
F0.72999999999999998
sS'age'
p16
I50
sS'lastScale'
p17
F8.4825676022439946
sS'maxSteering'
p18
I20
sS'energy'
p19
F0.29825676022439951
sb.(i__main__
Data_mobile
p1
(dp2
S'vel_y'
p3
F-0.31972142478526483
sS'vel_x'
p4
F-0.65626077936539851
sS'pos_x'
p5
F-66.186050782973965
sS'pos_y'
p6
F31.809887453805612
sS'isAlive'
p7
I01
sS'cumulativeEnergy'
p8
F42.741241250096564
sS'geno'
p9
(lp10
F0.12579066220520374
aF-2.0789189827463126
aF0.80506314162437076
aF4.3132613378057814
aF0.47471957572860835
asS'accel_x'
p11
F0.015405047736485603
sS'accel_y'
p12
F-1.9999406702460543
sS'visionAngle'
p13
I130
sS'maxAccel'
p14
I2
sS'maxVel'
p15
F0.72999999999999998
sS'age'
p16
I50
sS'lastScale'
p17
F13.786609889345513
sS'maxSteering'
p18
I20
sS'energy'
p19
F0.82866098893455142
sb.(i__main__
Data_mobile
p1
(dp2
S'vel_y'
p3
F-0.15545167694184595
sS'vel_x'
p4
F0.71325645888135358
sS'pos_x'
p5
F-2.1332710792709522
sS'pos_y'
p6
F-3.5604936774955696
sS'isAlive'
p7
I01
sS'cumulativeEnergy'
p8
F39.447873751616285
sS'geno'
p9
(lp10
F0.12579066220520374
aF-2.0789189827463126
aF0.80506314162437076
aF4.6209802111573897
aF0.0041002995405376996
asS'accel_x'
p11
F-1.743492890105375
sS'accel_y'
p12
F-0.9799145585978436
sS'visionAngle'
p13
I130
sS'maxAccel'
p14
I2
sS'maxVel'
p15
F0.72999999999999998
sS'age'
p16
I50
sS'lastScale'
p17
F15.398593637295674
sS'maxSteering'
p18
I20
sS'energy'
p19
F0.98985936372956751
sb.(i__main__
Data_mobile
p1
(dp2
S'vel_y'
p3
F-0.70042999747068946
sS'vel_x'
p4
F0.14556045439637794
sS'pos_x'
p5
F-9.4207875483399999
sS'pos_y'
p6
F-5.2152523750802962
sS'isAlive'
p7
I01
sS'cumulativeEnergy'
p8
F0.5
sS'geno'
p9
(lp10
F0.56112106322276822
aF-1.4932881197606709
aF0.80506314162437076
aF4.3132613378057814
aF0.47471957572860835
asS'accel_x'
p11
F0
sS'accel_y'
p12
F0
sS'visionAngle'
p13
I130
sS'maxAccel'
p14
I2
sS'maxVel'
p15
F0.72999999999999998
sS'age'
p16
I0
sS'lastScale'
p17
F5.5
sS'maxSteering'
p18
I20
sS'energy'
p19
F0.5
sb.(i__main__
Data_mobile
p1
(dp2
S'vel_y'
p3
F0.57414791327332726
sS'vel_x'
p4
F0.4508371919927236
sS'pos_x'
p5
F-23.895599475076143
sS'pos_y'
p6
F38.511682485920147
sS'isAlive'
p7
I01
sS'cumulativeEnergy'
p8
F28.180741197483723
sS'geno'
p9
(lp10
F0.12579066220520374
aF-2.0789189827463126
aF0.80506314162437076
aF4.3132613378057814
aF0.47471957572860835
asS'accel_x'
p11
F0.47336613281009621
sS'accel_y'
p12
F0.035821500364505612
sS'visionAngle'
p13
I130
sS'maxAccel'
p14
I2
sS'maxVel'
p15
F0.72999999999999998
sS'age'
p16
I250
sS'lastScale'
p17
F6.3002107296963299
sS'maxSteering'
p18
I20
sS'energy'
p19
F0.080021072969633011
sb.(i__main__
Data_mobile
p1
(dp2
S'vel_y'
p3
F-0.29612742699265271
sS'vel_x'
p4
F0.6664128391746903
sS'pos_x'
p5
F-34.257276957037931
sS'pos_y'
p6
F-66.606682232490513
sS'isAlive'
p7
I01
sS'cumulativeEnergy'
p8
F16.07034119494352
sS'geno'
p9
(lp10
F0.10373715515735626
aF-0.68369553649995296
aF1.5053163368088911
aF4.3329456145533092
aF0.0041002995405376996
asS'accel_x'
p11
F0.003965838100633683
sS'accel_y'
p12
F0.0010414338585315408
sS'visionAngle'
p13
I130
sS'maxAccel'
p14
I2
sS'maxVel'
p15
F0.72999999999999998
sS'age'
p16
I100
sS'lastScale'
p17
F5.6933263221155652
sS'maxSteering'
p18
I20
sS'energy'
p19
F0.019332632211556552
sb.(i__main__
Data_mobile
p1
(dp2
S'vel_y'
p3
F0.34207775162351295
sS'vel_x'
p4
F0.6201477083966207
sS'pos_x'
p5
F-34.353868222695425
sS'pos_y'
p6
F-3.7960096180875058
sS'isAlive'
p7
I01
sS'cumulativeEnergy'
p8
F0.5
sS'geno'
p9
(lp10
F0.026478123740959925
aF-2.0789189827463126
aF-0.055124144012102083
aF4.3329456145533092
aF0.26694835994116728
asS'accel_x'
p11
F0
sS'accel_y'
p12
F0
sS'visionAngle'
p13
I130
sS'maxAccel'
p14
I2
sS'maxVel'
p15
F0.72999999999999998
sS'age'
p16
I0
sS'lastScale'
p17
F5.5
sS'maxSteering'
p18
I20
sS'energy'
p19
F0.5
sb.(i__main__
Data_mobile
p1
(dp2
S'vel_y'
p3
F-0.53259869394835113
sS'vel_x'
p4
F-0.16146505015652768
sS'pos_x'
p5
F0.98196086559731688
sS'pos_y'
p6
F-0.77026448236354117
sS'isAlive'
p7
I01
sS'cumulativeEnergy'
p8
F0.5
sS'geno'
p9
(lp10
F0.36406344722298423
aF-2.0789189827463126
aF-0.055124144012102083
aF4.2016077429184726
aF0.0041002995405376996
asS'accel_x'
p11
F0
sS'accel_y'
p12
F0
sS'visionAngle'
p13
I130
sS'maxAccel'
p14
I2
sS'maxVel'
p15
F0.72999999999999998
sS'age'
p16
I0
sS'lastScale'
p17
F5.5
sS'maxSteering'
p18
I20
sS'energy'
p19
F0.5
sb.(i__main__
Data_mobile
p1
(dp2
S'vel_y'
p3
F0.7207930445188
sS'vel_x'
p4
F0.11557416222200884
sS'pos_x'
p5
F-65.953514424540145
sS'pos_y'
p6
F62.983171155735597
sS'isAlive'
p7
I01
sS'cumulativeEnergy'
p8
F37.647934096932417
sS'geno'
p9
(lp10
F0.58633287410419521
aF-1.8705499249212769
aF0.80506314162437076
aF4.3132613378057814
aF0.0041002995405376996
asS'accel_x'
p11
F0.0040361264152854685
sS'accel_y'
p12
F0.00072259247295314549
sS'visionAngle'
p13
I130
sS'maxAccel'
p14
I2
sS'maxVel'
p15
F0.72999999999999998
sS'age'
p16
I100
sS'lastScale'
p17
F10.11769312817969
sS'maxSteering'
p18
I20
sS'energy'
p19
F0.4617693128179689
sb.(i__main__
Data_mobile
p1
(dp2
S'vel_y'
p3
F-0.4164320115955743
sS'vel_x'
p4
F-0.35036719151202228
sS'pos_x'
p5
F20.971271687777644
sS'pos_y'
p6
F22.428090263819204
sS'isAlive'
p7
I01
sS'cumulativeEnergy'
p8
F0.5
sS'geno'
p9
(lp10
F0.21845248146347296
aF-2.2831437961760526
aF-0.055124144012102083
aF4.3329456145533092
aF0.47471957572860835
asS'accel_x'
p11
F0
sS'accel_y'
p12
F0
sS'visionAngle'
p13
I130
sS'maxAccel'
p14
I2
sS'maxVel'
p15
F0.72999999999999998
sS'age'
p16
I0
sS'lastScale'
p17
F5.5
sS'maxSteering'
p18
I20
sS'energy'
p19
F0.5
sb.(i__main__
Data_mobile
p1
(dp2
S'vel_y'
p3
F-0.21043461960924709
sS'vel_x'
p4
F0.014164978372403242
sS'pos_x'
p5
F-53.850850926885961
sS'pos_y'
p6
F-12.82016255017103
sS'isAlive'
p7
I01
sS'cumulativeEnergy'
p8
F0.5
sS'geno'
p9
(lp10
F0.36406344722298423
aF-2.0789189827463126
aF-0.064157362892962033
aF4.0195688156644396
aF-0.55161878701621381
asS'accel_x'
p11
F0
sS'accel_y'
p12
F0
sS'visionAngle'
p13
I130
sS'maxAccel'
p14
I2
sS'maxVel'
p15
F0.72999999999999998
sS'age'
p16
I0
sS'lastScale'
p17
F5.5
sS'maxSteering'
p18
I20
sS'energy'
p19
F0.5
sb.(i__main__
Data_mobile
p1
(dp2
S'vel_y'
p3
F0.26746291517974741
sS'vel_x'
p4
F-0.10279813447401315
sS'pos_x'
p5
F-83.05634762576986
sS'pos_y'
p6
F-16.995875720369202
sS'isAlive'
p7
I01
sS'cumulativeEnergy'
p8
F0.5
sS'geno'
p9
(lp10
F0.36406344722298423
aF-2.0789189827463126
aF-0.055124144012102083
aF4.3329456145533092
aF0.47471957572860835
asS'accel_x'
p11
F0
sS'accel_y'
p12
F0
sS'visionAngle'
p13
I130
sS'maxAccel'
p14
I2
sS'maxVel'
p15
F0.72999999999999998
sS'age'
p16
I0
sS'lastScale'
p17
F5.5
sS'maxSteering'
p18
I20
sS'energy'
p19
F0.5
sb.(i__main__
Data_mobile
p1
(dp2
S'vel_y'
p3
F-0.21481039463137105
sS'vel_x'
p4
F-0.69641732304760184
sS'pos_x'
p5
F-8.3315636406811695
sS'pos_y'
p6
F25.758855977923396
sS'isAlive'
p7
I01
sS'cumulativeEnergy'
p8
F0.5
sS'geno'
p9
(lp10
F0.12579066220520374
aF-2.0789189827463126
aF-0.055124144012102083
aF4.3329456145533092
aF0.0041002995405376996
asS'accel_x'
p11
F0
sS'accel_y'
p12
F0
sS'visionAngle'
p13
I130
sS'maxAccel'
p14
I2
sS'maxVel'
p15
F0.72999999999999998
sS'age'
p16
I0
sS'lastScale'
p17
F5.5
sS'maxSteering'
p18
I20
sS'energy'
p19
F0.5
sb.(i__main__
Data_mobile
p1
(dp2
S'vel_y'
p3
F-0.69410089208310666
sS'vel_x'
p4
F0.22610606274365064
sS'pos_x'
p5
F-3.6210415674077785
sS'pos_y'
p6
F-5.6855200886980324
sS'isAlive'
p7
I01
sS'cumulativeEnergy'
p8
F36.203233037166029
sS'geno'
p9
(lp10
F0.12579066220520374
aF-2.0789189827463126
aF0.80506314162437076
aF4.3132613378057814
aF0.0041002995405376996
asS'accel_x'
p11
F-1.2878814133248633
sS'accel_y'
p12
F1.5301507981935483
sS'visionAngle'
p13
I130
sS'maxAccel'
p14
I2
sS'maxVel'
p15
F0.72999999999999998
sS'age'
p16
I200
sS'lastScale'
p17
F15.30002611903191
sS'maxSteering'
p18
I20
sS'energy'
p19
F0.98000261190319093
sb.(i__main__
Data_mobile
p1
(dp2
S'vel_y'
p3
F-0.24518668246923539
sS'vel_x'
p4
F-0.68479026412276767
sS'pos_x'
p5
F-46.830577752169873
sS'pos_y'
p6
F29.785488270179151
sS'isAlive'
p7
I01
sS'cumulativeEnergy'
p8
F0.5
sS'geno'
p9
(lp10
F0.36406344722298423
aF-2.0789189827463126
aF0.95214822933957821
aF4.3132613378057814
aF0.47471957572860835
asS'accel_x'
p11
F0
sS'accel_y'
p12
F0
sS'visionAngle'
p13
I130
sS'maxAccel'
p14
I2
sS'maxVel'
p15
F0.72999999999999998
sS'age'
p16
I0
sS'lastScale'
p17
F5.5
sS'maxSteering'
p18
I20
sS'energy'
p19
F0.5
sb.(i__main__
Data_mobile
p1
(dp2
S'vel_y'
p3
F-0.20018300586167675
sS'vel_x'
p4
F-0.70201621360491662
sS'pos_x'
p5
F21.181500632476975
sS'pos_y'
p6
F22.672068942245637
sS'isAlive'
p7
I01
sS'cumulativeEnergy'
p8
F44.754542455938122
sS'geno'
p9
(lp10
F0.36406344722298423
aF-2.0789189827463126
aF-0.055124144012102083
aF4.3329456145533092
aF0.0041002995405376996
asS'accel_x'
p11
F1.9930773718425958
sS'accel_y'
p12
F-0.16626060823000238
sS'visionAngle'
p13
I130
sS'maxAccel'
p14
I2
sS'maxVel'
p15
F0.72999999999999998
sS'age'
p16
I100
sS'lastScale'
p17
F15.352082128537274
sS'maxSteering'
p18
I20
sS'energy'
p19
F0.98520821285372739
sb.(i__main__
Data_mobile
p1
(dp2
S'vel_y'
p3
F-0.71528802622821674
sS'vel_x'
p4
F0.038638870451015397
sS'pos_x'
p5
F-66.431871324091375
sS'pos_y'
p6
F30.541836980188844
sS'isAlive'
p7
I01
sS'cumulativeEnergy'
p8
F0.5
sS'geno'
p9
(lp10
F0.12579066220520374
aF-2.0789189827463126
aF0.80506314162437076
aF4.4453655317731648
aF0.0041002995405376996
asS'accel_x'
p11
F0
sS'accel_y'
p12
F0
sS'visionAngle'
p13
I130
sS'maxAccel'
p14
I2
sS'maxVel'
p15
F0.72999999999999998
sS'age'
p16
I0
sS'lastScale'
p17
F5.5
sS'maxSteering'
p18
I20
sS'energy'
p19
F0.5
sb.(i__main__
Data_mobile
p1
(dp2
S'vel_y'
p3
F-0.38840194026428415
sS'vel_x'
p4
F-0.53560836335887607
sS'pos_x'
p5
F-66.703680703490249
sS'pos_y'
p6
F29.139724647698277
sS'isAlive'
p7
I01
sS'cumulativeEnergy'
p8
F0.5
sS'geno'
p9
(lp10
F0.12579066220520374
aF-2.0789189827463126
aF0.80506314162437076
aF4.3132613378057814
aF0.47471957572860835
asS'accel_x'
p11
F0
sS'accel_y'
p12
F0
sS'visionAngle'
p13
I130
sS'maxAccel'
p14
I2
sS'maxVel'
p15
F0.72999999999999998
sS'age'
p16
I0
sS'lastScale'
p17
F5.5
sS'maxSteering'
p18
I20
sS'energy'
p19
F0.5
sb.(i__main__
Data_mobile
p1
(dp2
S'vel_y'
p3
F0.59850936368966889
sS'vel_x'
p4
F-0.41266991790551771
sS'pos_x'
p5
F-107.01947585859217
sS'pos_y'
p6
F65.693469019903588
sS'isAlive'
p7
I01
sS'cumulativeEnergy'
p8
F22.448192524522661
sS'geno'
p9
(lp10
F0.12579066220520374
aF-1.8547072191204408
aF0.41145417279752583
aF4.3329456145533092
aF0.0041002995405376996
asS'accel_x'
p11
F0.0040996529940964515
sS'accel_y'
p12
F7.2812431147913859e-005
sS'visionAngle'
p13
I130
sS'maxAccel'
p14
I2
sS'maxVel'
p15
F0.72999999999999998
sS'age'
p16
I100
sS'lastScale'
p17
F6.9949286342745713
sS'maxSteering'
p18
I20
sS'energy'
p19
F0.14949286342745713
sb.(i__main__
Data_mobile
p1
(dp2
S'vel_y'
p3
I0
sS'vel_x'
p4
I0
sS'pos_x'
p5
I-9579
sS'pos_y'
p6
I9779
sS'isAlive'
p7
I00
sS'cumulativeEnergy'
p8
F0.5
sS'geno'
p9
(lp10
F0.15348107962859947
aF-1.8705499249212769
aF0.80506314162437076
aF4.3329456145533092
aF-0.48981704579486773
asS'accel_x'
p11
F0
sS'accel_y'
p12
F0
sS'visionAngle'
p13
I130
sS'maxAccel'
p14
I2
sS'maxVel'
p15
F0.72999999999999998
sS'age'
p16
I0
sS'lastScale'
p17
F5.5
sS'maxSteering'
p18
I20
sS'energy'
p19
F0.5
sb.(i__main__
Data_mobile
p1
(dp2
S'vel_y'
p3
I0
sS'vel_x'
p4
I0
sS'pos_x'
p5
I-9579
sS'pos_y'
p6
I9779
sS'isAlive'
p7
I00
sS'cumulativeEnergy'
p8
F0.5
sS'geno'
p9
(lp10
F-0.29105435894949661
aF-2.3325236375086211
aF0.41145417279752583
aF4.3329456145533092
aF-0.48981704579486773
asS'accel_x'
p11
F0
sS'accel_y'
p12
F0
sS'visionAngle'
p13
I130
sS'maxAccel'
p14
I2
sS'maxVel'
p15
F0.72999999999999998
sS'age'
p16
I0
sS'lastScale'
p17
F5.5
sS'maxSteering'
p18
I20
sS'energy'
p19
F0.5
sb.(i__main__
Data_mobile
p1
(dp2
S'vel_y'
p3
I0
sS'vel_x'
p4
I0
sS'pos_x'
p5
I-9579
sS'pos_y'
p6
I9779
sS'isAlive'
p7
I00
sS'cumulativeEnergy'
p8
F0.5
sS'geno'
p9
(lp10
F0.12579066220520374
aF-1.4932881197606709
aF1.3715794394379446
aF4.3329456145533092
aF-0.48981704579486773
asS'accel_x'
p11
F0
sS'accel_y'
p12
F0
sS'visionAngle'
p13
I130
sS'maxAccel'
p14
I2
sS'maxVel'
p15
F0.72999999999999998
sS'age'
p16
I0
sS'lastScale'
p17
F5.5
sS'maxSteering'
p18
I20
sS'energy'
p19
F0.5
sb.(i__main__
Data_mobile
p1
(dp2
S'vel_y'
p3
I0
sS'vel_x'
p4
I0
sS'pos_x'
p5
I-9579
sS'pos_y'
p6
I9779
sS'isAlive'
p7
I00
sS'cumulativeEnergy'
p8
F0.5
sS'geno'
p9
(lp10
F0.12579066220520374
aF-1.8705499249212769
aF0.25422012846934672
aF4.3329456145533092
aF-0.48981704579486773
asS'accel_x'
p11
F0
sS'accel_y'
p12
F0
sS'visionAngle'
p13
I130
sS'maxAccel'
p14
I2
sS'maxVel'
p15
F0.72999999999999998
sS'age'
p16
I0
sS'lastScale'
p17
F5.5
sS'maxSteering'
p18
I20
sS'energy'
p19
F0.5
sb.(i__main__
Data_mobile
p1
(dp2
S'vel_y'
p3
I0
sS'vel_x'
p4
I0
sS'pos_x'
p5
I-9579
sS'pos_y'
p6
I9779
sS'isAlive'
p7
I00
sS'cumulativeEnergy'
p8
F0.5
sS'geno'
p9
(lp10
F0.56112106322276822
aF-1.4932881197606709
aF1.5053163368088911
aF4.356583521058039
aF-0.48981704579486773
asS'accel_x'
p11
F0
sS'accel_y'
p12
F0
sS'visionAngle'
p13
I130
sS'maxAccel'
p14
I2
sS'maxVel'
p15
F0.72999999999999998
sS'age'
p16
I0
sS'lastScale'
p17
F5.5
sS'maxSteering'
p18
I20
sS'energy'
p19
F0.5
sb.(i__main__
Data_mobile
p1
(dp2
S'vel_y'
p3
I0
sS'vel_x'
p4
I0
sS'pos_x'
p5
I-9579
sS'pos_y'
p6
I9779
sS'isAlive'
p7
I00
sS'cumulativeEnergy'
p8
F0.5
sS'geno'
p9
(lp10
F0.58633287410419521
aF-1.5159287866635629
aF0.41145417279752583
aF4.3329456145533092
aF-0.14912596043085269
asS'accel_x'
p11
F0
sS'accel_y'
p12
F0
sS'visionAngle'
p13
I130
sS'maxAccel'
p14
I2
sS'maxVel'
p15
F0.72999999999999998
sS'age'
p16
I0
sS'lastScale'
p17
F5.5
sS'maxSteering'
p18
I20
sS'energy'
p19
F0.5
sb.(i__main__
Data_mobile
p1
(dp2
S'vel_y'
p3
I0
sS'vel_x'
p4
I0
sS'pos_x'
p5
I-9579
sS'pos_y'
p6
I9779
sS'isAlive'
p7
I00
sS'cumulativeEnergy'
p8
F0.5
sS'geno'
p9
(lp10
F0.1369064481201594
aF-1.7567594960462922
aF0.5146052366352869
aF4.3329456145533092
aF-0.30268043874479122
asS'accel_x'
p11
F0
sS'accel_y'
p12
F0
sS'visionAngle'
p13
I130
sS'maxAccel'
p14
I2
sS'maxVel'
p15
F0.72999999999999998
sS'age'
p16
I0
sS'lastScale'
p17
F5.5
sS'maxSteering'
p18
I20
sS'energy'
p19
F0.5
sb.(i__main__
Data_mobile
p1
(dp2
S'vel_y'
p3
I0
sS'vel_x'
p4
I0
sS'pos_x'
p5
I-9579
sS'pos_y'
p6
I9779
sS'isAlive'
p7
I00
sS'cumulativeEnergy'
p8
F0.5
sS'geno'
p9
(lp10
F0.58633287410419521
aF-1.8705499249212769
aF0.41145417279752583
aF4.3329456145533092
aF-0.14771998003100417
asS'accel_x'
p11
F0
sS'accel_y'
p12
F0
sS'visionAngle'
p13
I130
sS'maxAccel'
p14
I2
sS'maxVel'
p15
F0.72999999999999998
sS'age'
p16
I0
sS'lastScale'
p17
F5.5
sS'maxSteering'
p18
I20
sS'energy'
p19
F0.5
sb.(i__main__
Data_mobile
p1
(dp2
S'vel_y'
p3
I0
sS'vel_x'
p4
I0
sS'pos_x'
p5
I-9579
sS'pos_y'
p6
I9779
sS'isAlive'
p7
I00
sS'cumulativeEnergy'
p8
F0.5
sS'geno'
p9
(lp10
F0.58633287410419521
aF-2.0536956995147904
aF0.41145417279752583
aF4.4303962973116926
aF-0.49280361217331636
asS'accel_x'
p11
F0
sS'accel_y'
p12
F0
sS'visionAngle'
p13
I130
sS'maxAccel'
p14
I2
sS'maxVel'
p15
F0.72999999999999998
sS'age'
p16
I0
sS'lastScale'
p17
F5.5
sS'maxSteering'
p18
I20
sS'energy'
p19
F0.5
sb.(i__main__
Data_mobile
p1
(dp2
S'vel_y'
p3
I0
sS'vel_x'
p4
I0
sS'pos_x'
p5
I-9579
sS'pos_y'
p6
I9779
sS'isAlive'
p7
I00
sS'cumulativeEnergy'
p8
F0.5
sS'geno'
p9
(lp10
F0.15348107962859947
aF-1.8705499249212769
aF0.80506314162437076
aF4.3329456145533092
aF-0.30268043874479122
asS'accel_x'
p11
F0
sS'accel_y'
p12
F0
sS'visionAngle'
p13
I130
sS'maxAccel'
p14
I2
sS'maxVel'
p15
F0.72999999999999998
sS'age'
p16
I0
sS'lastScale'
p17
F5.5
sS'maxSteering'
p18
I20
sS'energy'
p19
F0.5
sb.(i__main__
Data_mobile
p1
(dp2
S'vel_y'
p3
I0
sS'vel_x'
p4
I0
sS'pos_x'
p5
I-9579
sS'pos_y'
p6
I9779
sS'isAlive'
p7
I00
sS'cumulativeEnergy'
p8
F0.5
sS'geno'
p9
(lp10
F0.15955007537354382
aF-1.7567594960462922
aF0.5146052366352869
aF4.3329456145533092
aF-0.48981704579486773
asS'accel_x'
p11
F0
sS'accel_y'
p12
F0
sS'visionAngle'
p13
I130
sS'maxAccel'
p14
I2
sS'maxVel'
p15
F0.72999999999999998
sS'age'
p16
I0
sS'lastScale'
p17
F5.5
sS'maxSteering'
p18
I20
sS'energy'
p19
F0.5
sb.(i__main__
Data_mobile
p1
(dp2
S'vel_y'
p3
I0
sS'vel_x'
p4
I0
sS'pos_x'
p5
I-9579
sS'pos_y'
p6
I9779
sS'isAlive'
p7
I00
sS'cumulativeEnergy'
p8
F0.5
sS'geno'
p9
(lp10
F0.12579066220520374
aF-2.0871845164413125
aF0.41145417279752583
aF4.3329456145533092
aF-0.48981704579486773
asS'accel_x'
p11
F0
sS'accel_y'
p12
F0
sS'visionAngle'
p13
I130
sS'maxAccel'
p14
I2
sS'maxVel'
p15
F0.72999999999999998
sS'age'
p16
I0
sS'lastScale'
p17
F5.5
sS'maxSteering'
p18
I20
sS'energy'
p19
F0.5
sb.(i__main__
Data_mobile
p1
(dp2
S'vel_y'
p3
I0
sS'vel_x'
p4
I0
sS'pos_x'
p5
I-9579
sS'pos_y'
p6
I9779
sS'isAlive'
p7
I00
sS'cumulativeEnergy'
p8
F0.5
sS'geno'
p9
(lp10
F0.12579066220520374
aF-1.8705499249212769
aF0.78810366500849127
aF4.3329456145533092
aF-0.48981704579486773
asS'accel_x'
p11
F0
sS'accel_y'
p12
F0
sS'visionAngle'
p13
I130
sS'maxAccel'
p14
I2
sS'maxVel'
p15
F0.72999999999999998
sS'age'
p16
I0
sS'lastScale'
p17
F5.5
sS'maxSteering'
p18
I20
sS'energy'
p19
F0.5
sb.(i__main__
Data_mobile
p1
(dp2
S'vel_y'
p3
I0
sS'vel_x'
p4
I0
sS'pos_x'
p5
I-9579
sS'pos_y'
p6
I9779
sS'isAlive'
p7
I00
sS'cumulativeEnergy'
p8
F0.5
sS'geno'
p9
(lp10
F0.22200371570650224
aF-1.5358307249328245
aF0.5146052366352869
aF4.3329456145533092
aF-0.48981704579486773
asS'accel_x'
p11
F0
sS'accel_y'
p12
F0
sS'visionAngle'
p13
I130
sS'maxAccel'
p14
I2
sS'maxVel'
p15
F0.72999999999999998
sS'age'
p16
I0
sS'lastScale'
p17
F5.5
sS'maxSteering'
p18
I20
sS'energy'
p19
F0.5
sb.(i__main__
Data_mobile
p1
(dp2
S'vel_y'
p3
I0
sS'vel_x'
p4
I0
sS'pos_x'
p5
I-9579
sS'pos_y'
p6
I9779
sS'isAlive'
p7
I00
sS'cumulativeEnergy'
p8
F0.5
sS'geno'
p9
(lp10
F0.15348107962859947
aF-1.8705499249212769
aF0.59706607724992988
aF3.891857933478569
aF-0.48981704579486773
asS'accel_x'
p11
F0
sS'accel_y'
p12
F0
sS'visionAngle'
p13
I130
sS'maxAccel'
p14
I2
sS'maxVel'
p15
F0.72999999999999998
sS'age'
p16
I0
sS'lastScale'
p17
F5.5
sS'maxSteering'
p18
I20
sS'energy'
p19
F0.5
sb.(i__main__
Data_mobile
p1
(dp2
S'vel_y'
p3
I0
sS'vel_x'
p4
I0
sS'pos_x'
p5
I-9579
sS'pos_y'
p6
I9779
sS'isAlive'
p7
I00
sS'cumulativeEnergy'
p8
F0.5
sS'geno'
p9
(lp10
F0.12579066220520374
aF-1.4932881197606709
aF1.4117393874950883
aF4.2804774570248156
aF-0.48981704579486773
asS'accel_x'
p11
F0
sS'accel_y'
p12
F0
sS'visionAngle'
p13
I130
sS'maxAccel'
p14
I2
sS'maxVel'
p15
F0.72999999999999998
sS'age'
p16
I0
sS'lastScale'
p17
F5.5
sS'maxSteering'
p18
I20
sS'energy'
p19
F0.5
sb.(i__main__
Data_mobile
p1
(dp2
S'vel_y'
p3
I0
sS'vel_x'
p4
I0
sS'pos_x'
p5
I-9579
sS'pos_y'
p6
I9779
sS'isAlive'
p7
I00
sS'cumulativeEnergy'
p8
F0.5
sS'geno'
p9
(lp10
F0.15348107962859947
aF-1.8705499249212769
aF0.80506314162437076
aF4.1701868627759824
aF-0.22807278662590569
asS'accel_x'
p11
F0
sS'accel_y'
p12
F0
sS'visionAngle'
p13
I130
sS'maxAccel'
p14
I2
sS'maxVel'
p15
F0.72999999999999998
sS'age'
p16
I0
sS'lastScale'
p17
F5.5
sS'maxSteering'
p18
I20
sS'energy'
p19
F0.5
sb.(i__main__
Data_mobile
p1
(dp2
S'vel_y'
p3
I0
sS'vel_x'
p4
I0
sS'pos_x'
p5
I-9579
sS'pos_y'
p6
I9779
sS'isAlive'
p7
I00
sS'cumulativeEnergy'
p8
F0.5
sS'geno'
p9
(lp10
F0.15348107962859947
aF-1.8705499249212769
aF0.80506314162437076
aF4.3329456145533092
aF-0.48981704579486773
asS'accel_x'
p11
F0
sS'accel_y'
p12
F0
sS'visionAngle'
p13
I130
sS'maxAccel'
p14
I2
sS'maxVel'
p15
F0.72999999999999998
sS'age'
p16
I0
sS'lastScale'
p17
F5.5
sS'maxSteering'
p18
I20
sS'energy'
p19
F0.5
sb.(i__main__
Data_mobile
p1
(dp2
S'vel_y'
p3
I0
sS'vel_x'
p4
I0
sS'pos_x'
p5
I-9579
sS'pos_y'
p6
I9779
sS'isAlive'
p7
I00
sS'cumulativeEnergy'
p8
F0.5
sS'geno'
p9
(lp10
F0.58633287410419521
aF-2.0536956995147904
aF0.80506314162437076
aF3.891857933478569
aF-0.26386604145546189
asS'accel_x'
p11
F0
sS'accel_y'
p12
F0
sS'visionAngle'
p13
I130
sS'maxAccel'
p14
I2
sS'maxVel'
p15
F0.72999999999999998
sS'age'
p16
I0
sS'lastScale'
p17
F5.5
sS'maxSteering'
p18
I20
sS'energy'
p19
F0.5
sb.(i__main__
Data_mobile
p1
(dp2
S'vel_y'
p3
I0
sS'vel_x'
p4
I0
sS'pos_x'
p5
I-9579
sS'pos_y'
p6
I9779
sS'isAlive'
p7
I00
sS'cumulativeEnergy'
p8
F0.5
sS'geno'
p9
(lp10
F0.12579066220520374
aF-1.8705499249212769
aF0.25422012846934672
aF4.3329456145533092
aF-0.48981704579486773
asS'accel_x'
p11
F0
sS'accel_y'
p12
F0
sS'visionAngle'
p13
I130
sS'maxAccel'
p14
I2
sS'maxVel'
p15
F0.72999999999999998
sS'age'
p16
I0
sS'lastScale'
p17
F5.5
sS'maxSteering'
p18
I20
sS'energy'
p19
F0.5
sb.(i__main__
Data_mobile
p1
(dp2
S'vel_y'
p3
I0
sS'vel_x'
p4
I0
sS'pos_x'
p5
I-9579
sS'pos_y'
p6
I9779
sS'isAlive'
p7
I00
sS'cumulativeEnergy'
p8
F0.5
sS'geno'
p9
(lp10
F0.15348107962859947
aF-1.8705499249212769
aF0.59706607724992988
aF3.891857933478569
aF-0.48981704579486773
asS'accel_x'
p11
F0
sS'accel_y'
p12
F0
sS'visionAngle'
p13
I130
sS'maxAccel'
p14
I2
sS'maxVel'
p15
F0.72999999999999998
sS'age'
p16
I0
sS'lastScale'
p17
F5.5
sS'maxSteering'
p18
I20
sS'energy'
p19
F0.5
sb.(i__main__
Data_mobile
p1
(dp2
S'vel_y'
p3
I0
sS'vel_x'
p4
I0
sS'pos_x'
p5
I-9579
sS'pos_y'
p6
I9779
sS'isAlive'
p7
I00
sS'cumulativeEnergy'
p8
F0.5
sS'geno'
p9
(lp10
F0.12579066220520374
aF-2.0871845164413125
aF0.41145417279752583
aF4.3329456145533092
aF-0.48981704579486773
asS'accel_x'
p11
F0
sS'accel_y'
p12
F0
sS'visionAngle'
p13
I130
sS'maxAccel'
p14
I2
sS'maxVel'
p15
F0.72999999999999998
sS'age'
p16
I0
sS'lastScale'
p17
F5.5
sS'maxSteering'
p18
I20
sS'energy'
p19
F0.5
sb.(i__main__
Data_mobile
p1
(dp2
S'vel_y'
p3
I0
sS'vel_x'
p4
I0
sS'pos_x'
p5
I-9579
sS'pos_y'
p6
I9779
sS'isAlive'
p7
I00
sS'cumulativeEnergy'
p8
F0.5
sS'geno'
p9
(lp10
F0.48335324354422504
aF-1.2913990454717688
aF0.41145417279752583
aF4.4303962973116926
aF-0.49280361217331636
asS'accel_x'
p11
F0
sS'accel_y'
p12
F0
sS'visionAngle'
p13
I130
sS'maxAccel'
p14
I2
sS'maxVel'
p15
F0.72999999999999998
sS'age'
p16
I0
sS'lastScale'
p17
F5.5
sS'maxSteering'
p18
I20
sS'energy'
p19
F0.5
sb.(i__main__
Data_mobile
p1
(dp2
S'vel_y'
p3
I0
sS'vel_x'
p4
I0
sS'pos_x'
p5
I-9579
sS'pos_y'
p6
I9779
sS'isAlive'
p7
I00
sS'cumulativeEnergy'
p8
F0.5
sS'geno'
p9
(lp10
F0.15348107962859947
aF-1.8705499249212769
aF0.91267667294816135
aF4.7438472138843526
aF-0.48981704579486773
asS'accel_x'
p11
F0
sS'accel_y'
p12
F0
sS'visionAngle'
p13
I130
sS'maxAccel'
p14
I2
sS'maxVel'
p15
F0.72999999999999998
sS'age'
p16
I0
sS'lastScale'
p17
F5.5
sS'maxSteering'
p18
I20
sS'energy'
p19
F0.5
sb.(i__main__
Data_mobile
p1
(dp2
S'vel_y'
p3
I0
sS'vel_x'
p4
I0
sS'pos_x'
p5
I-9579
sS'pos_y'
p6
I9779
sS'isAlive'
p7
I00
sS'cumulativeEnergy'
p8
F0.5
sS'geno'
p9
(lp10
F0.1418026866629597
aF-1.8705499249212769
aF0.25422012846934672
aF4.701527933243093
aF-0.48981704579486773
asS'accel_x'
p11
F0
sS'accel_y'
p12
F0
sS'visionAngle'
p13
I130
sS'maxAccel'
p14
I2
sS'maxVel'
p15
F0.72999999999999998
sS'age'
p16
I0
sS'lastScale'
p17
F5.5
sS'maxSteering'
p18
I20
sS'energy'
p19
F0.5
sb.(i__main__
Data_mobile
p1
(dp2
S'vel_y'
p3
I0
sS'vel_x'
p4
I0
sS'pos_x'
p5
I-9579
sS'pos_y'
p6
I9779
sS'isAlive'
p7
I00
sS'cumulativeEnergy'
p8
F0.5
sS'geno'
p9
(lp10
F0.12579066220520374
aF-1.6381383981961692
aF0.41145417279752583
aF4.4303962973116926
aF0.0041002995405376996
asS'accel_x'
p11
F0
sS'accel_y'
p12
F0
sS'visionAngle'
p13
I130
sS'maxAccel'
p14
I2
sS'maxVel'
p15
F0.72999999999999998
sS'age'
p16
I0
sS'lastScale'
p17
F5.5
sS'maxSteering'
p18
I20
sS'energy'
p19
F0.5
sb.(i__main__
Data_mobile
p1
(dp2
S'vel_y'
p3
I0
sS'vel_x'
p4
I0
sS'pos_x'
p5
I-9579
sS'pos_y'
p6
I9779
sS'isAlive'
p7
I00
sS'cumulativeEnergy'
p8
F0.5
sS'geno'
p9
(lp10
F0.15348107962859947
aF-1.8705499249212769
aF0.80506314162437076
aF4.3329456145533092
aF-0.67276433587700102
asS'accel_x'
p11
F0
sS'accel_y'
p12
F0
sS'visionAngle'
p13
I130
sS'maxAccel'
p14
I2
sS'maxVel'
p15
F0.72999999999999998
sS'age'
p16
I0
sS'lastScale'
p17
F5.5
sS'maxSteering'
p18
I20
sS'energy'
p19
F0.5
sb.(i__main__
Data_mobile
p1
(dp2
S'vel_y'
p3
I0
sS'vel_x'
p4
I0
sS'pos_x'
p5
I-9579
sS'pos_y'
p6
I9779
sS'isAlive'
p7
I00
sS'cumulativeEnergy'
p8
F0.5
sS'geno'
p9
(lp10
F0.12579066220520374
aF-1.4325743020103596
aF0.25422012846934672
aF4.701527933243093
aF-0.62395161096613794
asS'accel_x'
p11
F0
sS'accel_y'
p12
F0
sS'visionAngle'
p13
I130
sS'maxAccel'
p14
I2
sS'maxVel'
p15
F0.72999999999999998
sS'age'
p16
I0
sS'lastScale'
p17
F5.5
sS'maxSteering'
p18
I20
sS'energy'
p19
F0.5
sb.(i__main__
Data_mobile
p1
(dp2
S'vel_y'
p3
I0
sS'vel_x'
p4
I0
sS'pos_x'
p5
I-9579
sS'pos_y'
p6
I9779
sS'isAlive'
p7
I00
sS'cumulativeEnergy'
p8
F0.5
sS'geno'
p9
(lp10
F0.12579066220520374
aF-2.2624031829160383
aF0.80506314162437076
aF4.3329456145533092
aF-0.46125842781739057
asS'accel_x'
p11
F0
sS'accel_y'
p12
F0
sS'visionAngle'
p13
I130
sS'maxAccel'
p14
I2
sS'maxVel'
p15
F0.72999999999999998
sS'age'
p16
I0
sS'lastScale'
p17
F5.5
sS'maxSteering'
p18
I20
sS'energy'
p19
F0.5
sb.(i__main__
Data_mobile
p1
(dp2
S'vel_y'
p3
I0
sS'vel_x'
p4
I0
sS'pos_x'
p5
I-9579
sS'pos_y'
p6
I9779
sS'isAlive'
p7
I00
sS'cumulativeEnergy'
p8
F0.5
sS'geno'
p9
(lp10
F0.58633287410419521
aF-2.0536956995147904
aF0.41145417279752583
aF4.3329456145533092
aF0.0041002995405376996
asS'accel_x'
p11
F0
sS'accel_y'
p12
F0
sS'visionAngle'
p13
I130
sS'maxAccel'
p14
I2
sS'maxVel'
p15
F0.72999999999999998
sS'age'
p16
I0
sS'lastScale'
p17
F5.5
sS'maxSteering'
p18
I20
sS'energy'
p19
F0.5
sb.(i__main__
Data_mobile
p1
(dp2
S'vel_y'
p3
I0
sS'vel_x'
p4
I0
sS'pos_x'
p5
I-9579
sS'pos_y'
p6
I9779
sS'isAlive'
p7
I00
sS'cumulativeEnergy'
p8
F0.5
sS'geno'
p9
(lp10
F0.12579066220520374
aF-2.2624031829160383
aF0.80506314162437076
aF4.3329456145533092
aF-0.48981704579486773
asS'accel_x'
p11
F0
sS'accel_y'
p12
F0
sS'visionAngle'
p13
I130
sS'maxAccel'
p14
I2
sS'maxVel'
p15
F0.72999999999999998
sS'age'
p16
I0
sS'lastScale'
p17
F5.5
sS'maxSteering'
p18
I20
sS'energy'
p19
F0.5
sb.(i__main__
Data_mobile
p1
(dp2
S'vel_y'
p3
I0
sS'vel_x'
p4
I0
sS'pos_x'
p5
I-9579
sS'pos_y'
p6
I9779
sS'isAlive'
p7
I00
sS'cumulativeEnergy'
p8
F0.5
sS'geno'
p9
(lp10
F0.12579066220520374
aF-2.0789189827463126
aF0.80506314162437076
aF4.3329456145533092
aF-0.48981704579486773
asS'accel_x'
p11
F0
sS'accel_y'
p12
F0
sS'visionAngle'
p13
I130
sS'maxAccel'
p14
I2
sS'maxVel'
p15
F0.72999999999999998
sS'age'
p16
I0
sS'lastScale'
p17
F5.5
sS'maxSteering'
p18
I20
sS'energy'
p19
F0.5
sb.(i__main__
Data_mobile
p1
(dp2
S'vel_y'
p3
I0
sS'vel_x'
p4
I0
sS'pos_x'
p5
I-9579
sS'pos_y'
p6
I9779
sS'isAlive'
p7
I00
sS'cumulativeEnergy'
p8
F0.5
sS'geno'
p9
(lp10
F-0.26501906738328762
aF-1.7567594960462922
aF0.80506314162437076
aF4.3329456145533092
aF-0.48981704579486773
asS'accel_x'
p11
F0
sS'accel_y'
p12
F0
sS'visionAngle'
p13
I130
sS'maxAccel'
p14
I2
sS'maxVel'
p15
F0.72999999999999998
sS'age'
p16
I0
sS'lastScale'
p17
F5.5
sS'maxSteering'
p18
I20
sS'energy'
p19
F0.5
sb.(i__main__
Data_mobile
p1
(dp2
S'vel_y'
p3
I0
sS'vel_x'
p4
I0
sS'pos_x'
p5
I-9579
sS'pos_y'
p6
I9779
sS'isAlive'
p7
I00
sS'cumulativeEnergy'
p8
F0.5
sS'geno'
p9
(lp10
F0.12579066220520374
aF-1.6381383981961692
aF0.41145417279752583
aF4.4303962973116926
aF-0.49280361217331636
asS'accel_x'
p11
F0
sS'accel_y'
p12
F0
sS'visionAngle'
p13
I130
sS'maxAccel'
p14
I2
sS'maxVel'
p15
F0.72999999999999998
sS'age'
p16
I0
sS'lastScale'
p17
F5.5
sS'maxSteering'
p18
I20
sS'energy'
p19
F0.5
sb.(i__main__
Data_mobile
p1
(dp2
S'vel_y'
p3
I0
sS'vel_x'
p4
I0
sS'pos_x'
p5
I-9579
sS'pos_y'
p6
I9779
sS'isAlive'
p7
I00
sS'cumulativeEnergy'
p8
F0.5
sS'geno'
p9
(lp10
F0.12579066220520374
aF-1.7567594960462922
aF0.41145417279752583
aF4.3329456145533092
aF0.0041002995405376996
asS'accel_x'
p11
F0
sS'accel_y'
p12
F0
sS'visionAngle'
p13
I130
sS'maxAccel'
p14
I2
sS'maxVel'
p15
F0.72999999999999998
sS'age'
p16
I0
sS'lastScale'
p17
F5.5
sS'maxSteering'
p18
I20
sS'energy'
p19
F0.5
sb.(i__main__
Data_mobile
p1
(dp2
S'vel_y'
p3
I0
sS'vel_x'
p4
I0
sS'pos_x'
p5
I-9579
sS'pos_y'
p6
I9779
sS'isAlive'
p7
I00
sS'cumulativeEnergy'
p8
F0.5
sS'geno'
p9
(lp10
F0.56112106322276822
aF-1.6881254229302751
aF0.5146052366352869
aF4.3329456145533092
aF-0.62395161096613794
asS'accel_x'
p11
F0
sS'accel_y'
p12
F0
sS'visionAngle'
p13
I130
sS'maxAccel'
p14
I2
sS'maxVel'
p15
F0.72999999999999998
sS'age'
p16
I0
sS'lastScale'
p17
F5.5
sS'maxSteering'
p18
I20
sS'energy'
p19
F0.5
sb.(i__main__
Data_mobile
p1
(dp2
S'vel_y'
p3
I0
sS'vel_x'
p4
I0
sS'pos_x'
p5
I-9579
sS'pos_y'
p6
I9779
sS'isAlive'
p7
I00
sS'cumulativeEnergy'
p8
F0.5
sS'geno'
p9
(lp10
F0.56112106322276822
aF-1.4932881197606709
aF1.5053163368088911
aF4.3329456145533092
aF0.0041002995405376996
asS'accel_x'
p11
F0
sS'accel_y'
p12
F0
sS'visionAngle'
p13
I130
sS'maxAccel'
p14
I2
sS'maxVel'
p15
F0.72999999999999998
sS'age'
p16
I0
sS'lastScale'
p17
F5.5
sS'maxSteering'
p18
I20
sS'energy'
p19
F0.5
sb.(i__main__
Data_mobile
p1
(dp2
S'vel_y'
p3
I0
sS'vel_x'
p4
I0
sS'pos_x'
p5
I-9579
sS'pos_y'
p6
I9779
sS'isAlive'
p7
I00
sS'cumulativeEnergy'
p8
F0.5
sS'geno'
p9
(lp10
F0.58633287410419521
aF-1.8705499249212769
aF-0.064157362892962033
aF4.3329456145533092
aF0.0041002995405376996
asS'accel_x'
p11
F0
sS'accel_y'
p12
F0
sS'visionAngle'
p13
I130
sS'maxAccel'
p14
I2
sS'maxVel'
p15
F0.72999999999999998
sS'age'
p16
I0
sS'lastScale'
p17
F5.5
sS'maxSteering'
p18
I20
sS'energy'
p19
F0.5
sb.(i__main__
Data_mobile
p1
(dp2
S'vel_y'
p3
I0
sS'vel_x'
p4
I0
sS'pos_x'
p5
I-9579
sS'pos_y'
p6
I9779
sS'isAlive'
p7
I00
sS'cumulativeEnergy'
p8
F0.5
sS'geno'
p9
(lp10
F0.56026293054775089
aF-1.5358307249328245
aF0.5146052366352869
aF4.3329456145533092
aF-0.48981704579486773
asS'accel_x'
p11
F0
sS'accel_y'
p12
F0
sS'visionAngle'
p13
I130
sS'maxAccel'
p14
I2
sS'maxVel'
p15
F0.72999999999999998
sS'age'
p16
I0
sS'lastScale'
p17
F5.5
sS'maxSteering'
p18
I20
sS'energy'
p19
F0.5
sb.(i__main__
Data_mobile
p1
(dp2
S'vel_y'
p3
I0
sS'vel_x'
p4
I0
sS'pos_x'
p5
I-9579
sS'pos_y'
p6
I9779
sS'isAlive'
p7
I00
sS'cumulativeEnergy'
p8
F0.5
sS'geno'
p9
(lp10
F0.90144435020158364
aF-1.8705499249212769
aF0.41145417279752583
aF4.4303962973116926
aF-0.49280361217331636
asS'accel_x'
p11
F0
sS'accel_y'
p12
F0
sS'visionAngle'
p13
I130
sS'maxAccel'
p14
I2
sS'maxVel'
p15
F0.72999999999999998
sS'age'
p16
I0
sS'lastScale'
p17
F5.5
sS'maxSteering'
p18
I20
sS'energy'
p19
F0.5
sb.(i__main__
Data_mobile
p1
(dp2
S'vel_y'
p3
I0
sS'vel_x'
p4
I0
sS'pos_x'
p5
I-9579
sS'pos_y'
p6
I9779
sS'isAlive'
p7
I00
sS'cumulativeEnergy'
p8
F0.5
sS'geno'
p9
(lp10
F0.90144435020158364
aF-1.8705499249212769
aF0.41145417279752583
aF4.4303962973116926
aF-0.49280361217331636
asS'accel_x'
p11
F0
sS'accel_y'
p12
F0
sS'visionAngle'
p13
I130
sS'maxAccel'
p14
I2
sS'maxVel'
p15
F0.72999999999999998
sS'age'
p16
I0
sS'lastScale'
p17
F5.5
sS'maxSteering'
p18
I20
sS'energy'
p19
F0.5
sb.(i__main__
Data_mobile
p1
(dp2
S'vel_y'
p3
I0
sS'vel_x'
p4
I0
sS'pos_x'
p5
I-9579
sS'pos_y'
p6
I9779
sS'isAlive'
p7
I00
sS'cumulativeEnergy'
p8
F0.5
sS'geno'
p9
(lp10
F0.39782580822468749
aF-1.6881254229302751
aF0.5146052366352869
aF4.3329456145533092
aF-0.62395161096613794
asS'accel_x'
p11
F0
sS'accel_y'
p12
F0
sS'visionAngle'
p13
I130
sS'maxAccel'
p14
I2
sS'maxVel'
p15
F0.72999999999999998
sS'age'
p16
I0
sS'lastScale'
p17
F5.5
sS'maxSteering'
p18
I20
sS'energy'
p19
F0.5
sb.(i__main__
Data_mobile
p1
(dp2
S'vel_y'
p3
I0
sS'vel_x'
p4
I0
sS'pos_x'
p5
I-9579
sS'pos_y'
p6
I9779
sS'isAlive'
p7
I00
sS'cumulativeEnergy'
p8
F0.5
sS'geno'
p9
(lp10
F0.58633287410419521
aF-1.6333577039085463
aF0.41145417279752583
aF4.3329456145533092
aF0.0041002995405376996
asS'accel_x'
p11
F0
sS'accel_y'
p12
F0
sS'visionAngle'
p13
I130
sS'maxAccel'
p14
I2
sS'maxVel'
p15
F0.72999999999999998
sS'age'
p16
I0
sS'lastScale'
p17
F5.5
sS'maxSteering'
p18
I20
sS'energy'
p19
F0.5
sb.(i__main__
Data_mobile
p1
(dp2
S'vel_y'
p3
I0
sS'vel_x'
p4
I0
sS'pos_x'
p5
I-9579
sS'pos_y'
p6
I9779
sS'isAlive'
p7
I00
sS'cumulativeEnergy'
p8
F0.5
sS'geno'
p9
(lp10
F0.58633287410419521
aF-1.8705499249212769
aF0.80506314162437076
aF3.8690688048894328
aF-0.48981704579486773
asS'accel_x'
p11
F0
sS'accel_y'
p12
F0
sS'visionAngle'
p13
I130
sS'maxAccel'
p14
I2
sS'maxVel'
p15
F0.72999999999999998
sS'age'
p16
I0
sS'lastScale'
p17
F5.5
sS'maxSteering'
p18
I20
sS'energy'
p19
F0.5
sb.(i__main__
Data_mobile
p1
(dp2
S'vel_y'
p3
I0
sS'vel_x'
p4
I0
sS'pos_x'
p5
I-9579
sS'pos_y'
p6
I9779
sS'isAlive'
p7
I00
sS'cumulativeEnergy'
p8
F0.5
sS'geno'
p9
(lp10
F-0.26501906738328762
aF-1.4122383841403532
aF0.80506314162437076
aF4.3329456145533092
aF-0.48981704579486773
asS'accel_x'
p11
F0
sS'accel_y'
p12
F0
sS'visionAngle'
p13
I130
sS'maxAccel'
p14
I2
sS'maxVel'
p15
F0.72999999999999998
sS'age'
p16
I0
sS'lastScale'
p17
F5.5
sS'maxSteering'
p18
I20
sS'energy'
p19
F0.5
sb.(i__main__
Data_mobile
p1
(dp2
S'vel_y'
p3
I0
sS'vel_x'
p4
I0
sS'pos_x'
p5
I-9579
sS'pos_y'
p6
I9779
sS'isAlive'
p7
I00
sS'cumulativeEnergy'
p8
F0.5
sS'geno'
p9
(lp10
F0.1418026866629597
aF-1.8705499249212769
aF0.80506314162437076
aF3.8690688048894328
aF-0.48981704579486773
asS'accel_x'
p11
F0
sS'accel_y'
p12
F0
sS'visionAngle'
p13
I130
sS'maxAccel'
p14
I2
sS'maxVel'
p15
F0.72999999999999998
sS'age'
p16
I0
sS'lastScale'
p17
F5.5
sS'maxSteering'
p18
I20
sS'energy'
p19
F0.5
sb.(i__main__
Data_mobile
p1
(dp2
S'vel_y'
p3
I0
sS'vel_x'
p4
I0
sS'pos_x'
p5
I-9579
sS'pos_y'
p6
I9779
sS'isAlive'
p7
I00
sS'cumulativeEnergy'
p8
F0.5
sS'geno'
p9
(lp10
F0.58633287410419521
aF-1.7567594960462922
aF0.41145417279752583
aF4.3329456145533092
aF0.0041002995405376996
asS'accel_x'
p11
F0
sS'accel_y'
p12
F0
sS'visionAngle'
p13
I130
sS'maxAccel'
p14
I2
sS'maxVel'
p15
F0.72999999999999998
sS'age'
p16
I0
sS'lastScale'
p17
F5.5
sS'maxSteering'
p18
I20
sS'energy'
p19
F0.5
sb.(i__main__
Data_mobile
p1
(dp2
S'vel_y'
p3
I0
sS'vel_x'
p4
I0
sS'pos_x'
p5
I-9579
sS'pos_y'
p6
I9779
sS'isAlive'
p7
I00
sS'cumulativeEnergy'
p8
F0.5
sS'geno'
p9
(lp10
F0.58633287410419521
aF-2.0536956995147904
aF0.41145417279752583
aF4.3329456145533092
aF-0.46125842781739057
asS'accel_x'
p11
F0
sS'accel_y'
p12
F0
sS'visionAngle'
p13
I130
sS'maxAccel'
p14
I2
sS'maxVel'
p15
F0.72999999999999998
sS'age'
p16
I0
sS'lastScale'
p17
F5.5
sS'maxSteering'
p18
I20
sS'energy'
p19
F0.5
sb.(i__main__
Data_mobile
p1
(dp2
S'vel_y'
p3
I0
sS'vel_x'
p4
I0
sS'pos_x'
p5
I-9579
sS'pos_y'
p6
I9779
sS'isAlive'
p7
I00
sS'cumulativeEnergy'
p8
F0.5
sS'geno'
p9
(lp10
F-0.26501906738328762
aF-1.7567594960462922
aF0.80506314162437076
aF4.3329456145533092
aF0.0041002995405376996
asS'accel_x'
p11
F0
sS'accel_y'
p12
F0
sS'visionAngle'
p13
I130
sS'maxAccel'
p14
I2
sS'maxVel'
p15
F0.72999999999999998
sS'age'
p16
I0
sS'lastScale'
p17
F5.5
sS'maxSteering'
p18
I20
sS'energy'
p19
F0.5
sb.(i__main__
Data_mobile
p1
(dp2
S'vel_y'
p3
I0
sS'vel_x'
p4
I0
sS'pos_x'
p5
I-9579
sS'pos_y'
p6
I9779
sS'isAlive'
p7
I00
sS'cumulativeEnergy'
p8
F0.5
sS'geno'
p9
(lp10
F0.022043413106800247
aF-1.4932881197606709
aF1.4117393874950883
aF4.2804774570248156
aF-0.46125842781739057
asS'accel_x'
p11
F0
sS'accel_y'
p12
F0
sS'visionAngle'
p13
I130
sS'maxAccel'
p14
I2
sS'maxVel'
p15
F0.72999999999999998
sS'age'
p16
I0
sS'lastScale'
p17
F5.5
sS'maxSteering'
p18
I20
sS'energy'
p19
F0.5
sb.(i__main__
Data_mobile
p1
(dp2
S'vel_y'
p3
I0
sS'vel_x'
p4
I0
sS'pos_x'
p5
I-9579
sS'pos_y'
p6
I9779
sS'isAlive'
p7
I00
sS'cumulativeEnergy'
p8
F0.5
sS'geno'
p9
(lp10
F0.58633287410419521
aF-1.8705499249212769
aF0.25422012846934672
aF4.701527933243093
aF-0.54632970988183216
asS'accel_x'
p11
F0
sS'accel_y'
p12
F0
sS'visionAngle'
p13
I130
sS'maxAccel'
p14
I2
sS'maxVel'
p15
F0.72999999999999998
sS'age'
p16
I0
sS'lastScale'
p17
F5.5
sS'maxSteering'
p18
I20
sS'energy'
p19
F0.5
sb.(i__main__
Data_mobile
p1
(dp2
S'vel_y'
p3
I0
sS'vel_x'
p4
I0
sS'pos_x'
p5
I-9579
sS'pos_y'
p6
I9779
sS'isAlive'
p7
I00
sS'cumulativeEnergy'
p8
F0.5
sS'geno'
p9
(lp10
F0.12579066220520374
aF-1.4325743020103596
aF0.41145417279752583
aF4.3329456145533092
aF0.0041002995405376996
asS'accel_x'
p11
F0
sS'accel_y'
p12
F0
sS'visionAngle'
p13
I130
sS'maxAccel'
p14
I2
sS'maxVel'
p15
F0.72999999999999998
sS'age'
p16
I0
sS'lastScale'
p17
F5.5
sS'maxSteering'
p18
I20
sS'energy'
p19
F0.5
sb.(i__main__
Data_mobile
p1
(dp2
S'vel_y'
p3
I0
sS'vel_x'
p4
I0
sS'pos_x'
p5
I-9579
sS'pos_y'
p6
I9779
sS'isAlive'
p7
I00
sS'cumulativeEnergy'
p8
F0.5
sS'geno'
p9
(lp10
F0.12579066220520374
aF-1.4325743020103596
aF0.25422012846934672
aF4.701527933243093
aF-0.62395161096613794
asS'accel_x'
p11
F0
sS'accel_y'
p12
F0
sS'visionAngle'
p13
I130
sS'maxAccel'
p14
I2
sS'maxVel'
p15
F0.72999999999999998
sS'age'
p16
I0
sS'lastScale'
p17
F5.5
sS'maxSteering'
p18
I20
sS'energy'
p19
F0.5
sb.(i__main__
Data_mobile
p1
(dp2
S'vel_y'
p3
I0
sS'vel_x'
p4
I0
sS'pos_x'
p5
I-9579
sS'pos_y'
p6
I9779
sS'isAlive'
p7
I00
sS'cumulativeEnergy'
p8
F0.5
sS'geno'
p9
(lp10
F0.58633287410419521
aF-1.8705499249212769
aF0.80506314162437076
aF3.8690688048894328
aF-0.12926174314689431
asS'accel_x'
p11
F0
sS'accel_y'
p12
F0
sS'visionAngle'
p13
I130
sS'maxAccel'
p14
I2
sS'maxVel'
p15
F0.72999999999999998
sS'age'
p16
I0
sS'lastScale'
p17
F5.5
sS'maxSteering'
p18
I20
sS'energy'
p19
F0.5
sb.(i__main__
Data_mobile
p1
(dp2
S'vel_y'
p3
I0
sS'vel_x'
p4
I0
sS'pos_x'
p5
I-9579
sS'pos_y'
p6
I9779
sS'isAlive'
p7
I00
sS'cumulativeEnergy'
p8
F0.5
sS'geno'
p9
(lp10
F-0.26501906738328762
aF-1.7567594960462922
aF0.80506314162437076
aF4.3329456145533092
aF-0.48981704579486773
asS'accel_x'
p11
F0
sS'accel_y'
p12
F0
sS'visionAngle'
p13
I130
sS'maxAccel'
p14
I2
sS'maxVel'
p15
F0.72999999999999998
sS'age'
p16
I0
sS'lastScale'
p17
F5.5
sS'maxSteering'
p18
I20
sS'energy'
p19
F0.5
sb.(i__main__
Data_mobile
p1
(dp2
S'vel_y'
p3
I0
sS'vel_x'
p4
I0
sS'pos_x'
p5
I-9579
sS'pos_y'
p6
I9779
sS'isAlive'
p7
I00
sS'cumulativeEnergy'
p8
F0.5
sS'geno'
p9
(lp10
F0.56026293054775089
aF-1.5358307249328245
aF0.5146052366352869
aF4.3329456145533092
aF-0.48981704579486773
asS'accel_x'
p11
F0
sS'accel_y'
p12
F0
sS'visionAngle'
p13
I130
sS'maxAccel'
p14
I2
sS'maxVel'
p15
F0.72999999999999998
sS'age'
p16
I0
sS'lastScale'
p17
F5.5
sS'maxSteering'
p18
I20
sS'energy'
p19
F0.5
sb.(i__main__
Data_mobile
p1
(dp2
S'vel_y'
p3
I0
sS'vel_x'
p4
I0
sS'pos_x'
p5
I-9579
sS'pos_y'
p6
I9779
sS'isAlive'
p7
I00
sS'cumulativeEnergy'
p8
F0.5
sS'geno'
p9
(lp10
F0.58633287410419521
aF-2.0536956995147904
aF0.41145417279752583
aF4.3329456145533092
aF0.0041002995405376996
asS'accel_x'
p11
F0
sS'accel_y'
p12
F0
sS'visionAngle'
p13
I130
sS'maxAccel'
p14
I2
sS'maxVel'
p15
F0.72999999999999998
sS'age'
p16
I0
sS'lastScale'
p17
F5.5
sS'maxSteering'
p18
I20
sS'energy'
p19
F0.5
sb.(i__main__
Data_mobile
p1
(dp2
S'vel_y'
p3
I0
sS'vel_x'
p4
I0
sS'pos_x'
p5
I-9579
sS'pos_y'
p6
I9779
sS'isAlive'
p7
I00
sS'cumulativeEnergy'
p8
F0.5
sS'geno'
p9
(lp10
F0.58633287410419521
aF-1.7500034121348045
aF0.41145417279752583
aF4.3329456145533092
aF0.0041002995405376996
asS'accel_x'
p11
F0
sS'accel_y'
p12
F0
sS'visionAngle'
p13
I130
sS'maxAccel'
p14
I2
sS'maxVel'
p15
F0.72999999999999998
sS'age'
p16
I0
sS'lastScale'
p17
F5.5
sS'maxSteering'
p18
I20
sS'energy'
p19
F0.5
sb.(i__main__
Data_mobile
p1
(dp2
S'vel_y'
p3
I0
sS'vel_x'
p4
I0
sS'pos_x'
p5
I-9579
sS'pos_y'
p6
I9779
sS'isAlive'
p7
I00
sS'cumulativeEnergy'
p8
F0.5
sS'geno'
p9
(lp10
F0.58633287410419521
aF-1.7500034121348045
aF0.41145417279752583
aF4.3329456145533092
aF0.0041002995405376996
asS'accel_x'
p11
F0
sS'accel_y'
p12
F0
sS'visionAngle'
p13
I130
sS'maxAccel'
p14
I2
sS'maxVel'
p15
F0.72999999999999998
sS'age'
p16
I0
sS'lastScale'
p17
F5.5
sS'maxSteering'
p18
I20
sS'energy'
p19
F0.5
sb.(i__main__
Data_mobile
p1
(dp2
S'vel_y'
p3
I0
sS'vel_x'
p4
I0
sS'pos_x'
p5
I-9579
sS'pos_y'
p6
I9779
sS'isAlive'
p7
I00
sS'cumulativeEnergy'
p8
F0.5
sS'geno'
p9
(lp10
F0.1418026866629597
aF-1.8705499249212769
aF0.25422012846934672
aF4.701527933243093
aF-0.62395161096613794
asS'accel_x'
p11
F0
sS'accel_y'
p12
F0
sS'visionAngle'
p13
I130
sS'maxAccel'
p14
I2
sS'maxVel'
p15
F0.72999999999999998
sS'age'
p16
I0
sS'lastScale'
p17
F5.5
sS'maxSteering'
p18
I20
sS'energy'
p19
F0.5
sb.(i__main__
Data_mobile
p1
(dp2
S'vel_y'
p3
I0
sS'vel_x'
p4
I0
sS'pos_x'
p5
I-9579
sS'pos_y'
p6
I9779
sS'isAlive'
p7
I00
sS'cumulativeEnergy'
p8
F0.5
sS'geno'
p9
(lp10
F0.12579066220520374
aF-2.2624031829160383
aF0.80506314162437076
aF4.5375969801582148
aF-0.48981704579486773
asS'accel_x'
p11
F0
sS'accel_y'
p12
F0
sS'visionAngle'
p13
I130
sS'maxAccel'
p14
I2
sS'maxVel'
p15
F0.72999999999999998
sS'age'
p16
I0
sS'lastScale'
p17
F5.5
sS'maxSteering'
p18
I20
sS'energy'
p19
F0.5
sb.(i__main__
Data_mobile
p1
(dp2
S'vel_y'
p3
I0
sS'vel_x'
p4
I0
sS'pos_x'
p5
I-9579
sS'pos_y'
p6
I9779
sS'isAlive'
p7
I00
sS'cumulativeEnergy'
p8
F0.5
sS'geno'
p9
(lp10
F0.58633287410419521
aF-2.4566422385349149
aF0.41145417279752583
aF4.3329456145533092
aF0.0041002995405376996
asS'accel_x'
p11
F0
sS'accel_y'
p12
F0
sS'visionAngle'
p13
I130
sS'maxAccel'
p14
I2
sS'maxVel'
p15
F0.72999999999999998
sS'age'
p16
I0
sS'lastScale'
p17
F5.5
sS'maxSteering'
p18
I20
sS'energy'
p19
F0.5
sb.(i__main__
Data_mobile
p1
(dp2
S'vel_y'
p3
I0
sS'vel_x'
p4
I0
sS'pos_x'
p5
I-9579
sS'pos_y'
p6
I9779
sS'isAlive'
p7
I00
sS'cumulativeEnergy'
p8
F0.5
sS'geno'
p9
(lp10
F0.58633287410419521
aF-2.0536956995147904
aF0.41145417279752583
aF4.3329456145533092
aF-0.48981704579486773
asS'accel_x'
p11
F0
sS'accel_y'
p12
F0
sS'visionAngle'
p13
I130
sS'maxAccel'
p14
I2
sS'maxVel'
p15
F0.72999999999999998
sS'age'
p16
I0
sS'lastScale'
p17
F5.5
sS'maxSteering'
p18
I20
sS'energy'
p19
F0.5
sb.(i__main__
Data_mobile
p1
(dp2
S'vel_y'
p3
I0
sS'vel_x'
p4
I0
sS'pos_x'
p5
I-9579
sS'pos_y'
p6
I9779
sS'isAlive'
p7
I00
sS'cumulativeEnergy'
p8
F0.5
sS'geno'
p9
(lp10
F0.1418026866629597
aF-1.8705499249212769
aF0.25422012846934672
aF4.701527933243093
aF-0.62395161096613794
asS'accel_x'
p11
F0
sS'accel_y'
p12
F0
sS'visionAngle'
p13
I130
sS'maxAccel'
p14
I2
sS'maxVel'
p15
F0.72999999999999998
sS'age'
p16
I0
sS'lastScale'
p17
F5.5
sS'maxSteering'
p18
I20
sS'energy'
p19
F0.5
sb.(i__main__
Data_mobile
p1
(dp2
S'vel_y'
p3
I0
sS'vel_x'
p4
I0
sS'pos_x'
p5
I-9579
sS'pos_y'
p6
I9779
sS'isAlive'
p7
I00
sS'cumulativeEnergy'
p8
F0.5
sS'geno'
p9
(lp10
F0.58633287410419521
aF-2.0789189827463126
aF0.80506314162437076
aF4.3329456145533092
aF0.0041002995405376996
asS'accel_x'
p11
F0
sS'accel_y'
p12
F0
sS'visionAngle'
p13
I130
sS'maxAccel'
p14
I2
sS'maxVel'
p15
F0.72999999999999998
sS'age'
p16
I0
sS'lastScale'
p17
F5.5
sS'maxSteering'
p18
I20
sS'energy'
p19
F0.5
sb.(i__main__
Data_mobile
p1
(dp2
S'vel_y'
p3
I0
sS'vel_x'
p4
I0
sS'pos_x'
p5
I-9579
sS'pos_y'
p6
I9779
sS'isAlive'
p7
I00
sS'cumulativeEnergy'
p8
F0.5
sS'geno'
p9
(lp10
F0.58633287410419521
aF-1.7500034121348045
aF0.41145417279752583
aF4.356583521058039
aF-0.48981704579486773
asS'accel_x'
p11
F0
sS'accel_y'
p12
F0
sS'visionAngle'
p13
I130
sS'maxAccel'
p14
I2
sS'maxVel'
p15
F0.72999999999999998
sS'age'
p16
I0
sS'lastScale'
p17
F5.5
sS'maxSteering'
p18
I20
sS'energy'
p19
F0.5
sb.(i__main__
Data_mobile
p1
(dp2
S'vel_y'
p3
I0
sS'vel_x'
p4
I0
sS'pos_x'
p5
I-9579
sS'pos_y'
p6
I9779
sS'isAlive'
p7
I00
sS'cumulativeEnergy'
p8
F0.5
sS'geno'
p9
(lp10
F0.12579066220520374
aF-2.0789189827463126
aF0.80506314162437076
aF4.3329456145533092
aF0.0041002995405376996
asS'accel_x'
p11
F0
sS'accel_y'
p12
F0
sS'visionAngle'
p13
I130
sS'maxAccel'
p14
I2
sS'maxVel'
p15
F0.72999999999999998
sS'age'
p16
I0
sS'lastScale'
p17
F5.5
sS'maxSteering'
p18
I20
sS'energy'
p19
F0.5
sb.(i__main__
Data_mobile
p1
(dp2
S'vel_y'
p3
I0
sS'vel_x'
p4
I0
sS'pos_x'
p5
I-9579
sS'pos_y'
p6
I9779
sS'isAlive'
p7
I00
sS'cumulativeEnergy'
p8
F0.5
sS'geno'
p9
(lp10
F0.12579066220520374
aF-1.6381383981961692
aF0.41145417279752583
aF4.701527933243093
aF-0.54632970988183216
asS'accel_x'
p11
F0
sS'accel_y'
p12
F0
sS'visionAngle'
p13
I130
sS'maxAccel'
p14
I2
sS'maxVel'
p15
F0.72999999999999998
sS'age'
p16
I0
sS'lastScale'
p17
F5.5
sS'maxSteering'
p18
I20
sS'energy'
p19
F0.5
sb.(i__main__
Data_mobile
p1
(dp2
S'vel_y'
p3
I0
sS'vel_x'
p4
I0
sS'pos_x'
p5
I-9579
sS'pos_y'
p6
I9779
sS'isAlive'
p7
I00
sS'cumulativeEnergy'
p8
F0.5
sS'geno'
p9
(lp10
F0.58633287410419521
aF-1.8705499249212769
aF0.25422012846934672
aF4.701527933243093
aF-0.62395161096613794
asS'accel_x'
p11
F0
sS'accel_y'
p12
F0
sS'visionAngle'
p13
I130
sS'maxAccel'
p14
I2
sS'maxVel'
p15
F0.72999999999999998
sS'age'
p16
I0
sS'lastScale'
p17
F5.5
sS'maxSteering'
p18
I20
sS'energy'
p19
F0.5
sb.(i__main__
Data_mobile
p1
(dp2
S'vel_y'
p3
I0
sS'vel_x'
p4
I0
sS'pos_x'
p5
I-9579
sS'pos_y'
p6
I9779
sS'isAlive'
p7
I00
sS'cumulativeEnergy'
p8
F0.5
sS'geno'
p9
(lp10
F0.90144435020158364
aF-1.8705499249212769
aF0.41145417279752583
aF4.4303962973116926
aF-0.49280361217331636
asS'accel_x'
p11
F0
sS'accel_y'
p12
F0
sS'visionAngle'
p13
I130
sS'maxAccel'
p14
I2
sS'maxVel'
p15
F0.72999999999999998
sS'age'
p16
I0
sS'lastScale'
p17
F5.5
sS'maxSteering'
p18
I20
sS'energy'
p19
F0.5
sb.(i__main__
Data_mobile
p1
(dp2
S'vel_y'
p3
I0
sS'vel_x'
p4
I0
sS'pos_x'
p5
I-9579
sS'pos_y'
p6
I9779
sS'isAlive'
p7
I00
sS'cumulativeEnergy'
p8
F0.5
sS'geno'
p9
(lp10
F0.65475644080553053
aF-2.0536956995147904
aF0.41145417279752583
aF4.3329456145533092
aF0.0041002995405376996
asS'accel_x'
p11
F0
sS'accel_y'
p12
F0
sS'visionAngle'
p13
I130
sS'maxAccel'
p14
I2
sS'maxVel'
p15
F0.72999999999999998
sS'age'
p16
I0
sS'lastScale'
p17
F5.5
sS'maxSteering'
p18
I20
sS'energy'
p19
F0.5
sb.(i__main__
Data_mobile
p1
(dp2
S'vel_y'
p3
I0
sS'vel_x'
p4
I0
sS'pos_x'
p5
I-9579
sS'pos_y'
p6
I9779
sS'isAlive'
p7
I00
sS'cumulativeEnergy'
p8
F0.5
sS'geno'
p9
(lp10
F0.90144435020158364
aF-1.8705499249212769
aF0.41145417279752583
aF4.5463727510835366
aF-0.33872286230290438
asS'accel_x'
p11
F0
sS'accel_y'
p12
F0
sS'visionAngle'
p13
I130
sS'maxAccel'
p14
I2
sS'maxVel'
p15
F0.72999999999999998
sS'age'
p16
I0
sS'lastScale'
p17
F5.5
sS'maxSteering'
p18
I20
sS'energy'
p19
F0.5
sb.(i__main__
Data_mobile
p1
(dp2
S'vel_y'
p3
I0
sS'vel_x'
p4
I0
sS'pos_x'
p5
I-9579
sS'pos_y'
p6
I9779
sS'isAlive'
p7
I00
sS'cumulativeEnergy'
p8
F0.5
sS'geno'
p9
(lp10
F0.1418026866629597
aF-1.8705499249212769
aF0.25422012846934672
aF4.701527933243093
aF-0.62395161096613794
asS'accel_x'
p11
F0
sS'accel_y'
p12
F0
sS'visionAngle'
p13
I130
sS'maxAccel'
p14
I2
sS'maxVel'
p15
F0.72999999999999998
sS'age'
p16
I0
sS'lastScale'
p17
F5.5
sS'maxSteering'
p18
I20
sS'energy'
p19
F0.5
sb.(i__main__
Data_mobile
p1
(dp2
S'vel_y'
p3
I0
sS'vel_x'
p4
I0
sS'pos_x'
p5
I-9579
sS'pos_y'
p6
I9779
sS'isAlive'
p7
I00
sS'cumulativeEnergy'
p8
F0.5
sS'geno'
p9
(lp10
F0.58633287410419521
aF-1.8705499249212769
aF0.25422012846934672
aF4.701527933243093
aF-0.54632970988183216
asS'accel_x'
p11
F0
sS'accel_y'
p12
F0
sS'visionAngle'
p13
I130
sS'maxAccel'
p14
I2
sS'maxVel'
p15
F0.72999999999999998
sS'age'
p16
I0
sS'lastScale'
p17
F5.5
sS'maxSteering'
p18
I20
sS'energy'
p19
F0.5
sb.(i__main__
Data_mobile
p1
(dp2
S'vel_y'
p3
I0
sS'vel_x'
p4
I0
sS'pos_x'
p5
I-9579
sS'pos_y'
p6
I9779
sS'isAlive'
p7
I00
sS'cumulativeEnergy'
p8
F0.5
sS'geno'
p9
(lp10
F0.1418026866629597
aF-1.8705499249212769
aF0.80506314162437076
aF3.8690688048894328
aF-0.48981704579486773
asS'accel_x'
p11
F0
sS'accel_y'
p12
F0
sS'visionAngle'
p13
I130
sS'maxAccel'
p14
I2
sS'maxVel'
p15
F0.72999999999999998
sS'age'
p16
I0
sS'lastScale'
p17
F5.5
sS'maxSteering'
p18
I20
sS'energy'
p19
F0.5
sb.(i__main__
Data_mobile
p1
(dp2
S'vel_y'
p3
I0
sS'vel_x'
p4
I0
sS'pos_x'
p5
I-9579
sS'pos_y'
p6
I9779
sS'isAlive'
p7
I00
sS'cumulativeEnergy'
p8
F0.5
sS'geno'
p9
(lp10
F0.58633287410419521
aF-1.8705499249212769
aF0.41145417279752583
aF4.3329456145533092
aF0.0041002995405376996
asS'accel_x'
p11
F0
sS'accel_y'
p12
F0
sS'visionAngle'
p13
I130
sS'maxAccel'
p14
I2
sS'maxVel'
p15
F0.72999999999999998
sS'age'
p16
I0
sS'lastScale'
p17
F5.5
sS'maxSteering'
p18
I20
sS'energy'
p19
F0.5
sb.(i__main__
Data_mobile
p1
(dp2
S'vel_y'
p3
I0
sS'vel_x'
p4
I0
sS'pos_x'
p5
I-9579
sS'pos_y'
p6
I9779
sS'isAlive'
p7
I00
sS'cumulativeEnergy'
p8
F0.5
sS'geno'
p9
(lp10
F0.58633287410419521
aF-1.8705499249212769
aF0.41145417279752583
aF4.3329456145533092
aF0.0041002995405376996
asS'accel_x'
p11
F0
sS'accel_y'
p12
F0
sS'visionAngle'
p13
I130
sS'maxAccel'
p14
I2
sS'maxVel'
p15
F0.72999999999999998
sS'age'
p16
I0
sS'lastScale'
p17
F5.5
sS'maxSteering'
p18
I20
sS'energy'
p19
F0.5
sb.(i__main__
Data_mobile
p1
(dp2
S'vel_y'
p3
I0
sS'vel_x'
p4
I0
sS'pos_x'
p5
I-9579
sS'pos_y'
p6
I9779
sS'isAlive'
p7
I00
sS'cumulativeEnergy'
p8
F0.5
sS'geno'
p9
(lp10
F0.58633287410419521
aF-1.7500034121348045
aF0.41145417279752583
aF4.3329456145533092
aF-0.14627011268369083
asS'accel_x'
p11
F0
sS'accel_y'
p12
F0
sS'visionAngle'
p13
I130
sS'maxAccel'
p14
I2
sS'maxVel'
p15
F0.72999999999999998
sS'age'
p16
I0
sS'lastScale'
p17
F5.5
sS'maxSteering'
p18
I20
sS'energy'
p19
F0.5
sb.(i__main__
Data_mobile
p1
(dp2
S'vel_y'
p3
I0
sS'vel_x'
p4
I0
sS'pos_x'
p5
I-9579
sS'pos_y'
p6
I9779
sS'isAlive'
p7
I00
sS'cumulativeEnergy'
p8
F0.5
sS'geno'
p9
(lp10
F0.56112106322276822
aF-1.8705499249212769
aF0.25422012846934672
aF4.409175122638521
aF-0.22413222680931777
asS'accel_x'
p11
F0
sS'accel_y'
p12
F0
sS'visionAngle'
p13
I130
sS'maxAccel'
p14
I2
sS'maxVel'
p15
F0.72999999999999998
sS'age'
p16
I0
sS'lastScale'
p17
F5.5
sS'maxSteering'
p18
I20
sS'energy'
p19
F0.5
sb.(i__main__
Data_mobile
p1
(dp2
S'vel_y'
p3
I0
sS'vel_x'
p4
I0
sS'pos_x'
p5
I-9579
sS'pos_y'
p6
I9779
sS'isAlive'
p7
I00
sS'cumulativeEnergy'
p8
F0.5
sS'geno'
p9
(lp10
F0.71783673115310687
aF-1.7500034121348045
aF0.25422012846934672
aF4.701527933243093
aF-0.62395161096613794
asS'accel_x'
p11
F0
sS'accel_y'
p12
F0
sS'visionAngle'
p13
I130
sS'maxAccel'
p14
I2
sS'maxVel'
p15
F0.72999999999999998
sS'age'
p16
I0
sS'lastScale'
p17
F5.5
sS'maxSteering'
p18
I20
sS'energy'
p19
F0.5
sb.(i__main__
Data_mobile
p1
(dp2
S'vel_y'
p3
I0
sS'vel_x'
p4
I0
sS'pos_x'
p5
I-9579
sS'pos_y'
p6
I9779
sS'isAlive'
p7
I00
sS'cumulativeEnergy'
p8
F0.5
sS'geno'
p9
(lp10
F0.56112106322276822
aF-1.8705499249212769
aF0.25422012846934672
aF4.701527933243093
aF-0.62395161096613794
asS'accel_x'
p11
F0
sS'accel_y'
p12
F0
sS'visionAngle'
p13
I130
sS'maxAccel'
p14
I2
sS'maxVel'
p15
F0.72999999999999998
sS'age'
p16
I0
sS'lastScale'
p17
F5.5
sS'maxSteering'
p18
I20
sS'energy'
p19
F0.5
sb.(i__main__
Data_mobile
p1
(dp2
S'vel_y'
p3
I0
sS'vel_x'
p4
I0
sS'pos_x'
p5
I-9579
sS'pos_y'
p6
I9779
sS'isAlive'
p7
I00
sS'cumulativeEnergy'
p8
F0.5
sS'geno'
p9
(lp10
F0.9791695766089703
aF-2.0536956995147904
aF0.41145417279752583
aF4.3329456145533092
aF0.0041002995405376996
asS'accel_x'
p11
F0
sS'accel_y'
p12
F0
sS'visionAngle'
p13
I130
sS'maxAccel'
p14
I2
sS'maxVel'
p15
F0.72999999999999998
sS'age'
p16
I0
sS'lastScale'
p17
F5.5
sS'maxSteering'
p18
I20
sS'energy'
p19
F0.5
sb.(i__main__
Data_mobile
p1
(dp2
S'vel_y'
p3
I0
sS'vel_x'
p4
I0
sS'pos_x'
p5
I-9579
sS'pos_y'
p6
I9779
sS'isAlive'
p7
I00
sS'cumulativeEnergy'
p8
F0.5
sS'geno'
p9
(lp10
F0.1418026866629597
aF-1.4932881197606709
aF1.5053163368088911
aF4.2852905062965476
aF-0.48981704579486773
asS'accel_x'
p11
F0
sS'accel_y'
p12
F0
sS'visionAngle'
p13
I130
sS'maxAccel'
p14
I2
sS'maxVel'
p15
F0.72999999999999998
sS'age'
p16
I0
sS'lastScale'
p17
F5.5
sS'maxSteering'
p18
I20
sS'energy'
p19
F0.5
sb.(i__main__
Data_mobile
p1
(dp2
S'vel_y'
p3
I0
sS'vel_x'
p4
I0
sS'pos_x'
p5
I-9579
sS'pos_y'
p6
I9779
sS'isAlive'
p7
I00
sS'cumulativeEnergy'
p8
F0.5
sS'geno'
p9
(lp10
F0.58633287410419521
aF-1.8705499249212769
aF0.43375349070186842
aF4.4303962973116926
aF-0.49280361217331636
asS'accel_x'
p11
F0
sS'accel_y'
p12
F0
sS'visionAngle'
p13
I130
sS'maxAccel'
p14
I2
sS'maxVel'
p15
F0.72999999999999998
sS'age'
p16
I0
sS'lastScale'
p17
F5.5
sS'maxSteering'
p18
I20
sS'energy'
p19
F0.5
sb.(i__main__
Data_mobile
p1
(dp2
S'vel_y'
p3
I0
sS'vel_x'
p4
I0
sS'pos_x'
p5
I-9579
sS'pos_y'
p6
I9779
sS'isAlive'
p7
I00
sS'cumulativeEnergy'
p8
F0.5
sS'geno'
p9
(lp10
F0.1418026866629597
aF-1.9157011396376533
aF0.5146052366352869
aF4.3329456145533092
aF-0.48981704579486773
asS'accel_x'
p11
F0
sS'accel_y'
p12
F0
sS'visionAngle'
p13
I130
sS'maxAccel'
p14
I2
sS'maxVel'
p15
F0.72999999999999998
sS'age'
p16
I0
sS'lastScale'
p17
F5.5
sS'maxSteering'
p18
I20
sS'energy'
p19
F0.5
sb.(i__main__
Data_mobile
p1
(dp2
S'vel_y'
p3
I0
sS'vel_x'
p4
I0
sS'pos_x'
p5
I-9579
sS'pos_y'
p6
I9779
sS'isAlive'
p7
I00
sS'cumulativeEnergy'
p8
F0.5
sS'geno'
p9
(lp10
F0.12579066220520374
aF-1.6381383981961692
aF0.41145417279752583
aF4.701527933243093
aF-0.55320722633938213
asS'accel_x'
p11
F0
sS'accel_y'
p12
F0
sS'visionAngle'
p13
I130
sS'maxAccel'
p14
I2
sS'maxVel'
p15
F0.72999999999999998
sS'age'
p16
I0
sS'lastScale'
p17
F5.5
sS'maxSteering'
p18
I20
sS'energy'
p19
F0.5
sb.(i__main__
Data_mobile
p1
(dp2
S'vel_y'
p3
I0
sS'vel_x'
p4
I0
sS'pos_x'
p5
I-9579
sS'pos_y'
p6
I9779
sS'isAlive'
p7
I00
sS'cumulativeEnergy'
p8
F0.5
sS'geno'
p9
(lp10
F0.58633287410419521
aF-1.8705499249212769
aF0.25422012846934672
aF4.9238912149132981
aF-0.54632970988183216
asS'accel_x'
p11
F0
sS'accel_y'
p12
F0
sS'visionAngle'
p13
I130
sS'maxAccel'
p14
I2
sS'maxVel'
p15
F0.72999999999999998
sS'age'
p16
I0
sS'lastScale'
p17
F5.5
sS'maxSteering'
p18
I20
sS'energy'
p19
F0.5
sb.(i__main__
Data_mobile
p1
(dp2
S'vel_y'
p3
I0
sS'vel_x'
p4
I0
sS'pos_x'
p5
I-9579
sS'pos_y'
p6
I9779
sS'isAlive'
p7
I00
sS'cumulativeEnergy'
p8
F0.5
sS'geno'
p9
(lp10
F0.12579066220520374
aF-2.0789189827463126
aF0.80506314162437076
aF4.3329456145533092
aF0.0041002995405376996
asS'accel_x'
p11
F0
sS'accel_y'
p12
F0
sS'visionAngle'
p13
I130
sS'maxAccel'
p14
I2
sS'maxVel'
p15
F0.72999999999999998
sS'age'
p16
I0
sS'lastScale'
p17
F5.5
sS'maxSteering'
p18
I20
sS'energy'
p19
F0.5
sb.(i__main__
Data_mobile
p1
(dp2
S'vel_y'
p3
I0
sS'vel_x'
p4
I0
sS'pos_x'
p5
I-9579
sS'pos_y'
p6
I9779
sS'isAlive'
p7
I00
sS'cumulativeEnergy'
p8
F0.5
sS'geno'
p9
(lp10
F-0.40680146663018846
aF-1.7567594960462922
aF1.0972599303259774
aF3.5927288542194695
aF-0.48981704579486773
asS'accel_x'
p11
F0
sS'accel_y'
p12
F0
sS'visionAngle'
p13
I130
sS'maxAccel'
p14
I2
sS'maxVel'
p15
F0.72999999999999998
sS'age'
p16
I0
sS'lastScale'
p17
F5.5
sS'maxSteering'
p18
I20
sS'energy'
p19
F0.5
sb.(i__main__
Data_mobile
p1
(dp2
S'vel_y'
p3
I0
sS'vel_x'
p4
I0
sS'pos_x'
p5
I-9579
sS'pos_y'
p6
I9779
sS'isAlive'
p7
I00
sS'cumulativeEnergy'
p8
F0.5
sS'geno'
p9
(lp10
F0.12579066220520374
aF-2.2265285681948734
aF0.80506314162437076
aF4.3329456145533092
aF-0.48981704579486773
asS'accel_x'
p11
F0
sS'accel_y'
p12
F0
sS'visionAngle'
p13
I130
sS'maxAccel'
p14
I2
sS'maxVel'
p15
F0.72999999999999998
sS'age'
p16
I0
sS'lastScale'
p17
F5.5
sS'maxSteering'
p18
I20
sS'energy'
p19
F0.5
sb.(i__main__
Data_mobile
p1
(dp2
S'vel_y'
p3
I0
sS'vel_x'
p4
I0
sS'pos_x'
p5
I-9579
sS'pos_y'
p6
I9779
sS'isAlive'
p7
I00
sS'cumulativeEnergy'
p8
F0.5
sS'geno'
p9
(lp10
F0.12579066220520374
aF-2.0789189827463126
aF0.80506314162437076
aF4.3329456145533092
aF0.0041002995405376996
asS'accel_x'
p11
F0
sS'accel_y'
p12
F0
sS'visionAngle'
p13
I130
sS'maxAccel'
p14
I2
sS'maxVel'
p15
F0.72999999999999998
sS'age'
p16
I0
sS'lastScale'
p17
F5.5
sS'maxSteering'
p18
I20
sS'energy'
p19
F0.5
sb.(i__main__
Data_mobile
p1
(dp2
S'vel_y'
p3
I0
sS'vel_x'
p4
I0
sS'pos_x'
p5
I-9579
sS'pos_y'
p6
I9779
sS'isAlive'
p7
I00
sS'cumulativeEnergy'
p8
F0.5
sS'geno'
p9
(lp10
F0.12579066220520374
aF-2.0789189827463126
aF0.80506314162437076
aF4.3329456145533092
aF0.40056753552469571
asS'accel_x'
p11
F0
sS'accel_y'
p12
F0
sS'visionAngle'
p13
I130
sS'maxAccel'
p14
I2
sS'maxVel'
p15
F0.72999999999999998
sS'age'
p16
I0
sS'lastScale'
p17
F5.5
sS'maxSteering'
p18
I20
sS'energy'
p19
F0.5
sb.(i__main__
Data_mobile
p1
(dp2
S'vel_y'
p3
I0
sS'vel_x'
p4
I0
sS'pos_x'
p5
I-9579
sS'pos_y'
p6
I9779
sS'isAlive'
p7
I00
sS'cumulativeEnergy'
p8
F0.5
sS'geno'
p9
(lp10
F0.58633287410419521
aF-1.8705499249212769
aF0.508764209010234
aF4.3329456145533092
aF-0.48981704579486773
asS'accel_x'
p11
F0
sS'accel_y'
p12
F0
sS'visionAngle'
p13
I130
sS'maxAccel'
p14
I2
sS'maxVel'
p15
F0.72999999999999998
sS'age'
p16
I0
sS'lastScale'
p17
F5.5
sS'maxSteering'
p18
I20
sS'energy'
p19
F0.5
sb.(i__main__
Data_mobile
p1
(dp2
S'vel_y'
p3
I0
sS'vel_x'
p4
I0
sS'pos_x'
p5
I-9579
sS'pos_y'
p6
I9779
sS'isAlive'
p7
I00
sS'cumulativeEnergy'
p8
F0.5
sS'geno'
p9
(lp10
F0.58633287410419521
aF-1.8705499249212769
aF0.41145417279752583
aF4.3329456145533092
aF-0.8644744588798704
asS'accel_x'
p11
F0
sS'accel_y'
p12
F0
sS'visionAngle'
p13
I130
sS'maxAccel'
p14
I2
sS'maxVel'
p15
F0.72999999999999998
sS'age'
p16
I0
sS'lastScale'
p17
F5.5
sS'maxSteering'
p18
I20
sS'energy'
p19
F0.5
sb.(i__main__
Data_mobile
p1
(dp2
S'vel_y'
p3
I0
sS'vel_x'
p4
I0
sS'pos_x'
p5
I-9579
sS'pos_y'
p6
I9779
sS'isAlive'
p7
I00
sS'cumulativeEnergy'
p8
F0.5
sS'geno'
p9
(lp10
F0.12579066220520374
aF-2.0536956995147904
aF0.41145417279752583
aF4.3329456145533092
aF0.0041002995405376996
asS'accel_x'
p11
F0
sS'accel_y'
p12
F0
sS'visionAngle'
p13
I130
sS'maxAccel'
p14
I2
sS'maxVel'
p15
F0.72999999999999998
sS'age'
p16
I0
sS'lastScale'
p17
F5.5
sS'maxSteering'
p18
I20
sS'energy'
p19
F0.5
sb.(i__main__
Data_mobile
p1
(dp2
S'vel_y'
p3
I0
sS'vel_x'
p4
I0
sS'pos_x'
p5
I-9579
sS'pos_y'
p6
I9779
sS'isAlive'
p7
I00
sS'cumulativeEnergy'
p8
F0.5
sS'geno'
p9
(lp10
F0.58633287410419521
aF-1.8705499249212769
aF0.25422012846934672
aF4.4303962973116926
aF-0.49280361217331636
asS'accel_x'
p11
F0
sS'accel_y'
p12
F0
sS'visionAngle'
p13
I130
sS'maxAccel'
p14
I2
sS'maxVel'
p15
F0.72999999999999998
sS'age'
p16
I0
sS'lastScale'
p17
F5.5
sS'maxSteering'
p18
I20
sS'energy'
p19
F0.5
sb.(i__main__
Data_mobile
p1
(dp2
S'vel_y'
p3
I0
sS'vel_x'
p4
I0
sS'pos_x'
p5
I-9579
sS'pos_y'
p6
I9779
sS'isAlive'
p7
I00
sS'cumulativeEnergy'
p8
F0.5
sS'geno'
p9
(lp10
F0.58633287410419521
aF-1.4514620046104243
aF0.25422012846934672
aF4.701527933243093
aF-0.62395161096613794
asS'accel_x'
p11
F0
sS'accel_y'
p12
F0
sS'visionAngle'
p13
I130
sS'maxAccel'
p14
I2
sS'maxVel'
p15
F0.72999999999999998
sS'age'
p16
I0
sS'lastScale'
p17
F5.5
sS'maxSteering'
p18
I20
sS'energy'
p19
F0.5
sb.(i__main__
Data_mobile
p1
(dp2
S'vel_y'
p3
I0
sS'vel_x'
p4
I0
sS'pos_x'
p5
I-9579
sS'pos_y'
p6
I9779
sS'isAlive'
p7
I00
sS'cumulativeEnergy'
p8
F0.5
sS'geno'
p9
(lp10
F0.12579066220520374
aF-2.0789189827463126
aF0.80506314162437076
aF4.3329456145533092
aF0.0041002995405376996
asS'accel_x'
p11
F0
sS'accel_y'
p12
F0
sS'visionAngle'
p13
I130
sS'maxAccel'
p14
I2
sS'maxVel'
p15
F0.72999999999999998
sS'age'
p16
I0
sS'lastScale'
p17
F5.5
sS'maxSteering'
p18
I20
sS'energy'
p19
F0.5
sb.(i__main__
Data_mobile
p1
(dp2
S'vel_y'
p3
I0
sS'vel_x'
p4
I0
sS'pos_x'
p5
I-9579
sS'pos_y'
p6
I9779
sS'isAlive'
p7
I00
sS'cumulativeEnergy'
p8
F0.5
sS'geno'
p9
(lp10
F0.58633287410419521
aF-1.8705499249212769
aF0.41145417279752583
aF4.3329456145533092
aF0.0041002995405376996
asS'accel_x'
p11
F0
sS'accel_y'
p12
F0
sS'visionAngle'
p13
I130
sS'maxAccel'
p14
I2
sS'maxVel'
p15
F0.72999999999999998
sS'age'
p16
I0
sS'lastScale'
p17
F5.5
sS'maxSteering'
p18
I20
sS'energy'
p19
F0.5
sb.(i__main__
Data_mobile
p1
(dp2
S'vel_y'
p3
I0
sS'vel_x'
p4
I0
sS'pos_x'
p5
I-9579
sS'pos_y'
p6
I9779
sS'isAlive'
p7
I00
sS'cumulativeEnergy'
p8
F0.5
sS'geno'
p9
(lp10
F0.1418026866629597
aF-1.8705499249212769
aF0.25422012846934672
aF4.409175122638521
aF-0.62395161096613794
asS'accel_x'
p11
F0
sS'accel_y'
p12
F0
sS'visionAngle'
p13
I130
sS'maxAccel'
p14
I2
sS'maxVel'
p15
F0.72999999999999998
sS'age'
p16
I0
sS'lastScale'
p17
F5.5
sS'maxSteering'
p18
I20
sS'energy'
p19
F0.5
sb.(i__main__
Data_mobile
p1
(dp2
S'vel_y'
p3
I0
sS'vel_x'
p4
I0
sS'pos_x'
p5
I-9579
sS'pos_y'
p6
I9779
sS'isAlive'
p7
I00
sS'cumulativeEnergy'
p8
F0.5
sS'geno'
p9
(lp10
F0.58633287410419521
aF-1.7500034121348045
aF0.43102834195819828
aF4.3329456145533092
aF0.0041002995405376996
asS'accel_x'
p11
F0
sS'accel_y'
p12
F0
sS'visionAngle'
p13
I130
sS'maxAccel'
p14
I2
sS'maxVel'
p15
F0.72999999999999998
sS'age'
p16
I0
sS'lastScale'
p17
F5.5
sS'maxSteering'
p18
I20
sS'energy'
p19
F0.5
sb.(i__main__
Data_mobile
p1
(dp2
S'vel_y'
p3
I0
sS'vel_x'
p4
I0
sS'pos_x'
p5
I-9579
sS'pos_y'
p6
I9779
sS'isAlive'
p7
I00
sS'cumulativeEnergy'
p8
F0.5
sS'geno'
p9
(lp10
F0.12579066220520374
aF-1.6381383981961692
aF0.41145417279752583
aF4.4303962973116926
aF-0.49280361217331636
asS'accel_x'
p11
F0
sS'accel_y'
p12
F0
sS'visionAngle'
p13
I130
sS'maxAccel'
p14
I2
sS'maxVel'
p15
F0.72999999999999998
sS'age'
p16
I0
sS'lastScale'
p17
F5.5
sS'maxSteering'
p18
I20
sS'energy'
p19
F0.5
sb.(i__main__
Data_mobile
p1
(dp2
S'vel_y'
p3
I0
sS'vel_x'
p4
I0
sS'pos_x'
p5
I-9579
sS'pos_y'
p6
I9779
sS'isAlive'
p7
I00
sS'cumulativeEnergy'
p8
F0.5
sS'geno'
p9
(lp10
F0.1418026866629597
aF-1.8705499249212769
aF0.25422012846934672
aF4.701527933243093
aF-0.62395161096613794
asS'accel_x'
p11
F0
sS'accel_y'
p12
F0
sS'visionAngle'
p13
I130
sS'maxAccel'
p14
I2
sS'maxVel'
p15
F0.72999999999999998
sS'age'
p16
I0
sS'lastScale'
p17
F5.5
sS'maxSteering'
p18
I20
sS'energy'
p19
F0.5
sb.(i__main__
Data_mobile
p1
(dp2
S'vel_y'
p3
I0
sS'vel_x'
p4
I0
sS'pos_x'
p5
I-9579
sS'pos_y'
p6
I9779
sS'isAlive'
p7
I00
sS'cumulativeEnergy'
p8
F0.5
sS'geno'
p9
(lp10
F0.58633287410419521
aF-2.0536956995147904
aF0.41145417279752583
aF4.3329456145533092
aF-0.090002422970558604
asS'accel_x'
p11
F0
sS'accel_y'
p12
F0
sS'visionAngle'
p13
I130
sS'maxAccel'
p14
I2
sS'maxVel'
p15
F0.72999999999999998
sS'age'
p16
I0
sS'lastScale'
p17
F5.5
sS'maxSteering'
p18
I20
sS'energy'
p19
F0.5
sb.(i__main__
Data_mobile
p1
(dp2
S'vel_y'
p3
I0
sS'vel_x'
p4
I0
sS'pos_x'
p5
I-9579
sS'pos_y'
p6
I9779
sS'isAlive'
p7
I00
sS'cumulativeEnergy'
p8
F0.5
sS'geno'
p9
(lp10
F0.39782580822468749
aF-1.4932881197606709
aF1.0972599303259774
aF3.8690688048894328
aF-0.48981704579486773
asS'accel_x'
p11
F0
sS'accel_y'
p12
F0
sS'visionAngle'
p13
I130
sS'maxAccel'
p14
I2
sS'maxVel'
p15
F0.72999999999999998
sS'age'
p16
I0
sS'lastScale'
p17
F5.5
sS'maxSteering'
p18
I20
sS'energy'
p19
F0.5
sb.(i__main__
Data_mobile
p1
(dp2
S'vel_y'
p3
I0
sS'vel_x'
p4
I0
sS'pos_x'
p5
I-9579
sS'pos_y'
p6
I9779
sS'isAlive'
p7
I00
sS'cumulativeEnergy'
p8
F0.5
sS'geno'
p9
(lp10
F0.90144435020158364
aF-1.8705499249212769
aF0.41145417279752583
aF4.4303962973116926
aF-0.49280361217331636
asS'accel_x'
p11
F0
sS'accel_y'
p12
F0
sS'visionAngle'
p13
I130
sS'maxAccel'
p14
I2
sS'maxVel'
p15
F0.72999999999999998
sS'age'
p16
I0
sS'lastScale'
p17
F5.5
sS'maxSteering'
p18
I20
sS'energy'
p19
F0.5
sb.(i__main__
Data_mobile
p1
(dp2
S'vel_y'
p3
I0
sS'vel_x'
p4
I0
sS'pos_x'
p5
I-9579
sS'pos_y'
p6
I9779
sS'isAlive'
p7
I00
sS'cumulativeEnergy'
p8
F0.5
sS'geno'
p9
(lp10
F-0.40680146663018846
aF-1.7567594960462922
aF0.80506314162437076
aF4.3329456145533092
aF-0.48981704579486773
asS'accel_x'
p11
F0
sS'accel_y'
p12
F0
sS'visionAngle'
p13
I130
sS'maxAccel'
p14
I2
sS'maxVel'
p15
F0.72999999999999998
sS'age'
p16
I0
sS'lastScale'
p17
F5.5
sS'maxSteering'
p18
I20
sS'energy'
p19
F0.5
sb.(i__main__
Data_mobile
p1
(dp2
S'vel_y'
p3
I0
sS'vel_x'
p4
I0
sS'pos_x'
p5
I-9579
sS'pos_y'
p6
I9779
sS'isAlive'
p7
I00
sS'cumulativeEnergy'
p8
F0.5
sS'geno'
p9
(lp10
F0.1418026866629597
aF-1.8705499249212769
aF0.25422012846934672
aF4.701527933243093
aF-0.62395161096613794
asS'accel_x'
p11
F0
sS'accel_y'
p12
F0
sS'visionAngle'
p13
I130
sS'maxAccel'
p14
I2
sS'maxVel'
p15
F0.72999999999999998
sS'age'
p16
I0
sS'lastScale'
p17
F5.5
sS'maxSteering'
p18
I20
sS'energy'
p19
F0.5
sb.(i__main__
Data_mobile
p1
(dp2
S'vel_y'
p3
I0
sS'vel_x'
p4
I0
sS'pos_x'
p5
I-9579
sS'pos_y'
p6
I9779
sS'isAlive'
p7
I00
sS'cumulativeEnergy'
p8
F0.5
sS'geno'
p9
(lp10
F0.58633287410419521
aF-1.8705499249212769
aF0.25422012846934672
aF4.701527933243093
aF-0.54632970988183216
asS'accel_x'
p11
F0
sS'accel_y'
p12
F0
sS'visionAngle'
p13
I130
sS'maxAccel'
p14
I2
sS'maxVel'
p15
F0.72999999999999998
sS'age'
p16
I0
sS'lastScale'
p17
F5.5
sS'maxSteering'
p18
I20
sS'energy'
p19
F0.5
sb.(i__main__
Data_mobile
p1
(dp2
S'vel_y'
p3
I0
sS'vel_x'
p4
I0
sS'pos_x'
p5
I-9579
sS'pos_y'
p6
I9779
sS'isAlive'
p7
I00
sS'cumulativeEnergy'
p8
F0.5
sS'geno'
p9
(lp10
F0.58633287410419521
aF-1.8705499249212769
aF0.25422012846934672
aF4.701527933243093
aF-0.54632970988183216
asS'accel_x'
p11
F0
sS'accel_y'
p12
F0
sS'visionAngle'
p13
I130
sS'maxAccel'
p14
I2
sS'maxVel'
p15
F0.72999999999999998
sS'age'
p16
I0
sS'lastScale'
p17
F5.5
sS'maxSteering'
p18
I20
sS'energy'
p19
F0.5
sb.(i__main__
Data_mobile
p1
(dp2
S'vel_y'
p3
I0
sS'vel_x'
p4
I0
sS'pos_x'
p5
I-9579
sS'pos_y'
p6
I9779
sS'isAlive'
p7
I00
sS'cumulativeEnergy'
p8
F0.5
sS'geno'
p9
(lp10
F0.58633287410419521
aF-2.0536956995147904
aF0.41145417279752583
aF4.3329456145533092
aF0.0041002995405376996
asS'accel_x'
p11
F0
sS'accel_y'
p12
F0
sS'visionAngle'
p13
I130
sS'maxAccel'
p14
I2
sS'maxVel'
p15
F0.72999999999999998
sS'age'
p16
I0
sS'lastScale'
p17
F5.5
sS'maxSteering'
p18
I20
sS'energy'
p19
F0.5
sb.(i__main__
Data_mobile
p1
(dp2
S'vel_y'
p3
I0
sS'vel_x'
p4
I0
sS'pos_x'
p5
I-9579
sS'pos_y'
p6
I9779
sS'isAlive'
p7
I00
sS'cumulativeEnergy'
p8
F0.5
sS'geno'
p9
(lp10
F0.58633287410419521
aF-1.8705499249212769
aF0.80506314162437076
aF3.8690688048894328
aF-0.48981704579486773
asS'accel_x'
p11
F0
sS'accel_y'
p12
F0
sS'visionAngle'
p13
I130
sS'maxAccel'
p14
I2
sS'maxVel'
p15
F0.72999999999999998
sS'age'
p16
I0
sS'lastScale'
p17
F5.5
sS'maxSteering'
p18
I20
sS'energy'
p19
F0.5
sb.(i__main__
Data_mobile
p1
(dp2
S'vel_y'
p3
I0
sS'vel_x'
p4
I0
sS'pos_x'
p5
I-9579
sS'pos_y'
p6
I9779
sS'isAlive'
p7
I00
sS'cumulativeEnergy'
p8
F0.5
sS'geno'
p9
(lp10
F0.90144435020158364
aF-1.8705499249212769
aF0.41145417279752583
aF4.4303962973116926
aF-0.49280361217331636
asS'accel_x'
p11
F0
sS'accel_y'
p12
F0
sS'visionAngle'
p13
I130
sS'maxAccel'
p14
I2
sS'maxVel'
p15
F0.72999999999999998
sS'age'
p16
I0
sS'lastScale'
p17
F5.5
sS'maxSteering'
p18
I20
sS'energy'
p19
F0.5
sb.(i__main__
Data_mobile
p1
(dp2
S'vel_y'
p3
I0
sS'vel_x'
p4
I0
sS'pos_x'
p5
I-9579
sS'pos_y'
p6
I9779
sS'isAlive'
p7
I00
sS'cumulativeEnergy'
p8
F0.5
sS'geno'
p9
(lp10
F0.1418026866629597
aF-1.8705499249212769
aF0.41145417279752583
aF4.3329456145533092
aF0.0041002995405376996
asS'accel_x'
p11
F0
sS'accel_y'
p12
F0
sS'visionAngle'
p13
I130
sS'maxAccel'
p14
I2
sS'maxVel'
p15
F0.72999999999999998
sS'age'
p16
I0
sS'lastScale'
p17
F5.5
sS'maxSteering'
p18
I20
sS'energy'
p19
F0.5
sb.(i__main__
Data_mobile
p1
(dp2
S'vel_y'
p3
I0
sS'vel_x'
p4
I0
sS'pos_x'
p5
I-9579
sS'pos_y'
p6
I9779
sS'isAlive'
p7
I00
sS'cumulativeEnergy'
p8
F0.5
sS'geno'
p9
(lp10
F0.12579066220520374
aF-2.2265285681948734
aF1.5053163368088911
aF4.356583521058039
aF-0.48981704579486773
asS'accel_x'
p11
F0
sS'accel_y'
p12
F0
sS'visionAngle'
p13
I130
sS'maxAccel'
p14
I2
sS'maxVel'
p15
F0.72999999999999998
sS'age'
p16
I0
sS'lastScale'
p17
F5.5
sS'maxSteering'
p18
I20
sS'energy'
p19
F0.5
sb.(i__main__
Data_mobile
p1
(dp2
S'vel_y'
p3
I0
sS'vel_x'
p4
I0
sS'pos_x'
p5
I-9579
sS'pos_y'
p6
I9779
sS'isAlive'
p7
I00
sS'cumulativeEnergy'
p8
F0.5
sS'geno'
p9
(lp10
F-0.35036752578791652
aF-1.7267267359686569
aF-0.064157362892962033
aF4.7419179761755457
aF0.0041002995405376996
asS'accel_x'
p11
F0
sS'accel_y'
p12
F0
sS'visionAngle'
p13
I130
sS'maxAccel'
p14
I2
sS'maxVel'
p15
F0.72999999999999998
sS'age'
p16
I0
sS'lastScale'
p17
F5.5
sS'maxSteering'
p18
I20
sS'energy'
p19
F0.5
sb.(i__main__
Data_mobile
p1
(dp2
S'vel_y'
p3
I0
sS'vel_x'
p4
I0
sS'pos_x'
p5
I-9579
sS'pos_y'
p6
I9779
sS'isAlive'
p7
I00
sS'cumulativeEnergy'
p8
F0.5
sS'geno'
p9
(lp10
F0.12579066220520374
aF-2.2265285681948734
aF1.0972599303259774
aF3.8690688048894328
aF-0.48981704579486773
asS'accel_x'
p11
F0
sS'accel_y'
p12
F0
sS'visionAngle'
p13
I130
sS'maxAccel'
p14
I2
sS'maxVel'
p15
F0.72999999999999998
sS'age'
p16
I0
sS'lastScale'
p17
F5.5
sS'maxSteering'
p18
I20
sS'energy'
p19
F0.5
sb.(i__main__
Data_mobile
p1
(dp2
S'vel_y'
p3
I0
sS'vel_x'
p4
I0
sS'pos_x'
p5
I-9579
sS'pos_y'
p6
I9779
sS'isAlive'
p7
I00
sS'cumulativeEnergy'
p8
F0.5
sS'geno'
p9
(lp10
F0.58633287410419521
aF-2.0536956995147904
aF-0.0270011360871385
aF4.3329456145533092
aF-0.48981704579486773
asS'accel_x'
p11
F0
sS'accel_y'
p12
F0
sS'visionAngle'
p13
I130
sS'maxAccel'
p14
I2
sS'maxVel'
p15
F0.72999999999999998
sS'age'
p16
I0
sS'lastScale'
p17
F5.5
sS'maxSteering'
p18
I20
sS'energy'
p19
F0.5
sb.(i__main__
Data_mobile
p1
(dp2
S'vel_y'
p3
I0
sS'vel_x'
p4
I0
sS'pos_x'
p5
I-9579
sS'pos_y'
p6
I9779
sS'isAlive'
p7
I00
sS'cumulativeEnergy'
p8
F0.5
sS'geno'
p9
(lp10
F0.12579066220520374
aF-2.0789189827463126
aF0.80506314162437076
aF4.3329456145533092
aF0.0041002995405376996
asS'accel_x'
p11
F0
sS'accel_y'
p12
F0
sS'visionAngle'
p13
I130
sS'maxAccel'
p14
I2
sS'maxVel'
p15
F0.72999999999999998
sS'age'
p16
I0
sS'lastScale'
p17
F5.5
sS'maxSteering'
p18
I20
sS'energy'
p19
F0.5
sb.(i__main__
Data_mobile
p1
(dp2
S'vel_y'
p3
I0
sS'vel_x'
p4
I0
sS'pos_x'
p5
I-9579
sS'pos_y'
p6
I9779
sS'isAlive'
p7
I00
sS'cumulativeEnergy'
p8
F0.5
sS'geno'
p9
(lp10
F0.12579066220520374
aF-2.0789189827463126
aF0.80506314162437076
aF4.3329456145533092
aF0.0041002995405376996
asS'accel_x'
p11
F0
sS'accel_y'
p12
F0
sS'visionAngle'
p13
I130
sS'maxAccel'
p14
I2
sS'maxVel'
p15
F0.72999999999999998
sS'age'
p16
I0
sS'lastScale'
p17
F5.5
sS'maxSteering'
p18
I20
sS'energy'
p19
F0.5
sb.(i__main__
Data_mobile
p1
(dp2
S'vel_y'
p3
I0
sS'vel_x'
p4
I0
sS'pos_x'
p5
I-9579
sS'pos_y'
p6
I9779
sS'isAlive'
p7
I00
sS'cumulativeEnergy'
p8
F0.5
sS'geno'
p9
(lp10
F0.58633287410419521
aF-1.8705499249212769
aF0.80506314162437076
aF3.8690688048894328
aF-0.48981704579486773
asS'accel_x'
p11
F0
sS'accel_y'
p12
F0
sS'visionAngle'
p13
I130
sS'maxAccel'
p14
I2
sS'maxVel'
p15
F0.72999999999999998
sS'age'
p16
I0
sS'lastScale'
p17
F5.5
sS'maxSteering'
p18
I20
sS'energy'
p19
F0.5
sb.(i__main__
Data_mobile
p1
(dp2
S'vel_y'
p3
I0
sS'vel_x'
p4
I0
sS'pos_x'
p5
I-9579
sS'pos_y'
p6
I9779
sS'isAlive'
p7
I00
sS'cumulativeEnergy'
p8
F0.5
sS'geno'
p9
(lp10
F0.56112106322276822
aF-1.4932881197606709
aF1.5053163368088911
aF4.0610158526281896
aF-0.48981704579486773
asS'accel_x'
p11
F0
sS'accel_y'
p12
F0
sS'visionAngle'
p13
I130
sS'maxAccel'
p14
I2
sS'maxVel'
p15
F0.72999999999999998
sS'age'
p16
I0
sS'lastScale'
p17
F5.5
sS'maxSteering'
p18
I20
sS'energy'
p19
F0.5
sb.(i__main__
Data_mobile
p1
(dp2
S'vel_y'
p3
I0
sS'vel_x'
p4
I0
sS'pos_x'
p5
I-9579
sS'pos_y'
p6
I9779
sS'isAlive'
p7
I00
sS'cumulativeEnergy'
p8
F0.5
sS'geno'
p9
(lp10
F0.71783673115310687
aF-1.7500034121348045
aF0.41145417279752583
aF4.3329456145533092
aF-0.48981704579486773
asS'accel_x'
p11
F0
sS'accel_y'
p12
F0
sS'visionAngle'
p13
I130
sS'maxAccel'
p14
I2
sS'maxVel'
p15
F0.72999999999999998
sS'age'
p16
I0
sS'lastScale'
p17
F5.5
sS'maxSteering'
p18
I20
sS'energy'
p19
F0.5
sb.(i__main__
Data_mobile
p1
(dp2
S'vel_y'
p3
I0
sS'vel_x'
p4
I0
sS'pos_x'
p5
I-9579
sS'pos_y'
p6
I9779
sS'isAlive'
p7
I00
sS'cumulativeEnergy'
p8
F0.5
sS'geno'
p9
(lp10
F0.56112106322276822
aF-1.4932881197606709
aF1.5053163368088911
aF4.356583521058039
aF0.0041002995405376996
asS'accel_x'
p11
F0
sS'accel_y'
p12
F0
sS'visionAngle'
p13
I130
sS'maxAccel'
p14
I2
sS'maxVel'
p15
F0.72999999999999998
sS'age'
p16
I0
sS'lastScale'
p17
F5.5
sS'maxSteering'
p18
I20
sS'energy'
p19
F0.5
sb.(i__main__
Data_mobile
p1
(dp2
S'vel_y'
p3
I0
sS'vel_x'
p4
I0
sS'pos_x'
p5
I-9579
sS'pos_y'
p6
I9779
sS'isAlive'
p7
I00
sS'cumulativeEnergy'
p8
F0.5
sS'geno'
p9
(lp10
F0.58633287410419521
aF-1.8705499249212769
aF0.80506314162437076
aF4.356583521058039
aF-0.48981704579486773
asS'accel_x'
p11
F0
sS'accel_y'
p12
F0
sS'visionAngle'
p13
I130
sS'maxAccel'
p14
I2
sS'maxVel'
p15
F0.72999999999999998
sS'age'
p16
I0
sS'lastScale'
p17
F5.5
sS'maxSteering'
p18
I20
sS'energy'
p19
F0.5
sb.(i__main__
Data_mobile
p1
(dp2
S'vel_y'
p3
I0
sS'vel_x'
p4
I0
sS'pos_x'
p5
I-9579
sS'pos_y'
p6
I9779
sS'isAlive'
p7
I00
sS'cumulativeEnergy'
p8
F0.5
sS'geno'
p9
(lp10
F0.1418026866629597
aF-1.8705499249212769
aF0.25422012846934672
aF4.701527933243093
aF-0.62395161096613794
asS'accel_x'
p11
F0
sS'accel_y'
p12
F0
sS'visionAngle'
p13
I130
sS'maxAccel'
p14
I2
sS'maxVel'
p15
F0.72999999999999998
sS'age'
p16
I0
sS'lastScale'
p17
F5.5
sS'maxSteering'
p18
I20
sS'energy'
p19
F0.5
sb.(i__main__
Data_mobile
p1
(dp2
S'vel_y'
p3
I0
sS'vel_x'
p4
I0
sS'pos_x'
p5
I-9579
sS'pos_y'
p6
I9779
sS'isAlive'
p7
I00
sS'cumulativeEnergy'
p8
F0.5
sS'geno'
p9
(lp10
F0.56112106322276822
aF-1.4932881197606709
aF1.5053163368088911
aF3.8690688048894328
aF-0.48981704579486773
asS'accel_x'
p11
F0
sS'accel_y'
p12
F0
sS'visionAngle'
p13
I130
sS'maxAccel'
p14
I2
sS'maxVel'
p15
F0.72999999999999998
sS'age'
p16
I0
sS'lastScale'
p17
F5.5
sS'maxSteering'
p18
I20
sS'energy'
p19
F0.5
sb.(i__main__
Data_mobile
p1
(dp2
S'vel_y'
p3
I0
sS'vel_x'
p4
I0
sS'pos_x'
p5
I-9579
sS'pos_y'
p6
I9779
sS'isAlive'
p7
I00
sS'cumulativeEnergy'
p8
F0.5
sS'geno'
p9
(lp10
F0.39782580822468749
aF-1.4932881197606709
aF1.5053163368088911
aF4.356583521058039
aF-0.16411220140417482
asS'accel_x'
p11
F0
sS'accel_y'
p12
F0
sS'visionAngle'
p13
I130
sS'maxAccel'
p14
I2
sS'maxVel'
p15
F0.72999999999999998
sS'age'
p16
I0
sS'lastScale'
p17
F5.5
sS'maxSteering'
p18
I20
sS'energy'
p19
F0.5
sb.(i__main__
Data_mobile
p1
(dp2
S'vel_y'
p3
I0
sS'vel_x'
p4
I0
sS'pos_x'
p5
I-9579
sS'pos_y'
p6
I9779
sS'isAlive'
p7
I00
sS'cumulativeEnergy'
p8
F0.5
sS'geno'
p9
(lp10
F0.12579066220520374
aF-2.0789189827463126
aF0.80506314162437076
aF4.3329456145533092
aF0.0041002995405376996
asS'accel_x'
p11
F0
sS'accel_y'
p12
F0
sS'visionAngle'
p13
I130
sS'maxAccel'
p14
I2
sS'maxVel'
p15
F0.72999999999999998
sS'age'
p16
I0
sS'lastScale'
p17
F5.5
sS'maxSteering'
p18
I20
sS'energy'
p19
F0.5
sb.(i__main__
Data_mobile
p1
(dp2
S'vel_y'
p3
I0
sS'vel_x'
p4
I0
sS'pos_x'
p5
I-9579
sS'pos_y'
p6
I9779
sS'isAlive'
p7
I00
sS'cumulativeEnergy'
p8
F0.5
sS'geno'
p9
(lp10
F0.1418026866629597
aF-1.8705499249212769
aF0.25422012846934672
aF4.409175122638521
aF-0.62395161096613794
asS'accel_x'
p11
F0
sS'accel_y'
p12
F0
sS'visionAngle'
p13
I130
sS'maxAccel'
p14
I2
sS'maxVel'
p15
F0.72999999999999998
sS'age'
p16
I0
sS'lastScale'
p17
F5.5
sS'maxSteering'
p18
I20
sS'energy'
p19
F0.5
sb.(i__main__
Data_mobile
p1
(dp2
S'vel_y'
p3
I0
sS'vel_x'
p4
I0
sS'pos_x'
p5
I-9579
sS'pos_y'
p6
I9779
sS'isAlive'
p7
I00
sS'cumulativeEnergy'
p8
F0.5
sS'geno'
p9
(lp10
F0.39782580822468749
aF-1.4932881197606709
aF1.0972599303259774
aF4.3329456145533092
aF-0.48981704579486773
asS'accel_x'
p11
F0
sS'accel_y'
p12
F0
sS'visionAngle'
p13
I130
sS'maxAccel'
p14
I2
sS'maxVel'
p15
F0.72999999999999998
sS'age'
p16
I0
sS'lastScale'
p17
F5.5
sS'maxSteering'
p18
I20
sS'energy'
p19
F0.5
sb.(i__main__
Data_mobile
p1
(dp2
S'vel_y'
p3
I0
sS'vel_x'
p4
I0
sS'pos_x'
p5
I-9579
sS'pos_y'
p6
I9779
sS'isAlive'
p7
I00
sS'cumulativeEnergy'
p8
F0.5
sS'geno'
p9
(lp10
F0.39782580822468749
aF-1.0620739769400995
aF0.508764209010234
aF4.3329456145533092
aF-0.48981704579486773
asS'accel_x'
p11
F0
sS'accel_y'
p12
F0
sS'visionAngle'
p13
I130
sS'maxAccel'
p14
I2
sS'maxVel'
p15
F0.72999999999999998
sS'age'
p16
I0
sS'lastScale'
p17
F5.5
sS'maxSteering'
p18
I20
sS'energy'
p19
F0.5
sb.(i__main__
Data_mobile
p1
(dp2
S'vel_y'
p3
I0
sS'vel_x'
p4
I0
sS'pos_x'
p5
I-9579
sS'pos_y'
p6
I9779
sS'isAlive'
p7
I00
sS'cumulativeEnergy'
p8
F0.5
sS'geno'
p9
(lp10
F0.58633287410419521
aF-1.8705499249212769
aF1.5053163368088911
aF4.356583521058039
aF-0.48981704579486773
asS'accel_x'
p11
F0
sS'accel_y'
p12
F0
sS'visionAngle'
p13
I130
sS'maxAccel'
p14
I2
sS'maxVel'
p15
F0.72999999999999998
sS'age'
p16
I0
sS'lastScale'
p17
F5.5
sS'maxSteering'
p18
I20
sS'energy'
p19
F0.5
sb.(i__main__
Data_mobile
p1
(dp2
S'vel_y'
p3
I0
sS'vel_x'
p4
I0
sS'pos_x'
p5
I-9579
sS'pos_y'
p6
I9779
sS'isAlive'
p7
I00
sS'cumulativeEnergy'
p8
F0.5
sS'geno'
p9
(lp10
F0.1418026866629597
aF-1.8705499249212769
aF0.25422012846934672
aF4.409175122638521
aF-0.62395161096613794
asS'accel_x'
p11
F0
sS'accel_y'
p12
F0
sS'visionAngle'
p13
I130
sS'maxAccel'
p14
I2
sS'maxVel'
p15
F0.72999999999999998
sS'age'
p16
I0
sS'lastScale'
p17
F5.5
sS'maxSteering'
p18
I20
sS'energy'
p19
F0.5
sb.(i__main__
Data_mobile
p1
(dp2
S'vel_y'
p3
I0
sS'vel_x'
p4
I0
sS'pos_x'
p5
I-9579
sS'pos_y'
p6
I9779
sS'isAlive'
p7
I00
sS'cumulativeEnergy'
p8
F0.5
sS'geno'
p9
(lp10
F0.12579066220520374
aF-2.0789189827463126
aF0.80506314162437076
aF4.356583521058039
aF-0.48981704579486773
asS'accel_x'
p11
F0
sS'accel_y'
p12
F0
sS'visionAngle'
p13
I130
sS'maxAccel'
p14
I2
sS'maxVel'
p15
F0.72999999999999998
sS'age'
p16
I0
sS'lastScale'
p17
F5.5
sS'maxSteering'
p18
I20
sS'energy'
p19
F0.5
sb.(i__main__
Data_mobile
p1
(dp2
S'vel_y'
p3
I0
sS'vel_x'
p4
I0
sS'pos_x'
p5
I-9579
sS'pos_y'
p6
I9779
sS'isAlive'
p7
I00
sS'cumulativeEnergy'
p8
F0.5
sS'geno'
p9
(lp10
F-0.35036752578791652
aF-1.7267267359686569
aF-0.064157362892962033
aF4.7419179761755457
aF0.0041002995405376996
asS'accel_x'
p11
F0
sS'accel_y'
p12
F0
sS'visionAngle'
p13
I130
sS'maxAccel'
p14
I2
sS'maxVel'
p15
F0.72999999999999998
sS'age'
p16
I0
sS'lastScale'
p17
F5.5
sS'maxSteering'
p18
I20
sS'energy'
p19
F0.5
sb.(i__main__
Data_mobile
p1
(dp2
S'vel_y'
p3
I0
sS'vel_x'
p4
I0
sS'pos_x'
p5
I-9579
sS'pos_y'
p6
I9779
sS'isAlive'
p7
I00
sS'cumulativeEnergy'
p8
F0.5
sS'geno'
p9
(lp10
F0.56112106322276822
aF-1.4932881197606709
aF0.081978052208829699
aF4.701527933243093
aF-0.54632970988183216
asS'accel_x'
p11
F0
sS'accel_y'
p12
F0
sS'visionAngle'
p13
I130
sS'maxAccel'
p14
I2
sS'maxVel'
p15
F0.72999999999999998
sS'age'
p16
I0
sS'lastScale'
p17
F5.5
sS'maxSteering'
p18
I20
sS'energy'
p19
F0.5
sb.(i__main__
Data_mobile
p1
(dp2
S'vel_y'
p3
I0
sS'vel_x'
p4
I0
sS'pos_x'
p5
I-9579
sS'pos_y'
p6
I9779
sS'isAlive'
p7
I00
sS'cumulativeEnergy'
p8
F0.5
sS'geno'
p9
(lp10
F0.58633287410419521
aF-1.8705499249212769
aF0.25422012846934672
aF4.3329456145533092
aF-0.48981704579486773
asS'accel_x'
p11
F0
sS'accel_y'
p12
F0
sS'visionAngle'
p13
I130
sS'maxAccel'
p14
I2
sS'maxVel'
p15
F0.72999999999999998
sS'age'
p16
I0
sS'lastScale'
p17
F5.5
sS'maxSteering'
p18
I20
sS'energy'
p19
F0.5
sb.(i__main__
Data_mobile
p1
(dp2
S'vel_y'
p3
I0
sS'vel_x'
p4
I0
sS'pos_x'
p5
I-9579
sS'pos_y'
p6
I9779
sS'isAlive'
p7
I00
sS'cumulativeEnergy'
p8
F0.5
sS'geno'
p9
(lp10
F0.1418026866629597
aF-1.8705499249212769
aF-0.064157362892962033
aF4.3329456145533092
aF0.0041002995405376996
asS'accel_x'
p11
F0
sS'accel_y'
p12
F0
sS'visionAngle'
p13
I130
sS'maxAccel'
p14
I2
sS'maxVel'
p15
F0.72999999999999998
sS'age'
p16
I0
sS'lastScale'
p17
F5.5
sS'maxSteering'
p18
I20
sS'energy'
p19
F0.5
sb.(i__main__
Data_mobile
p1
(dp2
S'vel_y'
p3
I0
sS'vel_x'
p4
I0
sS'pos_x'
p5
I-9579
sS'pos_y'
p6
I9779
sS'isAlive'
p7
I00
sS'cumulativeEnergy'
p8
F0.5
sS'geno'
p9
(lp10
F0.39782580822468749
aF-1.4932881197606709
aF1.5053163368088911
aF4.3329456145533092
aF0.0041002995405376996
asS'accel_x'
p11
F0
sS'accel_y'
p12
F0
sS'visionAngle'
p13
I130
sS'maxAccel'
p14
I2
sS'maxVel'
p15
F0.72999999999999998
sS'age'
p16
I0
sS'lastScale'
p17
F5.5
sS'maxSteering'
p18
I20
sS'energy'
p19
F0.5
sb.(i__main__
Data_mobile
p1
(dp2
S'vel_y'
p3
I0
sS'vel_x'
p4
I0
sS'pos_x'
p5
I-9579
sS'pos_y'
p6
I9779
sS'isAlive'
p7
I00
sS'cumulativeEnergy'
p8
F0.5
sS'geno'
p9
(lp10
F0.58633287410419521
aF-2.0536956995147904
aF-0.0270011360871385
aF4.3329456145533092
aF-0.48981704579486773
asS'accel_x'
p11
F0
sS'accel_y'
p12
F0
sS'visionAngle'
p13
I130
sS'maxAccel'
p14
I2
sS'maxVel'
p15
F0.72999999999999998
sS'age'
p16
I0
sS'lastScale'
p17
F5.5
sS'maxSteering'
p18
I20
sS'energy'
p19
F0.5
sb.(i__main__
Data_mobile
p1
(dp2
S'vel_y'
p3
I0
sS'vel_x'
p4
I0
sS'pos_x'
p5
I-9579
sS'pos_y'
p6
I9779
sS'isAlive'
p7
I00
sS'cumulativeEnergy'
p8
F0.5
sS'geno'
p9
(lp10
F0.58633287410419521
aF-1.8705499249212769
aF0.508764209010234
aF4.3329456145533092
aF-0.48981704579486773
asS'accel_x'
p11
F0
sS'accel_y'
p12
F0
sS'visionAngle'
p13
I130
sS'maxAccel'
p14
I2
sS'maxVel'
p15
F0.72999999999999998
sS'age'
p16
I0
sS'lastScale'
p17
F5.5
sS'maxSteering'
p18
I20
sS'energy'
p19
F0.5
sb.(i__main__
Data_mobile
p1
(dp2
S'vel_y'
p3
I0
sS'vel_x'
p4
I0
sS'pos_x'
p5
I-9579
sS'pos_y'
p6
I9779
sS'isAlive'
p7
I00
sS'cumulativeEnergy'
p8
F0.5
sS'geno'
p9
(lp10
F0.58633287410419521
aF-1.8705499249212769
aF0.80506314162437076
aF3.8690688048894328
aF-0.48981704579486773
asS'accel_x'
p11
F0
sS'accel_y'
p12
F0
sS'visionAngle'
p13
I130
sS'maxAccel'
p14
I2
sS'maxVel'
p15
F0.72999999999999998
sS'age'
p16
I0
sS'lastScale'
p17
F5.5
sS'maxSteering'
p18
I20
sS'energy'
p19
F0.5
sb.(i__main__
Data_mobile
p1
(dp2
S'vel_y'
p3
I0
sS'vel_x'
p4
I0
sS'pos_x'
p5
I-9579
sS'pos_y'
p6
I9779
sS'isAlive'
p7
I00
sS'cumulativeEnergy'
p8
F0.5
sS'geno'
p9
(lp10
F0.71783673115310687
aF-1.7500034121348045
aF0.41145417279752583
aF4.3329456145533092
aF0.27338378469580615
asS'accel_x'
p11
F0
sS'accel_y'
p12
F0
sS'visionAngle'
p13
I130
sS'maxAccel'
p14
I2
sS'maxVel'
p15
F0.72999999999999998
sS'age'
p16
I0
sS'lastScale'
p17
F5.5
sS'maxSteering'
p18
I20
sS'energy'
p19
F0.5
sb.(i__main__
Data_mobile
p1
(dp2
S'vel_y'
p3
I0
sS'vel_x'
p4
I0
sS'pos_x'
p5
I-9579
sS'pos_y'
p6
I9779
sS'isAlive'
p7
I00
sS'cumulativeEnergy'
p8
F0.5
sS'geno'
p9
(lp10
F0.56112106322276822
aF-1.4932881197606709
aF1.5053163368088911
aF4.356583521058039
aF-0.48981704579486773
asS'accel_x'
p11
F0
sS'accel_y'
p12
F0
sS'visionAngle'
p13
I130
sS'maxAccel'
p14
I2
sS'maxVel'
p15
F0.72999999999999998
sS'age'
p16
I0
sS'lastScale'
p17
F5.5
sS'maxSteering'
p18
I20
sS'energy'
p19
F0.5
sb.(i__main__
Data_mobile
p1
(dp2
S'vel_y'
p3
I0
sS'vel_x'
p4
I0
sS'pos_x'
p5
I-9579
sS'pos_y'
p6
I9779
sS'isAlive'
p7
I00
sS'cumulativeEnergy'
p8
F0.5
sS'geno'
p9
(lp10
F0.56026293054775089
aF-1.123734696505416
aF1.5053163368088911
aF4.356583521058039
aF-0.48981704579486773
asS'accel_x'
p11
F0
sS'accel_y'
p12
F0
sS'visionAngle'
p13
I130
sS'maxAccel'
p14
I2
sS'maxVel'
p15
F0.72999999999999998
sS'age'
p16
I0
sS'lastScale'
p17
F5.5
sS'maxSteering'
p18
I20
sS'energy'
p19
F0.5
sb.(i__main__
Data_mobile
p1
(dp2
S'vel_y'
p3
I0
sS'vel_x'
p4
I0
sS'pos_x'
p5
I-9579
sS'pos_y'
p6
I9779
sS'isAlive'
p7
I00
sS'cumulativeEnergy'
p8
F0.5
sS'geno'
p9
(lp10
F0.58633287410419521
aF-1.8705499249212769
aF0.25422012846934672
aF4.4303962973116926
aF-0.48981704579486773
asS'accel_x'
p11
F0
sS'accel_y'
p12
F0
sS'visionAngle'
p13
I130
sS'maxAccel'
p14
I2
sS'maxVel'
p15
F0.72999999999999998
sS'age'
p16
I0
sS'lastScale'
p17
F5.5
sS'maxSteering'
p18
I20
sS'energy'
p19
F0.5
sb.(i__main__
Data_mobile
p1
(dp2
S'vel_y'
p3
I0
sS'vel_x'
p4
I0
sS'pos_x'
p5
I-9579
sS'pos_y'
p6
I9779
sS'isAlive'
p7
I00
sS'cumulativeEnergy'
p8
F0.5
sS'geno'
p9
(lp10
F0.39782580822468749
aF-1.4932881197606709
aF1.5053163368088911
aF4.356583521058039
aF-0.48981704579486773
asS'accel_x'
p11
F0
sS'accel_y'
p12
F0
sS'visionAngle'
p13
I130
sS'maxAccel'
p14
I2
sS'maxVel'
p15
F0.72999999999999998
sS'age'
p16
I0
sS'lastScale'
p17
F5.5
sS'maxSteering'
p18
I20
sS'energy'
p19
F0.5
sb.(i__main__
Data_mobile
p1
(dp2
S'vel_y'
p3
I0
sS'vel_x'
p4
I0
sS'pos_x'
p5
I-9579
sS'pos_y'
p6
I9779
sS'isAlive'
p7
I00
sS'cumulativeEnergy'
p8
F0.5
sS'geno'
p9
(lp10
F0.56112106322276822
aF-1.4932881197606709
aF1.5053163368088911
aF4.356583521058039
aF-0.48981704579486773
asS'accel_x'
p11
F0
sS'accel_y'
p12
F0
sS'visionAngle'
p13
I130
sS'maxAccel'
p14
I2
sS'maxVel'
p15
F0.72999999999999998
sS'age'
p16
I0
sS'lastScale'
p17
F5.5
sS'maxSteering'
p18
I20
sS'energy'
p19
F0.5
sb.(i__main__
Data_mobile
p1
(dp2
S'vel_y'
p3
I0
sS'vel_x'
p4
I0
sS'pos_x'
p5
I-9579
sS'pos_y'
p6
I9779
sS'isAlive'
p7
I00
sS'cumulativeEnergy'
p8
F0.5
sS'geno'
p9
(lp10
F0.71783673115310687
aF-1.7500034121348045
aF0.41145417279752583
aF4.3329456145533092
aF0.0041002995405376996
asS'accel_x'
p11
F0
sS'accel_y'
p12
F0
sS'visionAngle'
p13
I130
sS'maxAccel'
p14
I2
sS'maxVel'
p15
F0.72999999999999998
sS'age'
p16
I0
sS'lastScale'
p17
F5.5
sS'maxSteering'
p18
I20
sS'energy'
p19
F0.5
sb.(i__main__
Data_mobile
p1
(dp2
S'vel_y'
p3
I0
sS'vel_x'
p4
I0
sS'pos_x'
p5
I-9579
sS'pos_y'
p6
I9779
sS'isAlive'
p7
I00
sS'cumulativeEnergy'
p8
F0.5
sS'geno'
p9
(lp10
F0.58633287410419521
aF-1.8705499249212769
aF0.41145417279752583
aF4.3329456145533092
aF-0.55161878701621381
asS'accel_x'
p11
F0
sS'accel_y'
p12
F0
sS'visionAngle'
p13
I130
sS'maxAccel'
p14
I2
sS'maxVel'
p15
F0.72999999999999998
sS'age'
p16
I0
sS'lastScale'
p17
F5.5
sS'maxSteering'
p18
I20
sS'energy'
p19
F0.5
sb.(i__main__
Data_mobile
p1
(dp2
S'vel_y'
p3
I0
sS'vel_x'
p4
I0
sS'pos_x'
p5
I-9579
sS'pos_y'
p6
I9779
sS'isAlive'
p7
I00
sS'cumulativeEnergy'
p8
F0.5
sS'geno'
p9
(lp10
F0.56112106322276822
aF-1.4932881197606709
aF0.5146052366352869
aF4.3329456145533092
aF-0.48981704579486773
asS'accel_x'
p11
F0
sS'accel_y'
p12
F0
sS'visionAngle'
p13
I130
sS'maxAccel'
p14
I2
sS'maxVel'
p15
F0.72999999999999998
sS'age'
p16
I0
sS'lastScale'
p17
F5.5
sS'maxSteering'
p18
I20
sS'energy'
p19
F0.5
sb.(i__main__
Data_mobile
p1
(dp2
S'vel_y'
p3
I0
sS'vel_x'
p4
I0
sS'pos_x'
p5
I-9579
sS'pos_y'
p6
I9779
sS'isAlive'
p7
I00
sS'cumulativeEnergy'
p8
F0.5
sS'geno'
p9
(lp10
F0.39782580822468749
aF-1.4932881197606709
aF1.5053163368088911
aF4.356583521058039
aF-0.48981704579486773
asS'accel_x'
p11
F0
sS'accel_y'
p12
F0
sS'visionAngle'
p13
I130
sS'maxAccel'
p14
I2
sS'maxVel'
p15
F0.72999999999999998
sS'age'
p16
I0
sS'lastScale'
p17
F5.5
sS'maxSteering'
p18
I20
sS'energy'
p19
F0.5
sb.(i__main__
Data_mobile
p1
(dp2
S'vel_y'
p3
I0
sS'vel_x'
p4
I0
sS'pos_x'
p5
I-9579
sS'pos_y'
p6
I9779
sS'isAlive'
p7
I00
sS'cumulativeEnergy'
p8
F0.5
sS'geno'
p9
(lp10
F0.56112106322276822
aF-1.4932881197606709
aF0.5146052366352869
aF4.349343899497045
aF-0.48981704579486773
asS'accel_x'
p11
F0
sS'accel_y'
p12
F0
sS'visionAngle'
p13
I130
sS'maxAccel'
p14
I2
sS'maxVel'
p15
F0.72999999999999998
sS'age'
p16
I0
sS'lastScale'
p17
F5.5
sS'maxSteering'
p18
I20
sS'energy'
p19
F0.5
sb.(i__main__
Data_mobile
p1
(dp2
S'vel_y'
p3
I0
sS'vel_x'
p4
I0
sS'pos_x'
p5
I-9579
sS'pos_y'
p6
I9779
sS'isAlive'
p7
I00
sS'cumulativeEnergy'
p8
F0.5
sS'geno'
p9
(lp10
F0.1418026866629597
aF-1.8705499249212769
aF-0.064157362892962033
aF4.3329456145533092
aF0.0041002995405376996
asS'accel_x'
p11
F0
sS'accel_y'
p12
F0
sS'visionAngle'
p13
I130
sS'maxAccel'
p14
I2
sS'maxVel'
p15
F0.72999999999999998
sS'age'
p16
I0
sS'lastScale'
p17
F5.5
sS'maxSteering'
p18
I20
sS'energy'
p19
F0.5
sb.(i__main__
Data_mobile
p1
(dp2
S'vel_y'
p3
I0
sS'vel_x'
p4
I0
sS'pos_x'
p5
I-9579
sS'pos_y'
p6
I9779
sS'isAlive'
p7
I00
sS'cumulativeEnergy'
p8
F0.5
sS'geno'
p9
(lp10
F0.56112106322276822
aF-1.4932881197606709
aF1.5053163368088911
aF4.356583521058039
aF-0.48981704579486773
asS'accel_x'
p11
F0
sS'accel_y'
p12
F0
sS'visionAngle'
p13
I130
sS'maxAccel'
p14
I2
sS'maxVel'
p15
F0.72999999999999998
sS'age'
p16
I0
sS'lastScale'
p17
F5.5
sS'maxSteering'
p18
I20
sS'energy'
p19
F0.5
sb.(i__main__
Data_mobile
p1
(dp2
S'vel_y'
p3
I0
sS'vel_x'
p4
I0
sS'pos_x'
p5
I-9579
sS'pos_y'
p6
I9779
sS'isAlive'
p7
I00
sS'cumulativeEnergy'
p8
F0.5
sS'geno'
p9
(lp10
F0.1418026866629597
aF-1.8705499249212769
aF-0.064157362892962033
aF4.356583521058039
aF-0.48981704579486773
asS'accel_x'
p11
F0
sS'accel_y'
p12
F0
sS'visionAngle'
p13
I130
sS'maxAccel'
p14
I2
sS'maxVel'
p15
F0.72999999999999998
sS'age'
p16
I0
sS'lastScale'
p17
F5.5
sS'maxSteering'
p18
I20
sS'energy'
p19
F0.5
sb.(i__main__
Data_mobile
p1
(dp2
S'vel_y'
p3
I0
sS'vel_x'
p4
I0
sS'pos_x'
p5
I-9579
sS'pos_y'
p6
I9779
sS'isAlive'
p7
I00
sS'cumulativeEnergy'
p8
F0.5
sS'geno'
p9
(lp10
F0.39782580822468749
aF-1.4932881197606709
aF1.5053163368088911
aF4.3329456145533092
aF-0.48981704579486773
asS'accel_x'
p11
F0
sS'accel_y'
p12
F0
sS'visionAngle'
p13
I130
sS'maxAccel'
p14
I2
sS'maxVel'
p15
F0.72999999999999998
sS'age'
p16
I0
sS'lastScale'
p17
F5.5
sS'maxSteering'
p18
I20
sS'energy'
p19
F0.5
sb.(i__main__
Data_mobile
p1
(dp2
S'vel_y'
p3
I0
sS'vel_x'
p4
I0
sS'pos_x'
p5
I-9579
sS'pos_y'
p6
I9779
sS'isAlive'
p7
I00
sS'cumulativeEnergy'
p8
F0.5
sS'geno'
p9
(lp10
F0.56112106322276822
aF-1.4932881197606709
aF0.5146052366352869
aF3.9531040903976828
aF-0.48981704579486773
asS'accel_x'
p11
F0
sS'accel_y'
p12
F0
sS'visionAngle'
p13
I130
sS'maxAccel'
p14
I2
sS'maxVel'
p15
F0.72999999999999998
sS'age'
p16
I0
sS'lastScale'
p17
F5.5
sS'maxSteering'
p18
I20
sS'energy'
p19
F0.5
sb.(i__main__
Data_mobile
p1
(dp2
S'vel_y'
p3
I0
sS'vel_x'
p4
I0
sS'pos_x'
p5
I-9579
sS'pos_y'
p6
I9779
sS'isAlive'
p7
I00
sS'cumulativeEnergy'
p8
F0.5
sS'geno'
p9
(lp10
F0.58633287410419521
aF-1.8705499249212769
aF0.41145417279752583
aF4.3329456145533092
aF-0.55161878701621381
asS'accel_x'
p11
F0
sS'accel_y'
p12
F0
sS'visionAngle'
p13
I130
sS'maxAccel'
p14
I2
sS'maxVel'
p15
F0.72999999999999998
sS'age'
p16
I0
sS'lastScale'
p17
F5.5
sS'maxSteering'
p18
I20
sS'energy'
p19
F0.5
sb.(i__main__
Data_mobile
p1
(dp2
S'vel_y'
p3
I0
sS'vel_x'
p4
I0
sS'pos_x'
p5
I-9579
sS'pos_y'
p6
I9779
sS'isAlive'
p7
I00
sS'cumulativeEnergy'
p8
F0.5
sS'geno'
p9
(lp10
F0.39782580822468749
aF-1.8923137408636883
aF1.5053163368088911
aF4.356583521058039
aF-0.48981704579486773
asS'accel_x'
p11
F0
sS'accel_y'
p12
F0
sS'visionAngle'
p13
I130
sS'maxAccel'
p14
I2
sS'maxVel'
p15
F0.72999999999999998
sS'age'
p16
I0
sS'lastScale'
p17
F5.5
sS'maxSteering'
p18
I20
sS'energy'
p19
F0.5
sb.(i__main__
Data_mobile
p1
(dp2
S'vel_y'
p3
I0
sS'vel_x'
p4
I0
sS'pos_x'
p5
I-9579
sS'pos_y'
p6
I9779
sS'isAlive'
p7
I00
sS'cumulativeEnergy'
p8
F0.5
sS'geno'
p9
(lp10
F0.1418026866629597
aF-2.1114711008842217
aF1.5053163368088911
aF4.7075222048531069
aF-0.48981704579486773
asS'accel_x'
p11
F0
sS'accel_y'
p12
F0
sS'visionAngle'
p13
I130
sS'maxAccel'
p14
I2
sS'maxVel'
p15
F0.72999999999999998
sS'age'
p16
I0
sS'lastScale'
p17
F5.5
sS'maxSteering'
p18
I20
sS'energy'
p19
F0.5
sb.(i__main__
Data_mobile
p1
(dp2
S'vel_y'
p3
I0
sS'vel_x'
p4
I0
sS'pos_x'
p5
I-9579
sS'pos_y'
p6
I9779
sS'isAlive'
p7
I00
sS'cumulativeEnergy'
p8
F0.5
sS'geno'
p9
(lp10
F0.39782580822468749
aF-1.4932881197606709
aF1.5053163368088911
aF4.356583521058039
aF-0.48981704579486773
asS'accel_x'
p11
F0
sS'accel_y'
p12
F0
sS'visionAngle'
p13
I130
sS'maxAccel'
p14
I2
sS'maxVel'
p15
F0.72999999999999998
sS'age'
p16
I0
sS'lastScale'
p17
F5.5
sS'maxSteering'
p18
I20
sS'energy'
p19
F0.5
sb.(i__main__
Data_mobile
p1
(dp2
S'vel_y'
p3
I0
sS'vel_x'
p4
I0
sS'pos_x'
p5
I-9579
sS'pos_y'
p6
I9779
sS'isAlive'
p7
I00
sS'cumulativeEnergy'
p8
F0.5
sS'geno'
p9
(lp10
F0.39782580822468749
aF-1.4932881197606709
aF1.5053163368088911
aF4.356583521058039
aF-0.48981704579486773
asS'accel_x'
p11
F0
sS'accel_y'
p12
F0
sS'visionAngle'
p13
I130
sS'maxAccel'
p14
I2
sS'maxVel'
p15
F0.72999999999999998
sS'age'
p16
I0
sS'lastScale'
p17
F5.5
sS'maxSteering'
p18
I20
sS'energy'
p19
F0.5
sb.(i__main__
Data_mobile
p1
(dp2
S'vel_y'
p3
I0
sS'vel_x'
p4
I0
sS'pos_x'
p5
I-9579
sS'pos_y'
p6
I9779
sS'isAlive'
p7
I00
sS'cumulativeEnergy'
p8
F0.5
sS'geno'
p9
(lp10
F0.51842531089678878
aF-1.8705499249212769
aF-0.064157362892962033
aF4.3329456145533092
aF0.0041002995405376996
asS'accel_x'
p11
F0
sS'accel_y'
p12
F0
sS'visionAngle'
p13
I130
sS'maxAccel'
p14
I2
sS'maxVel'
p15
F0.72999999999999998
sS'age'
p16
I0
sS'lastScale'
p17
F5.5
sS'maxSteering'
p18
I20
sS'energy'
p19
F0.5
sb.(i__main__
Data_mobile
p1
(dp2
S'vel_y'
p3
I0
sS'vel_x'
p4
I0
sS'pos_x'
p5
I-9579
sS'pos_y'
p6
I9779
sS'isAlive'
p7
I00
sS'cumulativeEnergy'
p8
F0.5
sS'geno'
p9
(lp10
F0.56112106322276822
aF-1.4932881197606709
aF1.5053163368088911
aF4.356583521058039
aF-0.48981704579486773
asS'accel_x'
p11
F0
sS'accel_y'
p12
F0
sS'visionAngle'
p13
I130
sS'maxAccel'
p14
I2
sS'maxVel'
p15
F0.72999999999999998
sS'age'
p16
I0
sS'lastScale'
p17
F5.5
sS'maxSteering'
p18
I20
sS'energy'
p19
F0.5
sb.(i__main__
Data_mobile
p1
(dp2
S'vel_y'
p3
I0
sS'vel_x'
p4
I0
sS'pos_x'
p5
I-9579
sS'pos_y'
p6
I9779
sS'isAlive'
p7
I00
sS'cumulativeEnergy'
p8
F0.5
sS'geno'
p9
(lp10
F0.39782580822468749
aF-1.4932881197606709
aF1.0340391637107724
aF4.356583521058039
aF-0.48981704579486773
asS'accel_x'
p11
F0
sS'accel_y'
p12
F0
sS'visionAngle'
p13
I130
sS'maxAccel'
p14
I2
sS'maxVel'
p15
F0.72999999999999998
sS'age'
p16
I0
sS'lastScale'
p17
F5.5
sS'maxSteering'
p18
I20
sS'energy'
p19
F0.5
sb.(i__main__
Data_mobile
p1
(dp2
S'vel_y'
p3
I0
sS'vel_x'
p4
I0
sS'pos_x'
p5
I-9579
sS'pos_y'
p6
I9779
sS'isAlive'
p7
I00
sS'cumulativeEnergy'
p8
F0.5
sS'geno'
p9
(lp10
F0.39782580822468749
aF-1.4932881197606709
aF1.5053163368088911
aF4.356583521058039
aF-0.48981704579486773
asS'accel_x'
p11
F0
sS'accel_y'
p12
F0
sS'visionAngle'
p13
I130
sS'maxAccel'
p14
I2
sS'maxVel'
p15
F0.72999999999999998
sS'age'
p16
I0
sS'lastScale'
p17
F5.5
sS'maxSteering'
p18
I20
sS'energy'
p19
F0.5
sb.(i__main__
Data_mobile
p1
(dp2
S'vel_y'
p3
I0
sS'vel_x'
p4
I0
sS'pos_x'
p5
I-9579
sS'pos_y'
p6
I9779
sS'isAlive'
p7
I00
sS'cumulativeEnergy'
p8
F0.5
sS'geno'
p9
(lp10
F0.56112106322276822
aF-1.4932881197606709
aF1.0272252658522647
aF4.356583521058039
aF-0.48981704579486773
asS'accel_x'
p11
F0
sS'accel_y'
p12
F0
sS'visionAngle'
p13
I130
sS'maxAccel'
p14
I2
sS'maxVel'
p15
F0.72999999999999998
sS'age'
p16
I0
sS'lastScale'
p17
F5.5
sS'maxSteering'
p18
I20
sS'energy'
p19
F0.5
sb.(i__main__
Data_mobile
p1
(dp2
S'vel_y'
p3
I0
sS'vel_x'
p4
I0
sS'pos_x'
p5
I-9579
sS'pos_y'
p6
I9779
sS'isAlive'
p7
I00
sS'cumulativeEnergy'
p8
F0.5
sS'geno'
p9
(lp10
F0.56112106322276822
aF-1.4932881197606709
aF-0.064157362892962033
aF4.3329456145533092
aF0.0041002995405376996
asS'accel_x'
p11
F0
sS'accel_y'
p12
F0
sS'visionAngle'
p13
I130
sS'maxAccel'
p14
I2
sS'maxVel'
p15
F0.72999999999999998
sS'age'
p16
I0
sS'lastScale'
p17
F5.5
sS'maxSteering'
p18
I20
sS'energy'
p19
F0.5
sb.(i__main__
Data_mobile
p1
(dp2
S'vel_y'
p3
I0
sS'vel_x'
p4
I0
sS'pos_x'
p5
I-9579
sS'pos_y'
p6
I9779
sS'isAlive'
p7
I00
sS'cumulativeEnergy'
p8
F0.5
sS'geno'
p9
(lp10
F0.12579066220520374
aF-2.0789189827463126
aF0.80506314162437076
aF4.3132613378057814
aF0.0041002995405376996
asS'accel_x'
p11
F0
sS'accel_y'
p12
F0
sS'visionAngle'
p13
I130
sS'maxAccel'
p14
I2
sS'maxVel'
p15
F0.72999999999999998
sS'age'
p16
I0
sS'lastScale'
p17
F5.5
sS'maxSteering'
p18
I20
sS'energy'
p19
F0.5
sb.(i__main__
Data_mobile
p1
(dp2
S'vel_y'
p3
I0
sS'vel_x'
p4
I0
sS'pos_x'
p5
I-9579
sS'pos_y'
p6
I9779
sS'isAlive'
p7
I00
sS'cumulativeEnergy'
p8
F0.5
sS'geno'
p9
(lp10
F0.1418026866629597
aF-1.8705499249212769
aF-0.064157362892962033
aF4.3329456145533092
aF0.0041002995405376996
asS'accel_x'
p11
F0
sS'accel_y'
p12
F0
sS'visionAngle'
p13
I130
sS'maxAccel'
p14
I2
sS'maxVel'
p15
F0.72999999999999998
sS'age'
p16
I0
sS'lastScale'
p17
F5.5
sS'maxSteering'
p18
I20
sS'energy'
p19
F0.5
sb.(i__main__
Data_mobile
p1
(dp2
S'vel_y'
p3
I0
sS'vel_x'
p4
I0
sS'pos_x'
p5
I-9579
sS'pos_y'
p6
I9779
sS'isAlive'
p7
I00
sS'cumulativeEnergy'
p8
F0.5
sS'geno'
p9
(lp10
F0.56112106322276822
aF-1.4932881197606709
aF0.5146052366352869
aF3.8989624087815593
aF-0.48981704579486773
asS'accel_x'
p11
F0
sS'accel_y'
p12
F0
sS'visionAngle'
p13
I130
sS'maxAccel'
p14
I2
sS'maxVel'
p15
F0.72999999999999998
sS'age'
p16
I0
sS'lastScale'
p17
F5.5
sS'maxSteering'
p18
I20
sS'energy'
p19
F0.5
sb.(i__main__
Data_mobile
p1
(dp2
S'vel_y'
p3
I0
sS'vel_x'
p4
I0
sS'pos_x'
p5
I-9579
sS'pos_y'
p6
I9779
sS'isAlive'
p7
I00
sS'cumulativeEnergy'
p8
F0.5
sS'geno'
p9
(lp10
F0.54302352207879889
aF-1.8705499249212769
aF-0.064157362892962033
aF4.3329456145533092
aF0.0041002995405376996
asS'accel_x'
p11
F0
sS'accel_y'
p12
F0
sS'visionAngle'
p13
I130
sS'maxAccel'
p14
I2
sS'maxVel'
p15
F0.72999999999999998
sS'age'
p16
I0
sS'lastScale'
p17
F5.5
sS'maxSteering'
p18
I20
sS'energy'
p19
F0.5
sb.(i__main__
Data_mobile
p1
(dp2
S'vel_y'
p3
I0
sS'vel_x'
p4
I0
sS'pos_x'
p5
I-9579
sS'pos_y'
p6
I9779
sS'isAlive'
p7
I00
sS'cumulativeEnergy'
p8
F0.5
sS'geno'
p9
(lp10
F0.12579066220520374
aF-2.0789189827463126
aF0.80506314162437076
aF4.3132613378057814
aF0.0041002995405376996
asS'accel_x'
p11
F0
sS'accel_y'
p12
F0
sS'visionAngle'
p13
I130
sS'maxAccel'
p14
I2
sS'maxVel'
p15
F0.72999999999999998
sS'age'
p16
I0
sS'lastScale'
p17
F5.5
sS'maxSteering'
p18
I20
sS'energy'
p19
F0.5
sb.(i__main__
Data_mobile
p1
(dp2
S'vel_y'
p3
I0
sS'vel_x'
p4
I0
sS'pos_x'
p5
I-9579
sS'pos_y'
p6
I9779
sS'isAlive'
p7
I00
sS'cumulativeEnergy'
p8
F0.5
sS'geno'
p9
(lp10
F0.12579066220520374
aF-2.0789189827463126
aF0.70864761562107559
aF4.3132613378057814
aF0.0041002995405376996
asS'accel_x'
p11
F0
sS'accel_y'
p12
F0
sS'visionAngle'
p13
I130
sS'maxAccel'
p14
I2
sS'maxVel'
p15
F0.72999999999999998
sS'age'
p16
I0
sS'lastScale'
p17
F5.5
sS'maxSteering'
p18
I20
sS'energy'
p19
F0.5
sb.(i__main__
Data_mobile
p1
(dp2
S'vel_y'
p3
I0
sS'vel_x'
p4
I0
sS'pos_x'
p5
I-9579
sS'pos_y'
p6
I9779
sS'isAlive'
p7
I00
sS'cumulativeEnergy'
p8
F0.5
sS'geno'
p9
(lp10
F0.1418026866629597
aF-1.8705499249212769
aF-0.064157362892962033
aF4.3329456145533092
aF0.0041002995405376996
asS'accel_x'
p11
F0
sS'accel_y'
p12
F0
sS'visionAngle'
p13
I130
sS'maxAccel'
p14
I2
sS'maxVel'
p15
F0.72999999999999998
sS'age'
p16
I0
sS'lastScale'
p17
F5.5
sS'maxSteering'
p18
I20
sS'energy'
p19
F0.5
sb.(i__main__
Data_mobile
p1
(dp2
S'vel_y'
p3
I0
sS'vel_x'
p4
I0
sS'pos_x'
p5
I-9579
sS'pos_y'
p6
I9779
sS'isAlive'
p7
I00
sS'cumulativeEnergy'
p8
F0.5
sS'geno'
p9
(lp10
F0.1418026866629597
aF-1.8705499249212769
aF-0.12950589521592326
aF4.3329456145533092
aF0.0041002995405376996
asS'accel_x'
p11
F0
sS'accel_y'
p12
F0
sS'visionAngle'
p13
I130
sS'maxAccel'
p14
I2
sS'maxVel'
p15
F0.72999999999999998
sS'age'
p16
I0
sS'lastScale'
p17
F5.5
sS'maxSteering'
p18
I20
sS'energy'
p19
F0.5
sb.(i__main__
Data_mobile
p1
(dp2
S'vel_y'
p3
I0
sS'vel_x'
p4
I0
sS'pos_x'
p5
I-9579
sS'pos_y'
p6
I9779
sS'isAlive'
p7
I00
sS'cumulativeEnergy'
p8
F0.5
sS'geno'
p9
(lp10
F0.56112106322276822
aF-1.4932881197606709
aF0.5146052366352869
aF3.8989624087815593
aF-0.48981704579486773
asS'accel_x'
p11
F0
sS'accel_y'
p12
F0
sS'visionAngle'
p13
I130
sS'maxAccel'
p14
I2
sS'maxVel'
p15
F0.72999999999999998
sS'age'
p16
I0
sS'lastScale'
p17
F5.5
sS'maxSteering'
p18
I20
sS'energy'
p19
F0.5
sb.(i__main__
Data_mobile
p1
(dp2
S'vel_y'
p3
I0
sS'vel_x'
p4
I0
sS'pos_x'
p5
I-9579
sS'pos_y'
p6
I9779
sS'isAlive'
p7
I00
sS'cumulativeEnergy'
p8
F0.5
sS'geno'
p9
(lp10
F0.12579066220520374
aF-2.0789189827463126
aF0.80506314162437076
aF4.3132613378057814
aF-0.48981704579486773
asS'accel_x'
p11
F0
sS'accel_y'
p12
F0
sS'visionAngle'
p13
I130
sS'maxAccel'
p14
I2
sS'maxVel'
p15
F0.72999999999999998
sS'age'
p16
I0
sS'lastScale'
p17
F5.5
sS'maxSteering'
p18
I20
sS'energy'
p19
F0.5
sb.(i__main__
Data_mobile
p1
(dp2
S'vel_y'
p3
I0
sS'vel_x'
p4
I0
sS'pos_x'
p5
I-9579
sS'pos_y'
p6
I9779
sS'isAlive'
p7
I00
sS'cumulativeEnergy'
p8
F0.5
sS'geno'
p9
(lp10
F0.28628546788536924
aF-2.0789189827463126
aF0.58122919062938883
aF3.8989624087815593
aF-0.48981704579486773
asS'accel_x'
p11
F0
sS'accel_y'
p12
F0
sS'visionAngle'
p13
I130
sS'maxAccel'
p14
I2
sS'maxVel'
p15
F0.72999999999999998
sS'age'
p16
I0
sS'lastScale'
p17
F5.5
sS'maxSteering'
p18
I20
sS'energy'
p19
F0.5
sb.(i__main__
Data_mobile
p1
(dp2
S'vel_y'
p3
I0
sS'vel_x'
p4
I0
sS'pos_x'
p5
I-9579
sS'pos_y'
p6
I9779
sS'isAlive'
p7
I00
sS'cumulativeEnergy'
p8
F0.5
sS'geno'
p9
(lp10
F0.56112106322276822
aF-1.4932881197606709
aF-0.064157362892962033
aF4.1540630428827878
aF0.0041002995405376996
asS'accel_x'
p11
F0
sS'accel_y'
p12
F0
sS'visionAngle'
p13
I130
sS'maxAccel'
p14
I2
sS'maxVel'
p15
F0.72999999999999998
sS'age'
p16
I0
sS'lastScale'
p17
F5.5
sS'maxSteering'
p18
I20
sS'energy'
p19
F0.5
sb.(i__main__
Data_mobile
p1
(dp2
S'vel_y'
p3
I0
sS'vel_x'
p4
I0
sS'pos_x'
p5
I-9579
sS'pos_y'
p6
I9779
sS'isAlive'
p7
I00
sS'cumulativeEnergy'
p8
F0.5
sS'geno'
p9
(lp10
F0.78463432702634683
aF-1.4932881197606709
aF0.5146052366352869
aF3.8989624087815593
aF0.0041002995405376996
asS'accel_x'
p11
F0
sS'accel_y'
p12
F0
sS'visionAngle'
p13
I130
sS'maxAccel'
p14
I2
sS'maxVel'
p15
F0.72999999999999998
sS'age'
p16
I0
sS'lastScale'
p17
F5.5
sS'maxSteering'
p18
I20
sS'energy'
p19
F0.5
sb.(i__main__
Data_mobile
p1
(dp2
S'vel_y'
p3
I0
sS'vel_x'
p4
I0
sS'pos_x'
p5
I-9579
sS'pos_y'
p6
I9779
sS'isAlive'
p7
I00
sS'cumulativeEnergy'
p8
F0.5
sS'geno'
p9
(lp10
F0.56112106322276822
aF-1.4932881197606709
aF0.5146052366352869
aF4.3132613378057814
aF0.0041002995405376996
asS'accel_x'
p11
F0
sS'accel_y'
p12
F0
sS'visionAngle'
p13
I130
sS'maxAccel'
p14
I2
sS'maxVel'
p15
F0.72999999999999998
sS'age'
p16
I0
sS'lastScale'
p17
F5.5
sS'maxSteering'
p18
I20
sS'energy'
p19
F0.5
sb.(i__main__
Data_mobile
p1
(dp2
S'vel_y'
p3
I0
sS'vel_x'
p4
I0
sS'pos_x'
p5
I-9579
sS'pos_y'
p6
I9779
sS'isAlive'
p7
I00
sS'cumulativeEnergy'
p8
F0.5
sS'geno'
p9
(lp10
F0.56026293054775089
aF-1.123734696505416
aF1.5053163368088911
aF4.3329456145533092
aF0.0041002995405376996
asS'accel_x'
p11
F0
sS'accel_y'
p12
F0
sS'visionAngle'
p13
I130
sS'maxAccel'
p14
I2
sS'maxVel'
p15
F0.72999999999999998
sS'age'
p16
I0
sS'lastScale'
p17
F5.5
sS'maxSteering'
p18
I20
sS'energy'
p19
F0.5
sb.(i__main__
Data_mobile
p1
(dp2
S'vel_y'
p3
I0
sS'vel_x'
p4
I0
sS'pos_x'
p5
I-9579
sS'pos_y'
p6
I9779
sS'isAlive'
p7
I00
sS'cumulativeEnergy'
p8
F0.5
sS'geno'
p9
(lp10
F0.10373715515735626
aF-1.123734696505416
aF1.5053163368088911
aF4.3329456145533092
aF-0.55161878701621381
asS'accel_x'
p11
F0
sS'accel_y'
p12
F0
sS'visionAngle'
p13
I130
sS'maxAccel'
p14
I2
sS'maxVel'
p15
F0.72999999999999998
sS'age'
p16
I0
sS'lastScale'
p17
F5.5
sS'maxSteering'
p18
I20
sS'energy'
p19
F0.5
sb.(i__main__
Data_mobile
p1
(dp2
S'vel_y'
p3
I0
sS'vel_x'
p4
I0
sS'pos_x'
p5
I-9579
sS'pos_y'
p6
I9779
sS'isAlive'
p7
I00
sS'cumulativeEnergy'
p8
F0.5
sS'geno'
p9
(lp10
F0.12579066220520374
aF-2.0789189827463126
aF0.47145073565786533
aF4.3132613378057814
aF0.0041002995405376996
asS'accel_x'
p11
F0
sS'accel_y'
p12
F0
sS'visionAngle'
p13
I130
sS'maxAccel'
p14
I2
sS'maxVel'
p15
F0.72999999999999998
sS'age'
p16
I0
sS'lastScale'
p17
F5.5
sS'maxSteering'
p18
I20
sS'energy'
p19
F0.5
sb.(i__main__
Data_mobile
p1
(dp2
S'vel_y'
p3
I0
sS'vel_x'
p4
I0
sS'pos_x'
p5
I-9579
sS'pos_y'
p6
I9779
sS'isAlive'
p7
I00
sS'cumulativeEnergy'
p8
F0.5
sS'geno'
p9
(lp10
F0.10373715515735626
aF-1.123734696505416
aF1.5053163368088911
aF4.3329456145533092
aF0.0041002995405376996
asS'accel_x'
p11
F0
sS'accel_y'
p12
F0
sS'visionAngle'
p13
I130
sS'maxAccel'
p14
I2
sS'maxVel'
p15
F0.72999999999999998
sS'age'
p16
I0
sS'lastScale'
p17
F5.5
sS'maxSteering'
p18
I20
sS'energy'
p19
F0.5
sb.(i__main__
Data_mobile
p1
(dp2
S'vel_y'
p3
I0
sS'vel_x'
p4
I0
sS'pos_x'
p5
I-9579
sS'pos_y'
p6
I9779
sS'isAlive'
p7
I00
sS'cumulativeEnergy'
p8
F0.5
sS'geno'
p9
(lp10
F0.58633287410419521
aF-1.8705499249212769
aF0.41145417279752583
aF4.3329456145533092
aF0.0041002995405376996
asS'accel_x'
p11
F0
sS'accel_y'
p12
F0
sS'visionAngle'
p13
I130
sS'maxAccel'
p14
I2
sS'maxVel'
p15
F0.72999999999999998
sS'age'
p16
I0
sS'lastScale'
p17
F5.5
sS'maxSteering'
p18
I20
sS'energy'
p19
F0.5
sb.(i__main__
Data_mobile
p1
(dp2
S'vel_y'
p3
I0
sS'vel_x'
p4
I0
sS'pos_x'
p5
I-9579
sS'pos_y'
p6
I9779
sS'isAlive'
p7
I00
sS'cumulativeEnergy'
p8
F0.5
sS'geno'
p9
(lp10
F0.36406344722298423
aF-2.0789189827463126
aF-0.064157362892962033
aF4.3329456145533092
aF0.0041002995405376996
asS'accel_x'
p11
F0
sS'accel_y'
p12
F0
sS'visionAngle'
p13
I130
sS'maxAccel'
p14
I2
sS'maxVel'
p15
F0.72999999999999998
sS'age'
p16
I0
sS'lastScale'
p17
F5.5
sS'maxSteering'
p18
I20
sS'energy'
p19
F0.5
sb.