(i__main__
Data_mobile
p1
(dp2
S'vel_y'
p3
I0
sS'vel_x'
p4
I0
sS'pos_x'
p5
F-199.64831318467139
sS'pos_y'
p6
F-95.94658489515858
sS'isAlive'
p7
I01
sS'geno'
p8
(lp9
F-2.6520126365608352
aF-2.6147825262600977
aF0.029101831231378661
aF2.0049045654111897
aF3.1682885124459403
asS'accel_x'
p10
F0
sS'accel_y'
p11
F0
sS'maxAccel'
p12
I2
sS'maxVel'
p13
F0.69999999999999996
sS'age'
p14
I0
sS'radius'
p15
I2
sS'gener'
p16
S'm'
sS'lastScale'
p17
F15.5
sS'energy'
p18
F1.5
sb.(i__main__
Data_mobile
p1
(dp2
S'vel_y'
p3
I0
sS'vel_x'
p4
I0
sS'pos_x'
p5
F-130.58793893181388
sS'pos_y'
p6
F-52.635807240663127
sS'isAlive'
p7
I01
sS'geno'
p8
(lp9
F-1.3224867827825246
aF-1.8055312377012389
aF4.8753731433767342
aF-1.3900357422348772
aF-2.2769193635399079
asS'accel_x'
p10
F0
sS'accel_y'
p11
F0
sS'maxAccel'
p12
I2
sS'maxVel'
p13
F0.69999999999999996
sS'age'
p14
I0
sS'radius'
p15
I2
sS'gener'
p16
S'm'
sS'lastScale'
p17
F15.5
sS'energy'
p18
F1.5
sb.(i__main__
Data_mobile
p1
(dp2
S'vel_y'
p3
I0
sS'vel_x'
p4
I0
sS'pos_x'
p5
F-190.76175091624108
sS'pos_y'
p6
F10.814100938640951
sS'isAlive'
p7
I01
sS'geno'
p8
(lp9
F2.4454571976554789
aF-0.92096191150618267
aF-0.40579865248790625
aF4.2704030060553784
aF4.4984279046436413
asS'accel_x'
p10
F0
sS'accel_y'
p11
F0
sS'maxAccel'
p12
I2
sS'maxVel'
p13
F0.69999999999999996
sS'age'
p14
I0
sS'radius'
p15
I2
sS'gener'
p16
S'm'
sS'lastScale'
p17
F15.5
sS'energy'
p18
F1.5
sb.(i__main__
Data_mobile
p1
(dp2
S'vel_y'
p3
I0
sS'vel_x'
p4
I0
sS'pos_x'
p5
F-141.3837046757709
sS'pos_y'
p6
F38.443654911042529
sS'isAlive'
p7
I01
sS'geno'
p8
(lp9
F1.921437372159625
aF-3.5183591444291604
aF-4.8185886747139781
aF2.1054704533894739
aF2.3417458091017442
asS'accel_x'
p10
F0
sS'accel_y'
p11
F0
sS'maxAccel'
p12
I2
sS'maxVel'
p13
F0.69999999999999996
sS'age'
p14
I0
sS'radius'
p15
I2
sS'gener'
p16
S'm'
sS'lastScale'
p17
F15.5
sS'energy'
p18
F1.5
sb.(i__main__
Data_mobile
p1
(dp2
S'vel_y'
p3
I0
sS'vel_x'
p4
I0
sS'pos_x'
p5
F-186.95865454563864
sS'pos_y'
p6
F83.528407776430242
sS'isAlive'
p7
I01
sS'geno'
p8
(lp9
F-0.46389263034007389
aF0.83756301219097384
aF3.9474083178153361
aF-4.4829915887686305
aF1.1731978225023081
asS'accel_x'
p10
F0
sS'accel_y'
p11
F0
sS'maxAccel'
p12
I2
sS'maxVel'
p13
F0.69999999999999996
sS'age'
p14
I0
sS'radius'
p15
I2
sS'gener'
p16
S'm'
sS'lastScale'
p17
F15.5
sS'energy'
p18
F1.5
sb.(i__main__
Data_mobile
p1
(dp2
S'vel_y'
p3
I0
sS'vel_x'
p4
I0
sS'pos_x'
p5
F-96.607454700644567
sS'pos_y'
p6
F-78.385034253046811
sS'isAlive'
p7
I01
sS'geno'
p8
(lp9
F1.6805840954248232
aF-2.7066294435384486
aF-2.4136615521911509
aF3.2595160758036315
aF4.4006042398252863
asS'accel_x'
p10
F0
sS'accel_y'
p11
F0
sS'maxAccel'
p12
I2
sS'maxVel'
p13
F0.69999999999999996
sS'age'
p14
I0
sS'radius'
p15
I2
sS'gener'
p16
S'm'
sS'lastScale'
p17
F15.5
sS'energy'
p18
F1.5
sb.(i__main__
Data_mobile
p1
(dp2
S'vel_y'
p3
I0
sS'vel_x'
p4
I0
sS'pos_x'
p5
F-92.702859854268382
sS'pos_y'
p6
F-58.640173540607528
sS'isAlive'
p7
I01
sS'geno'
p8
(lp9
F-0.16813373612888949
aF-2.677099235324417
aF-2.302226719155267
aF4.8130512556843215
aF-0.36388761542404069
asS'accel_x'
p10
F0
sS'accel_y'
p11
F0
sS'maxAccel'
p12
I2
sS'maxVel'
p13
F0.69999999999999996
sS'age'
p14
I0
sS'radius'
p15
I2
sS'gener'
p16
S'm'
sS'lastScale'
p17
F15.5
sS'energy'
p18
F1.5
sb.(i__main__
Data_mobile
p1
(dp2
S'vel_y'
p3
I0
sS'vel_x'
p4
I0
sS'pos_x'
p5
F-67.185956113181376
sS'pos_y'
p6
F-5.5757946088792956
sS'isAlive'
p7
I01
sS'geno'
p8
(lp9
F-0.71057953446664968
aF3.5346090241425205
aF-0.20119365772474396
aF-3.2499387790226866
aF1.6468985550280166
asS'accel_x'
p10
F0
sS'accel_y'
p11
F0
sS'maxAccel'
p12
I2
sS'maxVel'
p13
F0.69999999999999996
sS'age'
p14
I0
sS'radius'
p15
I2
sS'gener'
p16
S'm'
sS'lastScale'
p17
F15.5
sS'energy'
p18
F1.5
sb.(i__main__
Data_mobile
p1
(dp2
S'vel_y'
p3
I0
sS'vel_x'
p4
I0
sS'pos_x'
p5
F-114.9850389279532
sS'pos_y'
p6
F20.149124856851177
sS'isAlive'
p7
I01
sS'geno'
p8
(lp9
F-2.6475475609810983
aF-4.2119184564645664
aF-0.29358658359224332
aF-3.0444030509916598
aF-1.1401460252634035
asS'accel_x'
p10
F0
sS'accel_y'
p11
F0
sS'maxAccel'
p12
I2
sS'maxVel'
p13
F0.69999999999999996
sS'age'
p14
I0
sS'radius'
p15
I2
sS'gener'
p16
S'm'
sS'lastScale'
p17
F15.5
sS'energy'
p18
F1.5
sb.(i__main__
Data_mobile
p1
(dp2
S'vel_y'
p3
I0
sS'vel_x'
p4
I0
sS'pos_x'
p5
F-69.407185047130028
sS'pos_y'
p6
F99.968103321643696
sS'isAlive'
p7
I01
sS'geno'
p8
(lp9
F-1.1112233651808356
aF0.59358708666305304
aF-0.53514764333438336
aF0.26171640961285991
aF-1.236096137955871
asS'accel_x'
p10
F0
sS'accel_y'
p11
F0
sS'maxAccel'
p12
I2
sS'maxVel'
p13
F0.69999999999999996
sS'age'
p14
I0
sS'radius'
p15
I2
sS'gener'
p16
S'm'
sS'lastScale'
p17
F15.5
sS'energy'
p18
F1.5
sb.(i__main__
Data_mobile
p1
(dp2
S'vel_y'
p3
I0
sS'vel_x'
p4
I0
sS'pos_x'
p5
F-3.2078749093481846
sS'pos_y'
p6
F-77.235081635116927
sS'isAlive'
p7
I01
sS'geno'
p8
(lp9
F0.86087107789763273
aF-1.8559125085880348
aF3.474301342054023
aF3.6717746995829561
aF-0.20744915285413157
asS'accel_x'
p10
F0
sS'accel_y'
p11
F0
sS'maxAccel'
p12
I2
sS'maxVel'
p13
F0.69999999999999996
sS'age'
p14
I0
sS'radius'
p15
I2
sS'gener'
p16
S'm'
sS'lastScale'
p17
F15.5
sS'energy'
p18
F1.5
sb.(i__main__
Data_mobile
p1
(dp2
S'vel_y'
p3
I0
sS'vel_x'
p4
I0
sS'pos_x'
p5
F-22.440330580861449
sS'pos_y'
p6
F-56.911082654414066
sS'isAlive'
p7
I01
sS'geno'
p8
(lp9
F-2.7362418342859263
aF2.5282585705148133
aF-2.0844879918459536
aF-4.9349033281629371
aF3.4970895675158822
asS'accel_x'
p10
F0
sS'accel_y'
p11
F0
sS'maxAccel'
p12
I2
sS'maxVel'
p13
F0.69999999999999996
sS'age'
p14
I0
sS'radius'
p15
I2
sS'gener'
p16
S'm'
sS'lastScale'
p17
F15.5
sS'energy'
p18
F1.5
sb.(i__main__
Data_mobile
p1
(dp2
S'vel_y'
p3
I0
sS'vel_x'
p4
I0
sS'pos_x'
p5
F-8.9884043048693059
sS'pos_y'
p6
F5.3090735360032397
sS'isAlive'
p7
I01
sS'geno'
p8
(lp9
F-2.8546796068930091
aF-1.7992490255194413
aF-0.055466243693647499
aF-2.6241666883429016
aF-1.9676925156318035
asS'accel_x'
p10
F0
sS'accel_y'
p11
F0
sS'maxAccel'
p12
I2
sS'maxVel'
p13
F0.69999999999999996
sS'age'
p14
I0
sS'radius'
p15
I2
sS'gener'
p16
S'm'
sS'lastScale'
p17
F15.5
sS'energy'
p18
F1.5
sb.(i__main__
Data_mobile
p1
(dp2
S'vel_y'
p3
I0
sS'vel_x'
p4
I0
sS'pos_x'
p5
F-21.569822560514417
sS'pos_y'
p6
F50.756822104466423
sS'isAlive'
p7
I01
sS'geno'
p8
(lp9
F4.87776082411205
aF0.66949158720727908
aF-1.0207271132599596
aF0.55343335700169494
aF-1.272623366918455
asS'accel_x'
p10
F0
sS'accel_y'
p11
F0
sS'maxAccel'
p12
I2
sS'maxVel'
p13
F0.69999999999999996
sS'age'
p14
I0
sS'radius'
p15
I2
sS'gener'
p16
S'm'
sS'lastScale'
p17
F15.5
sS'energy'
p18
F1.5
sb.(i__main__
Data_mobile
p1
(dp2
S'vel_y'
p3
I0
sS'vel_x'
p4
I0
sS'pos_x'
p5
F-3.8499943431954193
sS'pos_y'
p6
F64.378630510440644
sS'isAlive'
p7
I01
sS'geno'
p8
(lp9
F1.2936885406222931
aF-0.14194564379253816
aF-1.5965922810779043
aF4.83362133295803
aF-2.1386603990773265
asS'accel_x'
p10
F0
sS'accel_y'
p11
F0
sS'maxAccel'
p12
I2
sS'maxVel'
p13
F0.69999999999999996
sS'age'
p14
I0
sS'radius'
p15
I2
sS'gener'
p16
S'm'
sS'lastScale'
p17
F15.5
sS'energy'
p18
F1.5
sb.(i__main__
Data_mobile
p1
(dp2
S'vel_y'
p3
I0
sS'vel_x'
p4
I0
sS'pos_x'
p5
F83.191656611905955
sS'pos_y'
p6
F-99.040087383894885
sS'isAlive'
p7
I01
sS'geno'
p8
(lp9
F-0.50984731377077264
aF4.4501523053815504
aF-0.96814858774659651
aF4.8413753893547291
aF2.5741341488371186
asS'accel_x'
p10
F0
sS'accel_y'
p11
F0
sS'maxAccel'
p12
I2
sS'maxVel'
p13
F0.69999999999999996
sS'age'
p14
I0
sS'radius'
p15
I2
sS'gener'
p16
S'm'
sS'lastScale'
p17
F15.5
sS'energy'
p18
F1.5
sb.(i__main__
Data_mobile
p1
(dp2
S'vel_y'
p3
I0
sS'vel_x'
p4
I0
sS'pos_x'
p5
F101.08466532365074
sS'pos_y'
p6
F-42.665777281819665
sS'isAlive'
p7
I01
sS'geno'
p8
(lp9
F2.4674622185544184
aF0.28011304027245565
aF2.1847046666365175
aF-3.7327579582371451
aF1.5676693050526751
asS'accel_x'
p10
F0
sS'accel_y'
p11
F0
sS'maxAccel'
p12
I2
sS'maxVel'
p13
F0.69999999999999996
sS'age'
p14
I0
sS'radius'
p15
I2
sS'gener'
p16
S'm'
sS'lastScale'
p17
F15.5
sS'energy'
p18
F1.5
sb.(i__main__
Data_mobile
p1
(dp2
S'vel_y'
p3
I0
sS'vel_x'
p4
I0
sS'pos_x'
p5
F66.181439577959765
sS'pos_y'
p6
F0.41747817527770081
sS'isAlive'
p7
I01
sS'geno'
p8
(lp9
F-1.9830551062414772
aF-1.7138516900939624
aF3.6840634770025211
aF4.9519940528887005
aF-2.9975457108849737
asS'accel_x'
p10
F0
sS'accel_y'
p11
F0
sS'maxAccel'
p12
I2
sS'maxVel'
p13
F0.69999999999999996
sS'age'
p14
I0
sS'radius'
p15
I2
sS'gener'
p16
S'm'
sS'lastScale'
p17
F15.5
sS'energy'
p18
F1.5
sb.(i__main__
Data_mobile
p1
(dp2
S'vel_y'
p3
I0
sS'vel_x'
p4
I0
sS'pos_x'
p5
F82.673888069573778
sS'pos_y'
p6
F46.015493124054316
sS'isAlive'
p7
I01
sS'geno'
p8
(lp9
F-0.20162756817883842
aF3.978164054675382
aF1.0725365520892538
aF-0.71205866019879416
aF-4.4855607883949142
asS'accel_x'
p10
F0
sS'accel_y'
p11
F0
sS'maxAccel'
p12
I2
sS'maxVel'
p13
F0.69999999999999996
sS'age'
p14
I0
sS'radius'
p15
I2
sS'gener'
p16
S'm'
sS'lastScale'
p17
F15.5
sS'energy'
p18
F1.5
sb.(i__main__
Data_mobile
p1
(dp2
S'vel_y'
p3
I0
sS'vel_x'
p4
I0
sS'pos_x'
p5
F118.90036493048952
sS'pos_y'
p6
F89.769602297802081
sS'isAlive'
p7
I01
sS'geno'
p8
(lp9
F4.7530978337493366
aF-2.0213882800798597
aF3.2428553288594433
aF-3.797403484656666
aF4.6795849988584166
asS'accel_x'
p10
F0
sS'accel_y'
p11
F0
sS'maxAccel'
p12
I2
sS'maxVel'
p13
F0.69999999999999996
sS'age'
p14
I0
sS'radius'
p15
I2
sS'gener'
p16
S'm'
sS'lastScale'
p17
F15.5
sS'energy'
p18
F1.5
sb.(i__main__
Data_mobile
p1
(dp2
S'vel_y'
p3
I0
sS'vel_x'
p4
I0
sS'pos_x'
p5
F178.3673019410277
sS'pos_y'
p6
F-98.484345759534932
sS'isAlive'
p7
I01
sS'geno'
p8
(lp9
F4.8402420225532623
aF-2.1194266786781202
aF-2.0144716203170576
aF-0.66292548140834384
aF4.6466009590605175
asS'accel_x'
p10
F0
sS'accel_y'
p11
F0
sS'maxAccel'
p12
I2
sS'maxVel'
p13
F0.69999999999999996
sS'age'
p14
I0
sS'radius'
p15
I2
sS'gener'
p16
S'm'
sS'lastScale'
p17
F15.5
sS'energy'
p18
F1.5
sb.(i__main__
Data_mobile
p1
(dp2
S'vel_y'
p3
I0
sS'vel_x'
p4
I0
sS'pos_x'
p5
F135.41064714853667
sS'pos_y'
p6
F-41.61718727011273
sS'isAlive'
p7
I01
sS'geno'
p8
(lp9
F1.9330604736353605
aF-2.684115368503238
aF4.3633269278365425
aF0.87261786448277778
aF-2.7847687876572227
asS'accel_x'
p10
F0
sS'accel_y'
p11
F0
sS'maxAccel'
p12
I2
sS'maxVel'
p13
F0.69999999999999996
sS'age'
p14
I0
sS'radius'
p15
I2
sS'gener'
p16
S'm'
sS'lastScale'
p17
F15.5
sS'energy'
p18
F1.5
sb.(i__main__
Data_mobile
p1
(dp2
S'vel_y'
p3
I0
sS'vel_x'
p4
I0
sS'pos_x'
p5
F146.85909375091555
sS'pos_y'
p6
F19.268128881591061
sS'isAlive'
p7
I01
sS'geno'
p8
(lp9
F2.5649288002391852
aF-4.4270791475600433
aF2.5749874411303084
aF1.8535358454914785
aF-3.3612792100893829
asS'accel_x'
p10
F0
sS'accel_y'
p11
F0
sS'maxAccel'
p12
I2
sS'maxVel'
p13
F0.69999999999999996
sS'age'
p14
I0
sS'radius'
p15
I2
sS'gener'
p16
S'm'
sS'lastScale'
p17
F15.5
sS'energy'
p18
F1.5
sb.(i__main__
Data_mobile
p1
(dp2
S'vel_y'
p3
I0
sS'vel_x'
p4
I0
sS'pos_x'
p5
F138.92501954281832
sS'pos_y'
p6
F20.881098991293072
sS'isAlive'
p7
I01
sS'geno'
p8
(lp9
F-0.92525942661324301
aF-4.5261921484096987
aF-1.0299718979133408
aF2.667990607909787
aF4.7349505092319983
asS'accel_x'
p10
F0
sS'accel_y'
p11
F0
sS'maxAccel'
p12
I2
sS'maxVel'
p13
F0.69999999999999996
sS'age'
p14
I0
sS'radius'
p15
I2
sS'gener'
p16
S'm'
sS'lastScale'
p17
F15.5
sS'energy'
p18
F1.5
sb.(i__main__
Data_mobile
p1
(dp2
S'vel_y'
p3
I0
sS'vel_x'
p4
I0
sS'pos_x'
p5
F173.97937276010111
sS'pos_y'
p6
F74.505132922824771
sS'isAlive'
p7
I01
sS'geno'
p8
(lp9
F4.5153502952904816
aF3.2217861439429587
aF-0.018147531899607827
aF-1.3041844756831011
aF-1.1246834088985525
asS'accel_x'
p10
F0
sS'accel_y'
p11
F0
sS'maxAccel'
p12
I2
sS'maxVel'
p13
F0.69999999999999996
sS'age'
p14
I0
sS'radius'
p15
I2
sS'gener'
p16
S'm'
sS'lastScale'
p17
F15.5
sS'energy'
p18
F1.5
sb.