(i__main__
Data_mobile
p1
(dp2
S'vel_y'
p3
F-0.45461007211624566
sS'vel_x'
p4
F-0.20815783033665083
sS'pos_x'
p5
F90.446504641861054
sS'pos_y'
p6
F-88.622920515039809
sS'isAlive'
p7
I01
sS'geno'
p8
(lp9
F-1.9405111193289204
aF-4.5685982935747278
aF0.80896238186894376
aF4.5830050372792908
aF3.1852199978500408
aF-2.0730399024827286
asS'accel_x'
p10
F-1.3895121961812147
sS'accel_y'
p11
F1.4384908260616949
sS'maxAccel'
p12
I2
sS'maxVel'
p13
F0.5
sS'age'
p14
I150
sS'gener'
p15
S'm'
sS'lastScale'
p16
F15.4
sS'energy'
p17
F0.98999999999999999
sb.(i__main__
Data_mobile
p1
(dp2
S'vel_y'
p3
F0.24703285771099276
sS'vel_x'
p4
F0.14607279413666729
sS'pos_x'
p5
F15.563800227276349
sS'pos_y'
p6
F-20.709161973241201
sS'isAlive'
p7
I01
sS'geno'
p8
(lp9
F0.45220863168296876
aF-1.6062668747378215
aF0.80896238186894376
aF4.2347823906985305
aF2.8119175618407795
aF-0.80898073246756397
asS'accel_x'
p10
F0
sS'accel_y'
p11
F0
sS'maxAccel'
p12
I2
sS'maxVel'
p13
F0.5
sS'age'
p14
I0
sS'gener'
p15
S'm'
sS'lastScale'
p16
F5.5
sS'energy'
p17
F0.5
sb.(i__main__
Data_mobile
p1
(dp2
S'vel_y'
p3
F0.39114567380368176
sS'vel_x'
p4
F-0.31145635627590551
sS'pos_x'
p5
F-50.333519683200365
sS'pos_y'
p6
F-38.180591823861079
sS'isAlive'
p7
I01
sS'geno'
p8
(lp9
F-0.20986348397593169
aF-1.9980260445078455
aF0.80896238186894376
aF4.4233237868644224
aF3.1852199978500408
aF-0.95602281803902578
asS'accel_x'
p10
F-1.446143205880785
sS'accel_y'
p11
F-1.3815461729833158
sS'maxAccel'
p12
I2
sS'maxVel'
p13
F0.5
sS'age'
p14
I150
sS'gener'
p15
S'm'
sS'lastScale'
p16
F15.4
sS'energy'
p17
F0.98999999999999999
sb.(i__main__
Data_mobile
p1
(dp2
S'vel_y'
p3
F0.080930944906930105
sS'vel_x'
p4
F-0.26268165811448396
sS'pos_x'
p5
F78.292271996229289
sS'pos_y'
p6
F-73.950712731462289
sS'isAlive'
p7
I01
sS'geno'
p8
(lp9
F-1.9405111193289204
aF-1.6062668747378215
aF1.0604197585379032
aF4.3159030456607113
aF3.1852199978500408
aF-2.0730399024827286
asS'accel_x'
p10
F0
sS'accel_y'
p11
F0
sS'maxAccel'
p12
I2
sS'maxVel'
p13
F0.5
sS'age'
p14
I0
sS'gener'
p15
S'm'
sS'lastScale'
p16
F5.5
sS'energy'
p17
F0.5
sb.(i__main__
Data_mobile
p1
(dp2
S'vel_y'
p3
F0.071037195883727033
sS'vel_x'
p4
F0.47863612230340447
sS'pos_x'
p5
F118.23734486195417
sS'pos_y'
p6
F-42.421775735980482
sS'isAlive'
p7
I01
sS'geno'
p8
(lp9
F-0.44786608594764388
aF-1.6062668747378215
aF1.1672604586944288
aF4.5830050372792908
aF3.1852199978500408
aF-2.0730399024827286
asS'accel_x'
p10
F0
sS'accel_y'
p11
F0
sS'maxAccel'
p12
I2
sS'maxVel'
p13
F0.5
sS'age'
p14
I0
sS'gener'
p15
S'm'
sS'lastScale'
p16
F5.5
sS'energy'
p17
F0.5
sb.(i__main__
Data_mobile
p1
(dp2
S'vel_y'
p3
F-0.14493103168175625
sS'vel_x'
p4
F-0.42064777742724418
sS'pos_x'
p5
F33.140138262305882
sS'pos_y'
p6
F-43.445899519815342
sS'isAlive'
p7
I01
sS'geno'
p8
(lp9
F-0.016571782053739659
aF-1.6062668747378215
aF0.80896238186894376
aF4.5830050372792908
aF3.1852199978500408
aF-2.0730399024827286
asS'accel_x'
p10
F0
sS'accel_y'
p11
F0
sS'maxAccel'
p12
I2
sS'maxVel'
p13
F0.5
sS'age'
p14
I0
sS'gener'
p15
S'm'
sS'lastScale'
p16
F5.5
sS'energy'
p17
F0.5
sb.(i__main__
Data_mobile
p1
(dp2
S'vel_y'
p3
F0.018381540882240456
sS'vel_x'
p4
F-0.49966200471398114
sS'pos_x'
p5
F-147.94153725986888
sS'pos_y'
p6
F18.754572001672063
sS'isAlive'
p7
I01
sS'geno'
p8
(lp9
F0.45220863168296876
aF-1.6062668747378215
aF0.80896238186894376
aF4.5830050372792908
aF3.1852199978500408
aF-0.80898073246756397
asS'accel_x'
p10
F-0.7414371052916352
sS'accel_y'
p11
F1.8574905165025097
sS'maxAccel'
p12
I2
sS'maxVel'
p13
F0.5
sS'age'
p14
I50
sS'gener'
p15
S'm'
sS'lastScale'
p16
F5.5
sS'energy'
p17
I0
sb.(i__main__
Data_mobile
p1
(dp2
S'vel_y'
p3
F0.49905444052650128
sS'vel_x'
p4
F-0.030735409396667551
sS'pos_x'
p5
F-106.76172535457108
sS'pos_y'
p6
F29.115137582090313
sS'isAlive'
p7
I01
sS'geno'
p8
(lp9
F-0.016571782053739659
aF-1.6062668747378215
aF0.80896238186894376
aF4.5830050372792908
aF3.1852199978500408
aF-0.80898073246756397
asS'accel_x'
p10
F-1.9999395377261737
sS'accel_y'
p11
F0.015551380633851888
sS'maxAccel'
p12
I2
sS'maxVel'
p13
F0.5
sS'age'
p14
I300
sS'gener'
p15
S'm'
sS'lastScale'
p16
F5.5
sS'energy'
p17
I0
sb.(i__main__
Data_mobile
p1
(dp2
S'vel_y'
p3
F0.27473790798754189
sS'vel_x'
p4
F0.41775481076180193
sS'pos_x'
p5
F147.66816550255564
sS'pos_y'
p6
F-62.495860716081822
sS'isAlive'
p7
I01
sS'geno'
p8
(lp9
F-1.9405111193289204
aF-4.5685982935747278
aF0.80896238186894376
aF4.5830050372792908
aF3.1852199978500408
aF-2.0730399024827286
asS'accel_x'
p10
F-1.9367435148619236
sS'accel_y'
p11
F0.49902360429170284
sS'maxAccel'
p12
I2
sS'maxVel'
p13
F0.5
sS'age'
p14
I150
sS'gener'
p15
S'm'
sS'lastScale'
p16
F15.4
sS'energy'
p17
F0.98999999999999999
sb.(i__main__
Data_mobile
p1
(dp2
S'vel_y'
p3
F0.3454746313946756
sS'vel_x'
p4
F0.36145162755576715
sS'pos_x'
p5
F145.55222305368727
sS'pos_y'
p6
F-62.258408325475258
sS'isAlive'
p7
I01
sS'geno'
p8
(lp9
F-1.9405111193289204
aF-4.5685982935747278
aF0.80896238186894376
aF4.5830050372792908
aF3.1852199978500408
aF-2.0730399024827286
asS'accel_x'
p10
F-1.938163280135482
sS'accel_y'
p11
F-0.49348059691792207
sS'maxAccel'
p12
I2
sS'maxVel'
p13
F0.5
sS'age'
p14
I150
sS'gener'
p15
S'm'
sS'lastScale'
p16
F15.4
sS'energy'
p17
F0.98999999999999999
sb.(i__main__
Data_mobile
p1
(dp2
S'vel_y'
p3
F-0.013282377427791125
sS'vel_x'
p4
F0.49982354731431544
sS'pos_x'
p5
F28.503459513841641
sS'pos_y'
p6
F-46.529145403031919
sS'isAlive'
p7
I01
sS'geno'
p8
(lp9
F-0.016571782053739659
aF-1.6062668747378215
aF0.80896238186894376
aF4.2347823906985305
aF2.8119175618407795
aF-0.80898073246756397
asS'accel_x'
p10
F1.1625722198282613
sS'accel_y'
p11
F1.6273984864450346
sS'maxAccel'
p12
I2
sS'maxVel'
p13
F0.5
sS'age'
p14
I100
sS'gener'
p15
S'm'
sS'lastScale'
p16
F15.4
sS'energy'
p17
F0.98999999999999999
sb.(i__main__
Data_mobile
p1
(dp2
S'vel_y'
p3
F0.46766865388304768
sS'vel_x'
p4
F0.1768785746641412
sS'pos_x'
p5
F-174.75272538077766
sS'pos_y'
p6
F23.635220945290786
sS'isAlive'
p7
I01
sS'geno'
p8
(lp9
F0.45220863168296876
aF-1.144730229373901
aF2.3731605109140066
aF4.5830050372792908
aF2.8119175618407795
aF-0.80898073246756397
asS'accel_x'
p10
F0.5267103559036016
sS'accel_y'
p11
F1.9293978856067766
sS'maxAccel'
p12
I2
sS'maxVel'
p13
F0.5
sS'age'
p14
I150
sS'gener'
p15
S'm'
sS'lastScale'
p16
F7.4999999999999929
sS'energy'
p17
F0.19999999999999923
sb.(i__main__
Data_mobile
p1
(dp2
S'vel_y'
p3
F-0.32050527800782563
sS'vel_x'
p4
F-0.38376603128615544
sS'pos_x'
p5
F90.749494034315745
sS'pos_y'
p6
F-88.996849573270623
sS'isAlive'
p7
I01
sS'geno'
p8
(lp9
F-0.016571782053739659
aF-1.6062668747378215
aF0.80896238186894376
aF4.712670146659578
aF3.1852199978500408
aF-2.5564931577529193
asS'accel_x'
p10
F-1.6425458819212535
sS'accel_y'
p11
F1.1410709994489963
sS'maxAccel'
p12
I2
sS'maxVel'
p13
F0.5
sS'age'
p14
I100
sS'gener'
p15
S'm'
sS'lastScale'
p16
F15.4
sS'energy'
p17
F0.98999999999999999
sb.(i__main__
Data_mobile
p1
(dp2
S'vel_y'
p3
F0.26699964964107981
sS'vel_x'
p4
F-0.42274245953244466
sS'pos_x'
p5
F-50.589059712102937
sS'pos_y'
p6
F-38.010299654317635
sS'isAlive'
p7
I01
sS'geno'
p8
(lp9
F-0.20986348397593169
aF-1.9980260445078455
aF0.80896238186894376
aF4.5830050372792908
aF3.1852199978500408
aF-0.95602281803902578
asS'accel_x'
p10
F-0.8907743331525968
sS'accel_y'
p11
F-1.7906761536907077
sS'maxAccel'
p12
I2
sS'maxVel'
p13
F0.5
sS'age'
p14
I250
sS'gener'
p15
S'm'
sS'lastScale'
p16
F15.4
sS'energy'
p17
F0.98999999999999999
sb.(i__main__
Data_mobile
p1
(dp2
S'vel_y'
p3
F0.25318249280866123
sS'vel_x'
p4
F-0.43115962860081442
sS'pos_x'
p5
F-114.49499996165716
sS'pos_y'
p6
F28.383599604211987
sS'isAlive'
p7
I01
sS'geno'
p8
(lp9
F0.45220863168296876
aF-1.6062668747378215
aF0.80896238186894376
aF4.5830050372792908
aF3.1852199978500408
aF-0.80898073246756397
asS'accel_x'
p10
F-0.82051864272868602
sS'accel_y'
p11
F-1.8239378160821917
sS'maxAccel'
p12
I2
sS'maxVel'
p13
F0.5
sS'age'
p14
I300
sS'gener'
p15
S'm'
sS'lastScale'
p16
F5.5
sS'energy'
p17
I0
sb.(i__main__
Data_mobile
p1
(dp2
S'vel_y'
p3
F-0.41734044947279364
sS'vel_x'
p4
F0.27536693562199255
sS'pos_x'
p5
F6.5083869745957967
sS'pos_y'
p6
F-32.846967834077283
sS'isAlive'
p7
I01
sS'geno'
p8
(lp9
F-2.2810103231760688
aF-4.5685982935747278
aF0.42736956020392503
aF4.5830050372792908
aF3.1852199978500408
aF-2.0730399024827286
asS'accel_x'
p10
F-1.6381282999490874
sS'accel_y'
p11
F-1.1474038839510323
sS'maxAccel'
p12
I2
sS'maxVel'
p13
F0.5
sS'age'
p14
I100
sS'gener'
p15
S'm'
sS'lastScale'
p16
F15.4
sS'energy'
p17
F0.98999999999999999
sb.(i__main__
Data_mobile
p1
(dp2
S'vel_y'
p3
F-0.49754734050466976
sS'vel_x'
p4
F-0.049463561909048
sS'pos_x'
p5
F96.509357451570196
sS'pos_y'
p6
F-34.965341255531669
sS'isAlive'
p7
I01
sS'geno'
p8
(lp9
F0.45220863168296876
aF-1.6062668747378215
aF0.80896238186894376
aF4.5830050372792908
aF3.1852199978500408
aF-2.0730399024827286
asS'accel_x'
p10
F0.029986561485099438
sS'accel_y'
p11
F-1.9997751888975668
sS'maxAccel'
p12
I2
sS'maxVel'
p13
F0.5
sS'age'
p14
I250
sS'gener'
p15
S'm'
sS'lastScale'
p16
F14.6
sS'energy'
p17
F0.90999999999999992
sb.(i__main__
Data_mobile
p1
(dp2
S'vel_y'
p3
F0.49972349084146539
sS'vel_x'
p4
F-0.016626265402064095
sS'pos_x'
p5
F-91.185290364256105
sS'pos_y'
p6
F21.620255924390658
sS'isAlive'
p7
I01
sS'geno'
p8
(lp9
F-0.45383342273293392
aF-1.4586068875390836
aF2.4541528827522683
aF4.1839237767187214
aF3.1852199978500408
aF-0.80898073246756397
asS'accel_x'
p10
F-0.5665736411392287
sS'accel_y'
p11
F-1.9180704651201521
sS'maxAccel'
p12
I2
sS'maxVel'
p13
F0.5
sS'age'
p14
I200
sS'gener'
p15
S'm'
sS'lastScale'
p16
F5.5
sS'energy'
p17
I0
sb.(i__main__
Data_mobile
p1
(dp2
S'vel_y'
p3
F-0.12940810767825833
sS'vel_x'
p4
F-0.43837241369417862
sS'pos_x'
p5
F23.269057526896773
sS'pos_y'
p6
F-42.934395772853982
sS'isAlive'
p7
I01
sS'geno'
p8
(lp9
F0.45220863168296876
aF-1.4403711289353391
aF0.80896238186894376
aF4.5830050372792908
aF3.1852199978500408
aF-2.0730399024827286
asS'accel_x'
p10
F0
sS'accel_y'
p11
F0
sS'maxAccel'
p12
I2
sS'maxVel'
p13
F0.5
sS'age'
p14
I0
sS'gener'
p15
S'm'
sS'lastScale'
p16
F5.5
sS'energy'
p17
F0.5
sb.(i__main__
Data_mobile
p1
(dp2
S'vel_y'
p3
F0.031697090467026942
sS'vel_x'
p4
F0.49899428298921933
sS'pos_x'
p5
F-175.00244054816434
sS'pos_y'
p6
F22.415889081951484
sS'isAlive'
p7
I01
sS'geno'
p8
(lp9
F-0.20986348397593169
aF-1.508433563003996
aF0.80896238186894376
aF4.5830050372792908
aF3.1852199978500408
aF-2.0730399024827286
asS'accel_x'
p10
F-1.1625349587063212
sS'accel_y'
p11
F1.6274251042016319
sS'maxAccel'
p12
I2
sS'maxVel'
p13
F0.5
sS'age'
p14
I50
sS'gener'
p15
S'm'
sS'lastScale'
p16
F7.4999999999999973
sS'energy'
p17
F0.19999999999999968
sb.(i__main__
Data_mobile
p1
(dp2
S'vel_y'
p3
F-0.37066501998856538
sS'vel_x'
p4
F0.33557032490504346
sS'pos_x'
p5
F176.84411406531834
sS'pos_y'
p6
F-5.4317065009834318
sS'isAlive'
p7
I01
sS'geno'
p8
(lp9
F0.45220863168296876
aF-1.144730229373901
aF2.3731605109140066
aF4.5830050372792908
aF2.8119175618407795
aF-0.80898073246756397
asS'accel_x'
p10
F1.902995989052545
sS'accel_y'
p11
F-0.61530989399645231
sS'maxAccel'
p12
I2
sS'maxVel'
p13
F0.5
sS'age'
p14
I300
sS'gener'
p15
S'm'
sS'lastScale'
p16
F10.799999999999995
sS'energy'
p17
F0.52999999999999958
sb.(i__main__
Data_mobile
p1
(dp2
S'vel_y'
p3
F0.076170148549969327
sS'vel_x'
p4
F0.49416405015933285
sS'pos_x'
p5
F141.88048859587218
sS'pos_y'
p6
F-6.2089270674218593
sS'isAlive'
p7
I01
sS'geno'
p8
(lp9
F-0.20986348397593169
aF-1.6062668747378215
aF0.39213193002083091
aF4.5830050372792908
aF3.1852199978500408
aF-2.0730399024827286
asS'accel_x'
p10
F1.0612006040296065
sS'accel_y'
p11
F1.6952443121884224
sS'maxAccel'
p12
I2
sS'maxVel'
p13
F0.5
sS'age'
p14
I100
sS'gener'
p15
S'm'
sS'lastScale'
p16
F10.799999999999995
sS'energy'
p17
F0.52999999999999958
sb.(i__main__
Data_mobile
p1
(dp2
S'vel_y'
p3
F0.49353095333121733
sS'vel_x'
p4
F-0.080169807932786136
sS'pos_x'
p5
F180.67267414489808
sS'pos_y'
p6
F51.663229018159001
sS'isAlive'
p7
I01
sS'geno'
p8
(lp9
F0.45220863168296876
aF-1.4586068875390836
aF2.4541528827522683
aF4.6389972739974654
aF3.1852199978500408
aF-2.0730399024827286
asS'accel_x'
p10
F-0.33736552291917021
sS'accel_y'
p11
F1.9713407883837522
sS'maxAccel'
p12
I2
sS'maxVel'
p13
F0.5
sS'age'
p14
I100
sS'gener'
p15
S'm'
sS'lastScale'
p16
F10.799999999999995
sS'energy'
p17
F0.52999999999999958
sb.(i__main__
Data_mobile
p1
(dp2
S'vel_y'
p3
F-0.13205529959047591
sS'vel_x'
p4
F0.48224620045166733
sS'pos_x'
p5
F28.670517361095474
sS'pos_y'
p6
F-46.84653426659537
sS'isAlive'
p7
I01
sS'geno'
p8
(lp9
F-0.20986348397593169
aF-1.9980260445078455
aF0.80896238186894376
aF4.5830050372792908
aF3.1852199978500408
aF-2.0730399024827286
asS'accel_x'
p10
F-0.73702260815854348
sS'accel_y'
p11
F1.8592465342345477
sS'maxAccel'
p12
I2
sS'maxVel'
p13
F0.5
sS'age'
p14
I100
sS'gener'
p15
S'm'
sS'lastScale'
p16
F15.4
sS'energy'
p17
F0.98999999999999999
sb.(i__main__
Data_mobile
p1
(dp2
S'vel_y'
p3
F-0.037176148868086158
sS'vel_x'
p4
F-0.49861601855068588
sS'pos_x'
p5
F152.23833706830524
sS'pos_y'
p6
F-8.636897661872597
sS'isAlive'
p7
I01
sS'geno'
p8
(lp9
F-0.20986348397593169
aF-1.4586068875390836
aF2.4541528827522683
aF4.6389972739974654
aF3.1852199978500408
aF-2.0730399024827286
asS'accel_x'
p10
F-0.94925117981368423
sS'accel_y'
p11
F-1.7603755842496589
sS'maxAccel'
p12
I2
sS'maxVel'
p13
F0.5
sS'age'
p14
I250
sS'gener'
p15
S'm'
sS'lastScale'
p16
F11.999999999999996
sS'energy'
p17
F0.64999999999999969
sb.(i__main__
Data_mobile
p1
(dp2
S'vel_y'
p3
F-0.41886453114221894
sS'vel_x'
p4
F0.27304304523464629
sS'pos_x'
p5
F-119.27494577513339
sS'pos_y'
p6
F-37.899041032641101
sS'isAlive'
p7
I01
sS'geno'
p8
(lp9
F0.45220863168296876
aF-1.6062668747378215
aF0.80896238186894376
aF4.5830050372792908
aF3.1852199978500408
aF-2.0730399024827286
asS'accel_x'
p10
F1.8355612377113064
sS'accel_y'
p11
F-0.79417563713056383
sS'maxAccel'
p12
I2
sS'maxVel'
p13
F0.5
sS'age'
p14
I300
sS'gener'
p15
S'm'
sS'lastScale'
p16
F15.4
sS'energy'
p17
F0.98999999999999999
sb.(i__main__
Data_mobile
p1
(dp2
S'vel_y'
p3
F-0.49754660931489492
sS'vel_x'
p4
F-0.049470916296863711
sS'pos_x'
p5
F172.58494890838355
sS'pos_y'
p6
F-41.616354333398192
sS'isAlive'
p7
I01
sS'geno'
p8
(lp9
F-0.20986348397593169
aF-1.6062668747378215
aF0.3861408942921748
aF4.5830050372792908
aF3.1852199978500408
aF-2.0730399024827286
asS'accel_x'
p10
F0.54786041077594838
sS'accel_y'
p11
F-1.9234991474665148
sS'maxAccel'
p12
I2
sS'maxVel'
p13
F0.5
sS'age'
p14
I150
sS'gener'
p15
S'm'
sS'lastScale'
p16
F11.999999999999996
sS'energy'
p17
F0.64999999999999969
sb.(i__main__
Data_mobile
p1
(dp2
S'vel_y'
p3
F-0.25094087542166221
sS'vel_x'
p4
F0.43246812257391859
sS'pos_x'
p5
F-176.07078387815591
sS'pos_y'
p6
F22.493433524220659
sS'isAlive'
p7
I01
sS'geno'
p8
(lp9
F0.45220863168296876
aF-1.6062668747378215
aF1.2051324342573539
aF4.2347823906985305
aF3.1852199978500408
aF-2.0730399024827286
asS'accel_x'
p10
F-1.8698339013360672
sS'accel_y'
p11
F0.70973317621085075
sS'maxAccel'
p12
I2
sS'maxVel'
p13
F0.5
sS'age'
p14
I300
sS'gener'
p15
S'm'
sS'lastScale'
p16
F12.699999999999998
sS'energy'
p17
F0.71999999999999975
sb.(i__main__
Data_mobile
p1
(dp2
S'vel_y'
p3
F-0.49975996307914744
sS'vel_x'
p4
F-0.015491265381795231
sS'pos_x'
p5
F181.69679217466427
sS'pos_y'
p6
F-51.143869696438017
sS'isAlive'
p7
I01
sS'geno'
p8
(lp9
F0.45220863168296876
aF-1.6062668747378215
aF0.80896238186894376
aF4.5830050372792908
aF3.1852199978500408
aF-2.0730399024827286
asS'accel_x'
p10
F-0.053145932020347723
sS'accel_y'
p11
F-1.9992937527811385
sS'maxAccel'
p12
I2
sS'maxVel'
p13
F0.5
sS'age'
p14
I300
sS'gener'
p15
S'm'
sS'lastScale'
p16
F11.999999999999996
sS'energy'
p17
F0.64999999999999969
sb.(i__main__
Data_mobile
p1
(dp2
S'vel_y'
p3
F0.41964981522563849
sS'vel_x'
p4
F0.27183456840712428
sS'pos_x'
p5
F-186.93001787098521
sS'pos_y'
p6
F-84.727561026976858
sS'isAlive'
p7
I01
sS'geno'
p8
(lp9
F-0.016571782053739659
aF-1.9980260445078455
aF0.80896238186894376
aF4.5830050372792908
aF3.1852199978500408
aF-2.0730399024827286
asS'accel_x'
p10
F1.4474607722442938
sS'accel_y'
p11
F1.3801656831025588
sS'maxAccel'
p12
I2
sS'maxVel'
p13
F0.5
sS'age'
p14
I50
sS'gener'
p15
S'm'
sS'lastScale'
p16
F14.499999999999995
sS'energy'
p17
F0.89999999999999936
sb.(i__main__
Data_mobile
p1
(dp2
S'vel_y'
p3
F0.29473007270039492
sS'vel_x'
p4
F-0.40389873018619399
sS'pos_x'
p5
F-90.123882793155587
sS'pos_y'
p6
F19.909848542855343
sS'isAlive'
p7
I01
sS'geno'
p8
(lp9
F-0.45383342273293392
aF-1.4586068875390836
aF2.4541528827522683
aF4.1839237767187214
aF3.1852199978500408
aF-0.80898073246756397
asS'accel_x'
p10
F-0.85475105043638566
sS'accel_y'
p11
F-1.8081484014808891
sS'maxAccel'
p12
I2
sS'maxVel'
p13
F0.5
sS'age'
p14
I319
sS'gener'
p15
S'm'
sS'lastScale'
p16
F5.5
sS'energy'
p17
I0
sb.(i__main__
Data_mobile
p1
(dp2
S'vel_y'
p3
F0.49842477649971678
sS'vel_x'
p4
F-0.03965781349504012
sS'pos_x'
p5
F183.99809601785668
sS'pos_y'
p6
F-59.024888779299609
sS'isAlive'
p7
I01
sS'geno'
p8
(lp9
F0.45220863168296876
aF-1.144730229373901
aF2.3731605109140066
aF4.5830050372792908
aF3.1852199978500408
aF-2.0730399024827286
asS'accel_x'
p10
F-1.2157315285633277
sS'accel_y'
p11
F-1.5880796108687605
sS'maxAccel'
p12
I2
sS'maxVel'
p13
F0.5
sS'age'
p14
I100
sS'gener'
p15
S'm'
sS'lastScale'
p16
F15.4
sS'energy'
p17
F0.98999999999999999
sb.(i__main__
Data_mobile
p1
(dp2
S'vel_y'
p3
F-0.3803751703121781
sS'vel_x'
p4
F0.3245223101883466
sS'pos_x'
p5
F-118.88411595458413
sS'pos_y'
p6
F-39.362010531003804
sS'isAlive'
p7
I01
sS'geno'
p8
(lp9
F-0.45383342273293392
aF-1.4586068875390836
aF2.4541528827522683
aF4.5211525384770237
aF2.4756686226721971
aF-2.0730399024827286
asS'accel_x'
p10
F1.4637789735297058
sS'accel_y'
p11
F1.3628466959465106
sS'maxAccel'
p12
I2
sS'maxVel'
p13
F0.5
sS'age'
p14
I200
sS'gener'
p15
S'm'
sS'lastScale'
p16
F15.4
sS'energy'
p17
F0.98999999999999999
sb.(i__main__
Data_mobile
p1
(dp2
S'vel_y'
p3
F0.36327901694942294
sS'vel_x'
p4
F0.21001604170953694
sS'pos_x'
p5
F116.1789772834771
sS'pos_y'
p6
F-59.046114524025441
sS'isAlive'
p7
I01
sS'geno'
p8
(lp9
F-0.41088940919983252
aF-1.6062668747378215
aF0.80896238186894376
aF4.5830050372792908
aF3.1852199978500408
aF-2.0730399024827286
asS'accel_x'
p10
F0
sS'accel_y'
p11
F0
sS'maxAccel'
p12
I2
sS'maxVel'
p13
F0.5
sS'age'
p14
I0
sS'gener'
p15
S'm'
sS'lastScale'
p16
F5.5
sS'energy'
p17
F0.5
sb.(i__main__
Data_mobile
p1
(dp2
S'vel_y'
p3
F0.026827802286267594
sS'vel_x'
p4
F0.49927975026480792
sS'pos_x'
p5
F-20.738211877593073
sS'pos_y'
p6
F54.008730331249879
sS'isAlive'
p7
I01
sS'geno'
p8
(lp9
F0.45220863168296876
aF-1.6062668747378215
aF0.80896238186894376
aF4.5830050372792908
aF3.1852199978500408
aF-2.0730399024827286
asS'accel_x'
p10
F-0.31789710592185549
sS'accel_y'
p11
F1.9745737337578733
sS'maxAccel'
p12
I2
sS'maxVel'
p13
F0.5
sS'age'
p14
I150
sS'gener'
p15
S'm'
sS'lastScale'
p16
F15.4
sS'energy'
p17
F0.98999999999999999
sb.(i__main__
Data_mobile
p1
(dp2
S'vel_y'
p3
F0.46431103800909074
sS'vel_x'
p4
F-0.1855135035055957
sS'pos_x'
p5
F-176.39792734927187
sS'pos_y'
p6
F20.119423216634413
sS'isAlive'
p7
I01
sS'geno'
p8
(lp9
F0.45220863168296876
aF-1.6062668747378215
aF1.2051324342573539
aF4.2347823906985305
aF3.1852199978500408
aF-2.0730399024827286
asS'accel_x'
p10
F-1.6670083493786747
sS'accel_y'
p11
F1.1050263178321982
sS'maxAccel'
p12
I2
sS'maxVel'
p13
F0.5
sS'age'
p14
I100
sS'gener'
p15
S'm'
sS'lastScale'
p16
F12.699999999999998
sS'energy'
p17
F0.71999999999999975
sb.(i__main__
Data_mobile
p1
(dp2
S'vel_y'
p3
F-0.47609831762994098
sS'vel_x'
p4
F0.15274289492457541
sS'pos_x'
p5
F173.967700507226
sS'pos_y'
p6
F-43.674698286984551
sS'isAlive'
p7
I01
sS'geno'
p8
(lp9
F-0.20986348397593169
aF-1.6062668747378215
aF0.80896238186894376
aF4.5830050372792908
aF3.1852199978500408
aF-2.0730399024827286
asS'accel_x'
p10
F0.069269843303063142
sS'accel_y'
p11
F-1.998800062239535
sS'maxAccel'
p12
I2
sS'maxVel'
p13
F0.5
sS'age'
p14
I300
sS'gener'
p15
S'm'
sS'lastScale'
p16
F11.999999999999996
sS'energy'
p17
F0.64999999999999969
sb.(i__main__
Data_mobile
p1
(dp2
S'vel_y'
p3
F-0.064831019792871036
sS'vel_x'
p4
F0.4752070444738235
sS'pos_x'
p5
F-75.267080501439267
sS'pos_y'
p6
F-41.483011401105571
sS'isAlive'
p7
I01
sS'geno'
p8
(lp9
F-0.016571782053739659
aF-1.4586068875390836
aF2.8852239362211951
aF4.5211525384770237
aF2.4756686226721971
aF-2.0730399024827286
asS'accel_x'
p10
F0
sS'accel_y'
p11
F0
sS'maxAccel'
p12
I2
sS'maxVel'
p13
F0.5
sS'age'
p14
I0
sS'gener'
p15
S'm'
sS'lastScale'
p16
F5.5
sS'energy'
p17
F0.5
sb.(i__main__
Data_mobile
p1
(dp2
S'vel_y'
p3
F0.11120961929304873
sS'vel_x'
p4
F-0.48747555895315942
sS'pos_x'
p5
F89.89665121378151
sS'pos_y'
p6
F-88.942135147990314
sS'isAlive'
p7
I01
sS'geno'
p8
(lp9
F-1.9405111193289204
aF-4.5685982935747278
aF0.80896238186894376
aF4.5830050372792908
aF3.1852199978500408
aF-0.80898073246756397
asS'accel_x'
p10
F0.54262634303122914
sS'accel_y'
p11
F1.9249822471515301
sS'maxAccel'
p12
I2
sS'maxVel'
p13
F0.5
sS'age'
p14
I150
sS'gener'
p15
S'm'
sS'lastScale'
p16
F15.4
sS'energy'
p17
F0.98999999999999999
sb.(i__main__
Data_mobile
p1
(dp2
S'vel_y'
p3
F-0.49734879144646893
sS'vel_x'
p4
F0.0514215873611149
sS'pos_x'
p5
F180.08955332182427
sS'pos_y'
p6
F-52.152604728688935
sS'isAlive'
p7
I01
sS'geno'
p8
(lp9
F0.45220863168296876
aF-1.4586068875390836
aF2.4541528827522683
aF4.6389972739974654
aF3.1852199978500408
aF-2.0730399024827286
asS'accel_x'
p10
F-0.43385291505375195
sS'accel_y'
p11
F-1.9523758982581612
sS'maxAccel'
p12
I2
sS'maxVel'
p13
F0.5
sS'age'
p14
I250
sS'gener'
p15
S'm'
sS'lastScale'
p16
F11.999999999999996
sS'energy'
p17
F0.64999999999999969
sb.(i__main__
Data_mobile
p1
(dp2
S'vel_y'
p3
F0.25472995976297585
sS'vel_x'
p4
F0.43024719359822988
sS'pos_x'
p5
F-118.55550075975577
sS'pos_y'
p6
F-38.846719736002107
sS'isAlive'
p7
I01
sS'geno'
p8
(lp9
F-0.45383342273293392
aF-1.6062668747378215
aF0.80896238186894376
aF4.5830050372792908
aF3.1852199978500408
aF-1.581278385956379
asS'accel_x'
p10
F-0.41130387241884397
sS'accel_y'
p11
F1.957250399037707
sS'maxAccel'
p12
I2
sS'maxVel'
p13
F0.5
sS'age'
p14
I150
sS'gener'
p15
S'm'
sS'lastScale'
p16
F13.499999999999989
sS'energy'
p17
F0.79999999999999905
sb.(i__main__
Data_mobile
p1
(dp2
S'vel_y'
p3
F0.26316398197866531
sS'vel_x'
p4
F-0.42514082206856202
sS'pos_x'
p5
F-174.05758399594788
sS'pos_y'
p6
F22.817448427862058
sS'isAlive'
p7
I01
sS'geno'
p8
(lp9
F0.45220863168296876
aF-1.6062668747378215
aF0.80896238186894376
aF4.5830050372792908
aF3.1852199978500408
aF-2.0730399024827286
asS'accel_x'
p10
F-1.3374529323329249
sS'accel_y'
p11
F0.7990834451380282
sS'maxAccel'
p12
I2
sS'maxVel'
p13
F0.5
sS'age'
p14
I300
sS'gener'
p15
S'm'
sS'lastScale'
p16
F15.199999999999999
sS'energy'
p17
F0.96999999999999997
sb.(i__main__
Data_mobile
p1
(dp2
S'vel_y'
p3
F0.48675259834857537
sS'vel_x'
p4
F0.11433244509285387
sS'pos_x'
p5
F29.391462807563929
sS'pos_y'
p6
F-46.178693874215469
sS'isAlive'
p7
I01
sS'geno'
p8
(lp9
F-0.016571782053739659
aF-1.6062668747378215
aF1.1017270187398345
aF4.2347823906985305
aF3.1852199978500408
aF-2.2397139537688586
asS'accel_x'
p10
F-1.9752167839477506
sS'accel_y'
p11
F-0.31387681725655614
sS'maxAccel'
p12
I2
sS'maxVel'
p13
F0.5
sS'age'
p14
I300
sS'gener'
p15
S'm'
sS'lastScale'
p16
F15.4
sS'energy'
p17
F0.98999999999999999
sb.(i__main__
Data_mobile
p1
(dp2
S'vel_y'
p3
F-0.3225230901756001
sS'vel_x'
p4
F0.38207179469777897
sS'pos_x'
p5
F-190.22941581258848
sS'pos_y'
p6
F-83.701202416905872
sS'isAlive'
p7
I01
sS'geno'
p8
(lp9
F-0.016571782053739659
aF-1.4403711289353391
aF0.80896238186894376
aF4.5830050372792908
aF3.1852199978500408
aF-2.0730399024827286
asS'accel_x'
p10
F1.1576889297702835
sS'accel_y'
p11
F-1.6308759431321977
sS'maxAccel'
p12
I2
sS'maxVel'
p13
F0.5
sS'age'
p14
I250
sS'gener'
p15
S'm'
sS'lastScale'
p16
F12.299999999999997
sS'energy'
p17
F0.67999999999999972
sb.(i__main__
Data_mobile
p1
(dp2
S'vel_y'
p3
F-0.33721403936850558
sS'vel_x'
p4
F0.34513344665531792
sS'pos_x'
p5
F21.072504535034888
sS'pos_y'
p6
F-46.16779434347476
sS'isAlive'
p7
I01
sS'geno'
p8
(lp9
F-0.45383342273293392
aF-1.6062668747378215
aF0.80896238186894376
aF4.2347823906985305
aF2.8119175618407795
aF-0.80898073246756397
asS'accel_x'
p10
F0
sS'accel_y'
p11
F0
sS'maxAccel'
p12
I2
sS'maxVel'
p13
F0.5
sS'age'
p14
I0
sS'gener'
p15
S'm'
sS'lastScale'
p16
F5.5
sS'energy'
p17
F0.5
sb.(i__main__
Data_mobile
p1
(dp2
S'vel_y'
p3
F0.42327978789170378
sS'vel_x'
p4
F-0.26614699164625982
sS'pos_x'
p5
F-105.53443270322209
sS'pos_y'
p6
F22.840609857339924
sS'isAlive'
p7
I01
sS'geno'
p8
(lp9
F-0.016571782053739659
aF-1.4586068875390836
aF2.4541528827522683
aF4.1839237767187214
aF3.1852199978500408
aF-0.80898073246756397
asS'accel_x'
p10
F-0.62521654102157498
sS'accel_y'
p11
F-1.8997642687536307
sS'maxAccel'
p12
I2
sS'maxVel'
p13
F0.5
sS'age'
p14
I150
sS'gener'
p15
S'm'
sS'lastScale'
p16
F5.5
sS'energy'
p17
I0
sb.(i__main__
Data_mobile
p1
(dp2
S'vel_y'
p3
F-0.058444463738687197
sS'vel_x'
p4
F0.49657249688066424
sS'pos_x'
p5
F29.265547560582188
sS'pos_y'
p6
F-46.974374487583717
sS'isAlive'
p7
I01
sS'geno'
p8
(lp9
F0.45220863168296876
aF-1.4586068875390836
aF2.4541528827522683
aF4.6389972739974654
aF3.1852199978500408
aF-2.0730399024827286
asS'accel_x'
p10
F-1.7664269704826527
sS'accel_y'
p11
F0.93794229990521139
sS'maxAccel'
p12
I2
sS'maxVel'
p13
F0.5
sS'age'
p14
I150
sS'gener'
p15
S'm'
sS'lastScale'
p16
F15.4
sS'energy'
p17
F0.98999999999999999
sb.(i__main__
Data_mobile
p1
(dp2
S'vel_y'
p3
F-0.029898779159435906
sS'vel_x'
p4
F0.49910526244949094
sS'pos_x'
p5
F-174.33228758559244
sS'pos_y'
p6
F23.145904931664209
sS'isAlive'
p7
I01
sS'geno'
p8
(lp9
F-0.016571782053739659
aF-1.6062668747378215
aF0.80896238186894376
aF4.5830050372792908
aF2.4756686226721971
aF-0.80898073246756397
asS'accel_x'
p10
F-0.19074136095819005
sS'accel_y'
p11
F1.9908836563746808
sS'maxAccel'
p12
I2
sS'maxVel'
p13
F0.5
sS'age'
p14
I319
sS'gener'
p15
S'm'
sS'lastScale'
p16
F15.199999999999999
sS'energy'
p17
F0.96999999999999997
sb.(i__main__
Data_mobile
p1
(dp2
S'vel_y'
p3
F-0.13335924846292826
sS'vel_x'
p4
F0.48188723872852551
sS'pos_x'
p5
F-188.45310682887967
sS'pos_y'
p6
F-85.464510601489579
sS'isAlive'
p7
I01
sS'geno'
p8
(lp9
F-0.016571782053739659
aF-1.6062668747378215
aF0.80896238186894376
aF4.2347823906985305
aF3.1852199978500408
aF-2.0730399024827286
asS'accel_x'
p10
F-0.99836933278268836
sS'accel_y'
p11
F1.7329912508027991
sS'maxAccel'
p12
I2
sS'maxVel'
p13
F0.5
sS'age'
p14
I319
sS'gener'
p15
S'm'
sS'lastScale'
p16
F13.299999999999997
sS'energy'
p17
F0.77999999999999969
sb.(i__main__
Data_mobile
p1
(dp2
S'vel_y'
p3
F0.39325762310562612
sS'vel_x'
p4
F-0.30878543014415905
sS'pos_x'
p5
F-187.09414498170952
sS'pos_y'
p6
F-85.141524808782535
sS'isAlive'
p7
I01
sS'geno'
p8
(lp9
F-0.016571782053739659
aF-1.9980260445078455
aF0.80896238186894376
aF4.5830050372792908
aF3.1852199978500408
aF-0.80898073246756397
asS'accel_x'
p10
F0.37195658510398344
sS'accel_y'
p11
F1.9651077066659177
sS'maxAccel'
p12
I2
sS'maxVel'
p13
F0.5
sS'age'
p14
I319
sS'gener'
p15
S'm'
sS'lastScale'
p16
F15.4
sS'energy'
p17
F0.98999999999999999
sb.(i__main__
Data_mobile
p1
(dp2
S'vel_y'
p3
F-0.49992518515674422
sS'vel_x'
p4
F-0.0086492338386120957
sS'pos_x'
p5
F165.29483776780262
sS'pos_y'
p6
F-27.132343688607889
sS'isAlive'
p7
I01
sS'geno'
p8
(lp9
F-0.20986348397593169
aF-1.6062668747378215
aF0.3861408942921748
aF4.5830050372792908
aF3.1852199978500408
aF-2.0730399024827286
asS'accel_x'
p10
F0.62057665999009004
sS'accel_y'
p11
F-1.9012849889155345
sS'maxAccel'
p12
I2
sS'maxVel'
p13
F0.5
sS'age'
p14
I250
sS'gener'
p15
S'm'
sS'lastScale'
p16
F11.999999999999996
sS'energy'
p17
F0.64999999999999969
sb.(i__main__
Data_mobile
p1
(dp2
S'vel_y'
p3
F-0.021735002778674652
sS'vel_x'
p4
F0.49952736627156974
sS'pos_x'
p5
F-20.822213943858479
sS'pos_y'
p6
F54.092942036164757
sS'isAlive'
p7
I01
sS'geno'
p8
(lp9
F-0.45383342273293392
aF-1.6062668747378215
aF1.0604197585379032
aF4.3159030456607113
aF3.1852199978500408
aF-2.0730399024827286
asS'accel_x'
p10
F-0.81349831411544016
sS'accel_y'
p11
F1.8270797719123641
sS'maxAccel'
p12
I2
sS'maxVel'
p13
F0.5
sS'age'
p14
I100
sS'gener'
p15
S'm'
sS'lastScale'
p16
F15.4
sS'energy'
p17
F0.98999999999999999
sb.(i__main__
Data_mobile
p1
(dp2
S'vel_y'
p3
F0.4336004888029435
sS'vel_x'
p4
F0.24897914794184778
sS'pos_x'
p5
F-118.21041176691142
sS'pos_y'
p6
F-38.368130119991903
sS'isAlive'
p7
I01
sS'geno'
p8
(lp9
F0.45220863168296876
aF-1.6062668747378215
aF0.80896238186894376
aF4.2347823906985305
aF3.1852199978500408
aF-2.0730399024827286
asS'accel_x'
p10
F-1.9078720566856759
sS'accel_y'
p11
F0.60002017909231098
sS'maxAccel'
p12
I2
sS'maxVel'
p13
F0.5
sS'age'
p14
I250
sS'gener'
p15
S'm'
sS'lastScale'
p16
F15.4
sS'energy'
p17
F0.98999999999999999
sb.(i__main__
Data_mobile
p1
(dp2
S'vel_y'
p3
F0.36558660394218861
sS'vel_x'
p4
F0.34109593228008062
sS'pos_x'
p5
F147.39249239176917
sS'pos_y'
p6
F-62.651560719203999
sS'isAlive'
p7
I01
sS'geno'
p8
(lp9
F-0.44786608594764388
aF-1.6062668747378215
aF0.80896238186894376
aF4.5830050372792908
aF3.1852199978500408
aF-2.0730399024827286
asS'accel_x'
p10
F-1.7708647057768176
sS'accel_y'
p11
F0.92953654787425388
sS'maxAccel'
p12
I2
sS'maxVel'
p13
F0.5
sS'age'
p14
I100
sS'gener'
p15
S'm'
sS'lastScale'
p16
F15.4
sS'energy'
p17
F0.98999999999999999
sb.(i__main__
Data_mobile
p1
(dp2
S'vel_y'
p3
F0.25647308855256762
sS'vel_x'
p4
F0.42921038529875621
sS'pos_x'
p5
F-118.6010842335039
sS'pos_y'
p6
F-38.451505622734707
sS'isAlive'
p7
I01
sS'geno'
p8
(lp9
F0.45220863168296876
aF-1.6062668747378215
aF0.80896238186894376
aF4.2347823906985305
aF3.1852199978500408
aF-2.0730399024827286
asS'accel_x'
p10
F-1.4492361779443397
sS'accel_y'
p11
F1.3783013097785559
sS'maxAccel'
p12
I2
sS'maxVel'
p13
F0.5
sS'age'
p14
I150
sS'gener'
p15
S'm'
sS'lastScale'
p16
F15.4
sS'energy'
p17
F0.98999999999999999
sb.(i__main__
Data_mobile
p1
(dp2
S'vel_y'
p3
F0.36315946719543357
sS'vel_x'
p4
F0.3436789219407102
sS'pos_x'
p5
F110.23550412359275
sS'pos_y'
p6
F-1.5310841990990856
sS'isAlive'
p7
I01
sS'geno'
p8
(lp9
F-2.1653729306190201
aF-4.5685982935747278
aF0.80896238186894376
aF4.5830050372792908
aF3.1852199978500408
aF-0.69491951174123101
asS'accel_x'
p10
F1.0758370066502174
sS'accel_y'
p11
F1.6859936936779745
sS'maxAccel'
p12
I2
sS'maxVel'
p13
F0.5
sS'age'
p14
I100
sS'gener'
p15
S'm'
sS'lastScale'
p16
F11.599999999999996
sS'energy'
p17
F0.60999999999999965
sb.(i__main__
Data_mobile
p1
(dp2
S'vel_y'
p3
F0.0072668295466086063
sS'vel_x'
p4
F-0.4999471903994866
sS'pos_x'
p5
F184.05419037027033
sS'pos_y'
p6
F-59.356651945328252
sS'isAlive'
p7
I01
sS'geno'
p8
(lp9
F-0.41088940919983252
aF-1.6062668747378215
aF0.80896238186894376
aF4.5830050372792908
aF3.1852199978500408
aF-0.95602281803902578
asS'accel_x'
p10
F-1.1427793970523805
sS'accel_y'
p11
F-1.641357745792366
sS'maxAccel'
p12
I2
sS'maxVel'
p13
F0.5
sS'age'
p14
I100
sS'gener'
p15
S'm'
sS'lastScale'
p16
F15.4
sS'energy'
p17
F0.98999999999999999
sb.(i__main__
Data_mobile
p1
(dp2
S'vel_y'
p3
F0.39344362323716375
sS'vel_x'
p4
F0.30854840031024761
sS'pos_x'
p5
F-118.68302658468022
sS'pos_y'
p6
F-38.49679716306251
sS'isAlive'
p7
I01
sS'geno'
p8
(lp9
F-0.016571782053739659
aF-1.6062668747378215
aF0.80896238186894376
aF4.2347823906985305
aF3.1852199978500408
aF-2.0730399024827286
asS'accel_x'
p10
F-1.450461766826362
sS'accel_y'
p11
F1.3770114970380418
sS'maxAccel'
p12
I2
sS'maxVel'
p13
F0.5
sS'age'
p14
I319
sS'gener'
p15
S'm'
sS'lastScale'
p16
F15.4
sS'energy'
p17
F0.98999999999999999
sb.(i__main__
Data_mobile
p1
(dp2
S'vel_y'
p3
F0.19298328674457574
sS'vel_x'
p4
F-0.46125638319405493
sS'pos_x'
p5
F-174.74190149467822
sS'pos_y'
p6
F22.550617332651026
sS'isAlive'
p7
I01
sS'geno'
p8
(lp9
F0.45220863168296876
aF-1.8723787691558791
aF0.80896238186894376
aF4.5830050372792908
aF3.1852199978500408
aF-2.0730399024827286
asS'accel_x'
p10
F-1.8820507406571576
sS'accel_y'
p11
F0.6766720103505417
sS'maxAccel'
p12
I2
sS'maxVel'
p13
F0.5
sS'age'
p14
I200
sS'gener'
p15
S'm'
sS'lastScale'
p16
F14.699999999999998
sS'energy'
p17
F0.91999999999999971
sb.(i__main__
Data_mobile
p1
(dp2
S'vel_y'
p3
F0.14563256851261783
sS'vel_x'
p4
F-0.47832118392186818
sS'pos_x'
p5
F-173.87671411608787
sS'pos_y'
p6
F23.245037375616494
sS'isAlive'
p7
I01
sS'geno'
p8
(lp9
F0.45220863168296876
aF-1.144730229373901
aF2.3731605109140066
aF4.5830050372792908
aF2.8119175618407795
aF-0.80898073246756397
asS'accel_x'
p10
F0.5826307011272337
sS'accel_y'
p11
F1.9132541561705774
sS'maxAccel'
p12
I2
sS'maxVel'
p13
F0.5
sS'age'
p14
I200
sS'gener'
p15
S'm'
sS'lastScale'
p16
F9.0999999999999925
sS'energy'
p17
F0.35999999999999921
sb.(i__main__
Data_mobile
p1
(dp2
S'vel_y'
p3
F-0.36850519992766806
sS'vel_x'
p4
F0.33794070134606369
sS'pos_x'
p5
F6.3943504039559151
sS'pos_y'
p6
F-33.651085637289277
sS'isAlive'
p7
I01
sS'geno'
p8
(lp9
F-0.20986348397593169
aF-1.9980260445078455
aF0.80896238186894376
aF4.5830050372792908
aF3.1852199978500408
aF-2.0730399024827286
asS'accel_x'
p10
F-1.9968144045086227
sS'accel_y'
p11
F0.11283720107692691
sS'maxAccel'
p12
I2
sS'maxVel'
p13
F0.5
sS'age'
p14
I50
sS'gener'
p15
S'm'
sS'lastScale'
p16
F15.4
sS'energy'
p17
F0.98999999999999999
sb.(i__main__
Data_mobile
p1
(dp2
S'vel_y'
p3
F-0.49763564230861834
sS'vel_x'
p4
F-0.048567144285915
sS'pos_x'
p5
F157.90334462517845
sS'pos_y'
p6
F-18.41227831355711
sS'isAlive'
p7
I01
sS'geno'
p8
(lp9
F0.45220863168296876
aF-1.6062668747378215
aF0.80896238186894376
aF4.5830050372792908
aF3.1852199978500408
aF-2.0730399024827286
asS'accel_x'
p10
F-0.5155243896558821
sS'accel_y'
p11
F-1.9324167779415315
sS'maxAccel'
p12
I2
sS'maxVel'
p13
F0.5
sS'age'
p14
I250
sS'gener'
p15
S'm'
sS'lastScale'
p16
F10.799999999999995
sS'energy'
p17
F0.52999999999999958
sb.(i__main__
Data_mobile
p1
(dp2
S'vel_y'
p3
F0.44764342812065877
sS'vel_x'
p4
F0.22274505889106638
sS'pos_x'
p5
F146.86358996122971
sS'pos_y'
p6
F-62.626892015040923
sS'isAlive'
p7
I01
sS'geno'
p8
(lp9
F0.45220863168296876
aF-1.4586068875390836
aF2.4541528827522683
aF4.6389972739974654
aF3.1852199978500408
aF-2.0730399024827286
asS'accel_x'
p10
F-0.63840682048140929
sS'accel_y'
p11
F-0.52975836632749651
sS'maxAccel'
p12
I2
sS'maxVel'
p13
F0.5
sS'age'
p14
I100
sS'gener'
p15
S'm'
sS'lastScale'
p16
F15.4
sS'energy'
p17
F0.98999999999999999
sb.(i__main__
Data_mobile
p1
(dp2
S'vel_y'
p3
F0.28002170227343343
sS'vel_x'
p4
F0.41423163357702242
sS'pos_x'
p5
F28.405741773489424
sS'pos_y'
p6
F-46.668089851956388
sS'isAlive'
p7
I01
sS'geno'
p8
(lp9
F-0.20986348397593169
aF-1.508433563003996
aF0.59270679464285547
aF4.5830050372792908
aF3.1852199978500408
aF-2.0730399024827286
asS'accel_x'
p10
F0.08374617082918831
sS'accel_y'
p11
F1.9982458754796537
sS'maxAccel'
p12
I2
sS'maxVel'
p13
F0.5
sS'age'
p14
I50
sS'gener'
p15
S'm'
sS'lastScale'
p16
F15.4
sS'energy'
p17
F0.98999999999999999
sb.(i__main__
Data_mobile
p1
(dp2
S'vel_y'
p3
F0.15498396100677006
sS'vel_x'
p4
F-0.47537350770804632
sS'pos_x'
p5
F-50.339487944968297
sS'pos_y'
p6
F-38.349887138665537
sS'isAlive'
p7
I01
sS'geno'
p8
(lp9
F-0.45383342273293392
aF-1.6062668747378215
aF0.96511273143097731
aF4.2347823906985305
aF3.1852199978500408
aF-2.0730399024827286
asS'accel_x'
p10
F-1.0825531139361098
sS'accel_y'
p11
F-1.6816892565236989
sS'maxAccel'
p12
I2
sS'maxVel'
p13
F0.5
sS'age'
p14
I150
sS'gener'
p15
S'm'
sS'lastScale'
p16
F15.4
sS'energy'
p17
F0.98999999999999999
sb.(i__main__
Data_mobile
p1
(dp2
S'vel_y'
p3
F-0.0090605252102989326
sS'vel_x'
p4
F0.40542994254176246
sS'pos_x'
p5
F-13.58366371558677
sS'pos_y'
p6
F44.7416305940895
sS'isAlive'
p7
I01
sS'geno'
p8
(lp9
F-0.45383342273293392
aF-4.5685982935747278
aF0.80896238186894376
aF4.5830050372792908
aF3.1852199978500408
aF-0.80898073246756397
asS'accel_x'
p10
F0
sS'accel_y'
p11
F0
sS'maxAccel'
p12
I2
sS'maxVel'
p13
F0.5
sS'age'
p14
I0
sS'gener'
p15
S'm'
sS'lastScale'
p16
F5.5
sS'energy'
p17
F0.5
sb.(i__main__
Data_mobile
p1
(dp2
S'vel_y'
p3
F0.43046729346593332
sS'vel_x'
p4
F-0.25435783702515236
sS'pos_x'
p5
F5.61865475973699
sS'pos_y'
p6
F-33.297710673890691
sS'isAlive'
p7
I01
sS'geno'
p8
(lp9
F-0.20986348397593169
aF-1.508433563003996
aF0.80896238186894376
aF4.5830050372792908
aF3.1852199978500408
aF-2.0730399024827286
asS'accel_x'
p10
F0.56408447148940533
sS'accel_y'
p11
F-1.9188039787910902
sS'maxAccel'
p12
I2
sS'maxVel'
p13
F0.5
sS'age'
p14
I100
sS'gener'
p15
S'm'
sS'lastScale'
p16
F15.4
sS'energy'
p17
F0.98999999999999999
sb.(i__main__
Data_mobile
p1
(dp2
S'vel_y'
p3
F-0.49734740293759871
sS'vel_x'
p4
F-0.051435015225289961
sS'pos_x'
p5
F173.25397735852621
sS'pos_y'
p6
F-32.634510822157004
sS'isAlive'
p7
I01
sS'geno'
p8
(lp9
F-0.016571782053739659
aF-1.6062668747378215
aF0.80896238186894376
aF4.2347823906985305
aF3.1852199978500408
aF-2.0730399024827286
asS'accel_x'
p10
F-0.017911219510043878
sS'accel_y'
p11
F-1.9999197954457233
sS'maxAccel'
p12
I2
sS'maxVel'
p13
F0.5
sS'age'
p14
I150
sS'gener'
p15
S'm'
sS'lastScale'
p16
F11.999999999999996
sS'energy'
p17
F0.64999999999999969
sb.(i__main__
Data_mobile
p1
(dp2
S'vel_y'
p3
F0.37414062510992757
sS'vel_x'
p4
F-0.3316908087999314
sS'pos_x'
p5
F-174.72263224030314
sS'pos_y'
p6
F23.962285839115218
sS'isAlive'
p7
I01
sS'geno'
p8
(lp9
F-0.016571782053739659
aF-1.6062668747378215
aF0.80896238186894376
aF4.5830050372792908
aF2.4756686226721971
aF-0.80898073246756397
asS'accel_x'
p10
F0.3894653693992583
sS'accel_y'
p11
F1.9617127022167897
sS'maxAccel'
p12
I2
sS'maxVel'
p13
F0.5
sS'age'
p14
I100
sS'gener'
p15
S'm'
sS'lastScale'
p16
F15.199999999999999
sS'energy'
p17
F0.96999999999999997
sb.(i__main__
Data_mobile
p1
(dp2
S'vel_y'
p3
F0.48377496171491691
sS'vel_x'
p4
F-0.12633996366047751
sS'pos_x'
p5
F-95.701068410548473
sS'pos_y'
p6
F27.716684141521778
sS'isAlive'
p7
I01
sS'geno'
p8
(lp9
F-0.20986348397593169
aF-1.4586068875390836
aF2.3731605109140066
aF4.5830050372792908
aF2.8119175618407795
aF-0.80898073246756397
asS'accel_x'
p10
F-0.06766475756887641
sS'accel_y'
p11
F-1.9988550424138178
sS'maxAccel'
p12
I2
sS'maxVel'
p13
F0.5
sS'age'
p14
I300
sS'gener'
p15
S'm'
sS'lastScale'
p16
F5.5
sS'energy'
p17
I0
sb.(i__main__
Data_mobile
p1
(dp2
S'vel_y'
p3
F-0.49882554720732769
sS'vel_x'
p4
F-0.034250159901963256
sS'pos_x'
p5
F98.598340866172876
sS'pos_y'
p6
F-37.10522300135586
sS'isAlive'
p7
I01
sS'geno'
p8
(lp9
F0.45220863168296876
aF-2.0493296602685427
aF0.80896238186894376
aF4.5830050372792908
aF3.1852199978500408
aF-2.0730399024827286
asS'accel_x'
p10
F0.012836539714126839
sS'accel_y'
p11
F-1.9999588053877926
sS'maxAccel'
p12
I2
sS'maxVel'
p13
F0.5
sS'age'
p14
I250
sS'gener'
p15
S'm'
sS'lastScale'
p16
F13.599999999999996
sS'energy'
p17
F0.80999999999999961
sb.(i__main__
Data_mobile
p1
(dp2
S'vel_y'
p3
F0.13902136685803354
sS'vel_x'
p4
F0.48028435281291854
sS'pos_x'
p5
F147.43774673610326
sS'pos_y'
p6
F59.73159203460451
sS'isAlive'
p7
I01
sS'geno'
p8
(lp9
F-0.016571782053739659
aF-1.6062668747378215
aF0.80896238186894376
aF4.2347823906985305
aF3.1852199978500408
aF-2.0730399024827286
asS'accel_x'
p10
F-1.9966333833406935
sS'accel_y'
p11
F0.11599626084273397
sS'maxAccel'
p12
I2
sS'maxVel'
p13
F0.5
sS'age'
p14
I100
sS'gener'
p15
S'm'
sS'lastScale'
p16
F15.4
sS'energy'
p17
F0.98999999999999999
sb.(i__main__
Data_mobile
p1
(dp2
S'vel_y'
p3
F-0.1653410512091292
sS'vel_x'
p4
F-0.46726178731610241
sS'pos_x'
p5
F52.753282301777638
sS'pos_y'
p6
F-50.963321507281485
sS'isAlive'
p7
I01
sS'geno'
p8
(lp9
F-0.45383342273293392
aF-1.4586068875390836
aF2.4541528827522683
aF4.5830050372792908
aF3.1852199978500408
aF-2.0730399024827286
asS'accel_x'
p10
F0
sS'accel_y'
p11
F0
sS'maxAccel'
p12
I2
sS'maxVel'
p13
F0.5
sS'age'
p14
I0
sS'gener'
p15
S'm'
sS'lastScale'
p16
F5.5
sS'energy'
p17
F0.5
sb.(i__main__
Data_mobile
p1
(dp2
S'vel_y'
p3
F0.23703222838133384
sS'vel_x'
p4
F-0.44024507119169343
sS'pos_x'
p5
F-50.773892989682324
sS'pos_y'
p6
F-38.714796008957116
sS'isAlive'
p7
I01
sS'geno'
p8
(lp9
F-0.016571782053739659
aF-1.4403711289353391
aF0.80896238186894376
aF4.5830050372792908
aF3.1852199978500408
aF-2.0730399024827286
asS'accel_x'
p10
F1.6248350387923849
sS'accel_y'
p11
F1.0199543723132907
sS'maxAccel'
p12
I2
sS'maxVel'
p13
F0.5
sS'age'
p14
I200
sS'gener'
p15
S'm'
sS'lastScale'
p16
F15.4
sS'energy'
p17
F0.98999999999999999
sb.(i__main__
Data_mobile
p1
(dp2
S'vel_y'
p3
F0.091452639791102255
sS'vel_x'
p4
F0.48871761153005733
sS'pos_x'
p5
F-20.569625336759714
sS'pos_y'
p6
F-47.003697458902138
sS'isAlive'
p7
I01
sS'geno'
p8
(lp9
F0.45220863168296876
aF-1.6062668747378215
aF0.80896238186894376
aF4.5830050372792908
aF3.1852199978500408
aF-0.95602281803902578
asS'accel_x'
p10
F0
sS'accel_y'
p11
F0
sS'maxAccel'
p12
I2
sS'maxVel'
p13
F0.5
sS'age'
p14
I0
sS'gener'
p15
S'm'
sS'lastScale'
p16
F5.5
sS'energy'
p17
F0.5
sb.(i__main__
Data_mobile
p1
(dp2
S'vel_y'
p3
F-0.48583513950356744
sS'vel_x'
p4
F0.11817028908972513
sS'pos_x'
p5
F171.75267929576859
sS'pos_y'
p6
F-18.203914272889385
sS'isAlive'
p7
I01
sS'geno'
p8
(lp9
F0.45220863168296876
aF-1.6062668747378215
aF0.80896238186894376
aF4.5830050372792908
aF3.6735742145050305
aF-2.0730399024827286
asS'accel_x'
p10
F0.21067562030460618
sS'accel_y'
p11
F-1.9888729931821361
sS'maxAccel'
p12
I2
sS'maxVel'
p13
F0.5
sS'age'
p14
I150
sS'gener'
p15
S'm'
sS'lastScale'
p16
F11.999999999999996
sS'energy'
p17
F0.64999999999999969
sb.(i__main__
Data_mobile
p1
(dp2
S'vel_y'
p3
F-0.32910665356342184
sS'vel_x'
p4
F-0.37641574167439629
sS'pos_x'
p5
F122.54547934618776
sS'pos_y'
p6
F73.501518354144366
sS'isAlive'
p7
I01
sS'geno'
p8
(lp9
F0.45220863168296876
aF-1.6062668747378215
aF0.80896238186894376
aF4.5830050372792908
aF3.1852199978500408
aF-2.0730399024827286
asS'accel_x'
p10
F-1.7328777177651127
sS'accel_y'
p11
F0.99856638000344
sS'maxAccel'
p12
I2
sS'maxVel'
p13
F0.5
sS'age'
p14
I319
sS'gener'
p15
S'm'
sS'lastScale'
p16
F15.4
sS'energy'
p17
F0.98999999999999999
sb.(i__main__
Data_mobile
p1
(dp2
S'vel_y'
p3
F-0.48722588000216754
sS'vel_x'
p4
F0.11229844992747416
sS'pos_x'
p5
F171.12618653491285
sS'pos_y'
p6
F-40.166730896797205
sS'isAlive'
p7
I01
sS'geno'
p8
(lp9
F-0.20986348397593169
aF-1.6062668747378215
aF0.39213193002083091
aF4.5830050372792908
aF3.1852199978500408
aF-2.0730399024827286
asS'accel_x'
p10
F0.93728460308100781
sS'accel_y'
p11
F-1.766776039238499
sS'maxAccel'
p12
I2
sS'maxVel'
p13
F0.5
sS'age'
p14
I250
sS'gener'
p15
S'm'
sS'lastScale'
p16
F11.999999999999996
sS'energy'
p17
F0.64999999999999969
sb.(i__main__
Data_mobile
p1
(dp2
S'vel_y'
p3
F0.45819619010117368
sS'vel_x'
p4
F-0.20014057903575949
sS'pos_x'
p5
F-174.7956681025799
sS'pos_y'
p6
F20.947449822875083
sS'isAlive'
p7
I01
sS'geno'
p8
(lp9
F-0.20986348397593169
aF-1.6062668747378215
aF0.80896238186894376
aF4.2347823906985305
aF3.1852199978500408
aF-2.0730399024827286
asS'accel_x'
p10
F1.3678603590321941
sS'accel_y'
p11
F-0.69770993160231587
sS'maxAccel'
p12
I2
sS'maxVel'
p13
F0.5
sS'age'
p14
I150
sS'gener'
p15
S'm'
sS'lastScale'
p16
F12.699999999999998
sS'energy'
p17
F0.71999999999999975
sb.(i__main__
Data_mobile
p1
(dp2
S'vel_y'
p3
F0.13642391649846441
sS'vel_x'
p4
F-0.48102860102827566
sS'pos_x'
p5
F-51.204420575189239
sS'pos_y'
p6
F-38.031141985718271
sS'isAlive'
p7
I01
sS'geno'
p8
(lp9
F-0.016571782053739659
aF-1.6062668747378215
aF0.80896238186894376
aF4.5830050372792908
aF2.4756686226721971
aF-0.80898073246756397
asS'accel_x'
p10
F1.1221606371497681
sS'accel_y'
p11
F-1.6555227284551628
sS'maxAccel'
p12
I2
sS'maxVel'
p13
F0.5
sS'age'
p14
I50
sS'gener'
p15
S'm'
sS'lastScale'
p16
F15.4
sS'energy'
p17
F0.98999999999999999
sb.(i__main__
Data_mobile
p1
(dp2
S'vel_y'
p3
F-0.49531789108908147
sS'vel_x'
p4
F-0.068265560622211646
sS'pos_x'
p5
F177.40892412486997
sS'pos_y'
p6
F-33.162503250018382
sS'isAlive'
p7
I01
sS'geno'
p8
(lp9
F0.45220863168296876
aF-1.6062668747378215
aF0.80896238186894376
aF4.5830050372792908
aF3.1852199978500408
aF-2.0730399024827286
asS'accel_x'
p10
F0.16134583215202933
sS'accel_y'
p11
F-1.9934812571095744
sS'maxAccel'
p12
I2
sS'maxVel'
p13
F0.5
sS'age'
p14
I319
sS'gener'
p15
S'm'
sS'lastScale'
p16
F11.999999999999996
sS'energy'
p17
F0.64999999999999969
sb.(i__main__
Data_mobile
p1
(dp2
S'vel_y'
p3
F0.44267655255604499
sS'vel_x'
p4
F-0.23245960900142451
sS'pos_x'
p5
F-5.344307491599734
sS'pos_y'
p6
F-3.4487418608121327
sS'isAlive'
p7
I01
sS'geno'
p8
(lp9
F-0.20986348397593169
aF-1.6062668747378215
aF0.80896238186894376
aF4.2347823906985305
aF3.1852199978500408
aF-2.0730399024827286
asS'accel_x'
p10
F1.9497032700830241
sS'accel_y'
p11
F0.4457097246275451
sS'maxAccel'
p12
I2
sS'maxVel'
p13
F0.5
sS'age'
p14
I100
sS'gener'
p15
S'm'
sS'lastScale'
p16
F15.4
sS'energy'
p17
F0.98999999999999999
sb.(i__main__
Data_mobile
p1
(dp2
S'vel_y'
p3
F-0.42737858013003116
sS'vel_x'
p4
F0.25951406367678526
sS'pos_x'
p5
F-173.9842390078295
sS'pos_y'
p6
F22.366090278587073
sS'isAlive'
p7
I01
sS'geno'
p8
(lp9
F0.45220863168296876
aF-1.1337145404622857
aF0.80896238186894376
aF4.5830050372792908
aF2.4756686226721971
aF-0.80898073246756397
asS'accel_x'
p10
F0.9147286974280191
sS'accel_y'
p11
F1.778558801418058
sS'maxAccel'
p12
I2
sS'maxVel'
p13
F0.5
sS'age'
p14
I300
sS'gener'
p15
S'm'
sS'lastScale'
p16
F15.199999999999999
sS'energy'
p17
F0.96999999999999997
sb.(i__main__
Data_mobile
p1
(dp2
S'vel_y'
p3
F0.24435387637253203
sS'vel_x'
p4
F0.35665129346369312
sS'pos_x'
p5
F138.1482031671236
sS'pos_y'
p6
F-61.339147088068074
sS'isAlive'
p7
I01
sS'geno'
p8
(lp9
F-1.9405111193289204
aF-4.5685982935747278
aF0.80896238186894376
aF4.1839237767187214
aF3.1680820679193151
aF-0.80898073246756397
asS'accel_x'
p10
F0
sS'accel_y'
p11
F0
sS'maxAccel'
p12
I2
sS'maxVel'
p13
F0.5
sS'age'
p14
I0
sS'gener'
p15
S'm'
sS'lastScale'
p16
F5.5
sS'energy'
p17
F0.5
sb.(i__main__
Data_mobile
p1
(dp2
S'vel_y'
p3
F0.46669488374489693
sS'vel_x'
p4
F-0.17943211943890411
sS'pos_x'
p5
F-187.27164025178044
sS'pos_y'
p6
F-83.489585378283124
sS'isAlive'
p7
I01
sS'geno'
p8
(lp9
F-0.016571782053739659
aF-1.6062668747378215
aF0.80896238186894376
aF4.8911968436158082
aF2.4756686226721971
aF-0.80898073246756397
asS'accel_x'
p10
F-0.057945457488694591
sS'accel_y'
p11
F-1.9991604047590645
sS'maxAccel'
p12
I2
sS'maxVel'
p13
F0.5
sS'age'
p14
I150
sS'gener'
p15
S'm'
sS'lastScale'
p16
F15.4
sS'energy'
p17
F0.98999999999999999
sb.(i__main__
Data_mobile
p1
(dp2
S'vel_y'
p3
F-0.42778113268671125
sS'vel_x'
p4
F-0.25884996140095207
sS'pos_x'
p5
F89.671097785896578
sS'pos_y'
p6
F-89.196035129134245
sS'isAlive'
p7
I01
sS'geno'
p8
(lp9
F-1.9405111193289204
aF-4.5685982935747278
aF0.80896238186894376
aF4.5830050372792908
aF3.1852199978500408
aF-2.0730399024827286
asS'accel_x'
p10
F1.0497371003076372
sS'accel_y'
p11
F1.7023665939619803
sS'maxAccel'
p12
I2
sS'maxVel'
p13
F0.5
sS'age'
p14
I319
sS'gener'
p15
S'm'
sS'lastScale'
p16
F15.4
sS'energy'
p17
F0.98999999999999999
sb.(i__main__
Data_mobile
p1
(dp2
S'vel_y'
p3
F-0.069839886204295459
sS'vel_x'
p4
F0.49509836426206366
sS'pos_x'
p5
F28.992186528843323
sS'pos_y'
p6
F-45.647143843059482
sS'isAlive'
p7
I01
sS'geno'
p8
(lp9
F-0.016571782053739659
aF-1.6062668747378215
aF0.80896238186894376
aF4.5830050372792908
aF3.1852199978500408
aF-2.0730399024827286
asS'accel_x'
p10
F-1.1068414828558175
sS'accel_y'
p11
F-1.6658036894632977
sS'maxAccel'
p12
I2
sS'maxVel'
p13
F0.5
sS'age'
p14
I300
sS'gener'
p15
S'm'
sS'lastScale'
p16
F15.4
sS'energy'
p17
F0.98999999999999999
sb.(i__main__
Data_mobile
p1
(dp2
S'vel_y'
p3
F0.49045562187432779
sS'vel_x'
p4
F-0.097227994795050621
sS'pos_x'
p5
F-178.08833258417573
sS'pos_y'
p6
F17.729800277927435
sS'isAlive'
p7
I01
sS'geno'
p8
(lp9
F0.45220863168296876
aF-1.6062668747378215
aF1.2051324342573539
aF4.2347823906985305
aF3.1852199978500408
aF-2.0730399024827286
asS'accel_x'
p10
F-0.59498120994748804
sS'accel_y'
p11
F1.9094494912957041
sS'maxAccel'
p12
I2
sS'maxVel'
p13
F0.5
sS'age'
p14
I300
sS'gener'
p15
S'm'
sS'lastScale'
p16
F12.699999999999998
sS'energy'
p17
F0.71999999999999975
sb.(i__main__
Data_mobile
p1
(dp2
S'vel_y'
p3
F-0.27449390292711273
sS'vel_x'
p4
F-0.41539678566318444
sS'pos_x'
p5
F114.18642631098574
sS'pos_y'
p6
F32.636044729565157
sS'isAlive'
p7
I01
sS'geno'
p8
(lp9
F0.45220863168296876
aF-1.452038499799907
aF0.80896238186894376
aF4.5830050372792908
aF3.4560539414697264
aF-2.0730399024827286
asS'accel_x'
p10
F0
sS'accel_y'
p11
F0
sS'maxAccel'
p12
I2
sS'maxVel'
p13
F0.5
sS'age'
p14
I0
sS'gener'
p15
S'm'
sS'lastScale'
p16
F5.5
sS'energy'
p17
F0.5
sb.(i__main__
Data_mobile
p1
(dp2
S'vel_y'
p3
F0.44398671779469212
sS'vel_x'
p4
F0.22255870361288027
sS'pos_x'
p5
F-14.549688605990013
sS'pos_y'
p6
F41.322858544714144
sS'isAlive'
p7
I01
sS'geno'
p8
(lp9
F0.45220863168296876
aF-1.6062668747378215
aF0.38484921271941919
aF4.5830050372792908
aF3.1852199978500408
aF-0.80898073246756397
asS'accel_x'
p10
F0
sS'accel_y'
p11
F0
sS'maxAccel'
p12
I2
sS'maxVel'
p13
F0.5
sS'age'
p14
I0
sS'gener'
p15
S'm'
sS'lastScale'
p16
F5.5
sS'energy'
p17
F0.5
sb.(i__main__
Data_mobile
p1
(dp2
S'vel_y'
p3
F0.44794056950787475
sS'vel_x'
p4
F0.22214690227180939
sS'pos_x'
p5
F-118.52187463525635
sS'pos_y'
p6
F-38.380414728361167
sS'isAlive'
p7
I01
sS'geno'
p8
(lp9
F-0.016571782053739659
aF-1.6062668747378215
aF0.80896238186894376
aF4.2347823906985305
aF3.1852199978500408
aF-2.0730399024827286
asS'accel_x'
p10
F-1.8800420019993291
sS'accel_y'
p11
F0.68223314982369099
sS'maxAccel'
p12
I2
sS'maxVel'
p13
F0.5
sS'age'
p14
I150
sS'gener'
p15
S'm'
sS'lastScale'
p16
F15.4
sS'energy'
p17
F0.98999999999999999
sb.(i__main__
Data_mobile
p1
(dp2
S'vel_y'
p3
F-0.49989853226898628
sS'vel_x'
p4
F0.010072608168357306
sS'pos_x'
p5
F122.62004831151332
sS'pos_y'
p6
F72.939486495463001
sS'isAlive'
p7
I01
sS'geno'
p8
(lp9
F-0.20986348397593169
aF-1.452038499799907
aF0.80896238186894376
aF4.9744848647344702
aF3.1852199978500408
aF-0.69491951174123101
asS'accel_x'
p10
F-1.3155989070525496
sS'accel_y'
p11
F1.5063862438837317
sS'maxAccel'
p12
I2
sS'maxVel'
p13
F0.5
sS'age'
p14
I150
sS'gener'
p15
S'm'
sS'lastScale'
p16
F15.4
sS'energy'
p17
F0.98999999999999999
sb.(i__main__
Data_mobile
p1
(dp2
S'vel_y'
p3
F-0.14726017441443906
sS'vel_x'
p4
F-0.47782260414449734
sS'pos_x'
p5
F-174.90035119132557
sS'pos_y'
p6
F22.673137341447056
sS'isAlive'
p7
I01
sS'geno'
p8
(lp9
F-0.016571782053739659
aF-1.6062668747378215
aF0.80896238186894376
aF4.5830050372792908
aF3.1852199978500408
aF-2.0730399024827286
asS'accel_x'
p10
F0.44322904074817138
sS'accel_y'
p11
F1.6205535630098682
sS'maxAccel'
p12
I2
sS'maxVel'
p13
F0.5
sS'age'
p14
I300
sS'gener'
p15
S'm'
sS'lastScale'
p16
F14.499999999999989
sS'energy'
p17
F0.89999999999999891
sb.(i__main__
Data_mobile
p1
(dp2
S'vel_y'
p3
F-0.27763796327305135
sS'vel_x'
p4
F-0.41583309313905237
sS'pos_x'
p5
F122.71778171728637
sS'pos_y'
p6
F73.481011169365331
sS'isAlive'
p7
I01
sS'geno'
p8
(lp9
F0.45220863168296876
aF-1.4586068875390836
aF2.4541528827522683
aF4.6389972739974654
aF3.1852199978500408
aF-2.0730399024827286
asS'accel_x'
p10
F-1.2959415011711473
sS'accel_y'
p11
F1.5233304387237439
sS'maxAccel'
p12
I2
sS'maxVel'
p13
F0.5
sS'age'
p14
I150
sS'gener'
p15
S'm'
sS'lastScale'
p16
F15.4
sS'energy'
p17
F0.98999999999999999
sb.(i__main__
Data_mobile
p1
(dp2
S'vel_y'
p3
F0.37818788555774968
sS'vel_x'
p4
F0.32706868272177703
sS'pos_x'
p5
F-21.079886064920931
sS'pos_y'
p6
F54.294929780516867
sS'isAlive'
p7
I01
sS'geno'
p8
(lp9
F0.45220863168296876
aF-1.6062668747378215
aF0.80896238186894376
aF4.5830050372792908
aF3.1852199978500408
aF-0.80898073246756397
asS'accel_x'
p10
F-0.14941324592250183
sS'accel_y'
p11
F1.9944111115672469
sS'maxAccel'
p12
I2
sS'maxVel'
p13
F0.5
sS'age'
p14
I200
sS'gener'
p15
S'm'
sS'lastScale'
p16
F15.4
sS'energy'
p17
F0.98999999999999999
sb.(i__main__
Data_mobile
p1
(dp2
S'vel_y'
p3
F-0.30093030495331458
sS'vel_x'
p4
F-0.38849972851255055
sS'pos_x'
p5
F114.348174976558
sS'pos_y'
p6
F31.439100148820831
sS'isAlive'
p7
I01
sS'geno'
p8
(lp9
F0.62964871043908721
aF-1.4586068875390836
aF2.4541528827522683
aF4.5830050372792908
aF3.1852199978500408
aF-2.0730399024827286
asS'accel_x'
p10
F0
sS'accel_y'
p11
F0
sS'maxAccel'
p12
I2
sS'maxVel'
p13
F0.5
sS'age'
p14
I0
sS'gener'
p15
S'm'
sS'lastScale'
p16
F5.5
sS'energy'
p17
F0.5
sb.(i__main__
Data_mobile
p1
(dp2
S'vel_y'
p3
F-0.21296322970211248
sS'vel_x'
p4
F-0.45237889295903855
sS'pos_x'
p5
F123.2851646451599
sS'pos_y'
p6
F73.212083786421644
sS'isAlive'
p7
I01
sS'geno'
p8
(lp9
F0.45220863168296876
aF-1.6062668747378215
aF1.2507211900700517
aF4.3159030456607113
aF3.1852199978500408
aF-2.0730399024827286
asS'accel_x'
p10
F-1.7803858043128782
sS'accel_y'
p11
F0.91116759589067153
sS'maxAccel'
p12
I2
sS'maxVel'
p13
F0.5
sS'age'
p14
I100
sS'gener'
p15
S'm'
sS'lastScale'
p16
F15.4
sS'energy'
p17
F0.98999999999999999
sb.(i__main__
Data_mobile
p1
(dp2
S'vel_y'
p3
F-0.49998579445993574
sS'vel_x'
p4
F-0.0037689969842017524
sS'pos_x'
p5
F90.223983544795544
sS'pos_y'
p6
F-89.83979749073174
sS'isAlive'
p7
I01
sS'geno'
p8
(lp9
F0.45654115983020305
aF-1.8723787691558791
aF0.80896238186894376
aF4.5830050372792908
aF3.1852199978500408
aF-2.0730399024827286
asS'accel_x'
p10
F1.0856158616921576
sS'accel_y'
p11
F1.6797137258599735
sS'maxAccel'
p12
I2
sS'maxVel'
p13
F0.5
sS'age'
p14
I100
sS'gener'
p15
S'm'
sS'lastScale'
p16
F15.4
sS'energy'
p17
F0.98999999999999999
sb.(i__main__
Data_mobile
p1
(dp2
S'vel_y'
p3
F0.12437962487483251
sS'vel_x'
p4
F0.48428267459821017
sS'pos_x'
p5
F24.377216023283992
sS'pos_y'
p6
F-46.201431097531064
sS'isAlive'
p7
I01
sS'geno'
p8
(lp9
F-1.9405111193289204
aF-4.5685982935747278
aF0.4130512201608002
aF4.5830050372792908
aF3.1852199978500408
aF-2.0730399024827286
asS'accel_x'
p10
F-1.9412396369151235
sS'accel_y'
p11
F0.48123660715872363
sS'maxAccel'
p12
I2
sS'maxVel'
p13
F0.5
sS'age'
p14
I100
sS'gener'
p15
S'm'
sS'lastScale'
p16
F12.799999999999997
sS'energy'
p17
F0.72999999999999976
sb.(i__main__
Data_mobile
p1
(dp2
S'vel_y'
p3
F-0.49169211345814789
sS'vel_x'
p4
F0.090768196870158455
sS'pos_x'
p5
F174.20423903553643
sS'pos_y'
p6
F-28.925140880823925
sS'isAlive'
p7
I01
sS'geno'
p8
(lp9
F0.45220863168296876
aF-1.4586068875390836
aF2.4541528827522683
aF4.6389972739974654
aF3.1852199978500408
aF-2.0730399024827286
asS'accel_x'
p10
F0.15173383868084986
sS'accel_y'
p11
F-1.9942359043501281
sS'maxAccel'
p12
I2
sS'maxVel'
p13
F0.5
sS'age'
p14
I250
sS'gener'
p15
S'm'
sS'lastScale'
p16
F11.999999999999996
sS'energy'
p17
F0.64999999999999969
sb.(i__main__
Data_mobile
p1
(dp2
S'vel_y'
p3
F-0.37564961973288691
sS'vel_x'
p4
F-0.29900853928580085
sS'pos_x'
p5
F108.49468659687263
sS'pos_y'
p6
F3.5637302630605561
sS'isAlive'
p7
I01
sS'geno'
p8
(lp9
F-1.9405111193289204
aF-4.5685982935747278
aF0.80896238186894376
aF4.9744848647344702
aF3.1852199978500408
aF-0.69491951174123101
asS'accel_x'
p10
F0
sS'accel_y'
p11
F0
sS'maxAccel'
p12
I2
sS'maxVel'
p13
F0.5
sS'age'
p14
I0
sS'gener'
p15
S'm'
sS'lastScale'
p16
F5.5
sS'energy'
p17
F0.5
sb.(i__main__
Data_mobile
p1
(dp2
S'vel_y'
p3
F-0.26948005374288847
sS'vel_x'
p4
F-0.42116564512639204
sS'pos_x'
p5
F122.35377190453794
sS'pos_y'
p6
F74.353279068937695
sS'isAlive'
p7
I01
sS'geno'
p8
(lp9
F0.45220863168296876
aF-1.452038499799907
aF0.80896238186894376
aF4.9744848647344702
aF3.1852199978500408
aF-0.69491951174123101
asS'accel_x'
p10
F0.33705544722504016
sS'accel_y'
p11
F-1.9713938281063801
sS'maxAccel'
p12
I2
sS'maxVel'
p13
F0.5
sS'age'
p14
I50
sS'gener'
p15
S'm'
sS'lastScale'
p16
F15.4
sS'energy'
p17
F0.98999999999999999
sb.(i__main__
Data_mobile
p1
(dp2
S'vel_y'
p3
F0.30508397461992981
sS'vel_x'
p4
F-0.39613604788015189
sS'pos_x'
p5
F-175.89757135434937
sS'pos_y'
p6
F22.631890051018868
sS'isAlive'
p7
I01
sS'geno'
p8
(lp9
F0.45220863168296876
aF-1.6062668747378215
aF1.2051324342573539
aF4.2347823906985305
aF3.1852199978500408
aF-2.0730399024827286
asS'accel_x'
p10
F-1.4776174905220871
sS'accel_y'
p11
F1.3478303126518596
sS'maxAccel'
p12
I2
sS'maxVel'
p13
F0.5
sS'age'
p14
I150
sS'gener'
p15
S'm'
sS'lastScale'
p16
F15.199999999999999
sS'energy'
p17
F0.96999999999999997
sb.(i__main__
Data_mobile
p1
(dp2
S'vel_y'
p3
F0.47325254956082119
sS'vel_x'
p4
F-0.1613444276514763
sS'pos_x'
p5
F-22.238256843759473
sS'pos_y'
p6
F54.72160985546828
sS'isAlive'
p7
I01
sS'geno'
p8
(lp9
F0.45220863168296876
aF-1.4586068875390836
aF2.4541528827522683
aF4.1839237767187214
aF3.1852199978500408
aF-2.0730399024827286
asS'accel_x'
p10
F-1.7494040232435502
sS'accel_y'
p11
F0.96932221859363166
sS'maxAccel'
p12
I2
sS'maxVel'
p13
F0.5
sS'age'
p14
I100
sS'gener'
p15
S'm'
sS'lastScale'
p16
F15.4
sS'energy'
p17
F0.98999999999999999
sb.(i__main__
Data_mobile
p1
(dp2
S'vel_y'
p3
F0.10889190282902393
sS'vel_x'
p4
F-0.42610258722828792
sS'pos_x'
p5
F0.35026156823400711
sS'pos_y'
p6
F42.230319205248804
sS'isAlive'
p7
I01
sS'geno'
p8
(lp9
F0.45220863168296876
aF-1.4586068875390836
aF2.4541528827522683
aF4.1839237767187214
aF3.1852199978500408
aF-2.0730399024827286
asS'accel_x'
p10
F0
sS'accel_y'
p11
F0
sS'maxAccel'
p12
I2
sS'maxVel'
p13
F0.5
sS'age'
p14
I0
sS'gener'
p15
S'm'
sS'lastScale'
p16
F5.5
sS'energy'
p17
F0.5
sb.(i__main__
Data_mobile
p1
(dp2
S'vel_y'
p3
F0.43681786891923186
sS'vel_x'
p4
F-0.18781923791971225
sS'pos_x'
p5
F142.16815614890845
sS'pos_y'
p6
F-36.193971768558917
sS'isAlive'
p7
I01
sS'geno'
p8
(lp9
F-0.41088940919983252
aF-1.6062668747378215
aF0.80896238186894376
aF4.5830050372792908
aF3.1852199978500408
aF-0.95602281803902578
asS'accel_x'
p10
F0
sS'accel_y'
p11
F0
sS'maxAccel'
p12
I2
sS'maxVel'
p13
F0.5
sS'age'
p14
I0
sS'gener'
p15
S'm'
sS'lastScale'
p16
F5.5
sS'energy'
p17
F0.5
sb.(i__main__
Data_mobile
p1
(dp2
S'vel_y'
p3
F0.088073833234790663
sS'vel_x'
p4
F0.49218187684973763
sS'pos_x'
p5
F-119.32237298476632
sS'pos_y'
p6
F-38.307288495903471
sS'isAlive'
p7
I01
sS'geno'
p8
(lp9
F0.45220863168296876
aF-1.6062668747378215
aF0.80896238186894376
aF4.5830050372792908
aF3.1852199978500408
aF-2.0730399024827286
asS'accel_x'
p10
F0.051788066090248108
sS'accel_y'
p11
F-0.3931308888908247
sS'maxAccel'
p12
I2
sS'maxVel'
p13
F0.5
sS'age'
p14
I200
sS'gener'
p15
S'm'
sS'lastScale'
p16
F15.4
sS'energy'
p17
F0.98999999999999999
sb.(i__main__
Data_mobile
p1
(dp2
S'vel_y'
p3
F-0.058906074702376493
sS'vel_x'
p4
F-0.49651794968878821
sS'pos_x'
p5
F122.73844713727301
sS'pos_y'
p6
F73.236369567060379
sS'isAlive'
p7
I01
sS'geno'
p8
(lp9
F0.45220863168296876
aF-1.452038499799907
aF0.80896238186894376
aF4.5830050372792908
aF3.1852199978500408
aF-0.69491951174123101
asS'accel_x'
p10
F-0.51250892531825243
sS'accel_y'
p11
F1.9332187153731804
sS'maxAccel'
p12
I2
sS'maxVel'
p13
F0.5
sS'age'
p14
I200
sS'gener'
p15
S'm'
sS'lastScale'
p16
F15.4
sS'energy'
p17
F0.98999999999999999
sb.(i__main__
Data_mobile
p1
(dp2
S'vel_y'
p3
F-0.37812416208827648
sS'vel_x'
p4
F0.3271423513472978
sS'pos_x'
p5
F122.19740213139842
sS'pos_y'
p6
F-26.255747399871645
sS'isAlive'
p7
I01
sS'geno'
p8
(lp9
F-0.016571782053739659
aF-1.6062668747378215
aF0.80896238186894376
aF4.2347823906985305
aF3.1852199978500408
aF-2.0730399024827286
asS'accel_x'
p10
F1.3316878937656247
sS'accel_y'
p11
F-1.4921820778973569
sS'maxAccel'
p12
I2
sS'maxVel'
p13
F0.5
sS'age'
p14
I50
sS'gener'
p15
S'm'
sS'lastScale'
p16
F5.5
sS'energy'
p17
I0
sb.(i__main__
Data_mobile
p1
(dp2
S'vel_y'
p3
F0.15605433170921709
sS'vel_x'
p4
F0.47502320528032066
sS'pos_x'
p5
F108.30419734432141
sS'pos_y'
p6
F-15.439405630001716
sS'isAlive'
p7
I01
sS'geno'
p8
(lp9
F0.45220863168296876
aF-1.452038499799907
aF0.80896238186894376
aF4.5830050372792908
aF3.1852199978500408
aF-0.80898073246756397
asS'accel_x'
p10
F1.9768069628741112
sS'accel_y'
p11
F-0.30370089155686047
sS'maxAccel'
p12
I2
sS'maxVel'
p13
F0.5
sS'age'
p14
I100
sS'gener'
p15
S'm'
sS'lastScale'
p16
F11.599999999999996
sS'energy'
p17
F0.60999999999999965
sb.(i__main__
Data_mobile
p1
(dp2
S'vel_y'
p3
F-0.42432113084379974
sS'vel_x'
p4
F0.26448360614495375
sS'pos_x'
p5
F175.48181707916055
sS'pos_y'
p6
F-51.804916613535255
sS'isAlive'
p7
I01
sS'geno'
p8
(lp9
F-0.45383342273293392
aF-1.4586068875390836
aF2.4541528827522683
aF4.1839237767187214
aF3.1852199978500408
aF-2.0730399024827286
asS'accel_x'
p10
F0.53548243340664248
sS'accel_y'
p11
F-1.9269817237101396
sS'maxAccel'
p12
I2
sS'maxVel'
p13
F0.5
sS'age'
p14
I300
sS'gener'
p15
S'm'
sS'lastScale'
p16
F11.999999999999996
sS'energy'
p17
F0.64999999999999969
sb.(i__main__
Data_mobile
p1
(dp2
S'vel_y'
p3
F-0.33040240099754492
sS'vel_x'
p4
F0.30381328605170776
sS'pos_x'
p5
F123.64940623248438
sS'pos_y'
p6
F-55.107098652351119
sS'isAlive'
p7
I01
sS'geno'
p8
(lp9
F0.45220863168296876
aF-1.4586068875390836
aF2.4541528827522683
aF4.5211525384770237
aF2.4756686226721971
aF-2.0730399024827286
asS'accel_x'
p10
F0
sS'accel_y'
p11
F0
sS'maxAccel'
p12
I2
sS'maxVel'
p13
F0.5
sS'age'
p14
I0
sS'gener'
p15
S'm'
sS'lastScale'
p16
F5.5
sS'energy'
p17
F0.5
sb.(i__main__
Data_mobile
p1
(dp2
S'vel_y'
p3
F0.070482376657258899
sS'vel_x'
p4
F0.13768415912270579
sS'pos_x'
p5
F-80.685506546318891
sS'pos_y'
p6
F-41.841834622216098
sS'isAlive'
p7
I01
sS'geno'
p8
(lp9
F-0.45383342273293392
aF-1.144730229373901
aF2.3731605109140066
aF4.5830050372792908
aF3.1852199978500408
aF-2.0730399024827286
asS'accel_x'
p10
F0
sS'accel_y'
p11
F0
sS'maxAccel'
p12
I2
sS'maxVel'
p13
F0.5
sS'age'
p14
I0
sS'gener'
p15
S'm'
sS'lastScale'
p16
F5.5
sS'energy'
p17
F0.5
sb.(i__main__
Data_mobile
p1
(dp2
S'vel_y'
p3
F-0.20863740114746113
sS'vel_x'
p4
F0.45439017907788609
sS'pos_x'
p5
F105.69217211537541
sS'pos_y'
p6
F-31.99748040295713
sS'isAlive'
p7
I01
sS'geno'
p8
(lp9
F0.45220863168296876
aF-1.4586068875390836
aF2.4541528827522683
aF4.6389972739974654
aF3.1852199978500408
aF-1.2804196165780763
asS'accel_x'
p10
F1.8434602047220146
sS'accel_y'
p11
F-0.77566389216352449
sS'maxAccel'
p12
I2
sS'maxVel'
p13
F0.5
sS'age'
p14
I50
sS'gener'
p15
S'm'
sS'lastScale'
p16
F12.499999999999993
sS'energy'
p17
F0.6999999999999994
sb.(i__main__
Data_mobile
p1
(dp2
S'vel_y'
p3
F0.49478715666148049
sS'vel_x'
p4
F0.072011593530816848
sS'pos_x'
p5
F-174.38043958503496
sS'pos_y'
p6
F23.483741474853392
sS'isAlive'
p7
I01
sS'geno'
p8
(lp9
F0.45220863168296876
aF-1.1337145404622857
aF0.80896238186894376
aF4.712670146659578
aF3.1852199978500408
aF-2.0730399024827286
asS'accel_x'
p10
F0.32668896763488819
sS'accel_y'
p11
F1.9731381904027023
sS'maxAccel'
p12
I2
sS'maxVel'
p13
F0.5
sS'age'
p14
I100
sS'gener'
p15
S'm'
sS'lastScale'
p16
F15.199999999999999
sS'energy'
p17
F0.96999999999999997
sb.(i__main__
Data_mobile
p1
(dp2
S'vel_y'
p3
F-0.16729104523736479
sS'vel_x'
p4
F-0.47118330422818461
sS'pos_x'
p5
F-51.343704497221246
sS'pos_y'
p6
F-38.315119862888743
sS'isAlive'
p7
I01
sS'geno'
p8
(lp9
F-0.45383342273293392
aF-1.4586068875390836
aF2.4541528827522683
aF4.1839237767187214
aF3.1852199978500408
aF-0.80898073246756397
asS'accel_x'
p10
F1.2823507478259597
sS'accel_y'
p11
F-1.5347887670784546
sS'maxAccel'
p12
I2
sS'maxVel'
p13
F0.5
sS'age'
p14
I150
sS'gener'
p15
S'm'
sS'lastScale'
p16
F15.4
sS'energy'
p17
F0.98999999999999999
sb.(i__main__
Data_mobile
p1
(dp2
S'vel_y'
p3
F-0.15088924683353169
sS'vel_x'
p4
F-0.47668903405680474
sS'pos_x'
p5
F165.95930904335316
sS'pos_y'
p6
F4.221293591736285
sS'isAlive'
p7
I01
sS'geno'
p8
(lp9
F-1.9405111193289204
aF-4.5685982935747278
aF0.80896238186894376
aF4.5830050372792908
aF3.1852199978500408
aF-2.0730399024827286
asS'accel_x'
p10
F-1.5087181871049402
sS'accel_y'
p11
F-1.312924000808418
sS'maxAccel'
p12
I2
sS'maxVel'
p13
F0.5
sS'age'
p14
I250
sS'gener'
p15
S'm'
sS'lastScale'
p16
F5.9999999999999929
sS'energy'
p17
F0.049999999999999253
sb.(i__main__
Data_mobile
p1
(dp2
S'vel_y'
p3
F0.46979936056146993
sS'vel_x'
p4
F0.17113901021109695
sS'pos_x'
p5
F-118.77373753726913
sS'pos_y'
p6
F-38.883208871573494
sS'isAlive'
p7
I01
sS'geno'
p8
(lp9
F-0.45383342273293392
aF-1.4586068875390836
aF2.4541528827522683
aF4.5211525384770237
aF2.4756686226721971
aF-2.0730399024827286
asS'accel_x'
p10
F-1.75764745238736
sS'accel_y'
p11
F0.95429315889627064
sS'maxAccel'
p12
I2
sS'maxVel'
p13
F0.5
sS'age'
p14
I250
sS'gener'
p15
S'm'
sS'lastScale'
p16
F15.4
sS'energy'
p17
F0.98999999999999999
sb.(i__main__
Data_mobile
p1
(dp2
S'vel_y'
p3
F0.1181129415345894
sS'vel_x'
p4
F-0.48584908463641951
sS'pos_x'
p5
F-101.72989370038979
sS'pos_y'
p6
F28.399524979115618
sS'isAlive'
p7
I01
sS'geno'
p8
(lp9
F-0.016571782053739659
aF-1.6062668747378215
aF0.80896238186894376
aF4.5830050372792908
aF3.1852199978500408
aF-0.80898073246756397
asS'accel_x'
p10
F-0.09583781664957107
sS'accel_y'
p11
F-1.9977024585507828
sS'maxAccel'
p12
I2
sS'maxVel'
p13
F0.5
sS'age'
p14
I150
sS'gener'
p15
S'm'
sS'lastScale'
p16
F5.5
sS'energy'
p17
I0
sb.(i__main__
Data_mobile
p1
(dp2
S'vel_y'
p3
F-0.40321133963479555
sS'vel_x'
p4
F-0.29566977456262511
sS'pos_x'
p5
F96.848837065795735
sS'pos_y'
p6
F-29.770976276628925
sS'isAlive'
p7
I01
sS'geno'
p8
(lp9
F-0.016571782053739659
aF-1.6062668747378215
aF1.1017270187398345
aF4.2347823906985305
aF3.1852199978500408
aF-2.0730399024827286
asS'accel_x'
p10
F0.18638677464098186
sS'accel_y'
p11
F-1.9912960528858918
sS'maxAccel'
p12
I2
sS'maxVel'
p13
F0.5
sS'age'
p14
I200
sS'gener'
p15
S'm'
sS'lastScale'
p16
F11.599999999999996
sS'energy'
p17
F0.60999999999999965
sb.(i__main__
Data_mobile
p1
(dp2
S'vel_y'
p3
F-0.093238446023810137
sS'vel_x'
p4
F-0.49122967355715091
sS'pos_x'
p5
F-174.62651027226303
sS'pos_y'
p6
F22.744262480124458
sS'isAlive'
p7
I01
sS'geno'
p8
(lp9
F-0.016571782053739659
aF-1.6062668747378215
aF0.80896238186894376
aF4.712670146659578
aF3.1852199978500408
aF-2.0730399024827286
asS'accel_x'
p10
F1.8972954096378245
sS'accel_y'
p11
F0.20576658103835621
sS'maxAccel'
p12
I2
sS'maxVel'
p13
F0.5
sS'age'
p14
I300
sS'gener'
p15
S'm'
sS'lastScale'
p16
F15.199999999999999
sS'energy'
p17
F0.96999999999999997
sb.(i__main__
Data_mobile
p1
(dp2
S'vel_y'
p3
F0.49422783312079527
sS'vel_x'
p4
F0.075755191034828723
sS'pos_x'
p5
F147.63574136293687
sS'pos_y'
p6
F-61.816274257328516
sS'isAlive'
p7
I01
sS'geno'
p8
(lp9
F-0.41088940919983252
aF-1.6062668747378215
aF0.80896238186894376
aF4.5830050372792908
aF3.1852199978500408
aF-0.95602281803902578
asS'accel_x'
p10
F-1.2498351898233144
sS'accel_y'
p11
F-1.5613814390722465
sS'maxAccel'
p12
I2
sS'maxVel'
p13
F0.5
sS'age'
p14
I50
sS'gener'
p15
S'm'
sS'lastScale'
p16
F15.4
sS'energy'
p17
F0.98999999999999999
sb.(i__main__
Data_mobile
p1
(dp2
S'vel_y'
p3
F-0.25746021712053019
sS'vel_x'
p4
F-0.42861898768049161
sS'pos_x'
p5
F122.01585074437607
sS'pos_y'
p6
F74.283787035418186
sS'isAlive'
p7
I01
sS'geno'
p8
(lp9
F0.45220863168296876
aF-1.7651279286005581
aF0.80896238186894376
aF4.5830050372792908
aF3.1852199978500408
aF-2.0730399024827286
asS'accel_x'
p10
F1.2192692421151616
sS'accel_y'
p11
F-1.5853651047099273
sS'maxAccel'
p12
I2
sS'maxVel'
p13
F0.5
sS'age'
p14
I50
sS'gener'
p15
S'm'
sS'lastScale'
p16
F15.4
sS'energy'
p17
F0.98999999999999999
sb.(i__main__
Data_mobile
p1
(dp2
S'vel_y'
p3
F-0.34149927928684304
sS'vel_x'
p4
F-0.36520986055495103
sS'pos_x'
p5
F183.87158320507118
sS'pos_y'
p6
F-59.237963529152495
sS'isAlive'
p7
I01
sS'geno'
p8
(lp9
F-0.016571782053739659
aF-1.6062668747378215
aF0.80896238186894376
aF4.5830050372792908
aF3.1852199978500408
aF-2.0730399024827286
asS'accel_x'
p10
F-0.11540318754143084
sS'accel_y'
p11
F-1.9966677501039769
sS'maxAccel'
p12
I2
sS'maxVel'
p13
F0.5
sS'age'
p14
I319
sS'gener'
p15
S'm'
sS'lastScale'
p16
F15.4
sS'energy'
p17
F0.98999999999999999
sb.(i__main__
Data_mobile
p1
(dp2
S'vel_y'
p3
F0.25345793079492118
sS'vel_x'
p4
F-0.16136139764476162
sS'pos_x'
p5
F124.00412422751873
sS'pos_y'
p6
F70.782456088729177
sS'isAlive'
p7
I01
sS'geno'
p8
(lp9
F0.45220863168296876
aF-1.452038499799907
aF0.80896238186894376
aF4.9744848647344702
aF3.1852199978500408
aF-0.69491951174123101
asS'accel_x'
p10
F0
sS'accel_y'
p11
F0
sS'maxAccel'
p12
I2
sS'maxVel'
p13
F0.5
sS'age'
p14
I0
sS'gener'
p15
S'm'
sS'lastScale'
p16
F5.5
sS'energy'
p17
F0.5
sb.(i__main__
Data_mobile
p1
(dp2
S'vel_y'
p3
F0.0040333493039596269
sS'vel_x'
p4
F-0.49998373182873884
sS'pos_x'
p5
F122.0866911427398
sS'pos_y'
p6
F72.698484086472021
sS'isAlive'
p7
I01
sS'geno'
p8
(lp9
F0.45220863168296876
aF-1.6062668747378215
aF0.80896238186894376
aF4.3159030456607113
aF3.1852199978500408
aF-2.0730399024827286
asS'accel_x'
p10
F0.42918044421150292
sS'accel_y'
p11
F1.9534083409022336
sS'maxAccel'
p12
I2
sS'maxVel'
p13
F0.5
sS'age'
p14
I200
sS'gener'
p15
S'm'
sS'lastScale'
p16
F15.4
sS'energy'
p17
F0.98999999999999999
sb.(i__main__
Data_mobile
p1
(dp2
S'vel_y'
p3
F-0.16496626696745637
sS'vel_x'
p4
F0.27922299984757371
sS'pos_x'
p5
F82.953170446362549
sS'pos_y'
p6
F22.604698049573539
sS'isAlive'
p7
I01
sS'geno'
p8
(lp9
F0.58265686390685789
aF-1.4586068875390836
aF2.4541528827522683
aF4.6389972739974654
aF3.1852199978500408
aF-2.0730399024827286
asS'accel_x'
p10
F0
sS'accel_y'
p11
F0
sS'maxAccel'
p12
I2
sS'maxVel'
p13
F0.5
sS'age'
p14
I0
sS'gener'
p15
S'm'
sS'lastScale'
p16
F5.5
sS'energy'
p17
F0.5
sb.(i__main__
Data_mobile
p1
(dp2
S'vel_y'
p3
F0.44017227822016985
sS'vel_x'
p4
F0.2371673786305051
sS'pos_x'
p5
F-173.69270345688292
sS'pos_y'
p6
F24.470821408159036
sS'isAlive'
p7
I01
sS'geno'
p8
(lp9
F-0.016571782053739659
aF-1.6062668747378215
aF0.80896238186894376
aF4.2104103695833492
aF3.1852199978500408
aF-0.80898073246756397
asS'accel_x'
p10
F0.90708445824877681
sS'accel_y'
p11
F1.7824695749446955
sS'maxAccel'
p12
I2
sS'maxVel'
p13
F0.5
sS'age'
p14
I100
sS'gener'
p15
S'm'
sS'lastScale'
p16
F15.199999999999999
sS'energy'
p17
F0.96999999999999997
sb.(i__main__
Data_mobile
p1
(dp2
S'vel_y'
p3
F0.35436615626292556
sS'vel_x'
p4
F0.35273875218841472
sS'pos_x'
p5
F-121.59339547356254
sS'pos_y'
p6
F91.39921031576695
sS'isAlive'
p7
I01
sS'geno'
p8
(lp9
F0.45220863168296876
aF-1.4586068875390836
aF2.3731605109140066
aF4.5830050372792908
aF2.8119175618407795
aF-0.80898073246756397
asS'accel_x'
p10
F-1.9968326601651183
sS'accel_y'
p11
F-0.11251367604827731
sS'maxAccel'
p12
I2
sS'maxVel'
p13
F0.5
sS'age'
p14
I150
sS'gener'
p15
S'm'
sS'lastScale'
p16
F15.4
sS'energy'
p17
F0.98999999999999999
sb.(i__main__
Data_mobile
p1
(dp2
S'vel_y'
p3
F0.4965121431340358
sS'vel_x'
p4
F0.058954997417070699
sS'pos_x'
p5
F182.67504075047449
sS'pos_y'
p6
F51.739424916414904
sS'isAlive'
p7
I01
sS'geno'
p8
(lp9
F0.45220863168296876
aF-1.6062668747378215
aF0.80896238186894376
aF4.5830050372792908
aF3.1852199978500408
aF-0.69491951174123101
asS'accel_x'
p10
F0.47384368705797192
sS'accel_y'
p11
F1.9430574258717388
sS'maxAccel'
p12
I2
sS'maxVel'
p13
F0.5
sS'age'
p14
I200
sS'gener'
p15
S'm'
sS'lastScale'
p16
F10.799999999999995
sS'energy'
p17
F0.52999999999999958
sb.(i__main__
Data_mobile
p1
(dp2
S'vel_y'
p3
F-0.49876700625963299
sS'vel_x'
p4
F0.035092356244675042
sS'pos_x'
p5
F94.912147022190126
sS'pos_y'
p6
F-37.335174115137484
sS'isAlive'
p7
I01
sS'geno'
p8
(lp9
F0.45220863168296876
aF-1.4586068875390836
aF2.4541528827522683
aF4.6389972739974654
aF3.1852199978500408
aF-2.0730399024827286
asS'accel_x'
p10
F0.57963531600812512
sS'accel_y'
p11
F-1.9141637600885042
sS'maxAccel'
p12
I2
sS'maxVel'
p13
F0.5
sS'age'
p14
I50
sS'gener'
p15
S'm'
sS'lastScale'
p16
F9.4999999999999964
sS'energy'
p17
F0.39999999999999958
sb.(i__main__
Data_mobile
p1
(dp2
S'vel_y'
p3
F-0.18750701270755343
sS'vel_x'
p4
F0.14017226056853049
sS'pos_x'
p5
F40.938718177297503
sS'pos_y'
p6
F-31.150144783769711
sS'isAlive'
p7
I01
sS'geno'
p8
(lp9
F-0.20986348397593169
aF-1.793982265727593
aF0.80896238186894376
aF4.5830050372792908
aF3.1852199978500408
aF-2.0730399024827286
asS'accel_x'
p10
F0
sS'accel_y'
p11
F0
sS'maxAccel'
p12
I2
sS'maxVel'
p13
F0.5
sS'age'
p14
I0
sS'gener'
p15
S'm'
sS'lastScale'
p16
F5.5
sS'energy'
p17
F0.5
sb.(i__main__
Data_mobile
p1
(dp2
S'vel_y'
p3
F0.49143684820156708
sS'vel_x'
p4
F0.092140242183911633
sS'pos_x'
p5
F94.989074098945551
sS'pos_y'
p6
F-10.905680828314626
sS'isAlive'
p7
I01
sS'geno'
p8
(lp9
F-0.45383342273293392
aF-1.4586068875390836
aF2.4541528827522683
aF4.1839237767187214
aF3.1852199978500408
aF-0.80898073246756397
asS'accel_x'
p10
F-0.1328369127665647
sS'accel_y'
p11
F1.9955837127534009
sS'maxAccel'
p12
I2
sS'maxVel'
p13
F0.5
sS'age'
p14
I300
sS'gener'
p15
S'm'
sS'lastScale'
p16
F11.599999999999996
sS'energy'
p17
F0.60999999999999965
sb.(i__main__
Data_mobile
p1
(dp2
S'vel_y'
p3
F-0.053887502539473095
sS'vel_x'
p4
F0.49708765531851451
sS'pos_x'
p5
F28.410223869184563
sS'pos_y'
p6
F-46.752750124544718
sS'isAlive'
p7
I01
sS'geno'
p8
(lp9
F-0.20986348397593169
aF-1.4586068875390836
aF2.3731605109140066
aF4.5830050372792908
aF3.1852199978500408
aF-2.0730399024827286
asS'accel_x'
p10
F-1.8852531879873533
sS'accel_y'
p11
F0.6676978487186559
sS'maxAccel'
p12
I2
sS'maxVel'
p13
F0.5
sS'age'
p14
I100
sS'gener'
p15
S'm'
sS'lastScale'
p16
F15.4
sS'energy'
p17
F0.98999999999999999
sb.(i__main__
Data_mobile
p1
(dp2
S'vel_y'
p3
F0.45494727041857125
sS'vel_x'
p4
F0.20741981857742378
sS'pos_x'
p5
F-20.945580035208817
sS'pos_y'
p6
F53.929589706104814
sS'isAlive'
p7
I01
sS'geno'
p8
(lp9
F0.45220863168296876
aF-1.4586068875390836
aF2.4541528827522683
aF4.1839237767187214
aF3.1852199978500408
aF-2.0730399024827286
asS'accel_x'
p10
F-1.9999960120892815
sS'accel_y'
p11
F0.0039939487942314503
sS'maxAccel'
p12
I2
sS'maxVel'
p13
F0.5
sS'age'
p14
I200
sS'gener'
p15
S'm'
sS'lastScale'
p16
F15.4
sS'energy'
p17
F0.98999999999999999
sb.(i__main__
Data_mobile
p1
(dp2
S'vel_y'
p3
F0.14095249873670676
sS'vel_x'
p4
F-0.4797211618220304
sS'pos_x'
p5
F147.88354274979389
sS'pos_y'
p6
F-62.875446061807565
sS'isAlive'
p7
I01
sS'geno'
p8
(lp9
F-0.44786608594764388
aF-1.6062668747378215
aF0.80896238186894376
aF4.5830050372792908
aF3.1852199978500408
aF-2.3349929390765287
asS'accel_x'
p10
F-1.9906039718732602
sS'accel_y'
p11
F0.19363839279027575
sS'maxAccel'
p12
I2
sS'maxVel'
p13
F0.5
sS'age'
p14
I50
sS'gener'
p15
S'm'
sS'lastScale'
p16
F15.4
sS'energy'
p17
F0.98999999999999999
sb.(i__main__
Data_mobile
p1
(dp2
S'vel_y'
p3
F-0.49805009848465914
sS'vel_x'
p4
F-0.044114616618773361
sS'pos_x'
p5
F6.1240244379175692
sS'pos_y'
p6
F-32.831117341159732
sS'isAlive'
p7
I01
sS'geno'
p8
(lp9
F-1.9405111193289204
aF-4.5685982935747278
aF0.80896238186894376
aF4.5830050372792908
aF3.1852199978500408
aF-2.0730399024827286
asS'accel_x'
p10
F-1.9794129304740284
sS'accel_y'
p11
F-0.28622447601876871
sS'maxAccel'
p12
I2
sS'maxVel'
p13
F0.5
sS'age'
p14
I100
sS'gener'
p15
S'm'
sS'lastScale'
p16
F15.4
sS'energy'
p17
F0.98999999999999999
sb.(i__main__
Data_mobile
p1
(dp2
S'vel_y'
p3
F0.28879183175397272
sS'vel_x'
p4
F0.13088220509005491
sS'pos_x'
p5
F-60.75669825028664
sS'pos_y'
p6
F-36.071914045024187
sS'isAlive'
p7
I01
sS'geno'
p8
(lp9
F-0.45383342273293392
aF-4.775211542864219
aF0.80896238186894376
aF4.5830050372792908
aF3.1852199978500408
aF-2.0730399024827286
asS'accel_x'
p10
F0
sS'accel_y'
p11
F0
sS'maxAccel'
p12
I2
sS'maxVel'
p13
F0.5
sS'age'
p14
I0
sS'gener'
p15
S'm'
sS'lastScale'
p16
F5.5
sS'energy'
p17
F0.5
sb.(i__main__
Data_mobile
p1
(dp2
S'vel_y'
p3
F-0.47473483319378956
sS'vel_x'
p4
F-0.15692940499621114
sS'pos_x'
p5
F-122.67199357966598
sS'pos_y'
p6
F90.01313523164589
sS'isAlive'
p7
I01
sS'geno'
p8
(lp9
F0.45220863168296876
aF-1.6062668747378215
aF0.80896238186894376
aF4.5830050372792908
aF3.1852199978500408
aF-0.80898073246756397
asS'accel_x'
p10
F-0.80090376917028716
sS'accel_y'
p11
F1.8326355754837971
sS'maxAccel'
p12
I2
sS'maxVel'
p13
F0.5
sS'age'
p14
I150
sS'gener'
p15
S'm'
sS'lastScale'
p16
F15.4
sS'energy'
p17
F0.98999999999999999
sb.(i__main__
Data_mobile
p1
(dp2
S'vel_y'
p3
F-0.26310870896578881
sS'vel_x'
p4
F-0.42517503132986989
sS'pos_x'
p5
F-90.066952549033374
sS'pos_y'
p6
F26.714941104716477
sS'isAlive'
p7
I01
sS'geno'
p8
(lp9
F-0.45383342273293392
aF-1.6062668747378215
aF0.80896238186894376
aF4.5830050372792908
aF2.2594871236581016
aF-0.80898073246756397
asS'accel_x'
p10
F0.45404772744680144
sS'accel_y'
p11
F-1.947778391193514
sS'maxAccel'
p12
I2
sS'maxVel'
p13
F0.5
sS'age'
p14
I300
sS'gener'
p15
S'm'
sS'lastScale'
p16
F5.5
sS'energy'
p17
I0
sb.(i__main__
Data_mobile
p1
(dp2
S'vel_y'
p3
F-0.42852347625977877
sS'vel_x'
p4
F-0.25761915746744224
sS'pos_x'
p5
F-173.71128705597988
sS'pos_y'
p6
F23.898946171073074
sS'isAlive'
p7
I01
sS'geno'
p8
(lp9
F-0.016571782053739659
aF-1.6062668747378215
aF0.80896238186894376
aF4.5830050372792908
aF2.4756686226721971
aF-0.80898073246756397
asS'accel_x'
p10
F1.2269791844208564
sS'accel_y'
p11
F1.5794056100311693
sS'maxAccel'
p12
I2
sS'maxVel'
p13
F0.5
sS'age'
p14
I100
sS'gener'
p15
S'm'
sS'lastScale'
p16
F15.199999999999999
sS'energy'
p17
F0.96999999999999997
sb.(i__main__
Data_mobile
p1
(dp2
S'vel_y'
p3
F0.18392433071217845
sS'vel_x'
p4
F0.10755924951587034
sS'pos_x'
p5
F-74.816472101109781
sS'pos_y'
p6
F-36.753199577258179
sS'isAlive'
p7
I01
sS'geno'
p8
(lp9
F-1.9405111193289204
aF-1.4586068875390836
aF2.4541528827522683
aF4.5211525384770237
aF2.4756686226721971
aF-2.0730399024827286
asS'accel_x'
p10
F0
sS'accel_y'
p11
F0
sS'maxAccel'
p12
I2
sS'maxVel'
p13
F0.5
sS'age'
p14
I0
sS'gener'
p15
S'm'
sS'lastScale'
p16
F5.5
sS'energy'
p17
F0.5
sb.(i__main__
Data_mobile
p1
(dp2
S'vel_y'
p3
F-0.49499783360119393
sS'vel_x'
p4
F-0.070548881848862335
sS'pos_x'
p5
F186.39962525002937
sS'pos_y'
p6
F-12.649099127980078
sS'isAlive'
p7
I01
sS'geno'
p8
(lp9
F0.45220863168296876
aF-1.6062668747378215
aF0.80896238186894376
aF4.5830050372792908
aF3.1852199978500408
aF-0.80898073246756397
asS'accel_x'
p10
F-0.40776082975092448
sS'accel_y'
p11
F-1.9579916000128392
sS'maxAccel'
p12
I2
sS'maxVel'
p13
F0.5
sS'age'
p14
I150
sS'gener'
p15
S'm'
sS'lastScale'
p16
F11.999999999999996
sS'energy'
p17
F0.64999999999999969
sb.(i__main__
Data_mobile
p1
(dp2
S'vel_y'
p3
F0.04638833000400424
sS'vel_x'
p4
F-0.49784347222740566
sS'pos_x'
p5
F-163.04039947329196
sS'pos_y'
p6
F15.033334213461343
sS'isAlive'
p7
I01
sS'geno'
p8
(lp9
F-0.016571782053739659
aF-1.4358429881357591
aF0.80896238186894376
aF4.2347823906985305
aF3.1852199978500408
aF-2.0730399024827286
asS'accel_x'
p10
F-0.76865502789323803
sS'accel_y'
p11
F1.8463936330301958
sS'maxAccel'
p12
I2
sS'maxVel'
p13
F0.5
sS'age'
p14
I50
sS'gener'
p15
S'm'
sS'lastScale'
p16
F5.5
sS'energy'
p17
I0
sb.(i__main__
Data_mobile
p1
(dp2
S'vel_y'
p3
F0.28343375308258928
sS'vel_x'
p4
F0.41190448846002858
sS'pos_x'
p5
F-118.53901755441117
sS'pos_y'
p6
F-38.481878959555452
sS'isAlive'
p7
I01
sS'geno'
p8
(lp9
F0.45220863168296876
aF-1.6062668747378215
aF0.80896238186894376
aF4.2347823906985305
aF3.1852199978500408
aF-2.0730399024827286
asS'accel_x'
p10
F-1.9517581309857859
sS'accel_y'
p11
F0.43662363441626945
sS'maxAccel'
p12
I2
sS'maxVel'
p13
F0.5
sS'age'
p14
I200
sS'gener'
p15
S'm'
sS'lastScale'
p16
F15.4
sS'energy'
p17
F0.98999999999999999
sb.(i__main__
Data_mobile
p1
(dp2
S'vel_y'
p3
F0.29332318073790081
sS'vel_x'
p4
F-0.40492161172478897
sS'pos_x'
p5
F-174.91322479361978
sS'pos_y'
p6
F23.702979668143826
sS'isAlive'
p7
I01
sS'geno'
p8
(lp9
F0.45220863168296876
aF-1.6062668747378215
aF0.80896238186894376
aF4.5830050372792908
aF3.1852199978500408
aF-2.0730399024827286
asS'accel_x'
p10
F0.96688572257015715
sS'accel_y'
p11
F1.7507518383511653
sS'maxAccel'
p12
I2
sS'maxVel'
p13
F0.5
sS'age'
p14
I150
sS'gener'
p15
S'm'
sS'lastScale'
p16
F14.599999999999998
sS'energy'
p17
F0.9099999999999997
sb.(i__main__
Data_mobile
p1
(dp2
S'vel_y'
p3
F0.33669610720067172
sS'vel_x'
p4
F-0.36964270775427699
sS'pos_x'
p5
F120.95155321555919
sS'pos_y'
p6
F73.706393189059895
sS'isAlive'
p7
I01
sS'geno'
p8
(lp9
F-0.20986348397593169
aF-1.6062668747378215
aF1.0551340499213064
aF4.5830050372792908
aF3.1852199978500408
aF-2.0730399024827286
asS'accel_x'
p10
F1.9196209764477512
sS'accel_y'
p11
F-0.56129787705084266
sS'maxAccel'
p12
I2
sS'maxVel'
p13
F0.5
sS'age'
p14
I50
sS'gener'
p15
S'm'
sS'lastScale'
p16
F15.4
sS'energy'
p17
F0.98999999999999999
sb.(i__main__
Data_mobile
p1
(dp2
S'vel_y'
p3
F0.067175857106193171
sS'vel_x'
p4
F0.49546685481679631
sS'pos_x'
p5
F-185.80524414696416
sS'pos_y'
p6
F-84.445455851461574
sS'isAlive'
p7
I01
sS'geno'
p8
(lp9
F0.45220863168296876
aF-1.6062668747378215
aF0.80896238186894376
aF4.9518325780704862
aF3.1852199978500408
aF-0.80898073246756397
asS'accel_x'
p10
F-1.7461496380973995
sS'accel_y'
p11
F-0.97517251877415045
sS'maxAccel'
p12
I2
sS'maxVel'
p13
F0.5
sS'age'
p14
I50
sS'gener'
p15
S'm'
sS'lastScale'
p16
F15.299999999999995
sS'energy'
p17
F0.97999999999999965
sb.(i__main__
Data_mobile
p1
(dp2
S'vel_y'
p3
F0.45444548078284425
sS'vel_x'
p4
F0.20594678111765094
sS'pos_x'
p5
F-7.939987523943743
sS'pos_y'
p6
F28.192855382803074
sS'isAlive'
p7
I01
sS'geno'
p8
(lp9
F-0.20986348397593169
aF-2.4684753861435622
aF0.80896238186894376
aF4.5830050372792908
aF3.1852199978500408
aF-0.69491951174123101
asS'accel_x'
p10
F0
sS'accel_y'
p11
F0
sS'maxAccel'
p12
I2
sS'maxVel'
p13
F0.5
sS'age'
p14
I0
sS'gener'
p15
S'm'
sS'lastScale'
p16
F5.5
sS'energy'
p17
F0.5
sb.(i__main__
Data_mobile
p1
(dp2
S'vel_y'
p3
F-0.14189969926367332
sS'vel_x'
p4
F-0.35778161304425588
sS'pos_x'
p5
F142.16373351648943
sS'pos_y'
p6
F31.490997375510368
sS'isAlive'
p7
I01
sS'geno'
p8
(lp9
F0.45220863168296876
aF-1.144730229373901
aF2.3731605109140066
aF4.5830050372792908
aF3.1852199978500408
aF-2.0730399024827286
asS'accel_x'
p10
F0
sS'accel_y'
p11
F0
sS'maxAccel'
p12
I2
sS'maxVel'
p13
F0.5
sS'age'
p14
I0
sS'gener'
p15
S'm'
sS'lastScale'
p16
F5.5
sS'energy'
p17
F0.5
sb.(i__main__
Data_mobile
p1
(dp2
S'vel_y'
p3
F-0.28534908805712722
sS'vel_x'
p4
F-0.41057995316986179
sS'pos_x'
p5
F-50.756563540961203
sS'pos_y'
p6
F-38.182385891067248
sS'isAlive'
p7
I01
sS'geno'
p8
(lp9
F-0.20986348397593169
aF-1.9980260445078455
aF0.80896238186894376
aF4.5830050372792908
aF3.1852199978500408
aF-0.95602281803902578
asS'accel_x'
p10
F0.79087979799749863
sS'accel_y'
p11
F-1.8369837084523739
sS'maxAccel'
p12
I2
sS'maxVel'
p13
F0.5
sS'age'
p14
I150
sS'gener'
p15
S'm'
sS'lastScale'
p16
F15.4
sS'energy'
p17
F0.98999999999999999
sb.(i__main__
Data_mobile
p1
(dp2
S'vel_y'
p3
F0.27365497655206578
sS'vel_x'
p4
F0.41846499711240881
sS'pos_x'
p5
F-4.7580221907869849
sS'pos_y'
p6
F-1.8264899597977764
sS'isAlive'
p7
I01
sS'geno'
p8
(lp9
F-0.20986348397593169
aF-1.6062668747378215
aF0.80896238186894376
aF4.2347823906985305
aF3.1852199978500408
aF-2.0730399024827286
asS'accel_x'
p10
F-0.12318498580767595
sS'accel_y'
p11
F-1.9962027600601004
sS'maxAccel'
p12
I2
sS'maxVel'
p13
F0.5
sS'age'
p14
I100
sS'gener'
p15
S'm'
sS'lastScale'
p16
F15.4
sS'energy'
p17
F0.98999999999999999
sb.(i__main__
Data_mobile
p1
(dp2
S'vel_y'
p3
F0.30622747402539724
sS'vel_x'
p4
F-0.39525274717833986
sS'pos_x'
p5
F-124.67427664372626
sS'pos_y'
p6
F91.407079570994227
sS'isAlive'
p7
I01
sS'geno'
p8
(lp9
F0.45220863168296876
aF-1.4586068875390836
aF2.4541528827522683
aF4.1839237767187214
aF3.1852199978500408
aF-0.80898073246756397
asS'accel_x'
p10
F1.9957255550094573
sS'accel_y'
p11
F-0.13068859583832856
sS'maxAccel'
p12
I2
sS'maxVel'
p13
F0.5
sS'age'
p14
I300
sS'gener'
p15
S'm'
sS'lastScale'
p16
F15.4
sS'energy'
p17
F0.98999999999999999
sb.(i__main__
Data_mobile
p1
(dp2
S'vel_y'
p3
F0.30953864765118649
sS'vel_x'
p4
F0.36726759091452388
sS'pos_x'
p5
F43.715594109132994
sS'pos_y'
p6
F9.2863829266114202
sS'isAlive'
p7
I01
sS'geno'
p8
(lp9
F0.45220863168296876
aF-1.6062668747378215
aF0.80896238186894376
aF4.5830050372792908
aF3.1852199978500408
aF-2.5213033287215643
asS'accel_x'
p10
F0
sS'accel_y'
p11
F0
sS'maxAccel'
p12
I2
sS'maxVel'
p13
F0.5
sS'age'
p14
I0
sS'gener'
p15
S'm'
sS'lastScale'
p16
F5.5
sS'energy'
p17
F0.5
sb.(i__main__
Data_mobile
p1
(dp2
S'vel_y'
p3
F0.17115387138631255
sS'vel_x'
p4
F-0.46979394665052632
sS'pos_x'
p5
F182.88915705297111
sS'pos_y'
p6
F-59.452854406834668
sS'isAlive'
p7
I01
sS'geno'
p8
(lp9
F0.45654115983020305
aF-1.8723787691558791
aF0.80896238186894376
aF4.5830050372792908
aF3.1852199978500408
aF-2.0730399024827286
asS'accel_x'
p10
F1.9606923346699474
sS'accel_y'
p11
F-0.39457010627581823
sS'maxAccel'
p12
I2
sS'maxVel'
p13
F0.5
sS'age'
p14
I50
sS'gener'
p15
S'm'
sS'lastScale'
p16
F15.4
sS'energy'
p17
F0.98999999999999999
sb.(i__main__
Data_mobile
p1
(dp2
S'vel_y'
p3
F0.087403656322466189
sS'vel_x'
p4
F0.4923013313626769
sS'pos_x'
p5
F105.28472944416102
sS'pos_y'
p6
F-24.91435499627978
sS'isAlive'
p7
I01
sS'geno'
p8
(lp9
F0.45220863168296876
aF-1.6062668747378215
aF0.80896238186894376
aF4.5830050372792908
aF3.1852199978500408
aF-0.80898073246756397
asS'accel_x'
p10
F1.9659099214743083
sS'accel_y'
p11
F0.36769305221730636
sS'maxAccel'
p12
I2
sS'maxVel'
p13
F0.5
sS'age'
p14
I50
sS'gener'
p15
S'm'
sS'lastScale'
p16
F5.5
sS'energy'
p17
I0
sb.(i__main__
Data_mobile
p1
(dp2
S'vel_y'
p3
F-0.38037297497889722
sS'vel_x'
p4
F-0.29527443169526735
sS'pos_x'
p5
F114.99538356608826
sS'pos_y'
p6
F34.69013532594024
sS'isAlive'
p7
I01
sS'geno'
p8
(lp9
F-1.9405111193289204
aF-4.5685982935747278
aF1.1365643999932762
aF4.6389972739974654
aF3.1852199978500408
aF-2.0730399024827286
asS'accel_x'
p10
F0
sS'accel_y'
p11
F0
sS'maxAccel'
p12
I2
sS'maxVel'
p13
F0.5
sS'age'
p14
I0
sS'gener'
p15
S'm'
sS'lastScale'
p16
F5.5
sS'energy'
p17
F0.5
sb.(i__main__
Data_mobile
p1
(dp2
S'vel_y'
p3
F-0.081256971025907024
sS'vel_x'
p4
F-0.49335312369508205
sS'pos_x'
p5
F-50.713831267150056
sS'pos_y'
p6
F-39.100719821503098
sS'isAlive'
p7
I01
sS'geno'
p8
(lp9
F-0.016571782053739659
aF-1.4403711289353391
aF0.80896238186894376
aF4.5830050372792908
aF3.1852199978500408
aF-2.0730399024827286
asS'accel_x'
p10
F0.77369861481083413
sS'accel_y'
p11
F1.8442858925448073
sS'maxAccel'
p12
I2
sS'maxVel'
p13
F0.5
sS'age'
p14
I50
sS'gener'
p15
S'm'
sS'lastScale'
p16
F15.4
sS'energy'
p17
F0.98999999999999999
sb.(i__main__
Data_mobile
p1
(dp2
S'vel_y'
p3
F0.49766110229894012
sS'vel_x'
p4
F0.048305561363096806
sS'pos_x'
p5
F-118.68977039890251
sS'pos_y'
p6
F-38.294942762685316
sS'isAlive'
p7
I01
sS'geno'
p8
(lp9
F-0.30256282951421321
aF-1.4403711289353391
aF0.80896238186894376
aF4.5830050372792908
aF3.1852199978500408
aF-2.0730399024827286
asS'accel_x'
p10
F-1.8906263540214538
sS'accel_y'
p11
F0.65232813022247038
sS'maxAccel'
p12
I2
sS'maxVel'
p13
F0.5
sS'age'
p14
I50
sS'gener'
p15
S'm'
sS'lastScale'
p16
F15.4
sS'energy'
p17
F0.98999999999999999
sb.(i__main__
Data_mobile
p1
(dp2
S'vel_y'
p3
F0.13283928115456664
sS'vel_x'
p4
F-0.48203083447258638
sS'pos_x'
p5
F137.13022327759833
sS'pos_y'
p6
F-10.169524948208165
sS'isAlive'
p7
I01
sS'geno'
p8
(lp9
F-0.20986348397593169
aF-1.6062668747378215
aF0.39213193002083091
aF4.5830050372792908
aF3.1852199978500408
aF-2.0730399024827286
asS'accel_x'
p10
F-1.4614288181953881
sS'accel_y'
p11
F0.1793121574721952
sS'maxAccel'
p12
I2
sS'maxVel'
p13
F0.5
sS'age'
p14
I50
sS'gener'
p15
S'm'
sS'lastScale'
p16
F5.5
sS'energy'
p17
I0
sb.(i__main__
Data_mobile
p1
(dp2
S'vel_y'
p3
F0.29323368512059805
sS'vel_x'
p4
F-0.40498642682267011
sS'pos_x'
p5
F164.60235489454695
sS'pos_y'
p6
F-9.4229024698916639
sS'isAlive'
p7
I01
sS'geno'
p8
(lp9
F0.45220863168296876
aF-1.4586068875390836
aF2.4541528827522683
aF4.6389972739974654
aF3.1852199978500408
aF-1.6590131070799572
asS'accel_x'
p10
F-1.7143496337080131
sS'accel_y'
p11
F-1.0300511314518332
sS'maxAccel'
p12
I2
sS'maxVel'
p13
F0.5
sS'age'
p14
I50
sS'gener'
p15
S'm'
sS'lastScale'
p16
F5.5
sS'energy'
p17
I0
sb.(i__main__
Data_mobile
p1
(dp2
S'vel_y'
p3
F-0.49999959016960482
sS'vel_x'
p4
F0.00064017983973651681
sS'pos_x'
p5
F179.81096935397684
sS'pos_y'
p6
F-51.437972683555905
sS'isAlive'
p7
I01
sS'geno'
p8
(lp9
F0.45220863168296876
aF-1.6062668747378215
aF0.80896238186894376
aF4.5830050372792908
aF3.1852199978500408
aF-2.0730399024827286
asS'accel_x'
p10
F0.61857697118007049
sS'accel_y'
p11
F-1.9019365212134949
sS'maxAccel'
p12
I2
sS'maxVel'
p13
F0.5
sS'age'
p14
I50
sS'gener'
p15
S'm'
sS'lastScale'
p16
F11.999999999999996
sS'energy'
p17
F0.64999999999999969
sb.(i__main__
Data_mobile
p1
(dp2
S'vel_y'
p3
F-0.40673027076952289
sS'vel_x'
p4
F0.29081005285194422
sS'pos_x'
p5
F114.2040617068408
sS'pos_y'
p6
F-15.983356498803571
sS'isAlive'
p7
I01
sS'geno'
p8
(lp9
F0.45220863168296876
aF-1.6062668747378215
aF0.80896238186894376
aF4.5830050372792908
aF3.1852199978500408
aF-2.0730399024827286
asS'accel_x'
p10
F0.24844062027777181
sS'accel_y'
p11
F-0.81302674668588848
sS'maxAccel'
p12
I2
sS'maxVel'
p13
F0.5
sS'age'
p14
I50
sS'gener'
p15
S'm'
sS'lastScale'
p16
F5.5
sS'energy'
p17
I0
sb.(i__main__
Data_mobile
p1
(dp2
S'vel_y'
p3
F0.21584898876949599
sS'vel_x'
p4
F-0.45100910639053182
sS'pos_x'
p5
F174.60265344941473
sS'pos_y'
p6
F-0.58586098692740141
sS'isAlive'
p7
I01
sS'geno'
p8
(lp9
F-0.20986348397593169
aF-1.6062668747378215
aF0.80896238186894376
aF4.5830050372792908
aF2.4756686226721971
aF-0.80898073246756397
asS'accel_x'
p10
F-0.03994261533089738
sS'accel_y'
p11
F1.551099430124576
sS'maxAccel'
p12
I2
sS'maxVel'
p13
F0.5
sS'age'
p14
I50
sS'gener'
p15
S'm'
sS'lastScale'
p16
F9.4999999999999947
sS'energy'
p17
F0.39999999999999947
sb.(i__main__
Data_mobile
p1
(dp2
S'vel_y'
p3
F-0.49599923168478949
sS'vel_x'
p4
F-0.063124972618596148
sS'pos_x'
p5
F-5.1033332398820299
sS'pos_y'
p6
F-2.7942855177932788
sS'isAlive'
p7
I01
sS'geno'
p8
(lp9
F-0.17304555659535992
aF-1.6062668747378215
aF0.63860676970318231
aF4.5830050372792908
aF3.1852199978500408
aF-2.0730399024827286
asS'accel_x'
p10
F-1.9404330749306382
sS'accel_y'
p11
F-0.48447856682749879
sS'maxAccel'
p12
I2
sS'maxVel'
p13
F0.5
sS'age'
p14
I50
sS'gener'
p15
S'm'
sS'lastScale'
p16
F15.4
sS'energy'
p17
F0.98999999999999999
sb.(i__main__
Data_mobile
p1
(dp2
S'vel_y'
p3
F0.244859527458922
sS'vel_x'
p4
F-0.43594014705300249
sS'pos_x'
p5
F122.33830374883757
sS'pos_y'
p6
F73.10210181695011
sS'isAlive'
p7
I01
sS'geno'
p8
(lp9
F0.45220863168296876
aF-1.6062668747378215
aF0.80896238186894376
aF4.5830050372792908
aF3.1852199978500408
aF-0.95602281803902578
asS'accel_x'
p10
F0.41097240969500964
sS'accel_y'
p11
F1.9573200245410758
sS'maxAccel'
p12
I2
sS'maxVel'
p13
F0.5
sS'age'
p14
I50
sS'gener'
p15
S'm'
sS'lastScale'
p16
F15.4
sS'energy'
p17
F0.98999999999999999
sb.(i__main__
Data_mobile
p1
(dp2
S'vel_y'
p3
F-0.22342285459039485
sS'vel_x'
p4
F-0.44730551980349997
sS'pos_x'
p5
F1.5199806457450025
sS'pos_y'
p6
F-3.4055283817217212
sS'isAlive'
p7
I01
sS'geno'
p8
(lp9
F-0.20986348397593169
aF-1.9980260445078455
aF1.2507211900700517
aF4.5806579005276404
aF3.1852199978500408
aF-2.0730399024827286
asS'accel_x'
p10
F-1.7313084538391446
sS'accel_y'
p11
F-1.0012846936137145
sS'maxAccel'
p12
I2
sS'maxVel'
p13
F0.5
sS'age'
p14
I50
sS'gener'
p15
S'm'
sS'lastScale'
p16
F5.5
sS'energy'
p17
I0
sb.(i__main__
Data_mobile
p1
(dp2
S'vel_y'
p3
F0.45841076434955108
sS'vel_x'
p4
F0.19964861914989623
sS'pos_x'
p5
F29.427301383883037
sS'pos_y'
p6
F-46.036314048852532
sS'isAlive'
p7
I01
sS'geno'
p8
(lp9
F-0.20986348397593169
aF-1.9980260445078455
aF0.80896238186894376
aF4.5830050372792908
aF3.1852199978500408
aF-0.69491951174123101
asS'accel_x'
p10
F-1.9284345258403572
sS'accel_y'
p11
F-0.53022663036373108
sS'maxAccel'
p12
I2
sS'maxVel'
p13
F0.5
sS'age'
p14
I50
sS'gener'
p15
S'm'
sS'lastScale'
p16
F15.4
sS'energy'
p17
F0.98999999999999999
sb.(i__main__
Data_mobile
p1
(dp2
S'vel_y'
p3
F-0.29361913888622776
sS'vel_x'
p4
F-0.40470705612789865
sS'pos_x'
p5
F6.1958123156290386
sS'pos_y'
p6
F-33.341850092809949
sS'isAlive'
p7
I01
sS'geno'
p8
(lp9
F-2.1653729306190201
aF-4.5685982935747278
aF0.80896238186894376
aF4.4233237868644224
aF3.1852199978500408
aF-0.95602281803902578
asS'accel_x'
p10
F-1.7527434451461679
sS'accel_y'
p11
F0.96327068651399461
sS'maxAccel'
p12
I2
sS'maxVel'
p13
F0.5
sS'age'
p14
I50
sS'gener'
p15
S'm'
sS'lastScale'
p16
F15.4
sS'energy'
p17
F0.98999999999999999
sb.(i__main__
Data_mobile
p1
(dp2
S'vel_y'
p3
F0.48575108361068609
sS'vel_x'
p4
F0.11851533559436206
sS'pos_x'
p5
F146.31260835001575
sS'pos_y'
p6
F60.039006855826536
sS'isAlive'
p7
I01
sS'geno'
p8
(lp9
F-0.016571782053739659
aF-1.6488074797430017
aF0.80896238186894376
aF4.2347823906985305
aF3.1852199978500408
aF-2.2397139537688586
asS'accel_x'
p10
F0.16410898772350491
sS'accel_y'
p11
F-1.993255688603037
sS'maxAccel'
p12
I2
sS'maxVel'
p13
F0.5
sS'age'
p14
I50
sS'gener'
p15
S'm'
sS'lastScale'
p16
F15.4
sS'energy'
p17
F0.98999999999999999
sb.(i__main__
Data_mobile
p1
(dp2
S'vel_y'
p3
F-0.49163616726846626
sS'vel_x'
p4
F0.091070736428189067
sS'pos_x'
p5
F146.02845603583069
sS'pos_y'
p6
F-27.264524356435661
sS'isAlive'
p7
I01
sS'geno'
p8
(lp9
F-0.016571782053739659
aF-1.6062668747378215
aF1.1017270187398345
aF4.2347823906985305
aF3.1852199978500408
aF-2.0730399024827286
asS'accel_x'
p10
F0.91538864726973379
sS'accel_y'
p11
F-1.7782192284557286
sS'maxAccel'
p12
I2
sS'maxVel'
p13
F0.5
sS'age'
p14
I50
sS'gener'
p15
S'm'
sS'lastScale'
p16
F9.4999999999999947
sS'energy'
p17
F0.39999999999999947
sb.(i__main__
Data_mobile
p1
(dp2
S'vel_y'
p3
F-0.0069955879979028612
sS'vel_x'
p4
F0.49128022677179484
sS'pos_x'
p5
F-16.842347054154438
sS'pos_y'
p6
F43.954533360579411
sS'isAlive'
p7
I01
sS'geno'
p8
(lp9
F-0.016571782053739659
aF-1.4586068875390836
aF2.4541528827522683
aF4.1839237767187214
aF3.1852199978500408
aF-2.0730399024827286
asS'accel_x'
p10
F0
sS'accel_y'
p11
F0
sS'maxAccel'
p12
I2
sS'maxVel'
p13
F0.5
sS'age'
p14
I0
sS'gener'
p15
S'm'
sS'lastScale'
p16
F15.5
sS'energy'
p17
F0.5
sb.(i__main__
Data_mobile
p1
(dp2
S'vel_y'
p3
F0.30469843299710875
sS'vel_x'
p4
F0.39357619836880375
sS'pos_x'
p5
F63.08790400745044
sS'pos_y'
p6
F-54.989380812281638
sS'isAlive'
p7
I01
sS'geno'
p8
(lp9
F0.45220863168296876
aF-1.6062668747378215
aF0.80896238186894376
aF4.2347823906985305
aF3.1852199978500408
aF-2.0730399024827286
asS'accel_x'
p10
F0
sS'accel_y'
p11
F0
sS'maxAccel'
p12
I2
sS'maxVel'
p13
F0.5
sS'age'
p14
I0
sS'gener'
p15
S'm'
sS'lastScale'
p16
F15.5
sS'energy'
p17
F0.5
sb.(i__main__
Data_mobile
p1
(dp2
S'vel_y'
p3
F0.29087137892735887
sS'vel_x'
p4
F0.40549390694077186
sS'pos_x'
p5
F-86.07492732114514
sS'pos_y'
p6
F-41.432438408916504
sS'isAlive'
p7
I01
sS'geno'
p8
(lp9
F-0.44786608594764388
aF-1.6062668747378215
aF0.80896238186894376
aF4.5830050372792908
aF3.1852199978500408
aF-2.0730399024827286
asS'accel_x'
p10
F0
sS'accel_y'
p11
F0
sS'maxAccel'
p12
I2
sS'maxVel'
p13
F0.5
sS'age'
p14
I0
sS'gener'
p15
S'm'
sS'lastScale'
p16
F15.5
sS'energy'
p17
F0.5
sb.(i__main__
Data_mobile
p1
(dp2
S'vel_y'
p3
F-0.23187126670474437
sS'vel_x'
p4
F-0.17792278287161864
sS'pos_x'
p5
F108.27584264183128
sS'pos_y'
p6
F-40.177570542956332
sS'isAlive'
p7
I01
sS'geno'
p8
(lp9
F-0.016571782053739659
aF-1.6488074797430017
aF0.80896238186894376
aF4.2347823906985305
aF3.1852199978500408
aF-2.2397139537688586
asS'accel_x'
p10
F0
sS'accel_y'
p11
F0
sS'maxAccel'
p12
I2
sS'maxVel'
p13
F0.5
sS'age'
p14
I0
sS'gener'
p15
S'm'
sS'lastScale'
p16
F15.5
sS'energy'
p17
F0.5
sb.(i__main__
Data_mobile
p1
(dp2
S'vel_y'
p3
F0.20464366355741084
sS'vel_x'
p4
F0.0023944334920363297
sS'pos_x'
p5
F145.12118404052396
sS'pos_y'
p6
F56.899926434451878
sS'isAlive'
p7
I01
sS'geno'
p8
(lp9
F-1.9405111193289204
aF-4.9556645838215081
aF0.80896238186894376
aF4.5830050372792908
aF3.1852199978500408
aF-2.0730399024827286
asS'accel_x'
p10
F0
sS'accel_y'
p11
F0
sS'maxAccel'
p12
I2
sS'maxVel'
p13
F0.5
sS'age'
p14
I0
sS'gener'
p15
S'm'
sS'lastScale'
p16
F15.5
sS'energy'
p17
F0.5
sb.(i__main__
Data_mobile
p1
(dp2
S'vel_y'
p3
F-0.33886456544200022
sS'vel_x'
p4
F-0.35537539751964581
sS'pos_x'
p5
F-153.55326862891326
sS'pos_y'
p6
F17.485296960466041
sS'isAlive'
p7
I01
sS'geno'
p8
(lp9
F-0.016571782053739659
aF-4.5685982935747278
aF0.80896238186894376
aF4.9014428233526592
aF3.1852199978500408
aF-0.95602281803902578
asS'accel_x'
p10
F0
sS'accel_y'
p11
F0
sS'maxAccel'
p12
I2
sS'maxVel'
p13
F0.5
sS'age'
p14
I0
sS'gener'
p15
S'm'
sS'lastScale'
p16
F15.5
sS'energy'
p17
F0.5
sb.(i__main__
Data_mobile
p1
(dp2
S'vel_y'
p3
F-0.31882965173698685
sS'vel_x'
p4
F-0.37721971634650475
sS'pos_x'
p5
F-114.59277399150419
sS'pos_y'
p6
F5.0892895562580929
sS'isAlive'
p7
I01
sS'geno'
p8
(lp9
F-2.1653729306190201
aF-1.6062668747378215
aF0.80896238186894376
aF4.2455009727134598
aF2.4756686226721971
aF-0.80898073246756397
asS'accel_x'
p10
F0
sS'accel_y'
p11
F0
sS'maxAccel'
p12
I2
sS'maxVel'
p13
F0.5
sS'age'
p14
I0
sS'gener'
p15
S'm'
sS'lastScale'
p16
F15.5
sS'energy'
p17
F0.5
sb.