(i__main__
Data_mobile
p1
(dp2
S'vel_y'
p3
F0.38283652182530731
sS'vel_x'
p4
F-0.1636093022527986
sS'pos_x'
p5
F136.80165803997284
sS'pos_y'
p6
F-50.244519210372509
sS'isAlive'
p7
I01
sS'geno'
p8
(lp9
F0.27872793454881017
aF1.8929359614115664
aF1.7018189834949218
aF3.1395019360115217
aF-0.64156481702307655
aF-0.55065696045741952
asS'accel_x'
p10
F0
sS'accel_y'
p11
F0
sS'visionAngle'
p12
I150
sS'maxAccel'
p13
I2
sS'maxVel'
p14
F0.5
sS'age'
p15
I0
sS'lastScale'
p16
F5.5
sS'maxSteering'
p17
I30
sS'energy'
p18
F0.5
sb.(i__main__
Data_mobile
p1
(dp2
S'vel_y'
p3
F-0.010104217125189796
sS'vel_x'
p4
F-0.49989789437072757
sS'pos_x'
p5
F58.700990436015573
sS'pos_y'
p6
F22.810150789144135
sS'isAlive'
p7
I01
sS'geno'
p8
(lp9
F1.1601706361963411
aF0.39559205523910357
aF2.7079493554888341
aF3.123875681651187
aF1.1358842584962072
aF-0.9700964892475723
asS'accel_x'
p10
F-1.9743569148270632
sS'accel_y'
p11
F0.3192409323294263
sS'visionAngle'
p12
I150
sS'maxAccel'
p13
I2
sS'maxVel'
p14
F0.5
sS'age'
p15
I100
sS'lastScale'
p16
F5.6645019612667911
sS'maxSteering'
p17
I30
sS'energy'
p18
I0
sb.(i__main__
Data_mobile
p1
(dp2
S'vel_y'
p3
F0.30820931807200341
sS'vel_x'
p4
F-0.34849612339545888
sS'pos_x'
p5
F48.994905419105223
sS'pos_y'
p6
F21.613440110859969
sS'isAlive'
p7
I01
sS'geno'
p8
(lp9
F-0.0066711581184371038
aF1.5714451130334457
aF1.7018189834949218
aF2.7907406995006991
aF1.2284490886060064
aF-0.9700964892475723
asS'accel_x'
p10
F0.52474748491726164
sS'accel_y'
p11
F-1.7909271509436286
sS'visionAngle'
p12
I150
sS'maxAccel'
p13
I2
sS'maxVel'
p14
F0.5
sS'age'
p15
I100
sS'lastScale'
p16
F10.290951802446312
sS'maxSteering'
p17
I30
sS'energy'
p18
F0.47909518024463132
sb.(i__main__
Data_mobile
p1
(dp2
S'vel_y'
p3
F0.12459472130028849
sS'vel_x'
p4
F-0.44288952119743946
sS'pos_x'
p5
F-177.00328116153059
sS'pos_y'
p6
F-77.010126007410165
sS'isAlive'
p7
I01
sS'geno'
p8
(lp9
F0.04429313800161172
aF1.7486125164500084
aF1.9484034875567564
aF2.938227042059784
aF-0.64156481702307655
aF-0.55065696045741952
asS'accel_x'
p10
F0
sS'accel_y'
p11
F0
sS'visionAngle'
p12
I150
sS'maxAccel'
p13
I2
sS'maxVel'
p14
F0.5
sS'age'
p15
I0
sS'lastScale'
p16
F5.5
sS'maxSteering'
p17
I30
sS'energy'
p18
F0.5
sb.(i__main__
Data_mobile
p1
(dp2
S'vel_y'
p3
F-0.43672240984462324
sS'vel_x'
p4
F-0.24346157138140903
sS'pos_x'
p5
F-12.114159785084206
sS'pos_y'
p6
F43.975470441922496
sS'isAlive'
p7
I01
sS'geno'
p8
(lp9
F0.029314755553626504
aF2.0713680453525405
aF2.7079493554888341
aF2.938227042059784
aF1.1358842584962072
aF-0.9700964892475723
asS'accel_x'
p10
F-1.5812431979511998
sS'accel_y'
p11
F-1.2246101211949303
sS'visionAngle'
p12
I150
sS'maxAccel'
p13
I2
sS'maxVel'
p14
F0.5
sS'age'
p15
I100
sS'lastScale'
p16
F12.551396430607571
sS'maxSteering'
p17
I30
sS'energy'
p18
F0.70513964306075716
sb.(i__main__
Data_mobile
p1
(dp2
S'vel_y'
p3
F-0.14131453772774846
sS'vel_x'
p4
F0.14338427042532434
sS'pos_x'
p5
F116.73968501529191
sS'pos_y'
p6
F8.2269514112739444
sS'isAlive'
p7
I01
sS'geno'
p8
(lp9
F1.1601706361963411
aF1.8012760203648468
aF2.7079493554888341
aF3.123875681651187
aF1.1358842584962072
aF-0.9700964892475723
asS'accel_x'
p10
F0
sS'accel_y'
p11
F0
sS'visionAngle'
p12
I150
sS'maxAccel'
p13
I2
sS'maxVel'
p14
F0.5
sS'age'
p15
I0
sS'lastScale'
p16
F5.5
sS'maxSteering'
p17
I30
sS'energy'
p18
F0.5
sb.(i__main__
Data_mobile
p1
(dp2
S'vel_y'
p3
F0.42313331850982128
sS'vel_x'
p4
F-0.26637979421657754
sS'pos_x'
p5
F-45.680449108248922
sS'pos_y'
p6
F-43.348423916346619
sS'isAlive'
p7
I01
sS'geno'
p8
(lp9
F-0.11898902335260908
aF1.4147320303399193
aF1.2988869735086583
aF2.938227042059784
aF1.2284490886060064
aF-0.9700964892475723
asS'accel_x'
p10
F1.7554462788883218
sS'accel_y'
p11
F-0.9583362468033565
sS'visionAngle'
p12
I150
sS'maxAccel'
p13
I2
sS'maxVel'
p14
F0.5
sS'age'
p15
I50
sS'lastScale'
p16
F15.398593637295674
sS'maxSteering'
p17
I30
sS'energy'
p18
F0.98985936372956751
sb.(i__main__
Data_mobile
p1
(dp2
S'vel_y'
p3
F-0.087212599811471739
sS'vel_x'
p4
F-0.4923352134817538
sS'pos_x'
p5
F-105.32948922463294
sS'pos_y'
p6
F76.34079427050321
sS'isAlive'
p7
I01
sS'geno'
p8
(lp9
F0.46937640291399629
aF0.39559205523910357
aF1.3943929293178772
aF2.938227042059784
aF1.2284490886060064
aF-0.9700964892475723
asS'accel_x'
p10
F-1.0177327795876301
sS'accel_y'
p11
F-0.12044147966975161
sS'visionAngle'
p12
I150
sS'maxAccel'
p13
I2
sS'maxVel'
p14
F0.5
sS'age'
p15
I50
sS'lastScale'
p16
F14.893063201926424
sS'maxSteering'
p17
I30
sS'energy'
p18
F0.93930632019264249
sb.(i__main__
Data_mobile
p1
(dp2
S'vel_y'
p3
F0.4886641165222092
sS'vel_x'
p4
F0.10586491970227288
sS'pos_x'
p5
F-101.65129613431027
sS'pos_y'
p6
F79.484154986506709
sS'isAlive'
p7
I01
sS'geno'
p8
(lp9
F-0.0066711581184371038
aF1.7486125164500084
aF1.7018189834949218
aF2.938227042059784
aF-0.64156481702307655
aF-0.55065696045741952
asS'accel_x'
p10
F-0.54700601420068451
sS'accel_y'
p11
F1.2485458901707114
sS'visionAngle'
p12
I150
sS'maxAccel'
p13
I2
sS'maxVel'
p14
F0.5
sS'age'
p15
I350
sS'lastScale'
p16
F13.300000005326764
sS'maxSteering'
p17
I30
sS'energy'
p18
F0.78000000053267637
sb.(i__main__
Data_mobile
p1
(dp2
S'vel_y'
p3
F-0.39613326092747375
sS'vel_x'
p4
F-0.30508759330226126
sS'pos_x'
p5
F-4.2517315073449566
sS'pos_y'
p6
F-47.110080435925113
sS'isAlive'
p7
I01
sS'geno'
p8
(lp9
F-0.0066711581184371038
aF1.5714451130334457
aF2.2768141457801847
aF2.938227042059784
aF1.2284490886060064
aF-0.9700964892475723
asS'accel_x'
p10
F-1.4501443109469974
sS'accel_y'
p11
F-1.3773458089485218
sS'visionAngle'
p12
I150
sS'maxAccel'
p13
I2
sS'maxVel'
p14
F0.5
sS'age'
p15
I350
sS'lastScale'
p16
F8.1070941173641842
sS'maxSteering'
p17
I30
sS'energy'
p18
F0.24612511656858649
sb.(i__main__
Data_mobile
p1
(dp2
S'vel_y'
p3
F-0.46423965792908267
sS'vel_x'
p4
F-0.18569205692729118
sS'pos_x'
p5
F52.305861327841704
sS'pos_y'
p6
F23.714783802090071
sS'isAlive'
p7
I01
sS'geno'
p8
(lp9
F0.054925184402453198
aF0.39559205523910357
aF1.7018189834949218
aF2.7907406995006991
aF1.2284490886060064
aF-0.9700964892475723
asS'accel_x'
p10
F-1.3368030091450802
sS'accel_y'
p11
F1.4876013292346368
sS'visionAngle'
p12
I150
sS'maxAccel'
p13
I2
sS'maxVel'
p14
F0.5
sS'age'
p15
I100
sS'lastScale'
p16
F15.352082128537274
sS'maxSteering'
p17
I30
sS'energy'
p18
F0.98520821285372739
sb.(i__main__
Data_mobile
p1
(dp2
S'vel_y'
p3
F-0.0036703656374345826
sS'vel_x'
p4
F-0.41219387645075828
sS'pos_x'
p5
F-62.087959273226723
sS'pos_y'
p6
F80.939076769491749
sS'isAlive'
p7
I01
sS'geno'
p8
(lp9
F0.054925184402453198
aF0.39559205523910357
aF1.7018189834949218
aF2.7907406995006991
aF1.2284490886060064
aF-0.9700964892475723
asS'accel_x'
p10
F0
sS'accel_y'
p11
F0
sS'visionAngle'
p12
I150
sS'maxAccel'
p13
I2
sS'maxVel'
p14
F0.5
sS'age'
p15
I0
sS'lastScale'
p16
F5.5
sS'maxSteering'
p17
I30
sS'energy'
p18
F0.5
sb.(i__main__
Data_mobile
p1
(dp2
S'vel_y'
p3
F-0.06575000927868499
sS'vel_x'
p4
F-0.49565808404569861
sS'pos_x'
p5
F-165.31999802240574
sS'pos_y'
p6
F-98.914484864156719
sS'isAlive'
p7
I01
sS'geno'
p8
(lp9
F0.04429313800161172
aF2.0346999358682551
aF1.7018189834949218
aF2.938227042059784
aF1.2284490886060064
aF-0.7429867314273878
asS'accel_x'
p10
F-1.9904846174746509
sS'accel_y'
p11
F-0.19486145744295558
sS'visionAngle'
p12
I150
sS'maxAccel'
p13
I2
sS'maxVel'
p14
F0.5
sS'age'
p15
I100
sS'lastScale'
p16
F10.940590704176307
sS'maxSteering'
p17
I30
sS'energy'
p18
F0.54405907041763057
sb.(i__main__
Data_mobile
p1
(dp2
S'vel_y'
p3
F-0.43113566191746028
sS'vel_x'
p4
F-0.25322330268558102
sS'pos_x'
p5
F175.50438659058719
sS'pos_y'
p6
F104.14095910029971
sS'isAlive'
p7
I01
sS'geno'
p8
(lp9
F0.04429313800161172
aF1.7486125164500084
aF1.5196977763102881
aF2.938227042059784
aF1.2284490886060064
aF-0.9700964892475723
asS'accel_x'
p10
F-1.1407724421798888
sS'accel_y'
p11
F-1.6427532484104033
sS'visionAngle'
p12
I150
sS'maxAccel'
p13
I2
sS'maxVel'
p14
F0.5
sS'age'
p15
I50
sS'lastScale'
p16
F13.385387208276622
sS'maxSteering'
p17
I30
sS'energy'
p18
F0.78853872082766219
sb.(i__main__
Data_mobile
p1
(dp2
S'vel_y'
p3
F-0.41834345405931189
sS'vel_x'
p4
F-0.2738407465037378
sS'pos_x'
p5
F-11.237874415728985
sS'pos_y'
p6
F47.740969920417292
sS'isAlive'
p7
I01
sS'geno'
p8
(lp9
F0.029314755553626504
aF2.0713680453525405
aF2.7079493554888341
aF3.123875681651187
aF1.1358842584962072
aF-0.9700964892475723
asS'accel_x'
p10
F-1.3344472533846032
sS'accel_y'
p11
F-1.4897149149868536
sS'visionAngle'
p12
I150
sS'maxAccel'
p13
I2
sS'maxVel'
p14
F0.5
sS'age'
p15
I50
sS'lastScale'
p16
F13.28513994596096
sS'maxSteering'
p17
I30
sS'energy'
p18
F0.77851399459609583
sb.(i__main__
Data_mobile
p1
(dp2
S'vel_y'
p3
F-0.025649757876723633
sS'vel_x'
p4
F-0.49934165650470763
sS'pos_x'
p5
F-14.590059941284997
sS'pos_y'
p6
F66.473737868847522
sS'isAlive'
p7
I01
sS'geno'
p8
(lp9
F0.46937640291399629
aF0.39559205523910357
aF1.7018189834949218
aF2.7907406995006991
aF1.2284490886060064
aF-0.56802459558979568
asS'accel_x'
p10
F-0.99513629249471658
sS'accel_y'
p11
F0.23973720460201003
sS'visionAngle'
p12
I150
sS'maxAccel'
p13
I2
sS'maxVel'
p14
F0.5
sS'age'
p15
I150
sS'lastScale'
p16
F12.158168982832597
sS'maxSteering'
p17
I30
sS'energy'
p18
F0.66581689828325963
sb.(i__main__
Data_mobile
p1
(dp2
S'vel_y'
p3
F-0.21456535216217801
sS'vel_x'
p4
F0.079894180878420457
sS'pos_x'
p5
F-82.852277036311705
sS'pos_y'
p6
F20.289814069123292
sS'isAlive'
p7
I01
sS'geno'
p8
(lp9
F-0.0066711581184371038
aF1.5714451130334457
aF2.2768141457801847
aF2.938227042059784
aF1.2284490886060064
aF-0.7429867314273878
asS'accel_x'
p10
F0
sS'accel_y'
p11
F0
sS'visionAngle'
p12
I150
sS'maxAccel'
p13
I2
sS'maxVel'
p14
F0.5
sS'age'
p15
I0
sS'lastScale'
p16
F5.5
sS'maxSteering'
p17
I30
sS'energy'
p18
F0.5
sb.(i__main__
Data_mobile
p1
(dp2
S'vel_y'
p3
F0.16727651273408467
sS'vel_x'
p4
F0.14951107074399497
sS'pos_x'
p5
F-152.03930035682848
sS'pos_y'
p6
F-64.273951797092479
sS'isAlive'
p7
I01
sS'geno'
p8
(lp9
F0.04429313800161172
aF1.7486125164500084
aF1.8015878186092777
aF2.938227042059784
aF1.2284490886060064
aF-0.7429867314273878
asS'accel_x'
p10
F0
sS'accel_y'
p11
F0
sS'visionAngle'
p12
I150
sS'maxAccel'
p13
I2
sS'maxVel'
p14
F0.5
sS'age'
p15
I0
sS'lastScale'
p16
F5.5
sS'maxSteering'
p17
I30
sS'energy'
p18
F0.5
sb.(i__main__
Data_mobile
p1
(dp2
S'vel_y'
p3
F0.42360710120449258
sS'vel_x'
p4
F-0.2656257212867888
sS'pos_x'
p5
F-46.471370104256614
sS'pos_y'
p6
F-43.149449464195712
sS'isAlive'
p7
I01
sS'geno'
p8
(lp9
F0.04429313800161172
aF1.6414981349970552
aF1.7018189834949218
aF2.938227042059784
aF1.0001581214200304
aF-0.9700964892475723
asS'accel_x'
p10
F0.53198467194661192
sS'accel_y'
p11
F-1.9279502869145395
sS'visionAngle'
p12
I150
sS'maxAccel'
p13
I2
sS'maxVel'
p14
F0.5
sS'age'
p15
I50
sS'lastScale'
p16
F14.482567602243996
sS'maxSteering'
p17
I30
sS'energy'
p18
F0.8982567602243996
sb.(i__main__
Data_mobile
p1
(dp2
S'vel_y'
p3
F-0.11030745756689334
sS'vel_x'
p4
F0.48768049459162088
sS'pos_x'
p5
F-130.7805338164419
sS'pos_y'
p6
F37.03170389644098
sS'isAlive'
p7
I01
sS'geno'
p8
(lp9
F-0.0066711581184371038
aF1.5714451130334457
aF2.2768141457801847
aF2.938227042059784
aF1.2284490886060064
aF-0.7429867314273878
asS'accel_x'
p10
F0
sS'accel_y'
p11
F0
sS'visionAngle'
p12
I150
sS'maxAccel'
p13
I2
sS'maxVel'
p14
F0.5
sS'age'
p15
I0
sS'lastScale'
p16
F5.5
sS'maxSteering'
p17
I30
sS'energy'
p18
F0.5
sb.(i__main__
Data_mobile
p1
(dp2
S'vel_y'
p3
F-0.18463677936576822
sS'vel_x'
p4
F-0.46466037027643814
sS'pos_x'
p5
F-166.46063559497034
sS'pos_y'
p6
F58.882645662658966
sS'isAlive'
p7
I01
sS'geno'
p8
(lp9
F0.029314755553626504
aF1.7486125164500084
aF1.2637475980017658
aF3.1844588442917954
aF1.1358842584962072
aF-0.9700964892475723
asS'accel_x'
p10
F-1.7818799536007641
sS'accel_y'
p11
F-0.90824216536986357
sS'visionAngle'
p12
I150
sS'maxAccel'
p13
I2
sS'maxVel'
p14
F0.5
sS'age'
p15
I100
sS'lastScale'
p16
F15.206239176858954
sS'maxSteering'
p17
I30
sS'energy'
p18
F0.9706239176858954
sb.(i__main__
Data_mobile
p1
(dp2
S'vel_y'
p3
F-0.02756850609225921
sS'vel_x'
p4
F-0.0012844129380036812
sS'pos_x'
p5
F123.08422138372946
sS'pos_y'
p6
F26.814619406674399
sS'isAlive'
p7
I01
sS'geno'
p8
(lp9
F1.1601706361963411
aF0.39559205523910357
aF1.3943929293178772
aF2.938227042059784
aF0.97263191622646905
aF-0.9700964892475723
asS'accel_x'
p10
F0
sS'accel_y'
p11
F0
sS'visionAngle'
p12
I150
sS'maxAccel'
p13
I2
sS'maxVel'
p14
F0.5
sS'age'
p15
I0
sS'lastScale'
p16
F5.5
sS'maxSteering'
p17
I30
sS'energy'
p18
F0.5
sb.(i__main__
Data_mobile
p1
(dp2
S'vel_y'
p3
F-0.23873554128805105
sS'vel_x'
p4
F0.36983741823472394
sS'pos_x'
p5
F-153.32427606516521
sS'pos_y'
p6
F-15.62399002114546
sS'isAlive'
p7
I01
sS'geno'
p8
(lp9
F0.81027543186368645
aF1.5714451130334457
aF1.5852428240666454
aF2.938227042059784
aF-0.64156481702307655
aF-0.55065696045741952
asS'accel_x'
p10
F0
sS'accel_y'
p11
F0
sS'visionAngle'
p12
I150
sS'maxAccel'
p13
I2
sS'maxVel'
p14
F0.5
sS'age'
p15
I0
sS'lastScale'
p16
F5.5
sS'maxSteering'
p17
I30
sS'energy'
p18
F0.5
sb.(i__main__
Data_mobile
p1
(dp2
S'vel_y'
p3
F-0.28702196201436991
sS'vel_x'
p4
F-0.32592997607300445
sS'pos_x'
p5
F-174.95143047097119
sS'pos_y'
p6
F4.5469854615665861
sS'isAlive'
p7
I01
sS'geno'
p8
(lp9
F1.1601706361963411
aF0.39559205523910357
aF1.7018189834949218
aF3.2752996832346266
aF0.93136182126787215
aF-0.9700964892475723
asS'accel_x'
p10
F-1.0513269416020508
sS'accel_y'
p11
F1.7013852185386109
sS'visionAngle'
p12
I150
sS'maxAccel'
p13
I2
sS'maxVel'
p14
F0.5
sS'age'
p15
I150
sS'lastScale'
p16
F15.301657194409474
sS'maxSteering'
p17
I30
sS'energy'
p18
F0.98016571944094744
sb.(i__main__
Data_mobile
p1
(dp2
S'vel_y'
p3
F-0.29930283607814046
sS'vel_x'
p4
F-0.40052192488749194
sS'pos_x'
p5
F178.57752370021933
sS'pos_y'
p6
F34.316142390873374
sS'isAlive'
p7
I01
sS'geno'
p8
(lp9
F0.029314755553626504
aF2.0713680453525405
aF2.7079493554888341
aF2.938227042059784
aF1.1358842584962072
aF-0.9700964892475723
asS'accel_x'
p10
F-1.480987723405067
sS'accel_y'
p11
F-1.3441262452327447
sS'visionAngle'
p12
I150
sS'maxAccel'
p13
I2
sS'maxVel'
p14
F0.5
sS'age'
p15
I250
sS'lastScale'
p16
F11.9001630887942
sS'maxSteering'
p17
I30
sS'energy'
p18
F0.64001630887942007
sb.(i__main__
Data_mobile
p1
(dp2
S'vel_y'
p3
F0.012337218982291143
sS'vel_x'
p4
F-0.49984776985376561
sS'pos_x'
p5
F43.766781918435782
sS'pos_y'
p6
F23.115292408725239
sS'isAlive'
p7
I01
sS'geno'
p8
(lp9
F0.04429313800161172
aF1.7486125164500084
aF1.7636844714921787
aF2.938227042059784
aF1.2284490886060064
aF-0.9700964892475723
asS'accel_x'
p10
F-1.9970348209737678
sS'accel_y'
p11
F0.10886654131674992
sS'visionAngle'
p12
I150
sS'maxAccel'
p13
I2
sS'maxVel'
p14
F0.5
sS'age'
p15
I100
sS'lastScale'
p16
F12.904060943823417
sS'maxSteering'
p17
I30
sS'energy'
p18
F0.74040609438234151
sb.(i__main__
Data_mobile
p1
(dp2
S'vel_y'
p3
F0.019577863368018561
sS'vel_x'
p4
F-0.49961656023989354
sS'pos_x'
p5
F-170.61151869384037
sS'pos_y'
p6
F57.256907024219714
sS'isAlive'
p7
I01
sS'geno'
p8
(lp9
F0.04429313800161172
aF2.2430615472611035
aF1.7018189834949218
aF3.1395019360115217
aF1.0351612524932732
aF-0.9700964892475723
asS'accel_x'
p10
F-1.9745584889389609
sS'accel_y'
p11
F0.31799178253390131
sS'visionAngle'
p12
I150
sS'maxAccel'
p13
I2
sS'maxVel'
p14
F0.5
sS'age'
p15
I50
sS'lastScale'
p16
F15.095006534158429
sS'maxSteering'
p17
I30
sS'energy'
p18
F0.9595006534158429
sb.(i__main__
Data_mobile
p1
(dp2
S'vel_y'
p3
F-0.19367090498158976
sS'vel_x'
p4
F-0.46096809061323535
sS'pos_x'
p5
F-177.76349389711368
sS'pos_y'
p6
F-95.237077459406365
sS'isAlive'
p7
I01
sS'geno'
p8
(lp9
F-0.11898902335260908
aF1.4147320303399193
aF1.2988869735086583
aF2.938227042059784
aF1.2284490886060064
aF-0.7429867314273878
asS'accel_x'
p10
F-1.845627310437264
sS'accel_y'
p11
F-0.77049323875561071
sS'visionAngle'
p12
I150
sS'maxAccel'
p13
I2
sS'maxVel'
p14
F0.5
sS'age'
p15
I50
sS'lastScale'
p16
F10.882713516599404
sS'maxSteering'
p17
I30
sS'energy'
p18
F0.53827135165994044
sb.(i__main__
Data_mobile
p1
(dp2
S'vel_y'
p3
F-0.40466095081451009
sS'vel_x'
p4
F-0.24467743484246504
sS'pos_x'
p5
F94.830317135388
sS'pos_y'
p6
F16.726530618843949
sS'isAlive'
p7
I01
sS'geno'
p8
(lp9
F1.1601706361963411
aF0.39559205523910357
aF1.7018189834949218
aF3.123875681651187
aF1.1358842584962072
aF-0.9700964892475723
asS'accel_x'
p10
F0
sS'accel_y'
p11
F0
sS'visionAngle'
p12
I150
sS'maxAccel'
p13
I2
sS'maxVel'
p14
F0.5
sS'age'
p15
I0
sS'lastScale'
p16
F5.5
sS'maxSteering'
p17
I30
sS'energy'
p18
F0.5
sb.(i__main__
Data_mobile
p1
(dp2
S'vel_y'
p3
F0.46370404451545466
sS'vel_x'
p4
F0.18702555734446877
sS'pos_x'
p5
F138.9951127776294
sS'pos_y'
p6
F4.303223290119143
sS'isAlive'
p7
I01
sS'geno'
p8
(lp9
F0.029314755553626504
aF0.68833382972724988
aF1.7018189834949218
aF2.5328459911486654
aF1.153470222127126
aF-0.7429867314273878
asS'accel_x'
p10
F-0.05977854361467877
sS'accel_y'
p11
F-1.1070050982556658
sS'visionAngle'
p12
I150
sS'maxAccel'
p13
I2
sS'maxVel'
p14
F0.5
sS'age'
p15
I50
sS'lastScale'
p16
F15.398593637295674
sS'maxSteering'
p17
I30
sS'energy'
p18
F0.98985936372956751
sb.(i__main__
Data_mobile
p1
(dp2
S'vel_y'
p3
F-0.24410393768301722
sS'vel_x'
p4
F-0.43636368731557595
sS'pos_x'
p5
F-58.609304625823853
sS'pos_y'
p6
F47.078846305424911
sS'isAlive'
p7
I01
sS'geno'
p8
(lp9
F-0.0066711581184371038
aF1.5714451130334457
aF1.7018189834949218
aF2.938227042059784
aF-0.64156481702307655
aF-0.55065696045741952
asS'accel_x'
p10
F0.763971569077184
sS'accel_y'
p11
F0.025244521493221983
sS'visionAngle'
p12
I150
sS'maxAccel'
p13
I2
sS'maxVel'
p14
F0.5
sS'age'
p15
I100
sS'lastScale'
p16
F15.352082128537274
sS'maxSteering'
p17
I30
sS'energy'
p18
F0.98520821285372739
sb.(i__main__
Data_mobile
p1
(dp2
S'vel_y'
p3
F-0.43153373875090861
sS'vel_x'
p4
F-0.2500768378822128
sS'pos_x'
p5
F-61.985931344349595
sS'pos_y'
p6
F72.528142121954943
sS'isAlive'
p7
I01
sS'geno'
p8
(lp9
F0.45419493775530495
aF1.7486125164500084
aF1.7018189834949218
aF2.938227042059784
aF1.153470222127126
aF-1.3832636389047988
asS'accel_x'
p10
F0
sS'accel_y'
p11
F0
sS'visionAngle'
p12
I150
sS'maxAccel'
p13
I2
sS'maxVel'
p14
F0.5
sS'age'
p15
I0
sS'lastScale'
p16
F5.5
sS'maxSteering'
p17
I30
sS'energy'
p18
F0.5
sb.(i__main__
Data_mobile
p1
(dp2
S'vel_y'
p3
F-0.038637473044778353
sS'vel_x'
p4
F0.041505350652845774
sS'pos_x'
p5
F-109.98171072380737
sS'pos_y'
p6
F20.265220556543259
sS'isAlive'
p7
I01
sS'geno'
p8
(lp9
F0.054925184402453198
aF0.39559205523910357
aF1.7018189834949218
aF2.7907406995006991
aF1.2284490886060064
aF-0.9700964892475723
asS'accel_x'
p10
F0
sS'accel_y'
p11
F0
sS'visionAngle'
p12
I150
sS'maxAccel'
p13
I2
sS'maxVel'
p14
F0.5
sS'age'
p15
I0
sS'lastScale'
p16
F5.5
sS'maxSteering'
p17
I30
sS'energy'
p18
F0.5
sb.(i__main__
Data_mobile
p1
(dp2
S'vel_y'
p3
F-0.29789379637394142
sS'vel_x'
p4
F-0.40157102246292714
sS'pos_x'
p5
F198.35455111209714
sS'pos_y'
p6
F-38.251346367024333
sS'isAlive'
p7
I01
sS'geno'
p8
(lp9
F0.04429313800161172
aF2.0346999358682551
aF1.7018189834949218
aF2.8617236595491233
aF1.1358842584962072
aF-0.7429867314273878
asS'accel_x'
p10
F-1.4339144145566969
sS'accel_y'
p11
F-1.3942343604023413
sS'visionAngle'
p12
I150
sS'maxAccel'
p13
I2
sS'maxVel'
p14
F0.5
sS'age'
p15
I150
sS'lastScale'
p16
F6.9501713916879275
sS'maxSteering'
p17
I30
sS'energy'
p18
F0.14501713916879277
sb.(i__main__
Data_mobile
p1
(dp2
S'vel_y'
p3
F0.061532936184892639
sS'vel_x'
p4
F0.49619925207971233
sS'pos_x'
p5
F-120.60834735151711
sS'pos_y'
p6
F-100.75438204729949
sS'isAlive'
p7
I01
sS'geno'
p8
(lp9
F0.029314755553626504
aF1.5714451130334457
aF1.433283097068051
aF2.8382372725890592
aF0.89498168191794103
aF-0.89503933584681195
asS'accel_x'
p10
F0.82273467997748551
sS'accel_y'
p11
F1.6130815344390326
sS'visionAngle'
p12
I150
sS'maxAccel'
p13
I2
sS'maxVel'
p14
F0.5
sS'age'
p15
I50
sS'lastScale'
p16
F7.9696547475006083
sS'maxSteering'
p17
I30
sS'energy'
p18
F0.23238117958222884
sb.(i__main__
Data_mobile
p1
(dp2
S'vel_y'
p3
F-0.46560529980836307
sS'vel_x'
p4
F-0.18224078794376519
sS'pos_x'
p5
F37.658164387274105
sS'pos_y'
p6
F51.234499125824406
sS'isAlive'
p7
I01
sS'geno'
p8
(lp9
F0.054925184402453198
aF0.7324579906369254
aF1.7018189834949218
aF3.0833600560177374
aF-0.64156481702307655
aF-0.55065696045741952
asS'accel_x'
p10
F-1.662165565975505
sS'accel_y'
p11
F-0.83970561063101412
sS'visionAngle'
p12
I150
sS'maxAccel'
p13
I2
sS'maxVel'
p14
F0.5
sS'age'
p15
I100
sS'lastScale'
p16
F8.8536844977280431
sS'maxSteering'
p17
I30
sS'energy'
p18
F0.30524175132121539
sb.(i__main__
Data_mobile
p1
(dp2
S'vel_y'
p3
F-0.1634586523213406
sS'vel_x'
p4
F-0.47252647437079243
sS'pos_x'
p5
F149.16195275701708
sS'pos_y'
p6
F-36.585186309624149
sS'isAlive'
p7
I01
sS'geno'
p8
(lp9
F0.49125112379630886
aF1.7513060499278641
aF2.2768141457801847
aF2.938227042059784
aF1.2284490886060064
aF-0.9700964892475723
asS'accel_x'
p10
F-1.1958389361682502
sS'accel_y'
p11
F1.6031123599872805
sS'visionAngle'
p12
I150
sS'maxAccel'
p13
I2
sS'maxVel'
p14
F0.5
sS'age'
p15
I250
sS'lastScale'
p16
F12.700010306435738
sS'maxSteering'
p17
I30
sS'energy'
p18
F0.7200010306435739
sb.(i__main__
Data_mobile
p1
(dp2
S'vel_y'
p3
F0.082233168363834125
sS'vel_x'
p4
F-0.34880803196494037
sS'pos_x'
p5
F-140.40349219368551
sS'pos_y'
p6
F15.30802061393376
sS'isAlive'
p7
I01
sS'geno'
p8
(lp9
F0.32502760386587726
aF1.5714451130334457
aF1.7018189834949218
aF3.0280657196514706
aF1.1358842584962072
aF-0.85834367202289574
asS'accel_x'
p10
F0
sS'accel_y'
p11
F0
sS'visionAngle'
p12
I150
sS'maxAccel'
p13
I2
sS'maxVel'
p14
F0.5
sS'age'
p15
I0
sS'lastScale'
p16
F5.5
sS'maxSteering'
p17
I30
sS'energy'
p18
F0.5
sb.(i__main__
Data_mobile
p1
(dp2
S'vel_y'
p3
F-0.26537002603107995
sS'vel_x'
p4
F-0.42255518554277155
sS'pos_x'
p5
F172.15801114454013
sS'pos_y'
p6
F34.661567719092929
sS'isAlive'
p7
I01
sS'geno'
p8
(lp9
F-0.048456664303288766
aF2.0713680453525405
aF2.7079493554888341
aF2.938227042059784
aF1.1358842584962072
aF-1.0086547463394411
asS'accel_x'
p10
F0
sS'accel_y'
p11
F0
sS'visionAngle'
p12
I150
sS'maxAccel'
p13
I2
sS'maxVel'
p14
F0.5
sS'age'
p15
I0
sS'lastScale'
p16
F5.5
sS'maxSteering'
p17
I30
sS'energy'
p18
F0.5
sb.(i__main__
Data_mobile
p1
(dp2
S'vel_y'
p3
F-0.339815312598859
sS'vel_x'
p4
F-0.36677725300697117
sS'pos_x'
p5
F-164.64261743621188
sS'pos_y'
p6
F58.307389596652648
sS'isAlive'
p7
I01
sS'geno'
p8
(lp9
F0.029314755553626504
aF1.7486125164500084
aF1.7018189834949218
aF3.1395019360115217
aF1.1358842584962072
aF-0.9700964892475723
asS'accel_x'
p10
F-0.10781775218194234
sS'accel_y'
p11
F1.0472089131918472
sS'visionAngle'
p12
I150
sS'maxAccel'
p13
I2
sS'maxVel'
p14
F0.5
sS'age'
p15
I100
sS'lastScale'
p16
F15.352082128537274
sS'maxSteering'
p17
I30
sS'energy'
p18
F0.98520821285372739
sb.(i__main__
Data_mobile
p1
(dp2
S'vel_y'
p3
F-0.15902661019626532
sS'vel_x'
p4
F0.36218711171559115
sS'pos_x'
p5
F-124.67848032094544
sS'pos_y'
p6
F16.447230405036912
sS'isAlive'
p7
I01
sS'geno'
p8
(lp9
F0.46364156298137027
aF1.3371234037457636
aF2.2768141457801847
aF2.938227042059784
aF1.2284490886060064
aF-0.9700964892475723
asS'accel_x'
p10
F0
sS'accel_y'
p11
F0
sS'visionAngle'
p12
I150
sS'maxAccel'
p13
I2
sS'maxVel'
p14
F0.5
sS'age'
p15
I0
sS'lastScale'
p16
F5.5
sS'maxSteering'
p17
I30
sS'energy'
p18
F0.5
sb.(i__main__
Data_mobile
p1
(dp2
S'vel_y'
p3
F-0.29271768145415117
sS'vel_x'
p4
F-0.40535954283093678
sS'pos_x'
p5
F-187.14820657302383
sS'pos_y'
p6
F-96.325638884613213
sS'isAlive'
p7
I01
sS'geno'
p8
(lp9
F0.46364156298137027
aF1.7486125164500084
aF1.7018189834949218
aF2.938227042059784
aF0.93136182126787215
aF-0.9700964892475723
asS'accel_x'
p10
F-0.76470545359148534
sS'accel_y'
p11
F-1.8480328918196884
sS'visionAngle'
p12
I150
sS'maxAccel'
p13
I2
sS'maxVel'
p14
F0.5
sS'age'
p15
I100
sS'lastScale'
p16
F8.092031789767077
sS'maxSteering'
p17
I30
sS'energy'
p18
F0.2592031789767078
sb.(i__main__
Data_mobile
p1
(dp2
S'vel_y'
p3
F0.47319092965208642
sS'vel_x'
p4
F-0.16152505717378393
sS'pos_x'
p5
F-100.74552231938027
sS'pos_y'
p6
F82.644882277014403
sS'isAlive'
p7
I01
sS'geno'
p8
(lp9
F0.04429313800161172
aF1.7486125164500084
aF1.7018189834949218
aF3.1395019360115217
aF-0.64156481702307655
aF-0.55065696045741952
asS'accel_x'
p10
F-1.1086422435892573
sS'accel_y'
p11
F1.0598934204145622
sS'visionAngle'
p12
I150
sS'maxAccel'
p13
I2
sS'maxVel'
p14
F0.5
sS'age'
p15
I200
sS'lastScale'
p16
F14.100238015325816
sS'maxSteering'
p17
I30
sS'energy'
p18
F0.86002380153258151
sb.(i__main__
Data_mobile
p1
(dp2
S'vel_y'
p3
F0.26615607177590128
sS'vel_x'
p4
F0.42327407841352777
sS'pos_x'
p5
F-97.037585263306283
sS'pos_y'
p6
F79.189048296704271
sS'isAlive'
p7
I01
sS'geno'
p8
(lp9
F0.04429313800161172
aF1.7486125164500084
aF1.7018189834949218
aF3.1395019360115217
aF1.1358842584962072
aF-0.9700964892475723
asS'accel_x'
p10
F-1.0750737579657921
sS'accel_y'
p11
F1.454622208649341
sS'visionAngle'
p12
I150
sS'maxAccel'
p13
I2
sS'maxVel'
p14
F0.5
sS'age'
p15
I300
sS'lastScale'
p16
F14.100000057231609
sS'maxSteering'
p17
I30
sS'energy'
p18
F0.86000000572316104
sb.(i__main__
Data_mobile
p1
(dp2
S'vel_y'
p3
F-0.31871616229736655
sS'vel_x'
p4
F-0.38525317375777546
sS'pos_x'
p5
F23.470609980175837
sS'pos_y'
p6
F45.664505369762765
sS'isAlive'
p7
I01
sS'geno'
p8
(lp9
F0.029314755553626504
aF1.7486125164500084
aF1.7018189834949218
aF3.0280657196514706
aF1.2284490886060064
aF-1.3832636389047988
asS'accel_x'
p10
F-1.3286579810512871
sS'accel_y'
p11
F-1.4948805869997499
sS'visionAngle'
p12
I150
sS'maxAccel'
p13
I2
sS'maxVel'
p14
F0.5
sS'age'
p15
I50
sS'lastScale'
p16
F10.794988396110069
sS'maxSteering'
p17
I30
sS'energy'
p18
F0.52949883961100697
sb.(i__main__
Data_mobile
p1
(dp2
S'vel_y'
p3
F-0.44087371260471836
sS'vel_x'
p4
F0.23586091141630938
sS'pos_x'
p5
F73.089419986724238
sS'pos_y'
p6
F-32.731304278121009
sS'isAlive'
p7
I01
sS'geno'
p8
(lp9
F0.46364156298137027
aF1.8209623709770955
aF2.2768141457801847
aF2.938227042059784
aF1.1358842584962072
aF-0.9700964892475723
asS'accel_x'
p10
F1.1790135343713239
sS'accel_y'
p11
F-1.615526875594844
sS'visionAngle'
p12
I150
sS'maxAccel'
p13
I2
sS'maxVel'
p14
F0.5
sS'age'
p15
I100
sS'lastScale'
p16
F10.783973214188125
sS'maxSteering'
p17
I30
sS'energy'
p18
F0.52839732141881246
sb.(i__main__
Data_mobile
p1
(dp2
S'vel_y'
p3
F0.26481433142831795
sS'vel_x'
p4
F0.42408879191236332
sS'pos_x'
p5
F-99.232583601199323
sS'pos_y'
p6
F77.082935383931442
sS'isAlive'
p7
I01
sS'geno'
p8
(lp9
F-0.0066711581184371038
aF1.7486125164500084
aF1.7018189834949218
aF2.938227042059784
aF1.1358842584962072
aF-1.2164789554700839
asS'accel_x'
p10
F0
sS'accel_y'
p11
F0
sS'visionAngle'
p12
I150
sS'maxAccel'
p13
I2
sS'maxVel'
p14
F0.5
sS'age'
p15
I0
sS'lastScale'
p16
F5.5
sS'maxSteering'
p17
I30
sS'energy'
p18
F0.5
sb.(i__main__
Data_mobile
p1
(dp2
S'vel_y'
p3
F0.36559367173774776
sS'vel_x'
p4
F-0.20458813165697387
sS'pos_x'
p5
F-90.257267819300878
sS'pos_y'
p6
F-15.011209238649149
sS'isAlive'
p7
I01
sS'geno'
p8
(lp9
F0.04429313800161172
aF1.6414981349970552
aF1.7018189834949218
aF3.1395019360115217
aF1.6977360883126664
aF-0.7429867314273878
asS'accel_x'
p10
F0
sS'accel_y'
p11
F0
sS'visionAngle'
p12
I150
sS'maxAccel'
p13
I2
sS'maxVel'
p14
F0.5
sS'age'
p15
I0
sS'lastScale'
p16
F5.5
sS'maxSteering'
p17
I30
sS'energy'
p18
F0.5
sb.(i__main__
Data_mobile
p1
(dp2
S'vel_y'
p3
F-0.41851823628147011
sS'vel_x'
p4
F0.27357354751482749
sS'pos_x'
p5
F-172.93053033121888
sS'pos_y'
p6
F4.1597921206070838
sS'isAlive'
p7
I01
sS'geno'
p8
(lp9
F0.029314755553626504
aF1.7486125164500084
aF1.510762789141517
aF3.0280657196514706
aF0.89498168191794103
aF-0.89503933584681195
asS'accel_x'
p10
F1.1041774173748826
sS'accel_y'
p11
F-1.6675707574071132
sS'visionAngle'
p12
I150
sS'maxAccel'
p13
I2
sS'maxVel'
p14
F0.5
sS'age'
p15
I50
sS'lastScale'
p16
F15.297298264542604
sS'maxSteering'
p17
I30
sS'energy'
p18
F0.97972982645426054
sb.(i__main__
Data_mobile
p1
(dp2
S'vel_y'
p3
F-0.19577637496793993
sS'vel_x'
p4
F0.46007783146377812
sS'pos_x'
p5
F-174.24077206104488
sS'pos_y'
p6
F3.571724634936742
sS'isAlive'
p7
I01
sS'geno'
p8
(lp9
F0.46364156298137027
aF1.4513225942228778
aF2.2768141457801847
aF2.938227042059784
aF1.2284490886060064
aF-0.9700964892475723
asS'accel_x'
p10
F-0.051535707112621676
sS'accel_y'
p11
F-1.3151718870460702
sS'visionAngle'
p12
I150
sS'maxAccel'
p13
I2
sS'maxVel'
p14
F0.5
sS'age'
p15
I100
sS'lastScale'
p16
F15.218125004116395
sS'maxSteering'
p17
I30
sS'energy'
p18
F0.97181250041163969
sb.(i__main__
Data_mobile
p1
(dp2
S'vel_y'
p3
F-0.20651938793106164
sS'vel_x'
p4
F-0.45535671995544297
sS'pos_x'
p5
F-180.52539736395983
sS'pos_y'
p6
F-94.529898409166421
sS'isAlive'
p7
I01
sS'geno'
p8
(lp9
F-0.11898902335260908
aF1.4147320303399193
aF1.6092285324644973
aF3.1395019360115217
aF1.3111659008112353
aF-1.3832636389047988
asS'accel_x'
p10
F-1.9612286209356804
sS'accel_y'
p11
F-0.39189577239711199
sS'visionAngle'
p12
I150
sS'maxAccel'
p13
I2
sS'maxVel'
p14
F0.5
sS'age'
p15
I50
sS'lastScale'
p16
F10.482567602243996
sS'maxSteering'
p17
I30
sS'energy'
p18
F0.49825676022439963
sb.(i__main__
Data_mobile
p1
(dp2
S'vel_y'
p3
F-0.29083566628287361
sS'vel_x'
p4
F-0.24861102272024296
sS'pos_x'
p5
F40.340734079363934
sS'pos_y'
p6
F34.132438418484767
sS'isAlive'
p7
I01
sS'geno'
p8
(lp9
F0.04429313800161172
aF1.7486125164500084
aF1.8224316098311282
aF2.938227042059784
aF1.1170884158186658
aF-0.7429867314273878
asS'accel_x'
p10
F0
sS'accel_y'
p11
F0
sS'visionAngle'
p12
I150
sS'maxAccel'
p13
I2
sS'maxVel'
p14
F0.5
sS'age'
p15
I0
sS'lastScale'
p16
F5.5
sS'maxSteering'
p17
I30
sS'energy'
p18
F0.5
sb.(i__main__
Data_mobile
p1
(dp2
S'vel_y'
p3
F-0.37629403327832905
sS'vel_x'
p4
F0.32924580562116168
sS'pos_x'
p5
F-173.4923474634775
sS'pos_y'
p6
F5.5581720377230495
sS'isAlive'
p7
I01
sS'geno'
p8
(lp9
F0.27872793454881017
aF1.8929359614115664
aF1.7018189834949218
aF3.3718729408556989
aF-0.64156481702307655
aF-0.55065696045741952
asS'accel_x'
p10
F-0.97235418448981092
sS'accel_y'
p11
F1.7477206126567126
sS'visionAngle'
p12
I150
sS'maxAccel'
p13
I2
sS'maxVel'
p14
F0.5
sS'age'
p15
I50
sS'lastScale'
p16
F15.398593637295674
sS'maxSteering'
p17
I30
sS'energy'
p18
F0.98985936372956751
sb.(i__main__
Data_mobile
p1
(dp2
S'vel_y'
p3
F0.097983499132297591
sS'vel_x'
p4
F-0.40996827278385739
sS'pos_x'
p5
F168.91424869608653
sS'pos_y'
p6
F80.321566904235596
sS'isAlive'
p7
I01
sS'geno'
p8
(lp9
F0.46937640291399629
aF0.39559205523910357
aF1.7018189834949218
aF2.7907406995006991
aF1.2284490886060064
aF-0.9700964892475723
asS'accel_x'
p10
F0
sS'accel_y'
p11
F0
sS'visionAngle'
p12
I150
sS'maxAccel'
p13
I2
sS'maxVel'
p14
F0.5
sS'age'
p15
I0
sS'lastScale'
p16
F5.5
sS'maxSteering'
p17
I30
sS'energy'
p18
F0.5
sb.(i__main__
Data_mobile
p1
(dp2
S'vel_y'
p3
F-0.49982030592735327
sS'vel_x'
p4
F-0.013403797323407593
sS'pos_x'
p5
F158.17344965831057
sS'pos_y'
p6
F-64.224232877028712
sS'isAlive'
p7
I01
sS'geno'
p8
(lp9
F0.04429313800161172
aF1.7486125164500084
aF1.7018189834949218
aF3.1395019360115217
aF1.1358842584962072
aF-0.9700964892475723
asS'accel_x'
p10
F-0.99267775247303769
sS'accel_y'
p11
F0.12964635549820702
sS'visionAngle'
p12
I150
sS'maxAccel'
p13
I2
sS'maxVel'
p14
F0.5
sS'age'
p15
I150
sS'lastScale'
p16
F8.9488257189517277
sS'maxSteering'
p17
I30
sS'energy'
p18
F0.34488257189517263
sb.(i__main__
Data_mobile
p1
(dp2
S'vel_y'
p3
F-0.42124723485835025
sS'vel_x'
p4
F0.26935249604225664
sS'pos_x'
p5
F-119.93542489788651
sS'pos_y'
p6
F-99.556588693516275
sS'isAlive'
p7
I01
sS'geno'
p8
(lp9
F0.029314755553626504
aF1.7486125164500084
aF1.510762789141517
aF3.2414803661968863
aF1.1358842584962072
aF-0.9700964892475723
asS'accel_x'
p10
F-0.46913377410692458
sS'accel_y'
p11
F-0.080300981035682506
sS'visionAngle'
p12
I150
sS'maxAccel'
p13
I2
sS'maxVel'
p14
F0.5
sS'age'
p15
I150
sS'lastScale'
p16
F12.531040886855955
sS'maxSteering'
p17
I30
sS'energy'
p18
F0.60310408868559551
sb.(i__main__
Data_mobile
p1
(dp2
S'vel_y'
p3
F-0.39085481553359802
sS'vel_x'
p4
F-0.31182128403012693
sS'pos_x'
p5
F-13.818433137293001
sS'pos_y'
p6
F50.042206378267892
sS'isAlive'
p7
I01
sS'geno'
p8
(lp9
F0.029314755553626504
aF1.5714451130334457
aF1.7018189834949218
aF2.3502204003933165
aF1.2284490886060064
aF-1.060589172936121
asS'accel_x'
p10
F-1.466958493915363
sS'accel_y'
p11
F-1.3594236930146428
sS'visionAngle'
p12
I150
sS'maxAccel'
p13
I2
sS'maxVel'
p14
F0.5
sS'age'
p15
I100
sS'lastScale'
p16
F13.008695600354578
sS'maxSteering'
p17
I30
sS'energy'
p18
F0.75086956003545768
sb.(i__main__
Data_mobile
p1
(dp2
S'vel_y'
p3
F-0.17046850278986642
sS'vel_x'
p4
F-0.47004307202274698
sS'pos_x'
p5
F-188.67666556964119
sS'pos_y'
p6
F-97.463481524671181
sS'isAlive'
p7
I01
sS'geno'
p8
(lp9
F-0.11898902335260908
aF1.4147320303399193
aF1.7018189834949218
aF2.938227042059784
aF1.2284490886060064
aF-0.7429867314273878
asS'accel_x'
p10
F-1.1833231506784985
sS'accel_y'
p11
F-1.6123728852434573
sS'visionAngle'
p12
I150
sS'maxAccel'
p13
I2
sS'maxVel'
p14
F0.5
sS'age'
p15
I300
sS'lastScale'
p16
F8.9430206061258559
sS'maxSteering'
p17
I30
sS'energy'
p18
F0.34430206061258561
sb.(i__main__
Data_mobile
p1
(dp2
S'vel_y'
p3
F-0.43802892402888621
sS'vel_x'
p4
F-0.24110301058696107
sS'pos_x'
p5
F177.05037768954742
sS'pos_y'
p6
F107.43851923965033
sS'isAlive'
p7
I01
sS'geno'
p8
(lp9
F0.04429313800161172
aF1.7486125164500084
aF1.7018189834949218
aF2.938227042059784
aF1.153470222127126
aF-1.3832636389047988
asS'accel_x'
p10
F-1.4123218587407338
sS'accel_y'
p11
F-1.4161027389716891
sS'visionAngle'
p12
I150
sS'maxAccel'
p13
I2
sS'maxVel'
p14
F0.5
sS'age'
p15
I150
sS'lastScale'
p16
F12.352160317815198
sS'maxSteering'
p17
I30
sS'energy'
p18
F0.68521603178151957
sb.(i__main__
Data_mobile
p1
(dp2
S'vel_y'
p3
F-0.26401249373806979
sS'vel_x'
p4
F0.20491460417475835
sS'pos_x'
p5
F149.65161100728457
sS'pos_y'
p6
F19.920437947124707
sS'isAlive'
p7
I01
sS'geno'
p8
(lp9
F0.46937640291399629
aF1.8111566583000771
aF1.7018189834949218
aF3.1395019360115217
aF0.87907700383881437
aF-0.68551585368284251
asS'accel_x'
p10
F0
sS'accel_y'
p11
F0
sS'visionAngle'
p12
I150
sS'maxAccel'
p13
I2
sS'maxVel'
p14
F0.5
sS'age'
p15
I0
sS'lastScale'
p16
F5.5
sS'maxSteering'
p17
I30
sS'energy'
p18
F0.5
sb.(i__main__
Data_mobile
p1
(dp2
S'vel_y'
p3
F-0.47288413536943913
sS'vel_x'
p4
F-0.16242104086570183
sS'pos_x'
p5
F-138.66362073588596
sS'pos_y'
p6
F27.528416634480543
sS'isAlive'
p7
I01
sS'geno'
p8
(lp9
F0.04429313800161172
aF1.7486125164500084
aF1.7018189834949218
aF3.1395019360115217
aF1.1358842584962072
aF-0.9700964892475723
asS'accel_x'
p10
F-0.49579314760530646
sS'accel_y'
p11
F-1.9375730063116647
sS'visionAngle'
p12
I150
sS'maxAccel'
p13
I2
sS'maxVel'
p14
F0.5
sS'age'
p15
I100
sS'lastScale'
p16
F14.111111154211333
sS'maxSteering'
p17
I30
sS'energy'
p18
F0.86111111542113339
sb.(i__main__
Data_mobile
p1
(dp2
S'vel_y'
p3
F0.037569078598017086
sS'vel_x'
p4
F-0.20960356963552715
sS'pos_x'
p5
F-148.68918948158503
sS'pos_y'
p6
F-55.535734161659505
sS'isAlive'
p7
I01
sS'geno'
p8
(lp9
F0.04429313800161172
aF1.7697176602974958
aF1.7018189834949218
aF3.1395019360115217
aF1.1358842584962072
aF-0.9700964892475723
asS'accel_x'
p10
F0
sS'accel_y'
p11
F0
sS'visionAngle'
p12
I150
sS'maxAccel'
p13
I2
sS'maxVel'
p14
F0.5
sS'age'
p15
I0
sS'lastScale'
p16
F5.5
sS'maxSteering'
p17
I30
sS'energy'
p18
F0.5
sb.(i__main__
Data_mobile
p1
(dp2
S'vel_y'
p3
F-0.441571899826876
sS'vel_x'
p4
F0.23455118265164077
sS'pos_x'
p5
F-190.96402737929009
sS'pos_y'
p6
F-96.110902748459168
sS'isAlive'
p7
I01
sS'geno'
p8
(lp9
F-0.0066711581184371038
aF1.5714451130334457
aF1.7018189834949218
aF3.0280657196514706
aF1.1358842584962072
aF-0.85834367202289574
asS'accel_x'
p10
F0.82574387656069081
sS'accel_y'
p11
F-0.84594501166061131
sS'visionAngle'
p12
I150
sS'maxAccel'
p13
I2
sS'maxVel'
p14
F0.5
sS'age'
p15
I50
sS'lastScale'
p16
F5.8051370210576563
sS'maxSteering'
p17
I30
sS'energy'
p18
F0.030513702105765664
sb.(i__main__
Data_mobile
p1
(dp2
S'vel_y'
p3
F-0.42399396856863886
sS'vel_x'
p4
F-0.26500776331537185
sS'pos_x'
p5
F175.19116336669666
sS'pos_y'
p6
F2.6770905679789947
sS'isAlive'
p7
I01
sS'geno'
p8
(lp9
F0.54625102903210387
aF1.7486125164500084
aF2.7079493554888341
aF2.5056720784297695
aF1.1358842584962072
aF-0.9700964892475723
asS'accel_x'
p10
F-0.6098237309271094
sS'accel_y'
p11
F-1.9047611443953125
sS'visionAngle'
p12
I150
sS'maxAccel'
p13
I2
sS'maxVel'
p14
F0.5
sS'age'
p15
I100
sS'lastScale'
p16
F7.6933263221155652
sS'maxSteering'
p17
I30
sS'energy'
p18
F0.21933263221155658
sb.(i__main__
Data_mobile
p1
(dp2
S'vel_y'
p3
F0.26407047578527598
sS'vel_x'
p4
F-0.42457836004504274
sS'pos_x'
p5
F46.842805220979976
sS'pos_y'
p6
F24.292935117132739
sS'isAlive'
p7
I01
sS'geno'
p8
(lp9
F-0.0066711581184371038
aF1.7486125164500084
aF1.7018189834949218
aF2.938227042059784
aF0.77612354809485751
aF-0.86081054911128674
asS'accel_x'
p10
F-0.62654020327465865
sS'accel_y'
p11
F0.50230873548205268
sS'visionAngle'
p12
I150
sS'maxAccel'
p13
I2
sS'maxVel'
p14
F0.5
sS'age'
p15
I100
sS'lastScale'
p16
F14.308317856832657
sS'maxSteering'
p17
I30
sS'energy'
p18
F0.87070224840795885
sb.(i__main__
Data_mobile
p1
(dp2
S'vel_y'
p3
F-0.43877439334863771
sS'vel_x'
p4
F-0.23974367925251958
sS'pos_x'
p5
F177.04110163700375
sS'pos_y'
p6
F102.26875757701802
sS'isAlive'
p7
I01
sS'geno'
p8
(lp9
F0.04429313800161172
aF1.7486125164500084
aF1.7018189834949218
aF2.938227042059784
aF1.2284490886060064
aF-0.9700964892475723
asS'accel_x'
p10
F-0.20351697013118303
sS'accel_y'
p11
F-1.9896182656149453
sS'visionAngle'
p12
I150
sS'maxAccel'
p13
I2
sS'maxVel'
p14
F0.5
sS'age'
p15
I200
sS'lastScale'
p16
F10.701918719271173
sS'maxSteering'
p17
I30
sS'energy'
p18
F0.52019187192711736
sb.(i__main__
Data_mobile
p1
(dp2
S'vel_y'
p3
F0.39375927739110589
sS'vel_x'
p4
F0.30814547127685354
sS'pos_x'
p5
F-98.791896450879932
sS'pos_y'
p6
F81.023374784965426
sS'isAlive'
p7
I01
sS'geno'
p8
(lp9
F0.04429313800161172
aF1.7486125164500084
aF1.7018189834949218
aF3.1395019360115217
aF1.3591899588244154
aF-0.9700964892475723
asS'accel_x'
p10
F-0.4963642872892241
sS'accel_y'
p11
F0.87754591367910806
sS'visionAngle'
p12
I150
sS'maxAccel'
p13
I2
sS'maxVel'
p14
F0.5
sS'age'
p15
I100
sS'lastScale'
p16
F14.507411719020674
sS'maxSteering'
p17
I30
sS'energy'
p18
F0.90074117190206726
sb.(i__main__
Data_mobile
p1
(dp2
S'vel_y'
p3
F-0.33561306636630672
sS'vel_x'
p4
F-0.37062632081950825
sS'pos_x'
p5
F-0.98766896671689863
sS'pos_y'
p6
F-47.704361885770943
sS'isAlive'
p7
I01
sS'geno'
p8
(lp9
F-0.0066711581184371038
aF1.5714451130334457
aF2.2768141457801847
aF2.938227042059784
aF-0.82264316460349596
aF-0.55065696045741952
asS'accel_x'
p10
F-1.5555227104294673
sS'accel_y'
p11
F-1.2571193647932422
sS'visionAngle'
p12
I150
sS'maxAccel'
p13
I2
sS'maxVel'
p14
F0.5
sS'age'
p15
I50
sS'lastScale'
p16
F10.732812612960057
sS'maxSteering'
p17
I30
sS'energy'
p18
F0.52328126129600572
sb.(i__main__
Data_mobile
p1
(dp2
S'vel_y'
p3
F-0.43697427749657614
sS'vel_x'
p4
F-0.24300921959124366
sS'pos_x'
p5
F-11.21274677415423
sS'pos_y'
p6
F39.120644257015158
sS'isAlive'
p7
I01
sS'geno'
p8
(lp9
F-0.010912063689386131
aF1.7486125164500084
aF1.7018189834949218
aF2.938227042059784
aF1.2284490886060064
aF-0.9700964892475723
asS'accel_x'
p10
F-0.81135140692302976
sS'accel_y'
p11
F-1.8280341611917486
sS'visionAngle'
p12
I150
sS'maxAccel'
p13
I2
sS'maxVel'
p14
F0.5
sS'age'
p15
I150
sS'lastScale'
p16
F8.7584284123341583
sS'maxSteering'
p17
I30
sS'energy'
p18
F0.32584284123341589
sb.(i__main__
Data_mobile
p1
(dp2
S'vel_y'
p3
F0.14115225346336335
sS'vel_x'
p4
F-0.47966242435927209
sS'pos_x'
p5
F-186.02868128658153
sS'pos_y'
p6
F-99.775508966114245
sS'isAlive'
p7
I01
sS'geno'
p8
(lp9
F0.04429313800161172
aF1.7486125164500084
aF1.7018189834949218
aF3.0280657196514706
aF1.1358842584962072
aF-0.85834367202289574
asS'accel_x'
p10
F-1.7065745672266504
sS'accel_y'
p11
F1.0428821824612646
sS'visionAngle'
p12
I150
sS'maxAccel'
p13
I2
sS'maxVel'
p14
F0.5
sS'age'
p15
I150
sS'lastScale'
p16
F8.8520401566567717
sS'maxSteering'
p17
I30
sS'energy'
p18
F0.31538387776529808
sb.(i__main__
Data_mobile
p1
(dp2
S'vel_y'
p3
F-0.28935825654703917
sS'vel_x'
p4
F-0.30040419785779737
sS'pos_x'
p5
F-122.25088565447885
sS'pos_y'
p6
F14.867334085338271
sS'isAlive'
p7
I01
sS'geno'
p8
(lp9
F0.46937640291399629
aF0.39559205523910357
aF1.7018189834949218
aF2.938227042059784
aF1.153470222127126
aF-1.3832636389047988
asS'accel_x'
p10
F0
sS'accel_y'
p11
F0
sS'visionAngle'
p12
I150
sS'maxAccel'
p13
I2
sS'maxVel'
p14
F0.5
sS'age'
p15
I0
sS'lastScale'
p16
F5.5
sS'maxSteering'
p17
I30
sS'energy'
p18
F0.5
sb.(i__main__
Data_mobile
p1
(dp2
S'vel_y'
p3
F0.095463715859497991
sS'vel_x'
p4
F-0.49080207716990876
sS'pos_x'
p5
F-15.805818234893451
sS'pos_y'
p6
F69.972129596362379
sS'isAlive'
p7
I01
sS'geno'
p8
(lp9
F1.1601706361963411
aF1.4147320303399193
aF0.97091910363805345
aF3.0162510942025467
aF1.2284490886060064
aF-0.7429867314273878
asS'accel_x'
p10
F-1.9512802256679955
sS'accel_y'
p11
F0.43875446540982083
sS'visionAngle'
p12
I150
sS'maxAccel'
p13
I2
sS'maxVel'
p14
F0.5
sS'age'
p15
I50
sS'lastScale'
p16
F13.686265144215357
sS'maxSteering'
p17
I30
sS'energy'
p18
F0.81862651442153578
sb.(i__main__
Data_mobile
p1
(dp2
S'vel_y'
p3
F0.20101030387186458
sS'vel_x'
p4
F-0.031425259542178258
sS'pos_x'
p5
F-117.80229141106632
sS'pos_y'
p6
F2.6901177019913689
sS'isAlive'
p7
I01
sS'geno'
p8
(lp9
F-0.11898902335260908
aF1.4147320303399193
aF1.6092285324644973
aF2.938227042059784
aF1.0001581214200304
aF-0.9700964892475723
asS'accel_x'
p10
F0
sS'accel_y'
p11
F0
sS'visionAngle'
p12
I150
sS'maxAccel'
p13
I2
sS'maxVel'
p14
F0.5
sS'age'
p15
I0
sS'lastScale'
p16
F5.5
sS'maxSteering'
p17
I30
sS'energy'
p18
F0.5
sb.(i__main__
Data_mobile
p1
(dp2
S'vel_y'
p3
F-0.27412766224975449
sS'vel_x'
p4
F0.41815550311993321
sS'pos_x'
p5
F69.286354014963294
sS'pos_y'
p6
F-38.089543288860156
sS'isAlive'
p7
I01
sS'geno'
p8
(lp9
F-0.43229792325819583
aF1.5714451130334457
aF1.7018189834949218
aF3.0280657196514706
aF1.1358842584962072
aF-1.3832636389047988
asS'accel_x'
p10
F1.933986025803395
sS'accel_y'
p11
F-0.50960578096916265
sS'visionAngle'
p12
I150
sS'maxAccel'
p13
I2
sS'maxVel'
p14
F0.5
sS'age'
p15
I150
sS'lastScale'
p16
F7.5950961031764024
sS'maxSteering'
p17
I30
sS'energy'
p18
F0.20950961031764029
sb.(i__main__
Data_mobile
p1
(dp2
S'vel_y'
p3
F-0.46523964444197269
sS'vel_x'
p4
F-0.18317225018956021
sS'pos_x'
p5
F160.68394094417471
sS'pos_y'
p6
F-63.604822104689212
sS'isAlive'
p7
I01
sS'geno'
p8
(lp9
F0.27872793454881017
aF1.8929359614115664
aF1.7018189834949218
aF3.1395019360115217
aF1.1358842584962072
aF-0.9700964892475723
asS'accel_x'
p10
F-0.74776173371486798
sS'accel_y'
p11
F0.19471836821967448
sS'visionAngle'
p12
I150
sS'maxAccel'
p13
I2
sS'maxVel'
p14
F0.5
sS'age'
p15
I250
sS'lastScale'
p16
F10.100097087231166
sS'maxSteering'
p17
I30
sS'energy'
p18
F0.46000970872311647
sb.(i__main__
Data_mobile
p1
(dp2
S'vel_y'
p3
F-0.025689746751753808
sS'vel_x'
p4
F-0.49933960078470724
sS'pos_x'
p5
F-60.897315381417478
sS'pos_y'
p6
F48.233266129047735
sS'isAlive'
p7
I01
sS'geno'
p8
(lp9
F0.029314755553626504
aF2.0713680453525405
aF2.7079493554888341
aF3.123875681651187
aF1.1358842584962072
aF-0.9700964892475723
asS'accel_x'
p10
F-1.6894213486123513
sS'accel_y'
p11
F-1.0704464054088945
sS'visionAngle'
p12
I150
sS'maxAccel'
p13
I2
sS'maxVel'
p14
F0.5
sS'age'
p15
I200
sS'lastScale'
p16
F10.313513595006212
sS'maxSteering'
p17
I30
sS'energy'
p18
F0.48135135950062113
sb.(i__main__
Data_mobile
p1
(dp2
S'vel_y'
p3
F0.095238114590666487
sS'vel_x'
p4
F-0.40684467054452483
sS'pos_x'
p5
F179.14900716765462
sS'pos_y'
p6
F79.865282275744235
sS'isAlive'
p7
I01
sS'geno'
p8
(lp9
F0.054925184402453198
aF1.8111566583000771
aF1.7018189834949218
aF3.1128410589562954
aF1.3799728465516996
aF-1.3832636389047988
asS'accel_x'
p10
F0
sS'accel_y'
p11
F0
sS'visionAngle'
p12
I150
sS'maxAccel'
p13
I2
sS'maxVel'
p14
F0.5
sS'age'
p15
I0
sS'lastScale'
p16
F5.5
sS'maxSteering'
p17
I30
sS'energy'
p18
F0.5
sb.(i__main__
Data_mobile
p1
(dp2
S'vel_y'
p3
F-0.4095746016291959
sS'vel_x'
p4
F-0.2867902468709238
sS'pos_x'
p5
F177.72963079340195
sS'pos_y'
p6
F36.000026716650659
sS'isAlive'
p7
I01
sS'geno'
p8
(lp9
F0.12509887997052982
aF1.7486125164500084
aF1.7018189834949218
aF3.0280657196514706
aF1.2284490886060064
aF-0.9700964892475723
asS'accel_x'
p10
F-1.9951902932985279
sS'accel_y'
p11
F-0.13862068217742335
sS'visionAngle'
p12
I150
sS'maxAccel'
p13
I2
sS'maxVel'
p14
F0.5
sS'age'
p15
I300
sS'lastScale'
p16
F12.700000159790756
sS'maxSteering'
p17
I30
sS'energy'
p18
F0.72000001597907559
sb.(i__main__
Data_mobile
p1
(dp2
S'vel_y'
p3
F-0.11030745756689334
sS'vel_x'
p4
F0.48768049459162088
sS'pos_x'
p5
F-130.7805338164419
sS'pos_y'
p6
F37.03170389644098
sS'isAlive'
p7
I01
sS'geno'
p8
(lp9
F-0.0066711581184371038
aF1.5714451130334457
aF2.2768141457801847
aF2.938227042059784
aF1.2284490886060064
aF-0.7429867314273878
asS'accel_x'
p10
F0
sS'accel_y'
p11
F0
sS'visionAngle'
p12
I150
sS'maxAccel'
p13
I2
sS'maxVel'
p14
F0.5
sS'age'
p15
I0
sS'lastScale'
p16
F5.5
sS'maxSteering'
p17
I30
sS'energy'
p18
F0.5
sb.(i__main__
Data_mobile
p1
(dp2
S'vel_y'
p3
F0.47545801888793737
sS'vel_x'
p4
F-0.1547245044430838
sS'pos_x'
p5
F145.99081445109221
sS'pos_y'
p6
F-26.210042799801052
sS'isAlive'
p7
I01
sS'geno'
p8
(lp9
F0.12509887997052982
aF1.7486125164500084
aF1.7018189834949218
aF3.0280657196514706
aF1.2284490886060064
aF-0.9700964892475723
asS'accel_x'
p10
F1.2778951130275207
sS'accel_y'
p11
F1.5385005947676393
sS'visionAngle'
p12
I150
sS'maxAccel'
p13
I2
sS'maxVel'
p14
F0.5
sS'age'
p15
I100
sS'lastScale'
p16
F10.98254739716044
sS'maxSteering'
p17
I30
sS'energy'
p18
F0.54825473971604399
sb.(i__main__
Data_mobile
p1
(dp2
S'vel_y'
p3
F0.16754696304585776
sS'vel_x'
p4
F0.11794910287943028
sS'pos_x'
p5
F-61.831848081954035
sS'pos_y'
p6
F80.951900994765396
sS'isAlive'
p7
I01
sS'geno'
p8
(lp9
F0.04429313800161172
aF1.7486125164500084
aF1.7018189834949218
aF3.1395019360115217
aF1.1358842584962072
aF-0.9700964892475723
asS'accel_x'
p10
F0
sS'accel_y'
p11
F0
sS'visionAngle'
p12
I150
sS'maxAccel'
p13
I2
sS'maxVel'
p14
F0.5
sS'age'
p15
I0
sS'lastScale'
p16
F5.5
sS'maxSteering'
p17
I30
sS'energy'
p18
F0.5
sb.(i__main__
Data_mobile
p1
(dp2
S'vel_y'
p3
F-0.4983504118278107
sS'vel_x'
p4
F-0.040581609517753671
sS'pos_x'
p5
F36.027432072156145
sS'pos_y'
p6
F39.016846276274158
sS'isAlive'
p7
I01
sS'geno'
p8
(lp9
F0.029314755553626504
aF2.0713680453525405
aF2.7079493554888341
aF3.123875681651187
aF1.1358842584962072
aF-0.9700964892475723
asS'accel_x'
p10
F-0.22246610901576547
sS'accel_y'
p11
F-1.9875886974772687
sS'visionAngle'
p12
I150
sS'maxAccel'
p13
I2
sS'maxVel'
p14
F0.5
sS'age'
p15
I50
sS'lastScale'
p16
F8.7716362606329064
sS'maxSteering'
p17
I30
sS'energy'
p18
F0.29703692761170186
sb.(i__main__
Data_mobile
p1
(dp2
S'vel_y'
p3
F-0.092925129523486999
sS'vel_x'
p4
F0.15203610476854451
sS'pos_x'
p5
F-84.797084323019462
sS'pos_y'
p6
F-97.881657776868991
sS'isAlive'
p7
I01
sS'geno'
p8
(lp9
F0.04429313800161172
aF1.7486125164500084
aF1.7018189834949218
aF2.938227042059784
aF1.3902263533372472
aF-0.9700964892475723
asS'accel_x'
p10
F0
sS'accel_y'
p11
F0
sS'visionAngle'
p12
I150
sS'maxAccel'
p13
I2
sS'maxVel'
p14
F0.5
sS'age'
p15
I0
sS'lastScale'
p16
F5.5
sS'maxSteering'
p17
I30
sS'energy'
p18
F0.5
sb.(i__main__
Data_mobile
p1
(dp2
S'vel_y'
p3
F0.49930480077164507
sS'vel_x'
p4
F-0.026357464339116739
sS'pos_x'
p5
F185.82870525684555
sS'pos_y'
p6
F58.243718330066848
sS'isAlive'
p7
I01
sS'geno'
p8
(lp9
F0.029314755553626504
aF2.0713680453525405
aF2.7079493554888341
aF2.938227042059784
aF1.2284490886060064
aF-0.43916193048426821
asS'accel_x'
p10
F-0.29638904594126786
sS'accel_y'
p11
F1.9779164627066597
sS'visionAngle'
p12
I150
sS'maxAccel'
p13
I2
sS'maxVel'
p14
F0.5
sS'age'
p15
I100
sS'lastScale'
p16
F14.780982381391617
sS'maxSteering'
p17
I30
sS'energy'
p18
F0.92809823813916148
sb.(i__main__
Data_mobile
p1
(dp2
S'vel_y'
p3
F-0.41132374980933095
sS'vel_x'
p4
F-0.20852254717194246
sS'pos_x'
p5
F166.72857672745602
sS'pos_y'
p6
F-12.33774809973079
sS'isAlive'
p7
I01
sS'geno'
p8
(lp9
F0.46937640291399629
aF0.39559205523910357
aF1.7018189834949218
aF2.3963316505027952
aF1.2284490886060064
aF-0.9700964892475723
asS'accel_x'
p10
F0
sS'accel_y'
p11
F0
sS'visionAngle'
p12
I150
sS'maxAccel'
p13
I2
sS'maxVel'
p14
F0.5
sS'age'
p15
I0
sS'lastScale'
p16
F5.5
sS'maxSteering'
p17
I30
sS'energy'
p18
F0.5
sb.(i__main__
Data_mobile
p1
(dp2
S'vel_y'
p3
F-0.260814768086988
sS'vel_x'
p4
F-0.42551300676344306
sS'pos_x'
p5
F13.618646846300706
sS'pos_y'
p6
F43.192357475083291
sS'isAlive'
p7
I01
sS'geno'
p8
(lp9
F0.029314755553626504
aF1.5714451130334457
aF1.7018189834949218
aF2.938227042059784
aF-0.64156481702307655
aF-0.55065696045741952
asS'accel_x'
p10
F0
sS'accel_y'
p11
F0
sS'visionAngle'
p12
I150
sS'maxAccel'
p13
I2
sS'maxVel'
p14
F0.5
sS'age'
p15
I0
sS'lastScale'
p16
F5.5
sS'maxSteering'
p17
I30
sS'energy'
p18
F0.5
sb.(i__main__
Data_mobile
p1
(dp2
S'vel_y'
p3
F0.40610559396137957
sS'vel_x'
p4
F0.16857154756436959
sS'pos_x'
p5
F171.04749893937847
sS'pos_y'
p6
F55.060000927598978
sS'isAlive'
p7
I01
sS'geno'
p8
(lp9
F0.029314755553626504
aF1.5978095842242115
aF1.6092285324644973
aF3.5474093677357135
aF0.99485213054820398
aF-1.3832636389047988
asS'accel_x'
p10
F0
sS'accel_y'
p11
F0
sS'visionAngle'
p12
I150
sS'maxAccel'
p13
I2
sS'maxVel'
p14
F0.5
sS'age'
p15
I0
sS'lastScale'
p16
F5.5
sS'maxSteering'
p17
I30
sS'energy'
p18
F0.5
sb.(i__main__
Data_mobile
p1
(dp2
S'vel_y'
p3
F0.25584468767123458
sS'vel_x'
p4
F-0.21920291024344887
sS'pos_x'
p5
F25.75179188252379
sS'pos_y'
p6
F11.059636869640368
sS'isAlive'
p7
I01
sS'geno'
p8
(lp9
F0.27872793454881017
aF1.7486125164500084
aF1.7018189834949218
aF3.1395019360115217
aF-0.64156481702307655
aF-0.55065696045741952
asS'accel_x'
p10
F0
sS'accel_y'
p11
F0
sS'visionAngle'
p12
I150
sS'maxAccel'
p13
I2
sS'maxVel'
p14
F0.5
sS'age'
p15
I0
sS'lastScale'
p16
F5.5
sS'maxSteering'
p17
I30
sS'energy'
p18
F0.5
sb.(i__main__
Data_mobile
p1
(dp2
S'vel_y'
p3
F-0.36146265235847941
sS'vel_x'
p4
F-0.34546309636482603
sS'pos_x'
p5
F11.151085421019051
sS'pos_y'
p6
F-55.415680957685524
sS'isAlive'
p7
I01
sS'geno'
p8
(lp9
F0.04429313800161172
aF1.7486125164500084
aF1.7018189834949218
aF2.7907406995006991
aF1.2284490886060064
aF-0.94330982436572886
asS'accel_x'
p10
F-1.5910720292725691
sS'accel_y'
p11
F-1.2118126083130467
sS'visionAngle'
p12
I150
sS'maxAccel'
p13
I2
sS'maxVel'
p14
F0.5
sS'age'
p15
I50
sS'lastScale'
p16
F9.4393032605148299
sS'maxSteering'
p17
I30
sS'energy'
p18
F0.37934603088365093
sb.(i__main__
Data_mobile
p1
(dp2
S'vel_y'
p3
F-0.082564608436915876
sS'vel_x'
p4
F-0.49313597053313685
sS'pos_x'
p5
F-169.37313075986683
sS'pos_y'
p6
F-97.823211758387615
sS'isAlive'
p7
I01
sS'geno'
p8
(lp9
F-0.0066711581184371038
aF1.7486125164500084
aF1.7018189834949218
aF2.4488663768973846
aF0.93136182126787215
aF-0.9700964892475723
asS'accel_x'
p10
F-1.9840273696386965
sS'accel_y'
p11
F-0.25226057267150248
sS'visionAngle'
p12
I150
sS'maxAccel'
p13
I2
sS'maxVel'
p14
F0.5
sS'age'
p15
I50
sS'lastScale'
p16
F6.4825676022439982
sS'maxSteering'
p17
I30
sS'energy'
p18
F0.098256760224399775
sb.(i__main__
Data_mobile
p1
(dp2
S'vel_y'
p3
F0.25480525275905463
sS'vel_x'
p4
F-0.43020260711250263
sS'pos_x'
p5
F-187.22355371989488
sS'pos_y'
p6
F-95.726706329252906
sS'isAlive'
p7
I01
sS'geno'
p8
(lp9
F-0.11898902335260908
aF1.4147320303399193
aF1.7018189834949218
aF2.938227042059784
aF1.2284490886060064
aF-0.7429867314273878
asS'accel_x'
p10
F-0.30504413346278325
sS'accel_y'
p11
F-0.21571495169518701
sS'visionAngle'
p12
I150
sS'maxAccel'
p13
I2
sS'maxVel'
p14
F0.5
sS'age'
p15
I150
sS'lastScale'
p16
F11.749129576168125
sS'maxSteering'
p17
I30
sS'energy'
p18
F0.62491295761681243
sb.(i__main__
Data_mobile
p1
(dp2
S'vel_y'
p3
F-0.26250801072677654
sS'vel_x'
p4
F-0.35675978955263338
sS'pos_x'
p5
F14.343175285744856
sS'pos_y'
p6
F17.515810457132758
sS'isAlive'
p7
I01
sS'geno'
p8
(lp9
F0.04429313800161172
aF1.4335421546259539
aF1.6092285324644973
aF3.1395019360115217
aF1.153470222127126
aF-1.3832636389047988
asS'accel_x'
p10
F0
sS'accel_y'
p11
F0
sS'visionAngle'
p12
I150
sS'maxAccel'
p13
I2
sS'maxVel'
p14
F0.5
sS'age'
p15
I0
sS'lastScale'
p16
F5.5
sS'maxSteering'
p17
I30
sS'energy'
p18
F0.5
sb.(i__main__
Data_mobile
p1
(dp2
S'vel_y'
p3
F0.0086424186625030149
sS'vel_x'
p4
F-0.49992530302002319
sS'pos_x'
p5
F48.814955284437239
sS'pos_y'
p6
F22.846789447971982
sS'isAlive'
p7
I01
sS'geno'
p8
(lp9
F0.029314755553626504
aF2.0713680453525405
aF2.7079493554888341
aF3.123875681651187
aF1.1358842584962072
aF-0.85834367202289574
asS'accel_x'
p10
F-1.1373651291876357
sS'accel_y'
p11
F1.6451141488990948
sS'visionAngle'
p12
I150
sS'maxAccel'
p13
I2
sS'maxVel'
p14
F0.5
sS'age'
p15
I50
sS'lastScale'
p16
F8.8678613540480313
sS'maxSteering'
p17
I30
sS'energy'
p18
F0.33678613540480318
sb.(i__main__
Data_mobile
p1
(dp2
S'vel_y'
p3
F-0.40150216098305119
sS'vel_x'
p4
F-0.29798660158795731
sS'pos_x'
p5
F168.66565138927916
sS'pos_y'
p6
F-0.013596343725574882
sS'isAlive'
p7
I01
sS'geno'
p8
(lp9
F-0.0066711581184371038
aF1.5714451130334457
aF1.7018189834949218
aF3.1395019360115217
aF1.1358842584962072
aF-0.9700964892475723
asS'accel_x'
p10
F-1.4567286505034291
sS'accel_y'
p11
F-1.370380107416354
sS'visionAngle'
p12
I150
sS'maxAccel'
p13
I2
sS'maxVel'
p14
F0.5
sS'age'
p15
I150
sS'lastScale'
p16
F9.3377145647403932
sS'maxSteering'
p17
I30
sS'energy'
p18
F0.38377145647403937
sb.(i__main__
Data_mobile
p1
(dp2
S'vel_y'
p3
F0.30933081560767917
sS'vel_x'
p4
F0.053738752841287943
sS'pos_x'
p5
F-56.600660242267324
sS'pos_y'
p6
F-44.946209263589736
sS'isAlive'
p7
I01
sS'geno'
p8
(lp9
F0.81027543186368645
aF0.39559205523910357
aF1.7018189834949218
aF2.899016688010998
aF1.153470222127126
aF-1.0423208488884164
asS'accel_x'
p10
F0
sS'accel_y'
p11
F0
sS'visionAngle'
p12
I150
sS'maxAccel'
p13
I2
sS'maxVel'
p14
F0.5
sS'age'
p15
I0
sS'lastScale'
p16
F5.5
sS'maxSteering'
p17
I30
sS'energy'
p18
F0.5
sb.(i__main__
Data_mobile
p1
(dp2
S'vel_y'
p3
F-0.076306951045108179
sS'vel_x'
p4
F-0.46688201271369706
sS'pos_x'
p5
F-48.462086784075439
sS'pos_y'
p6
F50.747083108561966
sS'isAlive'
p7
I01
sS'geno'
p8
(lp9
F-0.0066711581184371038
aF1.7486125164500084
aF1.7018189834949218
aF2.7907406995006991
aF1.2284490886060064
aF-0.9700964892475723
asS'accel_x'
p10
F0
sS'accel_y'
p11
F0
sS'visionAngle'
p12
I150
sS'maxAccel'
p13
I2
sS'maxVel'
p14
F0.5
sS'age'
p15
I0
sS'lastScale'
p16
F5.5
sS'maxSteering'
p17
I30
sS'energy'
p18
F0.5
sb.(i__main__
Data_mobile
p1
(dp2
S'vel_y'
p3
F-0.48749792225102528
sS'vel_x'
p4
F-0.11111154665890184
sS'pos_x'
p5
F-118.9546017725627
sS'pos_y'
p6
F-108.61605936666209
sS'isAlive'
p7
I01
sS'geno'
p8
(lp9
F0.04429313800161172
aF1.7486125164500084
aF1.7018189834949218
aF2.938227042059784
aF1.2284490886060064
aF-0.9700964892475723
asS'accel_x'
p10
F-0.57747312687024166
sS'accel_y'
p11
F-1.9148171682285247
sS'visionAngle'
p12
I150
sS'maxAccel'
p13
I2
sS'maxVel'
p14
F0.5
sS'age'
p15
I150
sS'lastScale'
p16
F11.758428412334156
sS'maxSteering'
p17
I30
sS'energy'
p18
F0.6258428412334156
sb.(i__main__
Data_mobile
p1
(dp2
S'vel_y'
p3
F-0.01604001610736212
sS'vel_x'
p4
F0.05190221968947753
sS'pos_x'
p5
F-98.970620836202102
sS'pos_y'
p6
F-65.115749562428476
sS'isAlive'
p7
I01
sS'geno'
p8
(lp9
F-0.0066711581184371038
aF1.8209623709770955
aF1.2988869735086583
aF2.938227042059784
aF1.2284490886060064
aF-1.1140121601509412
asS'accel_x'
p10
F0
sS'accel_y'
p11
F0
sS'visionAngle'
p12
I150
sS'maxAccel'
p13
I2
sS'maxVel'
p14
F0.5
sS'age'
p15
I0
sS'lastScale'
p16
F5.5
sS'maxSteering'
p17
I30
sS'energy'
p18
F0.5
sb.(i__main__
Data_mobile
p1
(dp2
S'vel_y'
p3
F-0.031703674942604461
sS'vel_x'
p4
F-0.49899386468686535
sS'pos_x'
p5
F134.35658117315313
sS'pos_y'
p6
F90.775620920276012
sS'isAlive'
p7
I01
sS'geno'
p8
(lp9
F0.054925184402453198
aF0.39559205523910357
aF1.7018189834949218
aF2.7907406995006991
aF1.2284490886060064
aF-0.9700964892475723
asS'accel_x'
p10
F-1.0003028699642917
sS'accel_y'
p11
F-0.34534471830694263
sS'visionAngle'
p12
I150
sS'maxAccel'
p13
I2
sS'maxVel'
p14
F0.5
sS'age'
p15
I300
sS'lastScale'
p16
F14.700000028587734
sS'maxSteering'
p17
I30
sS'energy'
p18
F0.92000000285877337
sb.(i__main__
Data_mobile
p1
(dp2
S'vel_y'
p3
F-0.34998253999025175
sS'vel_x'
p4
F-0.35708853482290887
sS'pos_x'
p5
F-10.049386117223147
sS'pos_y'
p6
F43.28229291058409
sS'isAlive'
p7
I01
sS'geno'
p8
(lp9
F0.04429313800161172
aF2.0346999358682551
aF1.7018189834949218
aF2.8617236595491233
aF-0.64156481702307655
aF-0.55065696045741952
asS'accel_x'
p10
F-1.2433022169645469
sS'accel_y'
p11
F-1.5665885220092233
sS'visionAngle'
p12
I150
sS'maxAccel'
p13
I2
sS'maxVel'
p14
F0.5
sS'age'
p15
I100
sS'lastScale'
p16
F12.218125004116398
sS'maxSteering'
p17
I30
sS'energy'
p18
F0.67181250041163976
sb.(i__main__
Data_mobile
p1
(dp2
S'vel_y'
p3
F-0.051654569964078585
sS'vel_x'
p4
F-0.0052182038364315033
sS'pos_x'
p5
F-186.50479678919524
sS'pos_y'
p6
F-96.826080301966414
sS'isAlive'
p7
I01
sS'geno'
p8
(lp9
F0.81027543186368645
aF0.39559205523910357
aF1.7018189834949218
aF2.899016688010998
aF1.153470222127126
aF-1.0423208488884164
asS'accel_x'
p10
F-0.9440799770025774
sS'accel_y'
p11
F-0.296338184700223
sS'visionAngle'
p12
I150
sS'maxAccel'
p13
I2
sS'maxVel'
p14
F0.5
sS'age'
p15
I150
sS'lastScale'
p16
F15.301657194409474
sS'maxSteering'
p17
I30
sS'energy'
p18
F0.9599066448903335
sb.(i__main__
Data_mobile
p1
(dp2
S'vel_y'
p3
F0.2965751328054676
sS'vel_x'
p4
F-0.26545990323860447
sS'pos_x'
p5
F-45.128270980881716
sS'pos_y'
p6
F-41.454062908986337
sS'isAlive'
p7
I01
sS'geno'
p8
(lp9
F-0.43229792325819583
aF1.5714451130334457
aF1.7018189834949218
aF2.6127441696714397
aF0.83549231333494289
aF-0.9700964892475723
asS'accel_x'
p10
F0.05655236353610027
sS'accel_y'
p11
F-0.33515312688784293
sS'visionAngle'
p12
I150
sS'maxAccel'
p13
I2
sS'maxVel'
p14
F0.5
sS'age'
p15
I50
sS'lastScale'
p16
F15.398593637295674
sS'maxSteering'
p17
I30
sS'energy'
p18
F0.98985936372956751
sb.(i__main__
Data_mobile
p1
(dp2
S'vel_y'
p3
F-0.18195286088726431
sS'vel_x'
p4
F0.23000949340676047
sS'pos_x'
p5
F57.572365927707587
sS'pos_y'
p6
F27.620790710708562
sS'isAlive'
p7
I01
sS'geno'
p8
(lp9
F0.029314755553626504
aF2.0713680453525405
aF2.6892500551694729
aF3.1395019360115217
aF1.2284490886060064
aF-0.7429867314273878
asS'accel_x'
p10
F0
sS'accel_y'
p11
F0
sS'visionAngle'
p12
I150
sS'maxAccel'
p13
I2
sS'maxVel'
p14
F0.5
sS'age'
p15
I0
sS'lastScale'
p16
F5.5
sS'maxSteering'
p17
I30
sS'energy'
p18
F0.5
sb.(i__main__
Data_mobile
p1
(dp2
S'vel_y'
p3
F0.43160644965900202
sS'vel_x'
p4
F-0.25242003211463104
sS'pos_x'
p5
F-103.94519999859426
sS'pos_y'
p6
F81.406328888025499
sS'isAlive'
p7
I01
sS'geno'
p8
(lp9
F0.029314755553626504
aF1.5714451130334457
aF1.7018189834949218
aF2.938227042059784
aF1.0159913091133252
aF-0.9700964892475723
asS'accel_x'
p10
F-1.0830327510493947
sS'accel_y'
p11
F1.3301257543687015
sS'visionAngle'
p12
I150
sS'maxAccel'
p13
I2
sS'maxVel'
p14
F0.5
sS'age'
p15
I150
sS'lastScale'
p16
F10.816117971348518
sS'maxSteering'
p17
I30
sS'energy'
p18
F0.53161179713485185
sb.(i__main__
Data_mobile
p1
(dp2
S'vel_y'
p3
F-0.38751498881065083
sS'vel_x'
p4
F0.31596223421016822
sS'pos_x'
p5
F-139.03114756982731
sS'pos_y'
p6
F6.0832554379679209
sS'isAlive'
p7
I01
sS'geno'
p8
(lp9
F0.46937640291399629
aF0.39559205523910357
aF1.7018189834949218
aF2.7907406995006991
aF1.2284490886060064
aF-0.9700964892475723
asS'accel_x'
p10
F-1.6611865302320317
sS'accel_y'
p11
F1.1137590905468129
sS'visionAngle'
p12
I150
sS'maxAccel'
p13
I2
sS'maxVel'
p14
F0.5
sS'age'
p15
I150
sS'lastScale'
p16
F15.301657194409474
sS'maxSteering'
p17
I30
sS'energy'
p18
F0.98016571944094744
sb.(i__main__
Data_mobile
p1
(dp2
S'vel_y'
p3
F0.34750310064851198
sS'vel_x'
p4
F-0.32948093373841059
sS'pos_x'
p5
F137.88382642473351
sS'pos_y'
p6
F82.095114854400038
sS'isAlive'
p7
I01
sS'geno'
p8
(lp9
F0.46364156298137027
aF1.5714451130334457
aF1.8667436555087544
aF2.938227042059784
aF1.2284490886060064
aF-0.9700964892475723
asS'accel_x'
p10
F0
sS'accel_y'
p11
F0
sS'visionAngle'
p12
I150
sS'maxAccel'
p13
I2
sS'maxVel'
p14
F0.5
sS'age'
p15
I0
sS'lastScale'
p16
F5.5
sS'maxSteering'
p17
I30
sS'energy'
p18
F0.5
sb.(i__main__
Data_mobile
p1
(dp2
S'vel_y'
p3
F-0.32338048772049505
sS'vel_x'
p4
F-0.38134637819396522
sS'pos_x'
p5
F72.634688739721895
sS'pos_y'
p6
F33.585289901852285
sS'isAlive'
p7
I01
sS'geno'
p8
(lp9
F0.04429313800161172
aF1.7486125164500084
aF1.7018189834949218
aF3.0280657196514706
aF1.1358842584962072
aF-0.9700964892475723
asS'accel_x'
p10
F-1.8161599396560602
sS'accel_y'
p11
F-0.83759362079023447
sS'visionAngle'
p12
I150
sS'maxAccel'
p13
I2
sS'maxVel'
p14
F0.5
sS'age'
p15
I50
sS'lastScale'
p16
F8.6739856572367415
sS'maxSteering'
p17
I30
sS'energy'
p18
F0.28726907247337874
sb.(i__main__
Data_mobile
p1
(dp2
S'vel_y'
p3
F0.017965518401317538
sS'vel_x'
p4
F0.29663048732455372
sS'pos_x'
p5
F10.593361905054849
sS'pos_y'
p6
F66.910606012989007
sS'isAlive'
p7
I01
sS'geno'
p8
(lp9
F0.12509887997052982
aF1.4147320303399193
aF1.2988869735086583
aF2.938227042059784
aF1.2284490886060064
aF-0.9700964892475723
asS'accel_x'
p10
F0
sS'accel_y'
p11
F0
sS'visionAngle'
p12
I150
sS'maxAccel'
p13
I2
sS'maxVel'
p14
F0.5
sS'age'
p15
I0
sS'lastScale'
p16
F5.5
sS'maxSteering'
p17
I30
sS'energy'
p18
F0.5
sb.(i__main__
Data_mobile
p1
(dp2
S'vel_y'
p3
F-0.25332476848301605
sS'vel_x'
p4
F-0.35466524252621118
sS'pos_x'
p5
F139.51903507851716
sS'pos_y'
p6
F60.643334935027305
sS'isAlive'
p7
I01
sS'geno'
p8
(lp9
F0.46364156298137027
aF0.39559205523910357
aF1.7018189834949218
aF2.7907406995006991
aF1.2284490886060064
aF-0.9700964892475723
asS'accel_x'
p10
F0
sS'accel_y'
p11
F0
sS'visionAngle'
p12
I150
sS'maxAccel'
p13
I2
sS'maxVel'
p14
F0.5
sS'age'
p15
I0
sS'lastScale'
p16
F5.5
sS'maxSteering'
p17
I30
sS'energy'
p18
F0.5
sb.(i__main__
Data_mobile
p1
(dp2
S'vel_y'
p3
F0.1216853191505665
sS'vel_x'
p4
F0.29516365076577822
sS'pos_x'
p5
F-28.022616565604608
sS'pos_y'
p6
F-80.039613551755082
sS'isAlive'
p7
I01
sS'geno'
p8
(lp9
F0.46937640291399629
aF1.7486125164500084
aF1.7018189834949218
aF3.2433704600039093
aF1.2284490886060064
aF-0.9700964892475723
asS'accel_x'
p10
F0
sS'accel_y'
p11
F0
sS'visionAngle'
p12
I150
sS'maxAccel'
p13
I2
sS'maxVel'
p14
F0.5
sS'age'
p15
I0
sS'lastScale'
p16
F5.5
sS'maxSteering'
p17
I30
sS'energy'
p18
F0.5
sb.(i__main__
Data_mobile
p1
(dp2
S'vel_y'
p3
F-0.40644525790872799
sS'vel_x'
p4
F-0.28473938937882837
sS'pos_x'
p5
F64.201546120295617
sS'pos_y'
p6
F90.957360861258508
sS'isAlive'
p7
I01
sS'geno'
p8
(lp9
F0.04429313800161172
aF1.7513060499278641
aF2.2768141457801847
aF3.0280657196514706
aF0.89498168191794103
aF-0.89503933584681195
asS'accel_x'
p10
F0
sS'accel_y'
p11
F0
sS'visionAngle'
p12
I150
sS'maxAccel'
p13
I2
sS'maxVel'
p14
F0.5
sS'age'
p15
I0
sS'lastScale'
p16
F5.5
sS'maxSteering'
p17
I30
sS'energy'
p18
F0.5
sb.(i__main__
Data_mobile
p1
(dp2
S'vel_y'
p3
F-0.038975946179222135
sS'vel_x'
p4
F-0.49847856084232384
sS'pos_x'
p5
F44.418486196385558
sS'pos_y'
p6
F25.159601872395683
sS'isAlive'
p7
I01
sS'geno'
p8
(lp9
F0.029314755553626504
aF2.0713680453525405
aF2.7079493554888341
aF3.123875681651187
aF1.1358842584962072
aF-0.9700964892475723
asS'accel_x'
p10
F-1.9766293556133259
sS'accel_y'
p11
F-0.30485470396182118
sS'visionAngle'
p12
I150
sS'maxAccel'
p13
I2
sS'maxVel'
p14
F0.5
sS'age'
p15
I100
sS'lastScale'
p16
F14.507411719020674
sS'maxSteering'
p17
I30
sS'energy'
p18
F0.90074117190206726
sb.(i__main__
Data_mobile
p1
(dp2
S'vel_y'
p3
F-0.49375430589061997
sS'vel_x'
p4
F-0.050610489180811624
sS'pos_x'
p5
F116.99977655260977
sS'pos_y'
p6
F-23.415947464423461
sS'isAlive'
p7
I01
sS'geno'
p8
(lp9
F0.04429313800161172
aF0.4985175539538883
aF1.7018189834949218
aF2.938227042059784
aF-0.64156481702307655
aF-0.55065696045741952
asS'accel_x'
p10
F0
sS'accel_y'
p11
F0
sS'visionAngle'
p12
I150
sS'maxAccel'
p13
I2
sS'maxVel'
p14
F0.5
sS'age'
p15
I0
sS'lastScale'
p16
F5.5
sS'maxSteering'
p17
I30
sS'energy'
p18
F0.5
sb.(i__main__
Data_mobile
p1
(dp2
S'vel_y'
p3
F0.47501519734684378
sS'vel_x'
p4
F0.034328185118156454
sS'pos_x'
p5
F79.48083157693867
sS'pos_y'
p6
F88.685701451949143
sS'isAlive'
p7
I01
sS'geno'
p8
(lp9
F0.54625102903210387
aF1.7486125164500084
aF1.7018189834949218
aF2.938227042059784
aF-0.64156481702307655
aF-0.55065696045741952
asS'accel_x'
p10
F0
sS'accel_y'
p11
F0
sS'visionAngle'
p12
I150
sS'maxAccel'
p13
I2
sS'maxVel'
p14
F0.5
sS'age'
p15
I0
sS'lastScale'
p16
F5.5
sS'maxSteering'
p17
I30
sS'energy'
p18
F0.5
sb.(i__main__
Data_mobile
p1
(dp2
S'vel_y'
p3
F0.25787512801350815
sS'vel_x'
p4
F0.42830232152962067
sS'pos_x'
p5
F-167.33845366062974
sS'pos_y'
p6
F11.734980494143255
sS'isAlive'
p7
I01
sS'geno'
p8
(lp9
F0.04429313800161172
aF1.7486125164500084
aF1.8401045476875373
aF3.1395019360115217
aF1.1358842584962072
aF-0.9700964892475723
asS'accel_x'
p10
F0
sS'accel_y'
p11
F0
sS'visionAngle'
p12
I150
sS'maxAccel'
p13
I2
sS'maxVel'
p14
F0.5
sS'age'
p15
I0
sS'lastScale'
p16
F5.5
sS'maxSteering'
p17
I30
sS'energy'
p18
F0.5
sb.(i__main__
Data_mobile
p1
(dp2
S'vel_y'
p3
F-0.24377589684313397
sS'vel_x'
p4
F0.43654703311135423
sS'pos_x'
p5
F-161.57499792355537
sS'pos_y'
p6
F30.819880832269085
sS'isAlive'
p7
I01
sS'geno'
p8
(lp9
F-0.11898902335260908
aF1.4147320303399193
aF1.6092285324644973
aF3.1395019360115217
aF1.6977360883126664
aF-0.7429867314273878
asS'accel_x'
p10
F-1.8773246228129636
sS'accel_y'
p11
F0.68967547482867919
sS'visionAngle'
p12
I150
sS'maxAccel'
p13
I2
sS'maxVel'
p14
F0.5
sS'age'
p15
I50
sS'lastScale'
p16
F15.398593637295674
sS'maxSteering'
p17
I30
sS'energy'
p18
F0.98985936372956751
sb.(i__main__
Data_mobile
p1
(dp2
S'vel_y'
p3
F-0.090203722929703328
sS'vel_x'
p4
F-0.49179598246592182
sS'pos_x'
p5
F-175.15694977868
sS'pos_y'
p6
F-96.329249395813818
sS'isAlive'
p7
I01
sS'geno'
p8
(lp9
F-0.0066711581184371038
aF1.8209623709770955
aF2.2768141457801847
aF2.938227042059784
aF1.2284490886060064
aF-0.43916193048426821
asS'accel_x'
p10
F-1.9592682017010261
sS'accel_y'
p11
F-0.40158201379447622
sS'visionAngle'
p12
I150
sS'maxAccel'
p13
I2
sS'maxVel'
p14
F0.5
sS'age'
p15
I100
sS'lastScale'
p16
F10.940590704176307
sS'maxSteering'
p17
I30
sS'energy'
p18
F0.54405907041763057
sb.(i__main__
Data_mobile
p1
(dp2
S'vel_y'
p3
F-0.36202488621060841
sS'vel_x'
p4
F0.15589941192264467
sS'pos_x'
p5
F-83.796467591357256
sS'pos_y'
p6
F34.997331716445231
sS'isAlive'
p7
I01
sS'geno'
p8
(lp9
F0.31617463357181697
aF1.8556014914205696
aF1.7018189834949218
aF2.7907406995006991
aF0.83526234670780941
aF-0.9700964892475723
asS'accel_x'
p10
F0
sS'accel_y'
p11
F0
sS'visionAngle'
p12
I150
sS'maxAccel'
p13
I2
sS'maxVel'
p14
F0.5
sS'age'
p15
I0
sS'lastScale'
p16
F5.5
sS'maxSteering'
p17
I30
sS'energy'
p18
F0.5
sb.(i__main__
Data_mobile
p1
(dp2
S'vel_y'
p3
F-0.2040035889055794
sS'vel_x'
p4
F-0.45648935991284983
sS'pos_x'
p5
F-178.72264937032492
sS'pos_y'
p6
F-93.192531640719167
sS'isAlive'
p7
I01
sS'geno'
p8
(lp9
F0.04429313800161172
aF2.0346999358682551
aF1.7018189834949218
aF2.8617236595491233
aF1.1358842584962072
aF-0.7429867314273878
asS'accel_x'
p10
F-1.9270897396316833
sS'accel_y'
p11
F-0.53509357630819232
sS'visionAngle'
p12
I150
sS'maxAccel'
p13
I2
sS'maxVel'
p14
F0.5
sS'age'
p15
I150
sS'lastScale'
p16
F6.156336595142756
sS'maxSteering'
p17
I30
sS'energy'
p18
F0.06563365951427555
sb.(i__main__
Data_mobile
p1
(dp2
S'vel_y'
p3
F0.47199105040734657
sS'vel_x'
p4
F0.16499832828053046
sS'pos_x'
p5
F139.37187533624868
sS'pos_y'
p6
F3.0375013669066511
sS'isAlive'
p7
I01
sS'geno'
p8
(lp9
F0.029314755553626504
aF1.5978095842242115
aF1.6092285324644973
aF3.1395019360115217
aF0.87907700383881437
aF-0.9244109322704348
asS'accel_x'
p10
F-0.60797142422049499
sS'accel_y'
p11
F1.9053531817831841
sS'visionAngle'
p12
I150
sS'maxAccel'
p13
I2
sS'maxVel'
p14
F0.5
sS'age'
p15
I100
sS'lastScale'
p16
F15.352082128537274
sS'maxSteering'
p17
I30
sS'energy'
p18
F0.98520821285372739
sb.(i__main__
Data_mobile
p1
(dp2
S'vel_y'
p3
F-0.24786896337853981
sS'vel_x'
p4
F-0.43423608439839279
sS'pos_x'
p5
F-68.15697997752406
sS'pos_y'
p6
F46.1909299554424
sS'isAlive'
p7
I01
sS'geno'
p8
(lp9
F0.029314755553626504
aF2.0713680453525405
aF2.7079493554888341
aF3.123875681651187
aF1.1358842584962072
aF-0.9700964892475723
asS'accel_x'
p10
F-1.5655261884942457
sS'accel_y'
p11
F-1.2446396077333708
sS'visionAngle'
p12
I150
sS'maxAccel'
p13
I2
sS'maxVel'
p14
F0.5
sS'age'
p15
I100
sS'lastScale'
p16
F12.406863948293056
sS'maxSteering'
p17
I30
sS'energy'
p18
F0.69068639482930561
sb.(i__main__
Data_mobile
p1
(dp2
S'vel_y'
p3
F-0.036879617803212299
sS'vel_x'
p4
F-0.49863803885252178
sS'pos_x'
p5
F-162.46133295689506
sS'pos_y'
p6
F58.794671564851292
sS'isAlive'
p7
I01
sS'geno'
p8
(lp9
F0.04429313800161172
aF1.7486125164500084
aF1.7018189834949218
aF3.1395019360115217
aF1.1358842584962072
aF-0.9700964892475723
asS'accel_x'
p10
F-1.9843766860739083
sS'accel_y'
p11
F-0.2494978311856299
sS'visionAngle'
p12
I150
sS'maxAccel'
p13
I2
sS'maxVel'
p14
F0.5
sS'age'
p15
I50
sS'lastScale'
p16
F9.4825676022439964
sS'maxSteering'
p17
I30
sS'energy'
p18
F0.39825676022439954
sb.(i__main__
Data_mobile
p1
(dp2
S'vel_y'
p3
F0.17019459329034997
sS'vel_x'
p4
F-0.17239341280371853
sS'pos_x'
p5
F-131.65921834868362
sS'pos_y'
p6
F18.469407828318481
sS'isAlive'
p7
I01
sS'geno'
p8
(lp9
F-0.0066711581184371038
aF1.4197241803935361
aF1.7018189834949218
aF2.938227042059784
aF1.2284490886060064
aF-0.7429867314273878
asS'accel_x'
p10
F0
sS'accel_y'
p11
F0
sS'visionAngle'
p12
I150
sS'maxAccel'
p13
I2
sS'maxVel'
p14
F0.5
sS'age'
p15
I0
sS'lastScale'
p16
F5.5
sS'maxSteering'
p17
I30
sS'energy'
p18
F0.5
sb.(i__main__
Data_mobile
p1
(dp2
S'vel_y'
p3
F-0.43343788552195961
sS'vel_x'
p4
F0.24926210982468358
sS'pos_x'
p5
F68.534479624547529
sS'pos_y'
p6
F-29.28053436284414
sS'isAlive'
p7
I01
sS'geno'
p8
(lp9
F-0.0066711581184371038
aF2.0197145335612277
aF2.2768141457801847
aF2.938227042059784
aF1.2284490886060064
aF-0.7429867314273878
asS'accel_x'
p10
F1.1548535227756613
sS'accel_y'
p11
F-1.6328849748015459
sS'visionAngle'
p12
I150
sS'maxAccel'
p13
I2
sS'maxVel'
p14
F0.5
sS'age'
p15
I50
sS'lastScale'
p16
F6.1256984688591327
sS'maxSteering'
p17
I30
sS'energy'
p18
F0.062569846885913244
sb.(i__main__
Data_mobile
p1
(dp2
S'vel_y'
p3
F-0.17106781967902818
sS'vel_x'
p4
F-0.22428511014231167
sS'pos_x'
p5
F-43.244233641769512
sS'pos_y'
p6
F49.700250494402653
sS'isAlive'
p7
I01
sS'geno'
p8
(lp9
F0.27872793454881017
aF1.7486125164500084
aF1.6092285324644973
aF3.1395019360115217
aF1.153470222127126
aF-1.3832636389047988
asS'accel_x'
p10
F0
sS'accel_y'
p11
F0
sS'visionAngle'
p12
I150
sS'maxAccel'
p13
I2
sS'maxVel'
p14
F0.5
sS'age'
p15
I0
sS'lastScale'
p16
F5.5
sS'maxSteering'
p17
I30
sS'energy'
p18
F0.5
sb.(i__main__
Data_mobile
p1
(dp2
S'vel_y'
p3
F-0.052758815367219922
sS'vel_x'
p4
F-0.0030044380874971128
sS'pos_x'
p5
F-163.97191608835567
sS'pos_y'
p6
F-41.681767523552971
sS'isAlive'
p7
I01
sS'geno'
p8
(lp9
F-0.0066711581184371038
aF0.39559205523910357
aF1.7018189834949218
aF2.899016688010998
aF1.153470222127126
aF-1.0423208488884164
asS'accel_x'
p10
F0
sS'accel_y'
p11
F0
sS'visionAngle'
p12
I150
sS'maxAccel'
p13
I2
sS'maxVel'
p14
F0.5
sS'age'
p15
I0
sS'lastScale'
p16
F5.5
sS'maxSteering'
p17
I30
sS'energy'
p18
F0.5
sb.(i__main__
Data_mobile
p1
(dp2
S'vel_y'
p3
F-0.058724970205053524
sS'vel_x'
p4
F0.24894496643187031
sS'pos_x'
p5
F158.09770766130029
sS'pos_y'
p6
F-66.597894559142262
sS'isAlive'
p7
I01
sS'geno'
p8
(lp9
F0.04429313800161172
aF1.8929359614115664
aF1.7018189834949218
aF3.1395019360115217
aF1.1358842584962072
aF-0.9700964892475723
asS'accel_x'
p10
F-0.037964428388084226
sS'accel_y'
p11
F0.43963074094389909
sS'visionAngle'
p12
I150
sS'maxAccel'
p13
I2
sS'maxVel'
p14
F0.5
sS'age'
p15
I50
sS'lastScale'
p16
F14.389403332422825
sS'maxSteering'
p17
I30
sS'energy'
p18
F0.8889403332422825
sb.(i__main__
Data_mobile
p1
(dp2
S'vel_y'
p3
F-0.18859486758097563
sS'vel_x'
p4
F-0.46306800356115546
sS'pos_x'
p5
F-144.52629440845101
sS'pos_y'
p6
F-61.696588552355621
sS'isAlive'
p7
I01
sS'geno'
p8
(lp9
F1.1601706361963411
aF0.39559205523910357
aF1.7018189834949218
aF3.1395019360115217
aF1.3539858697197227
aF-0.7429867314273878
asS'accel_x'
p10
F-0.74292540280772301
sS'accel_y'
p11
F-0.009546147921319862
sS'visionAngle'
p12
I150
sS'maxAccel'
p13
I2
sS'maxVel'
p14
F0.5
sS'age'
p15
I50
sS'lastScale'
p16
F5.5
sS'maxSteering'
p17
I30
sS'energy'
p18
I0
sb.(i__main__
Data_mobile
p1
(dp2
S'vel_y'
p3
F0.49802465507981986
sS'vel_x'
p4
F0.044400933916151152
sS'pos_x'
p5
F137.32530884497493
sS'pos_y'
p6
F89.591159585606732
sS'isAlive'
p7
I01
sS'geno'
p8
(lp9
F0.054925184402453198
aF0.39559205523910357
aF2.7079493554888341
aF3.123875681651187
aF1.1358842584962072
aF-0.9700964892475723
asS'accel_x'
p10
F0.85685731508997898
sS'accel_y'
p11
F-0.93930744523669274
sS'visionAngle'
p12
I150
sS'maxAccel'
p13
I2
sS'maxVel'
p14
F0.5
sS'age'
p15
I50
sS'lastScale'
p16
F14.98739149576811
sS'maxSteering'
p17
I30
sS'energy'
p18
F0.94873914957681094
sb.(i__main__
Data_mobile
p1
(dp2
S'vel_y'
p3
F-0.31354088984859035
sS'vel_x'
p4
F-0.37906144142066872
sS'pos_x'
p5
F22.321673826459495
sS'pos_y'
p6
F41.10267575228594
sS'isAlive'
p7
I01
sS'geno'
p8
(lp9
F0.12509887997052982
aF1.7486125164500084
aF1.7018189834949218
aF3.1463491421861116
aF1.153470222127126
aF-0.97354088441276487
asS'accel_x'
p10
F0
sS'accel_y'
p11
F0
sS'visionAngle'
p12
I150
sS'maxAccel'
p13
I2
sS'maxVel'
p14
F0.5
sS'age'
p15
I0
sS'lastScale'
p16
F5.5
sS'maxSteering'
p17
I30
sS'energy'
p18
F0.5
sb.(i__main__
Data_mobile
p1
(dp2
S'vel_y'
p3
F0.43359340327434837
sS'vel_x'
p4
F-0.18277178085645324
sS'pos_x'
p5
F-52.287640355175171
sS'pos_y'
p6
F81.991838068990631
sS'isAlive'
p7
I01
sS'geno'
p8
(lp9
F-0.0066711581184371038
aF1.7486125164500084
aF1.6092285324644973
aF3.1395019360115217
aF1.153470222127126
aF-1.3832636389047988
asS'accel_x'
p10
F0
sS'accel_y'
p11
F0
sS'visionAngle'
p12
I150
sS'maxAccel'
p13
I2
sS'maxVel'
p14
F0.5
sS'age'
p15
I0
sS'lastScale'
p16
F5.5
sS'maxSteering'
p17
I30
sS'energy'
p18
F0.5
sb.(i__main__
Data_mobile
p1
(dp2
S'vel_y'
p3
F-0.47819478366723916
sS'vel_x'
p4
F-0.14604707759295404
sS'pos_x'
p5
F39.413998903477399
sS'pos_y'
p6
F53.481310405590278
sS'isAlive'
p7
I01
sS'geno'
p8
(lp9
F0.054925184402453198
aF0.39559205523910357
aF1.7018189834949218
aF2.938227042059784
aF-0.64156481702307655
aF-0.55065696045741952
asS'accel_x'
p10
F-1.0122169602779896
sS'accel_y'
p11
F-0.90770321492201689
sS'visionAngle'
p12
I150
sS'maxAccel'
p13
I2
sS'maxVel'
p14
F0.5
sS'age'
p15
I200
sS'lastScale'
p16
F12.300839353209383
sS'maxSteering'
p17
I30
sS'energy'
p18
F0.68008393532093836
sb.(i__main__
Data_mobile
p1
(dp2
S'vel_y'
p3
F-0.26557285506955131
sS'vel_x'
p4
F0.4236402467308874
sS'pos_x'
p5
F-131.23017007406787
sS'pos_y'
p6
F38.446517319138593
sS'isAlive'
p7
I01
sS'geno'
p8
(lp9
F-0.0066711581184371038
aF1.5714451130334457
aF1.7018189834949218
aF2.938227042059784
aF-0.64156481702307655
aF-0.55065696045741952
asS'accel_x'
p10
F-0.63537130231284522
sS'accel_y'
p11
F1.8963921820650069
sS'visionAngle'
p12
I150
sS'maxAccel'
p13
I2
sS'maxVel'
p14
F0.5
sS'age'
p15
I500
sS'lastScale'
p16
F11.700000000000102
sS'maxSteering'
p17
I30
sS'energy'
p18
F0.62000000000001043
sb.(i__main__
Data_mobile
p1
(dp2
S'vel_y'
p3
F-0.25880255075800529
sS'vel_x'
p4
F0.42780981723325395
sS'pos_x'
p5
F-119.71780293243057
sS'pos_y'
p6
F-99.41220478225253
sS'isAlive'
p7
I01
sS'geno'
p8
(lp9
F-0.11898902335260908
aF1.4147320303399193
aF1.2988869735086583
aF2.7907406995006991
aF1.2284490886060064
aF-0.9700964892475723
asS'accel_x'
p10
F-1.6784600413409139
sS'accel_y'
p11
F0.18439686447434067
sS'visionAngle'
p12
I150
sS'maxAccel'
p13
I2
sS'maxVel'
p14
F0.5
sS'age'
p15
I100
sS'lastScale'
p16
F12.887645723806727
sS'maxSteering'
p17
I30
sS'energy'
p18
F0.63876457238067275
sb.(i__main__
Data_mobile
p1
(dp2
S'vel_y'
p3
F-0.36589184075018016
sS'vel_x'
p4
F-0.3407684857384039
sS'pos_x'
p5
F-174.08936010363368
sS'pos_y'
p6
F56.155847092841462
sS'isAlive'
p7
I01
sS'geno'
p8
(lp9
F0.49125112379630886
aF1.7513060499278641
aF2.2768141457801847
aF3.0280657196514706
aF0.89498168191794103
aF-0.89503933584681195
asS'accel_x'
p10
F-1.944414398046544
sS'accel_y'
p11
F-0.4682442190452491
sS'visionAngle'
p12
I150
sS'maxAccel'
p13
I2
sS'maxVel'
p14
F0.5
sS'age'
p15
I150
sS'lastScale'
p16
F12.043953741599346
sS'maxSteering'
p17
I30
sS'energy'
p18
F0.65439537415993454
sb.(i__main__
Data_mobile
p1
(dp2
S'vel_y'
p3
F-0.43262483269695196
sS'vel_x'
p4
F-0.24935633571018909
sS'pos_x'
p5
F154.11200691193963
sS'pos_y'
p6
F87.885006606940223
sS'isAlive'
p7
I01
sS'geno'
p8
(lp9
F-0.0066711581184371038
aF1.5714451130334457
aF2.2768141457801847
aF2.938227042059784
aF1.2284490886060064
aF-0.9700964892475723
asS'accel_x'
p10
F0
sS'accel_y'
p11
F0
sS'visionAngle'
p12
I150
sS'maxAccel'
p13
I2
sS'maxVel'
p14
F0.5
sS'age'
p15
I0
sS'lastScale'
p16
F5.5
sS'maxSteering'
p17
I30
sS'energy'
p18
F0.5
sb.(i__main__
Data_mobile
p1
(dp2
S'vel_y'
p3
F-0.42235367200059348
sS'vel_x'
p4
F-0.26761422934443369
sS'pos_x'
p5
F29.871945838200592
sS'pos_y'
p6
F50.780208888551492
sS'isAlive'
p7
I01
sS'geno'
p8
(lp9
F0.04429313800161172
aF1.7486125164500084
aF1.7018189834949218
aF2.938227042059784
aF1.2284490886060064
aF-0.9700964892475723
asS'accel_x'
p10
F-1.2671598009464029
sS'accel_y'
p11
F-1.5473545291449766
sS'visionAngle'
p12
I150
sS'maxAccel'
p13
I2
sS'maxVel'
p14
F0.5
sS'age'
p15
I400
sS'lastScale'
p16
F5.5051956509956943
sS'maxSteering'
p17
I30
sS'energy'
p18
F0.00051956509956936972
sb.(i__main__
Data_mobile
p1
(dp2
S'vel_y'
p3
F-0.20657515752941913
sS'vel_x'
p4
F0.19088923517782094
sS'pos_x'
p5
F29.709501374794051
sS'pos_y'
p6
F70.156791650334682
sS'isAlive'
p7
I01
sS'geno'
p8
(lp9
F0.054925184402453198
aF1.2620220517639762
aF1.7018189834949218
aF2.938227042059784
aF-0.64156481702307655
aF-0.55065696045741952
asS'accel_x'
p10
F0
sS'accel_y'
p11
F0
sS'visionAngle'
p12
I150
sS'maxAccel'
p13
I2
sS'maxVel'
p14
F0.5
sS'age'
p15
I0
sS'lastScale'
p16
F5.5
sS'maxSteering'
p17
I30
sS'energy'
p18
F0.5
sb.(i__main__
Data_mobile
p1
(dp2
S'vel_y'
p3
F0.23993766473834793
sS'vel_x'
p4
F-0.43866834515372566
sS'pos_x'
p5
F-171.14181394315887
sS'pos_y'
p6
F57.714667704615955
sS'isAlive'
p7
I01
sS'geno'
p8
(lp9
F1.1601706361963411
aF0.39559205523910357
aF2.2768141457801847
aF2.938227042059784
aF1.2284490886060064
aF-0.9700964892475723
asS'accel_x'
p10
F-0.37227199997897598
sS'accel_y'
p11
F1.3431773228395438
sS'visionAngle'
p12
I150
sS'maxAccel'
p13
I2
sS'maxVel'
p14
F0.5
sS'age'
p15
I50
sS'lastScale'
p16
F14.691415745034313
sS'maxSteering'
p17
I30
sS'energy'
p18
F0.91914157450343126
sb.(i__main__
Data_mobile
p1
(dp2
S'vel_y'
p3
F-0.17672859530943363
sS'vel_x'
p4
F-0.28849859743911732
sS'pos_x'
p5
F-157.13429755394711
sS'pos_y'
p6
F56.076303735893191
sS'isAlive'
p7
I01
sS'geno'
p8
(lp9
F0.54625102903210387
aF1.7486125164500084
aF1.6092285324644973
aF3.6203378402839155
aF1.153470222127126
aF-1.3832636389047988
asS'accel_x'
p10
F0
sS'accel_y'
p11
F0
sS'visionAngle'
p12
I150
sS'maxAccel'
p13
I2
sS'maxVel'
p14
F0.5
sS'age'
p15
I0
sS'lastScale'
p16
F5.5
sS'maxSteering'
p17
I30
sS'energy'
p18
F0.5
sb.(i__main__
Data_mobile
p1
(dp2
S'vel_y'
p3
F-0.48929513241897943
sS'vel_x'
p4
F-0.1029090539801692
sS'pos_x'
p5
F181.50087906585406
sS'pos_y'
p6
F100.95137961220442
sS'isAlive'
p7
I01
sS'geno'
p8
(lp9
F0.04429313800161172
aF1.7486125164500084
aF1.7018189834949218
aF2.938227042059784
aF1.2284490886060064
aF-0.9700964892475723
asS'accel_x'
p10
F-0.45141064467833392
sS'accel_y'
p11
F-1.9483912414787463
sS'visionAngle'
p12
I150
sS'maxAccel'
p13
I2
sS'maxVel'
p14
F0.5
sS'age'
p15
I50
sS'lastScale'
p16
F13.58594787593111
sS'maxSteering'
p17
I30
sS'energy'
p18
F0.80859478759311088
sb.(i__main__
Data_mobile
p1
(dp2
S'vel_y'
p3
F-0.41446525207358803
sS'vel_x'
p4
F0.27967580307130113
sS'pos_x'
p5
F-172.70448876470275
sS'pos_y'
p6
F5.5024217987103867
sS'isAlive'
p7
I01
sS'geno'
p8
(lp9
F0.029314755553626504
aF1.5714451130334457
aF1.7018189834949218
aF3.1395019360115217
aF1.2284490886060064
aF-0.7429867314273878
asS'accel_x'
p10
F-0.21861894137531263
sS'accel_y'
p11
F-0.19392118011407355
sS'visionAngle'
p12
I150
sS'maxAccel'
p13
I2
sS'maxVel'
p14
F0.5
sS'age'
p15
I50
sS'lastScale'
p16
F15.398593637295674
sS'maxSteering'
p17
I30
sS'energy'
p18
F0.98985936372956751
sb.(i__main__
Data_mobile
p1
(dp2
S'vel_y'
p3
F-0.43951994579956288
sS'vel_x'
p4
F-0.23837411194244512
sS'pos_x'
p5
F170.9599001010229
sS'pos_y'
p6
F-0.94026969766378365
sS'isAlive'
p7
I01
sS'geno'
p8
(lp9
F-0.0066711581184371038
aF1.5714451130334457
aF1.7018189834949218
aF3.1395019360115217
aF1.1358842584962072
aF-0.9700964892475723
asS'accel_x'
p10
F-1.1638958891094886
sS'accel_y'
p11
F-1.6264520771649045
sS'visionAngle'
p12
I150
sS'maxAccel'
p13
I2
sS'maxVel'
p14
F0.5
sS'age'
p15
I50
sS'lastScale'
p16
F10.482567602243996
sS'maxSteering'
p17
I30
sS'energy'
p18
F0.49825676022439963
sb.(i__main__
Data_mobile
p1
(dp2
S'vel_y'
p3
F-0.49959438904104475
sS'vel_x'
p4
F0.020135700601302459
sS'pos_x'
p5
F-165.44647758409104
sS'pos_y'
p6
F59.211949847095319
sS'isAlive'
p7
I01
sS'geno'
p8
(lp9
F0.46937640291399629
aF1.4147320303399193
aF1.2988869735086583
aF3.0162510942025467
aF1.2284490886060064
aF-0.7429867314273878
asS'accel_x'
p10
F1.9994666434925481
sS'accel_y'
p11
F-0.04618594548824316
sS'visionAngle'
p12
I150
sS'maxAccel'
p13
I2
sS'maxVel'
p14
F0.5
sS'age'
p15
I100
sS'lastScale'
p16
F13.913942629669078
sS'maxSteering'
p17
I30
sS'energy'
p18
F0.84139426296690778
sb.(i__main__
Data_mobile
p1
(dp2
S'vel_y'
p3
F-0.49968754266504645
sS'vel_x'
p4
F-0.017673700952755462
sS'pos_x'
p5
F-121.07368952239848
sS'pos_y'
p6
F-106.40965326360603
sS'isAlive'
p7
I01
sS'geno'
p8
(lp9
F0.029314755553626504
aF1.8929359614115664
aF1.2637475980017658
aF3.1395019360115217
aF1.1358842584962072
aF-0.9700964892475723
asS'accel_x'
p10
F-0.29442549748744656
sS'accel_y'
p11
F-1.9782097023392817
sS'visionAngle'
p12
I150
sS'maxAccel'
p13
I2
sS'maxVel'
p14
F0.5
sS'age'
p15
I50
sS'lastScale'
p16
F7.2802758718598195
sS'maxSteering'
p17
I30
sS'energy'
p18
F0.16789804991067508
sb.(i__main__
Data_mobile
p1
(dp2
S'vel_y'
p3
F0.11842883386574349
sS'vel_x'
p4
F-0.4857721804603472
sS'pos_x'
p5
F-19.138637269770957
sS'pos_y'
p6
F-61.375517192407962
sS'isAlive'
p7
I01
sS'geno'
p8
(lp9
F0.04429313800161172
aF1.7486125164500084
aF1.7018189834949218
aF2.938227042059784
aF0.83549231333494289
aF-0.9700964892475723
asS'accel_x'
p10
F0.92033421310821928
sS'accel_y'
p11
F0.27975522265385322
sS'visionAngle'
p12
I150
sS'maxAccel'
p13
I2
sS'maxVel'
p14
F0.5
sS'age'
p15
I50
sS'lastScale'
p16
F12.482567602243996
sS'maxSteering'
p17
I30
sS'energy'
p18
F0.69825676022439975
sb.(i__main__
Data_mobile
p1
(dp2
S'vel_y'
p3
F0.083026934802413868
sS'vel_x'
p4
F-0.49305834147422728
sS'pos_x'
p5
F27.702638814481858
sS'pos_y'
p6
F-46.619189328858766
sS'isAlive'
p7
I01
sS'geno'
p8
(lp9
F0.49125112379630886
aF1.5714451130334457
aF1.5238495501109419
aF3.0280657196514706
aF0.89498168191794103
aF-0.89503933584681195
asS'accel_x'
p10
F-0.51870012339367588
sS'accel_y'
p11
F-0.72941455613696637
sS'visionAngle'
p12
I150
sS'maxAccel'
p13
I2
sS'maxVel'
p14
F0.5
sS'age'
p15
I50
sS'lastScale'
p16
F14.188314199552094
sS'maxSteering'
p17
I30
sS'energy'
p18
F0.86883141995520952
sb.(i__main__
Data_mobile
p1
(dp2
S'vel_y'
p3
F0.044808785989334354
sS'vel_x'
p4
F0.49798812505737738
sS'pos_x'
p5
F188.04646643063427
sS'pos_y'
p6
F52.47500365979603
sS'isAlive'
p7
I01
sS'geno'
p8
(lp9
F0.12509887997052982
aF1.4147320303399193
aF1.2988869735086583
aF2.938227042059784
aF1.2284490886060064
aF-0.7429867314273878
asS'accel_x'
p10
F1.3901381362192331
sS'accel_y'
p11
F-1.437885935054974
sS'visionAngle'
p12
I150
sS'maxAccel'
p13
I2
sS'maxVel'
p14
F0.5
sS'age'
p15
I200
sS'lastScale'
p16
F15.30002611903191
sS'maxSteering'
p17
I30
sS'energy'
p18
F0.98000261190319093
sb.(i__main__
Data_mobile
p1
(dp2
S'vel_y'
p3
F0.11691296659115841
sS'vel_x'
p4
F-0.28346478152338389
sS'pos_x'
p5
F-120.46068774509305
sS'pos_y'
p6
F60.507577222117462
sS'isAlive'
p7
I01
sS'geno'
p8
(lp9
F0.04429313800161172
aF1.7486125164500084
aF1.7018189834949218
aF3.1395019360115217
aF1.1358842584962072
aF-0.9700964892475723
asS'accel_x'
p10
F0
sS'accel_y'
p11
F0
sS'visionAngle'
p12
I150
sS'maxAccel'
p13
I2
sS'maxVel'
p14
F0.5
sS'age'
p15
I0
sS'lastScale'
p16
F5.5
sS'maxSteering'
p17
I30
sS'energy'
p18
F0.5
sb.(i__main__
Data_mobile
p1
(dp2
S'vel_y'
p3
F-0.46862975249123329
sS'vel_x'
p4
F0.17431625018914743
sS'pos_x'
p5
F-193.91812732142691
sS'pos_y'
p6
F-92.735093130958617
sS'isAlive'
p7
I01
sS'geno'
p8
(lp9
F-0.0066711581184371038
aF1.5714451130334457
aF1.7018189834949218
aF3.0280657196514706
aF1.1358842584962072
aF-0.85834367202289574
asS'accel_x'
p10
F0.56675433055352742
sS'accel_y'
p11
F-1.9180170825096481
sS'visionAngle'
p12
I150
sS'maxAccel'
p13
I2
sS'maxVel'
p14
F0.5
sS'age'
p15
I250
sS'lastScale'
p16
F5.7006316015611151
sS'maxSteering'
p17
I30
sS'energy'
p18
F0.020063160156111565
sb.(i__main__
Data_mobile
p1
(dp2
S'vel_y'
p3
F-0.033086912249512129
sS'vel_x'
p4
F0.49890405514266278
sS'pos_x'
p5
F159.65498195815951
sS'pos_y'
p6
F-64.582746600265168
sS'isAlive'
p7
I01
sS'geno'
p8
(lp9
F0.27872793454881017
aF1.7486125164500084
aF1.7018189834949218
aF2.938227042059784
aF1.2284490886060064
aF-0.80589083979008003
asS'accel_x'
p10
F-0.98493540612482144
sS'accel_y'
p11
F-1.189167080419602
sS'visionAngle'
p12
I150
sS'maxAccel'
p13
I2
sS'maxVel'
p14
F0.5
sS'age'
p15
I50
sS'lastScale'
p16
F15.398593637295674
sS'maxSteering'
p17
I30
sS'energy'
p18
F0.98985936372956751
sb.(i__main__
Data_mobile
p1
(dp2
S'vel_y'
p3
F-0.49805432372622715
sS'vel_x'
p4
F0.044066887995528832
sS'pos_x'
p5
F-121.76044583922537
sS'pos_y'
p6
F-109.8467516859951
sS'isAlive'
p7
I01
sS'geno'
p8
(lp9
F0.44924477709278177
aF2.0346999358682551
aF1.7018189834949218
aF2.8617236595491233
aF1.0668135798616247
aF-0.7429867314273878
asS'accel_x'
p10
F-0.71466025035450931
sS'accel_y'
p11
F-1.86795629674873
sS'visionAngle'
p12
I150
sS'maxAccel'
p13
I2
sS'maxVel'
p14
F0.5
sS'age'
p15
I50
sS'lastScale'
p16
F8.4825676022439964
sS'maxSteering'
p17
I30
sS'energy'
p18
F0.29825676022439962
sb.(i__main__
Data_mobile
p1
(dp2
S'vel_y'
p3
F-0.38079965326687615
sS'vel_x'
p4
F-0.32402411032487527
sS'pos_x'
p5
F164.61272013759233
sS'pos_y'
p6
F-60.563774923432987
sS'isAlive'
p7
I01
sS'geno'
p8
(lp9
F0.46364156298137027
aF1.7486125164500084
aF2.2768141457801847
aF2.938227042059784
aF1.2284490886060064
aF-0.55065696045741952
asS'accel_x'
p10
F-1.0772246972195689
sS'accel_y'
p11
F-1.6851074006425255
sS'visionAngle'
p12
I150
sS'maxAccel'
p13
I2
sS'maxVel'
p14
F0.5
sS'age'
p15
I200
sS'lastScale'
p16
F7.9068116990075437
sS'maxSteering'
p17
I30
sS'energy'
p18
F0.24068116990075442
sb.(i__main__
Data_mobile
p1
(dp2
S'vel_y'
p3
F0.49294007487462449
sS'vel_x'
p4
F0.083726235927573778
sS'pos_x'
p5
F188.73261113296309
sS'pos_y'
p6
F53.032645133953473
sS'isAlive'
p7
I01
sS'geno'
p8
(lp9
F1.1601706361963411
aF0.39559205523910357
aF1.3943929293178772
aF2.938227042059784
aF0.97263191622646905
aF-0.9700964892475723
asS'accel_x'
p10
F0.87005797675169239
sS'accel_y'
p11
F-1.8008328953822315
sS'visionAngle'
p12
I150
sS'maxAccel'
p13
I2
sS'maxVel'
p14
F0.5
sS'age'
p15
I100
sS'lastScale'
p16
F15.352082128537274
sS'maxSteering'
p17
I30
sS'energy'
p18
F0.98520821285372739
sb.(i__main__
Data_mobile
p1
(dp2
S'vel_y'
p3
F-0.40414037181446805
sS'vel_x'
p4
F-0.292858841900969
sS'pos_x'
p5
F139.3875039138006
sS'pos_y'
p6
F75.333297587328858
sS'isAlive'
p7
I01
sS'geno'
p8
(lp9
F0.04429313800161172
aF1.7486125164500084
aF1.7018189834949218
aF2.7066257727513827
aF1.153470222127126
aF-1.3832636389047988
asS'accel_x'
p10
F0
sS'accel_y'
p11
F0
sS'visionAngle'
p12
I150
sS'maxAccel'
p13
I2
sS'maxVel'
p14
F0.5
sS'age'
p15
I0
sS'lastScale'
p16
F5.5
sS'maxSteering'
p17
I30
sS'energy'
p18
F0.5
sb.(i__main__
Data_mobile
p1
(dp2
S'vel_y'
p3
F0.424735657647973
sS'vel_x'
p4
F0.26381740109845669
sS'pos_x'
p5
F139.56207012355858
sS'pos_y'
p6
F3.8672081485907244
sS'isAlive'
p7
I01
sS'geno'
p8
(lp9
F0.38772032610152818
aF2.0713680453525405
aF2.7079493554888341
aF2.938227042059784
aF1.1358842584962072
aF-0.9700964892475723
asS'accel_x'
p10
F1.9836042205843682
sS'accel_y'
p11
F-0.25556661769464428
sS'visionAngle'
p12
I150
sS'maxAccel'
p13
I2
sS'maxVel'
p14
F0.5
sS'age'
p15
I100
sS'lastScale'
p16
F15.352082128537274
sS'maxSteering'
p17
I30
sS'energy'
p18
F0.98520821285372739
sb.(i__main__
Data_mobile
p1
(dp2
S'vel_y'
p3
F-0.46533643673279912
sS'vel_x'
p4
F-0.18292621640656551
sS'pos_x'
p5
F181.39243805152253
sS'pos_y'
p6
F3.1587191339104872
sS'isAlive'
p7
I01
sS'geno'
p8
(lp9
F0.46937640291399629
aF0.39559205523910357
aF1.7018189834949218
aF2.7907406995006991
aF1.2284490886060064
aF-0.94330982436572886
asS'accel_x'
p10
F-0.040091683200001393
sS'accel_y'
p11
F-1.2227057168720519
sS'visionAngle'
p12
I150
sS'maxAccel'
p13
I2
sS'maxVel'
p14
F0.5
sS'age'
p15
I150
sS'lastScale'
p16
F11.579273596930644
sS'maxSteering'
p17
I30
sS'energy'
p18
F0.60792735969306433
sb.(i__main__
Data_mobile
p1
(dp2
S'vel_y'
p3
F-0.28328655400245162
sS'vel_x'
p4
F-0.41200573821418562
sS'pos_x'
p5
F-188.64222384410593
sS'pos_y'
p6
F-61.591079741953557
sS'isAlive'
p7
I01
sS'geno'
p8
(lp9
F0.46937640291399629
aF1.4147320303399193
aF1.2988869735086583
aF3.1395019360115217
aF1.2284490886060064
aF-1.3832636389047988
asS'accel_x'
p10
F-0.40022960815280451
sS'accel_y'
p11
F-1.3240976381951588
sS'visionAngle'
p12
I150
sS'maxAccel'
p13
I2
sS'maxVel'
p14
F0.5
sS'age'
p15
I50
sS'lastScale'
p16
F5.5
sS'maxSteering'
p17
I30
sS'energy'
p18
I0
sb.(i__main__
Data_mobile
p1
(dp2
S'vel_y'
p3
F-0.20005226032822662
sS'vel_x'
p4
F0.16515584243310427
sS'pos_x'
p5
F-43.005265487836269
sS'pos_y'
p6
F55.829651645729683
sS'isAlive'
p7
I01
sS'geno'
p8
(lp9
F-0.0066711581184371038
aF0.39559205523910357
aF1.7018189834949218
aF2.7907406995006991
aF1.2284490886060064
aF-0.9700964892475723
asS'accel_x'
p10
F0
sS'accel_y'
p11
F0
sS'visionAngle'
p12
I150
sS'maxAccel'
p13
I2
sS'maxVel'
p14
F0.5
sS'age'
p15
I0
sS'lastScale'
p16
F5.5
sS'maxSteering'
p17
I30
sS'energy'
p18
F0.5
sb.(i__main__
Data_mobile
p1
(dp2
S'vel_y'
p3
F0.37286624067259183
sS'vel_x'
p4
F-0.33312274999868868
sS'pos_x'
p5
F-109.02235498564148
sS'pos_y'
p6
F79.670926070370697
sS'isAlive'
p7
I01
sS'geno'
p8
(lp9
F0.49125112379630886
aF1.7513060499278641
aF2.2768141457801847
aF2.938227042059784
aF0.86338563113202593
aF-0.9700964892475723
asS'accel_x'
p10
F-1.4239583033759384
sS'accel_y'
p11
F1.3059934749155895
sS'visionAngle'
p12
I150
sS'maxAccel'
p13
I2
sS'maxVel'
p14
F0.5
sS'age'
p15
I100
sS'lastScale'
p16
F12.551396430607571
sS'maxSteering'
p17
I30
sS'energy'
p18
F0.70513964306075716
sb.(i__main__
Data_mobile
p1
(dp2
S'vel_y'
p3
F-0.45948948071706969
sS'vel_x'
p4
F-0.19715328328576645
sS'pos_x'
p5
F-151.25722225622761
sS'pos_y'
p6
F-48.69287771712105
sS'isAlive'
p7
I01
sS'geno'
p8
(lp9
F0.27872793454881017
aF1.8929359614115664
aF1.7018189834949218
aF3.3718729408556989
aF1.2284490886060064
aF-0.9700964892475723
asS'accel_x'
p10
F-0.94079053209909191
sS'accel_y'
p11
F-0.2366439797737788
sS'visionAngle'
p12
I150
sS'maxAccel'
p13
I2
sS'maxVel'
p14
F0.5
sS'age'
p15
I50
sS'lastScale'
p16
F5.5
sS'maxSteering'
p17
I30
sS'energy'
p18
I0
sb.(i__main__
Data_mobile
p1
(dp2
S'vel_y'
p3
F0.19037798090515085
sS'vel_x'
p4
F-0.44788361733927506
sS'pos_x'
p5
F139.28471272413179
sS'pos_y'
p6
F68.917145393896007
sS'isAlive'
p7
I01
sS'geno'
p8
(lp9
F0.54625102903210387
aF1.7486125164500084
aF1.6092285324644973
aF3.1395019360115217
aF1.153470222127126
aF-1.3832636389047988
asS'accel_x'
p10
F0
sS'accel_y'
p11
F0
sS'visionAngle'
p12
I150
sS'maxAccel'
p13
I2
sS'maxVel'
p14
F0.5
sS'age'
p15
I0
sS'lastScale'
p16
F5.5
sS'maxSteering'
p17
I30
sS'energy'
p18
F0.5
sb.(i__main__
Data_mobile
p1
(dp2
S'vel_y'
p3
F-0.14830574305978955
sS'vel_x'
p4
F0.30172600362056284
sS'pos_x'
p5
F141.51138679645786
sS'pos_y'
p6
F3.0769417990134307
sS'isAlive'
p7
I01
sS'geno'
p8
(lp9
F1.1601706361963411
aF0.39559205523910357
aF1.7018189834949218
aF3.1395019360115217
aF1.2284490886060064
aF-0.7429867314273878
asS'accel_x'
p10
F-0.59028662305799595
sS'accel_y'
p11
F-0.45121057801866821
sS'visionAngle'
p12
I150
sS'maxAccel'
p13
I2
sS'maxVel'
p14
F0.5
sS'age'
p15
I100
sS'lastScale'
p16
F15.206239176858954
sS'maxSteering'
p17
I30
sS'energy'
p18
F0.9706239176858954
sb.(i__main__
Data_mobile
p1
(dp2
S'vel_y'
p3
F0.047296432324707288
sS'vel_x'
p4
F-0.018445471324357421
sS'pos_x'
p5
F36.307421362517019
sS'pos_y'
p6
F4.8413626275569897
sS'isAlive'
p7
I01
sS'geno'
p8
(lp9
F0.04429313800161172
aF1.7486125164500084
aF1.7018189834949218
aF3.1395019360115217
aF1.3591899588244154
aF-0.9700964892475723
asS'accel_x'
p10
F0
sS'accel_y'
p11
F0
sS'visionAngle'
p12
I150
sS'maxAccel'
p13
I2
sS'maxVel'
p14
F0.5
sS'age'
p15
I0
sS'lastScale'
p16
F5.5
sS'maxSteering'
p17
I30
sS'energy'
p18
F0.5
sb.(i__main__
Data_mobile
p1
(dp2
S'vel_y'
p3
F0.065476682969640432
sS'vel_x'
p4
F-0.4956942646302186
sS'pos_x'
p5
F33.367841315234202
sS'pos_y'
p6
F-48.844526147828383
sS'isAlive'
p7
I01
sS'geno'
p8
(lp9
F0.19757793221320863
aF0.39559205523910357
aF1.7018189834949218
aF2.938227042059784
aF1.2284490886060064
aF-0.9700964892475723
asS'accel_x'
p10
F-1.1521763623746459
sS'accel_y'
p11
F-1.6347751007356115
sS'visionAngle'
p12
I150
sS'maxAccel'
p13
I2
sS'maxVel'
p14
F0.5
sS'age'
p15
I50
sS'lastScale'
p16
F11.188314199552096
sS'maxSteering'
p17
I30
sS'energy'
p18
F0.46883141995520961
sb.(i__main__
Data_mobile
p1
(dp2
S'vel_y'
p3
F-0.11348356301991125
sS'vel_x'
p4
F-0.4869512100039447
sS'pos_x'
p5
F45.777469551562668
sS'pos_y'
p6
F22.979918121997283
sS'isAlive'
p7
I01
sS'geno'
p8
(lp9
F0.029314755553626504
aF2.0713680453525405
aF2.7079493554888341
aF3.123875681651187
aF1.1358842584962072
aF-0.9700964892475723
asS'accel_x'
p10
F-1.8814930602020932
sS'accel_y'
p11
F-0.67822110289444815
sS'visionAngle'
p12
I150
sS'maxAccel'
p13
I2
sS'maxVel'
p14
F0.5
sS'age'
p15
I100
sS'lastScale'
p16
F14.339924847830126
sS'maxSteering'
p17
I30
sS'energy'
p18
F0.87386294750770566
sb.(i__main__
Data_mobile
p1
(dp2
S'vel_y'
p3
F0.28992204312353032
sS'vel_x'
p4
F0.40736373048060848
sS'pos_x'
p5
F147.64603622907066
sS'pos_y'
p6
F-24.833673347772596
sS'isAlive'
p7
I01
sS'geno'
p8
(lp9
F0.46937640291399629
aF1.7486125164500084
aF1.7018189834949218
aF3.0280657196514706
aF1.2284490886060064
aF-0.9700964892475723
asS'accel_x'
p10
F-1.9656082870675959
sS'accel_y'
p11
F0.36930212808917251
sS'visionAngle'
p12
I150
sS'maxAccel'
p13
I2
sS'maxVel'
p14
F0.5
sS'age'
p15
I200
sS'lastScale'
p16
F15.30002611903191
sS'maxSteering'
p17
I30
sS'energy'
p18
F0.98000261190319093
sb.(i__main__
Data_mobile
p1
(dp2
S'vel_y'
p3
F-0.39555372257413302
sS'vel_x'
p4
F-0.305838605407731
sS'pos_x'
p5
F30.959837579867219
sS'pos_y'
p6
F43.132135181103465
sS'isAlive'
p7
I01
sS'geno'
p8
(lp9
F-0.11115303790883579
aF0.39559205523910357
aF1.7018189834949218
aF2.7907406995006991
aF1.2284490886060064
aF-0.9700964892475723
asS'accel_x'
p10
F-0.96740378946448158
sS'accel_y'
p11
F-1.0957833528926422
sS'visionAngle'
p12
I150
sS'maxAccel'
p13
I2
sS'maxVel'
p14
F0.5
sS'age'
p15
I50
sS'lastScale'
p16
F13.28513994596096
sS'maxSteering'
p17
I30
sS'energy'
p18
F0.77851399459609583
sb.(i__main__
Data_mobile
p1
(dp2
S'vel_y'
p3
F-0.34885576357759673
sS'vel_x'
p4
F0.3581894138841793
sS'pos_x'
p5
F64.925266144956836
sS'pos_y'
p6
F-34.580986775091183
sS'isAlive'
p7
I01
sS'geno'
p8
(lp9
F-0.0066711581184371038
aF1.5714451130334457
aF2.2768141457801847
aF2.938227042059784
aF1.2284490886060064
aF-0.9700964892475723
asS'accel_x'
p10
F1.5780739562322526
sS'accel_y'
p11
F-1.228691413114573
sS'visionAngle'
p12
I150
sS'maxAccel'
p13
I2
sS'maxVel'
p14
F0.5
sS'age'
p15
I50
sS'lastScale'
p16
F5.5
sS'maxSteering'
p17
I30
sS'energy'
p18
I0
sb.(i__main__
Data_mobile
p1
(dp2
S'vel_y'
p3
F-0.11030745756689334
sS'vel_x'
p4
F0.48768049459162088
sS'pos_x'
p5
F-130.7805338164419
sS'pos_y'
p6
F37.03170389644098
sS'isAlive'
p7
I01
sS'geno'
p8
(lp9
F-0.0066711581184371038
aF1.5714451130334457
aF2.2768141457801847
aF2.938227042059784
aF1.2284490886060064
aF-0.7429867314273878
asS'accel_x'
p10
F-0.18636129510391108
sS'accel_y'
p11
F-1.0766156761188945
sS'visionAngle'
p12
I150
sS'maxAccel'
p13
I2
sS'maxVel'
p14
F0.5
sS'age'
p15
I100
sS'lastScale'
p16
F15.352082128537274
sS'maxSteering'
p17
I30
sS'energy'
p18
F0.98520821285372739
sb.(i__main__
Data_mobile
p1
(dp2
S'vel_y'
p3
F0.41535772844736801
sS'vel_x'
p4
F-0.27834862568197188
sS'pos_x'
p5
F136.87327526192527
sS'pos_y'
p6
F91.601248483862562
sS'isAlive'
p7
I01
sS'geno'
p8
(lp9
F0.54625102903210387
aF1.7486125164500084
aF1.6092285324644973
aF3.1395019360115217
aF1.153470222127126
aF-1.3832636389047988
asS'accel_x'
p10
F0.4972775143810535
sS'accel_y'
p11
F0.38341242368012707
sS'visionAngle'
p12
I150
sS'maxAccel'
p13
I2
sS'maxVel'
p14
F0.5
sS'age'
p15
I250
sS'lastScale'
p16
F15.300000405049802
sS'maxSteering'
p17
I30
sS'energy'
p18
F0.98000004050498013
sb.(i__main__
Data_mobile
p1
(dp2
S'vel_y'
p3
F-0.35308861900134125
sS'vel_x'
p4
F-0.35401755201080864
sS'pos_x'
p5
F121.97111354002327
sS'pos_y'
p6
F24.918117225436585
sS'isAlive'
p7
I01
sS'geno'
p8
(lp9
F0.054925184402453198
aF0.39559205523910357
aF1.7018189834949218
aF2.938227042059784
aF1.2284490886060064
aF-0.7429867314273878
asS'accel_x'
p10
F-0.61713540886117335
sS'accel_y'
p11
F-0.41373079436622279
sS'visionAngle'
p12
I150
sS'maxAccel'
p13
I2
sS'maxVel'
p14
F0.5
sS'age'
p15
I100
sS'lastScale'
p16
F8.2985924441349486
sS'maxSteering'
p17
I30
sS'energy'
p18
F0.27985924441349491
sb.(i__main__
Data_mobile
p1
(dp2
S'vel_y'
p3
F-0.46315957778105554
sS'vel_x'
p4
F-0.18836986359201499
sS'pos_x'
p5
F-64.978562334798269
sS'pos_y'
p6
F47.13076551099018
sS'isAlive'
p7
I01
sS'geno'
p8
(lp9
F-0.0066711581184371038
aF1.7486125164500084
aF1.7018189834949218
aF2.938227042059784
aF0.93136182126787215
aF-0.9700964892475723
asS'accel_x'
p10
F-0.51638339369578068
sS'accel_y'
p11
F-0.28507273243428888
sS'visionAngle'
p12
I150
sS'maxAccel'
p13
I2
sS'maxVel'
p14
F0.5
sS'age'
p15
I100
sS'lastScale'
p16
F13.693326322115563
sS'maxSteering'
p17
I30
sS'energy'
p18
F0.81933263221155639
sb.(i__main__
Data_mobile
p1
(dp2
S'vel_y'
p3
F0.15307936293311494
sS'vel_x'
p4
F-0.47599024007220109
sS'pos_x'
p5
F149.82184883117219
sS'pos_y'
p6
F-30.204430625080576
sS'isAlive'
p7
I01
sS'geno'
p8
(lp9
F0.46364156298137027
aF1.5714451130334457
aF1.8667436555087544
aF2.938227042059784
aF1.2284490886060064
aF-0.9700964892475723
asS'accel_x'
p10
F-0.88420469554815906
sS'accel_y'
p11
F1.7939292227873951
sS'visionAngle'
p12
I150
sS'maxAccel'
p13
I2
sS'maxVel'
p14
F0.5
sS'age'
p15
I100
sS'lastScale'
p16
F13.606619878916117
sS'maxSteering'
p17
I30
sS'energy'
p18
F0.81066198789161159
sb.(i__main__
Data_mobile
p1
(dp2
S'vel_y'
p3
F0.49907962808376183
sS'vel_x'
p4
F-0.030323667848301178
sS'pos_x'
p5
F102.94289233748098
sS'pos_y'
p6
F57.133753483167418
sS'isAlive'
p7
I01
sS'geno'
p8
(lp9
F0.46937640291399629
aF1.6753729022987944
aF2.6894230550200926
aF2.938227042059784
aF1.1358842584962072
aF-0.48615670076563333
asS'accel_x'
p10
F1.1983698610944593
sS'accel_y'
p11
F-1.6012213076337845
sS'visionAngle'
p12
I150
sS'maxAccel'
p13
I2
sS'maxVel'
p14
F0.5
sS'age'
p15
I100
sS'lastScale'
p16
F15.352082128537274
sS'maxSteering'
p17
I30
sS'energy'
p18
F0.98520821285372739
sb.(i__main__
Data_mobile
p1
(dp2
S'vel_y'
p3
F-0.15407097019338814
sS'vel_x'
p4
F-0.41930333144865106
sS'pos_x'
p5
F143.98126731274766
sS'pos_y'
p6
F34.598112976779419
sS'isAlive'
p7
I01
sS'geno'
p8
(lp9
F0.054925184402453198
aF1.7486125164500084
aF1.7018189834949218
aF3.0280657196514706
aF1.2284490886060064
aF-1.2907478192129194
asS'accel_x'
p10
F0
sS'accel_y'
p11
F0
sS'visionAngle'
p12
I150
sS'maxAccel'
p13
I2
sS'maxVel'
p14
F0.5
sS'age'
p15
I0
sS'lastScale'
p16
F5.5
sS'maxSteering'
p17
I30
sS'energy'
p18
F0.5
sb.(i__main__
Data_mobile
p1
(dp2
S'vel_y'
p3
F-0.27489647668259648
sS'vel_x'
p4
F-0.41619180011852208
sS'pos_x'
p5
F131.23388261321639
sS'pos_y'
p6
F37.52666337826787
sS'isAlive'
p7
I01
sS'geno'
p8
(lp9
F0.31617463357181697
aF1.7486125164500084
aF1.7018189834949218
aF3.0280657196514706
aF1.2284490886060064
aF-0.9700964892475723
asS'accel_x'
p10
F0
sS'accel_y'
p11
F0
sS'visionAngle'
p12
I150
sS'maxAccel'
p13
I2
sS'maxVel'
p14
F0.5
sS'age'
p15
I0
sS'lastScale'
p16
F5.5
sS'maxSteering'
p17
I30
sS'energy'
p18
F0.5
sb.(i__main__
Data_mobile
p1
(dp2
S'vel_y'
p3
F0.2861928437074347
sS'vel_x'
p4
F0.24308606634033644
sS'pos_x'
p5
F-140.93785923295235
sS'pos_y'
p6
F7.2065096489228084
sS'isAlive'
p7
I01
sS'geno'
p8
(lp9
F-0.0066711581184371038
aF0.39559205523910357
aF1.7018189834949218
aF2.7907406995006991
aF1.2284490886060064
aF-0.94330982436572886
asS'accel_x'
p10
F1.8752858986915
sS'accel_y'
p11
F-0.69519982607075881
sS'visionAngle'
p12
I150
sS'maxAccel'
p13
I2
sS'maxVel'
p14
F0.5
sS'age'
p15
I150
sS'lastScale'
p16
F15.301657194409474
sS'maxSteering'
p17
I30
sS'energy'
p18
F0.98016571944094744
sb.(i__main__
Data_mobile
p1
(dp2
S'vel_y'
p3
F-0.42515461676159627
sS'vel_x'
p4
F-0.26314169537779492
sS'pos_x'
p5
F47.755857870217859
sS'pos_y'
p6
F49.569190823921282
sS'isAlive'
p7
I01
sS'geno'
p8
(lp9
F0.054925184402453198
aF0.39559205523910357
aF1.7018189834949218
aF2.938227042059784
aF-0.64156481702307655
aF-0.55065696045741952
asS'accel_x'
p10
F-0.22139077530644266
sS'accel_y'
p11
F-0.86709901799543343
sS'visionAngle'
p12
I150
sS'maxAccel'
p13
I2
sS'maxVel'
p14
F0.5
sS'age'
p15
I50
sS'lastScale'
p16
F5.5
sS'maxSteering'
p17
I30
sS'energy'
p18
I0
sb.(i__main__
Data_mobile
p1
(dp2
S'vel_y'
p3
F0.4589148543880569
sS'vel_x'
p4
F0.1984871694140167
sS'pos_x'
p5
F-46.580262816364495
sS'pos_y'
p6
F-44.125786817995817
sS'isAlive'
p7
I01
sS'geno'
p8
(lp9
F-0.0066711581184371038
aF1.5714451130334457
aF2.3856557442812774
aF2.938227042059784
aF1.2284490886060064
aF-0.9700964892475723
asS'accel_x'
p10
F0.038995635828293351
sS'accel_y'
p11
F-0.55836758807915698
sS'visionAngle'
p12
I150
sS'maxAccel'
p13
I2
sS'maxVel'
p14
F0.5
sS'age'
p15
I50
sS'lastScale'
p16
F14.784169914403005
sS'maxSteering'
p17
I30
sS'energy'
p18
F0.92841699144030032
sb.(i__main__
Data_mobile
p1
(dp2
S'vel_y'
p3
F-0.27020046732990366
sS'vel_x'
p4
F-0.42070382391262107
sS'pos_x'
p5
F-66.558590523520564
sS'pos_y'
p6
F44.020961302290985
sS'isAlive'
p7
I01
sS'geno'
p8
(lp9
F0.31617463357181697
aF1.7486125164500084
aF1.7018189834949218
aF2.938227042059784
aF1.153470222127126
aF-1.3832636389047988
asS'accel_x'
p10
F-1.2031683796908286
sS'accel_y'
p11
F-1.5976188062589105
sS'visionAngle'
p12
I150
sS'maxAccel'
p13
I2
sS'maxVel'
p14
F0.5
sS'age'
p15
I100
sS'lastScale'
p16
F13.609352357167241
sS'maxSteering'
p17
I30
sS'energy'
p18
F0.81093523571672421
sb.(i__main__
Data_mobile
p1
(dp2
S'vel_y'
p3
F-0.42673467223284439
sS'vel_x'
p4
F-0.20121939137244044
sS'pos_x'
p5
F164.4765538409697
sS'pos_y'
p6
F-14.717639596152006
sS'isAlive'
p7
I01
sS'geno'
p8
(lp9
F0.46364156298137027
aF1.5714451130334457
aF1.8667436555087544
aF2.938227042059784
aF1.2284490886060064
aF-0.94330982436572886
asS'accel_x'
p10
F0
sS'accel_y'
p11
F0
sS'visionAngle'
p12
I150
sS'maxAccel'
p13
I2
sS'maxVel'
p14
F0.5
sS'age'
p15
I0
sS'lastScale'
p16
F5.5
sS'maxSteering'
p17
I30
sS'energy'
p18
F0.5
sb.(i__main__
Data_mobile
p1
(dp2
S'vel_y'
p3
F-0.47076484199803048
sS'vel_x'
p4
F-0.16846502170649388
sS'pos_x'
p5
F-166.28970324330425
sS'pos_y'
p6
F58.217774544306735
sS'isAlive'
p7
I01
sS'geno'
p8
(lp9
F0.46937640291399629
aF1.4147320303399193
aF0.82871008285372272
aF3.1395019360115217
aF-0.82264316460349596
aF-0.55065696045741952
asS'accel_x'
p10
F0.3461694350187417
sS'accel_y'
p11
F-0.10360214883711499
sS'visionAngle'
p12
I150
sS'maxAccel'
p13
I2
sS'maxVel'
p14
F0.5
sS'age'
p15
I100
sS'lastScale'
p16
F15.352082128537274
sS'maxSteering'
p17
I30
sS'energy'
p18
F0.98520821285372739
sb.(i__main__
Data_mobile
p1
(dp2
S'vel_y'
p3
F-0.40557317236737245
sS'vel_x'
p4
F-0.29242161660155286
sS'pos_x'
p5
F-168.47437565793268
sS'pos_y'
p6
F54.706081723502919
sS'isAlive'
p7
I01
sS'geno'
p8
(lp9
F0.04429313800161172
aF1.7486125164500084
aF1.7018189834949218
aF3.1395019360115217
aF1.1358842584962072
aF-0.9700964892475723
asS'accel_x'
p10
F-0.73665619230804336
sS'accel_y'
p11
F-1.8593917431069269
sS'visionAngle'
p12
I150
sS'maxAccel'
p13
I2
sS'maxVel'
p14
F0.5
sS'age'
p15
I100
sS'lastScale'
p16
F14.920713847593767
sS'maxSteering'
p17
I30
sS'energy'
p18
F0.94207138475937657
sb.(i__main__
Data_mobile
p1
(dp2
S'vel_y'
p3
F-0.44355453814851664
sS'vel_x'
p4
F-0.23077992046071963
sS'pos_x'
p5
F160.32637400473945
sS'pos_y'
p6
F-60.805243320649893
sS'isAlive'
p7
I01
sS'geno'
p8
(lp9
F0.46364156298137027
aF1.7486125164500084
aF1.7018189834949218
aF3.0280657196514706
aF1.2284490886060064
aF-1.3832636389047988
asS'accel_x'
p10
F-0.67370383682196744
sS'accel_y'
p11
F-1.8831152753486333
sS'visionAngle'
p12
I150
sS'maxAccel'
p13
I2
sS'maxVel'
p14
F0.5
sS'age'
p15
I250
sS'lastScale'
p16
F6.9559602373679876
sS'maxSteering'
p17
I30
sS'energy'
p18
F0.14559602373679881
sb.(i__main__
Data_mobile
p1
(dp2
S'vel_y'
p3
F-0.16188381095218049
sS'vel_x'
p4
F0.28594871108112951
sS'pos_x'
p5
F35.53683749441884
sS'pos_y'
p6
F-21.064861551979114
sS'isAlive'
p7
I01
sS'geno'
p8
(lp9
F0.15706741685370385
aF1.7486125164500084
aF1.6092285324644973
aF3.1395019360115217
aF1.153470222127126
aF-1.3832636389047988
asS'accel_x'
p10
F0
sS'accel_y'
p11
F0
sS'visionAngle'
p12
I150
sS'maxAccel'
p13
I2
sS'maxVel'
p14
F0.5
sS'age'
p15
I0
sS'lastScale'
p16
F5.5
sS'maxSteering'
p17
I30
sS'energy'
p18
F0.5
sb.(i__main__
Data_mobile
p1
(dp2
S'vel_y'
p3
F0.25279844849559641
sS'vel_x'
p4
F0.43138491447687338
sS'pos_x'
p5
F-172.98986950280892
sS'pos_y'
p6
F6.312416077949849
sS'isAlive'
p7
I01
sS'geno'
p8
(lp9
F-0.0066711581184371038
aF1.7486125164500084
aF1.7018189834949218
aF2.938227042059784
aF1.1358842584962072
aF-1.2164789554700839
asS'accel_x'
p10
F-1.4271085169614501
sS'accel_y'
p11
F-1.4011999431972908
sS'visionAngle'
p12
I150
sS'maxAccel'
p13
I2
sS'maxVel'
p14
F0.5
sS'age'
p15
I200
sS'lastScale'
p16
F12.062888823572104
sS'maxSteering'
p17
I30
sS'energy'
p18
F0.65628888235721039
sb.(i__main__
Data_mobile
p1
(dp2
S'vel_y'
p3
F-9.193511399405857e-005
sS'vel_x'
p4
F0.16881847610980602
sS'pos_x'
p5
F-154.25832961155936
sS'pos_y'
p6
F-87.767095448260875
sS'isAlive'
p7
I01
sS'geno'
p8
(lp9
F0.047699115866408293
aF1.4147320303399193
aF2.2768141457801847
aF2.938227042059784
aF1.2284490886060064
aF-0.43916193048426821
asS'accel_x'
p10
F0
sS'accel_y'
p11
F0
sS'visionAngle'
p12
I150
sS'maxAccel'
p13
I2
sS'maxVel'
p14
F0.5
sS'age'
p15
I0
sS'lastScale'
p16
F5.5
sS'maxSteering'
p17
I30
sS'energy'
p18
F0.5
sb.(i__main__
Data_mobile
p1
(dp2
S'vel_y'
p3
F0.2421071627648958
sS'vel_x'
p4
F0.43747470982667364
sS'pos_x'
p5
F75.965228590337929
sS'pos_y'
p6
F-36.720801614670087
sS'isAlive'
p7
I01
sS'geno'
p8
(lp9
F0.12509887997052982
aF1.4147320303399193
aF1.2988869735086583
aF2.938227042059784
aF1.2284490886060064
aF-1.3832636389047988
asS'accel_x'
p10
F-1.8349486353357622
sS'accel_y'
p11
F-0.79559003618661772
sS'visionAngle'
p12
I150
sS'maxAccel'
p13
I2
sS'maxVel'
p14
F0.5
sS'age'
p15
I50
sS'lastScale'
p16
F15.398593637295674
sS'maxSteering'
p17
I30
sS'energy'
p18
F0.98985936372956751
sb.(i__main__
Data_mobile
p1
(dp2
S'vel_y'
p3
F0.19969718505178341
sS'vel_x'
p4
F-0.45838960970160947
sS'pos_x'
p5
F139.52129356874715
sS'pos_y'
p6
F85.955856878968532
sS'isAlive'
p7
I01
sS'geno'
p8
(lp9
F0.54625102903210387
aF1.7486125164500084
aF1.2021651853216579
aF2.6127176855754781
aF1.2284490886060064
aF-0.9700964892475723
asS'accel_x'
p10
F-0.97026675659317263
sS'accel_y'
p11
F1.7488803335420537
sS'visionAngle'
p12
I150
sS'maxAccel'
p13
I2
sS'maxVel'
p14
F0.5
sS'age'
p15
I100
sS'lastScale'
p16
F14.111111154211333
sS'maxSteering'
p17
I30
sS'energy'
p18
F0.86111111542113339
sb.(i__main__
Data_mobile
p1
(dp2
S'vel_y'
p3
F-0.45137816317035306
sS'vel_x'
p4
F0.21507615816951475
sS'pos_x'
p5
F185.96596943538063
sS'pos_y'
p6
F79.561369378883029
sS'isAlive'
p7
I01
sS'geno'
p8
(lp9
F0.46937640291399629
aF1.8111566583000771
aF1.7018189834949218
aF3.1128410589562954
aF0.99485213054820398
aF-1.3832636389047988
asS'accel_x'
p10
F-1.9998649087075095
sS'accel_y'
p11
F0.023245363415165407
sS'visionAngle'
p12
I150
sS'maxAccel'
p13
I2
sS'maxVel'
p14
F0.5
sS'age'
p15
I150
sS'lastScale'
p16
F15.301657194409474
sS'maxSteering'
p17
I30
sS'energy'
p18
F0.98016571944094744
sb.(i__main__
Data_mobile
p1
(dp2
S'vel_y'
p3
F-0.12943319676635273
sS'vel_x'
p4
F-0.1257126922813521
sS'pos_x'
p5
F52.949825907027957
sS'pos_y'
p6
F21.488793107675981
sS'isAlive'
p7
I01
sS'geno'
p8
(lp9
F0.029314755553626504
aF0.39559205523910357
aF1.7018189834949218
aF3.1395019360115217
aF1.2284490886060064
aF-0.7429867314273878
asS'accel_x'
p10
F0
sS'accel_y'
p11
F0
sS'visionAngle'
p12
I150
sS'maxAccel'
p13
I2
sS'maxVel'
p14
F0.5
sS'age'
p15
I0
sS'lastScale'
p16
F5.5
sS'maxSteering'
p17
I30
sS'energy'
p18
F0.5
sb.(i__main__
Data_mobile
p1
(dp2
S'vel_y'
p3
F-0.22696052429810357
sS'vel_x'
p4
F-0.44552095395203345
sS'pos_x'
p5
F-64.719002421056928
sS'pos_y'
p6
F45.747880503131782
sS'isAlive'
p7
I01
sS'geno'
p8
(lp9
F0.49125112379630886
aF1.7513060499278641
aF2.2768141457801847
aF2.938227042059784
aF1.2284490886060064
aF-1.2164789554700839
asS'accel_x'
p10
F-0.93079101136340237
sS'accel_y'
p11
F-1.7702056640868296
sS'visionAngle'
p12
I150
sS'maxAccel'
p13
I2
sS'maxVel'
p14
F0.5
sS'age'
p15
I100
sS'lastScale'
p16
F13.693326322115563
sS'maxSteering'
p17
I30
sS'energy'
p18
F0.81933263221155639
sb.(i__main__
Data_mobile
p1
(dp2
S'vel_y'
p3
F-0.26312404729610273
sS'vel_x'
p4
F-0.42516553921327899
sS'pos_x'
p5
F199.37013225287447
sS'pos_y'
p6
F-42.178342062137816
sS'isAlive'
p7
I01
sS'geno'
p8
(lp9
F0.04429313800161172
aF1.7486125164500084
aF1.7018189834949218
aF2.938227042059784
aF1.153470222127126
aF-1.3832636389047988
asS'accel_x'
p10
F-1.6100159370055991
sS'accel_y'
p11
F-1.1865279948606284
sS'visionAngle'
p12
I150
sS'maxAccel'
p13
I2
sS'maxVel'
p14
F0.5
sS'age'
p15
I100
sS'lastScale'
p16
F9.6933263221155652
sS'maxSteering'
p17
I30
sS'energy'
p18
F0.41933263221155642
sb.(i__main__
Data_mobile
p1
(dp2
S'vel_y'
p3
F-0.49390885366265352
sS'vel_x'
p4
F-0.077807739162910131
sS'pos_x'
p5
F-118.30467358268179
sS'pos_y'
p6
F-106.63209160811736
sS'isAlive'
p7
I01
sS'geno'
p8
(lp9
F-0.0066711581184371038
aF1.5714451130334457
aF2.2768141457801847
aF2.938227042059784
aF0.83549231333494289
aF-0.9700964892475723
asS'accel_x'
p10
F-0.19258823939147904
sS'accel_y'
p11
F-1.9907058471929227
sS'visionAngle'
p12
I150
sS'maxAccel'
p13
I2
sS'maxVel'
p14
F0.5
sS'age'
p15
I50
sS'lastScale'
p16
F9.381555865946499
sS'maxSteering'
p17
I30
sS'energy'
p18
F0.38815558659464999
sb.(i__main__
Data_mobile
p1
(dp2
S'vel_y'
p3
F-0.071380457623627352
sS'vel_x'
p4
F-0.49487860154733054
sS'pos_x'
p5
F-21.099142232364724
sS'pos_y'
p6
F-59.53921670678114
sS'isAlive'
p7
I01
sS'geno'
p8
(lp9
F0.029314755553626504
aF1.8929359614115664
aF1.2637475980017658
aF2.938227042059784
aF1.2284490886060064
aF-0.9700964892475723
asS'accel_x'
p10
F-0.21841501855493251
sS'accel_y'
p11
F-1.5474687142905694
sS'visionAngle'
p12
I150
sS'maxAccel'
p13
I2
sS'maxVel'
p14
F0.5
sS'age'
p15
I50
sS'lastScale'
p16
F15.095006534158429
sS'maxSteering'
p17
I30
sS'energy'
p18
F0.9595006534158429
sb.(i__main__
Data_mobile
p1
(dp2
S'vel_y'
p3
F-0.073245237157153809
sS'vel_x'
p4
F-0.49460604043399253
sS'pos_x'
p5
F138.82888031641514
sS'pos_y'
p6
F91.545910481829665
sS'isAlive'
p7
I01
sS'geno'
p8
(lp9
F1.1601706361963411
aF0.39559205523910357
aF1.3943929293178772
aF2.938227042059784
aF1.2284490886060064
aF-0.9700964892475723
asS'accel_x'
p10
F1.7934320387119058
sS'accel_y'
p11
F0.88521269902868926
sS'visionAngle'
p12
I150
sS'maxAccel'
p13
I2
sS'maxVel'
p14
F0.5
sS'age'
p15
I200
sS'lastScale'
p16
F15.30002611903191
sS'maxSteering'
p17
I30
sS'energy'
p18
F0.98000261190319093
sb.(i__main__
Data_mobile
p1
(dp2
S'vel_y'
p3
F0.26563098993426271
sS'vel_x'
p4
F-0.4236037974175203
sS'pos_x'
p5
F46.590831110034166
sS'pos_y'
p6
F27.49904253640339
sS'isAlive'
p7
I01
sS'geno'
p8
(lp9
F0.35003841022822391
aF2.1368203300568349
aF2.7079493554888341
aF2.938227042059784
aF1.1358842584962072
aF-0.9700964892475723
asS'accel_x'
p10
F-1.9999645829367958
sS'accel_y'
p11
F0.011902394651828914
sS'visionAngle'
p12
I150
sS'maxAccel'
p13
I2
sS'maxVel'
p14
F0.5
sS'age'
p15
I50
sS'lastScale'
p16
F14.28155887670326
sS'maxSteering'
p17
I30
sS'energy'
p18
F0.87815588767032593
sb.(i__main__
Data_mobile
p1
(dp2
S'vel_y'
p3
F-0.056471118926516371
sS'vel_x'
p4
F-0.26173616472188233
sS'pos_x'
p5
F65.797763265749666
sS'pos_y'
p6
F62.419792576280813
sS'isAlive'
p7
I01
sS'geno'
p8
(lp9
F0.46937640291399629
aF0.39559205523910357
aF1.3943929293178772
aF2.938227042059784
aF1.2284490886060064
aF-0.7429867314273878
asS'accel_x'
p10
F0
sS'accel_y'
p11
F0
sS'visionAngle'
p12
I150
sS'maxAccel'
p13
I2
sS'maxVel'
p14
F0.5
sS'age'
p15
I0
sS'lastScale'
p16
F5.5
sS'maxSteering'
p17
I30
sS'energy'
p18
F0.5
sb.(i__main__
Data_mobile
p1
(dp2
S'vel_y'
p3
F0.15536102530347956
sS'vel_x'
p4
F-0.4752504095912507
sS'pos_x'
p5
F128.18551778369749
sS'pos_y'
p6
F82.137329719245812
sS'isAlive'
p7
I01
sS'geno'
p8
(lp9
F0.054925184402453198
aF0.39559205523910357
aF1.7018189834949218
aF2.7907406995006991
aF1.2284490886060064
aF-0.9700964892475723
asS'accel_x'
p10
F1.4291007293292362
sS'accel_y'
p11
F1.1392113904963201
sS'visionAngle'
p12
I150
sS'maxAccel'
p13
I2
sS'maxVel'
p14
F0.5
sS'age'
p15
I300
sS'lastScale'
p16
F12.300000201875932
sS'maxSteering'
p17
I30
sS'energy'
p18
F0.68000002018759298
sb.(i__main__
Data_mobile
p1
(dp2
S'vel_y'
p3
F-0.330839924837045
sS'vel_x'
p4
F-0.37489324364919996
sS'pos_x'
p5
F158.28897941094317
sS'pos_y'
p6
F-63.943592682582377
sS'isAlive'
p7
I01
sS'geno'
p8
(lp9
F0.27872793454881017
aF1.7486125164500084
aF1.6092285324644973
aF3.1395019360115217
aF1.153470222127126
aF-1.3832636389047988
asS'accel_x'
p10
F1.5175571969038235
sS'accel_y'
p11
F1.3026972611184113
sS'visionAngle'
p12
I150
sS'maxAccel'
p13
I2
sS'maxVel'
p14
F0.5
sS'age'
p15
I200
sS'lastScale'
p16
F9.347240350889459
sS'maxSteering'
p17
I30
sS'energy'
p18
F0.38472403508894593
sb.(i__main__
Data_mobile
p1
(dp2
S'vel_y'
p3
F-0.35499037639171249
sS'vel_x'
p4
F0.35211054041205619
sS'pos_x'
p5
F71.469519677438555
sS'pos_y'
p6
F-34.614091115232675
sS'isAlive'
p7
I01
sS'geno'
p8
(lp9
F-0.0066711581184371038
aF1.5714451130334457
aF2.2768141457801847
aF2.7868996037662033
aF1.2284490886060064
aF-0.9700964892475723
asS'accel_x'
p10
F1.53618778219648
sS'accel_y'
p11
F-1.2806744698908701
sS'visionAngle'
p12
I150
sS'maxAccel'
p13
I2
sS'maxVel'
p14
F0.5
sS'age'
p15
I50
sS'lastScale'
p16
F7.6274786630534761
sS'maxSteering'
p17
I30
sS'energy'
p18
F0.21274786630534759
sb.(i__main__
Data_mobile
p1
(dp2
S'vel_y'
p3
F-0.49777835166238116
sS'vel_x'
p4
F-0.025928420248507771
sS'pos_x'
p5
F65.789420380414924
sS'pos_y'
p6
F27.339952437709627
sS'isAlive'
p7
I01
sS'geno'
p8
(lp9
F0.36568439158427213
aF1.7486125164500084
aF1.7018189834949218
aF3.1395019360115217
aF1.1358842584962072
aF-0.9700964892475723
asS'accel_x'
p10
F0
sS'accel_y'
p11
F0
sS'visionAngle'
p12
I150
sS'maxAccel'
p13
I2
sS'maxVel'
p14
F0.5
sS'age'
p15
I0
sS'lastScale'
p16
F5.5
sS'maxSteering'
p17
I30
sS'energy'
p18
F0.5
sb.(i__main__
Data_mobile
p1
(dp2
S'vel_y'
p3
F0.26958789178888048
sS'vel_x'
p4
F-0.42109662620451715
sS'pos_x'
p5
F-47.222701961629639
sS'pos_y'
p6
F-42.456852233262516
sS'isAlive'
p7
I01
sS'geno'
p8
(lp9
F0.029314755553626504
aF1.7513060499278641
aF1.9297140274827038
aF2.938227042059784
aF1.2284490886060064
aF-0.9700964892475723
asS'accel_x'
p10
F-1.4995336165324826
sS'accel_y'
p11
F1.3234042968378987
sS'visionAngle'
p12
I150
sS'maxAccel'
p13
I2
sS'maxVel'
p14
F0.5
sS'age'
p15
I50
sS'lastScale'
p16
F14.183430986624664
sS'maxSteering'
p17
I30
sS'energy'
p18
F0.86834309866246639
sb.(i__main__
Data_mobile
p1
(dp2
S'vel_y'
p3
F0.033330051634470684
sS'vel_x'
p4
F-0.29197690937784831
sS'pos_x'
p5
F-116.19878281282193
sS'pos_y'
p6
F49.904925370557237
sS'isAlive'
p7
I01
sS'geno'
p8
(lp9
F-0.13609719824762678
aF1.1926958391108187
aF1.7018189834949218
aF2.938227042059784
aF-0.64156481702307655
aF-0.55065696045741952
asS'accel_x'
p10
F0
sS'accel_y'
p11
F0
sS'visionAngle'
p12
I150
sS'maxAccel'
p13
I2
sS'maxVel'
p14
F0.5
sS'age'
p15
I0
sS'lastScale'
p16
F5.5
sS'maxSteering'
p17
I30
sS'energy'
p18
F0.5
sb.(i__main__
Data_mobile
p1
(dp2
S'vel_y'
p3
F-0.040589712519415705
sS'vel_x'
p4
F-0.49259641705008611
sS'pos_x'
p5
F11.887238067840705
sS'pos_y'
p6
F63.960696678438239
sS'isAlive'
p7
I01
sS'geno'
p8
(lp9
F0.054925184402453198
aF-0.055050779639768788
aF1.7018189834949218
aF3.0469758873934336
aF0.93136182126787215
aF-0.9700964892475723
asS'accel_x'
p10
F0
sS'accel_y'
p11
F0
sS'visionAngle'
p12
I150
sS'maxAccel'
p13
I2
sS'maxVel'
p14
F0.5
sS'age'
p15
I0
sS'lastScale'
p16
F5.5
sS'maxSteering'
p17
I30
sS'energy'
p18
F0.5
sb.(i__main__
Data_mobile
p1
(dp2
S'vel_y'
p3
F-0.18836414837192392
sS'vel_x'
p4
F0.16932316020074603
sS'pos_x'
p5
F62.461577222867426
sS'pos_y'
p6
F33.757650423644201
sS'isAlive'
p7
I01
sS'geno'
p8
(lp9
F-0.0066711581184371038
aF1.5714451130334457
aF1.7018189834949218
aF3.0280657196514706
aF1.1358842584962072
aF-0.9700964892475723
asS'accel_x'
p10
F0
sS'accel_y'
p11
F0
sS'visionAngle'
p12
I150
sS'maxAccel'
p13
I2
sS'maxVel'
p14
F0.5
sS'age'
p15
I0
sS'lastScale'
p16
F5.5
sS'maxSteering'
p17
I30
sS'energy'
p18
F0.5
sb.(i__main__
Data_mobile
p1
(dp2
S'vel_y'
p3
F0.41079422501132179
sS'vel_x'
p4
F-0.16296438955083373
sS'pos_x'
p5
F-17.797209863685595
sS'pos_y'
p6
F36.241672691655864
sS'isAlive'
p7
I01
sS'geno'
p8
(lp9
F0.04429313800161172
aF1.6919243833553119
aF1.7018189834949218
aF3.1395019360115217
aF1.1358842584962072
aF-0.9700964892475723
asS'accel_x'
p10
F0
sS'accel_y'
p11
F0
sS'visionAngle'
p12
I150
sS'maxAccel'
p13
I2
sS'maxVel'
p14
F0.5
sS'age'
p15
I0
sS'lastScale'
p16
F5.5
sS'maxSteering'
p17
I30
sS'energy'
p18
F0.5
sb.(i__main__
Data_mobile
p1
(dp2
S'vel_y'
p3
I0
sS'vel_x'
p4
I0
sS'pos_x'
p5
I-9579
sS'pos_y'
p6
I9779
sS'isAlive'
p7
I00
sS'geno'
p8
(lp9
F-0.11898902335260908
aF1.4147320303399193
aF1.2988869735086583
aF2.938227042059784
aF1.2284490886060064
aF-0.7429867314273878
asS'accel_x'
p10
F0
sS'accel_y'
p11
F0
sS'visionAngle'
p12
I150
sS'maxAccel'
p13
I2
sS'maxVel'
p14
F0.5
sS'age'
p15
I0
sS'lastScale'
p16
F5.5
sS'maxSteering'
p17
I30
sS'energy'
p18
F0.5
sb.(i__main__
Data_mobile
p1
(dp2
S'vel_y'
p3
I0
sS'vel_x'
p4
I0
sS'pos_x'
p5
I-9579
sS'pos_y'
p6
I9779
sS'isAlive'
p7
I00
sS'geno'
p8
(lp9
F0.029314755553626504
aF1.5714451130334457
aF1.267404194462423
aF3.0280657196514706
aF0.6053883544209554
aF-0.9700964892475723
asS'accel_x'
p10
F0
sS'accel_y'
p11
F0
sS'visionAngle'
p12
I150
sS'maxAccel'
p13
I2
sS'maxVel'
p14
F0.5
sS'age'
p15
I0
sS'lastScale'
p16
F5.5
sS'maxSteering'
p17
I30
sS'energy'
p18
F0.5
sb.(i__main__
Data_mobile
p1
(dp2
S'vel_y'
p3
I0
sS'vel_x'
p4
I0
sS'pos_x'
p5
I-9579
sS'pos_y'
p6
I9779
sS'isAlive'
p7
I00
sS'geno'
p8
(lp9
F0.029314755553626504
aF1.5714451130334457
aF1.7018189834949218
aF3.0280657196514706
aF0.89498168191794103
aF-0.89503933584681195
asS'accel_x'
p10
F0
sS'accel_y'
p11
F0
sS'visionAngle'
p12
I150
sS'maxAccel'
p13
I2
sS'maxVel'
p14
F0.5
sS'age'
p15
I0
sS'lastScale'
p16
F5.5
sS'maxSteering'
p17
I30
sS'energy'
p18
F0.5
sb.(i__main__
Data_mobile
p1
(dp2
S'vel_y'
p3
I0
sS'vel_x'
p4
I0
sS'pos_x'
p5
I-9579
sS'pos_y'
p6
I9779
sS'isAlive'
p7
I00
sS'geno'
p8
(lp9
F0.46937640291399629
aF1.7486125164500084
aF1.7018189834949218
aF3.0280657196514706
aF1.2284490886060064
aF-0.9700964892475723
asS'accel_x'
p10
F0
sS'accel_y'
p11
F0
sS'visionAngle'
p12
I150
sS'maxAccel'
p13
I2
sS'maxVel'
p14
F0.5
sS'age'
p15
I0
sS'lastScale'
p16
F5.5
sS'maxSteering'
p17
I30
sS'energy'
p18
F0.5
sb.(i__main__
Data_mobile
p1
(dp2
S'vel_y'
p3
I0
sS'vel_x'
p4
I0
sS'pos_x'
p5
I-9579
sS'pos_y'
p6
I9779
sS'isAlive'
p7
I00
sS'geno'
p8
(lp9
F-0.0066711581184371038
aF1.5714451130334457
aF1.7018189834949218
aF3.0280657196514706
aF1.2284490886060064
aF-0.9700964892475723
asS'accel_x'
p10
F0
sS'accel_y'
p11
F0
sS'visionAngle'
p12
I150
sS'maxAccel'
p13
I2
sS'maxVel'
p14
F0.5
sS'age'
p15
I0
sS'lastScale'
p16
F5.5
sS'maxSteering'
p17
I30
sS'energy'
p18
F0.5
sb.(i__main__
Data_mobile
p1
(dp2
S'vel_y'
p3
I0
sS'vel_x'
p4
I0
sS'pos_x'
p5
I-9579
sS'pos_y'
p6
I9779
sS'isAlive'
p7
I00
sS'geno'
p8
(lp9
F0.029314755553626504
aF1.5714451130334457
aF1.7018189834949218
aF2.6851393489284874
aF1.2284490886060064
aF-0.89503933584681195
asS'accel_x'
p10
F0
sS'accel_y'
p11
F0
sS'visionAngle'
p12
I150
sS'maxAccel'
p13
I2
sS'maxVel'
p14
F0.5
sS'age'
p15
I0
sS'lastScale'
p16
F5.5
sS'maxSteering'
p17
I30
sS'energy'
p18
F0.5
sb.(i__main__
Data_mobile
p1
(dp2
S'vel_y'
p3
I0
sS'vel_x'
p4
I0
sS'pos_x'
p5
I-9579
sS'pos_y'
p6
I9779
sS'isAlive'
p7
I00
sS'geno'
p8
(lp9
F0.029314755553626504
aF1.1885111548715279
aF1.2988869735086583
aF2.983982522151607
aF1.2284490886060064
aF-0.7429867314273878
asS'accel_x'
p10
F0
sS'accel_y'
p11
F0
sS'visionAngle'
p12
I150
sS'maxAccel'
p13
I2
sS'maxVel'
p14
F0.5
sS'age'
p15
I0
sS'lastScale'
p16
F5.5
sS'maxSteering'
p17
I30
sS'energy'
p18
F0.5
sb.(i__main__
Data_mobile
p1
(dp2
S'vel_y'
p3
I0
sS'vel_x'
p4
I0
sS'pos_x'
p5
I-9579
sS'pos_y'
p6
I9779
sS'isAlive'
p7
I00
sS'geno'
p8
(lp9
F0.04429313800161172
aF1.7486125164500084
aF1.7018189834949218
aF3.1395019360115217
aF1.1358842584962072
aF-0.9700964892475723
asS'accel_x'
p10
F0
sS'accel_y'
p11
F0
sS'visionAngle'
p12
I150
sS'maxAccel'
p13
I2
sS'maxVel'
p14
F0.5
sS'age'
p15
I0
sS'lastScale'
p16
F5.5
sS'maxSteering'
p17
I30
sS'energy'
p18
F0.5
sb.(i__main__
Data_mobile
p1
(dp2
S'vel_y'
p3
I0
sS'vel_x'
p4
I0
sS'pos_x'
p5
I-9579
sS'pos_y'
p6
I9779
sS'isAlive'
p7
I00
sS'geno'
p8
(lp9
F0.49125112379630886
aF1.7513060499278641
aF1.410944810995415
aF2.938227042059784
aF1.2284490886060064
aF-0.9700964892475723
asS'accel_x'
p10
F0
sS'accel_y'
p11
F0
sS'visionAngle'
p12
I150
sS'maxAccel'
p13
I2
sS'maxVel'
p14
F0.5
sS'age'
p15
I0
sS'lastScale'
p16
F5.5
sS'maxSteering'
p17
I30
sS'energy'
p18
F0.5
sb.(i__main__
Data_mobile
p1
(dp2
S'vel_y'
p3
I0
sS'vel_x'
p4
I0
sS'pos_x'
p5
I-9579
sS'pos_y'
p6
I9779
sS'isAlive'
p7
I00
sS'geno'
p8
(lp9
F0.029314755553626504
aF1.8929359614115664
aF1.2637475980017658
aF2.938227042059784
aF0.83549231333494289
aF-0.9700964892475723
asS'accel_x'
p10
F0
sS'accel_y'
p11
F0
sS'visionAngle'
p12
I150
sS'maxAccel'
p13
I2
sS'maxVel'
p14
F0.5
sS'age'
p15
I0
sS'lastScale'
p16
F5.5
sS'maxSteering'
p17
I30
sS'energy'
p18
F0.5
sb.(i__main__
Data_mobile
p1
(dp2
S'vel_y'
p3
I0
sS'vel_x'
p4
I0
sS'pos_x'
p5
I-9579
sS'pos_y'
p6
I9779
sS'isAlive'
p7
I00
sS'geno'
p8
(lp9
F0.10106622483537941
aF1.5714451130334457
aF1.7018189834949218
aF2.7907406995006991
aF1.2284490886060064
aF-0.9700964892475723
asS'accel_x'
p10
F0
sS'accel_y'
p11
F0
sS'visionAngle'
p12
I150
sS'maxAccel'
p13
I2
sS'maxVel'
p14
F0.5
sS'age'
p15
I0
sS'lastScale'
p16
F5.5
sS'maxSteering'
p17
I30
sS'energy'
p18
F0.5
sb.(i__main__
Data_mobile
p1
(dp2
S'vel_y'
p3
I0
sS'vel_x'
p4
I0
sS'pos_x'
p5
I-9579
sS'pos_y'
p6
I9779
sS'isAlive'
p7
I00
sS'geno'
p8
(lp9
F-0.0066711581184371038
aF1.5714451130334457
aF2.2768141457801847
aF2.938227042059784
aF1.2284490886060064
aF-0.9700964892475723
asS'accel_x'
p10
F0
sS'accel_y'
p11
F0
sS'visionAngle'
p12
I150
sS'maxAccel'
p13
I2
sS'maxVel'
p14
F0.5
sS'age'
p15
I0
sS'lastScale'
p16
F5.5
sS'maxSteering'
p17
I30
sS'energy'
p18
F0.5
sb.(i__main__
Data_mobile
p1
(dp2
S'vel_y'
p3
I0
sS'vel_x'
p4
I0
sS'pos_x'
p5
I-9579
sS'pos_y'
p6
I9779
sS'isAlive'
p7
I00
sS'geno'
p8
(lp9
F0.029314755553626504
aF1.7486125164500084
aF1.510762789141517
aF3.1395019360115217
aF1.2284490886060064
aF-0.7429867314273878
asS'accel_x'
p10
F0
sS'accel_y'
p11
F0
sS'visionAngle'
p12
I150
sS'maxAccel'
p13
I2
sS'maxVel'
p14
F0.5
sS'age'
p15
I0
sS'lastScale'
p16
F5.5
sS'maxSteering'
p17
I30
sS'energy'
p18
F0.5
sb.(i__main__
Data_mobile
p1
(dp2
S'vel_y'
p3
I0
sS'vel_x'
p4
I0
sS'pos_x'
p5
I-9579
sS'pos_y'
p6
I9779
sS'isAlive'
p7
I00
sS'geno'
p8
(lp9
F0.27872793454881017
aF1.8929359614115664
aF1.7018189834949218
aF3.3718729408556989
aF1.2284490886060064
aF-0.9700964892475723
asS'accel_x'
p10
F0
sS'accel_y'
p11
F0
sS'visionAngle'
p12
I150
sS'maxAccel'
p13
I2
sS'maxVel'
p14
F0.5
sS'age'
p15
I0
sS'lastScale'
p16
F5.5
sS'maxSteering'
p17
I30
sS'energy'
p18
F0.5
sb.(i__main__
Data_mobile
p1
(dp2
S'vel_y'
p3
I0
sS'vel_x'
p4
I0
sS'pos_x'
p5
I-9579
sS'pos_y'
p6
I9779
sS'isAlive'
p7
I00
sS'geno'
p8
(lp9
F0.029314755553626504
aF1.8929359614115664
aF1.2637475980017658
aF2.938227042059784
aF0.83549231333494289
aF-0.9700964892475723
asS'accel_x'
p10
F0
sS'accel_y'
p11
F0
sS'visionAngle'
p12
I150
sS'maxAccel'
p13
I2
sS'maxVel'
p14
F0.5
sS'age'
p15
I0
sS'lastScale'
p16
F5.5
sS'maxSteering'
p17
I30
sS'energy'
p18
F0.5
sb.(i__main__
Data_mobile
p1
(dp2
S'vel_y'
p3
I0
sS'vel_x'
p4
I0
sS'pos_x'
p5
I-9579
sS'pos_y'
p6
I9779
sS'isAlive'
p7
I00
sS'geno'
p8
(lp9
F0.04429313800161172
aF1.7486125164500084
aF1.7018189834949218
aF3.0280657196514706
aF1.1358842584962072
aF-0.9700964892475723
asS'accel_x'
p10
F0
sS'accel_y'
p11
F0
sS'visionAngle'
p12
I150
sS'maxAccel'
p13
I2
sS'maxVel'
p14
F0.5
sS'age'
p15
I0
sS'lastScale'
p16
F5.5
sS'maxSteering'
p17
I30
sS'energy'
p18
F0.5
sb.(i__main__
Data_mobile
p1
(dp2
S'vel_y'
p3
I0
sS'vel_x'
p4
I0
sS'pos_x'
p5
I-9579
sS'pos_y'
p6
I9779
sS'isAlive'
p7
I00
sS'geno'
p8
(lp9
F0.46937640291399629
aF1.4147320303399193
aF0.89656796835436381
aF2.6547170227731862
aF1.1358842584962072
aF-0.7429867314273878
asS'accel_x'
p10
F0
sS'accel_y'
p11
F0
sS'visionAngle'
p12
I150
sS'maxAccel'
p13
I2
sS'maxVel'
p14
F0.5
sS'age'
p15
I0
sS'lastScale'
p16
F5.5
sS'maxSteering'
p17
I30
sS'energy'
p18
F0.5
sb.(i__main__
Data_mobile
p1
(dp2
S'vel_y'
p3
I0
sS'vel_x'
p4
I0
sS'pos_x'
p5
I-9579
sS'pos_y'
p6
I9779
sS'isAlive'
p7
I00
sS'geno'
p8
(lp9
F-0.11898902335260908
aF1.4147320303399193
aF1.7018189834949218
aF2.938227042059784
aF1.2284490886060064
aF-0.7429867314273878
asS'accel_x'
p10
F0
sS'accel_y'
p11
F0
sS'visionAngle'
p12
I150
sS'maxAccel'
p13
I2
sS'maxVel'
p14
F0.5
sS'age'
p15
I0
sS'lastScale'
p16
F5.5
sS'maxSteering'
p17
I30
sS'energy'
p18
F0.5
sb.(i__main__
Data_mobile
p1
(dp2
S'vel_y'
p3
I0
sS'vel_x'
p4
I0
sS'pos_x'
p5
I-9579
sS'pos_y'
p6
I9779
sS'isAlive'
p7
I00
sS'geno'
p8
(lp9
F0.46364156298137027
aF1.7486125164500084
aF1.7018189834949218
aF3.0280657196514706
aF1.2284490886060064
aF-0.85834367202289574
asS'accel_x'
p10
F0
sS'accel_y'
p11
F0
sS'visionAngle'
p12
I150
sS'maxAccel'
p13
I2
sS'maxVel'
p14
F0.5
sS'age'
p15
I0
sS'lastScale'
p16
F5.5
sS'maxSteering'
p17
I30
sS'energy'
p18
F0.5
sb.(i__main__
Data_mobile
p1
(dp2
S'vel_y'
p3
I0
sS'vel_x'
p4
I0
sS'pos_x'
p5
I-9579
sS'pos_y'
p6
I9779
sS'isAlive'
p7
I00
sS'geno'
p8
(lp9
F0.46364156298137027
aF1.8209623709770955
aF2.2768141457801847
aF2.938227042059784
aF1.2284490886060064
aF-0.43916193048426821
asS'accel_x'
p10
F0
sS'accel_y'
p11
F0
sS'visionAngle'
p12
I150
sS'maxAccel'
p13
I2
sS'maxVel'
p14
F0.5
sS'age'
p15
I0
sS'lastScale'
p16
F5.5
sS'maxSteering'
p17
I30
sS'energy'
p18
F0.5
sb.(i__main__
Data_mobile
p1
(dp2
S'vel_y'
p3
I0
sS'vel_x'
p4
I0
sS'pos_x'
p5
I-9579
sS'pos_y'
p6
I9779
sS'isAlive'
p7
I00
sS'geno'
p8
(lp9
F-0.11898902335260908
aF1.4147320303399193
aF1.7018189834949218
aF2.938227042059784
aF1.2284490886060064
aF-0.9961495946824126
asS'accel_x'
p10
F0
sS'accel_y'
p11
F0
sS'visionAngle'
p12
I150
sS'maxAccel'
p13
I2
sS'maxVel'
p14
F0.5
sS'age'
p15
I0
sS'lastScale'
p16
F5.5
sS'maxSteering'
p17
I30
sS'energy'
p18
F0.5
sb.(i__main__
Data_mobile
p1
(dp2
S'vel_y'
p3
I0
sS'vel_x'
p4
I0
sS'pos_x'
p5
I-9579
sS'pos_y'
p6
I9779
sS'isAlive'
p7
I00
sS'geno'
p8
(lp9
F-0.0066711581184371038
aF1.7486125164500084
aF1.7018189834949218
aF2.938227042059784
aF0.93136182126787215
aF-0.9700964892475723
asS'accel_x'
p10
F0
sS'accel_y'
p11
F0
sS'visionAngle'
p12
I150
sS'maxAccel'
p13
I2
sS'maxVel'
p14
F0.5
sS'age'
p15
I0
sS'lastScale'
p16
F5.5
sS'maxSteering'
p17
I30
sS'energy'
p18
F0.5
sb.(i__main__
Data_mobile
p1
(dp2
S'vel_y'
p3
I0
sS'vel_x'
p4
I0
sS'pos_x'
p5
I-9579
sS'pos_y'
p6
I9779
sS'isAlive'
p7
I00
sS'geno'
p8
(lp9
F0.13898281585410832
aF1.833807226697898
aF1.7018189834949218
aF2.938227042059784
aF1.1358842584962072
aF-0.85834367202289574
asS'accel_x'
p10
F0
sS'accel_y'
p11
F0
sS'visionAngle'
p12
I150
sS'maxAccel'
p13
I2
sS'maxVel'
p14
F0.5
sS'age'
p15
I0
sS'lastScale'
p16
F5.5
sS'maxSteering'
p17
I30
sS'energy'
p18
F0.5
sb.(i__main__
Data_mobile
p1
(dp2
S'vel_y'
p3
I0
sS'vel_x'
p4
I0
sS'pos_x'
p5
I-9579
sS'pos_y'
p6
I9779
sS'isAlive'
p7
I00
sS'geno'
p8
(lp9
F-0.11898902335260908
aF1.4147320303399193
aF1.6092285324644973
aF3.1395019360115217
aF1.3111659008112353
aF-1.3832636389047988
asS'accel_x'
p10
F0
sS'accel_y'
p11
F0
sS'visionAngle'
p12
I150
sS'maxAccel'
p13
I2
sS'maxVel'
p14
F0.5
sS'age'
p15
I0
sS'lastScale'
p16
F5.5
sS'maxSteering'
p17
I30
sS'energy'
p18
F0.5
sb.(i__main__
Data_mobile
p1
(dp2
S'vel_y'
p3
I0
sS'vel_x'
p4
I0
sS'pos_x'
p5
I-9579
sS'pos_y'
p6
I9779
sS'isAlive'
p7
I00
sS'geno'
p8
(lp9
F0.054925184402453198
aF0.80287678606220692
aF1.7018189834949218
aF3.1395019360115217
aF1.2284490886060064
aF-0.94330982436572886
asS'accel_x'
p10
F0
sS'accel_y'
p11
F0
sS'visionAngle'
p12
I150
sS'maxAccel'
p13
I2
sS'maxVel'
p14
F0.5
sS'age'
p15
I0
sS'lastScale'
p16
F5.5
sS'maxSteering'
p17
I30
sS'energy'
p18
F0.5
sb.(i__main__
Data_mobile
p1
(dp2
S'vel_y'
p3
I0
sS'vel_x'
p4
I0
sS'pos_x'
p5
I-9579
sS'pos_y'
p6
I9779
sS'isAlive'
p7
I00
sS'geno'
p8
(lp9
F0.26230198010430128
aF1.5714451130334457
aF2.2768141457801847
aF2.938227042059784
aF1.2284490886060064
aF-0.9700964892475723
asS'accel_x'
p10
F0
sS'accel_y'
p11
F0
sS'visionAngle'
p12
I150
sS'maxAccel'
p13
I2
sS'maxVel'
p14
F0.5
sS'age'
p15
I0
sS'lastScale'
p16
F5.5
sS'maxSteering'
p17
I30
sS'energy'
p18
F0.5
sb.(i__main__
Data_mobile
p1
(dp2
S'vel_y'
p3
I0
sS'vel_x'
p4
I0
sS'pos_x'
p5
I-9579
sS'pos_y'
p6
I9779
sS'isAlive'
p7
I00
sS'geno'
p8
(lp9
F0.029314755553626504
aF2.0713680453525405
aF1.3943929293178772
aF2.938227042059784
aF1.2284490886060064
aF-0.9700964892475723
asS'accel_x'
p10
F0
sS'accel_y'
p11
F0
sS'visionAngle'
p12
I150
sS'maxAccel'
p13
I2
sS'maxVel'
p14
F0.5
sS'age'
p15
I0
sS'lastScale'
p16
F5.5
sS'maxSteering'
p17
I30
sS'energy'
p18
F0.5
sb.(i__main__
Data_mobile
p1
(dp2
S'vel_y'
p3
I0
sS'vel_x'
p4
I0
sS'pos_x'
p5
I-9579
sS'pos_y'
p6
I9779
sS'isAlive'
p7
I00
sS'geno'
p8
(lp9
F0.029314755553626504
aF2.0713680453525405
aF2.7079493554888341
aF2.938227042059784
aF1.2284490886060064
aF-0.7429867314273878
asS'accel_x'
p10
F0
sS'accel_y'
p11
F0
sS'visionAngle'
p12
I150
sS'maxAccel'
p13
I2
sS'maxVel'
p14
F0.5
sS'age'
p15
I0
sS'lastScale'
p16
F5.5
sS'maxSteering'
p17
I30
sS'energy'
p18
F0.5
sb.(i__main__
Data_mobile
p1
(dp2
S'vel_y'
p3
I0
sS'vel_x'
p4
I0
sS'pos_x'
p5
I-9579
sS'pos_y'
p6
I9779
sS'isAlive'
p7
I00
sS'geno'
p8
(lp9
F0.49125112379630886
aF1.7513060499278641
aF2.2768141457801847
aF2.938227042059784
aF1.2284490886060064
aF-0.9700964892475723
asS'accel_x'
p10
F0
sS'accel_y'
p11
F0
sS'visionAngle'
p12
I150
sS'maxAccel'
p13
I2
sS'maxVel'
p14
F0.5
sS'age'
p15
I0
sS'lastScale'
p16
F5.5
sS'maxSteering'
p17
I30
sS'energy'
p18
F0.5
sb.(i__main__
Data_mobile
p1
(dp2
S'vel_y'
p3
I0
sS'vel_x'
p4
I0
sS'pos_x'
p5
I-9579
sS'pos_y'
p6
I9779
sS'isAlive'
p7
I00
sS'geno'
p8
(lp9
F-0.26059229333140621
aF2.0713680453525405
aF1.7018189834949218
aF2.4920074328280339
aF1.2284490886060064
aF-1.4349166949065273
asS'accel_x'
p10
F0
sS'accel_y'
p11
F0
sS'visionAngle'
p12
I150
sS'maxAccel'
p13
I2
sS'maxVel'
p14
F0.5
sS'age'
p15
I0
sS'lastScale'
p16
F5.5
sS'maxSteering'
p17
I30
sS'energy'
p18
F0.5
sb.(i__main__
Data_mobile
p1
(dp2
S'vel_y'
p3
I0
sS'vel_x'
p4
I0
sS'pos_x'
p5
I-9579
sS'pos_y'
p6
I9779
sS'isAlive'
p7
I00
sS'geno'
p8
(lp9
F0.49125112379630886
aF1.7513060499278641
aF2.2768141457801847
aF2.938227042059784
aF1.2284490886060064
aF-0.43916193048426821
asS'accel_x'
p10
F0
sS'accel_y'
p11
F0
sS'visionAngle'
p12
I150
sS'maxAccel'
p13
I2
sS'maxVel'
p14
F0.5
sS'age'
p15
I0
sS'lastScale'
p16
F5.5
sS'maxSteering'
p17
I30
sS'energy'
p18
F0.5
sb.(i__main__
Data_mobile
p1
(dp2
S'vel_y'
p3
I0
sS'vel_x'
p4
I0
sS'pos_x'
p5
I-9579
sS'pos_y'
p6
I9779
sS'isAlive'
p7
I00
sS'geno'
p8
(lp9
F0.04429313800161172
aF1.7486125164500084
aF1.7018189834949218
aF3.0280657196514706
aF1.1358842584962072
aF-0.85834367202289574
asS'accel_x'
p10
F0
sS'accel_y'
p11
F0
sS'visionAngle'
p12
I150
sS'maxAccel'
p13
I2
sS'maxVel'
p14
F0.5
sS'age'
p15
I0
sS'lastScale'
p16
F5.5
sS'maxSteering'
p17
I30
sS'energy'
p18
F0.5
sb.(i__main__
Data_mobile
p1
(dp2
S'vel_y'
p3
I0
sS'vel_x'
p4
I0
sS'pos_x'
p5
I-9579
sS'pos_y'
p6
I9779
sS'isAlive'
p7
I00
sS'geno'
p8
(lp9
F0.029314755553626504
aF1.5714451130334457
aF1.7018189834949218
aF2.938227042059784
aF-0.64156481702307655
aF-0.55065696045741952
asS'accel_x'
p10
F0
sS'accel_y'
p11
F0
sS'visionAngle'
p12
I150
sS'maxAccel'
p13
I2
sS'maxVel'
p14
F0.5
sS'age'
p15
I0
sS'lastScale'
p16
F5.5
sS'maxSteering'
p17
I30
sS'energy'
p18
F0.5
sb.(i__main__
Data_mobile
p1
(dp2
S'vel_y'
p3
I0
sS'vel_x'
p4
I0
sS'pos_x'
p5
I-9579
sS'pos_y'
p6
I9779
sS'isAlive'
p7
I00
sS'geno'
p8
(lp9
F0.029314755553626504
aF1.5714451130334457
aF1.7018189834949218
aF2.7907406995006991
aF1.2284490886060064
aF-0.9700964892475723
asS'accel_x'
p10
F0
sS'accel_y'
p11
F0
sS'visionAngle'
p12
I150
sS'maxAccel'
p13
I2
sS'maxVel'
p14
F0.5
sS'age'
p15
I0
sS'lastScale'
p16
F5.5
sS'maxSteering'
p17
I30
sS'energy'
p18
F0.5
sb.(i__main__
Data_mobile
p1
(dp2
S'vel_y'
p3
I0
sS'vel_x'
p4
I0
sS'pos_x'
p5
I-9579
sS'pos_y'
p6
I9779
sS'isAlive'
p7
I00
sS'geno'
p8
(lp9
F0.49125112379630886
aF1.7513060499278641
aF2.2768141457801847
aF2.938227042059784
aF1.2284490886060064
aF-0.86081054911128674
asS'accel_x'
p10
F0
sS'accel_y'
p11
F0
sS'visionAngle'
p12
I150
sS'maxAccel'
p13
I2
sS'maxVel'
p14
F0.5
sS'age'
p15
I0
sS'lastScale'
p16
F5.5
sS'maxSteering'
p17
I30
sS'energy'
p18
F0.5
sb.(i__main__
Data_mobile
p1
(dp2
S'vel_y'
p3
I0
sS'vel_x'
p4
I0
sS'pos_x'
p5
I-9579
sS'pos_y'
p6
I9779
sS'isAlive'
p7
I00
sS'geno'
p8
(lp9
F-0.0066711581184371038
aF1.5714451130334457
aF2.2768141457801847
aF2.938227042059784
aF1.2284490886060064
aF-1.3832636389047988
asS'accel_x'
p10
F0
sS'accel_y'
p11
F0
sS'visionAngle'
p12
I150
sS'maxAccel'
p13
I2
sS'maxVel'
p14
F0.5
sS'age'
p15
I0
sS'lastScale'
p16
F5.5
sS'maxSteering'
p17
I30
sS'energy'
p18
F0.5
sb.